(lp0
(dp1
S'processID'
p2
S'24713'
p3
sS'SyscTime'
p4
L1449902808015L
sS'priority'
p5
S'D'
p6
sS'tag'
p7
S'DefaultWebProtocolNames'
p8
sS'threadID'
p9
S'24713'
p10
sS'message'
p11
S'getWebProtocolNames\n'
p12
sa(dp13
g2
S'24713'
p14
sg4
L1449902808787L
sg5
S'E'
p15
sg7
S'doraemon:TraceId'
p16
sg9
S'24870'
p17
sg11
S'an thread has traceid,but cache loss it\n'
p18
sa(dp19
g2
S'24713'
p20
sg4
L1449902810897L
sg5
g6
sg7
S'libc-netbsd'
p21
sg9
S'24779'
p22
sg11
S'[getaddrinfo]: hostname=adash.m.taobao.com; servname=(null); cache_mode=(null), netid=0; mark=0\n'
p23
sa(dp24
g2
S'24713'
p25
sg4
L1449902810897L
sg5
g6
sg7
S'libc-netbsd'
p26
sg9
S'24779'
p27
sg11
S'[getaddrinfo]: ai_addrlen=0; ai_canonname=(null); ai_flags=4; ai_family=0\n'
p28
sa(dp29
g2
S'24713'
p30
sg4
L1449902810897L
sg5
g6
sg7
S'libc-netbsd'
p31
sg9
S'24779'
p32
sg11
S'[getaddrinfo]: ai_addrlen=0; ai_canonname=(null); ai_flags=1024; ai_family=0\n'
p33
sa(dp34
g2
S'24713'
p35
sg4
L1449902810917L
sg5
g6
sg7
S'libc-netbsd'
p36
sg9
S'24779'
p37
sg11
S'getaddrinfo: adash.m.taobao.com get result from proxy >>\n'
p38
sa(dp39
g2
S'24713'
p40
sg4
L1449902820274L
sg5
g6
sg7
S'cn.edu.nju.ise.kikandroid'
p41
sg9
S'24868'
p42
sg11
S'Screenshot:1449902819929\n'
p43
sa(dp44
g2
S'24713'
p45
sg4
L1449902825092L
sg5
g6
sg7
S'libc-netbsd'
p46
sg9
S'24779'
p47
sg11
S'[getaddrinfo]: hostname=adash.m.taobao.com; servname=(null); cache_mode=(null), netid=0; mark=0\n'
p48
sa(dp49
g2
S'24713'
p50
sg4
L1449902825092L
sg5
g6
sg7
S'libc-netbsd'
p51
sg9
S'24779'
p52
sg11
S'[getaddrinfo]: ai_addrlen=0; ai_canonname=(null); ai_flags=4; ai_family=0\n'
p53
sa(dp54
g2
S'24713'
p55
sg4
L1449902825092L
sg5
g6
sg7
S'libc-netbsd'
p56
sg9
S'24779'
p57
sg11
S'[getaddrinfo]: ai_addrlen=0; ai_canonname=(null); ai_flags=1024; ai_family=0\n'
p58
sa(dp59
g2
S'24713'
p60
sg4
L1449902825093L
sg5
g6
sg7
S'libc-netbsd'
p61
sg9
S'24779'
p62
sg11
S'getaddrinfo: adash.m.taobao.com get result from proxy >>\n'
p63
sa(dp64
g2
S'24713'
p65
sg4
L1449902828119L
sg5
g6
sg7
S'libc-netbsd'
p66
sg9
S'24779'
p67
sg11
S'[getaddrinfo]: hostname=adash.m.taobao.com; servname=(null); cache_mode=(null), netid=0; mark=0\n'
p68
sa(dp69
g2
S'24713'
p70
sg4
L1449902828119L
sg5
g6
sg7
S'libc-netbsd'
p71
sg9
S'24779'
p72
sg11
S'[getaddrinfo]: ai_addrlen=0; ai_canonname=(null); ai_flags=4; ai_family=0\n'
p73
sa(dp74
g2
S'24713'
p75
sg4
L1449902828119L
sg5
g6
sg7
S'libc-netbsd'
p76
sg9
S'24779'
p77
sg11
S'[getaddrinfo]: ai_addrlen=0; ai_canonname=(null); ai_flags=1024; ai_family=0\n'
p78
sa(dp79
g2
S'24713'
p80
sg4
L1449902828120L
sg5
g6
sg7
S'libc-netbsd'
p81
sg9
S'24779'
p82
sg11
S'getaddrinfo: adash.m.taobao.com get result from proxy >>\n'
p83
sa(dp84
g2
S'24713'
p85
sg4
L1449902835861L
sg5
g6
sg7
S'cn.edu.nju.ise.kikandroid'
p86
sg9
S'24868'
p87
sg11
S'Log:1449902835861\n'
p88
sa.