(lp0
(dp1
S'processID'
p2
S'6190'
p3
sS'SyscTime'
p4
L1449713993160L
sS'priority'
p5
S'E'
p6
sS'tag'
p7
S'Trace   '
p8
sS'threadID'
p9
S' 6190'
p10
sS'message'
p11
S'error opening trace file: No such file or directory (2)\n'
p12
sa(dp13
g2
S'6190'
p14
sg4
L1449713993270L
sg5
S'D'
p15
sg7
S'SocketService'
p16
sg9
S' 6190'
p17
sg11
S'onStartCommand : bLogin:false\n'
p18
sa(dp19
g2
S'6190'
p20
sg4
L1449713993280L
sg5
g15
sg7
S'SocketService'
p21
sg9
S' 6190'
p22
sg11
S'pid:6190 myPid:6190\n'
p23
sa(dp24
g2
S'6190'
p25
sg4
L1449713993290L
sg5
g15
sg7
S'SocketService'
p26
sg9
S' 6190'
p27
sg11
S'start to run current thread!id:2359\n'
p28
sa(dp29
g2
S'6190'
p30
sg4
L1449713993290L
sg5
g15
sg7
S'libc    '
p31
sg9
S' 6212'
p32
sg11
S'[NET] getaddrinfo  hn 13, servname NULL, ai_family 0+\n'
p33
sa(dp34
g2
S'6190'
p35
sg4
L1449713993290L
sg5
g15
sg7
S'libc    '
p36
sg9
S' 6212'
p37
sg11
S'[NET] ht 0x3231382e39342e\n'
p38
sa(dp39
g2
S'6190'
p40
sg4
L1449713993290L
sg5
g15
sg7
S'libc    '
p41
sg9
S' 6212'
p42
sg11
S'[NET] getaddrinfo-exit SUCCESS\n'
p43
sa(dp44
g2
S'6190'
p45
sg4
L1449713993350L
sg5
g15
sg7
S'SocketService'
p46
sg9
S' 6212'
p47
sg11
S'ip/192.168.1.170 lport:41138 p:143\n'
p48
sa(dp49
g2
S'6190'
p50
sg4
L1449713993380L
sg5
g15
sg7
S'ForegroundActivity'
p51
sg9
S' 6212'
p52
sg11
S'\xe6\x9c\xac\xe6\xac\xa1\xe5\x8f\x91\xe9\x80\x81\xe5\xb8\xa7\xe9\x95\xbf:35\t\xe6\x80\xbb\xe5\xb8\xa7\xe9\x95\xbf:35\n'
p53
sa(dp54
g2
S'6190'
p55
sg4
L1449713993380L
sg5
g15
sg7
S'SocketService'
p56
sg9
S' 6212'
p57
sg11
S'success to connect server!id:2359 bLogin:false\n'
p58
sa(dp59
g2
S'6190'
p60
sg4
L1449713993450L
sg5
g15
sg7
S'ForegroundActivity'
p61
sg9
S' 6213'
p62
sg11
S'\xe6\x9c\xac\xe6\xac\xa1\xe6\x94\xb6\xe5\x88\xb0\xe5\xb8\xa7\xe9\x95\xbf:13\t\xe6\x80\xbb\xe5\xb8\xa7\xe9\x95\xbf:13\n'
p63
sa(dp64
g2
S'6190'
p65
sg4
L1449713994270L
sg5
g15
sg7
S'SocketService1'
p66
sg9
S' 6210'
p67
sg11
S'\xe6\x9c\xac\xe6\xac\xa1\xe6\x8f\x90\xe5\x8f\x961:LoadPtr:13 HeadIndex:0 GetSize:13 13 0 \xe5\xa4\xb4\xe4\xbf\xa1\xe6\x81\xaf:EB 90 EB 90 EB 90 0D 00 0E 01 \n'
p68
sa(dp69
g2
S'27572'
p70
sg4
L1449713994270L
sg5
g15
sg7
S'MainActivity'
p71
sg9
S'27572'
p72
sg11
S'Unkown Report:ffffffeb ffffff90 ffffffeb ffffff90 ffffffeb ffffff90 d 0 e 1 1 0 ffffff81 \n'
p73
sa(dp74
g2
S'6190'
p75
sg4
L1449713994380L
sg5
g15
sg7
S'ForegroundActivity'
p76
sg9
S' 6212'
p77
sg11
S'\xe6\x9c\xac\xe6\xac\xa1\xe5\x8f\x91\xe9\x80\x81\xe5\xb8\xa7\xe9\x95\xbf:11\t\xe6\x80\xbb\xe5\xb8\xa7\xe9\x95\xbf:46\n'
p78
sa(dp79
g2
S'6190'
p80
sg4
L1449713994750L
sg5
g15
sg7
S'ForegroundActivity'
p81
sg9
S' 6213'
p82
sg11
S'\xe6\x9c\xac\xe6\xac\xa1\xe6\x94\xb6\xe5\x88\xb0\xe5\xb8\xa7\xe9\x95\xbf:642\t\xe6\x80\xbb\xe5\xb8\xa7\xe9\x95\xbf:655\n'
p83
sa(dp84
g2
S'6190'
p85
sg4
L1449713995280L
sg5
g15
sg7
S'SocketService1'
p86
sg9
S' 6210'
p87
sg11
S'\xe6\x9c\xac\xe6\xac\xa1\xe6\x8f\x90\xe5\x8f\x961:LoadPtr:655 HeadIndex:13 GetSize:642 130 512 \xe5\xa4\xb4\xe4\xbf\xa1\xe6\x81\xaf:EB 90 EB 90 EB 90 82 02 14 0A \n'
p88
sa(dp89
g2
S'27572'
p90
sg4
L1449713995290L
sg5
g15
sg7
S'MainActivity'
p91
sg9
S'27572'
p92
sg11
S'page0:http://oa.paneng.cn:1143/se9200/realdata/realdata.html\n'
p93
sa(dp94
g2
S'27572'
p95
sg4
L1449713995290L
sg5
g15
sg7
S'MainActivity'
p96
sg9
S'27572'
p97
sg11
S'page1:http://oa.paneng.cn:1143/se9200/graph/gshow.jsp?mRID=1130000050\n'
p98
sa(dp99
g2
S'27572'
p100
sg4
L1449713995290L
sg5
g15
sg7
S'MainActivity'
p101
sg9
S'27572'
p102
sg11
S'page2:http://oa.paneng.cn:1143/se9200/graph/gshow.jsp?mRID=1130000052\n'
p103
sa(dp104
g2
S'27572'
p105
sg4
L1449713995290L
sg5
g15
sg7
S'MainActivity'
p106
sg9
S'27572'
p107
sg11
S'page3:http://oa.paneng.cn:1143/se9200/graph/gshow.jsp?mRID=1130000054\n'
p108
sa(dp109
g2
S'27572'
p110
sg4
L1449713995290L
sg5
g15
sg7
S'MainActivity'
p111
sg9
S'27572'
p112
sg11
S'page4:http://oa.paneng.cn:1143/se9200/graph/gshow.jsp?mRID=1130000007\n'
p113
sa(dp114
g2
S'27572'
p115
sg4
L1449713995290L
sg5
g15
sg7
S'MainActivity'
p116
sg9
S'27572'
p117
sg11
S'page5:http://oa.paneng.cn:1143/se9200/graph/gshow.jsp?mRID=1130000047\n'
p118
sa(dp119
g2
S'27572'
p120
sg4
L1449713995290L
sg5
g15
sg7
S'MainActivity'
p121
sg9
S'27572'
p122
sg11
S'page6:http://oa.paneng.cn:1143/se9200/graph/gshow.jsp?mRID=1130000011\n'
p123
sa(dp124
g2
S'27572'
p125
sg4
L1449713995290L
sg5
g15
sg7
S'MainActivity'
p126
sg9
S'27572'
p127
sg11
S'page7:http://oa.paneng.cn:1143/se9200/graph/gshow.jsp?mRID=1130000005\n'
p128
sa(dp129
g2
S'27572'
p130
sg4
L1449713995290L
sg5
g15
sg7
S'MainActivity'
p131
sg9
S'27572'
p132
sg11
S'page8:http://oa.paneng.cn:1143/se9200/graph/gshow.jsp?mRID=1130000148\n'
p133
sa(dp134
g2
S'27572'
p135
sg4
L1449713995290L
sg5
g15
sg7
S'MainActivity'
p136
sg9
S'27572'
p137
sg11
S'page9:http://oa.paneng.cn:1143/se9200/graph/gshow.jsp?mRID=1130000296\n'
p138
sa(dp139
g2
S'6190'
p140
sg4
L1449713995380L
sg5
g15
sg7
S'ForegroundActivity'
p141
sg9
S' 6212'
p142
sg11
S'\xe6\x9c\xac\xe6\xac\xa1\xe5\x8f\x91\xe9\x80\x81\xe5\xb8\xa7\xe9\x95\xbf:11\t\xe6\x80\xbb\xe5\xb8\xa7\xe9\x95\xbf:57\n'
p143
sa(dp144
g2
S'6190'
p145
sg4
L1449713995470L
sg5
g15
sg7
S'ForegroundActivity'
p146
sg9
S' 6213'
p147
sg11
S'\xe6\x9c\xac\xe6\xac\xa1\xe6\x94\xb6\xe5\x88\xb0\xe5\xb8\xa7\xe9\x95\xbf:67\t\xe6\x80\xbb\xe5\xb8\xa7\xe9\x95\xbf:722\n'
p148
sa(dp149
g2
S'6190'
p150
sg4
L1449713996310L
sg5
g15
sg7
S'SocketService1'
p151
sg9
S' 6210'
p152
sg11
S'\xe6\x9c\xac\xe6\xac\xa1\xe6\x8f\x90\xe5\x8f\x961:LoadPtr:722 HeadIndex:655 GetSize:67 67 0 \xe5\xa4\xb4\xe4\xbf\xa1\xe6\x81\xaf:EB 90 EB 90 EB 90 43 00 15 02 \n'
p153
sa(dp154
g2
S'27572'
p155
sg4
L1449713996310L
sg5
g15
sg7
S'MainActivity'
p156
sg9
S'27572'
p157
sg11
S'ServerVersion:22 LocalVersion:12\n'
p158
sa(dp159
g2
S'27572'
p160
sg4
L1449713998460L
sg5
g15
sg7
S'cn.edu.nju.ise.kikandroid'
p161
sg9
S'27630'
p162
sg11
S'Log:1449713998468\n'
p163
sa(dp164
g2
S'6190'
p165
sg4
L1449714033300L
sg5
g15
sg7
S'ForegroundActivity'
p166
sg9
S' 6208'
p167
sg11
S'\xe6\x9c\xac\xe6\xac\xa1\xe5\x8f\x91\xe9\x80\x81\xe5\xb8\xa7\xe9\x95\xbf:13\t\xe6\x80\xbb\xe5\xb8\xa7\xe9\x95\xbf:70\n'
p168
sa(dp169
g2
S'6190'
p170
sg4
L1449714033460L
sg5
g15
sg7
S'ForegroundActivity'
p171
sg9
S' 6213'
p172
sg11
S'\xe6\x9c\xac\xe6\xac\xa1\xe6\x94\xb6\xe5\x88\xb0\xe5\xb8\xa7\xe9\x95\xbf:13\t\xe6\x80\xbb\xe5\xb8\xa7\xe9\x95\xbf:735\n'
p173
sa(dp174
g2
S'6190'
p175
sg4
L1449714034440L
sg5
g15
sg7
S'SocketService1'
p176
sg9
S' 6210'
p177
sg11
S'\xe6\x9c\xac\xe6\xac\xa1\xe6\x8f\x90\xe5\x8f\x961:LoadPtr:735 HeadIndex:722 GetSize:13 13 0 \xe5\xa4\xb4\xe4\xbf\xa1\xe6\x81\xaf:EB 90 EB 90 EB 90 0D 00 10 01 \n'
p178
sa(dp179
g2
S'6190'
p180
sg4
L1449714073290L
sg5
g15
sg7
S'ForegroundActivity'
p181
sg9
S' 6208'
p182
sg11
S'\xe6\x9c\xac\xe6\xac\xa1\xe5\x8f\x91\xe9\x80\x81\xe5\xb8\xa7\xe9\x95\xbf:13\t\xe6\x80\xbb\xe5\xb8\xa7\xe9\x95\xbf:83\n'
p183
sa(dp184
g2
S'6190'
p185
sg4
L1449714073500L
sg5
g15
sg7
S'ForegroundActivity'
p186
sg9
S' 6213'
p187
sg11
S'\xe6\x9c\xac\xe6\xac\xa1\xe6\x94\xb6\xe5\x88\xb0\xe5\xb8\xa7\xe9\x95\xbf:13\t\xe6\x80\xbb\xe5\xb8\xa7\xe9\x95\xbf:748\n'
p188
sa(dp189
g2
S'6190'
p190
sg4
L1449714073580L
sg5
g15
sg7
S'SocketService1'
p191
sg9
S' 6210'
p192
sg11
S'\xe6\x9c\xac\xe6\xac\xa1\xe6\x8f\x90\xe5\x8f\x961:LoadPtr:748 HeadIndex:735 GetSize:13 13 0 \xe5\xa4\xb4\xe4\xbf\xa1\xe6\x81\xaf:EB 90 EB 90 EB 90 0D 00 10 01 \n'
p193
sa(dp194
g2
S'6190'
p195
sg4
L1449714113290L
sg5
g15
sg7
S'ForegroundActivity'
p196
sg9
S' 6208'
p197
sg11
S'\xe6\x9c\xac\xe6\xac\xa1\xe5\x8f\x91\xe9\x80\x81\xe5\xb8\xa7\xe9\x95\xbf:13\t\xe6\x80\xbb\xe5\xb8\xa7\xe9\x95\xbf:96\n'
p198
sa(dp199
g2
S'6190'
p200
sg4
L1449714113390L
sg5
g15
sg7
S'ForegroundActivity'
p201
sg9
S' 6213'
p202
sg11
S'\xe6\x9c\xac\xe6\xac\xa1\xe6\x94\xb6\xe5\x88\xb0\xe5\xb8\xa7\xe9\x95\xbf:13\t\xe6\x80\xbb\xe5\xb8\xa7\xe9\x95\xbf:761\n'
p203
sa(dp204
g2
S'6190'
p205
sg4
L1449714113690L
sg5
g15
sg7
S'SocketService1'
p206
sg9
S' 6210'
p207
sg11
S'\xe6\x9c\xac\xe6\xac\xa1\xe6\x8f\x90\xe5\x8f\x961:LoadPtr:761 HeadIndex:748 GetSize:13 13 0 \xe5\xa4\xb4\xe4\xbf\xa1\xe6\x81\xaf:EB 90 EB 90 EB 90 0D 00 10 01 \n'
p208
sa(dp209
g2
S'6190'
p210
sg4
L1449714113830L
sg5
g15
sg7
S'SocketService'
p211
sg9
S' 6190'
p212
sg11
S'pid:7295 myPid:6190\n'
p213
sa(dp214
g2
S'27572'
p215
sg4
L1449714114840L
sg5
g15
sg7
S'MainActivity'
p216
sg9
S'27572'
p217
sg11
S'Unkown Report:ffffffeb ffffff90 ffffffeb ffffff90 ffffffeb ffffff90 d 0 e 1 1 1 ffffff82 \n'
p218
sa(dp219
g2
S'27572'
p220
sg4
L1449714115900L
sg5
g15
sg7
S'MainActivity'
p221
sg9
S'27572'
p222
sg11
S'page0:http://oa.paneng.cn:1143/se9200/realdata/realdata.html\n'
p223
sa(dp224
g2
S'27572'
p225
sg4
L1449714115900L
sg5
g15
sg7
S'MainActivity'
p226
sg9
S'27572'
p227
sg11
S'page1:http://oa.paneng.cn:1143/se9200/graph/gshow.jsp?mRID=1130000050\n'
p228
sa(dp229
g2
S'27572'
p230
sg4
L1449714115900L
sg5
g15
sg7
S'MainActivity'
p231
sg9
S'27572'
p232
sg11
S'page2:http://oa.paneng.cn:1143/se9200/graph/gshow.jsp?mRID=1130000052\n'
p233
sa(dp234
g2
S'27572'
p235
sg4
L1449714115900L
sg5
g15
sg7
S'MainActivity'
p236
sg9
S'27572'
p237
sg11
S'page3:http://oa.paneng.cn:1143/se9200/graph/gshow.jsp?mRID=1130000054\n'
p238
sa(dp239
g2
S'27572'
p240
sg4
L1449714115910L
sg5
g15
sg7
S'MainActivity'
p241
sg9
S'27572'
p242
sg11
S'page4:http://oa.paneng.cn:1143/se9200/graph/gshow.jsp?mRID=1130000007\n'
p243
sa(dp244
g2
S'27572'
p245
sg4
L1449714115910L
sg5
g15
sg7
S'MainActivity'
p246
sg9
S'27572'
p247
sg11
S'page5:http://oa.paneng.cn:1143/se9200/graph/gshow.jsp?mRID=1130000047\n'
p248
sa(dp249
g2
S'27572'
p250
sg4
L1449714115910L
sg5
g15
sg7
S'MainActivity'
p251
sg9
S'27572'
p252
sg11
S'page6:http://oa.paneng.cn:1143/se9200/graph/gshow.jsp?mRID=1130000011\n'
p253
sa(dp254
g2
S'27572'
p255
sg4
L1449714115910L
sg5
g15
sg7
S'MainActivity'
p256
sg9
S'27572'
p257
sg11
S'page7:http://oa.paneng.cn:1143/se9200/graph/gshow.jsp?mRID=1130000005\n'
p258
sa(dp259
g2
S'27572'
p260
sg4
L1449714115910L
sg5
g15
sg7
S'MainActivity'
p261
sg9
S'27572'
p262
sg11
S'page8:http://oa.paneng.cn:1143/se9200/graph/gshow.jsp?mRID=1130000148\n'
p263
sa(dp264
g2
S'27572'
p265
sg4
L1449714115910L
sg5
g15
sg7
S'MainActivity'
p266
sg9
S'27572'
p267
sg11
S'page9:http://oa.paneng.cn:1143/se9200/graph/gshow.jsp?mRID=1130000296\n'
p268
sa(dp269
g2
S'6190'
p270
sg4
L1449714153290L
sg5
g15
sg7
S'ForegroundActivity'
p271
sg9
S' 6208'
p272
sg11
S'\xe6\x9c\xac\xe6\xac\xa1\xe5\x8f\x91\xe9\x80\x81\xe5\xb8\xa7\xe9\x95\xbf:13\t\xe6\x80\xbb\xe5\xb8\xa7\xe9\x95\xbf:109\n'
p273
sa(dp274
g2
S'6190'
p275
sg4
L1449714163290L
sg5
g15
sg7
S'ForegroundActivity'
p276
sg9
S' 6208'
p277
sg11
S'\xe6\x9c\xac\xe6\xac\xa1\xe5\x8f\x91\xe9\x80\x81\xe5\xb8\xa7\xe9\x95\xbf:13\t\xe6\x80\xbb\xe5\xb8\xa7\xe9\x95\xbf:122\n'
p278
sa(dp279
g2
S'6190'
p280
sg4
L1449714173290L
sg5
g15
sg7
S'ForegroundActivity'
p281
sg9
S' 6208'
p282
sg11
S'\xe6\x9c\xac\xe6\xac\xa1\xe5\x8f\x91\xe9\x80\x81\xe5\xb8\xa7\xe9\x95\xbf:13\t\xe6\x80\xbb\xe5\xb8\xa7\xe9\x95\xbf:135\n'
p283
sa(dp284
g2
S'6190'
p285
sg4
L1449714183290L
sg5
g15
sg7
S'ForegroundActivity'
p286
sg9
S' 6208'
p287
sg11
S'\xe6\x9c\xac\xe6\xac\xa1\xe5\x8f\x91\xe9\x80\x81\xe5\xb8\xa7\xe9\x95\xbf:13\t\xe6\x80\xbb\xe5\xb8\xa7\xe9\x95\xbf:148\n'
p288
sa(dp289
g2
S'6190'
p290
sg4
L1449714193290L
sg5
g15
sg7
S'ForegroundActivity'
p291
sg9
S' 6208'
p292
sg11
S'\xe6\x9c\xac\xe6\xac\xa1\xe5\x8f\x91\xe9\x80\x81\xe5\xb8\xa7\xe9\x95\xbf:13\t\xe6\x80\xbb\xe5\xb8\xa7\xe9\x95\xbf:161\n'
p293
sa(dp294
g2
S'6190'
p295
sg4
L1449714203290L
sg5
g15
sg7
S'ForegroundActivity'
p296
sg9
S' 6208'
p297
sg11
S'\xe6\x9c\xac\xe6\xac\xa1\xe5\x8f\x91\xe9\x80\x81\xe5\xb8\xa7\xe9\x95\xbf:13\t\xe6\x80\xbb\xe5\xb8\xa7\xe9\x95\xbf:174\n'
p298
sa(dp299
g2
S'6190'
p300
sg4
L1449714213290L
sg5
g15
sg7
S'ForegroundActivity'
p301
sg9
S' 6208'
p302
sg11
S'\xe6\x9c\xac\xe6\xac\xa1\xe5\x8f\x91\xe9\x80\x81\xe5\xb8\xa7\xe9\x95\xbf:13\t\xe6\x80\xbb\xe5\xb8\xa7\xe9\x95\xbf:187\n'
p303
sa(dp304
g2
S'6190'
p305
sg4
L1449714223290L
sg5
g15
sg7
S'ForegroundActivity'
p306
sg9
S' 6208'
p307
sg11
S'\xe6\x9c\xac\xe6\xac\xa1\xe5\x8f\x91\xe9\x80\x81\xe5\xb8\xa7\xe9\x95\xbf:13\t\xe6\x80\xbb\xe5\xb8\xa7\xe9\x95\xbf:200\n'
p308
sa(dp309
g2
S'6190'
p310
sg4
L1449714233290L
sg5
g15
sg7
S'ForegroundActivity'
p311
sg9
S' 6208'
p312
sg11
S'\xe6\x9c\xac\xe6\xac\xa1\xe5\x8f\x91\xe9\x80\x81\xe5\xb8\xa7\xe9\x95\xbf:13\t\xe6\x80\xbb\xe5\xb8\xa7\xe9\x95\xbf:213\n'
p313
sa.