(lp0
(dp1
S'processID'
p2
S'16240'
p3
sS'SyscTime'
p4
L1449719420956L
sS'priority'
p5
S'D'
p6
sS'tag'
p7
S'dalvikvm'
p8
sS'threadID'
p9
S'16240'
p10
sS'message'
p11
S'Late-enabling CheckJNI\n'
p12
sa(dp13
g2
S'16240'
p14
sg4
L1449719420986L
sg5
g6
sg7
S'ActivityThread'
p15
sg9
S'16240'
p16
sg11
S'setTargetHeapUtilization:0.75\n'
p17
sa(dp18
g2
S'16240'
p19
sg4
L1449719420986L
sg5
g6
sg7
S'ActivityThread'
p20
sg9
S'16240'
p21
sg11
S'setTargetHeapConcurrentStart:2097152\n'
p22
sa(dp23
g2
S'16240'
p24
sg4
L1449719421256L
sg5
g6
sg7
S'dalvikvm'
p25
sg9
S'16240'
p26
sg11
S'GC_FOR_ALLOC freed 55K, 18% free 6659K/8024K, paused 8ms, total 8ms\n'
p27
sa(dp28
g2
S'16240'
p29
sg4
L1449719421286L
sg5
S'I'
p30
sg7
S'dalvikvm-heap'
p31
sg9
S'16240'
p32
sg11
S'Grow heap (frag case) to 23.382MB for 15504848-byte allocation\n'
p33
sa(dp34
g2
S'16240'
p35
sg4
L1449719421306L
sg5
g6
sg7
S'dalvikvm'
p36
sg9
S'16244'
p37
sg11
S'GC_CONCURRENT freed <1K, 6% free 21800K/23168K, paused 2ms+2ms, total 16ms\n'
p38
sa(dp39
g2
S'16263'
p40
sg4
L1449719421536L
sg5
g6
sg7
S'dalvikvm'
p41
sg9
S'16263'
p42
sg11
S'Late-enabling CheckJNI\n'
p43
sa(dp44
g2
S'16263'
p45
sg4
L1449719421566L
sg5
g6
sg7
S'ActivityThread'
p46
sg9
S'16263'
p47
sg11
S'setTargetHeapUtilization:0.75\n'
p48
sa(dp49
g2
S'16263'
p50
sg4
L1449719421566L
sg5
g6
sg7
S'ActivityThread'
p51
sg9
S'16263'
p52
sg11
S'setTargetHeapConcurrentStart:2097152\n'
p53
sa(dp54
g2
S'16240'
p55
sg4
L1449719421586L
sg5
g6
sg7
S'libEGL  '
p56
sg9
S'16240'
p57
sg11
S'loaded /vendor/lib/egl/libEGL_adreno.so\n'
p58
sa(dp59
g2
S'16240'
p60
sg4
L1449719421586L
sg5
g6
sg7
S'libEGL  '
p61
sg9
S'16240'
p62
sg11
S'loaded /vendor/lib/egl/libGLESv1_CM_adreno.so\n'
p63
sa(dp64
g2
S'16240'
p65
sg4
L1449719421596L
sg5
g6
sg7
S'libEGL  '
p66
sg9
S'16240'
p67
sg11
S'loaded /vendor/lib/egl/libGLESv2_adreno.so\n'
p68
sa(dp69
g2
S'16240'
p70
sg4
L1449719421596L
sg5
g30
sg7
S'Adreno-EGL'
p71
sg9
S'16240'
p72
sg11
S'<qeglDrvAPI_eglInitialize:316>: EGL 1.4 QUALCOMM build: AU_LINUX_ANDROID_JB_3.2_RB2.04.03.00.129.073_msm8226_JB_3.2_RB2__release_AU ()\nOpenGL ES Shader Compiler Version: 20.00.02\nBuild Date: 11/15/13 Fri\nLocal Branch: \nRemote Branch: quic/jb_3.2_rb2.22\nLocal Patches: NONE\nReconstruct Branch: AU_LINUX_ANDROID_JB_3.2_RB2.04.03.00.129.073 +  NOTHING\n'
p73
sa(dp74
g2
S'16263'
p75
sg4
L1449719421616L
sg5
g6
sg7
S'SocketService'
p76
sg9
S'16263'
p77
sg11
S'onStartCommand : bLogin:false\n'
p78
sa(dp79
g2
S'16263'
p80
sg4
L1449719421616L
sg5
g6
sg7
S'SocketService'
p81
sg9
S'16263'
p82
sg11
S'pid:16263 myPid:16263\n'
p83
sa(dp84
g2
S'16263'
p85
sg4
L1449719421616L
sg5
g6
sg7
S'SocketService'
p86
sg9
S'16263'
p87
sg11
S'start to run current thread!id:1808\n'
p88
sa(dp89
g2
S'16240'
p90
sg4
L1449719421626L
sg5
g6
sg7
S'OpenGLRenderer'
p91
sg9
S'16240'
p92
sg11
S'Enabling debug mode 0\n'
p93
sa(dp94
g2
S'16263'
p95
sg4
L1449719421636L
sg5
g6
sg7
S'SocketService'
p96
sg9
S'16281'
p97
sg11
S'ip/172.18.198.2 lport:47668 p:143\n'
p98
sa(dp99
g2
S'16263'
p100
sg4
L1449719421636L
sg5
g6
sg7
S'ForegroundActivity'
p101
sg9
S'16281'
p102
sg11
S'\xe6\x9c\xac\xe6\xac\xa1\xe5\x8f\x91\xe9\x80\x81\xe5\xb8\xa7\xe9\x95\xbf:34\t\xe6\x80\xbb\xe5\xb8\xa7\xe9\x95\xbf:34\n'
p103
sa(dp104
g2
S'16263'
p105
sg4
L1449719421636L
sg5
g6
sg7
S'SocketService'
p106
sg9
S'16281'
p107
sg11
S'success to connect server!id:1808 bLogin:false\n'
p108
sa(dp109
g2
S'16263'
p110
sg4
L1449719421676L
sg5
g6
sg7
S'ForegroundActivity'
p111
sg9
S'16283'
p112
sg11
S'\xe6\x9c\xac\xe6\xac\xa1\xe6\x94\xb6\xe5\x88\xb0\xe5\xb8\xa7\xe9\x95\xbf:13\t\xe6\x80\xbb\xe5\xb8\xa7\xe9\x95\xbf:13\n'
p113
sa(dp114
g2
S'16263'
p115
sg4
L1449719422616L
sg5
g6
sg7
S'SocketService1'
p116
sg9
S'16279'
p117
sg11
S'\xe6\x9c\xac\xe6\xac\xa1\xe6\x8f\x90\xe5\x8f\x961:LoadPtr:13 HeadIndex:0 GetSize:13 13 0 \xe5\xa4\xb4\xe4\xbf\xa1\xe6\x81\xaf:EB 90 EB 90 EB 90 0D 00 0E 01 \n'
p118
sa(dp119
g2
S'16263'
p120
sg4
L1449719422646L
sg5
g6
sg7
S'ForegroundActivity'
p121
sg9
S'16281'
p122
sg11
S'\xe6\x9c\xac\xe6\xac\xa1\xe5\x8f\x91\xe9\x80\x81\xe5\xb8\xa7\xe9\x95\xbf:11\t\xe6\x80\xbb\xe5\xb8\xa7\xe9\x95\xbf:45\n'
p123
sa(dp124
g2
S'16263'
p125
sg4
L1449719422776L
sg5
g6
sg7
S'ForegroundActivity'
p126
sg9
S'16283'
p127
sg11
S'\xe6\x9c\xac\xe6\xac\xa1\xe6\x94\xb6\xe5\x88\xb0\xe5\xb8\xa7\xe9\x95\xbf:642\t\xe6\x80\xbb\xe5\xb8\xa7\xe9\x95\xbf:655\n'
p128
sa(dp129
g2
S'16263'
p130
sg4
L1449719423636L
sg5
g6
sg7
S'SocketService1'
p131
sg9
S'16279'
p132
sg11
S'\xe6\x9c\xac\xe6\xac\xa1\xe6\x8f\x90\xe5\x8f\x961:LoadPtr:655 HeadIndex:13 GetSize:642 130 512 \xe5\xa4\xb4\xe4\xbf\xa1\xe6\x81\xaf:EB 90 EB 90 EB 90 82 02 14 0A \n'
p133
sa(dp134
g2
S'16263'
p135
sg4
L1449719423716L
sg5
g6
sg7
S'ForegroundActivity'
p136
sg9
S'16281'
p137
sg11
S'\xe6\x9c\xac\xe6\xac\xa1\xe5\x8f\x91\xe9\x80\x81\xe5\xb8\xa7\xe9\x95\xbf:11\t\xe6\x80\xbb\xe5\xb8\xa7\xe9\x95\xbf:56\n'
p138
sa(dp139
g2
S'16263'
p140
sg4
L1449719423806L
sg5
g6
sg7
S'ForegroundActivity'
p141
sg9
S'16283'
p142
sg11
S'\xe6\x9c\xac\xe6\xac\xa1\xe6\x94\xb6\xe5\x88\xb0\xe5\xb8\xa7\xe9\x95\xbf:67\t\xe6\x80\xbb\xe5\xb8\xa7\xe9\x95\xbf:722\n'
p143
sa(dp144
g2
S'16240'
p145
sg4
L1449719423906L
sg5
g6
sg7
S'MainActivity'
p146
sg9
S'16240'
p147
sg11
S'Start One Client\n'
p148
sa(dp149
g2
S'16240'
p150
sg4
L1449719423916L
sg5
g6
sg7
S'StrictMode'
p151
sg9
S'16240'
p152
sg11
S'StrictMode policy violation; ~duration=21 ms: android.os.StrictMode$StrictModeDiskReadViolation: policy=23 violation=2\n\tat android.os.StrictMode$AndroidBlockGuardPolicy.onReadFromDisk(StrictMode.java:1126)\n\tat android.app.SharedPreferencesImpl.awaitLoadedLocked(SharedPreferencesImpl.java:203)\n\tat android.app.SharedPreferencesImpl.edit(SharedPreferencesImpl.java:282)\n\tat com.example.myfristandroid.MainActivity.initCfg(MainActivity.java:454)\n\tat com.example.myfristandroid.MainActivity.onCreate(MainActivity.java:295)\n\tat android.app.Activity.performCreate(Activity.java:5234)\n\tat android.app.Instrumentation.callActivityOnCreate(Instrumentation.java:1087)\n\tat android.app.ActivityThread.performLaunchActivity(ActivityThread.java:2302)\n\tat android.app.ActivityThread.handleLaunchActivity(ActivityThread.java:2388)\n\tat android.app.ActivityThread.access$900(ActivityThread.java:148)\n\tat android.app.ActivityThread$H.handleMessage(ActivityThread.java:1319)\n\tat android.os.Handler.dispatchMessage(Handler.java:99)\n\tat android.os.Looper.loop(Looper.java:137)\n\tat android.app.ActivityThread.main(ActivityThread.java:5473)\n\tat java.lang.reflect.Method.invokeNative(Native Method)\n\tat java.lang.reflect.Method.invoke(Method.java:525)\n\tat com.android.internal.os.ZygoteInit$MethodAndArgsCaller.run(ZygoteInit.java:804)\n\tat com.android.internal.os.ZygoteInit.main(ZygoteInit.java:620)\n\tat dalvik.system.NativeStart.main(Native Method)\n'
p153
sa(dp154
g2
S'16240'
p155
sg4
L1449719424106L
sg5
g6
sg7
S'dalvikvm'
p156
sg9
S'16244'
p157
sg11
S'GC_CONCURRENT freed 4616K, 17% free 22042K/26516K, paused 2ms+3ms, total 29ms\n'
p158
sa(dp159
g2
S'16263'
p160
sg4
L1449719424726L
sg5
g6
sg7
S'SocketService1'
p161
sg9
S'16279'
p162
sg11
S'\xe6\x9c\xac\xe6\xac\xa1\xe6\x8f\x90\xe5\x8f\x961:LoadPtr:722 HeadIndex:655 GetSize:67 67 0 \xe5\xa4\xb4\xe4\xbf\xa1\xe6\x81\xaf:EB 90 EB 90 EB 90 43 00 15 02 \n'
p163
sa(dp164
g2
S'16240'
p165
sg4
L1449719424736L
sg5
g6
sg7
S'MainActivity'
p166
sg9
S'16240'
p167
sg11
S'ServerVersion:23 LocalVersion:12\n'
p168
sa(dp169
g2
S'16240'
p170
sg4
L1449719456776L
sg5
g6
sg7
S'dalvikvm'
p171
sg9
S'16240'
p172
sg11
S'GC_FOR_ALLOC freed 1420K, 17% free 22198K/26512K, paused 20ms, total 23ms\n'
p173
sa(dp174
g2
S'16240'
p175
sg4
L1449719456806L
sg5
g30
sg7
S'dalvikvm-heap'
p176
sg9
S'16240'
p177
sg11
S'Grow heap (frag case) to 27.286MB for 3686416-byte allocation\n'
p178
sa(dp179
g2
S'16240'
p180
sg4
L1449719456906L
sg5
g6
sg7
S'dalvikvm'
p181
sg9
S'16240'
p182
sg11
S'GC_FOR_ALLOC freed 142K, 15% free 25656K/30116K, paused 17ms, total 19ms\n'
p183
sa(dp184
g2
S'16240'
p185
sg4
L1449719456926L
sg5
g30
sg7
S'dalvikvm-heap'
p186
sg9
S'16240'
p187
sg11
S'Grow heap (frag case) to 30.664MB for 3686416-byte allocation\n'
p188
sa(dp189
g2
S'16240'
p190
sg4
L1449719457296L
sg5
g6
sg7
S'cn.edu.nju.ise.kikandroid'
p191
sg9
S'16290'
p192
sg11
S'Screenshot:1449719456697\n'
p193
sa(dp194
g2
S'16240'
p195
sg4
L1449719458056L
sg5
g6
sg7
S'webcoreglue'
p196
sg9
S'16482'
p197
sg11
S'netstack: Memory Cache feature is ON\n'
p198
sa(dp199
g2
S'16240'
p200
sg4
L1449719458066L
sg5
g6
sg7
S'JSENGINE'
p201
sg9
S'16482'
p202
sg11
S'qualcomm.jsengine.version:C.2-patch35-git:7b7ad6f\n'
p203
sa(dp204
g2
S'16240'
p205
sg4
L1449719458116L
sg5
S'E'
p206
sg7
S'        '
p207
sg9
S'16482'
p208
sg11
S'netstack: LIB_MGR - Error loading lib libdnshostprio.so\n'
p209
sa(dp210
g2
S'16240'
p211
sg4
L1449719458116L
sg5
g206
sg7
S'        '
p212
sg9
S'16482'
p213
sg11
S'netstack: STAT_HUB - Failed to load plugin: libdnshostprio.so\n'
p214
sa(dp215
g2
S'16240'
p216
sg4
L1449719458116L
sg5
g206
sg7
S'        '
p217
sg9
S'16482'
p218
sg11
S'netstack: LIB_MGR - Error loading lib spl_proc_plugin.so\n'
p219
sa(dp220
g2
S'16240'
p221
sg4
L1449719458126L
sg5
g206
sg7
S'        '
p222
sg9
S'16482'
p223
sg11
S'netstack: STAT_HUB - Failed to load plugin: spl_proc_plugin.so\n'
p224
sa(dp225
g2
S'16240'
p226
sg4
L1449719458126L
sg5
g206
sg7
S'        '
p227
sg9
S'16482'
p228
sg11
S'netstack: LIB_MGR - Error loading lib pp_proc_plugin.so\n'
p229
sa(dp230
g2
S'16240'
p231
sg4
L1449719458126L
sg5
g206
sg7
S'        '
p232
sg9
S'16482'
p233
sg11
S'netstack: STAT_HUB - Failed to load plugin: pp_proc_plugin.so\n'
p234
sa(dp235
g2
S'16240'
p236
sg4
L1449719458126L
sg5
g206
sg7
S'        '
p237
sg9
S'16482'
p238
sg11
S"netstack:  STAT_HUB - App com.example.myfristandroid isn't supported\n"
p239
sa(dp240
g2
S'16240'
p241
sg4
L1449719458136L
sg5
S'V'
p242
sg7
S'chromium_net'
p243
sg9
S'16482'
p244
sg11
S'external/chromium/net/host_resolver_helper/host_resolver_helper.cc:66: [1210/115058:INFO:host_resolver_helper.cc(66)] DNSPreResolver::Init got hostprovider:0x00000000\n'
p245
sa(dp246
g2
S'16240'
p247
sg4
L1449719458136L
sg5
g242
sg7
S'chromium_net'
p248
sg9
S'16482'
p249
sg11
S'external/chromium/net/base/host_resolver_impl.cc:1510: [1210/115058:INFO:host_resolver_impl.cc(1510)] HostResolverImpl::SetPreresolver preresolver:0x614e71f8\n'
p250
sa(dp251
g2
S'16240'
p252
sg4
L1449719458136L
sg5
g206
sg7
S'        '
p253
sg9
S'16482'
p254
sg11
S'netstack: LIB_MGR - Error loading lib libdnshostprio.so\n'
p255
sa(dp256
g2
S'16240'
p257
sg4
L1449719458136L
sg5
g6
sg7
S'        '
p258
sg9
S'16482'
p259
sg11
S'dl error message dlopen failed: library "libtcpfinaggr.so" not found\n'
p260
sa(dp261
g2
S'16240'
p262
sg4
L1449719458136L
sg5
g6
sg7
S'Socket_Pool'
p263
sg9
S'16482'
p264
sg11
S'Failed to create TCP Fin Aggregation interface.\n'
p265
sa(dp266
g2
S'16240'
p267
sg4
L1449719458136L
sg5
g6
sg7
S'Socket_Pool'
p268
sg9
S'16482'
p269
sg11
S'netstack: CloseUnusedSockets is ON\n'
p270
sa(dp271
g2
S'16240'
p272
sg4
L1449719458136L
sg5
g6
sg7
S'Socket_Pool'
p273
sg9
S'16482'
p274
sg11
S'netstack: system net.statistics value: 0\n'
p275
sa(dp276
g2
S'16240'
p277
sg4
L1449719458146L
sg5
g6
sg7
S'netstack'
p278
sg9
S'16482'
p279
sg11
S'netstack: Request Priority is ON\n'
p280
sa(dp281
g2
S'16240'
p282
sg4
L1449719458146L
sg5
g6
sg7
S'Socket_Pool'
p283
sg9
S'16482'
p284
sg11
S'Failed to create TCP Fin Aggregation interface.\n'
p285
sa(dp286
g2
S'16240'
p287
sg4
L1449719458146L
sg5
g6
sg7
S'Socket_Pool'
p288
sg9
S'16482'
p289
sg11
S'netstack: CloseUnusedSockets is ON\n'
p290
sa(dp291
g2
S'16240'
p292
sg4
L1449719458146L
sg5
g6
sg7
S'Socket_Pool'
p293
sg9
S'16482'
p294
sg11
S'netstack: system net.statistics value: 0\n'
p295
sa(dp296
g2
S'16240'
p297
sg4
L1449719458146L
sg5
g6
sg7
S'        '
p298
sg9
S'16482'
p299
sg11
S"external/chromium/net/http/http_getzip_factory.cc: Failed to construct GETzip manager, didn't find the library!\n"
p300
sa(dp301
g2
S'16240'
p302
sg4
L1449719458206L
sg5
g6
sg7
S'WebKit  '
p303
sg9
S'16482'
p304
sg11
S'ERROR: \n'
p305
sa(dp306
g2
S'16240'
p307
sg4
L1449719458206L
sg5
g6
sg7
S'WebKit  '
p308
sg9
S'16482'
p309
sg11
S'alias gb18030 maps to GB18030 already, but someone is trying to make it map to GBK\n'
p310
sa(dp311
g2
S'16240'
p312
sg4
L1449719458206L
sg5
g6
sg7
S'WebKit  '
p313
sg9
S'16482'
p314
sg11
S''
p315
sa(dp316
g2
S'16240'
p317
sg4
L1449719458206L
sg5
g6
sg7
S'WebKit  '
p318
sg9
S'16482'
p319
sg11
S'external/webkit/Source/WebCore/platform/text/TextEncodingRegistry.cpp(152) : void WebCore::checkExistingName(const char*, const char*)\n'
p320
sa(dp321
g2
S'16240'
p322
sg4
L1449719458696L
sg5
g6
sg7
S'        '
p323
sg9
S'16490'
p324
sg11
S'Failed to load DoObserveConnections symbol in tcp-connections.so\n'
p325
sa(dp326
g2
S'16240'
p327
sg4
L1449719458766L
sg5
g206
sg7
S'Web Console'
p328
sg9
S'16240'
p329
sg11
S"Uncaught TypeError: Object [object Object] has no method 'startWait' at http://oa.paneng.cn:1143/se9200/realdata/js/realdata.js:80\n"
p330
sa(dp331
g2
S'16240'
p332
sg4
L1449719458776L
sg5
g206
sg7
S'cutils-trace'
p333
sg9
S'16482'
p334
sg11
S'Error opening trace file: No such file or directory (2)\n'
p335
sa(dp336
g2
S'16240'
p337
sg4
L1449719458776L
sg5
g6
sg7
S'TilesManager'
p338
sg9
S'16240'
p339
sg11
S'Starting TG #0, 0x625c7e20\n'
p340
sa(dp341
g2
S'16240'
p342
sg4
L1449719458776L
sg5
g6
sg7
S'TilesManager'
p343
sg9
S'16240'
p344
sg11
S'new EGLContext from framework: 5f12a558 \n'
p345
sa(dp346
g2
S'16240'
p347
sg4
L1449719458776L
sg5
g6
sg7
S'GLWebViewState'
p348
sg9
S'16240'
p349
sg11
S'Reinit shader\n'
p350
sa(dp351
g2
S'16240'
p352
sg4
L1449719458826L
sg5
g6
sg7
S'GLWebViewState'
p353
sg9
S'16240'
p354
sg11
S'Reinit transferQueue\n'
p355
sa(dp356
g2
S'16263'
p357
sg4
L1449719461626L
sg5
g6
sg7
S'ForegroundActivity'
p358
sg9
S'16277'
p359
sg11
S'\xe6\x9c\xac\xe6\xac\xa1\xe5\x8f\x91\xe9\x80\x81\xe5\xb8\xa7\xe9\x95\xbf:13\t\xe6\x80\xbb\xe5\xb8\xa7\xe9\x95\xbf:69\n'
p360
sa(dp361
g2
S'16263'
p362
sg4
L1449719461656L
sg5
g6
sg7
S'ForegroundActivity'
p363
sg9
S'16283'
p364
sg11
S'\xe6\x9c\xac\xe6\xac\xa1\xe6\x94\xb6\xe5\x88\xb0\xe5\xb8\xa7\xe9\x95\xbf:13\t\xe6\x80\xbb\xe5\xb8\xa7\xe9\x95\xbf:735\n'
p365
sa(dp366
g2
S'16263'
p367
sg4
L1449719461846L
sg5
g6
sg7
S'SocketService1'
p368
sg9
S'16279'
p369
sg11
S'\xe6\x9c\xac\xe6\xac\xa1\xe6\x8f\x90\xe5\x8f\x961:LoadPtr:735 HeadIndex:722 GetSize:13 13 0 \xe5\xa4\xb4\xe4\xbf\xa1\xe6\x81\xaf:EB 90 EB 90 EB 90 0D 00 10 01 \n'
p370
sa(dp371
g2
S'16240'
p372
sg4
L1449719462426L
sg5
g6
sg7
S'dalvikvm'
p373
sg9
S'16240'
p374
sg11
S'GC_FOR_ALLOC freed 7389K, 16% free 22259K/26452K, paused 49ms, total 50ms\n'
p375
sa(dp376
g2
S'16240'
p377
sg4
L1449719462456L
sg5
g30
sg7
S'dalvikvm-heap'
p378
sg9
S'16240'
p379
sg11
S'Grow heap (frag case) to 27.346MB for 3686416-byte allocation\n'
p380
sa(dp381
g2
S'16240'
p382
sg4
L1449719462496L
sg5
g6
sg7
S'dalvikvm'
p383
sg9
S'16240'
p384
sg11
S'GC_FOR_ALLOC freed 3K, 14% free 25855K/30056K, paused 17ms, total 17ms\n'
p385
sa(dp386
g2
S'16240'
p387
sg4
L1449719462506L
sg5
g30
sg7
S'dalvikvm-heap'
p388
sg9
S'16240'
p389
sg11
S'Grow heap (frag case) to 30.858MB for 3686416-byte allocation\n'
p390
sa(dp391
g2
S'16240'
p392
sg4
L1449719463606L
sg5
g6
sg7
S'cn.edu.nju.ise.kikandroid'
p393
sg9
S'16290'
p394
sg11
S'Screenshot:1449719462377\n'
p395
sa(dp396
g2
S'16240'
p397
sg4
L1449719464596L
sg5
g206
sg7
S'        '
p398
sg9
S'16490'
p399
sg11
S'netstack: LIB_MGR - Error loading lib qnet-plugin.so\n'
p400
sa(dp401
g2
S'16240'
p402
sg4
L1449719465246L
sg5
g6
sg7
S'MainActivity'
p403
sg9
S'16482'
p404
sg11
S'h:910.5,w:1687.5\n'
p405
sa(dp406
g2
S'16240'
p407
sg4
L1449719471576L
sg5
g6
sg7
S'dalvikvm'
p408
sg9
S'16240'
p409
sg11
S'GC_FOR_ALLOC freed 7471K, 16% free 22389K/26452K, paused 53ms, total 54ms\n'
p410
sa(dp411
g2
S'16240'
p412
sg4
L1449719471606L
sg5
g30
sg7
S'dalvikvm-heap'
p413
sg9
S'16240'
p414
sg11
S'Grow heap (frag case) to 27.472MB for 3686416-byte allocation\n'
p415
sa(dp416
g2
S'16240'
p417
sg4
L1449719471676L
sg5
g6
sg7
S'dalvikvm'
p418
sg9
S'16240'
p419
sg11
S'GC_FOR_ALLOC freed 11K, 14% free 25977K/30056K, paused 15ms, total 15ms\n'
p420
sa(dp421
g2
S'16240'
p422
sg4
L1449719471946L
sg5
g6
sg7
S'cn.edu.nju.ise.kikandroid'
p423
sg9
S'16290'
p424
sg11
S'Screenshot:1449719471517\n'
p425
sa(dp426
g2
S'16240'
p427
sg4
L1449719478046L
sg5
g6
sg7
S'MainActivity'
p428
sg9
S'16482'
p429
sg11
S'h:774.256,w:1432\n'
p430
sa(dp431
g2
S'16240'
p432
sg4
L1449719481426L
sg5
g6
sg7
S'dalvikvm'
p433
sg9
S'16240'
p434
sg11
S'GC_FOR_ALLOC freed 7404K, 10% free 23820K/26452K, paused 39ms, total 40ms\n'
p435
sa(dp436
g2
S'16240'
p437
sg4
L1449719481566L
sg5
g6
sg7
S'dalvikvm'
p438
sg9
S'16240'
p439
sg11
S'GC_FOR_ALLOC freed 11K, 9% free 27408K/30056K, paused 21ms, total 21ms\n'
p440
sa(dp441
g2
S'16240'
p442
sg4
L1449719481786L
sg5
g6
sg7
S'cn.edu.nju.ise.kikandroid'
p443
sg9
S'16290'
p444
sg11
S'Screenshot:1449719481378\n'
p445
sa(dp446
g2
S'16240'
p447
sg4
L1449719483936L
sg5
g6
sg7
S'MainActivity'
p448
sg9
S'16482'
p449
sg11
S'h:710.915,w:1183.07\n'
p450
sa(dp451
g2
S'16240'
p452
sg4
L1449719491176L
sg5
g6
sg7
S'dalvikvm'
p453
sg9
S'16240'
p454
sg11
S'GC_FOR_ALLOC freed 7403K, 5% free 25250K/26452K, paused 49ms, total 49ms\n'
p455
sa(dp456
g2
S'16240'
p457
sg4
L1449719491246L
sg5
g6
sg7
S'dalvikvm'
p458
sg9
S'16240'
p459
sg11
S'GC_FOR_ALLOC freed 12K, 5% free 28838K/30056K, paused 17ms, total 17ms\n'
p460
sa(dp461
g2
S'16240'
p462
sg4
L1449719491446L
sg5
g6
sg7
S'cn.edu.nju.ise.kikandroid'
p463
sg9
S'16290'
p464
sg11
S'Screenshot:1449719491129\n'
p465
sa(dp466
g2
S'16263'
p467
sg4
L1449719501616L
sg5
g6
sg7
S'ForegroundActivity'
p468
sg9
S'16277'
p469
sg11
S'\xe6\x9c\xac\xe6\xac\xa1\xe5\x8f\x91\xe9\x80\x81\xe5\xb8\xa7\xe9\x95\xbf:13\t\xe6\x80\xbb\xe5\xb8\xa7\xe9\x95\xbf:82\n'
p470
sa(dp471
g2
S'16263'
p472
sg4
L1449719501726L
sg5
g6
sg7
S'ForegroundActivity'
p473
sg9
S'16283'
p474
sg11
S'\xe6\x9c\xac\xe6\xac\xa1\xe6\x94\xb6\xe5\x88\xb0\xe5\xb8\xa7\xe9\x95\xbf:13\t\xe6\x80\xbb\xe5\xb8\xa7\xe9\x95\xbf:748\n'
p475
sa(dp476
g2
S'16263'
p477
sg4
L1449719501926L
sg5
g6
sg7
S'SocketService1'
p478
sg9
S'16279'
p479
sg11
S'\xe6\x9c\xac\xe6\xac\xa1\xe6\x8f\x90\xe5\x8f\x961:LoadPtr:748 HeadIndex:735 GetSize:13 13 0 \xe5\xa4\xb4\xe4\xbf\xa1\xe6\x81\xaf:EB 90 EB 90 EB 90 0D 00 10 01 \n'
p480
sa(dp481
g2
S'16240'
p482
sg4
L1449719503366L
sg5
g6
sg7
S'MyWebView'
p483
sg9
S'16240'
p484
sg11
S'xspeed2:1056 distanceX2:216\n'
p485
sa(dp486
g2
S'16240'
p487
sg4
L1449719503416L
sg5
g6
sg7
S'MyWebView'
p488
sg9
S'16240'
p489
sg11
S'xspeed2:1213 distanceX2:276\n'
p490
sa(dp491
g2
S'16240'
p492
sg4
L1449719503426L
sg5
g6
sg7
S'MyWebView'
p493
sg9
S'16240'
p494
sg11
S'xspeed2:1355 distanceX2:283\n'
p495
sa(dp496
g2
S'16240'
p497
sg4
L1449719503536L
sg5
g6
sg7
S'MainActivity'
p498
sg9
S'16482'
p499
sg11
S'h:910.5,w:1687.5\n'
p500
sa(dp501
g2
S'16240'
p502
sg4
L1449719503726L
sg5
g206
sg7
S'webcoreglue'
p503
sg9
S'16482'
p504
sg11
S'getAbsoluteBoundingBox failed for node 0x665d88d8, name RenderSVGContainer\n'
p505
sa(dp506
g2
S'16240'
p507
sg4
L1449719503736L
sg5
g206
sg7
S'webcoreglue'
p508
sg9
S'16482'
p509
sg11
S'getAbsoluteBoundingBox failed for node 0x665d8b48, name RenderSVGContainer\n'
p510
sa(dp511
g2
S'16240'
p512
sg4
L1449719503736L
sg5
g206
sg7
S'webcoreglue'
p513
sg9
S'16482'
p514
sg11
S'getAbsoluteBoundingBox failed for node 0x665d7550, name RenderSVGContainer\n'
p515
sa(dp516
g2
S'16240'
p517
sg4
L1449719503736L
sg5
g206
sg7
S'webcoreglue'
p518
sg9
S'16482'
p519
sg11
S'getAbsoluteBoundingBox failed for node 0x665d7668, name RenderSVGPath\n'
p520
sa(dp521
g2
S'16240'
p522
sg4
L1449719504836L
sg5
g206
sg7
S'webcoreglue'
p523
sg9
S'16482'
p524
sg11
S'getAbsoluteBoundingBox failed for node 0x665d7b98, name RenderSVGContainer\n'
p525
sa(dp526
g2
S'16240'
p527
sg4
L1449719504836L
sg5
g206
sg7
S'webcoreglue'
p528
sg9
S'16482'
p529
sg11
S'getAbsoluteBoundingBox failed for node 0x665d7e08, name RenderSVGContainer\n'
p530
sa(dp531
g2
S'16240'
p532
sg4
L1449719504856L
sg5
g206
sg7
S'webcoreglue'
p533
sg9
S'16482'
p534
sg11
S'getAbsoluteBoundingBox failed for node 0x665d5f68, name RenderSVGContainer\n'
p535
sa(dp536
g2
S'16240'
p537
sg4
L1449719504866L
sg5
g206
sg7
S'webcoreglue'
p538
sg9
S'16482'
p539
sg11
S'getAbsoluteBoundingBox failed for node 0x665d6080, name RenderSVGPath\n'
p540
sa(dp541
g2
S'16240'
p542
sg4
L1449719506136L
sg5
g6
sg7
S'MainActivity'
p543
sg9
S'16482'
p544
sg11
S'h:805.135,w:1498.76\n'
p545
sa(dp546
g2
S'16240'
p547
sg4
L1449719514046L
sg5
g6
sg7
S'dalvikvm'
p548
sg9
S'16240'
p549
sg11
S'GC_FOR_ALLOC freed 7469K, 22% free 27326K/34928K, paused 67ms, total 67ms\n'
p550
sa(dp551
g2
S'16240'
p552
sg4
L1449719514176L
sg5
g6
sg7
S'dalvikvm'
p553
sg9
S'16244'
p554
sg11
S'GC_CONCURRENT freed 3630K, 12% free 30903K/34928K, paused 7ms+3ms, total 49ms\n'
p555
sa(dp556
g2
S'16240'
p557
sg4
L1449719514516L
sg5
g6
sg7
S'cn.edu.nju.ise.kikandroid'
p558
sg9
S'16290'
p559
sg11
S'Screenshot:1449719513983\n'
p560
sa(dp561
g2
S'16240'
p562
sg4
L1449719528186L
sg5
g6
sg7
S'MainActivity'
p563
sg9
S'16482'
p564
sg11
S'h:910.5,w:1687.5\n'
p565
sa(dp566
g2
S'16263'
p567
sg4
L1449719541616L
sg5
g6
sg7
S'ForegroundActivity'
p568
sg9
S'16277'
p569
sg11
S'\xe6\x9c\xac\xe6\xac\xa1\xe5\x8f\x91\xe9\x80\x81\xe5\xb8\xa7\xe9\x95\xbf:13\t\xe6\x80\xbb\xe5\xb8\xa7\xe9\x95\xbf:95\n'
p570
sa(dp571
g2
S'16263'
p572
sg4
L1449719541696L
sg5
g6
sg7
S'ForegroundActivity'
p573
sg9
S'16283'
p574
sg11
S'\xe6\x9c\xac\xe6\xac\xa1\xe6\x94\xb6\xe5\x88\xb0\xe5\xb8\xa7\xe9\x95\xbf:13\t\xe6\x80\xbb\xe5\xb8\xa7\xe9\x95\xbf:761\n'
p575
sa(dp576
g2
S'16263'
p577
sg4
L1449719542046L
sg5
g6
sg7
S'SocketService1'
p578
sg9
S'16279'
p579
sg11
S'\xe6\x9c\xac\xe6\xac\xa1\xe6\x8f\x90\xe5\x8f\x961:LoadPtr:761 HeadIndex:748 GetSize:13 13 0 \xe5\xa4\xb4\xe4\xbf\xa1\xe6\x81\xaf:EB 90 EB 90 EB 90 0D 00 10 01 \n'
p580
sa(dp581
g2
S'16240'
p582
sg4
L1449719553016L
sg5
g6
sg7
S'cn.edu.nju.ise.kikandroid'
p583
sg9
S'16290'
p584
sg11
S'Log:1449719553024\n'
p585
sa(dp586
g2
S'16240'
p587
sg4
L1449719553226L
sg5
g6
sg7
S'dalvikvm'
p588
sg9
S'16244'
p589
sg11
S'GC_CONCURRENT freed 7367K, 20% free 30907K/38508K, paused 2ms+4ms, total 58ms\n'
p590
sa(dp591
g2
S'16240'
p592
sg4
L1449719553456L
sg5
g6
sg7
S'cn.edu.nju.ise.kikandroid'
p593
sg9
S'16290'
p594
sg11
S'Screenshot:1449719553068\n'
p595
sa(dp596
g2
S'16240'
p597
sg4
L1449719553456L
sg5
S'W'
p598
sg7
S'dalvikvm'
p599
sg9
S'16290'
p600
sg11
S'threadid=14: thread exiting with uncaught exception (group=0x415ae808)\n'
p601
sa(dp602
g2
S'16240'
p603
sg4
L1449719553456L
sg5
g206
sg7
S'AndroidRuntime'
p604
sg9
S'16290'
p605
sg11
S'FATAL EXCEPTION: Thread-1803\njava.lang.NullPointerException\n\tat android.app.Instrumentation.finish(Instrumentation.java:190)\n\tat cn.edu.nju.ise.kikandroid.AUTInstrument.quitInstr(AUTInstrument.java:195)\n\tat cn.edu.nju.ise.kikandroid.AUTInstrument.startServer(AUTInstrument.java:161)\n\tat cn.edu.nju.ise.kikandroid.AUTInstrument$1.run(AUTInstrument.java:107)\n\tat java.lang.Thread.run(Thread.java:841)\n'
p606
sa.