(lp0
(dp1
S'processID'
p2
S'27356'
p3
sS'SyscTime'
p4
L1449729059259L
sS'priority'
p5
S'D'
p6
sS'tag'
p7
S'MediaPlayer'
p8
sS'threadID'
p9
S'0x6adc'
p10
sS'message'
p11
S'handleMessage msg:(3, 75, 0)\n'
p12
sa(dp13
g2
S'27356'
p14
sg4
L1449729059459L
sg5
g6
sg7
S'MediaPlayer'
p15
sg9
S'0x6adc'
p16
sg11
S'handleMessage msg:(3, 75, 0)\n'
p17
sa(dp18
g2
S'27356'
p19
sg4
L1449729059678L
sg5
g6
sg7
S'MediaPlayer'
p20
sg9
S'0x6adc'
p21
sg11
S'handleMessage msg:(3, 75, 0)\n'
p22
sa(dp23
g2
S'27356'
p24
sg4
L1449729060121L
sg5
g6
sg7
S'MediaPlayer'
p25
sg9
S'0x6adc'
p26
sg11
S'handleMessage msg:(3, 75, 0)\n'
p27
sa(dp28
g2
S'27356'
p29
sg4
L1449729060122L
sg5
g6
sg7
S'MediaPlayer'
p30
sg9
S'0x6adc'
p31
sg11
S'handleMessage msg:(3, 75, 0)\n'
p32
sa(dp33
g2
S'27356'
p34
sg4
L1449729060267L
sg5
g6
sg7
S'MediaPlayer'
p35
sg9
S'0x6adc'
p36
sg11
S'handleMessage msg:(3, 75, 0)\n'
p37
sa(dp38
g2
S'27356'
p39
sg4
L1449729060466L
sg5
g6
sg7
S'MediaPlayer'
p40
sg9
S'0x6adc'
p41
sg11
S'handleMessage msg:(3, 75, 0)\n'
p42
sa(dp43
g2
S'27356'
p44
sg4
L1449729060666L
sg5
g6
sg7
S'MediaPlayer'
p45
sg9
S'0x6adc'
p46
sg11
S'handleMessage msg:(3, 75, 0)\n'
p47
sa(dp48
g2
S'27356'
p49
sg4
L1449729060867L
sg5
g6
sg7
S'MediaPlayer'
p50
sg9
S'0x6adc'
p51
sg11
S'handleMessage msg:(3, 75, 0)\n'
p52
sa(dp53
g2
S'27356'
p54
sg4
L1449729061081L
sg5
g6
sg7
S'MediaPlayer'
p55
sg9
S'0x6adc'
p56
sg11
S'handleMessage msg:(3, 75, 0)\n'
p57
sa(dp58
g2
S'27356'
p59
sg4
L1449729061282L
sg5
g6
sg7
S'MediaPlayer'
p60
sg9
S'0x6adc'
p61
sg11
S'handleMessage msg:(3, 75, 0)\n'
p62
sa(dp63
g2
S'27356'
p64
sg4
L1449729061498L
sg5
g6
sg7
S'MediaPlayer'
p65
sg9
S'0x6adc'
p66
sg11
S'handleMessage msg:(3, 75, 0)\n'
p67
sa(dp68
g2
S'27356'
p69
sg4
L1449729061699L
sg5
g6
sg7
S'MediaPlayer'
p70
sg9
S'0x6adc'
p71
sg11
S'handleMessage msg:(3, 75, 0)\n'
p72
sa(dp73
g2
S'27356'
p74
sg4
L1449729061900L
sg5
g6
sg7
S'MediaPlayer'
p75
sg9
S'0x6adc'
p76
sg11
S'handleMessage msg:(3, 75, 0)\n'
p77
sa(dp78
g2
S'27356'
p79
sg4
L1449729062101L
sg5
g6
sg7
S'MediaPlayer'
p80
sg9
S'0x6adc'
p81
sg11
S'handleMessage msg:(3, 75, 0)\n'
p82
sa(dp83
g2
S'27356'
p84
sg4
L1449729062302L
sg5
g6
sg7
S'MediaPlayer'
p85
sg9
S'0x6adc'
p86
sg11
S'handleMessage msg:(3, 75, 0)\n'
p87
sa(dp88
g2
S'27356'
p89
sg4
L1449729062502L
sg5
g6
sg7
S'MediaPlayer'
p90
sg9
S'0x6adc'
p91
sg11
S'handleMessage msg:(3, 75, 0)\n'
p92
sa(dp93
g2
S'27356'
p94
sg4
L1449729062704L
sg5
g6
sg7
S'MediaPlayer'
p95
sg9
S'0x6adc'
p96
sg11
S'handleMessage msg:(3, 75, 0)\n'
p97
sa(dp98
g2
S'27356'
p99
sg4
L1449729062905L
sg5
g6
sg7
S'MediaPlayer'
p100
sg9
S'0x6adc'
p101
sg11
S'handleMessage msg:(3, 75, 0)\n'
p102
sa(dp103
g2
S'27356'
p104
sg4
L1449729063105L
sg5
g6
sg7
S'MediaPlayer'
p105
sg9
S'0x6adc'
p106
sg11
S'handleMessage msg:(3, 75, 0)\n'
p107
sa(dp108
g2
S'27356'
p109
sg4
L1449729063858L
sg5
g6
sg7
S'MediaPlayer'
p110
sg9
S'0x6adc'
p111
sg11
S'handleMessage msg:(3, 75, 0)\n'
p112
sa(dp113
g2
S'27356'
p114
sg4
L1449729063859L
sg5
g6
sg7
S'MediaPlayer'
p115
sg9
S'0x6adc'
p116
sg11
S'handleMessage msg:(3, 75, 0)\n'
p117
sa(dp118
g2
S'27356'
p119
sg4
L1449729063866L
sg5
g6
sg7
S'MediaPlayer'
p120
sg9
S'0x6adc'
p121
sg11
S'handleMessage msg:(3, 75, 0)\n'
p122
sa(dp123
g2
S'27356'
p124
sg4
L1449729064133L
sg5
g6
sg7
S'MediaPlayer'
p125
sg9
S'0x6adc'
p126
sg11
S'handleMessage msg:(3, 75, 0)\n'
p127
sa(dp128
g2
S'27356'
p129
sg4
L1449729064146L
sg5
g6
sg7
S'MediaPlayer'
p130
sg9
S'0x6adc'
p131
sg11
S'handleMessage msg:(3, 75, 0)\n'
p132
sa(dp133
g2
S'27356'
p134
sg4
L1449729064449L
sg5
g6
sg7
S'long    '
p135
sg9
S'0x6adc'
p136
sg11
S'cancle request\xef\xbc\x9acom.xdf.ucan.ui.video.VideoPlayerActivity\n'
p137
sa(dp138
g2
S'27356'
p139
sg4
L1449729066424L
sg5
g6
sg7
S'cn.edu.nju.ise.kikandroid'
p140
sg9
S'0x6b1d'
p141
sg11
S'Log:1449729066424\n'
p142
sa(dp143
g2
S'27356'
p144
sg4
L1449729068389L
sg5
g6
sg7
S'libc-netbsd'
p145
sg9
S'0x6d4f'
p146
sg11
S'getaddrinfo: api.share.mob.com get result from proxy >>\n'
p147
sa(dp148
g2
S'27356'
p149
sg4
L1449729069125L
sg5
g6
sg7
S'cn.edu.nju.ise.kikandroid'
p150
sg9
S'0x6b1d'
p151
sg11
S'Log:1449729069125\n'
p152
sa(dp153
g2
S'27356'
p154
sg4
L1449729069682L
sg5
g6
sg7
S'cn.edu.nju.ise.kikandroid'
p155
sg9
S'0x6b1d'
p156
sg11
S'Screenshot:1449729069186\n'
p157
sa(dp158
g2
S'27356'
p159
sg4
L1449729069686L
sg5
S'F'
p160
sg7
S'MobUncaughtExceptionHandler'
p161
sg9
S'0x6b1d'
p162
sg11
S'null\njava.lang.NullPointerException\n\tat android.app.Instrumentation.finish(Instrumentation.java:190)\n\tat cn.edu.nju.ise.kikandroid.AUTInstrument.quitInstr(AUTInstrument.java:195)\n\tat cn.edu.nju.ise.kikandroid.AUTInstrument.startServer(AUTInstrument.java:161)\n\tat cn.edu.nju.ise.kikandroid.AUTInstrument$1.run(AUTInstrument.java:107)\n\tat java.lang.Thread.run(Thread.java:841)\n'
p163
sa(dp164
g2
S'27383'
p165
sg4
L1449729069775L
sg5
g6
sg7
S'RongService'
p166
sg9
S'0x6af7'
p167
sg11
S'onUnbind, pid=27383\n'
p168
sa(dp169
g2
S'27383'
p170
sg4
L1449729069785L
sg5
g6
sg7
S'RongService'
p171
sg9
S'0x6af7'
p172
sg11
S'onDestroy, pid=27383\n'
p173
sa.