(lp0
(dp1
S'processID'
p2
S'2778'
p3
sS'SyscTime'
p4
L1449729935840L
sS'priority'
p5
S'E'
p6
sS'tag'
p7
S'Trace   '
p8
sS'threadID'
p9
S' 2778'
p10
sS'message'
p11
S'error opening trace file: Permission denied (13)\n'
p12
sa(dp13
g2
S'2778'
p14
sg4
L1449729935980L
sg5
S'D'
p15
sg7
S'dalvikvm'
p16
sg9
S' 2780'
p17
sg11
S'GC_CONCURRENT freed 181K, 5% free 8407K/8775K, paused 11ms+2ms, total 29ms\n'
p18
sa(dp19
g2
S'2778'
p20
sg4
L1449729936040L
sg5
g15
sg7
S'long    '
p21
sg9
S' 2778'
p22
sg11
S'\xe8\xbf\x9e\xe6\x8e\xa5\xe7\x9a\x84\xe6\x95\xb0\xe6\x8d\xae\xe5\xba\x93\xe6\x98\xaf\xef\xbc\x9axdf004483209.db\n'
p23
sa(dp24
g2
S'2778'
p25
sg4
L1449729936050L
sg5
g15
sg7
S'ImageLoader'
p26
sg9
S' 2778'
p27
sg11
S'Initialize ImageLoader with configuration\n'
p28
sa(dp29
g2
S'2778'
p30
sg4
L1449729936070L
sg5
g15
sg7
S'long    '
p31
sg9
S' 2778'
p32
sg11
S'getCurProcessName:com.xdf.ucan\n'
p33
sa(dp34
g2
S'2778'
p35
sg4
L1449729936160L
sg5
g15
sg7
S'dalvikvm'
p36
sg9
S' 2780'
p37
sg11
S'GC_CONCURRENT freed 310K, 6% free 8646K/9159K, paused 13ms+5ms, total 51ms\n'
p38
sa(dp39
g2
S'2778'
p40
sg4
L1449729936160L
sg5
g15
sg7
S'##KIT_io.rong.imkit.widget.provider.TextInputProvider:TextInputProvider'
p41
sg9
S' 2778'
p42
sg11
S''
p43
sa(dp44
g2
S'2778'
p45
sg4
L1449729936170L
sg5
g6
sg7
S'##IPC_io.rong.imkit.widget.provider.VoIPInputProvider:VoIPInputProvider'
p46
sg9
S' 2778'
p47
sg11
S'----------\xe6\x9e\x84\xe9\x80\xa0\xe6\x96\xb9\xe6\xb3\x95----------\n'
p48
sa(dp49
g2
S'2778'
p50
sg4
L1449729936170L
sg5
g15
sg7
S'##IPC_com.xdf.ucan.BaseApplication:RongIMClient : init'
p51
sg9
S' 2778'
p52
sg11
S'process = com.xdf.ucan\n'
p53
sa(dp54
g2
S'2778'
p55
sg4
L1449729936180L
sg5
g6
sg7
S'        '
p56
sg9
S' 2778'
p57
sg11
S'generic statfs: /data , size: 110402\n'
p58
sa(dp59
g2
S'2778'
p60
sg4
L1449729936190L
sg5
g15
sg7
S'##COMMON_io.rong.push.PushContext:PushContext'
p61
sg9
S' 2778'
p62
sg11
S'init\n'
p63
sa(dp64
g2
S'2778'
p65
sg4
L1449729936230L
sg5
S'I'
p66
sg7
S'##COMMON_io.rong.push.PushContext:sendConnectCommand'
p67
sg9
S' 2778'
p68
sg11
S'1200\n'
p69
sa(dp70
g2
S'2778'
p71
sg4
L1449729936240L
sg5
g15
sg7
S'##IPC_io.rong.imlib.RongIMClient:initBindService'
p72
sg9
S' 2778'
p73
sg11
S'mIsBind = false\n'
p74
sa(dp75
g2
S'2778'
p76
sg4
L1449729936260L
sg5
g15
sg7
S'##IPC_io.rong.imlib.RongIMClient:registerMessageType'
p77
sg9
S' 2778'
p78
sg11
S'class io.rong.message.TextMessage\n'
p79
sa(dp80
g2
S'2778'
p81
sg4
L1449729936260L
sg5
g15
sg7
S'##IPC_io.rong.imlib.RongIMClient:registerMessageType'
p82
sg9
S' 2778'
p83
sg11
S'class io.rong.message.VoiceMessage\n'
p84
sa(dp85
g2
S'2778'
p86
sg4
L1449729936260L
sg5
g15
sg7
S'##IPC_io.rong.imlib.RongIMClient:registerMessageType'
p87
sg9
S' 2778'
p88
sg11
S'class io.rong.message.ImageMessage\n'
p89
sa(dp90
g2
S'2778'
p91
sg4
L1449729936260L
sg5
g15
sg7
S'##IPC_io.rong.imlib.RongIMClient:registerMessageType'
p92
sg9
S' 2778'
p93
sg11
S'class io.rong.message.LocationMessage\n'
p94
sa(dp95
g2
S'2778'
p96
sg4
L1449729936260L
sg5
g15
sg7
S'##IPC_io.rong.imlib.RongIMClient:registerMessageType'
p97
sg9
S' 2778'
p98
sg11
S'class io.rong.message.CommandNotificationMessage\n'
p99
sa(dp100
g2
S'2778'
p101
sg4
L1449729936260L
sg5
g15
sg7
S'##IPC_io.rong.imlib.RongIMClient:registerMessageType'
p102
sg9
S' 2778'
p103
sg11
S'class io.rong.message.ContactNotificationMessage\n'
p104
sa(dp105
g2
S'2778'
p106
sg4
L1449729936260L
sg5
g15
sg7
S'##IPC_io.rong.imlib.RongIMClient:registerMessageType'
p107
sg9
S' 2778'
p108
sg11
S'class io.rong.message.RichContentMessage\n'
p109
sa(dp110
g2
S'2778'
p111
sg4
L1449729936260L
sg5
g15
sg7
S'##IPC_io.rong.imlib.RongIMClient:registerMessageType'
p112
sg9
S' 2778'
p113
sg11
S'class io.rong.message.PublicServiceMultiRichContentMessage\n'
p114
sa(dp115
g2
S'2778'
p116
sg4
L1449729936260L
sg5
g15
sg7
S'##IPC_io.rong.imlib.RongIMClient:registerMessageType'
p117
sg9
S' 2778'
p118
sg11
S'class io.rong.message.PublicServiceRichContentMessage\n'
p119
sa(dp120
g2
S'2778'
p121
sg4
L1449729936260L
sg5
g15
sg7
S'##IPC_io.rong.imlib.RongIMClient:registerMessageType'
p122
sg9
S' 2778'
p123
sg11
S'class io.rong.message.PublicServiceCommandMessage\n'
p124
sa(dp125
g2
S'2778'
p126
sg4
L1449729936260L
sg5
g15
sg7
S'##IPC_io.rong.imlib.RongIMClient:registerMessageType'
p127
sg9
S' 2778'
p128
sg11
S'class io.rong.message.ProfileNotificationMessage\n'
p129
sa(dp130
g2
S'2778'
p131
sg4
L1449729936270L
sg5
g15
sg7
S'##IPC_io.rong.imlib.RongIMClient:registerMessageType'
p132
sg9
S' 2778'
p133
sg11
S'class io.rong.message.HandshakeMessage\n'
p134
sa(dp135
g2
S'2778'
p136
sg4
L1449729936270L
sg5
g15
sg7
S'##IPC_io.rong.imlib.RongIMClient:registerMessageType'
p137
sg9
S' 2778'
p138
sg11
S'class io.rong.message.InformationNotificationMessage\n'
p139
sa(dp140
g2
S'2778'
p141
sg4
L1449729936270L
sg5
g15
sg7
S'##IPC_io.rong.imlib.RongIMClient:registerMessageType'
p142
sg9
S' 2778'
p143
sg11
S'class io.rong.message.DiscussionNotificationMessage\n'
p144
sa(dp145
g2
S'2778'
p146
sg4
L1449729936270L
sg5
g15
sg7
S'##IPC_io.rong.imlib.RongIMClient:registerMessageType'
p147
sg9
S' 2778'
p148
sg11
S'class io.rong.message.SuspendMessage\n'
p149
sa(dp150
g2
S'2799'
p151
sg4
L1449729936280L
sg5
g6
sg7
S'Trace   '
p152
sg9
S' 2799'
p153
sg11
S'error opening trace file: Permission denied (13)\n'
p154
sa(dp155
g2
S'2778'
p156
sg4
L1449729936280L
sg5
g6
sg7
S'##KIT_com.xdf.ucan.BaseApplication:init'
p157
sg9
S' 2778'
p158
sg11
S'before init\n'
p159
sa(dp160
g2
S'2778'
p161
sg4
L1449729936280L
sg5
g15
sg7
S'##IPC_io.rong.imlib.RongIMClient:registerMessageType'
p162
sg9
S' 2778'
p163
sg11
S'class io.rong.voipkit.message.VoIPAcceptMessage\n'
p164
sa(dp165
g2
S'2778'
p166
sg4
L1449729936280L
sg5
g15
sg7
S'##IPC_io.rong.imlib.RongIMClient:registerMessageType'
p167
sg9
S' 2778'
p168
sg11
S'class io.rong.voipkit.message.VoIPCallMessage\n'
p169
sa(dp170
g2
S'2778'
p171
sg4
L1449729936290L
sg5
g15
sg7
S'##IPC_io.rong.imlib.RongIMClient:registerMessageType'
p172
sg9
S' 2778'
p173
sg11
S'class io.rong.voipkit.message.VoIPFinishMessage\n'
p174
sa(dp175
g2
S'2778'
p176
sg4
L1449729936310L
sg5
g66
sg7
S'##KIT_com.xdf.ucan.RongCloudEvent:RongIMClientWrapper'
p177
sg9
S' 2778'
p178
sg11
S'setOnReceiveMessageListener\n'
p179
sa(dp180
g2
S'2778'
p181
sg4
L1449729936340L
sg5
g15
sg7
S'dalvikvm'
p182
sg9
S' 2778'
p183
sg11
S'GC_FOR_ALLOC freed 281K, 6% free 8750K/9223K, paused 21ms, total 21ms\n'
p184
sa(dp185
g2
S'2778'
p186
sg4
L1449729936370L
sg5
g15
sg7
S'dalvikvm'
p187
sg9
S' 2780'
p188
sg11
S'GC_CONCURRENT freed 4K, 5% free 12346K/12871K, paused 3ms+1ms, total 22ms\n'
p189
sa(dp190
g2
S'2799'
p191
sg4
L1449729936410L
sg5
g15
sg7
S'dalvikvm'
p192
sg9
S' 2801'
p193
sg11
S'GC_CONCURRENT freed 151K, 4% free 8439K/8775K, paused 12ms+2ms, total 32ms\n'
p194
sa(dp195
g2
S'2778'
p196
sg4
L1449729936430L
sg5
g15
sg7
S'dalvikvm'
p197
sg9
S' 2778'
p198
sg11
S'GC_FOR_ALLOC freed 0K, 5% free 12346K/12871K, paused 17ms, total 18ms\n'
p199
sa(dp200
g2
S'2799'
p201
sg4
L1449729936460L
sg5
g15
sg7
S'long    '
p202
sg9
S' 2799'
p203
sg11
S'\xe8\xbf\x9e\xe6\x8e\xa5\xe7\x9a\x84\xe6\x95\xb0\xe6\x8d\xae\xe5\xba\x93\xe6\x98\xaf\xef\xbc\x9axdf004483209.db\n'
p204
sa(dp205
g2
S'2799'
p206
sg4
L1449729936470L
sg5
g15
sg7
S'ImageLoader'
p207
sg9
S' 2799'
p208
sg11
S'Initialize ImageLoader with configuration\n'
p209
sa(dp210
g2
S'2799'
p211
sg4
L1449729936470L
sg5
g15
sg7
S'long    '
p212
sg9
S' 2799'
p213
sg11
S'getCurProcessName:com.xdf.ucan:ipc\n'
p214
sa(dp215
g2
S'2778'
p216
sg4
L1449729936470L
sg5
g15
sg7
S'dalvikvm'
p217
sg9
S' 2780'
p218
sg11
S'GC_CONCURRENT freed 5K, 4% free 14385K/14919K, paused 2ms+12ms, total 35ms\n'
p219
sa(dp220
g2
S'2799'
p221
sg4
L1449729936480L
sg5
g15
sg7
S'RongService'
p222
sg9
S' 2799'
p223
sg11
S'onCreate, pid=2799\n'
p224
sa(dp225
g2
S'2799'
p226
sg4
L1449729936480L
sg5
g15
sg7
S'RongService'
p227
sg9
S' 2799'
p228
sg11
S'onBind, pid=2799\n'
p229
sa(dp230
g2
S'2778'
p231
sg4
L1449729936490L
sg5
g15
sg7
S'http    '
p232
sg9
S' 2778'
p233
sg11
S'\xe8\xaf\xb7\xe6\xb1\x82\xe7\x9a\x84\xe5\x9c\xb0\xe5\x9d\x80\xef\xbc\x9ahttp://passport.xdf.cn/apis/usersv2.ashx\n'
p234
sa(dp235
g2
S'2778'
p236
sg4
L1449729936490L
sg5
g15
sg7
S'http    '
p237
sg9
S' 2778'
p238
sg11
S'\xe8\xaf\xb7\xe6\xb1\x82\xe7\x9a\x84\xe5\x8f\x82\xe6\x95\xb0\xef\xbc\x9amethod=CheckLoginV3App&appid=90116&encodeUser=xmherCBYXDN61uAqNytL8w==&encodePwd=NccAIMfVSflC57NBCz1kzQ==&guid=adad87ab-0664-4e2b-986f-6bf23bd37311&sign=3C0C1EC44F9D4BCAD8634CAC246C197B&appOption=1&accessTokenOption=1\n'
p239
sa(dp240
g2
S'2778'
p241
sg4
L1449729936490L
sg5
g15
sg7
S'long    '
p242
sg9
S' 2778'
p243
sg11
S'context.getClass().getName():com.xdf.ucan.ui.login.StartActivity\n'
p244
sa(dp245
g2
S'2799'
p246
sg4
L1449729936510L
sg5
g66
sg7
S'##COMMON_io.rong.imlib.LibContext:DeviceId'
p247
sg9
S' 2799'
p248
sg11
S'A0000037E432E9\n'
p249
sa(dp250
g2
S'2799'
p251
sg4
L1449729936520L
sg5
g15
sg7
S'NativeClient'
p252
sg9
S' 2799'
p253
sg11
S'/storage/sdcard0/Android/data/com.xdf.ucan/RongCloud||/data/data/com.xdf.ucan/files\n'
p254
sa(dp255
g2
S'2778'
p256
sg4
L1449729936550L
sg5
g15
sg7
S'##IPC_io.rong.imlib.RongIMClient:onServiceConnected'
p257
sg9
S' 2778'
p258
sg11
S'mConnectionStatus = DISCONNECTED, stub = io.rong.imlib.ipc.remote.IHandler$Stub$Proxy@41dd28f8\n'
p259
sa(dp260
g2
S'2778'
p261
sg4
L1449729936580L
sg5
g66
sg7
S'Adreno200-EGL'
p262
sg9
S' 2778'
p263
sg11
S'<qeglDrvAPI_eglInitialize:299>: EGL 1.4 QUALCOMM build: Nondeterministic AU_msm8625_REFS/TAGS/JB_REL_RB5_QRD_D20130130_Merge_release_AU (Merge)\nBuild Date: 01/31/13 Thu\nLocal Branch: \nRemote Branch: m/refs/tags/jb_rel_rb5_qrd_D20130130\nLocal Patches: NONE\nReconstruct Branch: NOTHING\n'
p264
sa(dp265
g2
S'2799'
p266
sg4
L1449729936640L
sg5
g15
sg7
S'dalvikvm'
p267
sg9
S' 2801'
p268
sg11
S'GC_CONCURRENT freed 289K, 6% free 8609K/9095K, paused 2ms+11ms, total 36ms\n'
p269
sa(dp270
g2
S'2778'
p271
sg4
L1449729936670L
sg5
g15
sg7
S'##IPC_io.rong.imlib.ConnectChangeReceiver:onReceive'
p272
sg9
S' 2778'
p273
sg11
S'network:true, intent:Intent { act=android.net.conn.CONNECTIVITY_CHANGE flg=0x8000010 (has extras) }\n'
p274
sa(dp275
g2
S'2837'
p276
sg4
L1449729937500L
sg5
g6
sg7
S'Trace   '
p277
sg9
S' 2837'
p278
sg11
S'error opening trace file: Permission denied (13)\n'
p279
sa(dp280
g2
S'2837'
p281
sg4
L1449729937590L
sg5
g15
sg7
S'dalvikvm'
p282
sg9
S' 2839'
p283
sg11
S'GC_CONCURRENT freed 154K, 4% free 8438K/8775K, paused 12ms+2ms, total 36ms\n'
p284
sa(dp285
g2
S'2837'
p286
sg4
L1449729937590L
sg5
g15
sg7
S'dalvikvm'
p287
sg9
S' 2837'
p288
sg11
S'WAIT_FOR_CONCURRENT_GC blocked 10ms\n'
p289
sa(dp290
g2
S'2837'
p291
sg4
L1449729937620L
sg5
g15
sg7
S'long    '
p292
sg9
S' 2837'
p293
sg11
S'\xe8\xbf\x9e\xe6\x8e\xa5\xe7\x9a\x84\xe6\x95\xb0\xe6\x8d\xae\xe5\xba\x93\xe6\x98\xaf\xef\xbc\x9axdf004483209.db\n'
p294
sa(dp295
g2
S'2837'
p296
sg4
L1449729937630L
sg5
g15
sg7
S'ImageLoader'
p297
sg9
S' 2837'
p298
sg11
S'Initialize ImageLoader with configuration\n'
p299
sa(dp300
g2
S'2837'
p301
sg4
L1449729937640L
sg5
g15
sg7
S'long    '
p302
sg9
S' 2837'
p303
sg11
S'getCurProcessName:io.rong.push\n'
p304
sa(dp305
g2
S'2837'
p306
sg4
L1449729937650L
sg5
g15
sg7
S'##IPC_com.xdf.ucan.BaseApplication:RongIMClient : init'
p307
sg9
S' 2837'
p308
sg11
S'process = io.rong.push\n'
p309
sa(dp310
g2
S'2837'
p311
sg4
L1449729937660L
sg5
g6
sg7
S'        '
p312
sg9
S' 2837'
p313
sg11
S'generic statfs: /data , size: 110402\n'
p314
sa(dp315
g2
S'2837'
p316
sg4
L1449729937670L
sg5
g15
sg7
S'##COMMON_io.rong.push.PushContext:PushContext'
p317
sg9
S' 2837'
p318
sg11
S'init\n'
p319
sa(dp320
g2
S'2837'
p321
sg4
L1449729937740L
sg5
g15
sg7
S'dalvikvm'
p322
sg9
S' 2839'
p323
sg11
S'GC_CONCURRENT freed 272K, 6% free 8591K/9095K, paused 11ms+2ms, total 30ms\n'
p324
sa(dp325
g2
S'2837'
p326
sg4
L1449729937740L
sg5
g66
sg7
S'##COMMON_io.rong.push.PushContext:sendConnectCommand'
p327
sg9
S' 2837'
p328
sg11
S'2200\n'
p329
sa(dp330
g2
S'2837'
p331
sg4
L1449729937750L
sg5
g66
sg7
S'##COMMON_io.rong.push.PushReceiver:Action'
p332
sg9
S' 2837'
p333
sg11
S'io.rong.push.Connect\n'
p334
sa(dp335
g2
S'2837'
p336
sg4
L1449729937760L
sg5
g15
sg7
S'PowerManager'
p337
sg9
S' 2837'
p338
sg11
S'wake:com.xdf.ucan/io.rong.push.PushService [acquire]\n'
p339
sa(dp340
g2
S'2837'
p341
sg4
L1449729937760L
sg5
g66
sg7
S'##COMMON_io.rong.push.PushReceiver:ACTION_CONNECT'
p342
sg9
S' 2837'
p343
sg11
S'version is null, run connect\n'
p344
sa(dp345
g2
S'2837'
p346
sg4
L1449729937770L
sg5
g66
sg7
S'##COMMON_java.lang.Class:PushService'
p347
sg9
S' 2837'
p348
sg11
S'PushService OnCreate\n'
p349
sa(dp350
g2
S'2837'
p351
sg4
L1449729937770L
sg5
g66
sg7
S'PushService'
p352
sg9
S' 2837'
p353
sg11
S'PushService OnCreate\n'
p354
sa(dp355
g2
S'2778'
p356
sg4
L1449729937770L
sg5
g15
sg7
S'##IPC_io.rong.imlib.ConnectChangeReceiver:onReceive'
p357
sg9
S' 2778'
p358
sg11
S'network:true, intent:Intent { act=action_reconnect flg=0x14 pkg=com.xdf.ucan cmp=com.xdf.ucan/io.rong.imlib.ConnectChangeReceiver (has extras) }\n'
p359
sa(dp360
g2
S'2778'
p361
sg4
L1449729937780L
sg5
g15
sg7
S'PowerManager'
p362
sg9
S' 2778'
p363
sg11
S'wake:com.xdf.ucan/io.rong.imlib.ReConnectService [acquire]\n'
p364
sa(dp365
g2
S'2778'
p366
sg4
L1449729937790L
sg5
g15
sg7
S'##IPC_io.rong.imlib.ReConnectService:RECONNECT'
p367
sg9
S' 2853'
p368
sg11
S'Intent { cmp=com.xdf.ucan/io.rong.imlib.ReConnectService (has extras) }\n'
p369
sa(dp370
g2
S'2778'
p371
sg4
L1449729937790L
sg5
g15
sg7
S'##IPC_io.rong.imlib.RongIMClient:reconnect'
p372
sg9
S' 2853'
p373
sg11
S'mConnectionStatus :DISCONNECTED\n'
p374
sa(dp375
g2
S'2778'
p376
sg4
L1449729937790L
sg5
g15
sg7
S'PowerManager'
p377
sg9
S' 2778'
p378
sg11
S'wake:com.xdf.ucan/io.rong.imlib.ReConnectService [release]\n'
p379
sa(dp380
g2
S'2837'
p381
sg4
L1449729937790L
sg5
g66
sg7
S'##COMMON_io.rong.push.PushService:CONNECT_CHECK'
p382
sg9
S' 2852'
p383
sg11
S'getRunningPushServiceVersion null\n'
p384
sa(dp385
g2
S'2837'
p386
sg4
L1449729937790L
sg5
g66
sg7
S'##COMMON_io.rong.push.PushService.PushHandler:PushHandler'
p387
sg9
S' 2852'
p388
sg11
S'ConnectToServer,isClientConnected = false\n'
p389
sa(dp390
g2
S'2837'
p391
sg4
L1449729937800L
sg5
g66
sg7
S'##COMMON_io.rong.push.PushService:DeviceId'
p392
sg9
S' 2852'
p393
sg11
S'A0000037E432E9\n'
p394
sa(dp395
g2
S'2837'
p396
sg4
L1449729937810L
sg5
g66
sg7
S'##COMMON_io.rong.push.PushService.PushHandler:PushHandler'
p397
sg9
S' 2852'
p398
sg11
S'the saved IP = 119.254.101.137:8609\n'
p399
sa(dp400
g2
S'2837'
p401
sg4
L1449729937810L
sg5
g66
sg7
S'PushHandler'
p402
sg9
S' 2852'
p403
sg11
S'the saved time = 1449727391539current time = 1449729937826\n'
p404
sa(dp405
g2
S'2837'
p406
sg4
L1449729937810L
sg5
g66
sg7
S'##COMMON_io.rong.push.PushService.PushHandler:PushHandler'
p407
sg9
S' 2852'
p408
sg11
S'ConnectToServer,use the saved IP, IP = 119.254.101.137:8609\n'
p409
sa(dp410
g2
S'2837'
p411
sg4
L1449729937810L
sg5
g66
sg7
S'##COMMON_io.rong.push.PushService:getPhoneInformation.'
p412
sg9
S' 2852'
p413
sg11
S'the phone information is:ZTE|ZTE N909|16|WIFI|46003\n'
p414
sa(dp415
g2
S'2837'
p416
sg4
L1449729937820L
sg5
g66
sg7
S'##COMMON_io.rong.push.PushClient:connect'
p417
sg9
S' 2852'
p418
sg11
S'phone info:ZTE|ZTE N909|16|WIFI|46003 push version:2.6\n'
p419
sa(dp420
g2
S'2837'
p421
sg4
L1449729937820L
sg5
g66
sg7
S'##COMMON_io.rong.push.PushClient:connect'
p422
sg9
S' 2852'
p423
sg11
S'the socket is established\n'
p424
sa(dp425
g2
S'2837'
p426
sg4
L1449729939970L
sg5
g66
sg7
S'##COMMON_io.rong.push.PushReceiver:Action'
p427
sg9
S' 2837'
p428
sg11
S'io.rong.push.Connect\n'
p429
sa(dp430
g2
S'2837'
p431
sg4
L1449729939980L
sg5
g15
sg7
S'PowerManager'
p432
sg9
S' 2837'
p433
sg11
S'wake:com.xdf.ucan/io.rong.push.PushService [acquire]\n'
p434
sa(dp435
g2
S'2837'
p436
sg4
L1449729939990L
sg5
g66
sg7
S'##COMMON_io.rong.push.PushReceiver:ACTION_CONNECT'
p437
sg9
S' 2837'
p438
sg11
S'version is null, run connect\n'
p439
sa(dp440
g2
S'2837'
p441
sg4
L1449729941840L
sg5
S'W'
p442
sg7
S'System.err'
p443
sg9
S' 2852'
p444
sg11
S'java.net.SocketTimeoutException: failed to connect to /119.254.101.137 (port 8609) after 4000ms\n'
p445
sa(dp446
g2
S'2837'
p447
sg4
L1449729941840L
sg5
g442
sg7
S'System.err'
p448
sg9
S' 2852'
p449
sg11
S'\tat libcore.io.IoBridge.connectErrno(IoBridge.java:159)\n'
p450
sa(dp451
g2
S'2837'
p452
sg4
L1449729941840L
sg5
g442
sg7
S'System.err'
p453
sg9
S' 2852'
p454
sg11
S'\tat libcore.io.IoBridge.connect(IoBridge.java:112)\n'
p455
sa(dp456
g2
S'2837'
p457
sg4
L1449729941840L
sg5
g442
sg7
S'System.err'
p458
sg9
S' 2852'
p459
sg11
S'\tat java.net.PlainSocketImpl.connect(PlainSocketImpl.java:192)\n'
p460
sa(dp461
g2
S'2837'
p462
sg4
L1449729941840L
sg5
g442
sg7
S'System.err'
p463
sg9
S' 2852'
p464
sg11
S'\tat java.net.PlainSocketImpl.connect(PlainSocketImpl.java:460)\n'
p465
sa(dp466
g2
S'2837'
p467
sg4
L1449729941840L
sg5
g442
sg7
S'System.err'
p468
sg9
S' 2852'
p469
sg11
S'\tat java.net.Socket.connect(Socket.java:832)\n'
p470
sa(dp471
g2
S'2837'
p472
sg4
L1449729941840L
sg5
g442
sg7
S'System.err'
p473
sg9
S' 2852'
p474
sg11
S'\tat io.rong.push.PushClient.connect(PushClient.java:50)\n'
p475
sa(dp476
g2
S'2837'
p477
sg4
L1449729941850L
sg5
g442
sg7
S'System.err'
p478
sg9
S' 2852'
p479
sg11
S'\tat io.rong.push.PushService$PushHandler.connect(PushService.java:272)\n'
p480
sa(dp481
g2
S'2837'
p482
sg4
L1449729941850L
sg5
g442
sg7
S'System.err'
p483
sg9
S' 2852'
p484
sg11
S'\tat io.rong.push.PushService.onHandleIntent(PushService.java:139)\n'
p485
sa(dp486
g2
S'2837'
p487
sg4
L1449729941850L
sg5
g442
sg7
S'System.err'
p488
sg9
S' 2852'
p489
sg11
S'\tat io.rong.push.PushService$ServiceHandler.handleMessage(PushService.java:104)\n'
p490
sa(dp491
g2
S'2837'
p492
sg4
L1449729941850L
sg5
g442
sg7
S'System.err'
p493
sg9
S' 2852'
p494
sg11
S'\tat android.os.Handler.dispatchMessage(Handler.java:99)\n'
p495
sa(dp496
g2
S'2837'
p497
sg4
L1449729941850L
sg5
g442
sg7
S'System.err'
p498
sg9
S' 2852'
p499
sg11
S'\tat android.os.Looper.loop(Looper.java:137)\n'
p500
sa(dp501
g2
S'2837'
p502
sg4
L1449729941850L
sg5
g442
sg7
S'System.err'
p503
sg9
S' 2852'
p504
sg11
S'\tat android.os.HandlerThread.run(HandlerThread.java:60)\n'
p505
sa(dp506
g2
S'2837'
p507
sg4
L1449729941850L
sg5
g66
sg7
S'##COMMON_io.rong.push.PushContext:Heartbeat'
p508
sg9
S' 2852'
p509
sg11
S'start_next\n'
p510
sa(dp511
g2
S'2837'
p512
sg4
L1449729941850L
sg5
g15
sg7
S'PowerManager'
p513
sg9
S' 2852'
p514
sg11
S'wake:com.xdf.ucan/io.rong.push.PushService [release]\n'
p515
sa(dp516
g2
S'2837'
p517
sg4
L1449729941860L
sg5
g66
sg7
S'##COMMON_io.rong.push.PushService:CONNECT_CHECK'
p518
sg9
S' 2852'
p519
sg11
S'getRunningPushServiceVersion null\n'
p520
sa(dp521
g2
S'2837'
p522
sg4
L1449729941860L
sg5
g66
sg7
S'##COMMON_io.rong.push.PushService.PushHandler:PushHandler'
p523
sg9
S' 2852'
p524
sg11
S'ConnectToServer,isClientConnected = false\n'
p525
sa(dp526
g2
S'2837'
p527
sg4
L1449729941860L
sg5
g66
sg7
S'##COMMON_io.rong.push.PushService:DeviceId'
p528
sg9
S' 2852'
p529
sg11
S'A0000037E432E9\n'
p530
sa(dp531
g2
S'2837'
p532
sg4
L1449729941860L
sg5
g66
sg7
S'##COMMON_io.rong.push.PushService.PushHandler:PushHandler'
p533
sg9
S' 2852'
p534
sg11
S'the saved IP = 119.254.101.137:8609\n'
p535
sa(dp536
g2
S'2837'
p537
sg4
L1449729941860L
sg5
g66
sg7
S'PushHandler'
p538
sg9
S' 2852'
p539
sg11
S'the saved time = 1449727391539current time = 1449729941875\n'
p540
sa(dp541
g2
S'2837'
p542
sg4
L1449729941860L
sg5
g66
sg7
S'##COMMON_io.rong.push.PushService.PushHandler:PushHandler'
p543
sg9
S' 2852'
p544
sg11
S'ConnectToServer,use the saved IP, IP = 119.254.101.137:8609\n'
p545
sa(dp546
g2
S'2837'
p547
sg4
L1449729941860L
sg5
g66
sg7
S'##COMMON_io.rong.push.PushService:getPhoneInformation.'
p548
sg9
S' 2852'
p549
sg11
S'the phone information is:ZTE|ZTE N909|16|WIFI|46003\n'
p550
sa(dp551
g2
S'2837'
p552
sg4
L1449729941860L
sg5
g66
sg7
S'##COMMON_io.rong.push.PushClient:connect'
p553
sg9
S' 2852'
p554
sg11
S'phone info:ZTE|ZTE N909|16|WIFI|46003 push version:2.6\n'
p555
sa(dp556
g2
S'2837'
p557
sg4
L1449729941870L
sg5
g66
sg7
S'##COMMON_io.rong.push.PushClient:connect'
p558
sg9
S' 2852'
p559
sg11
S'the socket is established\n'
p560
sa(dp561
g2
S'2778'
p562
sg4
L1449729943680L
sg5
S'V'
p563
sg7
S'AsyncHttpRH'
p564
sg9
S' 2778'
p565
sg11
S'Progress 462 from 462 (100%)\n'
p566
sa(dp567
g2
S'2778'
p568
sg4
L1449729943690L
sg5
g15
sg7
S'http    '
p569
sg9
S' 2778'
p570
sg11
S'\xe8\xbf\x94\xe5\x9b\x9e\xe7\x9a\x84\xe7\xbb\x93\xe6\x9e\x9c\xef\xbc\x9a{"Status":1,"Data":"{\\"UserId\\":\\"xdf004483209\\",\\"NickName\\":\\"151210140331126_v\\",\\"HideMobile\\":\\"131****8803\\",\\"HideEmail\\":\\"151****4033112638586_v@v.com\\",\\"Mobile\\":\\"13182898803\\",\\"Email\\":\\"15121014033112638586_v@v.com\\",\\"LoginToken\\":\\"86f86315-f643-430b-8811-030dd9f0f8b1\\",\\"Sign\\":\\"7245FB45DC1E5832D5C1F238C2F9B910\\",\\"AccessToken\\":\\"86f86315-f643-430b-8811-030dd9f0f8b1\\",\\"AccessTokenExpireTime\\":\\"2016-01-29 04:45:22\\"}","Message":"\xe6\x88\x90\xe5\x8a\x9f"}\n'
p571
sa(dp572
g2
S'2778'
p573
sg4
L1449729943690L
sg5
g15
sg7
S'long    '
p574
sg9
S' 2778'
p575
sg11
S'response:{"Status":1,"Data":"{\\"UserId\\":\\"xdf004483209\\",\\"NickName\\":\\"151210140331126_v\\",\\"HideMobile\\":\\"131****8803\\",\\"HideEmail\\":\\"151****4033112638586_v@v.com\\",\\"Mobile\\":\\"13182898803\\",\\"Email\\":\\"15121014033112638586_v@v.com\\",\\"LoginToken\\":\\"86f86315-f643-430b-8811-030dd9f0f8b1\\",\\"Sign\\":\\"7245FB45DC1E5832D5C1F238C2F9B910\\",\\"AccessToken\\":\\"86f86315-f643-430b-8811-030dd9f0f8b1\\",\\"AccessTokenExpireTime\\":\\"2016-01-29 04:45:22\\"}","Message":"\xe6\x88\x90\xe5\x8a\x9f"}\n'
p576
sa(dp577
g2
S'2778'
p578
sg4
L1449729943700L
sg5
g15
sg7
S'long    '
p579
sg9
S' 2778'
p580
sg11
S'{"UserId":"xdf004483209","NickName":"151210140331126_v","HideMobile":"131****8803","HideEmail":"151****4033112638586_v@v.com","Mobile":"13182898803","Email":"15121014033112638586_v@v.com","LoginToken":"86f86315-f643-430b-8811-030dd9f0f8b1","Sign":"7245FB45DC1E5832D5C1F238C2F9B910","AccessToken":"86f86315-f643-430b-8811-030dd9f0f8b1","AccessTokenExpireTime":"2016-01-29 04:45:22"}\n'
p581
sa(dp582
g2
S'2778'
p583
sg4
L1449729943730L
sg5
g15
sg7
S'long    '
p584
sg9
S' 2778'
p585
sg11
S'DATABASE_NAME:xdf004483209.db\n'
p586
sa(dp587
g2
S'2778'
p588
sg4
L1449729943790L
sg5
g15
sg7
S'long    '
p589
sg9
S' 2778'
p590
sg11
S'prestr\xef\xbc\x9aappid=5004&method=GetUserTypeByUserId&userid=xdf004483209&AppKey=v5key_my$cj_cnQcm\n'
p591
sa(dp592
g2
S'2778'
p593
sg4
L1449729943790L
sg5
g15
sg7
S'http    '
p594
sg9
S' 2778'
p595
sg11
S'\xe8\xaf\xb7\xe6\xb1\x82\xe7\x9a\x84\xe5\x9c\xb0\xe5\x9d\x80\xef\xbc\x9ahttp://upoc.xdf.cn/User\n'
p596
sa(dp597
g2
S'2778'
p598
sg4
L1449729943790L
sg5
g15
sg7
S'http    '
p599
sg9
S' 2778'
p600
sg11
S'\xe8\xaf\xb7\xe6\xb1\x82\xe7\x9a\x84\xe5\x8f\x82\xe6\x95\xb0\xef\xbc\x9amethod=GetUserTypeByUserId&appid=5004&userid=xdf004483209&sign=0D8B07435596E3449CCD1AAAEC430042\n'
p601
sa(dp602
g2
S'2778'
p603
sg4
L1449729943790L
sg5
g15
sg7
S'long    '
p604
sg9
S' 2778'
p605
sg11
S'context.getClass().getName():com.xdf.ucan.ui.login.StartActivity\n'
p606
sa(dp607
g2
S'2837'
p608
sg4
L1449729945880L
sg5
g442
sg7
S'System.err'
p609
sg9
S' 2852'
p610
sg11
S'java.net.SocketTimeoutException: failed to connect to /119.254.101.137 (port 8609) after 4000ms\n'
p611
sa(dp612
g2
S'2837'
p613
sg4
L1449729945880L
sg5
g442
sg7
S'System.err'
p614
sg9
S' 2852'
p615
sg11
S'\tat libcore.io.IoBridge.connectErrno(IoBridge.java:159)\n'
p616
sa(dp617
g2
S'2837'
p618
sg4
L1449729945880L
sg5
g442
sg7
S'System.err'
p619
sg9
S' 2852'
p620
sg11
S'\tat libcore.io.IoBridge.connect(IoBridge.java:112)\n'
p621
sa(dp622
g2
S'2837'
p623
sg4
L1449729945880L
sg5
g442
sg7
S'System.err'
p624
sg9
S' 2852'
p625
sg11
S'\tat java.net.PlainSocketImpl.connect(PlainSocketImpl.java:192)\n'
p626
sa(dp627
g2
S'2837'
p628
sg4
L1449729945880L
sg5
g442
sg7
S'System.err'
p629
sg9
S' 2852'
p630
sg11
S'\tat java.net.PlainSocketImpl.connect(PlainSocketImpl.java:460)\n'
p631
sa(dp632
g2
S'2837'
p633
sg4
L1449729945890L
sg5
g442
sg7
S'System.err'
p634
sg9
S' 2852'
p635
sg11
S'\tat java.net.Socket.connect(Socket.java:832)\n'
p636
sa(dp637
g2
S'2837'
p638
sg4
L1449729945890L
sg5
g442
sg7
S'System.err'
p639
sg9
S' 2852'
p640
sg11
S'\tat io.rong.push.PushClient.connect(PushClient.java:50)\n'
p641
sa(dp642
g2
S'2837'
p643
sg4
L1449729945890L
sg5
g442
sg7
S'System.err'
p644
sg9
S' 2852'
p645
sg11
S'\tat io.rong.push.PushService$PushHandler.connect(PushService.java:272)\n'
p646
sa(dp647
g2
S'2837'
p648
sg4
L1449729945890L
sg5
g442
sg7
S'System.err'
p649
sg9
S' 2852'
p650
sg11
S'\tat io.rong.push.PushService.onHandleIntent(PushService.java:139)\n'
p651
sa(dp652
g2
S'2837'
p653
sg4
L1449729945890L
sg5
g442
sg7
S'System.err'
p654
sg9
S' 2852'
p655
sg11
S'\tat io.rong.push.PushService$ServiceHandler.handleMessage(PushService.java:104)\n'
p656
sa(dp657
g2
S'2837'
p658
sg4
L1449729945900L
sg5
g442
sg7
S'System.err'
p659
sg9
S' 2852'
p660
sg11
S'\tat android.os.Handler.dispatchMessage(Handler.java:99)\n'
p661
sa(dp662
g2
S'2837'
p663
sg4
L1449729945900L
sg5
g442
sg7
S'System.err'
p664
sg9
S' 2852'
p665
sg11
S'\tat android.os.Looper.loop(Looper.java:137)\n'
p666
sa(dp667
g2
S'2837'
p668
sg4
L1449729945900L
sg5
g442
sg7
S'System.err'
p669
sg9
S' 2852'
p670
sg11
S'\tat android.os.HandlerThread.run(HandlerThread.java:60)\n'
p671
sa(dp672
g2
S'2837'
p673
sg4
L1449729945900L
sg5
g66
sg7
S'##COMMON_io.rong.push.PushContext:Heartbeat'
p674
sg9
S' 2852'
p675
sg11
S'start_next\n'
p676
sa(dp677
g2
S'2837'
p678
sg4
L1449729945910L
sg5
g15
sg7
S'PowerManager'
p679
sg9
S' 2852'
p680
sg11
S'wake:com.xdf.ucan/io.rong.push.PushService [release]\n'
p681
sa(dp682
g2
S'2778'
p683
sg4
L1449729946970L
sg5
g563
sg7
S'AsyncHttpRH'
p684
sg9
S' 2778'
p685
sg11
S'Progress 70 from 70 (100%)\n'
p686
sa(dp687
g2
S'2778'
p688
sg4
L1449729946980L
sg5
g15
sg7
S'http    '
p689
sg9
S' 2778'
p690
sg11
S'\xe8\xbf\x94\xe5\x9b\x9e\xe7\x9a\x84\xe7\xbb\x93\xe6\x9e\x9c\xef\xbc\x9a{\n  "State": 1,\n  "Data": null,\n  "Error": "",\n  "DataCount": 0\n'
p691
sa(dp692
g2
S'2778'
p693
sg4
L1449729947140L
sg5
g15
sg7
S'http    '
p694
sg9
S' 2778'
p695
sg11
S'\xe8\xaf\xb7\xe6\xb1\x82\xe7\x9a\x84\xe5\x9c\xb0\xe5\x9d\x80\xef\xbc\x9ahttp://ims.xdf.cn/imserver/student/getmyclassmate.do\n'
p696
sa(dp697
g2
S'2778'
p698
sg4
L1449729947140L
sg5
g15
sg7
S'http    '
p699
sg9
S' 2778'
p700
sg11
S'\xe8\xaf\xb7\xe6\xb1\x82\xe7\x9a\x84\xe5\x8f\x82\xe6\x95\xb0\xef\xbc\x9a\n'
p701
sa(dp702
g2
S'2778'
p703
sg4
L1449729947140L
sg5
g15
sg7
S'long    '
p704
sg9
S' 2778'
p705
sg11
S'context.getClass().getName():com.xdf.ucan.MainActivity\n'
p706
sa(dp707
g2
S'2778'
p708
sg4
L1449729947150L
sg5
g15
sg7
S'http    '
p709
sg9
S' 2778'
p710
sg11
S'\xe8\xaf\xb7\xe6\xb1\x82\xe7\x9a\x84\xe5\x9c\xb0\xe5\x9d\x80\xef\xbc\x9ahttp://my.xdf.cn/API_User/avatar?\n'
p711
sa(dp712
g2
S'2778'
p713
sg4
L1449729947150L
sg5
g15
sg7
S'http    '
p714
sg9
S' 2778'
p715
sg11
S'\xe8\xaf\xb7\xe6\xb1\x82\xe7\x9a\x84\xe5\x8f\x82\xe6\x95\xb0\xef\xbc\x9auserId=xdf004483209&size=big\n'
p716
sa(dp717
g2
S'2778'
p718
sg4
L1449729947150L
sg5
g15
sg7
S'long    '
p719
sg9
S' 2778'
p720
sg11
S'context.getClass().getName():com.xdf.ucan.MainActivity\n'
p721
sa(dp722
g2
S'2778'
p723
sg4
L1449729947160L
sg5
g15
sg7
S'http    '
p724
sg9
S' 2778'
p725
sg11
S'\xe8\xaf\xb7\xe6\xb1\x82\xe7\x9a\x84\xe5\x9c\xb0\xe5\x9d\x80\xef\xbc\x9ahttp://ims.xdf.cn/imserver/appversion/getversion.do\n'
p726
sa(dp727
g2
S'2778'
p728
sg4
L1449729947160L
sg5
g15
sg7
S'http    '
p729
sg9
S' 2778'
p730
sg11
S'\xe8\xaf\xb7\xe6\xb1\x82\xe7\x9a\x84\xe5\x8f\x82\xe6\x95\xb0\xef\xbc\x9aappCode=upoc_student&osType=2&appVersionResultType=1\n'
p731
sa(dp732
g2
S'2778'
p733
sg4
L1449729947160L
sg5
g15
sg7
S'long    '
p734
sg9
S' 2778'
p735
sg11
S'context.getClass().getName():com.xdf.ucan.MainActivity\n'
p736
sa(dp737
g2
S'2778'
p738
sg4
L1449729947230L
sg5
g15
sg7
S'PullToRefresh'
p739
sg9
S' 2778'
p740
sg11
S'Setting Padding. L: 0, T: 0, R: 0, B: 0\n'
p741
sa(dp742
g2
S'2778'
p743
sg4
L1449729947260L
sg5
g15
sg7
S'PullToRefresh'
p744
sg9
S' 2778'
p745
sg11
S'addView: LinearLayout\n'
p746
sa(dp747
g2
S'2778'
p748
sg4
L1449729947390L
sg5
g15
sg7
S'dalvikvm'
p749
sg9
S' 2780'
p750
sg11
S'GC_CONCURRENT freed 4819K, 31% free 11573K/16583K, paused 14ms+35ms, total 96ms\n'
p751
sa(dp752
g2
S'2778'
p753
sg4
L1449729947400L
sg5
g15
sg7
S'long    '
p754
sg9
S' 2778'
p755
sg11
S'prestr\xef\xbc\x9aappid=5004&examenddate=2015-12-10 14:45:47.406&examstartdate=1970-01-01 08:00:00.0&method=GetLatestResourceVideoExamStatistics&resourceenddate=2015-12-10 14:45:47.300&resourcestartdate=2015-12-10 14:39:40.554&schoolid=0&userid=xdf004483209&videoenddate=2015-12-10 14:45:47.365&videostartdate=2015-12-10 14:26:00.729&AppKey=v5key_my$cj_cnQcm\n'
p756
sa(dp757
g2
S'2778'
p758
sg4
L1449729947400L
sg5
g15
sg7
S'http    '
p759
sg9
S' 2778'
p760
sg11
S'\xe8\xaf\xb7\xe6\xb1\x82\xe7\x9a\x84\xe5\x9c\xb0\xe5\x9d\x80\xef\xbc\x9ahttp://upoc.xdf.cn/index\n'
p761
sa(dp762
g2
S'2778'
p763
sg4
L1449729947400L
sg5
g15
sg7
S'http    '
p764
sg9
S' 2778'
p765
sg11
S'\xe8\xaf\xb7\xe6\xb1\x82\xe7\x9a\x84\xe5\x8f\x82\xe6\x95\xb0\xef\xbc\x9amethod=GetLatestResourceVideoExamStatistics&userid=xdf004483209&schoolid=0&resourcestartdate=2015-12-10 14:39:40.554&resourceenddate=2015-12-10 14:45:47.300&videostartdate=2015-12-10 14:26:00.729&videoenddate=2015-12-10 14:45:47.365&examstartdate=1970-01-01 08:00:00.0&examenddate=2015-12-10 14:45:47.406&appid=5004&sign=00DCF3DC3BB2FF263D2D439EF6A8DF32\n'
p766
sa(dp767
g2
S'2778'
p768
sg4
L1449729947400L
sg5
g15
sg7
S'long    '
p769
sg9
S' 2778'
p770
sg11
S'context.getClass().getName():com.xdf.ucan.MainActivity\n'
p771
sa(dp772
g2
S'2778'
p773
sg4
L1449729947500L
sg5
g15
sg7
S'PullToRefresh'
p774
sg9
S' 2778'
p775
sg11
S'onSizeChanged. W: 480, H: 716\n'
p776
sa(dp777
g2
S'2778'
p778
sg4
L1449729947500L
sg5
g15
sg7
S'PullToRefresh'
p779
sg9
S' 2778'
p780
sg11
S'Setting Padding. L: 0, T: -429, R: 0, B: 0\n'
p781
sa(dp782
g2
S'2778'
p783
sg4
L1449729947620L
sg5
g563
sg7
S'AsyncHttpRH'
p784
sg9
S' 2778'
p785
sg11
S'Progress 68 from 68 (100%)\n'
p786
sa(dp787
g2
S'2778'
p788
sg4
L1449729947620L
sg5
g15
sg7
S'http    '
p789
sg9
S' 2778'
p790
sg11
S'\xe8\xbf\x94\xe5\x9b\x9e\xe7\x9a\x84\xe7\xbb\x93\xe6\x9e\x9c\xef\xbc\x9a{\n  "State": 1,\n  "Data": [],\n  "Error": "",\n  "DataCount": 0\n'
p791
sa(dp792
g2
S'2778'
p793
sg4
L1449729947620L
sg5
g15
sg7
S'long    '
p794
sg9
S' 2778'
p795
sg11
S'conunt:{\n  "State": 1,\n  "Data": [],\n  "Error": "",\n  "DataCount": 0\n'
p796
sa(dp797
g2
S'2778'
p798
sg4
L1449729947630L
sg5
g66
sg7
S'##KIT_java.lang.Class:onEventBackgroundThread'
p799
sg9
S' 2812'
p800
sg11
S'user name = \xe7\xb3\xbb\xe7\xbb\x9f\xe6\xb6\x88\xe6\x81\xaf\n'
p801
sa(dp802
g2
S'2778'
p803
sg4
L1449729947720L
sg5
g15
sg7
S'PullToRefresh'
p804
sg9
S' 2778'
p805
sg11
S'onSizeChanged. W: 480, H: 678\n'
p806
sa(dp807
g2
S'2778'
p808
sg4
L1449729947720L
sg5
g15
sg7
S'PullToRefresh'
p809
sg9
S' 2778'
p810
sg11
S'Setting Padding. L: 0, T: -406, R: 0, B: 0\n'
p811
sa(dp812
g2
S'2778'
p813
sg4
L1449729947930L
sg5
g15
sg7
S'long    '
p814
sg9
S' 2778'
p815
sg11
S'cancle request\xef\xbc\x9acom.xdf.ucan.ui.login.StartActivity\n'
p816
sa(dp817
g2
S'2778'
p818
sg4
L1449729948190L
sg5
g6
sg7
S'##KIT_io.rong.imkit.logic.MessageCounterLogic:registerMessageCounter'
p819
sg9
S' 2778'
p820
sg11
S'RongIM.getInstance() :1\n'
p821
sa(dp822
g2
S'2778'
p823
sg4
L1449729948190L
sg5
g6
sg7
S'##KIT_io.rong.imkit.logic.MessageCounterLogic:registerMessageCounter'
p824
sg9
S' 2778'
p825
sg11
S'RongIM.getInstance() is null\n'
p826
sa(dp827
g2
S'2778'
p828
sg4
L1449729950200L
sg5
g15
sg7
S'PullToRefresh'
p829
sg9
S' 2778'
p830
sg11
S'onSizeChanged. W: 480, H: 677\n'
p831
sa(dp832
g2
S'2778'
p833
sg4
L1449729950200L
sg5
g15
sg7
S'PullToRefresh'
p834
sg9
S' 2778'
p835
sg11
S'Setting Padding. L: 0, T: -406, R: 0, B: 0\n'
p836
sa(dp837
g2
S'2778'
p838
sg4
L1449729950300L
sg5
g15
sg7
S'http    '
p839
sg9
S' 2778'
p840
sg11
S'\xe8\xaf\xb7\xe6\xb1\x82\xe7\x9a\x84\xe5\x9c\xb0\xe5\x9d\x80\xef\xbc\x9ahttp://my.xdf.cn/API_User/avatar?\n'
p841
sa(dp842
g2
S'2778'
p843
sg4
L1449729950310L
sg5
g15
sg7
S'http    '
p844
sg9
S' 2778'
p845
sg11
S'\xe8\xaf\xb7\xe6\xb1\x82\xe7\x9a\x84\xe5\x8f\x82\xe6\x95\xb0\xef\xbc\x9auserId=xdf004483209&size=big\n'
p846
sa(dp847
g2
S'2778'
p848
sg4
L1449729950310L
sg5
g15
sg7
S'long    '
p849
sg9
S' 2778'
p850
sg11
S'context.getClass().getName():com.xdf.ucan.MainActivity\n'
p851
sa(dp852
g2
S'2778'
p853
sg4
L1449729951570L
sg5
g563
sg7
S'AsyncHttpRH'
p854
sg9
S' 2778'
p855
sg11
S'Progress 44 from 1 (4400%)\n'
p856
sa(dp857
g2
S'2778'
p858
sg4
L1449729951580L
sg5
g15
sg7
S'ImageLoader'
p859
sg9
S' 2881'
p860
sg11
S'Start display image task [http://my.xdf.cn/public/images/User/_Big.jpg_105x105]\n'
p861
sa(dp862
g2
S'2778'
p863
sg4
L1449729951580L
sg5
g15
sg7
S'ImageLoader'
p864
sg9
S' 2881'
p865
sg11
S'Load image from disk cache [http://my.xdf.cn/public/images/User/_Big.jpg_105x105]\n'
p866
sa(dp867
g2
S'2778'
p868
sg4
L1449729951590L
sg5
g15
sg7
S'ImageLoader'
p869
sg9
S' 2881'
p870
sg11
S'Cache image in memory [http://my.xdf.cn/public/images/User/_Big.jpg_105x105]\n'
p871
sa(dp872
g2
S'2778'
p873
sg4
L1449729951600L
sg5
g15
sg7
S'ImageLoader'
p874
sg9
S' 2778'
p875
sg11
S'Display image in ImageAware (loaded from DISC_CACHE) [http://my.xdf.cn/public/images/User/_Big.jpg_105x105]\n'
p876
sa(dp877
g2
S'2778'
p878
sg4
L1449729952080L
sg5
g6
sg7
S'        '
p879
sg9
S' 2884'
p880
sg11
S'generic statfs: /storage/sdcard0/UPOC/icon , size: 2979\n'
p881
sa(dp882
g2
S'2778'
p883
sg4
L1449729952080L
sg5
g15
sg7
S'ImageLoader'
p884
sg9
S' 2885'
p885
sg11
S'Start display image task [http://my.xdf.cn/public/images/User/_Big.jpg_60x60]\n'
p886
sa(dp887
g2
S'2778'
p888
sg4
L1449729952110L
sg5
g15
sg7
S'ImageLoader'
p889
sg9
S' 2885'
p890
sg11
S'Load image from disk cache [http://my.xdf.cn/public/images/User/_Big.jpg_60x60]\n'
p891
sa(dp892
g2
S'2778'
p893
sg4
L1449729952110L
sg5
g15
sg7
S'BitmapCache.initDiskCache(L:101)'
p894
sg9
S' 2884'
p895
sg11
S'create disk cache success\n'
p896
sa(dp897
g2
S'2778'
p898
sg4
L1449729952180L
sg5
g15
sg7
S'ImageLoader'
p899
sg9
S' 2885'
p900
sg11
S'Cache image in memory [http://my.xdf.cn/public/images/User/_Big.jpg_60x60]\n'
p901
sa(dp902
g2
S'2778'
p903
sg4
L1449729952190L
sg5
g15
sg7
S'dalvikvm'
p904
sg9
S' 2780'
p905
sg11
S'GC_CONCURRENT freed 660K, 28% free 11960K/16583K, paused 21ms+14ms, total 79ms\n'
p906
sa(dp907
g2
S'2778'
p908
sg4
L1449729952210L
sg5
g15
sg7
S'ImageLoader'
p909
sg9
S' 2778'
p910
sg11
S'Display image in ImageAware (loaded from DISC_CACHE) [http://my.xdf.cn/public/images/User/_Big.jpg_60x60]\n'
p911
sa(dp912
g2
S'2778'
p913
sg4
L1449729954030L
sg5
g15
sg7
S'long    '
p914
sg9
S' 2778'
p915
sg11
S'onRestart\n'
p916
sa(dp917
g2
S'2778'
p918
sg4
L1449729954030L
sg5
g15
sg7
S'http    '
p919
sg9
S' 2778'
p920
sg11
S'\xe8\xaf\xb7\xe6\xb1\x82\xe7\x9a\x84\xe5\x9c\xb0\xe5\x9d\x80\xef\xbc\x9ahttp://ims.xdf.cn/imserver/appversion/getversion.do\n'
p921
sa(dp922
g2
S'2778'
p923
sg4
L1449729954030L
sg5
g15
sg7
S'http    '
p924
sg9
S' 2778'
p925
sg11
S'\xe8\xaf\xb7\xe6\xb1\x82\xe7\x9a\x84\xe5\x8f\x82\xe6\x95\xb0\xef\xbc\x9aappCode=upoc_student&osType=2&appVersionResultType=1\n'
p926
sa(dp927
g2
S'2778'
p928
sg4
L1449729954030L
sg5
g15
sg7
S'long    '
p929
sg9
S' 2778'
p930
sg11
S'context.getClass().getName():com.xdf.ucan.MainActivity\n'
p931
sa(dp932
g2
S'2778'
p933
sg4
L1449729954070L
sg5
g15
sg7
S'ImageLoader'
p934
sg9
S' 2894'
p935
sg11
S'Start display image task [http://my.xdf.cn/public/images/User/_Big.jpg_105x105]\n'
p936
sa(dp937
g2
S'2778'
p938
sg4
L1449729954130L
sg5
g15
sg7
S'ImageLoader'
p939
sg9
S' 2894'
p940
sg11
S'Load image from disk cache [http://my.xdf.cn/public/images/User/_Big.jpg_105x105]\n'
p941
sa(dp942
g2
S'2778'
p943
sg4
L1449729954150L
sg5
g15
sg7
S'ImageLoader'
p944
sg9
S' 2894'
p945
sg11
S'Cache image in memory [http://my.xdf.cn/public/images/User/_Big.jpg_105x105]\n'
p946
sa(dp947
g2
S'2778'
p948
sg4
L1449729954150L
sg5
g15
sg7
S'ImageLoader'
p949
sg9
S' 2778'
p950
sg11
S'Display image in ImageAware (loaded from DISC_CACHE) [http://my.xdf.cn/public/images/User/_Big.jpg_105x105]\n'
p951
sa(dp952
g2
S'2778'
p953
sg4
L1449729954170L
sg5
g563
sg7
S'AsyncHttpRH'
p954
sg9
S' 2778'
p955
sg11
S'Progress 499 from 1 (49900%)\n'
p956
sa(dp957
g2
S'2778'
p958
sg4
L1449729954170L
sg5
g15
sg7
S'http    '
p959
sg9
S' 2778'
p960
sg11
S'\xe8\xbf\x94\xe5\x9b\x9e\xe7\x9a\x84\xe7\xbb\x93\xe6\x9e\x9c\xef\xbc\x9a{"message":"\xe8\x8e\xb7\xe5\x8f\x96\xe5\xba\x94\xe7\x94\xa8\xe7\x89\x88\xe6\x9c\xac\xe5\x8f\xb7\xe6\x88\x90\xe5\x8a\x9f\xef\xbc\x81","status":"1","data":[{"id":2,"appCode":"upoc_student","appName":"\xe4\xbc\x98\xe6\x92\xad\xe8\xaf\xbeANDROID\xe5\xad\xa6\xe7\x94\x9f\xe7\xab\xaf","osType":"2","publishDate":1442541611000,"url":"http://www.pgyer.com/qe34","version":"2.1.0","updateType":"0","buildCode":"35","description":"\xe2\x80\x9c\xe5\x93\x92\xe5\x93\x92\xe5\x93\x92\xe2\x80\x9d \xe8\xb5\x84\xe6\x96\x99\xe8\xa7\x82\xe7\x9c\x8b\xe4\xb8\x8d\xe8\xbf\x87\xe7\x98\xbe\xef\xbc\x9f \xe5\x9c\xb0\xe9\x93\x81\xef\xbc\x9f\xe6\xb2\xa1\xe7\xbd\x91\xef\xbc\x9f\xe4\xbc\x98\xe6\x92\xad\xe8\xaf\xbe\xe7\xbc\x93\xe5\xad\x98\xe7\xa6\xbb\xe7\xba\xbf\xe6\x96\x87\xe4\xbb\xb6\xef\xbc\x8c\xe6\xb8\xa9\xe6\x9a\x96\xe4\xbd\xa0\xe6\x95\xb4\xe4\xb8\xaa\xe5\x86\xac\xe5\xa4\xa9\xef\xbc\x8c\xe5\xbf\xab\xe5\x8e\xbb\xe4\xbd\x93\xe9\xaa\x8c\xe5\x90\xa7\xef\xbc\x81","noticeDate":1448270388000,"noticeUserType":"1","noticeFlag":"1"}],"date":1449729932491}\n'
p961
sa(dp962
g2
S'2778'
p963
sg4
L1449729954180L
sg5
g66
sg7
S'System.out'
p964
sg9
S' 2778'
p965
sg11
S'res:{"message":"\xe8\x8e\xb7\xe5\x8f\x96\xe5\xba\x94\xe7\x94\xa8\xe7\x89\x88\xe6\x9c\xac\xe5\x8f\xb7\xe6\x88\x90\xe5\x8a\x9f\xef\xbc\x81","status":"1","data":[{"id":2,"appCode":"upoc_student","appName":"\xe4\xbc\x98\xe6\x92\xad\xe8\xaf\xbeANDROID\xe5\xad\xa6\xe7\x94\x9f\xe7\xab\xaf","osType":"2","publishDate":1442541611000,"url":"http://www.pgyer.com/qe34","version":"2.1.0","updateType":"0","buildCode":"35","description":"\xe2\x80\x9c\xe5\x93\x92\xe5\x93\x92\xe5\x93\x92\xe2\x80\x9d \xe8\xb5\x84\xe6\x96\x99\xe8\xa7\x82\xe7\x9c\x8b\xe4\xb8\x8d\xe8\xbf\x87\xe7\x98\xbe\xef\xbc\x9f \xe5\x9c\xb0\xe9\x93\x81\xef\xbc\x9f\xe6\xb2\xa1\xe7\xbd\x91\xef\xbc\x9f\xe4\xbc\x98\xe6\x92\xad\xe8\xaf\xbe\xe7\xbc\x93\xe5\xad\x98\xe7\xa6\xbb\xe7\xba\xbf\xe6\x96\x87\xe4\xbb\xb6\xef\xbc\x8c\xe6\xb8\xa9\xe6\x9a\x96\xe4\xbd\xa0\xe6\x95\xb4\xe4\xb8\xaa\xe5\x86\xac\xe5\xa4\xa9\xef\xbc\x8c\xe5\xbf\xab\xe5\x8e\xbb\xe4\xbd\x93\xe9\xaa\x8c\xe5\x90\xa7\xef\xbc\x81","noticeDate":1448270388000,"noticeUserType":"1","noticeFlag":"1"}],"date":1449729932491}\n'
p966
sa(dp967
g2
S'2778'
p968
sg4
L1449729954240L
sg5
g563
sg7
S'AsyncHttpRH'
p969
sg9
S' 2778'
p970
sg11
S'Progress 87 from 1 (8700%)\n'
p971
sa(dp972
g2
S'2778'
p973
sg4
L1449729954250L
sg5
g15
sg7
S'http    '
p974
sg9
S' 2778'
p975
sg11
S'\xe8\xbf\x94\xe5\x9b\x9e\xe7\x9a\x84\xe7\xbb\x93\xe6\x9e\x9c\xef\xbc\x9a{"message":"\xe8\x8e\xb7\xe5\x8f\x96\xe6\x88\x91\xe7\x9a\x84\xe5\x90\x8c\xe5\xad\xa6\xe6\x88\x90\xe5\x8a\x9f\xef\xbc\x81","status":"1","data":null,"date":1449729932566}\n'
p976
sa(dp977
g2
S'2778'
p978
sg4
L1449729954250L
sg5
g66
sg7
S'System.out'
p979
sg9
S' 2778'
p980
sg11
S'res:{"message":"\xe8\x8e\xb7\xe5\x8f\x96\xe6\x88\x91\xe7\x9a\x84\xe5\x90\x8c\xe5\xad\xa6\xe6\x88\x90\xe5\x8a\x9f\xef\xbc\x81","status":"1","data":null,"date":1449729932566}\n'
p981
sa(dp982
g2
S'2778'
p983
sg4
L1449729954320L
sg5
g563
sg7
S'AsyncHttpRH'
p984
sg9
S' 2778'
p985
sg11
S'Progress 44 from 1 (4400%)\n'
p986
sa(dp987
g2
S'2778'
p988
sg4
L1449729954320L
sg5
g66
sg7
S'System.out'
p989
sg9
S' 2778'
p990
sg11
S'res:http://my.xdf.cn/public/images/User/_Big.jpg\n'
p991
sa(dp992
g2
S'2778'
p993
sg4
L1449729954440L
sg5
g15
sg7
S'long    '
p994
sg9
S' 2778'
p995
sg11
S'cancle request\xef\xbc\x9acom.xdf.ucan.ui.me.MyInfoActivity\n'
p996
sa(dp997
g2
S'2778'
p998
sg4
L1449729955890L
sg5
g15
sg7
S'ImageLoader'
p999
sg9
S' 2912'
p1000
sg11
S'Start display image task [http://my.xdf.cn/public/images/User/_Big.jpg_60x60]\n'
p1001
sa(dp1002
g2
S'2778'
p1003
sg4
L1449729955890L
sg5
g15
sg7
S'ImageLoader'
p1004
sg9
S' 2912'
p1005
sg11
S'Load image from disk cache [http://my.xdf.cn/public/images/User/_Big.jpg_60x60]\n'
p1006
sa(dp1007
g2
S'2778'
p1008
sg4
L1449729955900L
sg5
g15
sg7
S'ImageLoader'
p1009
sg9
S' 2912'
p1010
sg11
S'Cache image in memory [http://my.xdf.cn/public/images/User/_Big.jpg_60x60]\n'
p1011
sa(dp1012
g2
S'2778'
p1013
sg4
L1449729955940L
sg5
g15
sg7
S'ImageLoader'
p1014
sg9
S' 2778'
p1015
sg11
S'Display image in ImageAware (loaded from DISC_CACHE) [http://my.xdf.cn/public/images/User/_Big.jpg_60x60]\n'
p1016
sa(dp1017
g2
S'2778'
p1018
sg4
L1449729959310L
sg5
g15
sg7
S'long    '
p1019
sg9
S' 2778'
p1020
sg11
S'onRestart\n'
p1021
sa(dp1022
g2
S'2778'
p1023
sg4
L1449729959310L
sg5
g15
sg7
S'http    '
p1024
sg9
S' 2778'
p1025
sg11
S'\xe8\xaf\xb7\xe6\xb1\x82\xe7\x9a\x84\xe5\x9c\xb0\xe5\x9d\x80\xef\xbc\x9ahttp://ims.xdf.cn/imserver/appversion/getversion.do\n'
p1026
sa(dp1027
g2
S'2778'
p1028
sg4
L1449729959310L
sg5
g15
sg7
S'http    '
p1029
sg9
S' 2778'
p1030
sg11
S'\xe8\xaf\xb7\xe6\xb1\x82\xe7\x9a\x84\xe5\x8f\x82\xe6\x95\xb0\xef\xbc\x9aappCode=upoc_student&osType=2&appVersionResultType=1\n'
p1031
sa(dp1032
g2
S'2778'
p1033
sg4
L1449729959310L
sg5
g15
sg7
S'long    '
p1034
sg9
S' 2778'
p1035
sg11
S'context.getClass().getName():com.xdf.ucan.MainActivity\n'
p1036
sa(dp1037
g2
S'2778'
p1038
sg4
L1449729959320L
sg5
g15
sg7
S'ImageLoader'
p1039
sg9
S' 2881'
p1040
sg11
S'Start display image task [http://my.xdf.cn/public/images/User/_Big.jpg_105x105]\n'
p1041
sa(dp1042
g2
S'2778'
p1043
sg4
L1449729959320L
sg5
g15
sg7
S'ImageLoader'
p1044
sg9
S' 2881'
p1045
sg11
S'Load image from disk cache [http://my.xdf.cn/public/images/User/_Big.jpg_105x105]\n'
p1046
sa(dp1047
g2
S'2778'
p1048
sg4
L1449729959400L
sg5
g15
sg7
S'ImageLoader'
p1049
sg9
S' 2881'
p1050
sg11
S'Cache image in memory [http://my.xdf.cn/public/images/User/_Big.jpg_105x105]\n'
p1051
sa(dp1052
g2
S'2778'
p1053
sg4
L1449729959410L
sg5
g15
sg7
S'ImageLoader'
p1054
sg9
S' 2778'
p1055
sg11
S'Display image in ImageAware (loaded from DISC_CACHE) [http://my.xdf.cn/public/images/User/_Big.jpg_105x105]\n'
p1056
sa(dp1057
g2
S'2778'
p1058
sg4
L1449729959450L
sg5
g563
sg7
S'AsyncHttpRH'
p1059
sg9
S' 2778'
p1060
sg11
S'Progress 499 from 1 (49900%)\n'
p1061
sa(dp1062
g2
S'2778'
p1063
sg4
L1449729959450L
sg5
g15
sg7
S'http    '
p1064
sg9
S' 2778'
p1065
sg11
S'\xe8\xbf\x94\xe5\x9b\x9e\xe7\x9a\x84\xe7\xbb\x93\xe6\x9e\x9c\xef\xbc\x9a{"message":"\xe8\x8e\xb7\xe5\x8f\x96\xe5\xba\x94\xe7\x94\xa8\xe7\x89\x88\xe6\x9c\xac\xe5\x8f\xb7\xe6\x88\x90\xe5\x8a\x9f\xef\xbc\x81","status":"1","data":[{"id":2,"appCode":"upoc_student","appName":"\xe4\xbc\x98\xe6\x92\xad\xe8\xaf\xbeANDROID\xe5\xad\xa6\xe7\x94\x9f\xe7\xab\xaf","osType":"2","publishDate":1442541611000,"url":"http://www.pgyer.com/qe34","version":"2.1.0","updateType":"0","buildCode":"35","description":"\xe2\x80\x9c\xe5\x93\x92\xe5\x93\x92\xe5\x93\x92\xe2\x80\x9d \xe8\xb5\x84\xe6\x96\x99\xe8\xa7\x82\xe7\x9c\x8b\xe4\xb8\x8d\xe8\xbf\x87\xe7\x98\xbe\xef\xbc\x9f \xe5\x9c\xb0\xe9\x93\x81\xef\xbc\x9f\xe6\xb2\xa1\xe7\xbd\x91\xef\xbc\x9f\xe4\xbc\x98\xe6\x92\xad\xe8\xaf\xbe\xe7\xbc\x93\xe5\xad\x98\xe7\xa6\xbb\xe7\xba\xbf\xe6\x96\x87\xe4\xbb\xb6\xef\xbc\x8c\xe6\xb8\xa9\xe6\x9a\x96\xe4\xbd\xa0\xe6\x95\xb4\xe4\xb8\xaa\xe5\x86\xac\xe5\xa4\xa9\xef\xbc\x8c\xe5\xbf\xab\xe5\x8e\xbb\xe4\xbd\x93\xe9\xaa\x8c\xe5\x90\xa7\xef\xbc\x81","noticeDate":1448270388000,"noticeUserType":"1","noticeFlag":"1"}],"date":1449729937704}\n'
p1066
sa(dp1067
g2
S'2778'
p1068
sg4
L1449729959450L
sg5
g66
sg7
S'System.out'
p1069
sg9
S' 2778'
p1070
sg11
S'res:{"message":"\xe8\x8e\xb7\xe5\x8f\x96\xe5\xba\x94\xe7\x94\xa8\xe7\x89\x88\xe6\x9c\xac\xe5\x8f\xb7\xe6\x88\x90\xe5\x8a\x9f\xef\xbc\x81","status":"1","data":[{"id":2,"appCode":"upoc_student","appName":"\xe4\xbc\x98\xe6\x92\xad\xe8\xaf\xbeANDROID\xe5\xad\xa6\xe7\x94\x9f\xe7\xab\xaf","osType":"2","publishDate":1442541611000,"url":"http://www.pgyer.com/qe34","version":"2.1.0","updateType":"0","buildCode":"35","description":"\xe2\x80\x9c\xe5\x93\x92\xe5\x93\x92\xe5\x93\x92\xe2\x80\x9d \xe8\xb5\x84\xe6\x96\x99\xe8\xa7\x82\xe7\x9c\x8b\xe4\xb8\x8d\xe8\xbf\x87\xe7\x98\xbe\xef\xbc\x9f \xe5\x9c\xb0\xe9\x93\x81\xef\xbc\x9f\xe6\xb2\xa1\xe7\xbd\x91\xef\xbc\x9f\xe4\xbc\x98\xe6\x92\xad\xe8\xaf\xbe\xe7\xbc\x93\xe5\xad\x98\xe7\xa6\xbb\xe7\xba\xbf\xe6\x96\x87\xe4\xbb\xb6\xef\xbc\x8c\xe6\xb8\xa9\xe6\x9a\x96\xe4\xbd\xa0\xe6\x95\xb4\xe4\xb8\xaa\xe5\x86\xac\xe5\xa4\xa9\xef\xbc\x8c\xe5\xbf\xab\xe5\x8e\xbb\xe4\xbd\x93\xe9\xaa\x8c\xe5\x90\xa7\xef\xbc\x81","noticeDate":1448270388000,"noticeUserType":"1","noticeFlag":"1"}],"date":1449729937704}\n'
p1071
sa(dp1072
g2
S'2778'
p1073
sg4
L1449729959720L
sg5
g15
sg7
S'long    '
p1074
sg9
S' 2778'
p1075
sg11
S'cancle request\xef\xbc\x9acom.xdf.ucan.ui.me.MyInfoActivity\n'
p1076
sa(dp1077
g2
S'2778'
p1078
sg4
L1449729967190L
sg5
g442
sg7
S'System.err'
p1079
sg9
S' 2861'
p1080
sg11
S'org.apache.http.conn.ConnectTimeoutException: Connect to /116.213.70.23:80 timed out\n'
p1081
sa(dp1082
g2
S'2778'
p1083
sg4
L1449729967200L
sg5
g442
sg7
S'System.err'
p1084
sg9
S' 2861'
p1085
sg11
S'\tat org.apache.http.conn.scheme.PlainSocketFactory.connectSocket(PlainSocketFactory.java:121)\n'
p1086
sa(dp1087
g2
S'2778'
p1088
sg4
L1449729967200L
sg5
g442
sg7
S'System.err'
p1089
sg9
S' 2861'
p1090
sg11
S'\tat org.apache.http.impl.conn.DefaultClientConnectionOperator.openConnection(DefaultClientConnectionOperator.java:144)\n'
p1091
sa(dp1092
g2
S'2778'
p1093
sg4
L1449729967200L
sg5
g442
sg7
S'System.err'
p1094
sg9
S' 2861'
p1095
sg11
S'\tat org.apache.http.impl.conn.AbstractPoolEntry.open(AbstractPoolEntry.java:164)\n'
p1096
sa(dp1097
g2
S'2778'
p1098
sg4
L1449729967200L
sg5
g442
sg7
S'System.err'
p1099
sg9
S' 2861'
p1100
sg11
S'\tat org.apache.http.impl.conn.AbstractPooledConnAdapter.open(AbstractPooledConnAdapter.java:119)\n'
p1101
sa(dp1102
g2
S'2778'
p1103
sg4
L1449729967210L
sg5
g442
sg7
S'System.err'
p1104
sg9
S' 2861'
p1105
sg11
S'\tat org.apache.http.impl.client.DefaultRequestDirector.execute(DefaultRequestDirector.java:360)\n'
p1106
sa(dp1107
g2
S'2778'
p1108
sg4
L1449729967210L
sg5
g442
sg7
S'System.err'
p1109
sg9
S' 2861'
p1110
sg11
S'\tat org.apache.http.impl.client.AbstractHttpClient.execute(AbstractHttpClient.java:555)\n'
p1111
sa(dp1112
g2
S'2778'
p1113
sg4
L1449729967210L
sg5
g442
sg7
S'System.err'
p1114
sg9
S' 2861'
p1115
sg11
S'\tat org.apache.http.impl.client.AbstractHttpClient.execute(AbstractHttpClient.java:487)\n'
p1116
sa(dp1117
g2
S'2778'
p1118
sg4
L1449729967210L
sg5
g442
sg7
S'System.err'
p1119
sg9
S' 2861'
p1120
sg11
S'\tat com.loopj.android.http.AsyncHttpRequest.makeRequest(AsyncHttpRequest.java:146)\n'
p1121
sa(dp1122
g2
S'2778'
p1123
sg4
L1449729967210L
sg5
g442
sg7
S'System.err'
p1124
sg9
S' 2861'
p1125
sg11
S'\tat com.loopj.android.http.AsyncHttpRequest.makeRequestWithRetries(AsyncHttpRequest.java:177)\n'
p1126
sa(dp1127
g2
S'2778'
p1128
sg4
L1449729967220L
sg5
g442
sg7
S'System.err'
p1129
sg9
S' 2861'
p1130
sg11
S'\tat com.loopj.android.http.AsyncHttpRequest.run(AsyncHttpRequest.java:106)\n'
p1131
sa(dp1132
g2
S'2778'
p1133
sg4
L1449729967220L
sg5
g442
sg7
S'System.err'
p1134
sg9
S' 2861'
p1135
sg11
S'\tat java.util.concurrent.Executors$RunnableAdapter.call(Executors.java:442)\n'
p1136
sa(dp1137
g2
S'2778'
p1138
sg4
L1449729967220L
sg5
g442
sg7
S'System.err'
p1139
sg9
S' 2861'
p1140
sg11
S'\tat java.util.concurrent.FutureTask$Sync.innerRun(FutureTask.java:305)\n'
p1141
sa(dp1142
g2
S'2778'
p1143
sg4
L1449729967220L
sg5
g442
sg7
S'System.err'
p1144
sg9
S' 2861'
p1145
sg11
S'\tat java.util.concurrent.FutureTask.run(FutureTask.java:137)\n'
p1146
sa(dp1147
g2
S'2778'
p1148
sg4
L1449729967220L
sg5
g442
sg7
S'System.err'
p1149
sg9
S' 2861'
p1150
sg11
S'\tat java.util.concurrent.ThreadPoolExecutor.runWorker(ThreadPoolExecutor.java:1076)\n'
p1151
sa(dp1152
g2
S'2778'
p1153
sg4
L1449729967220L
sg5
g442
sg7
S'System.err'
p1154
sg9
S' 2861'
p1155
sg11
S'\tat java.util.concurrent.ThreadPoolExecutor$Worker.run(ThreadPoolExecutor.java:569)\n'
p1156
sa(dp1157
g2
S'2778'
p1158
sg4
L1449729967220L
sg5
g442
sg7
S'System.err'
p1159
sg9
S' 2861'
p1160
sg11
S'\tat java.lang.Thread.run(Thread.java:856)\n'
p1161
sa(dp1162
g2
S'2778'
p1163
sg4
L1449729967220L
sg5
g15
sg7
S'http    '
p1164
sg9
S' 2778'
p1165
sg11
S'\xe8\xbf\x94\xe5\x9b\x9e\xe7\x9a\x84\xe7\xbb\x93\xe6\x9e\x9c\xef\xbc\x9aorg.apache.http.conn.ConnectTimeoutException: Connect to /116.213.70.23:80 timed out\n'
p1166
sa(dp1167
g2
S'2778'
p1168
sg4
L1449729967280L
sg5
g15
sg7
S'dalvikvm'
p1169
sg9
S' 2780'
p1170
sg11
S'GC_CONCURRENT freed 975K, 27% free 12166K/16583K, paused 2ms+4ms, total 51ms\n'
p1171
sa(dp1172
g2
S'2778'
p1173
sg4
L1449729972410L
sg5
g15
sg7
S'long    '
p1174
sg9
S' 2778'
p1175
sg11
S'cancle request\xef\xbc\x9acom.xdf.ucan.MainActivity\n'
p1176
sa(dp1177
g2
S'2778'
p1178
sg4
L1449729972410L
sg5
g15
sg7
S'long    '
p1179
sg9
S' 2778'
p1180
sg11
S'fragment onDestroy\n'
p1181
sa(dp1182
g2
S'2778'
p1183
sg4
L1449729972420L
sg5
g15
sg7
S'long    '
p1184
sg9
S' 2778'
p1185
sg11
S'fragment onDestroy\n'
p1186
sa(dp1187
g2
S'2799'
p1188
sg4
L1449729972500L
sg5
g15
sg7
S'RongService'
p1189
sg9
S' 2799'
p1190
sg11
S'onUnbind, pid=2799\n'
p1191
sa(dp1192
g2
S'2799'
p1193
sg4
L1449729972500L
sg5
g15
sg7
S'RongService'
p1194
sg9
S' 2799'
p1195
sg11
S'onDestroy, pid=2799\n'
p1196
sa(dp1197
g2
S'2960'
p1198
sg4
L1449729974420L
sg5
g6
sg7
S'Trace   '
p1199
sg9
S' 2960'
p1200
sg11
S'error opening trace file: Permission denied (13)\n'
p1201
sa(dp1202
g2
S'2960'
p1203
sg4
L1449729974520L
sg5
g15
sg7
S'dalvikvm'
p1204
sg9
S' 2963'
p1205
sg11
S'GC_CONCURRENT freed 162K, 4% free 8430K/8775K, paused 12ms+2ms, total 29ms\n'
p1206
sa(dp1207
g2
S'2960'
p1208
sg4
L1449729974520L
sg5
g15
sg7
S'dalvikvm'
p1209
sg9
S' 2960'
p1210
sg11
S'WAIT_FOR_CONCURRENT_GC blocked 4ms\n'
p1211
sa(dp1212
g2
S'2960'
p1213
sg4
L1449729974570L
sg5
g15
sg7
S'ImageLoader'
p1214
sg9
S' 2960'
p1215
sg11
S'Initialize ImageLoader with configuration\n'
p1216
sa(dp1217
g2
S'2960'
p1218
sg4
L1449729974600L
sg5
g15
sg7
S'long    '
p1219
sg9
S' 2960'
p1220
sg11
S'getCurProcessName:com.xdf.ucan\n'
p1221
sa(dp1222
g2
S'2960'
p1223
sg4
L1449729974710L
sg5
g15
sg7
S'dalvikvm'
p1224
sg9
S' 2963'
p1225
sg11
S'GC_CONCURRENT freed 302K, 6% free 8644K/9159K, paused 16ms+13ms, total 49ms\n'
p1226
sa(dp1227
g2
S'2960'
p1228
sg4
L1449729974710L
sg5
g15
sg7
S'##KIT_io.rong.imkit.widget.provider.TextInputProvider:TextInputProvider'
p1229
sg9
S' 2960'
p1230
sg11
g43
sa(dp1231
g2
S'2960'
p1232
sg4
L1449729974720L
sg5
g6
sg7
S'##IPC_io.rong.imkit.widget.provider.VoIPInputProvider:VoIPInputProvider'
p1233
sg9
S' 2960'
p1234
sg11
S'----------\xe6\x9e\x84\xe9\x80\xa0\xe6\x96\xb9\xe6\xb3\x95----------\n'
p1235
sa(dp1236
g2
S'2960'
p1237
sg4
L1449729974720L
sg5
g15
sg7
S'##IPC_com.xdf.ucan.BaseApplication:RongIMClient : init'
p1238
sg9
S' 2960'
p1239
sg11
S'process = com.xdf.ucan\n'
p1240
sa(dp1241
g2
S'2960'
p1242
sg4
L1449729974730L
sg5
g6
sg7
S'        '
p1243
sg9
S' 2960'
p1244
sg11
S'generic statfs: /data , size: 110403\n'
p1245
sa(dp1246
g2
S'2960'
p1247
sg4
L1449729974740L
sg5
g15
sg7
S'##COMMON_io.rong.push.PushContext:PushContext'
p1248
sg9
S' 2960'
p1249
sg11
S'init\n'
p1250
sa(dp1251
g2
S'2960'
p1252
sg4
L1449729974810L
sg5
g66
sg7
S'##COMMON_io.rong.push.PushContext:sendConnectCommand'
p1253
sg9
S' 2960'
p1254
sg11
S'1600\n'
p1255
sa(dp1256
g2
S'2960'
p1257
sg4
L1449729974820L
sg5
g15
sg7
S'##IPC_io.rong.imlib.RongIMClient:initBindService'
p1258
sg9
S' 2960'
p1259
sg11
S'mIsBind = false\n'
p1260
sa(dp1261
g2
S'2960'
p1262
sg4
L1449729974840L
sg5
g15
sg7
S'##IPC_io.rong.imlib.RongIMClient:registerMessageType'
p1263
sg9
S' 2960'
p1264
sg11
S'class io.rong.message.TextMessage\n'
p1265
sa(dp1266
g2
S'2960'
p1267
sg4
L1449729974840L
sg5
g15
sg7
S'##IPC_io.rong.imlib.RongIMClient:registerMessageType'
p1268
sg9
S' 2960'
p1269
sg11
S'class io.rong.message.VoiceMessage\n'
p1270
sa(dp1271
g2
S'2960'
p1272
sg4
L1449729974840L
sg5
g15
sg7
S'##IPC_io.rong.imlib.RongIMClient:registerMessageType'
p1273
sg9
S' 2960'
p1274
sg11
S'class io.rong.message.ImageMessage\n'
p1275
sa(dp1276
g2
S'2960'
p1277
sg4
L1449729974840L
sg5
g15
sg7
S'##IPC_io.rong.imlib.RongIMClient:registerMessageType'
p1278
sg9
S' 2960'
p1279
sg11
S'class io.rong.message.LocationMessage\n'
p1280
sa(dp1281
g2
S'2960'
p1282
sg4
L1449729974840L
sg5
g15
sg7
S'##IPC_io.rong.imlib.RongIMClient:registerMessageType'
p1283
sg9
S' 2960'
p1284
sg11
S'class io.rong.message.CommandNotificationMessage\n'
p1285
sa(dp1286
g2
S'2960'
p1287
sg4
L1449729974840L
sg5
g15
sg7
S'##IPC_io.rong.imlib.RongIMClient:registerMessageType'
p1288
sg9
S' 2960'
p1289
sg11
S'class io.rong.message.ContactNotificationMessage\n'
p1290
sa(dp1291
g2
S'2960'
p1292
sg4
L1449729974840L
sg5
g15
sg7
S'##IPC_io.rong.imlib.RongIMClient:registerMessageType'
p1293
sg9
S' 2960'
p1294
sg11
S'class io.rong.message.RichContentMessage\n'
p1295
sa(dp1296
g2
S'2960'
p1297
sg4
L1449729974840L
sg5
g15
sg7
S'##IPC_io.rong.imlib.RongIMClient:registerMessageType'
p1298
sg9
S' 2960'
p1299
sg11
S'class io.rong.message.PublicServiceMultiRichContentMessage\n'
p1300
sa(dp1301
g2
S'2960'
p1302
sg4
L1449729974840L
sg5
g15
sg7
S'##IPC_io.rong.imlib.RongIMClient:registerMessageType'
p1303
sg9
S' 2960'
p1304
sg11
S'class io.rong.message.PublicServiceRichContentMessage\n'
p1305
sa(dp1306
g2
S'2960'
p1307
sg4
L1449729974840L
sg5
g15
sg7
S'##IPC_io.rong.imlib.RongIMClient:registerMessageType'
p1308
sg9
S' 2960'
p1309
sg11
S'class io.rong.message.PublicServiceCommandMessage\n'
p1310
sa(dp1311
g2
S'2960'
p1312
sg4
L1449729974850L
sg5
g15
sg7
S'##IPC_io.rong.imlib.RongIMClient:registerMessageType'
p1313
sg9
S' 2960'
p1314
sg11
S'class io.rong.message.ProfileNotificationMessage\n'
p1315
sa(dp1316
g2
S'2960'
p1317
sg4
L1449729974850L
sg5
g15
sg7
S'##IPC_io.rong.imlib.RongIMClient:registerMessageType'
p1318
sg9
S' 2960'
p1319
sg11
S'class io.rong.message.HandshakeMessage\n'
p1320
sa(dp1321
g2
S'2960'
p1322
sg4
L1449729974850L
sg5
g15
sg7
S'##IPC_io.rong.imlib.RongIMClient:registerMessageType'
p1323
sg9
S' 2960'
p1324
sg11
S'class io.rong.message.InformationNotificationMessage\n'
p1325
sa(dp1326
g2
S'2960'
p1327
sg4
L1449729974850L
sg5
g15
sg7
S'##IPC_io.rong.imlib.RongIMClient:registerMessageType'
p1328
sg9
S' 2960'
p1329
sg11
S'class io.rong.message.DiscussionNotificationMessage\n'
p1330
sa(dp1331
g2
S'2960'
p1332
sg4
L1449729974860L
sg5
g15
sg7
S'##IPC_io.rong.imlib.RongIMClient:registerMessageType'
p1333
sg9
S' 2960'
p1334
sg11
S'class io.rong.message.SuspendMessage\n'
p1335
sa(dp1336
g2
S'2987'
p1337
sg4
L1449729974860L
sg5
g6
sg7
S'Trace   '
p1338
sg9
S' 2987'
p1339
sg11
S'error opening trace file: Permission denied (13)\n'
p1340
sa(dp1341
g2
S'2960'
p1342
sg4
L1449729974860L
sg5
g6
sg7
S'##KIT_com.xdf.ucan.BaseApplication:init'
p1343
sg9
S' 2960'
p1344
sg11
S'before init\n'
p1345
sa(dp1346
g2
S'2960'
p1347
sg4
L1449729974860L
sg5
g15
sg7
S'##IPC_io.rong.imlib.RongIMClient:registerMessageType'
p1348
sg9
S' 2960'
p1349
sg11
S'class io.rong.voipkit.message.VoIPAcceptMessage\n'
p1350
sa(dp1351
g2
S'2960'
p1352
sg4
L1449729974860L
sg5
g15
sg7
S'##IPC_io.rong.imlib.RongIMClient:registerMessageType'
p1353
sg9
S' 2960'
p1354
sg11
S'class io.rong.voipkit.message.VoIPCallMessage\n'
p1355
sa(dp1356
g2
S'2960'
p1357
sg4
L1449729974860L
sg5
g15
sg7
S'##IPC_io.rong.imlib.RongIMClient:registerMessageType'
p1358
sg9
S' 2960'
p1359
sg11
S'class io.rong.voipkit.message.VoIPFinishMessage\n'
p1360
sa(dp1361
g2
S'2960'
p1362
sg4
L1449729974880L
sg5
g66
sg7
S'##KIT_com.xdf.ucan.RongCloudEvent:RongIMClientWrapper'
p1363
sg9
S' 2960'
p1364
sg11
S'setOnReceiveMessageListener\n'
p1365
sa(dp1366
g2
S'2960'
p1367
sg4
L1449729974920L
sg5
g15
sg7
S'dalvikvm'
p1368
sg9
S' 2960'
p1369
sg11
S'GC_FOR_ALLOC freed 273K, 6% free 8743K/9223K, paused 17ms, total 17ms\n'
p1370
sa(dp1371
g2
S'2960'
p1372
sg4
L1449729974950L
sg5
g15
sg7
S'dalvikvm'
p1373
sg9
S' 2963'
p1374
sg11
S'GC_CONCURRENT freed 4K, 5% free 12339K/12871K, paused 2ms+4ms, total 23ms\n'
p1375
sa(dp1376
g2
S'2987'
p1377
sg4
L1449729974970L
sg5
g15
sg7
S'dalvikvm'
p1378
sg9
S' 2989'
p1379
sg11
S'GC_CONCURRENT freed 159K, 4% free 8432K/8775K, paused 15ms+2ms, total 34ms\n'
p1380
sa(dp1381
g2
S'2987'
p1382
sg4
L1449729974970L
sg5
g15
sg7
S'dalvikvm'
p1383
sg9
S' 2987'
p1384
sg11
S'WAIT_FOR_CONCURRENT_GC blocked 10ms\n'
p1385
sa(dp1386
g2
S'2960'
p1387
sg4
L1449729975000L
sg5
g15
sg7
S'dalvikvm'
p1388
sg9
S' 2960'
p1389
sg11
S'GC_FOR_ALLOC freed 0K, 5% free 12339K/12871K, paused 16ms, total 16ms\n'
p1390
sa(dp1391
g2
S'2987'
p1392
sg4
L1449729975020L
sg5
g15
sg7
S'ImageLoader'
p1393
sg9
S' 2987'
p1394
sg11
S'Initialize ImageLoader with configuration\n'
p1395
sa(dp1396
g2
S'2987'
p1397
sg4
L1449729975020L
sg5
g15
sg7
S'long    '
p1398
sg9
S' 2987'
p1399
sg11
S'getCurProcessName:com.xdf.ucan:ipc\n'
p1400
sa(dp1401
g2
S'2987'
p1402
sg4
L1449729975030L
sg5
g15
sg7
S'RongService'
p1403
sg9
S' 2987'
p1404
sg11
S'onCreate, pid=2987\n'
p1405
sa(dp1406
g2
S'2987'
p1407
sg4
L1449729975040L
sg5
g15
sg7
S'RongService'
p1408
sg9
S' 2987'
p1409
sg11
S'onBind, pid=2987\n'
p1410
sa(dp1411
g2
S'2960'
p1412
sg4
L1449729975050L
sg5
g15
sg7
S'dalvikvm'
p1413
sg9
S' 2963'
p1414
sg11
S'GC_CONCURRENT freed 0K, 4% free 14364K/14919K, paused 12ms+2ms, total 36ms\n'
p1415
sa(dp1416
g2
S'2987'
p1417
sg4
L1449729975080L
sg5
g66
sg7
S'##COMMON_io.rong.imlib.LibContext:DeviceId'
p1418
sg9
S' 2987'
p1419
sg11
S'A0000037E432E9\n'
p1420
sa(dp1421
g2
S'2987'
p1422
sg4
L1449729975090L
sg5
g15
sg7
S'NativeClient'
p1423
sg9
S' 2987'
p1424
sg11
S'/storage/sdcard0/Android/data/com.xdf.ucan/RongCloud||/data/data/com.xdf.ucan/files\n'
p1425
sa(dp1426
g2
S'2960'
p1427
sg4
L1449729975130L
sg5
g66
sg7
S'Adreno200-EGL'
p1428
sg9
S' 2960'
p1429
sg11
S'<qeglDrvAPI_eglInitialize:299>: EGL 1.4 QUALCOMM build: Nondeterministic AU_msm8625_REFS/TAGS/JB_REL_RB5_QRD_D20130130_Merge_release_AU (Merge)\nBuild Date: 01/31/13 Thu\nLocal Branch: \nRemote Branch: m/refs/tags/jb_rel_rb5_qrd_D20130130\nLocal Patches: NONE\nReconstruct Branch: NOTHING\n'
p1430
sa(dp1431
g2
S'2960'
p1432
sg4
L1449729975150L
sg5
g15
sg7
S'##IPC_io.rong.imlib.RongIMClient:onServiceConnected'
p1433
sg9
S' 2960'
p1434
sg11
S'mConnectionStatus = DISCONNECTED, stub = io.rong.imlib.ipc.remote.IHandler$Stub$Proxy@417eae80\n'
p1435
sa(dp1436
g2
S'2987'
p1437
sg4
L1449729975280L
sg5
g15
sg7
S'dalvikvm'
p1438
sg9
S' 2989'
p1439
sg11
S'GC_CONCURRENT freed 296K, 6% free 8604K/9095K, paused 2ms+3ms, total 37ms\n'
p1440
sa(dp1441
g2
S'2960'
p1442
sg4
L1449729975310L
sg5
g15
sg7
S'##IPC_io.rong.imlib.ConnectChangeReceiver:onReceive'
p1443
sg9
S' 2960'
p1444
sg11
S'network:true, intent:Intent { act=android.net.conn.CONNECTIVITY_CHANGE flg=0x8000010 (has extras) }\n'
p1445
sa(dp1446
g2
S'2960'
p1447
sg4
L1449729976360L
sg5
g15
sg7
S'##IPC_io.rong.imlib.ConnectChangeReceiver:onReceive'
p1448
sg9
S' 2960'
p1449
sg11
S'network:true, intent:Intent { act=action_reconnect flg=0x14 pkg=com.xdf.ucan cmp=com.xdf.ucan/io.rong.imlib.ConnectChangeReceiver (has extras) }\n'
p1450
sa(dp1451
g2
S'2960'
p1452
sg4
L1449729976380L
sg5
g15
sg7
S'PowerManager'
p1453
sg9
S' 2960'
p1454
sg11
S'wake:com.xdf.ucan/io.rong.imlib.ReConnectService [acquire]\n'
p1455
sa(dp1456
g2
S'2960'
p1457
sg4
L1449729976400L
sg5
g15
sg7
S'##IPC_io.rong.imlib.ReConnectService:RECONNECT'
p1458
sg9
S' 3025'
p1459
sg11
S'Intent { cmp=com.xdf.ucan/io.rong.imlib.ReConnectService (has extras) }\n'
p1460
sa(dp1461
g2
S'2960'
p1462
sg4
L1449729976400L
sg5
g15
sg7
S'##IPC_io.rong.imlib.RongIMClient:reconnect'
p1463
sg9
S' 3025'
p1464
sg11
S'mConnectionStatus :DISCONNECTED\n'
p1465
sa(dp1466
g2
S'2960'
p1467
sg4
L1449729976490L
sg5
g15
sg7
S'PowerManager'
p1468
sg9
S' 2960'
p1469
sg11
S'wake:com.xdf.ucan/io.rong.imlib.ReConnectService [release]\n'
p1470
sa(dp1471
g2
S'3026'
p1472
sg4
L1449729976490L
sg5
g6
sg7
S'Trace   '
p1473
sg9
S' 3026'
p1474
sg11
S'error opening trace file: Permission denied (13)\n'
p1475
sa(dp1476
g2
S'3026'
p1477
sg4
L1449729976610L
sg5
g15
sg7
S'dalvikvm'
p1478
sg9
S' 3029'
p1479
sg11
S'GC_CONCURRENT freed 162K, 4% free 8430K/8775K, paused 15ms+2ms, total 40ms\n'
p1480
sa(dp1481
g2
S'3026'
p1482
sg4
L1449729976610L
sg5
g15
sg7
S'dalvikvm'
p1483
sg9
S' 3026'
p1484
sg11
S'WAIT_FOR_CONCURRENT_GC blocked 5ms\n'
p1485
sa(dp1486
g2
S'3026'
p1487
sg4
L1449729976660L
sg5
g15
sg7
S'ImageLoader'
p1488
sg9
S' 3026'
p1489
sg11
S'Initialize ImageLoader with configuration\n'
p1490
sa(dp1491
g2
S'3026'
p1492
sg4
L1449729976670L
sg5
g15
sg7
S'long    '
p1493
sg9
S' 3026'
p1494
sg11
S'getCurProcessName:io.rong.push\n'
p1495
sa(dp1496
g2
S'2960'
p1497
sg4
L1449729976690L
sg5
g15
sg7
S'long    '
p1498
sg9
S' 2960'
p1499
sg11
S'cancle request\xef\xbc\x9acom.xdf.ucan.ui.login.StartActivity\n'
p1500
sa(dp1501
g2
S'3026'
p1502
sg4
L1449729976700L
sg5
g15
sg7
S'##IPC_com.xdf.ucan.BaseApplication:RongIMClient : init'
p1503
sg9
S' 3026'
p1504
sg11
S'process = io.rong.push\n'
p1505
sa(dp1506
g2
S'3026'
p1507
sg4
L1449729976710L
sg5
g6
sg7
S'        '
p1508
sg9
S' 3026'
p1509
sg11
S'generic statfs: /data , size: 110403\n'
p1510
sa(dp1511
g2
S'3026'
p1512
sg4
L1449729976720L
sg5
g15
sg7
S'##COMMON_io.rong.push.PushContext:PushContext'
p1513
sg9
S' 3026'
p1514
sg11
S'init\n'
p1515
sa(dp1516
g2
S'3026'
p1517
sg4
L1449729976780L
sg5
g66
sg7
S'##COMMON_io.rong.push.PushContext:sendConnectCommand'
p1518
sg9
S' 3026'
p1519
sg11
S'2200\n'
p1520
sa(dp1521
g2
S'3026'
p1522
sg4
L1449729976790L
sg5
g66
sg7
S'##COMMON_io.rong.push.PushReceiver:Action'
p1523
sg9
S' 3026'
p1524
sg11
S'io.rong.push.Connect\n'
p1525
sa(dp1526
g2
S'3026'
p1527
sg4
L1449729976790L
sg5
g15
sg7
S'dalvikvm'
p1528
sg9
S' 3029'
p1529
sg11
S'GC_CONCURRENT freed 326K, 7% free 8591K/9159K, paused 2ms+2ms, total 25ms\n'
p1530
sa(dp1531
g2
S'3026'
p1532
sg4
L1449729976800L
sg5
g15
sg7
S'PowerManager'
p1533
sg9
S' 3026'
p1534
sg11
S'wake:com.xdf.ucan/io.rong.push.PushService [acquire]\n'
p1535
sa(dp1536
g2
S'3026'
p1537
sg4
L1449729976800L
sg5
g66
sg7
S'##COMMON_io.rong.push.PushReceiver:ACTION_CONNECT'
p1538
sg9
S' 3026'
p1539
sg11
S'version is null, run connect\n'
p1540
sa(dp1541
g2
S'3026'
p1542
sg4
L1449729976800L
sg5
g66
sg7
S'##COMMON_java.lang.Class:PushService'
p1543
sg9
S' 3026'
p1544
sg11
S'PushService OnCreate\n'
p1545
sa(dp1546
g2
S'3026'
p1547
sg4
L1449729976800L
sg5
g66
sg7
S'PushService'
p1548
sg9
S' 3026'
p1549
sg11
S'PushService OnCreate\n'
p1550
sa(dp1551
g2
S'3026'
p1552
sg4
L1449729976810L
sg5
g66
sg7
S'##COMMON_io.rong.push.PushService:CONNECT_CHECK'
p1553
sg9
S' 3045'
p1554
sg11
S'getRunningPushServiceVersion null\n'
p1555
sa(dp1556
g2
S'3026'
p1557
sg4
L1449729976810L
sg5
g66
sg7
S'##COMMON_io.rong.push.PushService.PushHandler:PushHandler'
p1558
sg9
S' 3045'
p1559
sg11
S'ConnectToServer,isClientConnected = false\n'
p1560
sa(dp1561
g2
S'3026'
p1562
sg4
L1449729976820L
sg5
g66
sg7
S'##COMMON_io.rong.push.PushService:DeviceId'
p1563
sg9
S' 3045'
p1564
sg11
S'A0000037E432E9\n'
p1565
sa(dp1566
g2
S'3026'
p1567
sg4
L1449729976820L
sg5
g66
sg7
S'##COMMON_io.rong.push.PushService.PushHandler:PushHandler'
p1568
sg9
S' 3045'
p1569
sg11
S'the saved IP = 119.254.101.137:8609\n'
p1570
sa(dp1571
g2
S'3026'
p1572
sg4
L1449729976820L
sg5
g66
sg7
S'PushHandler'
p1573
sg9
S' 3045'
p1574
sg11
S'the saved time = 1449727391539current time = 1449729976835\n'
p1575
sa(dp1576
g2
S'3026'
p1577
sg4
L1449729976820L
sg5
g66
sg7
S'##COMMON_io.rong.push.PushService.PushHandler:PushHandler'
p1578
sg9
S' 3045'
p1579
sg11
S'ConnectToServer,use the saved IP, IP = 119.254.101.137:8609\n'
p1580
sa(dp1581
g2
S'3026'
p1582
sg4
L1449729976820L
sg5
g66
sg7
S'##COMMON_io.rong.push.PushService:getPhoneInformation.'
p1583
sg9
S' 3045'
p1584
sg11
S'the phone information is:ZTE|ZTE N909|16|WIFI|46003\n'
p1585
sa(dp1586
g2
S'3026'
p1587
sg4
L1449729976830L
sg5
g66
sg7
S'##COMMON_io.rong.push.PushClient:connect'
p1588
sg9
S' 3045'
p1589
sg11
S'phone info:ZTE|ZTE N909|16|WIFI|46003 push version:2.6\n'
p1590
sa(dp1591
g2
S'3026'
p1592
sg4
L1449729976830L
sg5
g66
sg7
S'##COMMON_io.rong.push.PushClient:connect'
p1593
sg9
S' 3045'
p1594
sg11
S'the socket is established\n'
p1595
sa(dp1596
g2
S'3026'
p1597
sg4
L1449729977080L
sg5
g66
sg7
S'##COMMON_io.rong.push.PushClient:Handler'
p1598
sg9
S' 3047'
p1599
sg11
S'CONNACK\n'
p1600
sa(dp1601
g2
S'3026'
p1602
sg4
L1449729977080L
sg5
g66
sg7
S'PushService'
p1603
sg9
S' 3047'
p1604
sg11
S'The client connect status is:CONNACK\n'
p1605
sa(dp1606
g2
S'3026'
p1607
sg4
L1449729977080L
sg5
g15
sg7
S'PowerManager'
p1608
sg9
S' 3045'
p1609
sg11
S'wake:com.xdf.ucan/io.rong.push.PushService [release]\n'
p1610
sa(dp1611
g2
S'3026'
p1612
sg4
L1449729977080L
sg5
g66
sg7
S'##COMMON_io.rong.push.PushService:Connect'
p1613
sg9
S' 3047'
p1614
sg11
S'Client connect successfully.So start the heart beat.\n'
p1615
sa(dp1616
g2
S'3026'
p1617
sg4
L1449729977090L
sg5
g66
sg7
S'##COMMON_io.rong.push.PushContext:Heartbeat'
p1618
sg9
S' 3047'
p1619
sg11
S'start_next\n'
p1620
sa(dp1621
g2
S'3026'
p1622
sg4
L1449729979010L
sg5
g66
sg7
S'##COMMON_io.rong.push.PushReceiver:Action'
p1623
sg9
S' 3026'
p1624
sg11
S'io.rong.push.Connect\n'
p1625
sa(dp1626
g2
S'3026'
p1627
sg4
L1449729979010L
sg5
g15
sg7
S'PowerManager'
p1628
sg9
S' 3026'
p1629
sg11
S'wake:com.xdf.ucan/io.rong.push.PushService [acquire]\n'
p1630
sa(dp1631
g2
S'3026'
p1632
sg4
L1449729979020L
sg5
g66
sg7
S'##COMMON_io.rong.push.PushReceiver:ACTION_CONNECT'
p1633
sg9
S' 3026'
p1634
sg11
S'version is null, run connect\n'
p1635
sa(dp1636
g2
S'3026'
p1637
sg4
L1449729979020L
sg5
g66
sg7
S'##COMMON_io.rong.push.PushService:CONNECT_CHECK'
p1638
sg9
S' 3045'
p1639
sg11
S'getRunningPushServiceVersion null\n'
p1640
sa(dp1641
g2
S'3026'
p1642
sg4
L1449729979020L
sg5
g66
sg7
S'##COMMON_io.rong.push.PushService.PushHandler:PushHandler'
p1643
sg9
S' 3045'
p1644
sg11
S'ConnectToServer,isClientConnected = true\n'
p1645
sa(dp1646
g2
S'2960'
p1647
sg4
L1449729984940L
sg5
g15
sg7
S'cn.edu.nju.ise.kikandroid'
p1648
sg9
S' 3016'
p1649
sg11
S'Screenshot:1449729984955\n'
p1650
sa(dp1651
g2
S'2960'
p1652
sg4
L1449729985000L
sg5
g15
sg7
S'dalvikvm'
p1653
sg9
S' 2960'
p1654
sg11
S'GC_FOR_ALLOC freed 4726K, 31% free 11409K/16327K, paused 22ms, total 24ms\n'
p1655
sa(dp1656
g2
S'2960'
p1657
sg4
L1449729985040L
sg5
g15
sg7
S'dalvikvm'
p1658
sg9
S' 2963'
p1659
sg11
S'GC_CONCURRENT freed 16K, 21% free 12994K/16327K, paused 12ms+2ms, total 45ms\n'
p1660
sa(dp1661
g2
S'2960'
p1662
sg4
L1449729985100L
sg5
g15
sg7
S'dalvikvm'
p1663
sg9
S' 2963'
p1664
sg11
S'GC_CONCURRENT freed 1603K, 21% free 12999K/16327K, paused 4ms+2ms, total 42ms\n'
p1665
sa(dp1666
g2
S'2960'
p1667
sg4
L1449730000760L
sg5
g15
sg7
S'long    '
p1668
sg9
S' 2960'
p1669
sg11
S'cancle request\xef\xbc\x9acom.xdf.ucan.ui.login.RegActivity\n'
p1670
sa(dp1671
g2
S'2960'
p1672
sg4
L1449730013890L
sg5
g15
sg7
S'cn.edu.nju.ise.kikandroid'
p1673
sg9
S' 3016'
p1674
sg11
S'Screenshot:1449730013908\n'
p1675
sa(dp1676
g2
S'2960'
p1677
sg4
L1449730013960L
sg5
g15
sg7
S'dalvikvm'
p1678
sg9
S' 2960'
p1679
sg11
S'GC_FOR_ALLOC freed 1903K, 30% free 11471K/16327K, paused 25ms, total 30ms\n'
p1680
sa(dp1681
g2
S'2960'
p1682
sg4
L1449730014020L
sg5
g15
sg7
S'dalvikvm'
p1683
sg9
S' 2963'
p1684
sg11
S'GC_CONCURRENT freed 66K, 21% free 13006K/16327K, paused 12ms+2ms, total 63ms\n'
p1685
sa(dp1686
g2
S'2960'
p1687
sg4
L1449730014070L
sg5
g15
sg7
S'dalvikvm'
p1688
sg9
S' 2963'
p1689
sg11
S'GC_CONCURRENT freed 1602K, 21% free 13011K/16327K, paused 2ms+4ms, total 29ms\n'
p1690
sa(dp1691
g2
S'2960'
p1692
sg4
L1449730022490L
sg5
g15
sg7
S'long    '
p1693
sg9
S' 2960'
p1694
sg11
S'cancle request\xef\xbc\x9acom.xdf.ucan.ui.login.ForgetActivity\n'
p1695
sa(dp1696
g2
S'2960'
p1697
sg4
L1449730033830L
sg5
g15
sg7
S'cn.edu.nju.ise.kikandroid'
p1698
sg9
S' 3016'
p1699
sg11
S'Screenshot:1449730033848\n'
p1700
sa(dp1701
g2
S'2960'
p1702
sg4
L1449730033900L
sg5
g15
sg7
S'dalvikvm'
p1703
sg9
S' 2960'
p1704
sg11
S'GC_FOR_ALLOC freed 1827K, 31% free 11413K/16327K, paused 33ms, total 35ms\n'
p1705
sa(dp1706
g2
S'2960'
p1707
sg4
L1449730033970L
sg5
g15
sg7
S'dalvikvm'
p1708
sg9
S' 2963'
p1709
sg11
S'GC_CONCURRENT freed 12K, 21% free 13002K/16327K, paused 14ms+14ms, total 67ms\n'
p1710
sa(dp1711
g2
S'2960'
p1712
sg4
L1449730034010L
sg5
g15
sg7
S'dalvikvm'
p1713
sg9
S' 2963'
p1714
sg11
S'GC_CONCURRENT freed 1602K, 21% free 13007K/16327K, paused 3ms+3ms, total 32ms\n'
p1715
sa(dp1716
g2
S'2960'
p1717
sg4
L1449730035180L
sg5
g15
sg7
S'http    '
p1718
sg9
S' 2960'
p1719
sg11
S'\xe8\xaf\xb7\xe6\xb1\x82\xe7\x9a\x84\xe5\x9c\xb0\xe5\x9d\x80\xef\xbc\x9ahttp://passport.xdf.cn/apis/usersv2.ashx\n'
p1720
sa(dp1721
g2
S'2960'
p1722
sg4
L1449730035180L
sg5
g15
sg7
S'http    '
p1723
sg9
S' 2960'
p1724
sg11
S'\xe8\xaf\xb7\xe6\xb1\x82\xe7\x9a\x84\xe5\x8f\x82\xe6\x95\xb0\xef\xbc\x9amethod=CheckLoginV3App&appid=90116&encodeUser=xmherCBYXDN61uAqNytL8w==&encodePwd=NccAIMfVSflC57NBCz1kzQ==&guid=2b1f8ee0-8856-440b-a7e3-abea4669df51&sign=D9A7EA37A9E6C209E41BC30E28EEBFAC&appOption=1&accessTokenOption=1\n'
p1725
sa(dp1726
g2
S'2960'
p1727
sg4
L1449730035180L
sg5
g15
sg7
S'long    '
p1728
sg9
S' 2960'
p1729
sg11
S'context.getClass().getName():com.xdf.ucan.ui.login.LoginActivity\n'
p1730
sa(dp1731
g2
S'2960'
p1732
sg4
L1449730038600L
sg5
g563
sg7
S'AsyncHttpRH'
p1733
sg9
S' 2960'
p1734
sg11
S'Progress 462 from 462 (100%)\n'
p1735
sa(dp1736
g2
S'2960'
p1737
sg4
L1449730038600L
sg5
g15
sg7
S'http    '
p1738
sg9
S' 2960'
p1739
sg11
S'\xe8\xbf\x94\xe5\x9b\x9e\xe7\x9a\x84\xe7\xbb\x93\xe6\x9e\x9c\xef\xbc\x9a{"Status":1,"Data":"{\\"UserId\\":\\"xdf004483209\\",\\"NickName\\":\\"151210140331126_v\\",\\"HideMobile\\":\\"131****8803\\",\\"HideEmail\\":\\"151****4033112638586_v@v.com\\",\\"Mobile\\":\\"13182898803\\",\\"Email\\":\\"15121014033112638586_v@v.com\\",\\"LoginToken\\":\\"86f86315-f643-430b-8811-030dd9f0f8b1\\",\\"Sign\\":\\"7245FB45DC1E5832D5C1F238C2F9B910\\",\\"AccessToken\\":\\"86f86315-f643-430b-8811-030dd9f0f8b1\\",\\"AccessTokenExpireTime\\":\\"2016-01-29 04:46:56\\"}","Message":"\xe6\x88\x90\xe5\x8a\x9f"}\n'
p1740
sa(dp1741
g2
S'2960'
p1742
sg4
L1449730038600L
sg5
g15
sg7
S'long    '
p1743
sg9
S' 2960'
p1744
sg11
S'response:{"Status":1,"Data":"{\\"UserId\\":\\"xdf004483209\\",\\"NickName\\":\\"151210140331126_v\\",\\"HideMobile\\":\\"131****8803\\",\\"HideEmail\\":\\"151****4033112638586_v@v.com\\",\\"Mobile\\":\\"13182898803\\",\\"Email\\":\\"15121014033112638586_v@v.com\\",\\"LoginToken\\":\\"86f86315-f643-430b-8811-030dd9f0f8b1\\",\\"Sign\\":\\"7245FB45DC1E5832D5C1F238C2F9B910\\",\\"AccessToken\\":\\"86f86315-f643-430b-8811-030dd9f0f8b1\\",\\"AccessTokenExpireTime\\":\\"2016-01-29 04:46:56\\"}","Message":"\xe6\x88\x90\xe5\x8a\x9f"}\n'
p1745
sa(dp1746
g2
S'2960'
p1747
sg4
L1449730038620L
sg5
g15
sg7
S'long    '
p1748
sg9
S' 2960'
p1749
sg11
S'{"UserId":"xdf004483209","NickName":"151210140331126_v","HideMobile":"131****8803","HideEmail":"151****4033112638586_v@v.com","Mobile":"13182898803","Email":"15121014033112638586_v@v.com","LoginToken":"86f86315-f643-430b-8811-030dd9f0f8b1","Sign":"7245FB45DC1E5832D5C1F238C2F9B910","AccessToken":"86f86315-f643-430b-8811-030dd9f0f8b1","AccessTokenExpireTime":"2016-01-29 04:46:56"}\n'
p1750
sa(dp1751
g2
S'2960'
p1752
sg4
L1449730038650L
sg5
g15
sg7
S'long    '
p1753
sg9
S' 2960'
p1754
sg11
S'DATABASE_NAME:xdf004483209.db\n'
p1755
sa(dp1756
g2
S'2960'
p1757
sg4
L1449730038710L
sg5
g15
sg7
S'long    '
p1758
sg9
S' 2960'
p1759
sg11
S'prestr\xef\xbc\x9aappid=5004&method=GetUserTypeByUserId&userid=xdf004483209&AppKey=v5key_my$cj_cnQcm\n'
p1760
sa(dp1761
g2
S'2960'
p1762
sg4
L1449730038710L
sg5
g15
sg7
S'http    '
p1763
sg9
S' 2960'
p1764
sg11
S'\xe8\xaf\xb7\xe6\xb1\x82\xe7\x9a\x84\xe5\x9c\xb0\xe5\x9d\x80\xef\xbc\x9ahttp://upoc.xdf.cn/User\n'
p1765
sa(dp1766
g2
S'2960'
p1767
sg4
L1449730038710L
sg5
g15
sg7
S'http    '
p1768
sg9
S' 2960'
p1769
sg11
S'\xe8\xaf\xb7\xe6\xb1\x82\xe7\x9a\x84\xe5\x8f\x82\xe6\x95\xb0\xef\xbc\x9amethod=GetUserTypeByUserId&appid=5004&userid=xdf004483209&sign=0D8B07435596E3449CCD1AAAEC430042\n'
p1770
sa(dp1771
g2
S'2960'
p1772
sg4
L1449730038710L
sg5
g15
sg7
S'long    '
p1773
sg9
S' 2960'
p1774
sg11
S'context.getClass().getName():com.xdf.ucan.ui.login.LoginActivity\n'
p1775
sa(dp1776
g2
S'3026'
p1777
sg4
L1449730039080L
sg5
g15
sg7
S'PowerManager'
p1778
sg9
S' 3026'
p1779
sg11
S'wake:com.xdf.ucan/io.rong.push.PushService [release]\n'
p1780
sa(dp1781
g2
S'2960'
p1782
sg4
L1449730046010L
sg5
g563
sg7
S'AsyncHttpRH'
p1783
sg9
S' 2960'
p1784
sg11
S'Progress 70 from 70 (100%)\n'
p1785
sa(dp1786
g2
S'2960'
p1787
sg4
L1449730046010L
sg5
g15
sg7
S'http    '
p1788
sg9
S' 2960'
p1789
sg11
S'\xe8\xbf\x94\xe5\x9b\x9e\xe7\x9a\x84\xe7\xbb\x93\xe6\x9e\x9c\xef\xbc\x9a{\n  "State": 1,\n  "Data": null,\n  "Error": "",\n  "DataCount": 0\n'
p1790
sa(dp1791
g2
S'2960'
p1792
sg4
L1449730046170L
sg5
g15
sg7
S'http    '
p1793
sg9
S' 2960'
p1794
sg11
S'\xe8\xaf\xb7\xe6\xb1\x82\xe7\x9a\x84\xe5\x9c\xb0\xe5\x9d\x80\xef\xbc\x9ahttp://ims.xdf.cn/imserver/student/getmyclassmate.do\n'
p1795
sa(dp1796
g2
S'2960'
p1797
sg4
L1449730046170L
sg5
g15
sg7
S'http    '
p1798
sg9
S' 2960'
p1799
sg11
S'\xe8\xaf\xb7\xe6\xb1\x82\xe7\x9a\x84\xe5\x8f\x82\xe6\x95\xb0\xef\xbc\x9a\n'
p1800
sa(dp1801
g2
S'2960'
p1802
sg4
L1449730046170L
sg5
g15
sg7
S'long    '
p1803
sg9
S' 2960'
p1804
sg11
S'context.getClass().getName():com.xdf.ucan.MainActivity\n'
p1805
sa(dp1806
g2
S'2960'
p1807
sg4
L1449730046170L
sg5
g15
sg7
S'http    '
p1808
sg9
S' 2960'
p1809
sg11
S'\xe8\xaf\xb7\xe6\xb1\x82\xe7\x9a\x84\xe5\x9c\xb0\xe5\x9d\x80\xef\xbc\x9ahttp://my.xdf.cn/API_User/avatar?\n'
p1810
sa(dp1811
g2
S'2960'
p1812
sg4
L1449730046170L
sg5
g15
sg7
S'http    '
p1813
sg9
S' 2960'
p1814
sg11
S'\xe8\xaf\xb7\xe6\xb1\x82\xe7\x9a\x84\xe5\x8f\x82\xe6\x95\xb0\xef\xbc\x9auserId=xdf004483209&size=big\n'
p1815
sa(dp1816
g2
S'2960'
p1817
sg4
L1449730046180L
sg5
g15
sg7
S'http    '
p1818
sg9
S' 2960'
p1819
sg11
S'\xe8\xaf\xb7\xe6\xb1\x82\xe7\x9a\x84\xe5\x9c\xb0\xe5\x9d\x80\xef\xbc\x9ahttp://ims.xdf.cn/imserver/appversion/getversion.do\n'
p1820
sa(dp1821
g2
S'2960'
p1822
sg4
L1449730046180L
sg5
g15
sg7
S'http    '
p1823
sg9
S' 2960'
p1824
sg11
S'\xe8\xaf\xb7\xe6\xb1\x82\xe7\x9a\x84\xe5\x8f\x82\xe6\x95\xb0\xef\xbc\x9aappCode=upoc_student&osType=2&appVersionResultType=1\n'
p1825
sa(dp1826
g2
S'2960'
p1827
sg4
L1449730046180L
sg5
g15
sg7
S'long    '
p1828
sg9
S' 2960'
p1829
sg11
S'context.getClass().getName():com.xdf.ucan.MainActivity\n'
p1830
sa(dp1831
g2
S'2960'
p1832
sg4
L1449730046240L
sg5
g15
sg7
S'PullToRefresh'
p1833
sg9
S' 2960'
p1834
sg11
S'Setting Padding. L: 0, T: 0, R: 0, B: 0\n'
p1835
sa(dp1836
g2
S'2960'
p1837
sg4
L1449730046270L
sg5
g15
sg7
S'PullToRefresh'
p1838
sg9
S' 2960'
p1839
sg11
S'addView: LinearLayout\n'
p1840
sa(dp1841
g2
S'2960'
p1842
sg4
L1449730046340L
sg5
g15
sg7
S'dalvikvm'
p1843
sg9
S' 2963'
p1844
sg11
S'GC_CONCURRENT freed 2525K, 27% free 12013K/16327K, paused 13ms+13ms, total 53ms\n'
p1845
sa(dp1846
g2
S'2960'
p1847
sg4
L1449730046380L
sg5
g15
sg7
S'long    '
p1848
sg9
S' 2960'
p1849
sg11
S'prestr\xef\xbc\x9aappid=5004&examenddate=2015-12-10 14:47:26.392&examstartdate=1970-01-01 08:00:00.0&method=GetLatestResourceVideoExamStatistics&resourceenddate=2015-12-10 14:47:26.358&resourcestartdate=2015-12-10 14:39:40.554&schoolid=0&userid=xdf004483209&videoenddate=2015-12-10 14:47:26.376&videostartdate=2015-12-10 14:26:00.729&AppKey=v5key_my$cj_cnQcm\n'
p1850
sa(dp1851
g2
S'2960'
p1852
sg4
L1449730046380L
sg5
g15
sg7
S'http    '
p1853
sg9
S' 2960'
p1854
sg11
S'\xe8\xaf\xb7\xe6\xb1\x82\xe7\x9a\x84\xe5\x9c\xb0\xe5\x9d\x80\xef\xbc\x9ahttp://upoc.xdf.cn/index\n'
p1855
sa(dp1856
g2
S'2960'
p1857
sg4
L1449730046380L
sg5
g15
sg7
S'http    '
p1858
sg9
S' 2960'
p1859
sg11
S'\xe8\xaf\xb7\xe6\xb1\x82\xe7\x9a\x84\xe5\x8f\x82\xe6\x95\xb0\xef\xbc\x9amethod=GetLatestResourceVideoExamStatistics&userid=xdf004483209&schoolid=0&resourcestartdate=2015-12-10 14:39:40.554&resourceenddate=2015-12-10 14:47:26.358&videostartdate=2015-12-10 14:26:00.729&videoenddate=2015-12-10 14:47:26.376&examstartdate=1970-01-01 08:00:00.0&examenddate=2015-12-10 14:47:26.392&appid=5004&sign=989107A67D805008EE55EF9DC065FBA4\n'
p1860
sa(dp1861
g2
S'2960'
p1862
sg4
L1449730046380L
sg5
g15
sg7
S'long    '
p1863
sg9
S' 2960'
p1864
sg11
S'context.getClass().getName():com.xdf.ucan.MainActivity\n'
p1865
sa(dp1866
g2
S'2960'
p1867
sg4
L1449730046470L
sg5
g15
sg7
S'PullToRefresh'
p1868
sg9
S' 2960'
p1869
sg11
S'onSizeChanged. W: 480, H: 678\n'
p1870
sa(dp1871
g2
S'2960'
p1872
sg4
L1449730046470L
sg5
g15
sg7
S'PullToRefresh'
p1873
sg9
S' 2960'
p1874
sg11
S'Setting Padding. L: 0, T: -406, R: 0, B: 0\n'
p1875
sa(dp1876
g2
S'2960'
p1877
sg4
L1449730046620L
sg5
g563
sg7
S'AsyncHttpRH'
p1878
sg9
S' 2960'
p1879
sg11
S'Progress 68 from 68 (100%)\n'
p1880
sa(dp1881
g2
S'2960'
p1882
sg4
L1449730046620L
sg5
g15
sg7
S'http    '
p1883
sg9
S' 2960'
p1884
sg11
S'\xe8\xbf\x94\xe5\x9b\x9e\xe7\x9a\x84\xe7\xbb\x93\xe6\x9e\x9c\xef\xbc\x9a{\n  "State": 1,\n  "Data": [],\n  "Error": "",\n  "DataCount": 0\n'
p1885
sa(dp1886
g2
S'2960'
p1887
sg4
L1449730046620L
sg5
g15
sg7
S'long    '
p1888
sg9
S' 2960'
p1889
sg11
S'conunt:{\n  "State": 1,\n  "Data": [],\n  "Error": "",\n  "DataCount": 0\n'
p1890
sa(dp1891
g2
S'2960'
p1892
sg4
L1449730046650L
sg5
g66
sg7
S'##KIT_java.lang.Class:onEventBackgroundThread'
p1893
sg9
S' 3000'
p1894
sg11
S'user name = \xe7\xb3\xbb\xe7\xbb\x9f\xe6\xb6\x88\xe6\x81\xaf\n'
p1895
sa(dp1896
g2
S'2960'
p1897
sg4
L1449730046860L
sg5
g15
sg7
S'long    '
p1898
sg9
S' 2960'
p1899
sg11
S'cancle request\xef\xbc\x9acom.xdf.ucan.ui.login.LoginActivity\n'
p1900
sa(dp1901
g2
S'2960'
p1902
sg4
L1449730046880L
sg5
g6
sg7
S'WindowManager'
p1903
sg9
S' 2960'
p1904
sg11
S'Activity com.xdf.ucan.ui.login.LoginActivity has leaked window com.android.internal.policy.impl.PhoneWindow$DecorView@418312e0 that was originally added here\nandroid.view.WindowLeaked: Activity com.xdf.ucan.ui.login.LoginActivity has leaked window com.android.internal.policy.impl.PhoneWindow$DecorView@418312e0 that was originally added here\n\tat android.view.ViewRootImpl.<init>(ViewRootImpl.java:382)\n\tat android.view.WindowManagerImpl.addView(WindowManagerImpl.java:292)\n\tat android.view.WindowManagerImpl.addView(WindowManagerImpl.java:224)\n\tat android.view.WindowManagerImpl$CompatModeWrapper.addView(WindowManagerImpl.java:149)\n\tat android.view.Window$LocalWindowManager.addView(Window.java:547)\n\tat android.app.Dialog.show(Dialog.java:277)\n\tat com.xdf.ucan.BaseActivity.showLoadingDialog(BaseActivity.java:58)\n\tat com.xdf.ucan.ui.login.LoginActivity.access$0(LoginActivity.java:1)\n\tat com.xdf.ucan.ui.login.LoginActivity$1.onClick(LoginActivity.java:116)\n\tat android.view.View.performClick(View.java:4084)\n\tat android.view.View$PerformClick.run(View.java:16987)\n\tat android.os.Handler.handleCallback(Handler.java:615)\n\tat android.os.Handler.dispatchMessage(Handler.java:92)\n\tat android.os.Looper.loop(Looper.java:137)\n\tat android.app.ActivityThread.main(ActivityThread.java:4794)\n\tat java.lang.reflect.Method.invokeNative(Native Method)\n\tat java.lang.reflect.Method.invoke(Method.java:511)\n\tat com.android.internal.os.ZygoteInit$MethodAndArgsCaller.run(ZygoteInit.java:789)\n\tat com.android.internal.os.ZygoteInit.main(ZygoteInit.java:556)\n\tat dalvik.system.NativeStart.main(Native Method)\n'
p1905
sa(dp1906
g2
S'2960'
p1907
sg4
L1449730047210L
sg5
g6
sg7
S'##KIT_io.rong.imkit.logic.MessageCounterLogic:registerMessageCounter'
p1908
sg9
S' 2960'
p1909
sg11
S'RongIM.getInstance() :1\n'
p1910
sa(dp1911
g2
S'2960'
p1912
sg4
L1449730047210L
sg5
g6
sg7
S'##KIT_io.rong.imkit.logic.MessageCounterLogic:registerMessageCounter'
p1913
sg9
S' 2960'
p1914
sg11
S'RongIM.getInstance() is null\n'
p1915
sa(dp1916
g2
S'2960'
p1917
sg4
L1449730049320L
sg5
g563
sg7
S'AsyncHttpRH'
p1918
sg9
S' 2960'
p1919
sg11
S'Progress 87 from 1 (8700%)\n'
p1920
sa(dp1921
g2
S'2960'
p1922
sg4
L1449730049340L
sg5
g15
sg7
S'http    '
p1923
sg9
S' 2960'
p1924
sg11
S'\xe8\xbf\x94\xe5\x9b\x9e\xe7\x9a\x84\xe7\xbb\x93\xe6\x9e\x9c\xef\xbc\x9a{"message":"\xe8\x8e\xb7\xe5\x8f\x96\xe6\x88\x91\xe7\x9a\x84\xe5\x90\x8c\xe5\xad\xa6\xe6\x88\x90\xe5\x8a\x9f\xef\xbc\x81","status":"1","data":null,"date":1449730027621}\n'
p1925
sa(dp1926
g2
S'2960'
p1927
sg4
L1449730049340L
sg5
g66
sg7
S'System.out'
p1928
sg9
S' 2960'
p1929
sg11
S'res:{"message":"\xe8\x8e\xb7\xe5\x8f\x96\xe6\x88\x91\xe7\x9a\x84\xe5\x90\x8c\xe5\xad\xa6\xe6\x88\x90\xe5\x8a\x9f\xef\xbc\x81","status":"1","data":null,"date":1449730027621}\n'
p1930
sa(dp1931
g2
S'2960'
p1932
sg4
L1449730053340L
sg5
g563
sg7
S'AsyncHttpRH'
p1933
sg9
S' 2960'
p1934
sg11
S'Progress 499 from 1 (49900%)\n'
p1935
sa(dp1936
g2
S'2960'
p1937
sg4
L1449730053340L
sg5
g15
sg7
S'http    '
p1938
sg9
S' 2960'
p1939
sg11
S'\xe8\xbf\x94\xe5\x9b\x9e\xe7\x9a\x84\xe7\xbb\x93\xe6\x9e\x9c\xef\xbc\x9a{"message":"\xe8\x8e\xb7\xe5\x8f\x96\xe5\xba\x94\xe7\x94\xa8\xe7\x89\x88\xe6\x9c\xac\xe5\x8f\xb7\xe6\x88\x90\xe5\x8a\x9f\xef\xbc\x81","status":"1","data":[{"id":2,"appCode":"upoc_student","appName":"\xe4\xbc\x98\xe6\x92\xad\xe8\xaf\xbeANDROID\xe5\xad\xa6\xe7\x94\x9f\xe7\xab\xaf","osType":"2","publishDate":1442541611000,"url":"http://www.pgyer.com/qe34","version":"2.1.0","updateType":"0","buildCode":"35","description":"\xe2\x80\x9c\xe5\x93\x92\xe5\x93\x92\xe5\x93\x92\xe2\x80\x9d \xe8\xb5\x84\xe6\x96\x99\xe8\xa7\x82\xe7\x9c\x8b\xe4\xb8\x8d\xe8\xbf\x87\xe7\x98\xbe\xef\xbc\x9f \xe5\x9c\xb0\xe9\x93\x81\xef\xbc\x9f\xe6\xb2\xa1\xe7\xbd\x91\xef\xbc\x9f\xe4\xbc\x98\xe6\x92\xad\xe8\xaf\xbe\xe7\xbc\x93\xe5\xad\x98\xe7\xa6\xbb\xe7\xba\xbf\xe6\x96\x87\xe4\xbb\xb6\xef\xbc\x8c\xe6\xb8\xa9\xe6\x9a\x96\xe4\xbd\xa0\xe6\x95\xb4\xe4\xb8\xaa\xe5\x86\xac\xe5\xa4\xa9\xef\xbc\x8c\xe5\xbf\xab\xe5\x8e\xbb\xe4\xbd\x93\xe9\xaa\x8c\xe5\x90\xa7\xef\xbc\x81","noticeDate":1448270388000,"noticeUserType":"1","noticeFlag":"1"}],"date":1449730031631}\n'
p1940
sa(dp1941
g2
S'2960'
p1942
sg4
L1449730053340L
sg5
g66
sg7
S'System.out'
p1943
sg9
S' 2960'
p1944
sg11
S'res:{"message":"\xe8\x8e\xb7\xe5\x8f\x96\xe5\xba\x94\xe7\x94\xa8\xe7\x89\x88\xe6\x9c\xac\xe5\x8f\xb7\xe6\x88\x90\xe5\x8a\x9f\xef\xbc\x81","status":"1","data":[{"id":2,"appCode":"upoc_student","appName":"\xe4\xbc\x98\xe6\x92\xad\xe8\xaf\xbeANDROID\xe5\xad\xa6\xe7\x94\x9f\xe7\xab\xaf","osType":"2","publishDate":1442541611000,"url":"http://www.pgyer.com/qe34","version":"2.1.0","updateType":"0","buildCode":"35","description":"\xe2\x80\x9c\xe5\x93\x92\xe5\x93\x92\xe5\x93\x92\xe2\x80\x9d \xe8\xb5\x84\xe6\x96\x99\xe8\xa7\x82\xe7\x9c\x8b\xe4\xb8\x8d\xe8\xbf\x87\xe7\x98\xbe\xef\xbc\x9f \xe5\x9c\xb0\xe9\x93\x81\xef\xbc\x9f\xe6\xb2\xa1\xe7\xbd\x91\xef\xbc\x9f\xe4\xbc\x98\xe6\x92\xad\xe8\xaf\xbe\xe7\xbc\x93\xe5\xad\x98\xe7\xa6\xbb\xe7\xba\xbf\xe6\x96\x87\xe4\xbb\xb6\xef\xbc\x8c\xe6\xb8\xa9\xe6\x9a\x96\xe4\xbd\xa0\xe6\x95\xb4\xe4\xb8\xaa\xe5\x86\xac\xe5\xa4\xa9\xef\xbc\x8c\xe5\xbf\xab\xe5\x8e\xbb\xe4\xbd\x93\xe9\xaa\x8c\xe5\x90\xa7\xef\xbc\x81","noticeDate":1448270388000,"noticeUserType":"1","noticeFlag":"1"}],"date":1449730031631}\n'
p1945
sa(dp1946
g2
S'2960'
p1947
sg4
L1449730053340L
sg5
g563
sg7
S'AsyncHttpRH'
p1948
sg9
S' 2960'
p1949
sg11
S'Progress 44 from 1 (4400%)\n'
p1950
sa(dp1951
g2
S'2960'
p1952
sg4
L1449730053340L
sg5
g66
sg7
S'System.out'
p1953
sg9
S' 2960'
p1954
sg11
S'res:http://my.xdf.cn/public/images/User/_Big.jpg\n'
p1955
sa(dp1956
g2
S'2960'
p1957
sg4
L1449730053870L
sg5
g66
sg7
S'##KIT_java.lang.Class:onEventBackgroundThread'
p1958
sg9
S' 3000'
p1959
sg11
S'user name = 13182898803\n'
p1960
sa(dp1961
g2
S'2960'
p1962
sg4
L1449730061210L
sg5
g15
sg7
S'PullToRefresh'
p1963
sg9
S' 2960'
p1964
sg11
S'onSizeChanged. W: 480, H: 677\n'
p1965
sa(dp1966
g2
S'2960'
p1967
sg4
L1449730061210L
sg5
g15
sg7
S'PullToRefresh'
p1968
sg9
S' 2960'
p1969
sg11
S'Setting Padding. L: 0, T: -406, R: 0, B: 0\n'
p1970
sa(dp1971
g2
S'2960'
p1972
sg4
L1449730061310L
sg5
g15
sg7
S'http    '
p1973
sg9
S' 2960'
p1974
sg11
S'\xe8\xaf\xb7\xe6\xb1\x82\xe7\x9a\x84\xe5\x9c\xb0\xe5\x9d\x80\xef\xbc\x9ahttp://my.xdf.cn/API_User/avatar?\n'
p1975
sa(dp1976
g2
S'2960'
p1977
sg4
L1449730061310L
sg5
g15
sg7
S'http    '
p1978
sg9
S' 2960'
p1979
sg11
S'\xe8\xaf\xb7\xe6\xb1\x82\xe7\x9a\x84\xe5\x8f\x82\xe6\x95\xb0\xef\xbc\x9auserId=xdf004483209&size=big\n'
p1980
sa(dp1981
g2
S'2960'
p1982
sg4
L1449730061310L
sg5
g15
sg7
S'long    '
p1983
sg9
S' 2960'
p1984
sg11
S'context.getClass().getName():com.xdf.ucan.MainActivity\n'
p1985
sa(dp1986
g2
S'2960'
p1987
sg4
L1449730061440L
sg5
g563
sg7
S'AsyncHttpRH'
p1988
sg9
S' 2960'
p1989
sg11
S'Progress 44 from 1 (4400%)\n'
p1990
sa(dp1991
g2
S'2960'
p1992
sg4
L1449730061450L
sg5
g15
sg7
S'ImageLoader'
p1993
sg9
S' 3148'
p1994
sg11
S'Start display image task [http://my.xdf.cn/public/images/User/_Big.jpg_105x105]\n'
p1995
sa(dp1996
g2
S'2960'
p1997
sg4
L1449730061460L
sg5
g15
sg7
S'ImageLoader'
p1998
sg9
S' 3148'
p1999
sg11
S'Load image from disk cache [http://my.xdf.cn/public/images/User/_Big.jpg_105x105]\n'
p2000
sa(dp2001
g2
S'2960'
p2002
sg4
L1449730061500L
sg5
g15
sg7
S'ImageLoader'
p2003
sg9
S' 3148'
p2004
sg11
S'Cache image in memory [http://my.xdf.cn/public/images/User/_Big.jpg_105x105]\n'
p2005
sa(dp2006
g2
S'2960'
p2007
sg4
L1449730061500L
sg5
g15
sg7
S'ImageLoader'
p2008
sg9
S' 2960'
p2009
sg11
S'Display image in ImageAware (loaded from DISC_CACHE) [http://my.xdf.cn/public/images/User/_Big.jpg_105x105]\n'
p2010
sa(dp2011
g2
S'2960'
p2012
sg4
L1449730062280L
sg5
g6
sg7
S'        '
p2013
sg9
S' 3151'
p2014
sg11
S'generic statfs: /storage/sdcard0/UPOC/icon , size: 2893\n'
p2015
sa(dp2016
g2
S'2960'
p2017
sg4
L1449730062290L
sg5
g15
sg7
S'ImageLoader'
p2018
sg9
S' 3152'
p2019
sg11
S'Start display image task [http://my.xdf.cn/public/images/User/_Big.jpg_60x60]\n'
p2020
sa(dp2021
g2
S'2960'
p2022
sg4
L1449730062290L
sg5
g15
sg7
S'ImageLoader'
p2023
sg9
S' 3152'
p2024
sg11
S'Load image from disk cache [http://my.xdf.cn/public/images/User/_Big.jpg_60x60]\n'
p2025
sa(dp2026
g2
S'2960'
p2027
sg4
L1449730062330L
sg5
g15
sg7
S'BitmapCache.initDiskCache(L:101)'
p2028
sg9
S' 3151'
p2029
sg11
S'create disk cache success\n'
p2030
sa(dp2031
g2
S'2960'
p2032
sg4
L1449730062330L
sg5
g15
sg7
S'ImageLoader'
p2033
sg9
S' 3152'
p2034
sg11
S'Cache image in memory [http://my.xdf.cn/public/images/User/_Big.jpg_60x60]\n'
p2035
sa(dp2036
g2
S'2960'
p2037
sg4
L1449730062370L
sg5
g15
sg7
S'dalvikvm'
p2038
sg9
S' 2963'
p2039
sg11
S'GC_CONCURRENT freed 920K, 25% free 12366K/16327K, paused 12ms+8ms, total 75ms\n'
p2040
sa(dp2041
g2
S'2960'
p2042
sg4
L1449730062420L
sg5
g15
sg7
S'ImageLoader'
p2043
sg9
S' 2960'
p2044
sg11
S'Display image in ImageAware (loaded from DISC_CACHE) [http://my.xdf.cn/public/images/User/_Big.jpg_60x60]\n'
p2045
sa(dp2046
g2
S'2960'
p2047
sg4
L1449730067120L
sg5
g15
sg7
S'cn.edu.nju.ise.kikandroid'
p2048
sg9
S' 3016'
p2049
sg11
S'Screenshot:1449730067133\n'
p2050
sa(dp2051
g2
S'2960'
p2052
sg4
L1449730067200L
sg5
g15
sg7
S'dalvikvm'
p2053
sg9
S' 2960'
p2054
sg11
S'GC_FOR_ALLOC freed 189K, 25% free 12281K/16327K, paused 31ms, total 32ms\n'
p2055
sa(dp2056
g2
S'2960'
p2057
sg4
L1449730067250L
sg5
g15
sg7
S'dalvikvm'
p2058
sg9
S' 2963'
p2059
sg11
S'GC_CONCURRENT freed 294K, 17% free 13588K/16327K, paused 22ms+3ms, total 55ms\n'
p2060
sa(dp2061
g2
S'2960'
p2062
sg4
L1449730067250L
sg5
g15
sg7
S'dalvikvm'
p2063
sg9
S' 2960'
p2064
sg11
S'WAIT_FOR_CONCURRENT_GC blocked 0ms\n'
p2065
sa(dp2066
g2
S'2960'
p2067
sg4
L1449730067280L
sg5
g15
sg7
S'dalvikvm'
p2068
sg9
S' 2960'
p2069
sg11
S'GC_FOR_ALLOC freed 0K, 17% free 13588K/16327K, paused 24ms, total 24ms\n'
p2070
sa(dp2071
g2
S'2960'
p2072
sg4
L1449730068320L
sg5
g15
sg7
S'long    '
p2073
sg9
S' 2960'
p2074
sg11
S'onRestart\n'
p2075
sa(dp2076
g2
S'2960'
p2077
sg4
L1449730068320L
sg5
g15
sg7
S'http    '
p2078
sg9
S' 2960'
p2079
sg11
S'\xe8\xaf\xb7\xe6\xb1\x82\xe7\x9a\x84\xe5\x9c\xb0\xe5\x9d\x80\xef\xbc\x9ahttp://ims.xdf.cn/imserver/appversion/getversion.do\n'
p2080
sa(dp2081
g2
S'2960'
p2082
sg4
L1449730068320L
sg5
g15
sg7
S'http    '
p2083
sg9
S' 2960'
p2084
sg11
S'\xe8\xaf\xb7\xe6\xb1\x82\xe7\x9a\x84\xe5\x8f\x82\xe6\x95\xb0\xef\xbc\x9aappCode=upoc_student&osType=2&appVersionResultType=1\n'
p2085
sa(dp2086
g2
S'2960'
p2087
sg4
L1449730068320L
sg5
g15
sg7
S'long    '
p2088
sg9
S' 2960'
p2089
sg11
S'context.getClass().getName():com.xdf.ucan.MainActivity\n'
p2090
sa(dp2091
g2
S'2960'
p2092
sg4
L1449730068360L
sg5
g15
sg7
S'ImageLoader'
p2093
sg9
S' 3170'
p2094
sg11
S'Start display image task [http://my.xdf.cn/public/images/User/_Big.jpg_105x105]\n'
p2095
sa(dp2096
g2
S'2960'
p2097
sg4
L1449730068380L
sg5
g15
sg7
S'ImageLoader'
p2098
sg9
S' 3170'
p2099
sg11
S'Load image from disk cache [http://my.xdf.cn/public/images/User/_Big.jpg_105x105]\n'
p2100
sa(dp2101
g2
S'2960'
p2102
sg4
L1449730068430L
sg5
g15
sg7
S'dalvikvm'
p2103
sg9
S' 2963'
p2104
sg11
S'GC_CONCURRENT freed 3371K, 34% free 12027K/17991K, paused 19ms+17ms, total 98ms\n'
p2105
sa(dp2106
g2
S'2960'
p2107
sg4
L1449730068430L
sg5
g15
sg7
S'ImageLoader'
p2108
sg9
S' 3170'
p2109
sg11
S'Cache image in memory [http://my.xdf.cn/public/images/User/_Big.jpg_105x105]\n'
p2110
sa(dp2111
g2
S'2960'
p2112
sg4
L1449730068440L
sg5
g563
sg7
S'AsyncHttpRH'
p2113
sg9
S' 2960'
p2114
sg11
S'Progress 499 from 1 (49900%)\n'
p2115
sa(dp2116
g2
S'2960'
p2117
sg4
L1449730068440L
sg5
g15
sg7
S'http    '
p2118
sg9
S' 2960'
p2119
sg11
S'\xe8\xbf\x94\xe5\x9b\x9e\xe7\x9a\x84\xe7\xbb\x93\xe6\x9e\x9c\xef\xbc\x9a{"message":"\xe8\x8e\xb7\xe5\x8f\x96\xe5\xba\x94\xe7\x94\xa8\xe7\x89\x88\xe6\x9c\xac\xe5\x8f\xb7\xe6\x88\x90\xe5\x8a\x9f\xef\xbc\x81","status":"1","data":[{"id":2,"appCode":"upoc_student","appName":"\xe4\xbc\x98\xe6\x92\xad\xe8\xaf\xbeANDROID\xe5\xad\xa6\xe7\x94\x9f\xe7\xab\xaf","osType":"2","publishDate":1442541611000,"url":"http://www.pgyer.com/qe34","version":"2.1.0","updateType":"0","buildCode":"35","description":"\xe2\x80\x9c\xe5\x93\x92\xe5\x93\x92\xe5\x93\x92\xe2\x80\x9d \xe8\xb5\x84\xe6\x96\x99\xe8\xa7\x82\xe7\x9c\x8b\xe4\xb8\x8d\xe8\xbf\x87\xe7\x98\xbe\xef\xbc\x9f \xe5\x9c\xb0\xe9\x93\x81\xef\xbc\x9f\xe6\xb2\xa1\xe7\xbd\x91\xef\xbc\x9f\xe4\xbc\x98\xe6\x92\xad\xe8\xaf\xbe\xe7\xbc\x93\xe5\xad\x98\xe7\xa6\xbb\xe7\xba\xbf\xe6\x96\x87\xe4\xbb\xb6\xef\xbc\x8c\xe6\xb8\xa9\xe6\x9a\x96\xe4\xbd\xa0\xe6\x95\xb4\xe4\xb8\xaa\xe5\x86\xac\xe5\xa4\xa9\xef\xbc\x8c\xe5\xbf\xab\xe5\x8e\xbb\xe4\xbd\x93\xe9\xaa\x8c\xe5\x90\xa7\xef\xbc\x81","noticeDate":1448270388000,"noticeUserType":"1","noticeFlag":"1"}],"date":1449730046691}\n'
p2120
sa(dp2121
g2
S'2960'
p2122
sg4
L1449730068440L
sg5
g66
sg7
S'System.out'
p2123
sg9
S' 2960'
p2124
sg11
S'res:{"message":"\xe8\x8e\xb7\xe5\x8f\x96\xe5\xba\x94\xe7\x94\xa8\xe7\x89\x88\xe6\x9c\xac\xe5\x8f\xb7\xe6\x88\x90\xe5\x8a\x9f\xef\xbc\x81","status":"1","data":[{"id":2,"appCode":"upoc_student","appName":"\xe4\xbc\x98\xe6\x92\xad\xe8\xaf\xbeANDROID\xe5\xad\xa6\xe7\x94\x9f\xe7\xab\xaf","osType":"2","publishDate":1442541611000,"url":"http://www.pgyer.com/qe34","version":"2.1.0","updateType":"0","buildCode":"35","description":"\xe2\x80\x9c\xe5\x93\x92\xe5\x93\x92\xe5\x93\x92\xe2\x80\x9d \xe8\xb5\x84\xe6\x96\x99\xe8\xa7\x82\xe7\x9c\x8b\xe4\xb8\x8d\xe8\xbf\x87\xe7\x98\xbe\xef\xbc\x9f \xe5\x9c\xb0\xe9\x93\x81\xef\xbc\x9f\xe6\xb2\xa1\xe7\xbd\x91\xef\xbc\x9f\xe4\xbc\x98\xe6\x92\xad\xe8\xaf\xbe\xe7\xbc\x93\xe5\xad\x98\xe7\xa6\xbb\xe7\xba\xbf\xe6\x96\x87\xe4\xbb\xb6\xef\xbc\x8c\xe6\xb8\xa9\xe6\x9a\x96\xe4\xbd\xa0\xe6\x95\xb4\xe4\xb8\xaa\xe5\x86\xac\xe5\xa4\xa9\xef\xbc\x8c\xe5\xbf\xab\xe5\x8e\xbb\xe4\xbd\x93\xe9\xaa\x8c\xe5\x90\xa7\xef\xbc\x81","noticeDate":1448270388000,"noticeUserType":"1","noticeFlag":"1"}],"date":1449730046691}\n'
p2125
sa(dp2126
g2
S'2960'
p2127
sg4
L1449730068450L
sg5
g15
sg7
S'ImageLoader'
p2128
sg9
S' 2960'
p2129
sg11
S'Display image in ImageAware (loaded from DISC_CACHE) [http://my.xdf.cn/public/images/User/_Big.jpg_105x105]\n'
p2130
sa(dp2131
g2
S'2960'
p2132
sg4
L1449730068720L
sg5
g15
sg7
S'long    '
p2133
sg9
S' 2960'
p2134
sg11
S'cancle request\xef\xbc\x9acom.xdf.ucan.ui.me.MyInfoActivity\n'
p2135
sa(dp2136
g2
S'2960'
p2137
sg4
L1449730124730L
sg5
g15
sg7
S'PullToRefresh'
p2138
sg9
S' 2960'
p2139
sg11
S'Setting Padding. L: 0, T: 0, R: 0, B: 0\n'
p2140
sa(dp2141
g2
S'2960'
p2142
sg4
L1449730124750L
sg5
g15
sg7
S'PullToRefresh'
p2143
sg9
S' 2960'
p2144
sg11
S'addView: LinearLayout\n'
p2145
sa(dp2146
g2
S'2960'
p2147
sg4
L1449730124770L
sg5
g15
sg7
S'long    '
p2148
sg9
S' 2960'
p2149
sg11
S'prestr\xef\xbc\x9aappid=5004&examenddate=2015-12-10 14:48:44.785&examstartdate=1970-01-01 08:00:00.0&method=GetLatestResourceVideoExamStatistics&resourceenddate=2015-12-10 14:48:44.774&resourcestartdate=2015-12-10 14:39:40.554&schoolid=0&userid=xdf004483209&videoenddate=2015-12-10 14:48:44.778&videostartdate=2015-12-10 14:26:00.729&AppKey=v5key_my$cj_cnQcm\n'
p2150
sa(dp2151
g2
S'2960'
p2152
sg4
L1449730124780L
sg5
g15
sg7
S'http    '
p2153
sg9
S' 2960'
p2154
sg11
S'\xe8\xaf\xb7\xe6\xb1\x82\xe7\x9a\x84\xe5\x9c\xb0\xe5\x9d\x80\xef\xbc\x9ahttp://upoc.xdf.cn/index\n'
p2155
sa(dp2156
g2
S'2960'
p2157
sg4
L1449730124780L
sg5
g15
sg7
S'http    '
p2158
sg9
S' 2960'
p2159
sg11
S'\xe8\xaf\xb7\xe6\xb1\x82\xe7\x9a\x84\xe5\x8f\x82\xe6\x95\xb0\xef\xbc\x9amethod=GetLatestResourceVideoExamStatistics&userid=xdf004483209&schoolid=0&resourcestartdate=2015-12-10 14:39:40.554&resourceenddate=2015-12-10 14:48:44.774&videostartdate=2015-12-10 14:26:00.729&videoenddate=2015-12-10 14:48:44.778&examstartdate=1970-01-01 08:00:00.0&examenddate=2015-12-10 14:48:44.785&appid=5004&sign=51BAE8F498A5509CF161C7D6D655407A\n'
p2160
sa(dp2161
g2
S'2960'
p2162
sg4
L1449730124780L
sg5
g15
sg7
S'long    '
p2163
sg9
S' 2960'
p2164
sg11
S'context.getClass().getName():com.xdf.ucan.MainActivity\n'
p2165
sa(dp2166
g2
S'2960'
p2167
sg4
L1449730124820L
sg5
g15
sg7
S'PullToRefresh'
p2168
sg9
S' 2960'
p2169
sg11
S'onSizeChanged. W: 480, H: 678\n'
p2170
sa(dp2171
g2
S'2960'
p2172
sg4
L1449730124820L
sg5
g15
sg7
S'PullToRefresh'
p2173
sg9
S' 2960'
p2174
sg11
S'Setting Padding. L: 0, T: -406, R: 0, B: 0\n'
p2175
sa(dp2176
g2
S'2960'
p2177
sg4
L1449730124860L
sg5
g563
sg7
S'AsyncHttpRH'
p2178
sg9
S' 2960'
p2179
sg11
S'Progress 68 from 68 (100%)\n'
p2180
sa(dp2181
g2
S'2960'
p2182
sg4
L1449730124860L
sg5
g15
sg7
S'http    '
p2183
sg9
S' 2960'
p2184
sg11
S'\xe8\xbf\x94\xe5\x9b\x9e\xe7\x9a\x84\xe7\xbb\x93\xe6\x9e\x9c\xef\xbc\x9a{\n  "State": 1,\n  "Data": [],\n  "Error": "",\n  "DataCount": 0\n'
p2185
sa(dp2186
g2
S'2960'
p2187
sg4
L1449730124860L
sg5
g15
sg7
S'long    '
p2188
sg9
S' 2960'
p2189
sg11
S'conunt:{\n  "State": 1,\n  "Data": [],\n  "Error": "",\n  "DataCount": 0\n'
p2190
sa(dp2191
g2
S'2960'
p2192
sg4
L1449730125530L
sg5
g15
sg7
S'PullToRefresh'
p2193
sg9
S' 2960'
p2194
sg11
S'onSizeChanged. W: 480, H: 677\n'
p2195
sa(dp2196
g2
S'2960'
p2197
sg4
L1449730125530L
sg5
g15
sg7
S'PullToRefresh'
p2198
sg9
S' 2960'
p2199
sg11
S'Setting Padding. L: 0, T: -406, R: 0, B: 0\n'
p2200
sa(dp2201
g2
S'2960'
p2202
sg4
L1449730125590L
sg5
g15
sg7
S'ImageLoader'
p2203
sg9
S' 2960'
p2204
sg11
S'Load image from memory cache [http://my.xdf.cn/public/images/User/_Big.jpg_105x105]\n'
p2205
sa(dp2206
g2
S'2960'
p2207
sg4
L1449730127070L
sg5
g15
sg7
S'PullToRefresh'
p2208
sg9
S' 2960'
p2209
sg11
S'Setting Padding. L: 0, T: 0, R: 0, B: 0\n'
p2210
sa(dp2211
g2
S'2960'
p2212
sg4
L1449730127090L
sg5
g15
sg7
S'PullToRefresh'
p2213
sg9
S' 2960'
p2214
sg11
S'addView: LinearLayout\n'
p2215
sa(dp2216
g2
S'2960'
p2217
sg4
L1449730127110L
sg5
g15
sg7
S'long    '
p2218
sg9
S' 2960'
p2219
sg11
S'prestr\xef\xbc\x9aappid=5004&examenddate=2015-12-10 14:48:47.123&examstartdate=1970-01-01 08:00:00.0&method=GetLatestResourceVideoExamStatistics&resourceenddate=2015-12-10 14:48:47.114&resourcestartdate=2015-12-10 14:39:40.554&schoolid=0&userid=xdf004483209&videoenddate=2015-12-10 14:48:47.118&videostartdate=2015-12-10 14:26:00.729&AppKey=v5key_my$cj_cnQcm\n'
p2220
sa(dp2221
g2
S'2960'
p2222
sg4
L1449730127110L
sg5
g15
sg7
S'http    '
p2223
sg9
S' 2960'
p2224
sg11
S'\xe8\xaf\xb7\xe6\xb1\x82\xe7\x9a\x84\xe5\x9c\xb0\xe5\x9d\x80\xef\xbc\x9ahttp://upoc.xdf.cn/index\n'
p2225
sa(dp2226
g2
S'2960'
p2227
sg4
L1449730127110L
sg5
g15
sg7
S'http    '
p2228
sg9
S' 2960'
p2229
sg11
S'\xe8\xaf\xb7\xe6\xb1\x82\xe7\x9a\x84\xe5\x8f\x82\xe6\x95\xb0\xef\xbc\x9amethod=GetLatestResourceVideoExamStatistics&userid=xdf004483209&schoolid=0&resourcestartdate=2015-12-10 14:39:40.554&resourceenddate=2015-12-10 14:48:47.114&videostartdate=2015-12-10 14:26:00.729&videoenddate=2015-12-10 14:48:47.118&examstartdate=1970-01-01 08:00:00.0&examenddate=2015-12-10 14:48:47.123&appid=5004&sign=CBDDC5A7D6512229EBF572E6CD3C689E\n'
p2230
sa(dp2231
g2
S'2960'
p2232
sg4
L1449730127110L
sg5
g15
sg7
S'long    '
p2233
sg9
S' 2960'
p2234
sg11
S'context.getClass().getName():com.xdf.ucan.MainActivity\n'
p2235
sa(dp2236
g2
S'2960'
p2237
sg4
L1449730127160L
sg5
g15
sg7
S'PullToRefresh'
p2238
sg9
S' 2960'
p2239
sg11
S'onSizeChanged. W: 480, H: 678\n'
p2240
sa(dp2241
g2
S'2960'
p2242
sg4
L1449730127160L
sg5
g15
sg7
S'PullToRefresh'
p2243
sg9
S' 2960'
p2244
sg11
S'Setting Padding. L: 0, T: -406, R: 0, B: 0\n'
p2245
sa(dp2246
g2
S'2960'
p2247
sg4
L1449730127250L
sg5
g563
sg7
S'AsyncHttpRH'
p2248
sg9
S' 2960'
p2249
sg11
S'Progress 68 from 68 (100%)\n'
p2250
sa(dp2251
g2
S'2960'
p2252
sg4
L1449730127250L
sg5
g15
sg7
S'http    '
p2253
sg9
S' 2960'
p2254
sg11
S'\xe8\xbf\x94\xe5\x9b\x9e\xe7\x9a\x84\xe7\xbb\x93\xe6\x9e\x9c\xef\xbc\x9a{\n  "State": 1,\n  "Data": [],\n  "Error": "",\n  "DataCount": 0\n'
p2255
sa(dp2256
g2
S'2960'
p2257
sg4
L1449730127250L
sg5
g15
sg7
S'long    '
p2258
sg9
S' 2960'
p2259
sg11
S'conunt:{\n  "State": 1,\n  "Data": [],\n  "Error": "",\n  "DataCount": 0\n'
p2260
sa(dp2261
g2
S'2960'
p2262
sg4
L1449730128430L
sg5
g15
sg7
S'PullToRefresh'
p2263
sg9
S' 2960'
p2264
sg11
S'onSizeChanged. W: 480, H: 677\n'
p2265
sa(dp2266
g2
S'2960'
p2267
sg4
L1449730128430L
sg5
g15
sg7
S'PullToRefresh'
p2268
sg9
S' 2960'
p2269
sg11
S'Setting Padding. L: 0, T: -406, R: 0, B: 0\n'
p2270
sa(dp2271
g2
S'2960'
p2272
sg4
L1449730128490L
sg5
g15
sg7
S'ImageLoader'
p2273
sg9
S' 2960'
p2274
sg11
S'Load image from memory cache [http://my.xdf.cn/public/images/User/_Big.jpg_105x105]\n'
p2275
sa(dp2276
g2
S'2960'
p2277
sg4
L1449730131850L
sg5
g15
sg7
S'cn.edu.nju.ise.kikandroid'
p2278
sg9
S' 3016'
p2279
sg11
S'Log:1449730131866\n'
p2280
sa(dp2281
g2
S'2960'
p2282
sg4
L1449730131880L
sg5
g15
sg7
S'cn.edu.nju.ise.kikandroid'
p2283
sg9
S' 3016'
p2284
sg11
S'Screenshot:1449730131894\n'
p2285
sa(dp2286
g2
S'2960'
p2287
sg4
L1449730131990L
sg5
g15
sg7
S'dalvikvm'
p2288
sg9
S' 2960'
p2289
sg11
S'GC_FOR_ALLOC freed 816K, 33% free 12097K/17991K, paused 53ms, total 63ms\n'
p2290
sa(dp2291
g2
S'2960'
p2292
sg4
L1449730132050L
sg5
g15
sg7
S'dalvikvm'
p2293
sg9
S' 2963'
p2294
sg11
S'GC_CONCURRENT freed 122K, 16% free 15178K/17991K, paused 12ms+2ms, total 59ms\n'
p2295
sa(dp2296
g2
S'2960'
p2297
sg4
L1449730132120L
sg5
g442
sg7
S'dalvikvm'
p2298
sg9
S' 3016'
p2299
sg11
S'threadid=22: thread exiting with uncaught exception (group=0x40f56438)\n'
p2300
sa(dp2301
g2
S'2960'
p2302
sg4
L1449730132210L
sg5
g6
sg7
S'err     '
p2303
sg9
S' 3016'
p2304
sg11
S'\xe7\xa8\x8b\xe5\xba\x8f\xe5\xbc\x82\xe5\xb8\xb8\njava.lang.NullPointerException\n\tat android.app.Instrumentation.finish(Instrumentation.java:186)\n\tat cn.edu.nju.ise.kikandroid.AUTInstrument.quitInstr(AUTInstrument.java:195)\n\tat cn.edu.nju.ise.kikandroid.AUTInstrument.startServer(AUTInstrument.java:161)\n\tat cn.edu.nju.ise.kikandroid.AUTInstrument$1.run(AUTInstrument.java:107)\n\tat java.lang.Thread.run(Thread.java:856)\n'
p2305
sa(dp2306
g2
S'2987'
p2307
sg4
L1449730132240L
sg5
g15
sg7
S'RongService'
p2308
sg9
S' 2987'
p2309
sg11
S'onUnbind, pid=2987\n'
p2310
sa(dp2311
g2
S'2987'
p2312
sg4
L1449730132240L
sg5
g15
sg7
S'RongService'
p2313
sg9
S' 2987'
p2314
sg11
S'onDestroy, pid=2987\n'
p2315
sa(dp2316
g2
S'3207'
p2317
sg4
L1449730157170L
sg5
g6
sg7
S'Trace   '
p2318
sg9
S' 3207'
p2319
sg11
S'error opening trace file: Permission denied (13)\n'
p2320
sa(dp2321
g2
S'3207'
p2322
sg4
L1449730157290L
sg5
g15
sg7
S'dalvikvm'
p2323
sg9
S' 3209'
p2324
sg11
S'GC_CONCURRENT freed 165K, 4% free 8427K/8775K, paused 12ms+6ms, total 64ms\n'
p2325
sa(dp2326
g2
S'3207'
p2327
sg4
L1449730157290L
sg5
g15
sg7
S'dalvikvm'
p2328
sg9
S' 3207'
p2329
sg11
S'WAIT_FOR_CONCURRENT_GC blocked 19ms\n'
p2330
sa(dp2331
g2
S'3207'
p2332
sg4
L1449730157370L
sg5
g15
sg7
S'long    '
p2333
sg9
S' 3207'
p2334
sg11
S'\xe8\xbf\x9e\xe6\x8e\xa5\xe7\x9a\x84\xe6\x95\xb0\xe6\x8d\xae\xe5\xba\x93\xe6\x98\xaf\xef\xbc\x9axdf004483209.db\n'
p2335
sa(dp2336
g2
S'3207'
p2337
sg4
L1449730157390L
sg5
g15
sg7
S'ImageLoader'
p2338
sg9
S' 3207'
p2339
sg11
S'Initialize ImageLoader with configuration\n'
p2340
sa(dp2341
g2
S'3207'
p2342
sg4
L1449730157400L
sg5
g15
sg7
S'long    '
p2343
sg9
S' 3207'
p2344
sg11
S'getCurProcessName:io.rong.push\n'
p2345
sa(dp2346
g2
S'3207'
p2347
sg4
L1449730157410L
sg5
g15
sg7
S'##IPC_com.xdf.ucan.BaseApplication:RongIMClient : init'
p2348
sg9
S' 3207'
p2349
sg11
S'process = io.rong.push\n'
p2350
sa(dp2351
g2
S'3207'
p2352
sg4
L1449730157420L
sg5
g6
sg7
S'        '
p2353
sg9
S' 3207'
p2354
sg11
S'generic statfs: /data , size: 110402\n'
p2355
sa(dp2356
g2
S'3207'
p2357
sg4
L1449730157430L
sg5
g15
sg7
S'##COMMON_io.rong.push.PushContext:PushContext'
p2358
sg9
S' 3207'
p2359
sg11
S'init\n'
p2360
sa(dp2361
g2
S'3207'
p2362
sg4
L1449730157560L
sg5
g15
sg7
S'dalvikvm'
p2363
sg9
S' 3209'
p2364
sg11
S'GC_CONCURRENT freed 273K, 6% free 8591K/9095K, paused 12ms+1ms, total 42ms\n'
p2365
sa(dp2366
g2
S'3207'
p2367
sg4
L1449730157570L
sg5
g66
sg7
S'##COMMON_io.rong.push.PushContext:sendConnectCommand'
p2368
sg9
S' 3207'
p2369
sg11
S'800\n'
p2370
sa(dp2371
g2
S'3207'
p2372
sg4
L1449730157580L
sg5
g66
sg7
S'##COMMON_io.rong.push.PushReceiver:Action'
p2373
sg9
S' 3207'
p2374
sg11
S'io.rong.push.HeartBeat\n'
p2375
sa(dp2376
g2
S'3207'
p2377
sg4
L1449730157580L
sg5
g66
sg7
S'##COMMON_io.rong.push.PushReceiver:ACTION_HEARTBEAT'
p2378
sg9
S' 3207'
p2379
sg11
S'Receive heartbeat action.\n'
p2380
sa(dp2381
g2
S'3207'
p2382
sg4
L1449730157580L
sg5
g15
sg7
S'PowerManager'
p2383
sg9
S' 3207'
p2384
sg11
S'wake:com.xdf.ucan/io.rong.push.PushService [acquire]\n'
p2385
sa(dp2386
g2
S'3207'
p2387
sg4
L1449730157590L
sg5
g66
sg7
S'##COMMON_java.lang.Class:PushService'
p2388
sg9
S' 3207'
p2389
sg11
S'PushService OnCreate\n'
p2390
sa(dp2391
g2
S'3207'
p2392
sg4
L1449730157590L
sg5
g66
sg7
S'PushService'
p2393
sg9
S' 3207'
p2394
sg11
S'PushService OnCreate\n'
p2395
sa(dp2396
g2
S'3207'
p2397
sg4
L1449730157600L
sg5
g66
sg7
S'##COMMON_io.rong.push.PushService.PushHandler:PushHandler'
p2398
sg9
S' 3225'
p2399
sg11
S'ConnectToServer,isClientConnected = false\n'
p2400
sa(dp2401
g2
S'3207'
p2402
sg4
L1449730157610L
sg5
g66
sg7
S'##COMMON_io.rong.push.PushService:DeviceId'
p2403
sg9
S' 3225'
p2404
sg11
S'A0000037E432E9\n'
p2405
sa(dp2406
g2
S'3207'
p2407
sg4
L1449730157620L
sg5
g66
sg7
S'##COMMON_io.rong.push.PushService.PushHandler:PushHandler'
p2408
sg9
S' 3225'
p2409
sg11
S'the saved IP = 119.254.101.137:8609\n'
p2410
sa(dp2411
g2
S'3207'
p2412
sg4
L1449730157620L
sg5
g66
sg7
S'PushHandler'
p2413
sg9
S' 3225'
p2414
sg11
S'the saved time = 1449727391539current time = 1449730157630\n'
p2415
sa(dp2416
g2
S'3207'
p2417
sg4
L1449730157620L
sg5
g66
sg7
S'##COMMON_io.rong.push.PushService.PushHandler:PushHandler'
p2418
sg9
S' 3225'
p2419
sg11
S'ConnectToServer,use the saved IP, IP = 119.254.101.137:8609\n'
p2420
sa(dp2421
g2
S'3207'
p2422
sg4
L1449730157620L
sg5
g66
sg7
S'##COMMON_io.rong.push.PushService:getPhoneInformation.'
p2423
sg9
S' 3225'
p2424
sg11
S'the phone information is:ZTE|ZTE N909|16|WIFI|46003\n'
p2425
sa(dp2426
g2
S'3207'
p2427
sg4
L1449730157620L
sg5
g66
sg7
S'##COMMON_io.rong.push.PushClient:connect'
p2428
sg9
S' 3225'
p2429
sg11
S'phone info:ZTE|ZTE N909|16|WIFI|46003 push version:2.6\n'
p2430
sa(dp2431
g2
S'3207'
p2432
sg4
L1449730157620L
sg5
g66
sg7
S'##COMMON_io.rong.push.PushClient:connect'
p2433
sg9
S' 3225'
p2434
sg11
S'the socket is established\n'
p2435
sa(dp2436
g2
S'3207'
p2437
sg4
L1449730157800L
sg5
g66
sg7
S'##COMMON_io.rong.push.PushClient:Handler'
p2438
sg9
S' 3227'
p2439
sg11
S'CONNACK\n'
p2440
sa(dp2441
g2
S'3207'
p2442
sg4
L1449730157800L
sg5
g66
sg7
S'PushService'
p2443
sg9
S' 3227'
p2444
sg11
S'The client connect status is:CONNACK\n'
p2445
sa(dp2446
g2
S'3207'
p2447
sg4
L1449730157810L
sg5
g66
sg7
S'##COMMON_io.rong.push.PushService:Connect'
p2448
sg9
S' 3227'
p2449
sg11
S'Client connect successfully.So start the heart beat.\n'
p2450
sa(dp2451
g2
S'3207'
p2452
sg4
L1449730157810L
sg5
g66
sg7
S'##COMMON_io.rong.push.PushContext:Heartbeat'
p2453
sg9
S' 3227'
p2454
sg11
S'start_next\n'
p2455
sa(dp2456
g2
S'3207'
p2457
sg4
L1449730157810L
sg5
g15
sg7
S'PowerManager'
p2458
sg9
S' 3225'
p2459
sg11
S'wake:com.xdf.ucan/io.rong.push.PushService [release]\n'
p2460
sa(dp2461
g2
S'3207'
p2462
sg4
L1449730158390L
sg5
g66
sg7
S'##COMMON_io.rong.push.PushReceiver:Action'
p2463
sg9
S' 3207'
p2464
sg11
S'io.rong.push.Connect\n'
p2465
sa(dp2466
g2
S'3207'
p2467
sg4
L1449730158410L
sg5
g15
sg7
S'PowerManager'
p2468
sg9
S' 3207'
p2469
sg11
S'wake:com.xdf.ucan/io.rong.push.PushService [acquire]\n'
p2470
sa(dp2471
g2
S'3207'
p2472
sg4
L1449730158410L
sg5
g66
sg7
S'##COMMON_io.rong.push.PushReceiver:ACTION_CONNECT'
p2473
sg9
S' 3207'
p2474
sg11
S'version is null, run connect\n'
p2475
sa(dp2476
g2
S'3207'
p2477
sg4
L1449730158420L
sg5
g66
sg7
S'##COMMON_io.rong.push.PushService:CONNECT_CHECK'
p2478
sg9
S' 3225'
p2479
sg11
S'getRunningPushServiceVersion null\n'
p2480
sa(dp2481
g2
S'3207'
p2482
sg4
L1449730158420L
sg5
g66
sg7
S'##COMMON_io.rong.push.PushService.PushHandler:PushHandler'
p2483
sg9
S' 3225'
p2484
sg11
S'ConnectToServer,isClientConnected = true\n'
p2485
sa(dp2486
g2
S'3207'
p2487
sg4
L1449730218430L
sg5
g15
sg7
S'PowerManager'
p2488
sg9
S' 3207'
p2489
sg11
S'wake:com.xdf.ucan/io.rong.push.PushService [release]\n'
p2490
sa.