(lp0
(dp1
S'EventTime'
p2
S'4204267'
p3
sS'SyscTime'
p4
L1449727746160L
sS'recordCount'
p5
S'0'
p6
sS'EventType'
p7
S'TYPE_WINDOW_STATE_CHANGED'
p8
sS'PackageName'
p9
S'com.xdf.ucan'
p10
sS'OutBounds'
p11
S'Rect(0, 0 - 1080, 1776)'
p12
sS'Action'
p13
S'[ ClassName: com.xdf.ucan.ui.login.StartActivity; Text: [\xe4\xbc\x98\xe6\x92\xad\xe8\xaf\xbe]; ContentDescription: null; ItemCount: -1; CurrentItemIndex: -1; IsEnabled: true; IsPassword: false; IsChecked: false; IsFullScreen: true; Scrollable: false; BeforeText: null; FromIndex: -1; ToIndex: -1; ScrollX: -1; ScrollY: -1; MaxScrollX: -1; MaxScrollY: -1; AddedCount: -1; RemovedCount: -1; ParcelableData: null ]'
p14
sS'MovementGranularity'
p15
g6
sa(dp16
S'EventTime'
p17
S'4204296'
p18
sg4
L1449727746176L
sS'recordCount'
p19
g6
sS'EventType'
p20
S'TYPE_WINDOW_CONTENT_CHANGED'
p21
sS'PackageName'
p22
S'com.xdf.ucan'
p23
sS'OutBounds'
p24
S'Rect(0, 0 - 1080, 1776)'
p25
sS'Action'
p26
S'[ ClassName: android.widget.FrameLayout; Text: []; ContentDescription: null; ItemCount: -1; CurrentItemIndex: -1; IsEnabled: true; IsPassword: false; IsChecked: false; IsFullScreen: false; Scrollable: false; BeforeText: null; FromIndex: -1; ToIndex: -1; ScrollX: -1; ScrollY: -1; MaxScrollX: -1; MaxScrollY: -1; AddedCount: -1; RemovedCount: -1; ParcelableData: null ]'
p27
sS'MovementGranularity'
p28
g6
sa(dp29
S'EventTime'
p30
S'4228931'
p31
sg4
L1449727770839L
sS'recordCount'
p32
g6
sS'EventType'
p33
S'TYPE_WINDOW_STATE_CHANGED'
p34
sS'PackageName'
p35
S'com.xdf.ucan'
p36
sS'OutBounds'
p37
S'Rect(0, 0 - 1080, 1776)'
p38
sS'Action'
p39
S'[ ClassName: com.xdf.ucan.MainActivity; Text: [\xe4\xbc\x98\xe6\x92\xad\xe8\xaf\xbe]; ContentDescription: null; ItemCount: -1; CurrentItemIndex: -1; IsEnabled: true; IsPassword: false; IsChecked: false; IsFullScreen: true; Scrollable: false; BeforeText: null; FromIndex: -1; ToIndex: -1; ScrollX: -1; ScrollY: -1; MaxScrollX: -1; MaxScrollY: -1; AddedCount: -1; RemovedCount: -1; ParcelableData: null ]'
p40
sS'MovementGranularity'
p41
g6
sa(dp42
S'EventTime'
p43
S'4229098'
p44
sg4
L1449727770977L
sS'recordCount'
p45
g6
sS'EventType'
p46
S'TYPE_WINDOW_CONTENT_CHANGED'
p47
sS'PackageName'
p48
S'com.xdf.ucan'
p49
sS'OutBounds'
p50
S'Rect(1032, 822 - 1032, 872)'
p51
sS'Action'
p52
S'[ ClassName: android.widget.TextView; Text: []; ContentDescription: null; ItemCount: -1; CurrentItemIndex: -1; IsEnabled: true; IsPassword: false; IsChecked: false; IsFullScreen: false; Scrollable: false; BeforeText: null; FromIndex: -1; ToIndex: -1; ScrollX: -1; ScrollY: -1; MaxScrollX: -1; MaxScrollY: -1; AddedCount: -1; RemovedCount: -1; ParcelableData: null ]'
p53
sS'MovementGranularity'
p54
g6
sa(dp55
S'EventTime'
p56
S'4230268'
p57
sg4
L1449727772146L
sS'recordCount'
p58
g6
sS'EventType'
p59
S'TYPE_VIEW_CLICKED'
p60
sS'PackageName'
p61
S'com.xdf.ucan'
p62
sS'OutBounds'
p63
S'Rect(0, 783 - 1080, 975)'
p64
sS'Action'
p65
S'[ ClassName: android.widget.RelativeLayout; Text: [\xe8\xa7\x86\xe9\xa2\x91, \xe6\x8d\xae\xe8\xaf\xb4\xef\xbc\x8c\xe6\x9c\x89\xe4\xba\x86spoc\xe6\x8f\x90\xe5\x88\x86\xe4\xb8\x8d\xe6\x98\xaf\xe9\x97\xae\xe9\xa2\x98]; ContentDescription: null; ItemCount: -1; CurrentItemIndex: -1; IsEnabled: true; IsPassword: false; IsChecked: false; IsFullScreen: false; Scrollable: false; BeforeText: null; FromIndex: -1; ToIndex: -1; ScrollX: -1; ScrollY: -1; MaxScrollX: -1; MaxScrollY: -1; AddedCount: -1; RemovedCount: -1; ParcelableData: null ]'
p66
sS'MovementGranularity'
p67
g6
sa(dp68
S'EventTime'
p69
S'4230879'
p70
sg4
L1449727773048L
sS'recordCount'
p71
g6
sS'EventType'
p72
S'TYPE_WINDOW_STATE_CHANGED'
p73
sS'PackageName'
p74
S'com.xdf.ucan'
p75
sS'Action'
p76
S'[ ClassName: com.xdf.ucan.views.LoadingDialog; Text: []; ContentDescription: null; ItemCount: -1; CurrentItemIndex: -1; IsEnabled: true; IsPassword: false; IsChecked: false; IsFullScreen: false; Scrollable: false; BeforeText: null; FromIndex: -1; ToIndex: -1; ScrollX: -1; ScrollY: -1; MaxScrollX: -1; MaxScrollY: -1; AddedCount: -1; RemovedCount: -1; ParcelableData: null ]'
p77
sS'MovementGranularity'
p78
g6
sa(dp79
S'EventTime'
p80
S'4230976'
p81
sg4
L1449727773049L
sS'recordCount'
p82
g6
sS'EventType'
p83
S'TYPE_WINDOW_CONTENT_CHANGED'
p84
sS'PackageName'
p85
S'com.xdf.ucan'
p86
sS'Action'
p87
S'[ ClassName: android.widget.Button; Text: []; ContentDescription: null; ItemCount: -1; CurrentItemIndex: -1; IsEnabled: true; IsPassword: false; IsChecked: false; IsFullScreen: false; Scrollable: false; BeforeText: null; FromIndex: -1; ToIndex: -1; ScrollX: -1; ScrollY: -1; MaxScrollX: -1; MaxScrollY: -1; AddedCount: -1; RemovedCount: -1; ParcelableData: null ]'
p88
sS'MovementGranularity'
p89
g6
sa(dp90
S'EventTime'
p91
S'4231275'
p92
sg4
L1449727773166L
sS'recordCount'
p93
g6
sS'EventType'
p94
S'TYPE_WINDOW_STATE_CHANGED'
p95
sS'PackageName'
p96
S'com.xdf.ucan'
p97
sS'OutBounds'
p98
S'Rect(0, 0 - 1080, 1776)'
p99
sS'Action'
p100
S'[ ClassName: com.xdf.ucan.ui.video.VideoListActivity; Text: [\xe4\xbc\x98\xe6\x92\xad\xe8\xaf\xbe]; ContentDescription: null; ItemCount: -1; CurrentItemIndex: -1; IsEnabled: true; IsPassword: false; IsChecked: false; IsFullScreen: true; Scrollable: false; BeforeText: null; FromIndex: -1; ToIndex: -1; ScrollX: -1; ScrollY: -1; MaxScrollX: -1; MaxScrollY: -1; AddedCount: -1; RemovedCount: -1; ParcelableData: null ]'
p101
sS'MovementGranularity'
p102
g6
sa(dp103
S'EventTime'
p104
S'4231437'
p105
sg4
L1449727773318L
sS'recordCount'
p106
g6
sS'EventType'
p107
S'TYPE_WINDOW_CONTENT_CHANGED'
p108
sS'PackageName'
p109
S'com.xdf.ucan'
p110
sS'OutBounds'
p111
S'Rect(0, 1296 - 1080, 1350)'
p112
sS'Action'
p113
S'[ ClassName: android.widget.TextView; Text: []; ContentDescription: null; ItemCount: -1; CurrentItemIndex: -1; IsEnabled: true; IsPassword: false; IsChecked: false; IsFullScreen: false; Scrollable: false; BeforeText: null; FromIndex: -1; ToIndex: -1; ScrollX: -1; ScrollY: -1; MaxScrollX: -1; MaxScrollY: -1; AddedCount: -1; RemovedCount: -1; ParcelableData: null ]'
p114
sS'MovementGranularity'
p115
g6
sa(dp116
S'EventTime'
p117
S'4259935'
p118
sg4
L1449727801814L
sS'recordCount'
p119
g6
sS'EventType'
p120
S'TYPE_WINDOW_STATE_CHANGED'
p121
sS'PackageName'
p122
S'com.xdf.ucan'
p123
sS'OutBounds'
p124
S'Rect(0, 0 - 1080, 1776)'
p125
sS'Action'
p126
S'[ ClassName: com.xdf.ucan.ui.video.VideoListActivity; Text: [\xe4\xbc\x98\xe6\x92\xad\xe8\xaf\xbe]; ContentDescription: null; ItemCount: -1; CurrentItemIndex: -1; IsEnabled: true; IsPassword: false; IsChecked: false; IsFullScreen: true; Scrollable: false; BeforeText: null; FromIndex: -1; ToIndex: -1; ScrollX: -1; ScrollY: -1; MaxScrollX: -1; MaxScrollY: -1; AddedCount: -1; RemovedCount: -1; ParcelableData: null ]'
p127
sS'MovementGranularity'
p128
g6
sa(dp129
S'EventTime'
p130
S'4279066'
p131
sg4
L1449727820944L
sS'recordCount'
p132
g6
sS'EventType'
p133
S'TYPE_WINDOW_STATE_CHANGED'
p134
sS'PackageName'
p135
S'com.xdf.ucan'
p136
sS'OutBounds'
p137
S'Rect(0, 0 - 1080, 1776)'
p138
sS'Action'
p139
S'[ ClassName: com.xdf.ucan.ui.video.VideoListActivity; Text: [\xe4\xbc\x98\xe6\x92\xad\xe8\xaf\xbe]; ContentDescription: null; ItemCount: -1; CurrentItemIndex: -1; IsEnabled: true; IsPassword: false; IsChecked: false; IsFullScreen: true; Scrollable: false; BeforeText: null; FromIndex: -1; ToIndex: -1; ScrollX: -1; ScrollY: -1; MaxScrollX: -1; MaxScrollY: -1; AddedCount: -1; RemovedCount: -1; ParcelableData: null ]'
p140
sS'MovementGranularity'
p141
g6
sa(dp142
S'EventTime'
p143
S'4282180'
p144
sg4
L1449727824058L
sS'recordCount'
p145
g6
sS'EventType'
p146
S'TYPE_VIEW_CLICKED'
p147
sS'PackageName'
p148
S'com.xdf.ucan'
p149
sS'OutBounds'
p150
S'Rect(30, 75 - 186, 207)'
p151
sS'Action'
p152
S'[ ClassName: android.widget.TextView; Text: [\xe8\xbf\x94\xe5\x9b\x9e]; ContentDescription: null; ItemCount: -1; CurrentItemIndex: -1; IsEnabled: true; IsPassword: false; IsChecked: false; IsFullScreen: false; Scrollable: false; BeforeText: null; FromIndex: -1; ToIndex: -1; ScrollX: -1; ScrollY: -1; MaxScrollX: -1; MaxScrollY: -1; AddedCount: -1; RemovedCount: -1; ParcelableData: null ]'
p153
sS'MovementGranularity'
p154
g6
sa(dp155
S'EventTime'
p156
S'4282302'
p157
sg4
L1449727824220L
sS'recordCount'
p158
g6
sS'EventType'
p159
S'TYPE_WINDOW_STATE_CHANGED'
p160
sS'PackageName'
p161
S'com.xdf.ucan'
p162
sS'OutBounds'
p163
S'Rect(0, 0 - 1080, 1776)'
p164
sS'Action'
p165
S'[ ClassName: com.xdf.ucan.MainActivity; Text: [\xe4\xbc\x98\xe6\x92\xad\xe8\xaf\xbe]; ContentDescription: null; ItemCount: -1; CurrentItemIndex: -1; IsEnabled: true; IsPassword: false; IsChecked: false; IsFullScreen: true; Scrollable: false; BeforeText: null; FromIndex: -1; ToIndex: -1; ScrollX: -1; ScrollY: -1; MaxScrollX: -1; MaxScrollY: -1; AddedCount: -1; RemovedCount: -1; ParcelableData: null ]'
p166
sS'MovementGranularity'
p167
g6
sa.