(lp0
(dp1
S'EventTime'
p2
S'49436483'
p3
sS'SyscTime'
p4
L1449971999383L
sS'recordCount'
p5
S'0'
p6
sS'EventType'
p7
S'TYPE_WINDOW_STATE_CHANGED'
p8
sS'PackageName'
p9
S'com.xdf.ucan'
p10
sS'OutBounds'
p11
S'Rect(0, 0 - 480, 854)'
p12
sS'Action'
p13
S'[ ClassName: com.xdf.ucan.ui.login.StartActivity; Text: [\xe4\xbc\x98\xe6\x92\xad\xe8\xaf\xbe]; ContentDescription: null; ItemCount: -1; CurrentItemIndex: -1; IsEnabled: true; IsPassword: false; IsChecked: false; IsFullScreen: true; Scrollable: false; BeforeText: null; FromIndex: -1; ToIndex: -1; ScrollX: -1; ScrollY: -1; MaxScrollX: -1; MaxScrollY: -1; AddedCount: -1; RemovedCount: -1; ParcelableData: null ]'
p14
sS'MovementGranularity'
p15
g6
sa(dp16
S'EventTime'
p17
S'49436555'
p18
sg4
L1449971999446L
sS'recordCount'
p19
g6
sS'EventType'
p20
S'TYPE_WINDOW_CONTENT_CHANGED'
p21
sS'PackageName'
p22
S'com.xdf.ucan'
p23
sS'OutBounds'
p24
S'Rect(0, 0 - 480, 854)'
p25
sS'Action'
p26
S'[ ClassName: android.widget.FrameLayout; Text: []; ContentDescription: null; ItemCount: -1; CurrentItemIndex: -1; IsEnabled: true; IsPassword: false; IsChecked: false; IsFullScreen: false; Scrollable: false; BeforeText: null; FromIndex: -1; ToIndex: -1; ScrollX: -1; ScrollY: -1; MaxScrollX: -1; MaxScrollY: -1; AddedCount: -1; RemovedCount: -1; ParcelableData: null ]'
p27
sS'MovementGranularity'
p28
g6
sa(dp29
S'EventTime'
p30
S'49436917'
p31
sg4
L1449971999807L
sS'recordCount'
p32
g6
sS'EventType'
p33
S'TYPE_WINDOW_CONTENT_CHANGED'
p34
sS'PackageName'
p35
S'com.xdf.ucan'
p36
sS'OutBounds'
p37
S'Rect(0, 0 - 480, 854)'
p38
sS'Action'
p39
S'[ ClassName: android.widget.FrameLayout; Text: []; ContentDescription: null; ItemCount: -1; CurrentItemIndex: -1; IsEnabled: true; IsPassword: false; IsChecked: false; IsFullScreen: false; Scrollable: false; BeforeText: null; FromIndex: -1; ToIndex: -1; ScrollX: -1; ScrollY: -1; MaxScrollX: -1; MaxScrollY: -1; AddedCount: -1; RemovedCount: -1; ParcelableData: null ]'
p40
sS'MovementGranularity'
p41
g6
sa(dp42
S'EventTime'
p43
S'49437587'
p44
sg4
L1449972000508L
sS'recordCount'
p45
g6
sS'EventType'
p46
S'TYPE_VIEW_FOCUSED'
p47
sS'PackageName'
p48
S'com.xdf.ucan'
p49
sS'OutBounds'
p50
S'Rect(45, 355 - 435, 428)'
p51
sS'Action'
p52
S'[ ClassName: android.widget.EditText; Text: [\xe8\xaf\xb7\xe8\xbe\x93\xe5\x85\xa5\xe6\x89\x8b\xe6\x9c\xba\xe5\x8f\xb7]; ContentDescription: null; ItemCount: 3; CurrentItemIndex: 0; IsEnabled: true; IsPassword: false; IsChecked: false; IsFullScreen: false; Scrollable: false; BeforeText: null; FromIndex: -1; ToIndex: -1; ScrollX: -1; ScrollY: -1; MaxScrollX: -1; MaxScrollY: -1; AddedCount: -1; RemovedCount: -1; ParcelableData: null ]'
p53
sS'MovementGranularity'
p54
g6
sa(dp55
S'EventTime'
p56
S'49437591'
p57
sg4
L1449972000530L
sS'recordCount'
p58
g6
sS'EventType'
p59
S'TYPE_WINDOW_STATE_CHANGED'
p60
sS'PackageName'
p61
S'com.xdf.ucan'
p62
sS'OutBounds'
p63
S'Rect(0, 0 - 480, 854)'
p64
sS'Action'
p65
S'[ ClassName: com.xdf.ucan.ui.login.LoginActivity; Text: [\xe4\xbc\x98\xe6\x92\xad\xe8\xaf\xbe]; ContentDescription: null; ItemCount: -1; CurrentItemIndex: -1; IsEnabled: true; IsPassword: false; IsChecked: false; IsFullScreen: true; Scrollable: false; BeforeText: null; FromIndex: -1; ToIndex: -1; ScrollX: -1; ScrollY: -1; MaxScrollX: -1; MaxScrollY: -1; AddedCount: -1; RemovedCount: -1; ParcelableData: null ]'
p66
sS'MovementGranularity'
p67
g6
sa(dp68
S'EventTime'
p69
S'49437655'
p70
sg4
L1449972000559L
sS'recordCount'
p71
g6
sS'EventType'
p72
S'TYPE_WINDOW_CONTENT_CHANGED'
p73
sS'PackageName'
p74
S'com.xdf.ucan'
p75
sS'OutBounds'
p76
S'Rect(0, 0 - 480, 854)'
p77
sS'Action'
p78
S'[ ClassName: android.widget.FrameLayout; Text: []; ContentDescription: null; ItemCount: -1; CurrentItemIndex: -1; IsEnabled: true; IsPassword: false; IsChecked: false; IsFullScreen: false; Scrollable: false; BeforeText: null; FromIndex: -1; ToIndex: -1; ScrollX: -1; ScrollY: -1; MaxScrollX: -1; MaxScrollY: -1; AddedCount: -1; RemovedCount: -1; ParcelableData: null ]'
p79
sS'MovementGranularity'
p80
g6
sa(dp81
S'EventTime'
p82
S'49437824'
p83
sg4
L1449972000727L
sS'recordCount'
p84
g6
sS'EventType'
p85
S'TYPE_WINDOW_CONTENT_CHANGED'
p86
sS'PackageName'
p87
S'com.xdf.ucan'
p88
sS'OutBounds'
p89
S'Rect(0, 0 - 480, 854)'
p90
sS'Action'
p91
S'[ ClassName: android.widget.FrameLayout; Text: []; ContentDescription: null; ItemCount: -1; CurrentItemIndex: -1; IsEnabled: true; IsPassword: false; IsChecked: false; IsFullScreen: false; Scrollable: false; BeforeText: null; FromIndex: -1; ToIndex: -1; ScrollX: -1; ScrollY: -1; MaxScrollX: -1; MaxScrollY: -1; AddedCount: -1; RemovedCount: -1; ParcelableData: null ]'
p92
sS'MovementGranularity'
p93
g6
sa(dp94
S'EventTime'
p95
S'49446395'
p96
sg4
L1449972009289L
sS'recordCount'
p97
g6
sS'EventType'
p98
S'TYPE_VIEW_CLICKED'
p99
sS'PackageName'
p100
S'com.xdf.ucan'
p101
sS'OutBounds'
p102
S'Rect(0, 38 - 480, 854)'
p103
sS'Action'
p104
S'[ ClassName: android.widget.LinearLayout; Text: [\xe8\xaf\xb7\xe8\xbe\x93\xe5\x85\xa5\xe6\x89\x8b\xe6\x9c\xba\xe5\x8f\xb7, \xe7\x99\xbb\xe5\xbd\x95, \xe6\xb3\xa8\xe5\x86\x8c, \xe5\xbf\x98\xe8\xae\xb0\xe5\xaf\x86\xe7\xa0\x81\xef\xbc\x9f]; ContentDescription: null; ItemCount: -1; CurrentItemIndex: -1; IsEnabled: true; IsPassword: false; IsChecked: false; IsFullScreen: false; Scrollable: false; BeforeText: null; FromIndex: -1; ToIndex: -1; ScrollX: -1; ScrollY: -1; MaxScrollX: -1; MaxScrollY: -1; AddedCount: -1; RemovedCount: -1; ParcelableData: null ]'
p105
sS'MovementGranularity'
p106
g6
sa(dp107
S'EventTime'
p108
S'49447956'
p109
sg4
L1449972010844L
sS'recordCount'
p110
g6
sS'EventType'
p111
S'TYPE_VIEW_CLICKED'
p112
sS'PackageName'
p113
S'com.xdf.ucan'
p114
sS'OutBounds'
p115
S'Rect(309, 638 - 414, 667)'
p116
sS'Action'
p117
S'[ ClassName: android.widget.TextView; Text: [\xe5\xbf\x98\xe8\xae\xb0\xe5\xaf\x86\xe7\xa0\x81\xef\xbc\x9f]; ContentDescription: null; ItemCount: -1; CurrentItemIndex: -1; IsEnabled: true; IsPassword: false; IsChecked: false; IsFullScreen: false; Scrollable: false; BeforeText: null; FromIndex: -1; ToIndex: -1; ScrollX: -1; ScrollY: -1; MaxScrollX: -1; MaxScrollY: -1; AddedCount: -1; RemovedCount: -1; ParcelableData: null ]'
p118
sS'MovementGranularity'
p119
g6
sa(dp120
S'EventTime'
p121
S'49448157'
p122
sg4
L1449972011062L
sS'recordCount'
p123
g6
sS'EventType'
p124
S'TYPE_VIEW_FOCUSED'
p125
sS'PackageName'
p126
S'com.xdf.ucan'
p127
sS'OutBounds'
p128
S'Rect(30, 140 - 300, 200)'
p129
sS'Action'
p130
S'[ ClassName: android.widget.EditText; Text: [\xe8\xbe\x93\xe5\x85\xa5\xe6\x89\x8b\xe6\x9c\xba\xe5\x8f\xb7]; ContentDescription: null; ItemCount: 5; CurrentItemIndex: 1; IsEnabled: true; IsPassword: false; IsChecked: false; IsFullScreen: false; Scrollable: false; BeforeText: null; FromIndex: -1; ToIndex: -1; ScrollX: -1; ScrollY: -1; MaxScrollX: -1; MaxScrollY: -1; AddedCount: -1; RemovedCount: -1; ParcelableData: null ]'
p131
sS'MovementGranularity'
p132
g6
sa(dp133
S'EventTime'
p134
S'49448170'
p135
sg4
L1449972011089L
sS'recordCount'
p136
g6
sS'EventType'
p137
S'TYPE_WINDOW_STATE_CHANGED'
p138
sS'PackageName'
p139
S'com.xdf.ucan'
p140
sS'OutBounds'
p141
S'Rect(0, 0 - 480, 854)'
p142
sS'Action'
p143
S'[ ClassName: com.xdf.ucan.ui.login.ForgetActivity; Text: [\xe4\xbc\x98\xe6\x92\xad\xe8\xaf\xbe]; ContentDescription: null; ItemCount: -1; CurrentItemIndex: -1; IsEnabled: true; IsPassword: false; IsChecked: false; IsFullScreen: true; Scrollable: false; BeforeText: null; FromIndex: -1; ToIndex: -1; ScrollX: -1; ScrollY: -1; MaxScrollX: -1; MaxScrollY: -1; AddedCount: -1; RemovedCount: -1; ParcelableData: null ]'
p144
sS'MovementGranularity'
p145
g6
sa(dp146
S'EventTime'
p147
S'49448225'
p148
sg4
L1449972011131L
sS'recordCount'
p149
g6
sS'EventType'
p150
S'TYPE_WINDOW_CONTENT_CHANGED'
p151
sS'PackageName'
p152
S'com.xdf.ucan'
p153
sS'OutBounds'
p154
S'Rect(0, 0 - 480, 854)'
p155
sS'Action'
p156
S'[ ClassName: android.widget.FrameLayout; Text: []; ContentDescription: null; ItemCount: -1; CurrentItemIndex: -1; IsEnabled: true; IsPassword: false; IsChecked: false; IsFullScreen: false; Scrollable: false; BeforeText: null; FromIndex: -1; ToIndex: -1; ScrollX: -1; ScrollY: -1; MaxScrollX: -1; MaxScrollY: -1; AddedCount: -1; RemovedCount: -1; ParcelableData: null ]'
p157
sS'MovementGranularity'
p158
g6
sa(dp159
S'EventTime'
p160
S'49448379'
p161
sg4
L1449972011266L
sS'recordCount'
p162
g6
sS'EventType'
p163
S'TYPE_VIEW_TEXT_SELECTION_CHANGED'
p164
sS'PackageName'
p165
S'com.xdf.ucan'
p166
sS'Action'
p167
S'[ ClassName: android.widget.EditText; Text: []; ContentDescription: null; ItemCount: 0; CurrentItemIndex: -1; IsEnabled: true; IsPassword: true; IsChecked: false; IsFullScreen: false; Scrollable: false; BeforeText: null; FromIndex: 0; ToIndex: 0; ScrollX: -1; ScrollY: -1; MaxScrollX: -1; MaxScrollY: -1; AddedCount: -1; RemovedCount: -1; ParcelableData: null ]'
p168
sS'MovementGranularity'
p169
g6
sa(dp170
S'EventTime'
p171
S'49448426'
p172
sg4
L1449972011326L
sS'recordCount'
p173
g6
sS'EventType'
p174
S'TYPE_WINDOW_CONTENT_CHANGED'
p175
sS'PackageName'
p176
S'com.xdf.ucan'
p177
sS'OutBounds'
p178
S'Rect(0, 0 - 480, 854)'
p179
sS'Action'
p180
S'[ ClassName: android.widget.FrameLayout; Text: []; ContentDescription: null; ItemCount: -1; CurrentItemIndex: -1; IsEnabled: true; IsPassword: false; IsChecked: false; IsFullScreen: false; Scrollable: false; BeforeText: null; FromIndex: -1; ToIndex: -1; ScrollX: -1; ScrollY: -1; MaxScrollX: -1; MaxScrollY: -1; AddedCount: -1; RemovedCount: -1; ParcelableData: null ]'
p181
sS'MovementGranularity'
p182
g6
sa(dp183
S'EventTime'
p184
S'49456177'
p185
sg4
L1449972019088L
sS'recordCount'
p186
g6
sS'EventType'
p187
S'TYPE_WINDOW_CONTENT_CHANGED'
p188
sS'PackageName'
p189
S'com.xdf.ucan'
p190
sS'OutBounds'
p191
S'Rect(0, 0 - 480, 854)'
p192
sS'Action'
p193
S'[ ClassName: android.widget.FrameLayout; Text: []; ContentDescription: null; ItemCount: -1; CurrentItemIndex: -1; IsEnabled: true; IsPassword: false; IsChecked: false; IsFullScreen: false; Scrollable: false; BeforeText: null; FromIndex: -1; ToIndex: -1; ScrollX: -1; ScrollY: -1; MaxScrollX: -1; MaxScrollY: -1; AddedCount: -1; RemovedCount: -1; ParcelableData: null ]'
p194
sS'MovementGranularity'
p195
g6
sa(dp196
S'EventTime'
p197
S'49457876'
p198
sg4
L1449972020763L
sS'recordCount'
p199
g6
sS'EventType'
p200
S'TYPE_VIEW_CLICKED'
p201
sS'PackageName'
p202
S'com.xdf.ucan'
p203
sS'OutBounds'
p204
S'Rect(15, 38 - 93, 104)'
p205
sS'Action'
p206
S'[ ClassName: android.widget.TextView; Text: [\xe8\xbf\x94\xe5\x9b\x9e]; ContentDescription: null; ItemCount: -1; CurrentItemIndex: -1; IsEnabled: true; IsPassword: false; IsChecked: false; IsFullScreen: false; Scrollable: false; BeforeText: null; FromIndex: -1; ToIndex: -1; ScrollX: -1; ScrollY: -1; MaxScrollX: -1; MaxScrollY: -1; AddedCount: -1; RemovedCount: -1; ParcelableData: null ]'
p207
sS'MovementGranularity'
p208
g6
sa(dp209
S'EventTime'
p210
S'49457952'
p211
sg4
L1449972020844L
sS'recordCount'
p212
g6
sS'EventType'
p213
S'TYPE_WINDOW_STATE_CHANGED'
p214
sS'PackageName'
p215
S'com.xdf.ucan'
p216
sS'OutBounds'
p217
S'Rect(0, 0 - 480, 854)'
p218
sS'Action'
p219
S'[ ClassName: com.xdf.ucan.ui.login.LoginActivity; Text: [\xe4\xbc\x98\xe6\x92\xad\xe8\xaf\xbe]; ContentDescription: null; ItemCount: -1; CurrentItemIndex: -1; IsEnabled: true; IsPassword: false; IsChecked: false; IsFullScreen: true; Scrollable: false; BeforeText: null; FromIndex: -1; ToIndex: -1; ScrollX: -1; ScrollY: -1; MaxScrollX: -1; MaxScrollY: -1; AddedCount: -1; RemovedCount: -1; ParcelableData: null ]'
p220
sS'MovementGranularity'
p221
g6
sa(dp222
S'EventTime'
p223
S'49459780'
p224
sg4
L1449972022667L
sS'recordCount'
p225
g6
sS'EventType'
p226
S'TYPE_VIEW_CLICKED'
p227
sS'PackageName'
p228
S'com.xdf.ucan'
p229
sS'OutBounds'
p230
S'Rect(66, 638 - 108, 667)'
p231
sS'Action'
p232
S'[ ClassName: android.widget.TextView; Text: [\xe6\xb3\xa8\xe5\x86\x8c]; ContentDescription: null; ItemCount: -1; CurrentItemIndex: -1; IsEnabled: true; IsPassword: false; IsChecked: false; IsFullScreen: false; Scrollable: false; BeforeText: null; FromIndex: -1; ToIndex: -1; ScrollX: -1; ScrollY: -1; MaxScrollX: -1; MaxScrollY: -1; AddedCount: -1; RemovedCount: -1; ParcelableData: null ]'
p233
sS'MovementGranularity'
p234
g6
sa(dp235
S'EventTime'
p236
S'49459932'
p237
sg4
L1449972022841L
sS'recordCount'
p238
g6
sS'EventType'
p239
S'TYPE_VIEW_FOCUSED'
p240
sS'PackageName'
p241
S'com.xdf.ucan'
p242
sS'OutBounds'
p243
S'Rect(30, 140 - 300, 200)'
p244
sS'Action'
p245
S'[ ClassName: android.widget.EditText; Text: [\xe8\xbe\x93\xe5\x85\xa5\xe6\x89\x8b\xe6\x9c\xba\xe5\x8f\xb7]; ContentDescription: null; ItemCount: 5; CurrentItemIndex: 1; IsEnabled: true; IsPassword: false; IsChecked: false; IsFullScreen: false; Scrollable: false; BeforeText: null; FromIndex: -1; ToIndex: -1; ScrollX: -1; ScrollY: -1; MaxScrollX: -1; MaxScrollY: -1; AddedCount: -1; RemovedCount: -1; ParcelableData: null ]'
p246
sS'MovementGranularity'
p247
g6
sa(dp248
S'EventTime'
p249
S'49459943'
p250
sg4
L1449972022856L
sS'recordCount'
p251
g6
sS'EventType'
p252
S'TYPE_WINDOW_STATE_CHANGED'
p253
sS'PackageName'
p254
S'com.xdf.ucan'
p255
sS'OutBounds'
p256
S'Rect(0, 0 - 480, 854)'
p257
sS'Action'
p258
S'[ ClassName: com.xdf.ucan.ui.login.RegActivity; Text: [\xe4\xbc\x98\xe6\x92\xad\xe8\xaf\xbe]; ContentDescription: null; ItemCount: -1; CurrentItemIndex: -1; IsEnabled: true; IsPassword: false; IsChecked: false; IsFullScreen: true; Scrollable: false; BeforeText: null; FromIndex: -1; ToIndex: -1; ScrollX: -1; ScrollY: -1; MaxScrollX: -1; MaxScrollY: -1; AddedCount: -1; RemovedCount: -1; ParcelableData: null ]'
p259
sS'MovementGranularity'
p260
g6
sa(dp261
S'EventTime'
p262
S'49459993'
p263
sg4
L1449972022890L
sS'recordCount'
p264
g6
sS'EventType'
p265
S'TYPE_WINDOW_CONTENT_CHANGED'
p266
sS'PackageName'
p267
S'com.xdf.ucan'
p268
sS'OutBounds'
p269
S'Rect(0, 0 - 480, 854)'
p270
sS'Action'
p271
S'[ ClassName: android.widget.FrameLayout; Text: []; ContentDescription: null; ItemCount: -1; CurrentItemIndex: -1; IsEnabled: true; IsPassword: false; IsChecked: false; IsFullScreen: false; Scrollable: false; BeforeText: null; FromIndex: -1; ToIndex: -1; ScrollX: -1; ScrollY: -1; MaxScrollX: -1; MaxScrollY: -1; AddedCount: -1; RemovedCount: -1; ParcelableData: null ]'
p272
sS'MovementGranularity'
p273
g6
sa(dp274
S'EventTime'
p275
S'49460137'
p276
sg4
L1449972023041L
sS'recordCount'
p277
g6
sS'EventType'
p278
S'TYPE_WINDOW_CONTENT_CHANGED'
p279
sS'PackageName'
p280
S'com.xdf.ucan'
p281
sS'OutBounds'
p282
S'Rect(0, 0 - 480, 854)'
p283
sS'Action'
p284
S'[ ClassName: android.widget.FrameLayout; Text: []; ContentDescription: null; ItemCount: -1; CurrentItemIndex: -1; IsEnabled: true; IsPassword: false; IsChecked: false; IsFullScreen: false; Scrollable: false; BeforeText: null; FromIndex: -1; ToIndex: -1; ScrollX: -1; ScrollY: -1; MaxScrollX: -1; MaxScrollY: -1; AddedCount: -1; RemovedCount: -1; ParcelableData: null ]'
p285
sS'MovementGranularity'
p286
g6
sa(dp287
S'EventTime'
p288
S'49460155'
p289
sg4
L1449972023043L
sS'recordCount'
p290
g6
sS'EventType'
p291
S'TYPE_VIEW_TEXT_SELECTION_CHANGED'
p292
sS'PackageName'
p293
S'com.xdf.ucan'
p294
sS'Action'
p295
S'[ ClassName: android.widget.EditText; Text: []; ContentDescription: null; ItemCount: 0; CurrentItemIndex: -1; IsEnabled: true; IsPassword: true; IsChecked: false; IsFullScreen: false; Scrollable: false; BeforeText: null; FromIndex: 0; ToIndex: 0; ScrollX: -1; ScrollY: -1; MaxScrollX: -1; MaxScrollY: -1; AddedCount: -1; RemovedCount: -1; ParcelableData: null ]'
p296
sS'MovementGranularity'
p297
g6
sa(dp298
S'EventTime'
p299
S'49466215'
p300
sg4
L1449972029102L
sS'recordCount'
p301
g6
sS'EventType'
p302
S'TYPE_VIEW_CLICKED'
p303
sS'PackageName'
p304
S'com.xdf.ucan'
p305
sS'OutBounds'
p306
S'Rect(15, 38 - 93, 104)'
p307
sS'Action'
p308
S'[ ClassName: android.widget.TextView; Text: [\xe8\xbf\x94\xe5\x9b\x9e]; ContentDescription: null; ItemCount: -1; CurrentItemIndex: -1; IsEnabled: true; IsPassword: false; IsChecked: false; IsFullScreen: false; Scrollable: false; BeforeText: null; FromIndex: -1; ToIndex: -1; ScrollX: -1; ScrollY: -1; MaxScrollX: -1; MaxScrollY: -1; AddedCount: -1; RemovedCount: -1; ParcelableData: null ]'
p309
sS'MovementGranularity'
p310
g6
sa(dp311
S'EventTime'
p312
S'49466277'
p313
sg4
L1449972029174L
sS'recordCount'
p314
g6
sS'EventType'
p315
S'TYPE_WINDOW_STATE_CHANGED'
p316
sS'PackageName'
p317
S'com.xdf.ucan'
p318
sS'OutBounds'
p319
S'Rect(0, 0 - 480, 854)'
p320
sS'Action'
p321
S'[ ClassName: com.xdf.ucan.ui.login.LoginActivity; Text: [\xe4\xbc\x98\xe6\x92\xad\xe8\xaf\xbe]; ContentDescription: null; ItemCount: -1; CurrentItemIndex: -1; IsEnabled: true; IsPassword: false; IsChecked: false; IsFullScreen: true; Scrollable: false; BeforeText: null; FromIndex: -1; ToIndex: -1; ScrollX: -1; ScrollY: -1; MaxScrollX: -1; MaxScrollY: -1; AddedCount: -1; RemovedCount: -1; ParcelableData: null ]'
p322
sS'MovementGranularity'
p323
g6
sa(dp324
S'EventTime'
p325
S'49466432'
p326
sg4
L1449972029328L
sS'recordCount'
p327
g6
sS'EventType'
p328
S'TYPE_WINDOW_CONTENT_CHANGED'
p329
sS'PackageName'
p330
S'com.xdf.ucan'
p331
sS'OutBounds'
p332
S'Rect(0, 0 - 480, 854)'
p333
sS'Action'
p334
S'[ ClassName: android.widget.FrameLayout; Text: []; ContentDescription: null; ItemCount: -1; CurrentItemIndex: -1; IsEnabled: true; IsPassword: false; IsChecked: false; IsFullScreen: false; Scrollable: false; BeforeText: null; FromIndex: -1; ToIndex: -1; ScrollX: -1; ScrollY: -1; MaxScrollX: -1; MaxScrollY: -1; AddedCount: -1; RemovedCount: -1; ParcelableData: null ]'
p335
sS'MovementGranularity'
p336
g6
sa.