(lp0
(dp1
S'processID'
p2
S'10766'
p3
sS'SyscTime'
p4
L1449965017700L
sS'priority'
p5
S'E'
p6
sS'tag'
p7
S'Trace   '
p8
sS'threadID'
p9
S'10766'
p10
sS'message'
p11
S'error opening trace file: No such file or directory (2)\n'
p12
sa(dp13
g2
S'10766'
p14
sg4
L1449965017700L
sg5
S'D'
p15
sg7
S'ActivityThread'
p16
sg9
S'10766'
p17
sg11
S'setTargetHeapUtilization:0.25\n'
p18
sa(dp19
g2
S'10766'
p20
sg4
L1449965017700L
sg5
g15
sg7
S'ActivityThread'
p21
sg9
S'10766'
p22
sg11
S'setTargetHeapIdealFree:8388608\n'
p23
sa(dp24
g2
S'10766'
p25
sg4
L1449965017700L
sg5
g15
sg7
S'ActivityThread'
p26
sg9
S'10766'
p27
sg11
S'setTargetHeapConcurrentStart:2097152\n'
p28
sa(dp29
g2
S'10766'
p30
sg4
L1449965018190L
sg5
g15
sg7
S'ImageLoader'
p31
sg9
S'10766'
p32
sg11
S'Initialize ImageLoader with configuration\n'
p33
sa(dp34
g2
S'10766'
p35
sg4
L1449965018200L
sg5
g15
sg7
S'long    '
p36
sg9
S'10766'
p37
sg11
S'getCurProcessName:com.xdf.ucan\n'
p38
sa(dp39
g2
S'10766'
p40
sg4
L1449965018270L
sg5
g15
sg7
S'##KIT_io.rong.imkit.widget.provider.TextInputProvider:TextInputProvider'
p41
sg9
S'10766'
p42
sg11
S''
p43
sa(dp44
g2
S'10766'
p45
sg4
L1449965018270L
sg5
g6
sg7
S'##IPC_io.rong.imkit.widget.provider.VoIPInputProvider:VoIPInputProvider'
p46
sg9
S'10766'
p47
sg11
S'----------\xe6\x9e\x84\xe9\x80\xa0\xe6\x96\xb9\xe6\xb3\x95----------\n'
p48
sa(dp49
g2
S'10766'
p50
sg4
L1449965018280L
sg5
g15
sg7
S'##IPC_com.xdf.ucan.BaseApplication:RongIMClient : init'
p51
sg9
S'10766'
p52
sg11
S'process = com.xdf.ucan\n'
p53
sa(dp54
g2
S'10766'
p55
sg4
L1449965018300L
sg5
g15
sg7
S'##COMMON_io.rong.push.PushContext:PushContext'
p56
sg9
S'10766'
p57
sg11
S'init\n'
p58
sa(dp59
g2
S'10766'
p60
sg4
L1449965018840L
sg5
S'I'
p61
sg7
S'##COMMON_io.rong.push.PushContext:sendConnectCommand'
p62
sg9
S'10766'
p63
sg11
S'3000\n'
p64
sa(dp65
g2
S'10766'
p66
sg4
L1449965018840L
sg5
g15
sg7
S'##IPC_io.rong.imlib.RongIMClient:initBindService'
p67
sg9
S'10766'
p68
sg11
S'mIsBind = false\n'
p69
sa(dp70
g2
S'10766'
p71
sg4
L1449965018860L
sg5
g15
sg7
S'##IPC_io.rong.imlib.RongIMClient:registerMessageType'
p72
sg9
S'10766'
p73
sg11
S'class io.rong.message.TextMessage\n'
p74
sa(dp75
g2
S'10766'
p76
sg4
L1449965018860L
sg5
g15
sg7
S'##IPC_io.rong.imlib.RongIMClient:registerMessageType'
p77
sg9
S'10766'
p78
sg11
S'class io.rong.message.VoiceMessage\n'
p79
sa(dp80
g2
S'10766'
p81
sg4
L1449965018860L
sg5
g15
sg7
S'##IPC_io.rong.imlib.RongIMClient:registerMessageType'
p82
sg9
S'10766'
p83
sg11
S'class io.rong.message.ImageMessage\n'
p84
sa(dp85
g2
S'10766'
p86
sg4
L1449965018860L
sg5
g15
sg7
S'##IPC_io.rong.imlib.RongIMClient:registerMessageType'
p87
sg9
S'10766'
p88
sg11
S'class io.rong.message.LocationMessage\n'
p89
sa(dp90
g2
S'10766'
p91
sg4
L1449965018860L
sg5
g15
sg7
S'##IPC_io.rong.imlib.RongIMClient:registerMessageType'
p92
sg9
S'10766'
p93
sg11
S'class io.rong.message.CommandNotificationMessage\n'
p94
sa(dp95
g2
S'10766'
p96
sg4
L1449965018860L
sg5
g15
sg7
S'##IPC_io.rong.imlib.RongIMClient:registerMessageType'
p97
sg9
S'10766'
p98
sg11
S'class io.rong.message.ContactNotificationMessage\n'
p99
sa(dp100
g2
S'10766'
p101
sg4
L1449965018860L
sg5
g15
sg7
S'##IPC_io.rong.imlib.RongIMClient:registerMessageType'
p102
sg9
S'10766'
p103
sg11
S'class io.rong.message.RichContentMessage\n'
p104
sa(dp105
g2
S'10766'
p106
sg4
L1449965018860L
sg5
g15
sg7
S'##IPC_io.rong.imlib.RongIMClient:registerMessageType'
p107
sg9
S'10766'
p108
sg11
S'class io.rong.message.PublicServiceMultiRichContentMessage\n'
p109
sa(dp110
g2
S'10766'
p111
sg4
L1449965018860L
sg5
g15
sg7
S'##IPC_io.rong.imlib.RongIMClient:registerMessageType'
p112
sg9
S'10766'
p113
sg11
S'class io.rong.message.PublicServiceRichContentMessage\n'
p114
sa(dp115
g2
S'10766'
p116
sg4
L1449965018860L
sg5
g15
sg7
S'##IPC_io.rong.imlib.RongIMClient:registerMessageType'
p117
sg9
S'10766'
p118
sg11
S'class io.rong.message.PublicServiceCommandMessage\n'
p119
sa(dp120
g2
S'10766'
p121
sg4
L1449965018860L
sg5
g15
sg7
S'##IPC_io.rong.imlib.RongIMClient:registerMessageType'
p122
sg9
S'10766'
p123
sg11
S'class io.rong.message.ProfileNotificationMessage\n'
p124
sa(dp125
g2
S'10766'
p126
sg4
L1449965018860L
sg5
g15
sg7
S'##IPC_io.rong.imlib.RongIMClient:registerMessageType'
p127
sg9
S'10766'
p128
sg11
S'class io.rong.message.HandshakeMessage\n'
p129
sa(dp130
g2
S'10766'
p131
sg4
L1449965018860L
sg5
g15
sg7
S'##IPC_io.rong.imlib.RongIMClient:registerMessageType'
p132
sg9
S'10766'
p133
sg11
S'class io.rong.message.InformationNotificationMessage\n'
p134
sa(dp135
g2
S'10766'
p136
sg4
L1449965018860L
sg5
g15
sg7
S'##IPC_io.rong.imlib.RongIMClient:registerMessageType'
p137
sg9
S'10766'
p138
sg11
S'class io.rong.message.DiscussionNotificationMessage\n'
p139
sa(dp140
g2
S'10766'
p141
sg4
L1449965018860L
sg5
g15
sg7
S'##IPC_io.rong.imlib.RongIMClient:registerMessageType'
p142
sg9
S'10766'
p143
sg11
S'class io.rong.message.SuspendMessage\n'
p144
sa(dp145
g2
S'10766'
p146
sg4
L1449965018870L
sg5
g6
sg7
S'##KIT_com.xdf.ucan.BaseApplication:init'
p147
sg9
S'10766'
p148
sg11
S'before init\n'
p149
sa(dp150
g2
S'10766'
p151
sg4
L1449965018870L
sg5
g15
sg7
S'##IPC_io.rong.imlib.RongIMClient:registerMessageType'
p152
sg9
S'10766'
p153
sg11
S'class io.rong.voipkit.message.VoIPAcceptMessage\n'
p154
sa(dp155
g2
S'10766'
p156
sg4
L1449965018870L
sg5
g15
sg7
S'##IPC_io.rong.imlib.RongIMClient:registerMessageType'
p157
sg9
S'10766'
p158
sg11
S'class io.rong.voipkit.message.VoIPCallMessage\n'
p159
sa(dp160
g2
S'10766'
p161
sg4
L1449965018870L
sg5
g15
sg7
S'##IPC_io.rong.imlib.RongIMClient:registerMessageType'
p162
sg9
S'10766'
p163
sg11
S'class io.rong.voipkit.message.VoIPFinishMessage\n'
p164
sa(dp165
g2
S'10788'
p166
sg4
L1449965018910L
sg5
g6
sg7
S'Trace   '
p167
sg9
S'10788'
p168
sg11
S'error opening trace file: No such file or directory (2)\n'
p169
sa(dp170
g2
S'10788'
p171
sg4
L1449965018910L
sg5
g15
sg7
S'ActivityThread'
p172
sg9
S'10788'
p173
sg11
S'setTargetHeapUtilization:0.25\n'
p174
sa(dp175
g2
S'10788'
p176
sg4
L1449965018910L
sg5
g15
sg7
S'ActivityThread'
p177
sg9
S'10788'
p178
sg11
S'setTargetHeapIdealFree:8388608\n'
p179
sa(dp180
g2
S'10788'
p181
sg4
L1449965018910L
sg5
g15
sg7
S'ActivityThread'
p182
sg9
S'10788'
p183
sg11
S'setTargetHeapConcurrentStart:2097152\n'
p184
sa(dp185
g2
S'10766'
p186
sg4
L1449965019240L
sg5
g61
sg7
S'##KIT_com.xdf.ucan.RongCloudEvent:RongIMClientWrapper'
p187
sg9
S'10766'
p188
sg11
S'setOnReceiveMessageListener\n'
p189
sa(dp190
g2
S'10788'
p191
sg4
L1449965019290L
sg5
g15
sg7
S'ImageLoader'
p192
sg9
S'10788'
p193
sg11
S'Initialize ImageLoader with configuration\n'
p194
sa(dp195
g2
S'10788'
p196
sg4
L1449965019290L
sg5
g15
sg7
S'long    '
p197
sg9
S'10788'
p198
sg11
S'getCurProcessName:com.xdf.ucan:ipc\n'
p199
sa(dp200
g2
S'10788'
p201
sg4
L1449965019300L
sg5
g15
sg7
S'RongService'
p202
sg9
S'10788'
p203
sg11
S'onCreate, pid=10788\n'
p204
sa(dp205
g2
S'10788'
p206
sg4
L1449965019300L
sg5
g15
sg7
S'RongService'
p207
sg9
S'10788'
p208
sg11
S'onBind, pid=10788\n'
p209
sa(dp210
g2
S'10766'
p211
sg4
L1449965019420L
sg5
g61
sg7
S'LBE-Sec '
p212
sg9
S'10766'
p213
sg11
S'ActivityManager.GetContentProvider->settings\n'
p214
sa(dp215
g2
S'10766'
p216
sg4
L1449965019520L
sg5
g61
sg7
S'Adreno200-EGL'
p217
sg9
S'10766'
p218
sg11
S'<qeglDrvAPI_eglInitialize:299>: EGL 1.4 QUALCOMM build: AU_LINUX_ANDROID_JB_REL_RB1.04.01.01.06.041_msm8660_surf_JB_REL_RB1.2_Merge_release_AU (Merge)\nBuild Date: 11/05/12 Mon\nLocal Branch: mybranch425650\nRemote Branch: quic/jb_rel_rb1.2\nLocal Patches: NONE\nReconstruct Branch: AU_LINUX_ANDROID_JB_REL_RB1.04.01.01.06.041 +  NOTHING\n'
p219
sa(dp220
g2
S'10788'
p221
sg4
L1449965019560L
sg5
g61
sg7
S'##COMMON_io.rong.imlib.LibContext:DeviceId'
p222
sg9
S'10788'
p223
sg11
S'867746013051545\n'
p224
sa(dp225
g2
S'10788'
p226
sg4
L1449965020170L
sg5
g15
sg7
S'NativeClient'
p227
sg9
S'10788'
p228
sg11
S'/storage/sdcard0/Android/data/com.xdf.ucan/RongCloud||/data/data/com.xdf.ucan/files\n'
p229
sa(dp230
g2
S'10766'
p231
sg4
L1449965020230L
sg5
g15
sg7
S'##IPC_io.rong.imlib.RongIMClient:onServiceConnected'
p232
sg9
S'10766'
p233
sg11
S'mConnectionStatus = DISCONNECTED, stub = io.rong.imlib.ipc.remote.IHandler$Stub$Proxy@42be10b8\n'
p234
sa(dp235
g2
S'10766'
p236
sg4
L1449965020540L
sg5
g15
sg7
S'##IPC_io.rong.imlib.ConnectChangeReceiver:onReceive'
p237
sg9
S'10766'
p238
sg11
S'network:true, intent:Intent { act=android.net.conn.CONNECTIVITY_CHANGE flg=0x8000010 (has extras) }\n'
p239
sa(dp240
g2
S'10766'
p241
sg4
L1449965020980L
sg5
g15
sg7
S'dalvikvm'
p242
sg9
S'10766'
p243
sg11
S'GC_FOR_ALLOC freed 5018K, 40% free 9264K/15363K, paused 42ms, total 44ms\n'
p244
sa(dp245
g2
S'10766'
p246
sg4
L1449965021500L
sg5
g15
sg7
S'long    '
p247
sg9
S'10766'
p248
sg11
S'cancle request\xef\xbc\x9acom.xdf.ucan.ui.login.StartActivity\n'
p249
sa(dp250
g2
S'10766'
p251
sg4
L1449965021740L
sg5
g15
sg7
S'##IPC_io.rong.imlib.ConnectChangeReceiver:onReceive'
p252
sg9
S'10766'
p253
sg11
S'network:true, intent:Intent { act=action_reconnect flg=0x14 pkg=com.xdf.ucan cmp=com.xdf.ucan/io.rong.imlib.ConnectChangeReceiver (has extras) }\n'
p254
sa(dp255
g2
S'10766'
p256
sg4
L1449965021830L
sg5
g15
sg7
S'##IPC_io.rong.imlib.ReConnectService:RECONNECT'
p257
sg9
S'10824'
p258
sg11
S'Intent { cmp=com.xdf.ucan/io.rong.imlib.ReConnectService (has extras) }\n'
p259
sa(dp260
g2
S'10766'
p261
sg4
L1449965021830L
sg5
g15
sg7
S'##IPC_io.rong.imlib.RongIMClient:reconnect'
p262
sg9
S'10824'
p263
sg11
S'mConnectionStatus :DISCONNECTED\n'
p264
sa(dp265
g2
S'10825'
p266
sg4
L1449965021900L
sg5
g6
sg7
S'Trace   '
p267
sg9
S'10825'
p268
sg11
S'error opening trace file: No such file or directory (2)\n'
p269
sa(dp270
g2
S'10825'
p271
sg4
L1449965021900L
sg5
g15
sg7
S'ActivityThread'
p272
sg9
S'10825'
p273
sg11
S'setTargetHeapUtilization:0.25\n'
p274
sa(dp275
g2
S'10825'
p276
sg4
L1449965021900L
sg5
g15
sg7
S'ActivityThread'
p277
sg9
S'10825'
p278
sg11
S'setTargetHeapIdealFree:8388608\n'
p279
sa(dp280
g2
S'10825'
p281
sg4
L1449965021900L
sg5
g15
sg7
S'ActivityThread'
p282
sg9
S'10825'
p283
sg11
S'setTargetHeapConcurrentStart:2097152\n'
p284
sa(dp285
g2
S'10825'
p286
sg4
L1449965022240L
sg5
g15
sg7
S'ImageLoader'
p287
sg9
S'10825'
p288
sg11
S'Initialize ImageLoader with configuration\n'
p289
sa(dp290
g2
S'10825'
p291
sg4
L1449965022250L
sg5
g15
sg7
S'long    '
p292
sg9
S'10825'
p293
sg11
S'getCurProcessName:io.rong.push\n'
p294
sa(dp295
g2
S'10825'
p296
sg4
L1449965022270L
sg5
g15
sg7
S'##IPC_com.xdf.ucan.BaseApplication:RongIMClient : init'
p297
sg9
S'10825'
p298
sg11
S'process = io.rong.push\n'
p299
sa(dp300
g2
S'10825'
p301
sg4
L1449965022280L
sg5
g15
sg7
S'##COMMON_io.rong.push.PushContext:PushContext'
p302
sg9
S'10825'
p303
sg11
S'init\n'
p304
sa(dp305
g2
S'10825'
p306
sg4
L1449965022370L
sg5
g61
sg7
S'##COMMON_io.rong.push.PushContext:sendConnectCommand'
p307
sg9
S'10825'
p308
sg11
S'2400\n'
p309
sa(dp310
g2
S'10825'
p311
sg4
L1449965022380L
sg5
g61
sg7
S'##COMMON_io.rong.push.PushReceiver:Action'
p312
sg9
S'10825'
p313
sg11
S'io.rong.push.Connect\n'
p314
sa(dp315
g2
S'10825'
p316
sg4
L1449965022390L
sg5
g61
sg7
S'##COMMON_io.rong.push.PushReceiver:ACTION_CONNECT'
p317
sg9
S'10825'
p318
sg11
S'version is null, run connect\n'
p319
sa(dp320
g2
S'10825'
p321
sg4
L1449965022400L
sg5
g61
sg7
S'##COMMON_java.lang.Class:PushService'
p322
sg9
S'10825'
p323
sg11
S'PushService OnCreate\n'
p324
sa(dp325
g2
S'10825'
p326
sg4
L1449965022400L
sg5
g61
sg7
S'PushService'
p327
sg9
S'10825'
p328
sg11
S'PushService OnCreate\n'
p329
sa(dp330
g2
S'10825'
p331
sg4
L1449965022420L
sg5
g61
sg7
S'##COMMON_io.rong.push.PushService:CONNECT_CHECK'
p332
sg9
S'10840'
p333
sg11
S'getRunningPushServiceVersion null\n'
p334
sa(dp335
g2
S'10825'
p336
sg4
L1449965022420L
sg5
g61
sg7
S'##COMMON_io.rong.push.PushService.PushHandler:PushHandler'
p337
sg9
S'10840'
p338
sg11
S'ConnectToServer,isClientConnected = false\n'
p339
sa(dp340
g2
S'10825'
p341
sg4
L1449965022570L
sg5
g61
sg7
S'##COMMON_io.rong.push.PushService:DeviceId'
p342
sg9
S'10840'
p343
sg11
S'867746013051545\n'
p344
sa(dp345
g2
S'10825'
p346
sg4
L1449965022580L
sg5
g61
sg7
S'##COMMON_io.rong.push.PushService.PushHandler:PushHandler'
p347
sg9
S'10840'
p348
sg11
S'the saved IP = 119.254.110.62:8605\n'
p349
sa(dp350
g2
S'10825'
p351
sg4
L1449965022580L
sg5
g61
sg7
S'PushHandler'
p352
sg9
S'10840'
p353
sg11
S'the saved time = 1449922701281current time = 1449965022584\n'
p354
sa(dp355
g2
S'10825'
p356
sg4
L1449965022580L
sg5
g61
sg7
S'PushHandler'
p357
sg9
S'10840'
p358
sg11
S'return true\n'
p359
sa(dp360
g2
S'10825'
p361
sg4
L1449965022790L
sg5
g61
sg7
S'##COMMON_io.rong.push.PushService.PushHandler:PushHandler'
p362
sg9
S'10840'
p363
sg11
S'ConnectToServer,the httpString is = {"code":200,"server":"119.254.110.62:8605"}\n'
p364
sa(dp365
g2
S'10825'
p366
sg4
L1449965022800L
sg5
g61
sg7
S'##COMMON_io.rong.push.PushService.PushHandler:PushHandler'
p367
sg9
S'10840'
p368
sg11
S'ConnectToServer,use the new IP, IP = 119.254.110.62:8605time is:1449965022801\n'
p369
sa(dp370
g2
S'10825'
p371
sg4
L1449965022830L
sg5
g61
sg7
S'##COMMON_io.rong.push.PushService:getPhoneInformation.'
p372
sg9
S'10840'
p373
sg11
S'the phone information is:Xiaomi|MI 1S|16|WIFI|46000\n'
p374
sa(dp375
g2
S'10825'
p376
sg4
L1449965022830L
sg5
g61
sg7
S'##COMMON_io.rong.push.PushClient:connect'
p377
sg9
S'10840'
p378
sg11
S'phone info:Xiaomi|MI 1S|16|WIFI|46000 push version:2.6\n'
p379
sa(dp380
g2
S'10825'
p381
sg4
L1449965022830L
sg5
g61
sg7
S'##COMMON_io.rong.push.PushClient:connect'
p382
sg9
S'10840'
p383
sg11
S'the socket is established\n'
p384
sa(dp385
g2
S'10825'
p386
sg4
L1449965022980L
sg5
g61
sg7
S'##COMMON_io.rong.push.PushClient:Handler'
p387
sg9
S'10845'
p388
sg11
S'CONNACK\n'
p389
sa(dp390
g2
S'10825'
p391
sg4
L1449965022980L
sg5
g61
sg7
S'PushService'
p392
sg9
S'10845'
p393
sg11
S'The client connect status is:CONNACK\n'
p394
sa(dp395
g2
S'10825'
p396
sg4
L1449965022980L
sg5
g61
sg7
S'##COMMON_io.rong.push.PushService:Connect'
p397
sg9
S'10845'
p398
sg11
S'Client connect successfully.So start the heart beat.\n'
p399
sa(dp400
g2
S'10825'
p401
sg4
L1449965022980L
sg5
g61
sg7
S'##COMMON_io.rong.push.PushContext:Heartbeat'
p402
sg9
S'10845'
p403
sg11
S'start_next\n'
p404
sa(dp405
g2
S'10766'
p406
sg4
L1449965023300L
sg5
g61
sg7
S'MiuiMagnifierController'
p407
sg9
S'10766'
p408
sg11
S'MagnifierController is created\n'
p409
sa(dp410
g2
S'10766'
p411
sg4
L1449965023350L
sg5
g61
sg7
S'MiuiCursorController'
p412
sg9
S'10766'
p413
sg11
S'InsertionPointCursorController is hidden including all panels and handle\n'
p414
sa(dp415
g2
S'10766'
p416
sg4
L1449965023350L
sg5
g61
sg7
S'MiuiHandleView'
p417
sg9
S'10766'
p418
sg11
S'To hide the MagnifierInsertionHandleView, just delay\n'
p419
sa(dp420
g2
S'10766'
p421
sg4
L1449965023370L
sg5
g61
sg7
S'MiuiCursorController'
p422
sg9
S'10766'
p423
sg11
S'InsertionPointCursorController show:[false, false, true, true]\n'
p424
sa(dp425
g2
S'10766'
p426
sg4
L1449965023370L
sg5
g61
sg7
S'MiuiCursorController'
p427
sg9
S'10766'
p428
sg11
S'InsertionPointCursorController is shown with hidden panels and shown handle\n'
p429
sa(dp430
g2
S'10766'
p431
sg4
L1449965023370L
sg5
g61
sg7
S'MiuiHandleView'
p432
sg9
S'10766'
p433
sg11
S'HandleView [0] is shown\n'
p434
sa(dp435
g2
S'10766'
p436
sg4
L1449965023370L
sg5
g61
sg7
S'MiuiCursorController'
p437
sg9
S'10766'
p438
sg11
S'Show InsertionPointCursorController in one shot context\n'
p439
sa(dp440
g2
S'10825'
p441
sg4
L1449965024770L
sg5
g61
sg7
S'##COMMON_io.rong.push.PushReceiver:Action'
p442
sg9
S'10825'
p443
sg11
S'io.rong.push.Connect\n'
p444
sa(dp445
g2
S'10825'
p446
sg4
L1449965024790L
sg5
g61
sg7
S'##COMMON_io.rong.push.PushReceiver:ACTION_CONNECT'
p447
sg9
S'10825'
p448
sg11
S'version is null, run connect\n'
p449
sa(dp450
g2
S'10825'
p451
sg4
L1449965024800L
sg5
g61
sg7
S'##COMMON_io.rong.push.PushService:CONNECT_CHECK'
p452
sg9
S'10840'
p453
sg11
S'getRunningPushServiceVersion null\n'
p454
sa(dp455
g2
S'10825'
p456
sg4
L1449965024800L
sg5
g61
sg7
S'##COMMON_io.rong.push.PushService.PushHandler:PushHandler'
p457
sg9
S'10840'
p458
sg11
S'ConnectToServer,isClientConnected = true\n'
p459
sa(dp460
g2
S'10766'
p461
sg4
L1449965025510L
sg5
g61
sg7
S'MiuiCursorController'
p462
sg9
S'10766'
p463
sg11
S'InsertionPointCursorController is hidden including all panels and handle\n'
p464
sa(dp465
g2
S'10766'
p466
sg4
L1449965025810L
sg5
g61
sg7
S'MiuiCursorController'
p467
sg9
S'10766'
p468
sg11
S'InsertionPointCursorController is hidden including all panels and handle\n'
p469
sa(dp470
g2
S'10766'
p471
sg4
L1449965030950L
sg5
g15
sg7
S'http    '
p472
sg9
S'10766'
p473
sg11
S'\xe8\xaf\xb7\xe6\xb1\x82\xe7\x9a\x84\xe5\x9c\xb0\xe5\x9d\x80\xef\xbc\x9ahttp://passport.xdf.cn/apis/usersv2.ashx\n'
p474
sa(dp475
g2
S'10766'
p476
sg4
L1449965030950L
sg5
g15
sg7
S'http    '
p477
sg9
S'10766'
p478
sg11
S'\xe8\xaf\xb7\xe6\xb1\x82\xe7\x9a\x84\xe5\x8f\x82\xe6\x95\xb0\xef\xbc\x9amethod=SmsLoginSendSmsCodeV5&appid=90116&mobile=18771021239&guid=61472b14-bfb0-4d76-b437-b427f1f3ed24&sign=FBB508402FC0EB78666005659D145F51\n'
p479
sa(dp480
g2
S'10766'
p481
sg4
L1449965030950L
sg5
g15
sg7
S'long    '
p482
sg9
S'10766'
p483
sg11
S'context.getClass().getName():com.xdf.ucan.ui.login.RegActivity\n'
p484
sa(dp485
g2
S'10766'
p486
sg4
L1449965031260L
sg5
S'V'
p487
sg7
S'AsyncHttpRH'
p488
sg9
S'10766'
p489
sg11
S'Progress 41 from 41 (100%)\n'
p490
sa(dp491
g2
S'10766'
p492
sg4
L1449965031260L
sg5
g15
sg7
S'http    '
p493
sg9
S'10766'
p494
sg11
S'\xe8\xbf\x94\xe5\x9b\x9e\xe7\x9a\x84\xe7\xbb\x93\xe6\x9e\x9c\xef\xbc\x9a{"Status":1,"Data":"","Message":"\xe6\x88\x90\xe5\x8a\x9f"}\n'
p495
sa(dp496
g2
S'10766'
p497
sg4
L1449965058810L
sg5
g61
sg7
S'MiuiMagnifierController'
p498
sg9
S'10766'
p499
sg11
S'MagnifierController is created\n'
p500
sa(dp501
g2
S'10766'
p502
sg4
L1449965058900L
sg5
g61
sg7
S'MiuiCursorController'
p503
sg9
S'10766'
p504
sg11
S'InsertionPointCursorController is hidden including all panels and handle\n'
p505
sa(dp506
g2
S'10766'
p507
sg4
L1449965058900L
sg5
g61
sg7
S'MiuiHandleView'
p508
sg9
S'10766'
p509
sg11
S'To hide the MagnifierInsertionHandleView, just delay\n'
p510
sa(dp511
g2
S'10766'
p512
sg4
L1449965058900L
sg5
g61
sg7
S'MiuiCursorController'
p513
sg9
S'10766'
p514
sg11
S'InsertionPointCursorController show:[false, false, true, true]\n'
p515
sa(dp516
g2
S'10766'
p517
sg4
L1449965058900L
sg5
g61
sg7
S'MiuiCursorController'
p518
sg9
S'10766'
p519
sg11
S'InsertionPointCursorController is shown with hidden panels and shown handle\n'
p520
sa(dp521
g2
S'10766'
p522
sg4
L1449965058900L
sg5
g61
sg7
S'MiuiHandleView'
p523
sg9
S'10766'
p524
sg11
S'HandleView [0] is shown\n'
p525
sa(dp526
g2
S'10766'
p527
sg4
L1449965058900L
sg5
g61
sg7
S'MiuiCursorController'
p528
sg9
S'10766'
p529
sg11
S'Show InsertionPointCursorController in one shot context\n'
p530
sa(dp531
g2
S'10766'
p532
sg4
L1449965076970L
sg5
g61
sg7
S'MiuiCursorController'
p533
sg9
S'10766'
p534
sg11
S'InsertionPointCursorController is hidden including all panels and handle\n'
p535
sa(dp536
g2
S'10766'
p537
sg4
L1449965081080L
sg5
g15
sg7
S'http    '
p538
sg9
S'10766'
p539
sg11
S'\xe8\xaf\xb7\xe6\xb1\x82\xe7\x9a\x84\xe5\x9c\xb0\xe5\x9d\x80\xef\xbc\x9ahttp://passport.xdf.cn/apis/usersv2.ashx\n'
p540
sa(dp541
g2
S'10766'
p542
sg4
L1449965081080L
sg5
g15
sg7
S'http    '
p543
sg9
S'10766'
p544
sg11
S'\xe8\xaf\xb7\xe6\xb1\x82\xe7\x9a\x84\xe5\x8f\x82\xe6\x95\xb0\xef\xbc\x9amethod=SmsLoginSendSmsCodeV5&appid=90116&mobile=18771021239&guid=bf4631dc-1c19-4f38-a057-0fbdef0ab56e&sign=C4CB34364994F3CD1F61479C49A9ABBB\n'
p545
sa(dp546
g2
S'10766'
p547
sg4
L1449965081080L
sg5
g15
sg7
S'long    '
p548
sg9
S'10766'
p549
sg11
S'context.getClass().getName():com.xdf.ucan.ui.login.RegActivity\n'
p550
sa(dp551
g2
S'10766'
p552
sg4
L1449965081190L
sg5
g487
sg7
S'AsyncHttpRH'
p553
sg9
S'10766'
p554
sg11
S'Progress 79 from 79 (100%)\n'
p555
sa(dp556
g2
S'10766'
p557
sg4
L1449965081190L
sg5
g15
sg7
S'http    '
p558
sg9
S'10766'
p559
sg11
S'\xe8\xbf\x94\xe5\x9b\x9e\xe7\x9a\x84\xe7\xbb\x93\xe6\x9e\x9c\xef\xbc\x9a{"Status":-2,"Data":"","Message":"\xe7\x9b\xb8\xe5\x90\x8c\xe6\x89\x8b\xe6\x9c\xba1\xe5\x88\x86\xe9\x92\x9f\xe5\x86\x85\xe8\xaf\xb7\xe5\x8b\xbf\xe9\x87\x8d\xe5\xa4\x8d\xe5\x8f\x91\xe7\x9f\xad\xe4\xbf\xa1"}\n'
p560
sa(dp561
g2
S'10766'
p562
sg4
L1449965093100L
sg5
g61
sg7
S'MiuiCursorController'
p563
sg9
S'10766'
p564
sg11
S'InsertionPointCursorController is hidden including all panels and handle\n'
p565
sa(dp566
g2
S'10766'
p567
sg4
L1449965093230L
sg5
S'W'
p568
sg7
S'IInputConnectionWrapper'
p569
sg9
S'10766'
p570
sg11
S'showStatusIcon on inactive InputConnection\n'
p571
sa(dp572
g2
S'10766'
p573
sg4
L1449965093420L
sg5
g61
sg7
S'MiuiCursorController'
p574
sg9
S'10766'
p575
sg11
S'InsertionPointCursorController is hidden including all panels and handle\n'
p576
sa(dp577
g2
S'10766'
p578
sg4
L1449965126390L
sg5
g568
sg7
S'IInputConnectionWrapper'
p579
sg9
S'10766'
p580
sg11
S'beginBatchEdit on inactive InputConnection\n'
p581
sa(dp582
g2
S'10766'
p583
sg4
L1449965126390L
sg5
g568
sg7
S'IInputConnectionWrapper'
p584
sg9
S'10766'
p585
sg11
S'getTextBeforeCursor on inactive InputConnection\n'
p586
sa(dp587
g2
S'10766'
p588
sg4
L1449965126390L
sg5
g568
sg7
S'IInputConnectionWrapper'
p589
sg9
S'10766'
p590
sg11
S'endBatchEdit on inactive InputConnection\n'
p591
sa(dp592
g2
S'10766'
p593
sg4
L1449965133130L
sg5
g61
sg7
S'MiuiCursorController'
p594
sg9
S'10766'
p595
sg11
S'InsertionPointCursorController is hidden including all panels and handle\n'
p596
sa(dp597
g2
S'10825'
p598
sg4
L1449965203040L
sg5
g61
sg7
S'##COMMON_io.rong.push.PushReceiver:Action'
p599
sg9
S'10825'
p600
sg11
S'io.rong.push.HeartBeat\n'
p601
sa(dp602
g2
S'10825'
p603
sg4
L1449965203040L
sg5
g61
sg7
S'##COMMON_io.rong.push.PushReceiver:ACTION_HEARTBEAT'
p604
sg9
S'10825'
p605
sg11
S'Receive heartbeat action.\n'
p606
sa(dp607
g2
S'10825'
p608
sg4
L1449965203060L
sg5
g61
sg7
S'##COMMON_io.rong.push.PushClient:Ping'
p609
sg9
S'10840'
p610
sg11
S'/119.254.110.62\n'
p611
sa(dp612
g2
S'10825'
p613
sg4
L1449965203060L
sg5
g61
sg7
S'##COMMON_io.rong.push.PushService.PushHandler:ping'
p614
sg9
S'10840'
p615
sg11
S'Reconnect in 30 sec later if no PINGRESP received.\n'
p616
sa(dp617
g2
S'10825'
p618
sg4
L1449965203060L
sg5
g61
sg7
S'##COMMON_io.rong.push.PushContext:Heartbeat'
p619
sg9
S'10840'
p620
sg11
S'start_next\n'
p621
sa(dp622
g2
S'10825'
p623
sg4
L1449965205890L
sg5
g61
sg7
S'##COMMON_io.rong.push.PushClient:Handler'
p624
sg9
S'10845'
p625
sg11
S'PINGRESP\n'
p626
sa(dp627
g2
S'10825'
p628
sg4
L1449965205940L
sg5
g61
sg7
S'##COMMON_io.rong.push.PushService.PushHandler.PingSuccessListener:PingSuccessListener'
p629
sg9
S'10845'
p630
sg11
S'Receive PingResp. Cancel the runnable.\n'
p631
sa(dp632
g2
S'10825'
p633
sg4
L1449965392050L
sg5
g61
sg7
S'##COMMON_io.rong.push.PushReceiver:Action'
p634
sg9
S'10825'
p635
sg11
S'io.rong.push.HeartBeat\n'
p636
sa(dp637
g2
S'10825'
p638
sg4
L1449965392050L
sg5
g61
sg7
S'##COMMON_io.rong.push.PushReceiver:ACTION_HEARTBEAT'
p639
sg9
S'10825'
p640
sg11
S'Receive heartbeat action.\n'
p641
sa(dp642
g2
S'10825'
p643
sg4
L1449965392080L
sg5
g61
sg7
S'##COMMON_io.rong.push.PushClient:Ping'
p644
sg9
S'10840'
p645
sg11
S'/119.254.110.62\n'
p646
sa(dp647
g2
S'10825'
p648
sg4
L1449965392090L
sg5
g61
sg7
S'##COMMON_io.rong.push.PushService.PushHandler:ping'
p649
sg9
S'10840'
p650
sg11
S'Reconnect in 30 sec later if no PINGRESP received.\n'
p651
sa(dp652
g2
S'10825'
p653
sg4
L1449965392090L
sg5
g61
sg7
S'##COMMON_io.rong.push.PushContext:Heartbeat'
p654
sg9
S'10840'
p655
sg11
S'start_next\n'
p656
sa(dp657
g2
S'10825'
p658
sg4
L1449965393820L
sg5
g61
sg7
S'##COMMON_io.rong.push.PushClient:Handler'
p659
sg9
S'10845'
p660
sg11
S'PINGRESP\n'
p661
sa(dp662
g2
S'10825'
p663
sg4
L1449965393820L
sg5
g61
sg7
S'##COMMON_io.rong.push.PushService.PushHandler.PingSuccessListener:PingSuccessListener'
p664
sg9
S'10845'
p665
sg11
S'Receive PingResp. Cancel the runnable.\n'
p666
sa(dp667
g2
S'10825'
p668
sg4
L1449965572100L
sg5
g61
sg7
S'##COMMON_io.rong.push.PushReceiver:Action'
p669
sg9
S'10825'
p670
sg11
S'io.rong.push.HeartBeat\n'
p671
sa(dp672
g2
S'10825'
p673
sg4
L1449965572100L
sg5
g61
sg7
S'##COMMON_io.rong.push.PushReceiver:ACTION_HEARTBEAT'
p674
sg9
S'10825'
p675
sg11
S'Receive heartbeat action.\n'
p676
sa(dp677
g2
S'10825'
p678
sg4
L1449965572120L
sg5
g61
sg7
S'##COMMON_io.rong.push.PushClient:Ping'
p679
sg9
S'10840'
p680
sg11
S'/119.254.110.62\n'
p681
sa(dp682
g2
S'10825'
p683
sg4
L1449965572120L
sg5
g61
sg7
S'##COMMON_io.rong.push.PushService.PushHandler:ping'
p684
sg9
S'10840'
p685
sg11
S'Reconnect in 30 sec later if no PINGRESP received.\n'
p686
sa(dp687
g2
S'10825'
p688
sg4
L1449965572120L
sg5
g61
sg7
S'##COMMON_io.rong.push.PushContext:Heartbeat'
p689
sg9
S'10840'
p690
sg11
S'start_next\n'
p691
sa(dp692
g2
S'10825'
p693
sg4
L1449965573820L
sg5
g61
sg7
S'##COMMON_io.rong.push.PushClient:Handler'
p694
sg9
S'10845'
p695
sg11
S'PINGRESP\n'
p696
sa(dp697
g2
S'10825'
p698
sg4
L1449965573820L
sg5
g61
sg7
S'##COMMON_io.rong.push.PushService.PushHandler.PingSuccessListener:PingSuccessListener'
p699
sg9
S'10845'
p700
sg11
S'Receive PingResp. Cancel the runnable.\n'
p701
sa(dp702
g2
S'10825'
p703
sg4
L1449965753060L
sg5
g61
sg7
S'##COMMON_io.rong.push.PushReceiver:Action'
p704
sg9
S'10825'
p705
sg11
S'io.rong.push.HeartBeat\n'
p706
sa(dp707
g2
S'10825'
p708
sg4
L1449965753060L
sg5
g61
sg7
S'##COMMON_io.rong.push.PushReceiver:ACTION_HEARTBEAT'
p709
sg9
S'10825'
p710
sg11
S'Receive heartbeat action.\n'
p711
sa(dp712
g2
S'10825'
p713
sg4
L1449965753090L
sg5
g61
sg7
S'##COMMON_io.rong.push.PushClient:Ping'
p714
sg9
S'10840'
p715
sg11
S'/119.254.110.62\n'
p716
sa(dp717
g2
S'10825'
p718
sg4
L1449965753090L
sg5
g61
sg7
S'##COMMON_io.rong.push.PushService.PushHandler:ping'
p719
sg9
S'10840'
p720
sg11
S'Reconnect in 30 sec later if no PINGRESP received.\n'
p721
sa(dp722
g2
S'10825'
p723
sg4
L1449965753090L
sg5
g61
sg7
S'##COMMON_io.rong.push.PushContext:Heartbeat'
p724
sg9
S'10840'
p725
sg11
S'start_next\n'
p726
sa(dp727
g2
S'10825'
p728
sg4
L1449965754810L
sg5
g61
sg7
S'##COMMON_io.rong.push.PushClient:Handler'
p729
sg9
S'10845'
p730
sg11
S'PINGRESP\n'
p731
sa(dp732
g2
S'10825'
p733
sg4
L1449965754810L
sg5
g61
sg7
S'##COMMON_io.rong.push.PushService.PushHandler.PingSuccessListener:PingSuccessListener'
p734
sg9
S'10845'
p735
sg11
S'Receive PingResp. Cancel the runnable.\n'
p736
sa(dp737
g2
S'10825'
p738
sg4
L1449965933120L
sg5
g61
sg7
S'##COMMON_io.rong.push.PushReceiver:Action'
p739
sg9
S'10825'
p740
sg11
S'io.rong.push.HeartBeat\n'
p741
sa(dp742
g2
S'10825'
p743
sg4
L1449965933120L
sg5
g61
sg7
S'##COMMON_io.rong.push.PushReceiver:ACTION_HEARTBEAT'
p744
sg9
S'10825'
p745
sg11
S'Receive heartbeat action.\n'
p746
sa(dp747
g2
S'10825'
p748
sg4
L1449965933140L
sg5
g61
sg7
S'##COMMON_io.rong.push.PushClient:Ping'
p749
sg9
S'10840'
p750
sg11
S'/119.254.110.62\n'
p751
sa(dp752
g2
S'10825'
p753
sg4
L1449965933140L
sg5
g61
sg7
S'##COMMON_io.rong.push.PushService.PushHandler:ping'
p754
sg9
S'10840'
p755
sg11
S'Reconnect in 30 sec later if no PINGRESP received.\n'
p756
sa(dp757
g2
S'10825'
p758
sg4
L1449965933140L
sg5
g61
sg7
S'##COMMON_io.rong.push.PushContext:Heartbeat'
p759
sg9
S'10840'
p760
sg11
S'start_next\n'
p761
sa(dp762
g2
S'10825'
p763
sg4
L1449965934910L
sg5
g61
sg7
S'##COMMON_io.rong.push.PushClient:Handler'
p764
sg9
S'10845'
p765
sg11
S'PINGRESP\n'
p766
sa(dp767
g2
S'10825'
p768
sg4
L1449965934920L
sg5
g61
sg7
S'##COMMON_io.rong.push.PushService.PushHandler.PingSuccessListener:PingSuccessListener'
p769
sg9
S'10845'
p770
sg11
S'Receive PingResp. Cancel the runnable.\n'
p771
sa(dp772
g2
S'10825'
p773
sg4
L1449966113140L
sg5
g61
sg7
S'##COMMON_io.rong.push.PushReceiver:Action'
p774
sg9
S'10825'
p775
sg11
S'io.rong.push.HeartBeat\n'
p776
sa(dp777
g2
S'10825'
p778
sg4
L1449966113140L
sg5
g61
sg7
S'##COMMON_io.rong.push.PushReceiver:ACTION_HEARTBEAT'
p779
sg9
S'10825'
p780
sg11
S'Receive heartbeat action.\n'
p781
sa(dp782
g2
S'10825'
p783
sg4
L1449966113180L
sg5
g61
sg7
S'##COMMON_io.rong.push.PushClient:Ping'
p784
sg9
S'10840'
p785
sg11
S'/119.254.110.62\n'
p786
sa(dp787
g2
S'10825'
p788
sg4
L1449966113180L
sg5
g61
sg7
S'##COMMON_io.rong.push.PushService.PushHandler:ping'
p789
sg9
S'10840'
p790
sg11
S'Reconnect in 30 sec later if no PINGRESP received.\n'
p791
sa(dp792
g2
S'10825'
p793
sg4
L1449966113180L
sg5
g61
sg7
S'##COMMON_io.rong.push.PushContext:Heartbeat'
p794
sg9
S'10840'
p795
sg11
S'start_next\n'
p796
sa(dp797
g2
S'10825'
p798
sg4
L1449966114810L
sg5
g61
sg7
S'##COMMON_io.rong.push.PushClient:Handler'
p799
sg9
S'10845'
p800
sg11
S'PINGRESP\n'
p801
sa(dp802
g2
S'10825'
p803
sg4
L1449966114810L
sg5
g61
sg7
S'##COMMON_io.rong.push.PushService.PushHandler.PingSuccessListener:PingSuccessListener'
p804
sg9
S'10845'
p805
sg11
S'Receive PingResp. Cancel the runnable.\n'
p806
sa(dp807
g2
S'10825'
p808
sg4
L1449966294060L
sg5
g61
sg7
S'##COMMON_io.rong.push.PushReceiver:Action'
p809
sg9
S'10825'
p810
sg11
S'io.rong.push.HeartBeat\n'
p811
sa(dp812
g2
S'10825'
p813
sg4
L1449966294070L
sg5
g61
sg7
S'##COMMON_io.rong.push.PushReceiver:ACTION_HEARTBEAT'
p814
sg9
S'10825'
p815
sg11
S'Receive heartbeat action.\n'
p816
sa(dp817
g2
S'10825'
p818
sg4
L1449966294100L
sg5
g61
sg7
S'##COMMON_io.rong.push.PushClient:Ping'
p819
sg9
S'10840'
p820
sg11
S'/119.254.110.62\n'
p821
sa(dp822
g2
S'10825'
p823
sg4
L1449966294100L
sg5
g61
sg7
S'##COMMON_io.rong.push.PushService.PushHandler:ping'
p824
sg9
S'10840'
p825
sg11
S'Reconnect in 30 sec later if no PINGRESP received.\n'
p826
sa(dp827
g2
S'10825'
p828
sg4
L1449966294100L
sg5
g61
sg7
S'##COMMON_io.rong.push.PushContext:Heartbeat'
p829
sg9
S'10840'
p830
sg11
S'start_next\n'
p831
sa(dp832
g2
S'10825'
p833
sg4
L1449966295810L
sg5
g61
sg7
S'##COMMON_io.rong.push.PushClient:Handler'
p834
sg9
S'10845'
p835
sg11
S'PINGRESP\n'
p836
sa(dp837
g2
S'10825'
p838
sg4
L1449966295810L
sg5
g61
sg7
S'##COMMON_io.rong.push.PushService.PushHandler.PingSuccessListener:PingSuccessListener'
p839
sg9
S'10845'
p840
sg11
S'Receive PingResp. Cancel the runnable.\n'
p841
sa(dp842
g2
S'10825'
p843
sg4
L1449966474110L
sg5
g61
sg7
S'##COMMON_io.rong.push.PushReceiver:Action'
p844
sg9
S'10825'
p845
sg11
S'io.rong.push.HeartBeat\n'
p846
sa(dp847
g2
S'10825'
p848
sg4
L1449966474110L
sg5
g61
sg7
S'##COMMON_io.rong.push.PushReceiver:ACTION_HEARTBEAT'
p849
sg9
S'10825'
p850
sg11
S'Receive heartbeat action.\n'
p851
sa(dp852
g2
S'10825'
p853
sg4
L1449966474150L
sg5
g61
sg7
S'##COMMON_io.rong.push.PushClient:Ping'
p854
sg9
S'10840'
p855
sg11
S'/119.254.110.62\n'
p856
sa(dp857
g2
S'10825'
p858
sg4
L1449966474150L
sg5
g61
sg7
S'##COMMON_io.rong.push.PushService.PushHandler:ping'
p859
sg9
S'10840'
p860
sg11
S'Reconnect in 30 sec later if no PINGRESP received.\n'
p861
sa(dp862
g2
S'10825'
p863
sg4
L1449966474150L
sg5
g61
sg7
S'##COMMON_io.rong.push.PushContext:Heartbeat'
p864
sg9
S'10840'
p865
sg11
S'start_next\n'
p866
sa(dp867
g2
S'10825'
p868
sg4
L1449966475810L
sg5
g61
sg7
S'##COMMON_io.rong.push.PushClient:Handler'
p869
sg9
S'10845'
p870
sg11
S'PINGRESP\n'
p871
sa(dp872
g2
S'10825'
p873
sg4
L1449966475820L
sg5
g61
sg7
S'##COMMON_io.rong.push.PushService.PushHandler.PingSuccessListener:PingSuccessListener'
p874
sg9
S'10845'
p875
sg11
S'Receive PingResp. Cancel the runnable.\n'
p876
sa(dp877
g2
S'10825'
p878
sg4
L1449966654160L
sg5
g61
sg7
S'##COMMON_io.rong.push.PushReceiver:Action'
p879
sg9
S'10825'
p880
sg11
S'io.rong.push.HeartBeat\n'
p881
sa(dp882
g2
S'10825'
p883
sg4
L1449966654160L
sg5
g61
sg7
S'##COMMON_io.rong.push.PushReceiver:ACTION_HEARTBEAT'
p884
sg9
S'10825'
p885
sg11
S'Receive heartbeat action.\n'
p886
sa(dp887
g2
S'10825'
p888
sg4
L1449966654190L
sg5
g61
sg7
S'##COMMON_io.rong.push.PushClient:Ping'
p889
sg9
S'10840'
p890
sg11
S'/119.254.110.62\n'
p891
sa(dp892
g2
S'10825'
p893
sg4
L1449966654190L
sg5
g61
sg7
S'##COMMON_io.rong.push.PushService.PushHandler:ping'
p894
sg9
S'10840'
p895
sg11
S'Reconnect in 30 sec later if no PINGRESP received.\n'
p896
sa(dp897
g2
S'10825'
p898
sg4
L1449966654190L
sg5
g61
sg7
S'##COMMON_io.rong.push.PushContext:Heartbeat'
p899
sg9
S'10840'
p900
sg11
S'start_next\n'
p901
sa(dp902
g2
S'10825'
p903
sg4
L1449966655820L
sg5
g61
sg7
S'##COMMON_io.rong.push.PushClient:Handler'
p904
sg9
S'10845'
p905
sg11
S'PINGRESP\n'
p906
sa(dp907
g2
S'10825'
p908
sg4
L1449966655820L
sg5
g61
sg7
S'##COMMON_io.rong.push.PushService.PushHandler.PingSuccessListener:PingSuccessListener'
p909
sg9
S'10845'
p910
sg11
S'Receive PingResp. Cancel the runnable.\n'
p911
sa(dp912
g2
S'10825'
p913
sg4
L1449966834220L
sg5
g61
sg7
S'##COMMON_io.rong.push.PushReceiver:Action'
p914
sg9
S'10825'
p915
sg11
S'io.rong.push.HeartBeat\n'
p916
sa(dp917
g2
S'10825'
p918
sg4
L1449966834220L
sg5
g61
sg7
S'##COMMON_io.rong.push.PushReceiver:ACTION_HEARTBEAT'
p919
sg9
S'10825'
p920
sg11
S'Receive heartbeat action.\n'
p921
sa(dp922
g2
S'10825'
p923
sg4
L1449966834240L
sg5
g61
sg7
S'##COMMON_io.rong.push.PushClient:Ping'
p924
sg9
S'10840'
p925
sg11
S'/119.254.110.62\n'
p926
sa(dp927
g2
S'10825'
p928
sg4
L1449966834240L
sg5
g61
sg7
S'##COMMON_io.rong.push.PushService.PushHandler:ping'
p929
sg9
S'10840'
p930
sg11
S'Reconnect in 30 sec later if no PINGRESP received.\n'
p931
sa(dp932
g2
S'10825'
p933
sg4
L1449966834240L
sg5
g61
sg7
S'##COMMON_io.rong.push.PushContext:Heartbeat'
p934
sg9
S'10840'
p935
sg11
S'start_next\n'
p936
sa(dp937
g2
S'10825'
p938
sg4
L1449966835910L
sg5
g61
sg7
S'##COMMON_io.rong.push.PushClient:Handler'
p939
sg9
S'10845'
p940
sg11
S'PINGRESP\n'
p941
sa(dp942
g2
S'10825'
p943
sg4
L1449966835910L
sg5
g61
sg7
S'##COMMON_io.rong.push.PushService.PushHandler.PingSuccessListener:PingSuccessListener'
p944
sg9
S'10845'
p945
sg11
S'Receive PingResp. Cancel the runnable.\n'
p946
sa(dp947
g2
S'10825'
p948
sg4
L1449967015040L
sg5
g61
sg7
S'##COMMON_io.rong.push.PushReceiver:Action'
p949
sg9
S'10825'
p950
sg11
S'io.rong.push.HeartBeat\n'
p951
sa(dp952
g2
S'10825'
p953
sg4
L1449967015040L
sg5
g61
sg7
S'##COMMON_io.rong.push.PushReceiver:ACTION_HEARTBEAT'
p954
sg9
S'10825'
p955
sg11
S'Receive heartbeat action.\n'
p956
sa(dp957
g2
S'10825'
p958
sg4
L1449967015050L
sg5
g61
sg7
S'##COMMON_io.rong.push.PushClient:Ping'
p959
sg9
S'10840'
p960
sg11
S'/119.254.110.62\n'
p961
sa(dp962
g2
S'10825'
p963
sg4
L1449967015060L
sg5
g61
sg7
S'##COMMON_io.rong.push.PushService.PushHandler:ping'
p964
sg9
S'10840'
p965
sg11
S'Reconnect in 30 sec later if no PINGRESP received.\n'
p966
sa(dp967
g2
S'10825'
p968
sg4
L1449967015060L
sg5
g61
sg7
S'##COMMON_io.rong.push.PushContext:Heartbeat'
p969
sg9
S'10840'
p970
sg11
S'start_next\n'
p971
sa(dp972
g2
S'10825'
p973
sg4
L1449967016820L
sg5
g61
sg7
S'##COMMON_io.rong.push.PushClient:Handler'
p974
sg9
S'10845'
p975
sg11
S'PINGRESP\n'
p976
sa(dp977
g2
S'10825'
p978
sg4
L1449967016820L
sg5
g61
sg7
S'##COMMON_io.rong.push.PushService.PushHandler.PingSuccessListener:PingSuccessListener'
p979
sg9
S'10845'
p980
sg11
S'Receive PingResp. Cancel the runnable.\n'
p981
sa(dp982
g2
S'10825'
p983
sg4
L1449967195070L
sg5
g61
sg7
S'##COMMON_io.rong.push.PushReceiver:Action'
p984
sg9
S'10825'
p985
sg11
S'io.rong.push.HeartBeat\n'
p986
sa(dp987
g2
S'10825'
p988
sg4
L1449967195070L
sg5
g61
sg7
S'##COMMON_io.rong.push.PushReceiver:ACTION_HEARTBEAT'
p989
sg9
S'10825'
p990
sg11
S'Receive heartbeat action.\n'
p991
sa(dp992
g2
S'10825'
p993
sg4
L1449967195100L
sg5
g61
sg7
S'##COMMON_io.rong.push.PushClient:Ping'
p994
sg9
S'10840'
p995
sg11
S'/119.254.110.62\n'
p996
sa(dp997
g2
S'10825'
p998
sg4
L1449967195100L
sg5
g61
sg7
S'##COMMON_io.rong.push.PushService.PushHandler:ping'
p999
sg9
S'10840'
p1000
sg11
S'Reconnect in 30 sec later if no PINGRESP received.\n'
p1001
sa(dp1002
g2
S'10825'
p1003
sg4
L1449967195100L
sg5
g61
sg7
S'##COMMON_io.rong.push.PushContext:Heartbeat'
p1004
sg9
S'10840'
p1005
sg11
S'start_next\n'
p1006
sa(dp1007
g2
S'10825'
p1008
sg4
L1449967196810L
sg5
g61
sg7
S'##COMMON_io.rong.push.PushClient:Handler'
p1009
sg9
S'10845'
p1010
sg11
S'PINGRESP\n'
p1011
sa(dp1012
g2
S'10825'
p1013
sg4
L1449967196810L
sg5
g61
sg7
S'##COMMON_io.rong.push.PushService.PushHandler.PingSuccessListener:PingSuccessListener'
p1014
sg9
S'10845'
p1015
sg11
S'Receive PingResp. Cancel the runnable.\n'
p1016
sa(dp1017
g2
S'10825'
p1018
sg4
L1449967375120L
sg5
g61
sg7
S'##COMMON_io.rong.push.PushReceiver:Action'
p1019
sg9
S'10825'
p1020
sg11
S'io.rong.push.HeartBeat\n'
p1021
sa(dp1022
g2
S'10825'
p1023
sg4
L1449967375120L
sg5
g61
sg7
S'##COMMON_io.rong.push.PushReceiver:ACTION_HEARTBEAT'
p1024
sg9
S'10825'
p1025
sg11
S'Receive heartbeat action.\n'
p1026
sa(dp1027
g2
S'10825'
p1028
sg4
L1449967375150L
sg5
g61
sg7
S'##COMMON_io.rong.push.PushClient:Ping'
p1029
sg9
S'10840'
p1030
sg11
S'/119.254.110.62\n'
p1031
sa(dp1032
g2
S'10825'
p1033
sg4
L1449967375150L
sg5
g61
sg7
S'##COMMON_io.rong.push.PushService.PushHandler:ping'
p1034
sg9
S'10840'
p1035
sg11
S'Reconnect in 30 sec later if no PINGRESP received.\n'
p1036
sa(dp1037
g2
S'10825'
p1038
sg4
L1449967375150L
sg5
g61
sg7
S'##COMMON_io.rong.push.PushContext:Heartbeat'
p1039
sg9
S'10840'
p1040
sg11
S'start_next\n'
p1041
sa(dp1042
g2
S'10825'
p1043
sg4
L1449967376820L
sg5
g61
sg7
S'##COMMON_io.rong.push.PushClient:Handler'
p1044
sg9
S'10845'
p1045
sg11
S'PINGRESP\n'
p1046
sa(dp1047
g2
S'10825'
p1048
sg4
L1449967376820L
sg5
g61
sg7
S'##COMMON_io.rong.push.PushService.PushHandler.PingSuccessListener:PingSuccessListener'
p1049
sg9
S'10845'
p1050
sg11
S'Receive PingResp. Cancel the runnable.\n'
p1051
sa(dp1052
g2
S'10825'
p1053
sg4
L1449967555170L
sg5
g61
sg7
S'##COMMON_io.rong.push.PushReceiver:Action'
p1054
sg9
S'10825'
p1055
sg11
S'io.rong.push.HeartBeat\n'
p1056
sa(dp1057
g2
S'10825'
p1058
sg4
L1449967555170L
sg5
g61
sg7
S'##COMMON_io.rong.push.PushReceiver:ACTION_HEARTBEAT'
p1059
sg9
S'10825'
p1060
sg11
S'Receive heartbeat action.\n'
p1061
sa(dp1062
g2
S'10825'
p1063
sg4
L1449967555200L
sg5
g61
sg7
S'##COMMON_io.rong.push.PushClient:Ping'
p1064
sg9
S'10840'
p1065
sg11
S'/119.254.110.62\n'
p1066
sa(dp1067
g2
S'10825'
p1068
sg4
L1449967555200L
sg5
g61
sg7
S'##COMMON_io.rong.push.PushService.PushHandler:ping'
p1069
sg9
S'10840'
p1070
sg11
S'Reconnect in 30 sec later if no PINGRESP received.\n'
p1071
sa(dp1072
g2
S'10825'
p1073
sg4
L1449967555200L
sg5
g61
sg7
S'##COMMON_io.rong.push.PushContext:Heartbeat'
p1074
sg9
S'10840'
p1075
sg11
S'start_next\n'
p1076
sa(dp1077
g2
S'10825'
p1078
sg4
L1449967556810L
sg5
g61
sg7
S'##COMMON_io.rong.push.PushClient:Handler'
p1079
sg9
S'10845'
p1080
sg11
S'PINGRESP\n'
p1081
sa(dp1082
g2
S'10825'
p1083
sg4
L1449967556820L
sg5
g61
sg7
S'##COMMON_io.rong.push.PushService.PushHandler.PingSuccessListener:PingSuccessListener'
p1084
sg9
S'10845'
p1085
sg11
S'Receive PingResp. Cancel the runnable.\n'
p1086
sa(dp1087
g2
S'10825'
p1088
sg4
L1449967735220L
sg5
g61
sg7
S'##COMMON_io.rong.push.PushReceiver:Action'
p1089
sg9
S'10825'
p1090
sg11
S'io.rong.push.HeartBeat\n'
p1091
sa(dp1092
g2
S'10825'
p1093
sg4
L1449967735220L
sg5
g61
sg7
S'##COMMON_io.rong.push.PushReceiver:ACTION_HEARTBEAT'
p1094
sg9
S'10825'
p1095
sg11
S'Receive heartbeat action.\n'
p1096
sa(dp1097
g2
S'10825'
p1098
sg4
L1449967735420L
sg5
g61
sg7
S'##COMMON_io.rong.push.PushClient:Ping'
p1099
sg9
S'10840'
p1100
sg11
S'/119.254.110.62\n'
p1101
sa(dp1102
g2
S'10825'
p1103
sg4
L1449967735420L
sg5
g61
sg7
S'##COMMON_io.rong.push.PushService.PushHandler:ping'
p1104
sg9
S'10840'
p1105
sg11
S'Reconnect in 30 sec later if no PINGRESP received.\n'
p1106
sa(dp1107
g2
S'10825'
p1108
sg4
L1449967735420L
sg5
g61
sg7
S'##COMMON_io.rong.push.PushContext:Heartbeat'
p1109
sg9
S'10840'
p1110
sg11
S'start_next\n'
p1111
sa(dp1112
g2
S'10825'
p1113
sg4
L1449967736910L
sg5
g61
sg7
S'##COMMON_io.rong.push.PushClient:Handler'
p1114
sg9
S'10845'
p1115
sg11
S'PINGRESP\n'
p1116
sa(dp1117
g2
S'10825'
p1118
sg4
L1449967736910L
sg5
g61
sg7
S'##COMMON_io.rong.push.PushService.PushHandler.PingSuccessListener:PingSuccessListener'
p1119
sg9
S'10845'
p1120
sg11
S'Receive PingResp. Cancel the runnable.\n'
p1121
sa(dp1122
g2
S'10825'
p1123
sg4
L1449967917040L
sg5
g61
sg7
S'##COMMON_io.rong.push.PushReceiver:Action'
p1124
sg9
S'10825'
p1125
sg11
S'io.rong.push.HeartBeat\n'
p1126
sa(dp1127
g2
S'10825'
p1128
sg4
L1449967917040L
sg5
g61
sg7
S'##COMMON_io.rong.push.PushReceiver:ACTION_HEARTBEAT'
p1129
sg9
S'10825'
p1130
sg11
S'Receive heartbeat action.\n'
p1131
sa(dp1132
g2
S'10825'
p1133
sg4
L1449967917060L
sg5
g61
sg7
S'##COMMON_io.rong.push.PushClient:Ping'
p1134
sg9
S'10840'
p1135
sg11
S'/119.254.110.62\n'
p1136
sa(dp1137
g2
S'10825'
p1138
sg4
L1449967917060L
sg5
g61
sg7
S'##COMMON_io.rong.push.PushService.PushHandler:ping'
p1139
sg9
S'10840'
p1140
sg11
S'Reconnect in 30 sec later if no PINGRESP received.\n'
p1141
sa(dp1142
g2
S'10825'
p1143
sg4
L1449967917060L
sg5
g61
sg7
S'##COMMON_io.rong.push.PushContext:Heartbeat'
p1144
sg9
S'10840'
p1145
sg11
S'start_next\n'
p1146
sa(dp1147
g2
S'10825'
p1148
sg4
L1449967918810L
sg5
g61
sg7
S'##COMMON_io.rong.push.PushClient:Handler'
p1149
sg9
S'10845'
p1150
sg11
S'PINGRESP\n'
p1151
sa(dp1152
g2
S'10825'
p1153
sg4
L1449967918810L
sg5
g61
sg7
S'##COMMON_io.rong.push.PushService.PushHandler.PingSuccessListener:PingSuccessListener'
p1154
sg9
S'10845'
p1155
sg11
S'Receive PingResp. Cancel the runnable.\n'
p1156
sa(dp1157
g2
S'10825'
p1158
sg4
L1449968098040L
sg5
g61
sg7
S'##COMMON_io.rong.push.PushReceiver:Action'
p1159
sg9
S'10825'
p1160
sg11
S'io.rong.push.HeartBeat\n'
p1161
sa(dp1162
g2
S'10825'
p1163
sg4
L1449968098050L
sg5
g61
sg7
S'##COMMON_io.rong.push.PushReceiver:ACTION_HEARTBEAT'
p1164
sg9
S'10825'
p1165
sg11
S'Receive heartbeat action.\n'
p1166
sa(dp1167
g2
S'10825'
p1168
sg4
L1449968098060L
sg5
g61
sg7
S'##COMMON_io.rong.push.PushClient:Ping'
p1169
sg9
S'10840'
p1170
sg11
S'/119.254.110.62\n'
p1171
sa(dp1172
g2
S'10825'
p1173
sg4
L1449968098060L
sg5
g61
sg7
S'##COMMON_io.rong.push.PushService.PushHandler:ping'
p1174
sg9
S'10840'
p1175
sg11
S'Reconnect in 30 sec later if no PINGRESP received.\n'
p1176
sa(dp1177
g2
S'10825'
p1178
sg4
L1449968098070L
sg5
g61
sg7
S'##COMMON_io.rong.push.PushContext:Heartbeat'
p1179
sg9
S'10840'
p1180
sg11
S'start_next\n'
p1181
sa(dp1182
g2
S'10825'
p1183
sg4
L1449968099910L
sg5
g61
sg7
S'##COMMON_io.rong.push.PushClient:Handler'
p1184
sg9
S'10845'
p1185
sg11
S'PINGRESP\n'
p1186
sa(dp1187
g2
S'10825'
p1188
sg4
L1449968099910L
sg5
g61
sg7
S'##COMMON_io.rong.push.PushService.PushHandler.PingSuccessListener:PingSuccessListener'
p1189
sg9
S'10845'
p1190
sg11
S'Receive PingResp. Cancel the runnable.\n'
p1191
sa(dp1192
g2
S'10825'
p1193
sg4
L1449968279060L
sg5
g61
sg7
S'##COMMON_io.rong.push.PushReceiver:Action'
p1194
sg9
S'10825'
p1195
sg11
S'io.rong.push.HeartBeat\n'
p1196
sa(dp1197
g2
S'10825'
p1198
sg4
L1449968279060L
sg5
g61
sg7
S'##COMMON_io.rong.push.PushReceiver:ACTION_HEARTBEAT'
p1199
sg9
S'10825'
p1200
sg11
S'Receive heartbeat action.\n'
p1201
sa(dp1202
g2
S'10825'
p1203
sg4
L1449968279110L
sg5
g61
sg7
S'##COMMON_io.rong.push.PushClient:Ping'
p1204
sg9
S'10840'
p1205
sg11
S'/119.254.110.62\n'
p1206
sa(dp1207
g2
S'10825'
p1208
sg4
L1449968279110L
sg5
g61
sg7
S'##COMMON_io.rong.push.PushService.PushHandler:ping'
p1209
sg9
S'10840'
p1210
sg11
S'Reconnect in 30 sec later if no PINGRESP received.\n'
p1211
sa(dp1212
g2
S'10825'
p1213
sg4
L1449968279110L
sg5
g61
sg7
S'##COMMON_io.rong.push.PushContext:Heartbeat'
p1214
sg9
S'10840'
p1215
sg11
S'start_next\n'
p1216
sa(dp1217
g2
S'10825'
p1218
sg4
L1449968280646L
sg5
g61
sg7
S'##COMMON_io.rong.push.PushClient:Handler'
p1219
sg9
S'10845'
p1220
sg11
S'PINGRESP\n'
p1221
sa(dp1222
g2
S'10825'
p1223
sg4
L1449968280646L
sg5
g61
sg7
S'##COMMON_io.rong.push.PushService.PushHandler.PingSuccessListener:PingSuccessListener'
p1224
sg9
S'10845'
p1225
sg11
S'Receive PingResp. Cancel the runnable.\n'
p1226
sa(dp1227
g2
S'10766'
p1228
sg4
L1449968457930L
sg5
g15
sg7
S'##IPC_io.rong.imlib.ConnectChangeReceiver:onReceive'
p1229
sg9
S'10766'
p1230
sg11
S'network:true, intent:Intent { act=android.net.conn.CONNECTIVITY_CHANGE flg=0x8000010 (has extras) }\n'
p1231
sa(dp1232
g2
S'10825'
p1233
sg4
L1449968471950L
sg5
g61
sg7
S'##COMMON_io.rong.push.PushReceiver:Action'
p1234
sg9
S'10825'
p1235
sg11
S'android.net.conn.CONNECTIVITY_CHANGE\n'
p1236
sa(dp1237
g2
S'10825'
p1238
sg4
L1449968471950L
sg5
g15
sg7
S'##COMMON_io.rong.push.PushReceiver:CONNECTIVITY_ACTION'
p1239
sg9
S'10825'
p1240
sg11
S'Receive the network change message start \n'
p1241
sa(dp1242
g2
S'10825'
p1243
sg4
L1449968471950L
sg5
g15
sg7
S'##COMMON_io.rong.push.PushReceiver:CONNECTIVITY_ACTION'
p1244
sg9
S'10825'
p1245
sg11
S'Receive the network change message end\n'
p1246
sa(dp1247
g2
S'10825'
p1248
sg4
L1449968471950L
sg5
g61
sg7
S'##COMMON_io.rong.push.PushReceiver:STATUS_WIFI'
p1249
sg9
S'10825'
p1250
sg11
S'mStatus is 2,the network has changed to be WIFI\n'
p1251
sa(dp1252
g2
S'10825'
p1253
sg4
L1449968471950L
sg5
g61
sg7
S'##COMMON_io.rong.push.PushReceiver:CONNECTIVITY_ACTION'
p1254
sg9
S'10825'
p1255
sg11
S'The network is same as before, do nothing!!\n'
p1256
sa(dp1257
g2
S'10825'
p1258
sg4
L1449968471960L
sg5
g61
sg7
S'##COMMON_io.rong.push.PushReceiver:Action'
p1259
sg9
S'10825'
p1260
sg11
S'io.rong.push.HeartBeat\n'
p1261
sa(dp1262
g2
S'10825'
p1263
sg4
L1449968471960L
sg5
g61
sg7
S'##COMMON_io.rong.push.PushReceiver:ACTION_HEARTBEAT'
p1264
sg9
S'10825'
p1265
sg11
S'Receive heartbeat action.\n'
p1266
sa(dp1267
g2
S'10825'
p1268
sg4
L1449968471970L
sg5
g61
sg7
S'##COMMON_io.rong.push.PushClient:Ping'
p1269
sg9
S'10840'
p1270
sg11
S'/119.254.110.62\n'
p1271
sa(dp1272
g2
S'10825'
p1273
sg4
L1449968471970L
sg5
g61
sg7
S'##COMMON_io.rong.push.PushService.PushHandler:ping'
p1274
sg9
S'10840'
p1275
sg11
S'Reconnect in 30 sec later if no PINGRESP received.\n'
p1276
sa(dp1277
g2
S'10825'
p1278
sg4
L1449968471970L
sg5
g61
sg7
S'##COMMON_io.rong.push.PushContext:Heartbeat'
p1279
sg9
S'10840'
p1280
sg11
S'start_next\n'
p1281
sa(dp1282
g2
S'10825'
p1283
sg4
L1449968472180L
sg5
g61
sg7
S'##COMMON_io.rong.push.PushClient:Handler'
p1284
sg9
S'10845'
p1285
sg11
S'PINGRESP\n'
p1286
sa(dp1287
g2
S'10825'
p1288
sg4
L1449968472180L
sg5
g61
sg7
S'##COMMON_io.rong.push.PushService.PushHandler.PingSuccessListener:PingSuccessListener'
p1289
sg9
S'10845'
p1290
sg11
S'Receive PingResp. Cancel the runnable.\n'
p1291
sa(dp1292
g2
S'10766'
p1293
sg4
L1449968497630L
sg5
g15
sg7
S'##IPC_io.rong.imlib.ConnectChangeReceiver:onReceive'
p1294
sg9
S'10766'
p1295
sg11
S'network:true, intent:Intent { act=action_reconnect flg=0x14 pkg=com.xdf.ucan cmp=com.xdf.ucan/io.rong.imlib.ConnectChangeReceiver (has extras) }\n'
p1296
sa(dp1297
g2
S'10766'
p1298
sg4
L1449968497660L
sg5
g15
sg7
S'##IPC_io.rong.imlib.ReConnectService:RECONNECT'
p1299
sg9
S'14442'
p1300
sg11
S'Intent { cmp=com.xdf.ucan/io.rong.imlib.ReConnectService (has extras) }\n'
p1301
sa(dp1302
g2
S'10766'
p1303
sg4
L1449968497660L
sg5
g15
sg7
S'##IPC_io.rong.imlib.RongIMClient:reconnect'
p1304
sg9
S'14442'
p1305
sg11
S'mConnectionStatus :DISCONNECTED\n'
p1306
sa(dp1307
g2
S'10825'
p1308
sg4
L1449968656040L
sg5
g61
sg7
S'##COMMON_io.rong.push.PushReceiver:Action'
p1309
sg9
S'10825'
p1310
sg11
S'io.rong.push.HeartBeat\n'
p1311
sa(dp1312
g2
S'10825'
p1313
sg4
L1449968656050L
sg5
g61
sg7
S'##COMMON_io.rong.push.PushReceiver:ACTION_HEARTBEAT'
p1314
sg9
S'10825'
p1315
sg11
S'Receive heartbeat action.\n'
p1316
sa(dp1317
g2
S'10825'
p1318
sg4
L1449968656060L
sg5
g61
sg7
S'##COMMON_io.rong.push.PushClient:Ping'
p1319
sg9
S'10840'
p1320
sg11
S'/119.254.110.62\n'
p1321
sa(dp1322
g2
S'10825'
p1323
sg4
L1449968656070L
sg5
g61
sg7
S'##COMMON_io.rong.push.PushService.PushHandler:ping'
p1324
sg9
S'10840'
p1325
sg11
S'Reconnect in 30 sec later if no PINGRESP received.\n'
p1326
sa(dp1327
g2
S'10825'
p1328
sg4
L1449968656070L
sg5
g61
sg7
S'##COMMON_io.rong.push.PushContext:Heartbeat'
p1329
sg9
S'10840'
p1330
sg11
S'start_next\n'
p1331
sa(dp1332
g2
S'10825'
p1333
sg4
L1449968656170L
sg5
g61
sg7
S'##COMMON_io.rong.push.PushClient:Handler'
p1334
sg9
S'10845'
p1335
sg11
S'PINGRESP\n'
p1336
sa(dp1337
g2
S'10825'
p1338
sg4
L1449968656170L
sg5
g61
sg7
S'##COMMON_io.rong.push.PushService.PushHandler.PingSuccessListener:PingSuccessListener'
p1339
sg9
S'10845'
p1340
sg11
S'Receive PingResp. Cancel the runnable.\n'
p1341
sa(dp1342
g2
S'10825'
p1343
sg4
L1449968837030L
sg5
g61
sg7
S'##COMMON_io.rong.push.PushReceiver:Action'
p1344
sg9
S'10825'
p1345
sg11
S'io.rong.push.HeartBeat\n'
p1346
sa(dp1347
g2
S'10825'
p1348
sg4
L1449968837030L
sg5
g61
sg7
S'##COMMON_io.rong.push.PushReceiver:ACTION_HEARTBEAT'
p1349
sg9
S'10825'
p1350
sg11
S'Receive heartbeat action.\n'
p1351
sa(dp1352
g2
S'10825'
p1353
sg4
L1449968837060L
sg5
g61
sg7
S'##COMMON_io.rong.push.PushClient:Ping'
p1354
sg9
S'10840'
p1355
sg11
S'/119.254.110.62\n'
p1356
sa(dp1357
g2
S'10825'
p1358
sg4
L1449968837070L
sg5
g61
sg7
S'##COMMON_io.rong.push.PushService.PushHandler:ping'
p1359
sg9
S'10840'
p1360
sg11
S'Reconnect in 30 sec later if no PINGRESP received.\n'
p1361
sa(dp1362
g2
S'10825'
p1363
sg4
L1449968837070L
sg5
g61
sg7
S'##COMMON_io.rong.push.PushContext:Heartbeat'
p1364
sg9
S'10840'
p1365
sg11
S'start_next\n'
p1366
sa(dp1367
g2
S'10825'
p1368
sg4
L1449968837210L
sg5
g61
sg7
S'##COMMON_io.rong.push.PushClient:Handler'
p1369
sg9
S'10845'
p1370
sg11
S'PINGRESP\n'
p1371
sa(dp1372
g2
S'10825'
p1373
sg4
L1449968837210L
sg5
g61
sg7
S'##COMMON_io.rong.push.PushService.PushHandler.PingSuccessListener:PingSuccessListener'
p1374
sg9
S'10845'
p1375
sg11
S'Receive PingResp. Cancel the runnable.\n'
p1376
sa(dp1377
g2
S'10825'
p1378
sg4
L1449969022070L
sg5
g61
sg7
S'##COMMON_io.rong.push.PushReceiver:Action'
p1379
sg9
S'10825'
p1380
sg11
S'io.rong.push.HeartBeat\n'
p1381
sa(dp1382
g2
S'10825'
p1383
sg4
L1449969022070L
sg5
g61
sg7
S'##COMMON_io.rong.push.PushReceiver:ACTION_HEARTBEAT'
p1384
sg9
S'10825'
p1385
sg11
S'Receive heartbeat action.\n'
p1386
sa(dp1387
g2
S'10825'
p1388
sg4
L1449969022090L
sg5
g61
sg7
S'##COMMON_io.rong.push.PushClient:Ping'
p1389
sg9
S'10840'
p1390
sg11
S'/119.254.110.62\n'
p1391
sa(dp1392
g2
S'10825'
p1393
sg4
L1449969022090L
sg5
g61
sg7
S'##COMMON_io.rong.push.PushService.PushHandler:ping'
p1394
sg9
S'10840'
p1395
sg11
S'Reconnect in 30 sec later if no PINGRESP received.\n'
p1396
sa(dp1397
g2
S'10825'
p1398
sg4
L1449969022090L
sg5
g61
sg7
S'##COMMON_io.rong.push.PushContext:Heartbeat'
p1399
sg9
S'10840'
p1400
sg11
S'start_next\n'
p1401
sa(dp1402
g2
S'10825'
p1403
sg4
L1449969022230L
sg5
g61
sg7
S'##COMMON_io.rong.push.PushClient:Handler'
p1404
sg9
S'10845'
p1405
sg11
S'PINGRESP\n'
p1406
sa(dp1407
g2
S'10825'
p1408
sg4
L1449969022230L
sg5
g61
sg7
S'##COMMON_io.rong.push.PushService.PushHandler.PingSuccessListener:PingSuccessListener'
p1409
sg9
S'10845'
p1410
sg11
S'Receive PingResp. Cancel the runnable.\n'
p1411
sa(dp1412
g2
S'10825'
p1413
sg4
L1449969203060L
sg5
g61
sg7
S'##COMMON_io.rong.push.PushReceiver:Action'
p1414
sg9
S'10825'
p1415
sg11
S'io.rong.push.HeartBeat\n'
p1416
sa(dp1417
g2
S'10825'
p1418
sg4
L1449969203060L
sg5
g61
sg7
S'##COMMON_io.rong.push.PushReceiver:ACTION_HEARTBEAT'
p1419
sg9
S'10825'
p1420
sg11
S'Receive heartbeat action.\n'
p1421
sa(dp1422
g2
S'10825'
p1423
sg4
L1449969203560L
sg5
g61
sg7
S'##COMMON_io.rong.push.PushClient:Ping'
p1424
sg9
S'10840'
p1425
sg11
S'/119.254.110.62\n'
p1426
sa(dp1427
g2
S'10825'
p1428
sg4
L1449969203560L
sg5
g61
sg7
S'##COMMON_io.rong.push.PushService.PushHandler:ping'
p1429
sg9
S'10840'
p1430
sg11
S'Reconnect in 30 sec later if no PINGRESP received.\n'
p1431
sa(dp1432
g2
S'10825'
p1433
sg4
L1449969203560L
sg5
g61
sg7
S'##COMMON_io.rong.push.PushContext:Heartbeat'
p1434
sg9
S'10840'
p1435
sg11
S'start_next\n'
p1436
sa(dp1437
g2
S'10825'
p1438
sg4
L1449969203710L
sg5
g61
sg7
S'##COMMON_io.rong.push.PushClient:Handler'
p1439
sg9
S'10845'
p1440
sg11
S'PINGRESP\n'
p1441
sa(dp1442
g2
S'10825'
p1443
sg4
L1449969203710L
sg5
g61
sg7
S'##COMMON_io.rong.push.PushService.PushHandler.PingSuccessListener:PingSuccessListener'
p1444
sg9
S'10845'
p1445
sg11
S'Receive PingResp. Cancel the runnable.\n'
p1446
sa(dp1447
g2
S'10766'
p1448
sg4
L1449969352900L
sg5
g568
sg7
S'IInputConnectionWrapper'
p1449
sg9
S'10766'
p1450
sg11
S'beginBatchEdit on inactive InputConnection\n'
p1451
sa(dp1452
g2
S'10766'
p1453
sg4
L1449969352900L
sg5
g568
sg7
S'IInputConnectionWrapper'
p1454
sg9
S'10766'
p1455
sg11
S'getTextBeforeCursor on inactive InputConnection\n'
p1456
sa(dp1457
g2
S'10766'
p1458
sg4
L1449969352920L
sg5
g568
sg7
S'IInputConnectionWrapper'
p1459
sg9
S'10766'
p1460
sg11
S'endBatchEdit on inactive InputConnection\n'
p1461
sa(dp1462
g2
S'10766'
p1463
sg4
L1449969352920L
sg5
g568
sg7
S'IInputConnectionWrapper'
p1464
sg9
S'10766'
p1465
sg11
S'beginBatchEdit on inactive InputConnection\n'
p1466
sa(dp1467
g2
S'10766'
p1468
sg4
L1449969352920L
sg5
g568
sg7
S'IInputConnectionWrapper'
p1469
sg9
S'10766'
p1470
sg11
S'getTextBeforeCursor on inactive InputConnection\n'
p1471
sa(dp1472
g2
S'10766'
p1473
sg4
L1449969358500L
sg5
g61
sg7
S'MiuiCursorController'
p1474
sg9
S'10766'
p1475
sg11
S'InsertionPointCursorController is hidden including all panels and handle\n'
p1476
sa(dp1477
g2
S'10825'
p1478
sg4
L1449969383880L
sg5
g61
sg7
S'##COMMON_io.rong.push.PushReceiver:Action'
p1479
sg9
S'10825'
p1480
sg11
S'io.rong.push.HeartBeat\n'
p1481
sa(dp1482
g2
S'10825'
p1483
sg4
L1449969383880L
sg5
g61
sg7
S'##COMMON_io.rong.push.PushReceiver:ACTION_HEARTBEAT'
p1484
sg9
S'10825'
p1485
sg11
S'Receive heartbeat action.\n'
p1486
sa(dp1487
g2
S'10825'
p1488
sg4
L1449969383950L
sg5
g61
sg7
S'##COMMON_io.rong.push.PushClient:Ping'
p1489
sg9
S'10840'
p1490
sg11
S'/119.254.110.62\n'
p1491
sa(dp1492
g2
S'10825'
p1493
sg4
L1449969383950L
sg5
g61
sg7
S'##COMMON_io.rong.push.PushService.PushHandler:ping'
p1494
sg9
S'10840'
p1495
sg11
S'Reconnect in 30 sec later if no PINGRESP received.\n'
p1496
sa(dp1497
g2
S'10825'
p1498
sg4
L1449969383950L
sg5
g61
sg7
S'##COMMON_io.rong.push.PushContext:Heartbeat'
p1499
sg9
S'10840'
p1500
sg11
S'start_next\n'
p1501
sa(dp1502
g2
S'10825'
p1503
sg4
L1449969385710L
sg5
g61
sg7
S'##COMMON_io.rong.push.PushClient:Handler'
p1504
sg9
S'10845'
p1505
sg11
S'PINGRESP\n'
p1506
sa(dp1507
g2
S'10825'
p1508
sg4
L1449969385710L
sg5
g61
sg7
S'##COMMON_io.rong.push.PushService.PushHandler.PingSuccessListener:PingSuccessListener'
p1509
sg9
S'10845'
p1510
sg11
S'Receive PingResp. Cancel the runnable.\n'
p1511
sa(dp1512
g2
S'10825'
p1513
sg4
L1449969564080L
sg5
g61
sg7
S'##COMMON_io.rong.push.PushReceiver:Action'
p1514
sg9
S'10825'
p1515
sg11
S'io.rong.push.HeartBeat\n'
p1516
sa(dp1517
g2
S'10825'
p1518
sg4
L1449969564080L
sg5
g61
sg7
S'##COMMON_io.rong.push.PushReceiver:ACTION_HEARTBEAT'
p1519
sg9
S'10825'
p1520
sg11
S'Receive heartbeat action.\n'
p1521
sa(dp1522
g2
S'10825'
p1523
sg4
L1449969564110L
sg5
g61
sg7
S'##COMMON_io.rong.push.PushClient:Ping'
p1524
sg9
S'10840'
p1525
sg11
S'/119.254.110.62\n'
p1526
sa(dp1527
g2
S'10825'
p1528
sg4
L1449969564110L
sg5
g61
sg7
S'##COMMON_io.rong.push.PushService.PushHandler:ping'
p1529
sg9
S'10840'
p1530
sg11
S'Reconnect in 30 sec later if no PINGRESP received.\n'
p1531
sa(dp1532
g2
S'10825'
p1533
sg4
L1449969564110L
sg5
g61
sg7
S'##COMMON_io.rong.push.PushContext:Heartbeat'
p1534
sg9
S'10840'
p1535
sg11
S'start_next\n'
p1536
sa(dp1537
g2
S'10825'
p1538
sg4
L1449969565700L
sg5
g61
sg7
S'##COMMON_io.rong.push.PushClient:Handler'
p1539
sg9
S'10845'
p1540
sg11
S'PINGRESP\n'
p1541
sa(dp1542
g2
S'10825'
p1543
sg4
L1449969565700L
sg5
g61
sg7
S'##COMMON_io.rong.push.PushService.PushHandler.PingSuccessListener:PingSuccessListener'
p1544
sg9
S'10845'
p1545
sg11
S'Receive PingResp. Cancel the runnable.\n'
p1546
sa(dp1547
g2
S'10766'
p1548
sg4
L1449969642060L
sg5
g61
sg7
S'MiuiCursorController'
p1549
sg9
S'10766'
p1550
sg11
S'InsertionPointCursorController is hidden including all panels and handle\n'
p1551
sa(dp1552
g2
S'10766'
p1553
sg4
L1449969642190L
sg5
g568
sg7
S'IInputConnectionWrapper'
p1554
sg9
S'10766'
p1555
sg11
S'showStatusIcon on inactive InputConnection\n'
p1556
sa(dp1557
g2
S'10766'
p1558
sg4
L1449969642380L
sg5
g61
sg7
S'MiuiCursorController'
p1559
sg9
S'10766'
p1560
sg11
S'InsertionPointCursorController is hidden including all panels and handle\n'
p1561
sa(dp1562
g2
S'10825'
p1563
sg4
L1449969744180L
sg5
g61
sg7
S'##COMMON_io.rong.push.PushReceiver:Action'
p1564
sg9
S'10825'
p1565
sg11
S'io.rong.push.HeartBeat\n'
p1566
sa(dp1567
g2
S'10825'
p1568
sg4
L1449969744190L
sg5
g61
sg7
S'##COMMON_io.rong.push.PushReceiver:ACTION_HEARTBEAT'
p1569
sg9
S'10825'
p1570
sg11
S'Receive heartbeat action.\n'
p1571
sa(dp1572
g2
S'10825'
p1573
sg4
L1449969744230L
sg5
g61
sg7
S'##COMMON_io.rong.push.PushClient:Ping'
p1574
sg9
S'10840'
p1575
sg11
S'/119.254.110.62\n'
p1576
sa(dp1577
g2
S'10825'
p1578
sg4
L1449969744240L
sg5
g61
sg7
S'##COMMON_io.rong.push.PushService.PushHandler:ping'
p1579
sg9
S'10840'
p1580
sg11
S'Reconnect in 30 sec later if no PINGRESP received.\n'
p1581
sa(dp1582
g2
S'10825'
p1583
sg4
L1449969744240L
sg5
g61
sg7
S'##COMMON_io.rong.push.PushContext:Heartbeat'
p1584
sg9
S'10840'
p1585
sg11
S'start_next\n'
p1586
sa(dp1587
g2
S'10825'
p1588
sg4
L1449969745990L
sg5
g61
sg7
S'##COMMON_io.rong.push.PushClient:Handler'
p1589
sg9
S'10845'
p1590
sg11
S'PINGRESP\n'
p1591
sa(dp1592
g2
S'10825'
p1593
sg4
L1449969745990L
sg5
g61
sg7
S'##COMMON_io.rong.push.PushService.PushHandler.PingSuccessListener:PingSuccessListener'
p1594
sg9
S'10845'
p1595
sg11
S'Receive PingResp. Cancel the runnable.\n'
p1596
sa(dp1597
g2
S'10825'
p1598
sg4
L1449969924240L
sg5
g61
sg7
S'##COMMON_io.rong.push.PushReceiver:Action'
p1599
sg9
S'10825'
p1600
sg11
S'io.rong.push.HeartBeat\n'
p1601
sa(dp1602
g2
S'10825'
p1603
sg4
L1449969924240L
sg5
g61
sg7
S'##COMMON_io.rong.push.PushReceiver:ACTION_HEARTBEAT'
p1604
sg9
S'10825'
p1605
sg11
S'Receive heartbeat action.\n'
p1606
sa(dp1607
g2
S'10825'
p1608
sg4
L1449969924260L
sg5
g61
sg7
S'##COMMON_io.rong.push.PushClient:Ping'
p1609
sg9
S'10840'
p1610
sg11
S'/119.254.110.62\n'
p1611
sa(dp1612
g2
S'10825'
p1613
sg4
L1449969924260L
sg5
g61
sg7
S'##COMMON_io.rong.push.PushService.PushHandler:ping'
p1614
sg9
S'10840'
p1615
sg11
S'Reconnect in 30 sec later if no PINGRESP received.\n'
p1616
sa(dp1617
g2
S'10825'
p1618
sg4
L1449969924260L
sg5
g61
sg7
S'##COMMON_io.rong.push.PushContext:Heartbeat'
p1619
sg9
S'10840'
p1620
sg11
S'start_next\n'
p1621
sa(dp1622
g2
S'10825'
p1623
sg4
L1449969926000L
sg5
g61
sg7
S'##COMMON_io.rong.push.PushClient:Handler'
p1624
sg9
S'10845'
p1625
sg11
S'PINGRESP\n'
p1626
sa(dp1627
g2
S'10825'
p1628
sg4
L1449969926000L
sg5
g61
sg7
S'##COMMON_io.rong.push.PushService.PushHandler.PingSuccessListener:PingSuccessListener'
p1629
sg9
S'10845'
p1630
sg11
S'Receive PingResp. Cancel the runnable.\n'
p1631
sa(dp1632
g2
S'10825'
p1633
sg4
L1449970110050L
sg5
g61
sg7
S'##COMMON_io.rong.push.PushReceiver:Action'
p1634
sg9
S'10825'
p1635
sg11
S'io.rong.push.HeartBeat\n'
p1636
sa(dp1637
g2
S'10825'
p1638
sg4
L1449970110050L
sg5
g61
sg7
S'##COMMON_io.rong.push.PushReceiver:ACTION_HEARTBEAT'
p1639
sg9
S'10825'
p1640
sg11
S'Receive heartbeat action.\n'
p1641
sa(dp1642
g2
S'10825'
p1643
sg4
L1449970110090L
sg5
g61
sg7
S'##COMMON_io.rong.push.PushClient:Ping'
p1644
sg9
S'10840'
p1645
sg11
S'/119.254.110.62\n'
p1646
sa(dp1647
g2
S'10825'
p1648
sg4
L1449970110090L
sg5
g61
sg7
S'##COMMON_io.rong.push.PushService.PushHandler:ping'
p1649
sg9
S'10840'
p1650
sg11
S'Reconnect in 30 sec later if no PINGRESP received.\n'
p1651
sa(dp1652
g2
S'10825'
p1653
sg4
L1449970110090L
sg5
g61
sg7
S'##COMMON_io.rong.push.PushContext:Heartbeat'
p1654
sg9
S'10840'
p1655
sg11
S'start_next\n'
p1656
sa(dp1657
g2
S'10825'
p1658
sg4
L1449970111810L
sg5
g61
sg7
S'##COMMON_io.rong.push.PushClient:Handler'
p1659
sg9
S'10845'
p1660
sg11
S'PINGRESP\n'
p1661
sa(dp1662
g2
S'10825'
p1663
sg4
L1449970111810L
sg5
g61
sg7
S'##COMMON_io.rong.push.PushService.PushHandler.PingSuccessListener:PingSuccessListener'
p1664
sg9
S'10845'
p1665
sg11
S'Receive PingResp. Cancel the runnable.\n'
p1666
sa(dp1667
g2
S'10825'
p1668
sg4
L1449970290160L
sg5
g61
sg7
S'##COMMON_io.rong.push.PushReceiver:Action'
p1669
sg9
S'10825'
p1670
sg11
S'io.rong.push.HeartBeat\n'
p1671
sa(dp1672
g2
S'10825'
p1673
sg4
L1449970290160L
sg5
g61
sg7
S'##COMMON_io.rong.push.PushReceiver:ACTION_HEARTBEAT'
p1674
sg9
S'10825'
p1675
sg11
S'Receive heartbeat action.\n'
p1676
sa(dp1677
g2
S'10825'
p1678
sg4
L1449970290180L
sg5
g61
sg7
S'##COMMON_io.rong.push.PushClient:Ping'
p1679
sg9
S'10840'
p1680
sg11
S'/119.254.110.62\n'
p1681
sa(dp1682
g2
S'10825'
p1683
sg4
L1449970290180L
sg5
g61
sg7
S'##COMMON_io.rong.push.PushService.PushHandler:ping'
p1684
sg9
S'10840'
p1685
sg11
S'Reconnect in 30 sec later if no PINGRESP received.\n'
p1686
sa(dp1687
g2
S'10825'
p1688
sg4
L1449970290180L
sg5
g61
sg7
S'##COMMON_io.rong.push.PushContext:Heartbeat'
p1689
sg9
S'10840'
p1690
sg11
S'start_next\n'
p1691
sa(dp1692
g2
S'10825'
p1693
sg4
L1449970291900L
sg5
g61
sg7
S'##COMMON_io.rong.push.PushClient:Handler'
p1694
sg9
S'10845'
p1695
sg11
S'PINGRESP\n'
p1696
sa(dp1697
g2
S'10825'
p1698
sg4
L1449970291900L
sg5
g61
sg7
S'##COMMON_io.rong.push.PushService.PushHandler.PingSuccessListener:PingSuccessListener'
p1699
sg9
S'10845'
p1700
sg11
S'Receive PingResp. Cancel the runnable.\n'
p1701
sa(dp1702
g2
S'10825'
p1703
sg4
L1449970471070L
sg5
g61
sg7
S'##COMMON_io.rong.push.PushReceiver:Action'
p1704
sg9
S'10825'
p1705
sg11
S'io.rong.push.HeartBeat\n'
p1706
sa(dp1707
g2
S'10825'
p1708
sg4
L1449970471070L
sg5
g61
sg7
S'##COMMON_io.rong.push.PushReceiver:ACTION_HEARTBEAT'
p1709
sg9
S'10825'
p1710
sg11
S'Receive heartbeat action.\n'
p1711
sa(dp1712
g2
S'10825'
p1713
sg4
L1449970471080L
sg5
g61
sg7
S'##COMMON_io.rong.push.PushClient:Ping'
p1714
sg9
S'10840'
p1715
sg11
S'/119.254.110.62\n'
p1716
sa(dp1717
g2
S'10825'
p1718
sg4
L1449970471090L
sg5
g61
sg7
S'##COMMON_io.rong.push.PushService.PushHandler:ping'
p1719
sg9
S'10840'
p1720
sg11
S'Reconnect in 30 sec later if no PINGRESP received.\n'
p1721
sa(dp1722
g2
S'10825'
p1723
sg4
L1449970471090L
sg5
g61
sg7
S'##COMMON_io.rong.push.PushContext:Heartbeat'
p1724
sg9
S'10840'
p1725
sg11
S'start_next\n'
p1726
sa(dp1727
g2
S'10825'
p1728
sg4
L1449970472820L
sg5
g61
sg7
S'##COMMON_io.rong.push.PushClient:Handler'
p1729
sg9
S'10845'
p1730
sg11
S'PINGRESP\n'
p1731
sa(dp1732
g2
S'10825'
p1733
sg4
L1449970472820L
sg5
g61
sg7
S'##COMMON_io.rong.push.PushService.PushHandler.PingSuccessListener:PingSuccessListener'
p1734
sg9
S'10845'
p1735
sg11
S'Receive PingResp. Cancel the runnable.\n'
p1736
sa(dp1737
g2
S'10825'
p1738
sg4
L1449970652040L
sg5
g61
sg7
S'##COMMON_io.rong.push.PushReceiver:Action'
p1739
sg9
S'10825'
p1740
sg11
S'io.rong.push.HeartBeat\n'
p1741
sa(dp1742
g2
S'10825'
p1743
sg4
L1449970652040L
sg5
g61
sg7
S'##COMMON_io.rong.push.PushReceiver:ACTION_HEARTBEAT'
p1744
sg9
S'10825'
p1745
sg11
S'Receive heartbeat action.\n'
p1746
sa(dp1747
g2
S'10825'
p1748
sg4
L1449970652060L
sg5
g61
sg7
S'##COMMON_io.rong.push.PushClient:Ping'
p1749
sg9
S'10840'
p1750
sg11
S'/119.254.110.62\n'
p1751
sa(dp1752
g2
S'10825'
p1753
sg4
L1449970652060L
sg5
g61
sg7
S'##COMMON_io.rong.push.PushService.PushHandler:ping'
p1754
sg9
S'10840'
p1755
sg11
S'Reconnect in 30 sec later if no PINGRESP received.\n'
p1756
sa(dp1757
g2
S'10825'
p1758
sg4
L1449970652060L
sg5
g61
sg7
S'##COMMON_io.rong.push.PushContext:Heartbeat'
p1759
sg9
S'10840'
p1760
sg11
S'start_next\n'
p1761
sa(dp1762
g2
S'10825'
p1763
sg4
L1449970653810L
sg5
g61
sg7
S'##COMMON_io.rong.push.PushClient:Handler'
p1764
sg9
S'10845'
p1765
sg11
S'PINGRESP\n'
p1766
sa(dp1767
g2
S'10825'
p1768
sg4
L1449970653810L
sg5
g61
sg7
S'##COMMON_io.rong.push.PushService.PushHandler.PingSuccessListener:PingSuccessListener'
p1769
sg9
S'10845'
p1770
sg11
S'Receive PingResp. Cancel the runnable.\n'
p1771
sa(dp1772
g2
S'10825'
p1773
sg4
L1449970832080L
sg5
g61
sg7
S'##COMMON_io.rong.push.PushReceiver:Action'
p1774
sg9
S'10825'
p1775
sg11
S'io.rong.push.HeartBeat\n'
p1776
sa(dp1777
g2
S'10825'
p1778
sg4
L1449970832080L
sg5
g61
sg7
S'##COMMON_io.rong.push.PushReceiver:ACTION_HEARTBEAT'
p1779
sg9
S'10825'
p1780
sg11
S'Receive heartbeat action.\n'
p1781
sa(dp1782
g2
S'10825'
p1783
sg4
L1449970832100L
sg5
g61
sg7
S'##COMMON_io.rong.push.PushClient:Ping'
p1784
sg9
S'10840'
p1785
sg11
S'/119.254.110.62\n'
p1786
sa(dp1787
g2
S'10825'
p1788
sg4
L1449970832100L
sg5
g61
sg7
S'##COMMON_io.rong.push.PushService.PushHandler:ping'
p1789
sg9
S'10840'
p1790
sg11
S'Reconnect in 30 sec later if no PINGRESP received.\n'
p1791
sa(dp1792
g2
S'10825'
p1793
sg4
L1449970832100L
sg5
g61
sg7
S'##COMMON_io.rong.push.PushContext:Heartbeat'
p1794
sg9
S'10840'
p1795
sg11
S'start_next\n'
p1796
sa(dp1797
g2
S'10825'
p1798
sg4
L1449970833810L
sg5
g61
sg7
S'##COMMON_io.rong.push.PushClient:Handler'
p1799
sg9
S'10845'
p1800
sg11
S'PINGRESP\n'
p1801
sa(dp1802
g2
S'10825'
p1803
sg4
L1449970833810L
sg5
g61
sg7
S'##COMMON_io.rong.push.PushService.PushHandler.PingSuccessListener:PingSuccessListener'
p1804
sg9
S'10845'
p1805
sg11
S'Receive PingResp. Cancel the runnable.\n'
p1806
sa(dp1807
g2
S'10825'
p1808
sg4
L1449971012110L
sg5
g61
sg7
S'##COMMON_io.rong.push.PushReceiver:Action'
p1809
sg9
S'10825'
p1810
sg11
S'io.rong.push.HeartBeat\n'
p1811
sa(dp1812
g2
S'10825'
p1813
sg4
L1449971012110L
sg5
g61
sg7
S'##COMMON_io.rong.push.PushReceiver:ACTION_HEARTBEAT'
p1814
sg9
S'10825'
p1815
sg11
S'Receive heartbeat action.\n'
p1816
sa(dp1817
g2
S'10825'
p1818
sg4
L1449971012160L
sg5
g61
sg7
S'##COMMON_io.rong.push.PushClient:Ping'
p1819
sg9
S'10840'
p1820
sg11
S'/119.254.110.62\n'
p1821
sa(dp1822
g2
S'10825'
p1823
sg4
L1449971012160L
sg5
g61
sg7
S'##COMMON_io.rong.push.PushService.PushHandler:ping'
p1824
sg9
S'10840'
p1825
sg11
S'Reconnect in 30 sec later if no PINGRESP received.\n'
p1826
sa(dp1827
g2
S'10825'
p1828
sg4
L1449971012160L
sg5
g61
sg7
S'##COMMON_io.rong.push.PushContext:Heartbeat'
p1829
sg9
S'10840'
p1830
sg11
S'start_next\n'
p1831
sa(dp1832
g2
S'10825'
p1833
sg4
L1449971012990L
sg5
g61
sg7
S'##COMMON_io.rong.push.PushClient:Handler'
p1834
sg9
S'10845'
p1835
sg11
S'PINGRESP\n'
p1836
sa(dp1837
g2
S'10825'
p1838
sg4
L1449971012990L
sg5
g61
sg7
S'##COMMON_io.rong.push.PushService.PushHandler.PingSuccessListener:PingSuccessListener'
p1839
sg9
S'10845'
p1840
sg11
S'Receive PingResp. Cancel the runnable.\n'
p1841
sa(dp1842
g2
S'10825'
p1843
sg4
L1449971192270L
sg5
g61
sg7
S'##COMMON_io.rong.push.PushReceiver:Action'
p1844
sg9
S'10825'
p1845
sg11
S'io.rong.push.HeartBeat\n'
p1846
sa(dp1847
g2
S'10825'
p1848
sg4
L1449971192270L
sg5
g61
sg7
S'##COMMON_io.rong.push.PushReceiver:ACTION_HEARTBEAT'
p1849
sg9
S'10825'
p1850
sg11
S'Receive heartbeat action.\n'
p1851
sa(dp1852
g2
S'10825'
p1853
sg4
L1449971192300L
sg5
g61
sg7
S'##COMMON_io.rong.push.PushClient:Ping'
p1854
sg9
S'10840'
p1855
sg11
S'/119.254.110.62\n'
p1856
sa(dp1857
g2
S'10825'
p1858
sg4
L1449971192300L
sg5
g61
sg7
S'##COMMON_io.rong.push.PushService.PushHandler:ping'
p1859
sg9
S'10840'
p1860
sg11
S'Reconnect in 30 sec later if no PINGRESP received.\n'
p1861
sa(dp1862
g2
S'10825'
p1863
sg4
L1449971192300L
sg5
g61
sg7
S'##COMMON_io.rong.push.PushContext:Heartbeat'
p1864
sg9
S'10840'
p1865
sg11
S'start_next\n'
p1866
sa(dp1867
g2
S'10825'
p1868
sg4
L1449971193900L
sg5
g61
sg7
S'##COMMON_io.rong.push.PushClient:Handler'
p1869
sg9
S'10845'
p1870
sg11
S'PINGRESP\n'
p1871
sa(dp1872
g2
S'10825'
p1873
sg4
L1449971193900L
sg5
g61
sg7
S'##COMMON_io.rong.push.PushService.PushHandler.PingSuccessListener:PingSuccessListener'
p1874
sg9
S'10845'
p1875
sg11
S'Receive PingResp. Cancel the runnable.\n'
p1876
sa(dp1877
g2
S'10825'
p1878
sg4
L1449971373040L
sg5
g61
sg7
S'##COMMON_io.rong.push.PushReceiver:Action'
p1879
sg9
S'10825'
p1880
sg11
S'io.rong.push.HeartBeat\n'
p1881
sa(dp1882
g2
S'10825'
p1883
sg4
L1449971373040L
sg5
g61
sg7
S'##COMMON_io.rong.push.PushReceiver:ACTION_HEARTBEAT'
p1884
sg9
S'10825'
p1885
sg11
S'Receive heartbeat action.\n'
p1886
sa(dp1887
g2
S'10825'
p1888
sg4
L1449971373060L
sg5
g61
sg7
S'##COMMON_io.rong.push.PushClient:Ping'
p1889
sg9
S'10840'
p1890
sg11
S'/119.254.110.62\n'
p1891
sa(dp1892
g2
S'10825'
p1893
sg4
L1449971373060L
sg5
g61
sg7
S'##COMMON_io.rong.push.PushService.PushHandler:ping'
p1894
sg9
S'10840'
p1895
sg11
S'Reconnect in 30 sec later if no PINGRESP received.\n'
p1896
sa(dp1897
g2
S'10825'
p1898
sg4
L1449971373060L
sg5
g61
sg7
S'##COMMON_io.rong.push.PushContext:Heartbeat'
p1899
sg9
S'10840'
p1900
sg11
S'start_next\n'
p1901
sa(dp1902
g2
S'10825'
p1903
sg4
L1449971374810L
sg5
g61
sg7
S'##COMMON_io.rong.push.PushClient:Handler'
p1904
sg9
S'10845'
p1905
sg11
S'PINGRESP\n'
p1906
sa(dp1907
g2
S'10825'
p1908
sg4
L1449971374810L
sg5
g61
sg7
S'##COMMON_io.rong.push.PushService.PushHandler.PingSuccessListener:PingSuccessListener'
p1909
sg9
S'10845'
p1910
sg11
S'Receive PingResp. Cancel the runnable.\n'
p1911
sa(dp1912
g2
S'10825'
p1913
sg4
L1449971553080L
sg5
g61
sg7
S'##COMMON_io.rong.push.PushReceiver:Action'
p1914
sg9
S'10825'
p1915
sg11
S'io.rong.push.HeartBeat\n'
p1916
sa(dp1917
g2
S'10825'
p1918
sg4
L1449971553080L
sg5
g61
sg7
S'##COMMON_io.rong.push.PushReceiver:ACTION_HEARTBEAT'
p1919
sg9
S'10825'
p1920
sg11
S'Receive heartbeat action.\n'
p1921
sa(dp1922
g2
S'10825'
p1923
sg4
L1449971553100L
sg5
g61
sg7
S'##COMMON_io.rong.push.PushClient:Ping'
p1924
sg9
S'10840'
p1925
sg11
S'/119.254.110.62\n'
p1926
sa(dp1927
g2
S'10825'
p1928
sg4
L1449971553110L
sg5
g61
sg7
S'##COMMON_io.rong.push.PushService.PushHandler:ping'
p1929
sg9
S'10840'
p1930
sg11
S'Reconnect in 30 sec later if no PINGRESP received.\n'
p1931
sa(dp1932
g2
S'10825'
p1933
sg4
L1449971553110L
sg5
g61
sg7
S'##COMMON_io.rong.push.PushContext:Heartbeat'
p1934
sg9
S'10840'
p1935
sg11
S'start_next\n'
p1936
sa(dp1937
g2
S'10825'
p1938
sg4
L1449971554800L
sg5
g61
sg7
S'##COMMON_io.rong.push.PushClient:Handler'
p1939
sg9
S'10845'
p1940
sg11
S'PINGRESP\n'
p1941
sa(dp1942
g2
S'10825'
p1943
sg4
L1449971554800L
sg5
g61
sg7
S'##COMMON_io.rong.push.PushService.PushHandler.PingSuccessListener:PingSuccessListener'
p1944
sg9
S'10845'
p1945
sg11
S'Receive PingResp. Cancel the runnable.\n'
p1946
sa(dp1947
g2
S'10825'
p1948
sg4
L1449971733110L
sg5
g61
sg7
S'##COMMON_io.rong.push.PushReceiver:Action'
p1949
sg9
S'10825'
p1950
sg11
S'io.rong.push.HeartBeat\n'
p1951
sa(dp1952
g2
S'10825'
p1953
sg4
L1449971733110L
sg5
g61
sg7
S'##COMMON_io.rong.push.PushReceiver:ACTION_HEARTBEAT'
p1954
sg9
S'10825'
p1955
sg11
S'Receive heartbeat action.\n'
p1956
sa(dp1957
g2
S'10825'
p1958
sg4
L1449971733130L
sg5
g61
sg7
S'##COMMON_io.rong.push.PushClient:Ping'
p1959
sg9
S'10840'
p1960
sg11
S'/119.254.110.62\n'
p1961
sa(dp1962
g2
S'10825'
p1963
sg4
L1449971733130L
sg5
g61
sg7
S'##COMMON_io.rong.push.PushService.PushHandler:ping'
p1964
sg9
S'10840'
p1965
sg11
S'Reconnect in 30 sec later if no PINGRESP received.\n'
p1966
sa(dp1967
g2
S'10825'
p1968
sg4
L1449971733130L
sg5
g61
sg7
S'##COMMON_io.rong.push.PushContext:Heartbeat'
p1969
sg9
S'10840'
p1970
sg11
S'start_next\n'
p1971
sa(dp1972
g2
S'10825'
p1973
sg4
L1449971734820L
sg5
g61
sg7
S'##COMMON_io.rong.push.PushClient:Handler'
p1974
sg9
S'10845'
p1975
sg11
S'PINGRESP\n'
p1976
sa(dp1977
g2
S'10825'
p1978
sg4
L1449971734820L
sg5
g61
sg7
S'##COMMON_io.rong.push.PushService.PushHandler.PingSuccessListener:PingSuccessListener'
p1979
sg9
S'10845'
p1980
sg11
S'Receive PingResp. Cancel the runnable.\n'
p1981
sa(dp1982
g2
S'10825'
p1983
sg4
L1449971923810L
sg5
g61
sg7
S'##COMMON_io.rong.push.PushReceiver:Action'
p1984
sg9
S'10825'
p1985
sg11
S'android.net.conn.CONNECTIVITY_CHANGE\n'
p1986
sa(dp1987
g2
S'10825'
p1988
sg4
L1449971923810L
sg5
g15
sg7
S'##COMMON_io.rong.push.PushReceiver:CONNECTIVITY_ACTION'
p1989
sg9
S'10825'
p1990
sg11
S'Receive the network change message start \n'
p1991
sa(dp1992
g2
S'10825'
p1993
sg4
L1449971923810L
sg5
g15
sg7
S'##COMMON_io.rong.push.PushReceiver:CONNECTIVITY_ACTION'
p1994
sg9
S'10825'
p1995
sg11
S'Receive the network change message end\n'
p1996
sa(dp1997
g2
S'10825'
p1998
sg4
L1449971923810L
sg5
g61
sg7
S'##COMMON_io.rong.push.PushReceiver:STATUS_WIFI'
p1999
sg9
S'10825'
p2000
sg11
S'mStatus is 2,the network has changed to be WIFI\n'
p2001
sa(dp2002
g2
S'10825'
p2003
sg4
L1449971923810L
sg5
g61
sg7
S'##COMMON_io.rong.push.PushReceiver:CONNECTIVITY_ACTION'
p2004
sg9
S'10825'
p2005
sg11
S'The network is same as before, do nothing!!\n'
p2006
sa(dp2007
g2
S'10825'
p2008
sg4
L1449971925250L
sg5
g61
sg7
S'##COMMON_io.rong.push.PushReceiver:Action'
p2009
sg9
S'10825'
p2010
sg11
S'io.rong.push.HeartBeat\n'
p2011
sa(dp2012
g2
S'10825'
p2013
sg4
L1449971925250L
sg5
g61
sg7
S'##COMMON_io.rong.push.PushReceiver:ACTION_HEARTBEAT'
p2014
sg9
S'10825'
p2015
sg11
S'Receive heartbeat action.\n'
p2016
sa(dp2017
g2
S'10825'
p2018
sg4
L1449971925290L
sg5
g61
sg7
S'##COMMON_io.rong.push.PushClient:Ping'
p2019
sg9
S'10840'
p2020
sg11
S'/119.254.110.62\n'
p2021
sa(dp2022
g2
S'10825'
p2023
sg4
L1449971925330L
sg5
g61
sg7
S'##COMMON_io.rong.push.PushService.PushHandler:ping'
p2024
sg9
S'10840'
p2025
sg11
S'Reconnect in 30 sec later if no PINGRESP received.\n'
p2026
sa(dp2027
g2
S'10825'
p2028
sg4
L1449971925330L
sg5
g61
sg7
S'##COMMON_io.rong.push.PushContext:Heartbeat'
p2029
sg9
S'10840'
p2030
sg11
S'start_next\n'
p2031
sa(dp2032
g2
S'10825'
p2033
sg4
L1449971925430L
sg5
g61
sg7
S'##COMMON_io.rong.push.PushClient:Handler'
p2034
sg9
S'10845'
p2035
sg11
S'PINGRESP\n'
p2036
sa(dp2037
g2
S'10825'
p2038
sg4
L1449971925430L
sg5
g61
sg7
S'##COMMON_io.rong.push.PushService.PushHandler.PingSuccessListener:PingSuccessListener'
p2039
sg9
S'10845'
p2040
sg11
S'Receive PingResp. Cancel the runnable.\n'
p2041
sa(dp2042
g2
S'18508'
p2043
sg4
L1449971941370L
sg5
g6
sg7
S'Trace   '
p2044
sg9
S'18508'
p2045
sg11
S'error opening trace file: No such file or directory (2)\n'
p2046
sa(dp2047
g2
S'18508'
p2048
sg4
L1449971941370L
sg5
g15
sg7
S'ActivityThread'
p2049
sg9
S'18508'
p2050
sg11
S'setTargetHeapUtilization:0.25\n'
p2051
sa(dp2052
g2
S'18508'
p2053
sg4
L1449971941370L
sg5
g15
sg7
S'ActivityThread'
p2054
sg9
S'18508'
p2055
sg11
S'setTargetHeapIdealFree:8388608\n'
p2056
sa(dp2057
g2
S'18508'
p2058
sg4
L1449971941370L
sg5
g15
sg7
S'ActivityThread'
p2059
sg9
S'18508'
p2060
sg11
S'setTargetHeapConcurrentStart:2097152\n'
p2061
sa(dp2062
g2
S'18508'
p2063
sg4
L1449971941940L
sg5
g15
sg7
S'ImageLoader'
p2064
sg9
S'18508'
p2065
sg11
S'Initialize ImageLoader with configuration\n'
p2066
sa(dp2067
g2
S'18508'
p2068
sg4
L1449971941950L
sg5
g15
sg7
S'long    '
p2069
sg9
S'18508'
p2070
sg11
S'getCurProcessName:com.xdf.ucan\n'
p2071
sa(dp2072
g2
S'18508'
p2073
sg4
L1449971942020L
sg5
g15
sg7
S'##KIT_io.rong.imkit.widget.provider.TextInputProvider:TextInputProvider'
p2074
sg9
S'18508'
p2075
sg11
g43
sa(dp2076
g2
S'18508'
p2077
sg4
L1449971942030L
sg5
g6
sg7
S'##IPC_io.rong.imkit.widget.provider.VoIPInputProvider:VoIPInputProvider'
p2078
sg9
S'18508'
p2079
sg11
S'----------\xe6\x9e\x84\xe9\x80\xa0\xe6\x96\xb9\xe6\xb3\x95----------\n'
p2080
sa(dp2081
g2
S'18508'
p2082
sg4
L1449971942030L
sg5
g15
sg7
S'##IPC_com.xdf.ucan.BaseApplication:RongIMClient : init'
p2083
sg9
S'18508'
p2084
sg11
S'process = com.xdf.ucan\n'
p2085
sa(dp2086
g2
S'18508'
p2087
sg4
L1449971942060L
sg5
g15
sg7
S'##COMMON_io.rong.push.PushContext:PushContext'
p2088
sg9
S'18508'
p2089
sg11
S'init\n'
p2090
sa(dp2091
g2
S'18508'
p2092
sg4
L1449971942790L
sg5
g61
sg7
S'##COMMON_io.rong.push.PushContext:sendConnectCommand'
p2093
sg9
S'18508'
p2094
sg11
S'2100\n'
p2095
sa(dp2096
g2
S'18508'
p2097
sg4
L1449971942800L
sg5
g15
sg7
S'##IPC_io.rong.imlib.RongIMClient:initBindService'
p2098
sg9
S'18508'
p2099
sg11
S'mIsBind = false\n'
p2100
sa(dp2101
g2
S'18508'
p2102
sg4
L1449971942820L
sg5
g15
sg7
S'##IPC_io.rong.imlib.RongIMClient:registerMessageType'
p2103
sg9
S'18508'
p2104
sg11
S'class io.rong.message.TextMessage\n'
p2105
sa(dp2106
g2
S'18508'
p2107
sg4
L1449971942820L
sg5
g15
sg7
S'##IPC_io.rong.imlib.RongIMClient:registerMessageType'
p2108
sg9
S'18508'
p2109
sg11
S'class io.rong.message.VoiceMessage\n'
p2110
sa(dp2111
g2
S'18508'
p2112
sg4
L1449971942820L
sg5
g15
sg7
S'##IPC_io.rong.imlib.RongIMClient:registerMessageType'
p2113
sg9
S'18508'
p2114
sg11
S'class io.rong.message.ImageMessage\n'
p2115
sa(dp2116
g2
S'18508'
p2117
sg4
L1449971942820L
sg5
g15
sg7
S'##IPC_io.rong.imlib.RongIMClient:registerMessageType'
p2118
sg9
S'18508'
p2119
sg11
S'class io.rong.message.LocationMessage\n'
p2120
sa(dp2121
g2
S'18508'
p2122
sg4
L1449971942820L
sg5
g15
sg7
S'##IPC_io.rong.imlib.RongIMClient:registerMessageType'
p2123
sg9
S'18508'
p2124
sg11
S'class io.rong.message.CommandNotificationMessage\n'
p2125
sa(dp2126
g2
S'18508'
p2127
sg4
L1449971942820L
sg5
g15
sg7
S'##IPC_io.rong.imlib.RongIMClient:registerMessageType'
p2128
sg9
S'18508'
p2129
sg11
S'class io.rong.message.ContactNotificationMessage\n'
p2130
sa(dp2131
g2
S'18508'
p2132
sg4
L1449971942820L
sg5
g15
sg7
S'##IPC_io.rong.imlib.RongIMClient:registerMessageType'
p2133
sg9
S'18508'
p2134
sg11
S'class io.rong.message.RichContentMessage\n'
p2135
sa(dp2136
g2
S'18508'
p2137
sg4
L1449971942820L
sg5
g15
sg7
S'##IPC_io.rong.imlib.RongIMClient:registerMessageType'
p2138
sg9
S'18508'
p2139
sg11
S'class io.rong.message.PublicServiceMultiRichContentMessage\n'
p2140
sa(dp2141
g2
S'18508'
p2142
sg4
L1449971942820L
sg5
g15
sg7
S'##IPC_io.rong.imlib.RongIMClient:registerMessageType'
p2143
sg9
S'18508'
p2144
sg11
S'class io.rong.message.PublicServiceRichContentMessage\n'
p2145
sa(dp2146
g2
S'18508'
p2147
sg4
L1449971942820L
sg5
g15
sg7
S'##IPC_io.rong.imlib.RongIMClient:registerMessageType'
p2148
sg9
S'18508'
p2149
sg11
S'class io.rong.message.PublicServiceCommandMessage\n'
p2150
sa(dp2151
g2
S'18508'
p2152
sg4
L1449971942820L
sg5
g15
sg7
S'##IPC_io.rong.imlib.RongIMClient:registerMessageType'
p2153
sg9
S'18508'
p2154
sg11
S'class io.rong.message.ProfileNotificationMessage\n'
p2155
sa(dp2156
g2
S'18508'
p2157
sg4
L1449971942820L
sg5
g15
sg7
S'##IPC_io.rong.imlib.RongIMClient:registerMessageType'
p2158
sg9
S'18508'
p2159
sg11
S'class io.rong.message.HandshakeMessage\n'
p2160
sa(dp2161
g2
S'18508'
p2162
sg4
L1449971942820L
sg5
g15
sg7
S'##IPC_io.rong.imlib.RongIMClient:registerMessageType'
p2163
sg9
S'18508'
p2164
sg11
S'class io.rong.message.InformationNotificationMessage\n'
p2165
sa(dp2166
g2
S'18508'
p2167
sg4
L1449971942820L
sg5
g15
sg7
S'##IPC_io.rong.imlib.RongIMClient:registerMessageType'
p2168
sg9
S'18508'
p2169
sg11
S'class io.rong.message.DiscussionNotificationMessage\n'
p2170
sa(dp2171
g2
S'18508'
p2172
sg4
L1449971942830L
sg5
g15
sg7
S'##IPC_io.rong.imlib.RongIMClient:registerMessageType'
p2173
sg9
S'18508'
p2174
sg11
S'class io.rong.message.SuspendMessage\n'
p2175
sa(dp2176
g2
S'18508'
p2177
sg4
L1449971942830L
sg5
g6
sg7
S'##KIT_com.xdf.ucan.BaseApplication:init'
p2178
sg9
S'18508'
p2179
sg11
S'before init\n'
p2180
sa(dp2181
g2
S'18508'
p2182
sg4
L1449971942830L
sg5
g15
sg7
S'##IPC_io.rong.imlib.RongIMClient:registerMessageType'
p2183
sg9
S'18508'
p2184
sg11
S'class io.rong.voipkit.message.VoIPAcceptMessage\n'
p2185
sa(dp2186
g2
S'18508'
p2187
sg4
L1449971942830L
sg5
g15
sg7
S'##IPC_io.rong.imlib.RongIMClient:registerMessageType'
p2188
sg9
S'18508'
p2189
sg11
S'class io.rong.voipkit.message.VoIPCallMessage\n'
p2190
sa(dp2191
g2
S'18508'
p2192
sg4
L1449971942830L
sg5
g15
sg7
S'##IPC_io.rong.imlib.RongIMClient:registerMessageType'
p2193
sg9
S'18508'
p2194
sg11
S'class io.rong.voipkit.message.VoIPFinishMessage\n'
p2195
sa(dp2196
g2
S'18529'
p2197
sg4
L1449971942860L
sg5
g6
sg7
S'Trace   '
p2198
sg9
S'18529'
p2199
sg11
S'error opening trace file: No such file or directory (2)\n'
p2200
sa(dp2201
g2
S'18529'
p2202
sg4
L1449971942860L
sg5
g15
sg7
S'ActivityThread'
p2203
sg9
S'18529'
p2204
sg11
S'setTargetHeapUtilization:0.25\n'
p2205
sa(dp2206
g2
S'18529'
p2207
sg4
L1449971942860L
sg5
g15
sg7
S'ActivityThread'
p2208
sg9
S'18529'
p2209
sg11
S'setTargetHeapIdealFree:8388608\n'
p2210
sa(dp2211
g2
S'18529'
p2212
sg4
L1449971942860L
sg5
g15
sg7
S'ActivityThread'
p2213
sg9
S'18529'
p2214
sg11
S'setTargetHeapConcurrentStart:2097152\n'
p2215
sa(dp2216
g2
S'18508'
p2217
sg4
L1449971942860L
sg5
g61
sg7
S'##KIT_com.xdf.ucan.RongCloudEvent:RongIMClientWrapper'
p2218
sg9
S'18508'
p2219
sg11
S'setOnReceiveMessageListener\n'
p2220
sa(dp2221
g2
S'18508'
p2222
sg4
L1449971943030L
sg5
g61
sg7
S'LBE-Sec '
p2223
sg9
S'18508'
p2224
sg11
S'ActivityManager.GetContentProvider->settings\n'
p2225
sa(dp2226
g2
S'18529'
p2227
sg4
L1449971943420L
sg5
g15
sg7
S'ImageLoader'
p2228
sg9
S'18529'
p2229
sg11
S'Initialize ImageLoader with configuration\n'
p2230
sa(dp2231
g2
S'18508'
p2232
sg4
L1449971943430L
sg5
g61
sg7
S'Adreno200-EGL'
p2233
sg9
S'18508'
p2234
sg11
S'<qeglDrvAPI_eglInitialize:299>: EGL 1.4 QUALCOMM build: AU_LINUX_ANDROID_JB_REL_RB1.04.01.01.06.041_msm8660_surf_JB_REL_RB1.2_Merge_release_AU (Merge)\nBuild Date: 11/05/12 Mon\nLocal Branch: mybranch425650\nRemote Branch: quic/jb_rel_rb1.2\nLocal Patches: NONE\nReconstruct Branch: AU_LINUX_ANDROID_JB_REL_RB1.04.01.01.06.041 +  NOTHING\n'
p2235
sa(dp2236
g2
S'18529'
p2237
sg4
L1449971943440L
sg5
g15
sg7
S'long    '
p2238
sg9
S'18529'
p2239
sg11
S'getCurProcessName:com.xdf.ucan:ipc\n'
p2240
sa(dp2241
g2
S'18529'
p2242
sg4
L1449971943450L
sg5
g15
sg7
S'RongService'
p2243
sg9
S'18529'
p2244
sg11
S'onCreate, pid=18529\n'
p2245
sa(dp2246
g2
S'18529'
p2247
sg4
L1449971943450L
sg5
g15
sg7
S'RongService'
p2248
sg9
S'18529'
p2249
sg11
S'onBind, pid=18529\n'
p2250
sa(dp2251
g2
S'18529'
p2252
sg4
L1449971943850L
sg5
g61
sg7
S'##COMMON_io.rong.imlib.LibContext:DeviceId'
p2253
sg9
S'18529'
p2254
sg11
S'867746013051545\n'
p2255
sa(dp2256
g2
S'18529'
p2257
sg4
L1449971943900L
sg5
g15
sg7
S'NativeClient'
p2258
sg9
S'18529'
p2259
sg11
S'/storage/sdcard0/Android/data/com.xdf.ucan/RongCloud||/data/data/com.xdf.ucan/files\n'
p2260
sa(dp2261
g2
S'18508'
p2262
sg4
L1449971943900L
sg5
g15
sg7
S'##IPC_io.rong.imlib.RongIMClient:onServiceConnected'
p2263
sg9
S'18508'
p2264
sg11
S'mConnectionStatus = DISCONNECTED, stub = io.rong.imlib.ipc.remote.IHandler$Stub$Proxy@42c447e8\n'
p2265
sa(dp2266
g2
S'18508'
p2267
sg4
L1449971943950L
sg5
g15
sg7
S'##IPC_io.rong.imlib.ConnectChangeReceiver:onReceive'
p2268
sg9
S'18508'
p2269
sg11
S'network:true, intent:Intent { act=android.net.conn.CONNECTIVITY_CHANGE flg=0x8000010 (has extras) }\n'
p2270
sa(dp2271
g2
S'18508'
p2272
sg4
L1449971944060L
sg5
g15
sg7
S'dalvikvm'
p2273
sg9
S'18510'
p2274
sg11
S'GC_CONCURRENT freed 5196K, 40% free 9319K/15363K, paused 12ms+7ms, total 99ms\n'
p2275
sa(dp2276
g2
S'18508'
p2277
sg4
L1449971944060L
sg5
g15
sg7
S'dalvikvm'
p2278
sg9
S'18508'
p2279
sg11
S'WAIT_FOR_CONCURRENT_GC blocked 7ms\n'
p2280
sa(dp2281
g2
S'18508'
p2282
sg4
L1449971944760L
sg5
g15
sg7
S'long    '
p2283
sg9
S'18508'
p2284
sg11
S'cancle request\xef\xbc\x9acom.xdf.ucan.ui.login.StartActivity\n'
p2285
sa(dp2286
g2
S'18569'
p2287
sg4
L1449971944940L
sg5
g6
sg7
S'Trace   '
p2288
sg9
S'18569'
p2289
sg11
S'error opening trace file: No such file or directory (2)\n'
p2290
sa(dp2291
g2
S'18569'
p2292
sg4
L1449971944940L
sg5
g15
sg7
S'ActivityThread'
p2293
sg9
S'18569'
p2294
sg11
S'setTargetHeapUtilization:0.25\n'
p2295
sa(dp2296
g2
S'18569'
p2297
sg4
L1449971944940L
sg5
g15
sg7
S'ActivityThread'
p2298
sg9
S'18569'
p2299
sg11
S'setTargetHeapIdealFree:8388608\n'
p2300
sa(dp2301
g2
S'18569'
p2302
sg4
L1449971944940L
sg5
g15
sg7
S'ActivityThread'
p2303
sg9
S'18569'
p2304
sg11
S'setTargetHeapConcurrentStart:2097152\n'
p2305
sa(dp2306
g2
S'18569'
p2307
sg4
L1449971945370L
sg5
g15
sg7
S'ImageLoader'
p2308
sg9
S'18569'
p2309
sg11
S'Initialize ImageLoader with configuration\n'
p2310
sa(dp2311
g2
S'18569'
p2312
sg4
L1449971945370L
sg5
g15
sg7
S'long    '
p2313
sg9
S'18569'
p2314
sg11
S'getCurProcessName:io.rong.push\n'
p2315
sa(dp2316
g2
S'18569'
p2317
sg4
L1449971945390L
sg5
g15
sg7
S'##IPC_com.xdf.ucan.BaseApplication:RongIMClient : init'
p2318
sg9
S'18569'
p2319
sg11
S'process = io.rong.push\n'
p2320
sa(dp2321
g2
S'18569'
p2322
sg4
L1449971945410L
sg5
g15
sg7
S'##COMMON_io.rong.push.PushContext:PushContext'
p2323
sg9
S'18569'
p2324
sg11
S'init\n'
p2325
sa(dp2326
g2
S'18569'
p2327
sg4
L1449971945500L
sg5
g61
sg7
S'##COMMON_io.rong.push.PushContext:sendConnectCommand'
p2328
sg9
S'18569'
p2329
sg11
S'4100\n'
p2330
sa(dp2331
g2
S'18569'
p2332
sg4
L1449971945510L
sg5
g61
sg7
S'##COMMON_io.rong.push.PushReceiver:Action'
p2333
sg9
S'18569'
p2334
sg11
S'io.rong.push.Connect\n'
p2335
sa(dp2336
g2
S'18569'
p2337
sg4
L1449971945520L
sg5
g61
sg7
S'##COMMON_io.rong.push.PushReceiver:ACTION_CONNECT'
p2338
sg9
S'18569'
p2339
sg11
S'version is null, run connect\n'
p2340
sa(dp2341
g2
S'18569'
p2342
sg4
L1449971945520L
sg5
g61
sg7
S'##COMMON_java.lang.Class:PushService'
p2343
sg9
S'18569'
p2344
sg11
S'PushService OnCreate\n'
p2345
sa(dp2346
g2
S'18569'
p2347
sg4
L1449971945520L
sg5
g61
sg7
S'PushService'
p2348
sg9
S'18569'
p2349
sg11
S'PushService OnCreate\n'
p2350
sa(dp2351
g2
S'18508'
p2352
sg4
L1449971945540L
sg5
g15
sg7
S'##IPC_io.rong.imlib.ConnectChangeReceiver:onReceive'
p2353
sg9
S'18508'
p2354
sg11
S'network:true, intent:Intent { act=action_reconnect flg=0x14 pkg=com.xdf.ucan cmp=com.xdf.ucan/io.rong.imlib.ConnectChangeReceiver (has extras) }\n'
p2355
sa(dp2356
g2
S'18569'
p2357
sg4
L1449971945550L
sg5
g61
sg7
S'##COMMON_io.rong.push.PushService:CONNECT_CHECK'
p2358
sg9
S'18584'
p2359
sg11
S'getRunningPushServiceVersion null\n'
p2360
sa(dp2361
g2
S'18569'
p2362
sg4
L1449971945550L
sg5
g61
sg7
S'##COMMON_io.rong.push.PushService.PushHandler:PushHandler'
p2363
sg9
S'18584'
p2364
sg11
S'ConnectToServer,isClientConnected = false\n'
p2365
sa(dp2366
g2
S'18508'
p2367
sg4
L1449971945570L
sg5
g15
sg7
S'##IPC_io.rong.imlib.ReConnectService:RECONNECT'
p2368
sg9
S'18585'
p2369
sg11
S'Intent { cmp=com.xdf.ucan/io.rong.imlib.ReConnectService (has extras) }\n'
p2370
sa(dp2371
g2
S'18508'
p2372
sg4
L1449971945570L
sg5
g15
sg7
S'##IPC_io.rong.imlib.RongIMClient:reconnect'
p2373
sg9
S'18585'
p2374
sg11
S'mConnectionStatus :DISCONNECTED\n'
p2375
sa(dp2376
g2
S'18569'
p2377
sg4
L1449971945680L
sg5
g61
sg7
S'##COMMON_io.rong.push.PushService:DeviceId'
p2378
sg9
S'18584'
p2379
sg11
S'867746013051545\n'
p2380
sa(dp2381
g2
S'18569'
p2382
sg4
L1449971945690L
sg5
g61
sg7
S'##COMMON_io.rong.push.PushService.PushHandler:PushHandler'
p2383
sg9
S'18584'
p2384
sg11
S'the saved IP = 119.254.110.62:8605\n'
p2385
sa(dp2386
g2
S'18569'
p2387
sg4
L1449971945690L
sg5
g61
sg7
S'PushHandler'
p2388
sg9
S'18584'
p2389
sg11
S'the saved time = 1449965022801current time = 1449971945696\n'
p2390
sa(dp2391
g2
S'18569'
p2392
sg4
L1449971945690L
sg5
g61
sg7
S'##COMMON_io.rong.push.PushService.PushHandler:PushHandler'
p2393
sg9
S'18584'
p2394
sg11
S'ConnectToServer,use the saved IP, IP = 119.254.110.62:8605\n'
p2395
sa(dp2396
g2
S'18569'
p2397
sg4
L1449971945690L
sg5
g61
sg7
S'##COMMON_io.rong.push.PushService:getPhoneInformation.'
p2398
sg9
S'18584'
p2399
sg11
S'the phone information is:Xiaomi|MI 1S|16|WIFI|46000\n'
p2400
sa(dp2401
g2
S'18569'
p2402
sg4
L1449971945690L
sg5
g61
sg7
S'##COMMON_io.rong.push.PushClient:connect'
p2403
sg9
S'18584'
p2404
sg11
S'phone info:Xiaomi|MI 1S|16|WIFI|46000 push version:2.6\n'
p2405
sa(dp2406
g2
S'18569'
p2407
sg4
L1449971945700L
sg5
g61
sg7
S'##COMMON_io.rong.push.PushClient:connect'
p2408
sg9
S'18584'
p2409
sg11
S'the socket is established\n'
p2410
sa(dp2411
g2
S'18569'
p2412
sg4
L1449971945850L
sg5
g61
sg7
S'##COMMON_io.rong.push.PushClient:Handler'
p2413
sg9
S'18587'
p2414
sg11
S'CONNACK\n'
p2415
sa(dp2416
g2
S'18569'
p2417
sg4
L1449971945850L
sg5
g61
sg7
S'PushService'
p2418
sg9
S'18587'
p2419
sg11
S'The client connect status is:CONNACK\n'
p2420
sa(dp2421
g2
S'18569'
p2422
sg4
L1449971945850L
sg5
g61
sg7
S'##COMMON_io.rong.push.PushService:Connect'
p2423
sg9
S'18587'
p2424
sg11
S'Client connect successfully.So start the heart beat.\n'
p2425
sa(dp2426
g2
S'18569'
p2427
sg4
L1449971945850L
sg5
g61
sg7
S'##COMMON_io.rong.push.PushContext:Heartbeat'
p2428
sg9
S'18587'
p2429
sg11
S'start_next\n'
p2430
sa(dp2431
g2
S'18508'
p2432
sg4
L1449971947540L
sg5
g568
sg7
S'IInputConnectionWrapper'
p2433
sg9
S'18508'
p2434
sg11
S'showStatusIcon on inactive InputConnection\n'
p2435
sa(dp2436
g2
S'18569'
p2437
sg4
L1449971949600L
sg5
g61
sg7
S'##COMMON_io.rong.push.PushReceiver:Action'
p2438
sg9
S'18569'
p2439
sg11
S'io.rong.push.Connect\n'
p2440
sa(dp2441
g2
S'18569'
p2442
sg4
L1449971949620L
sg5
g61
sg7
S'##COMMON_io.rong.push.PushReceiver:ACTION_CONNECT'
p2443
sg9
S'18569'
p2444
sg11
S'version is null, run connect\n'
p2445
sa(dp2446
g2
S'18569'
p2447
sg4
L1449971949630L
sg5
g61
sg7
S'##COMMON_io.rong.push.PushService:CONNECT_CHECK'
p2448
sg9
S'18584'
p2449
sg11
S'getRunningPushServiceVersion null\n'
p2450
sa(dp2451
g2
S'18569'
p2452
sg4
L1449971949630L
sg5
g61
sg7
S'##COMMON_io.rong.push.PushService.PushHandler:PushHandler'
p2453
sg9
S'18584'
p2454
sg11
S'ConnectToServer,isClientConnected = true\n'
p2455
sa(dp2456
g2
S'18529'
p2457
sg4
L1449971965150L
sg5
g15
sg7
S'RongService'
p2458
sg9
S'18529'
p2459
sg11
S'onUnbind, pid=18529\n'
p2460
sa(dp2461
g2
S'18529'
p2462
sg4
L1449971965150L
sg5
g15
sg7
S'RongService'
p2463
sg9
S'18529'
p2464
sg11
S'onDestroy, pid=18529\n'
p2465
sa(dp2466
g2
S'18615'
p2467
sg4
L1449971965260L
sg5
g6
sg7
S'Trace   '
p2468
sg9
S'18615'
p2469
sg11
S'error opening trace file: No such file or directory (2)\n'
p2470
sa(dp2471
g2
S'18615'
p2472
sg4
L1449971965260L
sg5
g15
sg7
S'ActivityThread'
p2473
sg9
S'18615'
p2474
sg11
S'setTargetHeapUtilization:0.25\n'
p2475
sa(dp2476
g2
S'18615'
p2477
sg4
L1449971965260L
sg5
g15
sg7
S'ActivityThread'
p2478
sg9
S'18615'
p2479
sg11
S'setTargetHeapIdealFree:8388608\n'
p2480
sa(dp2481
g2
S'18615'
p2482
sg4
L1449971965260L
sg5
g15
sg7
S'ActivityThread'
p2483
sg9
S'18615'
p2484
sg11
S'setTargetHeapConcurrentStart:2097152\n'
p2485
sa(dp2486
g2
S'18615'
p2487
sg4
L1449971965820L
sg5
g15
sg7
S'ImageLoader'
p2488
sg9
S'18615'
p2489
sg11
S'Initialize ImageLoader with configuration\n'
p2490
sa(dp2491
g2
S'18615'
p2492
sg4
L1449971965830L
sg5
g15
sg7
S'long    '
p2493
sg9
S'18615'
p2494
sg11
S'getCurProcessName:com.xdf.ucan\n'
p2495
sa(dp2496
g2
S'18615'
p2497
sg4
L1449971965950L
sg5
g15
sg7
S'##KIT_io.rong.imkit.widget.provider.TextInputProvider:TextInputProvider'
p2498
sg9
S'18615'
p2499
sg11
g43
sa(dp2500
g2
S'18615'
p2501
sg4
L1449971965960L
sg5
g6
sg7
S'##IPC_io.rong.imkit.widget.provider.VoIPInputProvider:VoIPInputProvider'
p2502
sg9
S'18615'
p2503
sg11
S'----------\xe6\x9e\x84\xe9\x80\xa0\xe6\x96\xb9\xe6\xb3\x95----------\n'
p2504
sa(dp2505
g2
S'18615'
p2506
sg4
L1449971965960L
sg5
g15
sg7
S'##IPC_com.xdf.ucan.BaseApplication:RongIMClient : init'
p2507
sg9
S'18615'
p2508
sg11
S'process = com.xdf.ucan\n'
p2509
sa(dp2510
g2
S'18615'
p2511
sg4
L1449971965980L
sg5
g15
sg7
S'##COMMON_io.rong.push.PushContext:PushContext'
p2512
sg9
S'18615'
p2513
sg11
S'init\n'
p2514
sa(dp2515
g2
S'18615'
p2516
sg4
L1449971966060L
sg5
g61
sg7
S'##COMMON_io.rong.push.PushContext:sendConnectCommand'
p2517
sg9
S'18615'
p2518
sg11
S'3900\n'
p2519
sa(dp2520
g2
S'18615'
p2521
sg4
L1449971966070L
sg5
g15
sg7
S'##IPC_io.rong.imlib.RongIMClient:initBindService'
p2522
sg9
S'18615'
p2523
sg11
S'mIsBind = false\n'
p2524
sa(dp2525
g2
S'18615'
p2526
sg4
L1449971966090L
sg5
g15
sg7
S'##IPC_io.rong.imlib.RongIMClient:registerMessageType'
p2527
sg9
S'18615'
p2528
sg11
S'class io.rong.message.TextMessage\n'
p2529
sa(dp2530
g2
S'18615'
p2531
sg4
L1449971966090L
sg5
g15
sg7
S'##IPC_io.rong.imlib.RongIMClient:registerMessageType'
p2532
sg9
S'18615'
p2533
sg11
S'class io.rong.message.VoiceMessage\n'
p2534
sa(dp2535
g2
S'18615'
p2536
sg4
L1449971966090L
sg5
g15
sg7
S'##IPC_io.rong.imlib.RongIMClient:registerMessageType'
p2537
sg9
S'18615'
p2538
sg11
S'class io.rong.message.ImageMessage\n'
p2539
sa(dp2540
g2
S'18615'
p2541
sg4
L1449971966100L
sg5
g15
sg7
S'##IPC_io.rong.imlib.RongIMClient:registerMessageType'
p2542
sg9
S'18615'
p2543
sg11
S'class io.rong.message.LocationMessage\n'
p2544
sa(dp2545
g2
S'18615'
p2546
sg4
L1449971966100L
sg5
g15
sg7
S'##IPC_io.rong.imlib.RongIMClient:registerMessageType'
p2547
sg9
S'18615'
p2548
sg11
S'class io.rong.message.CommandNotificationMessage\n'
p2549
sa(dp2550
g2
S'18615'
p2551
sg4
L1449971966100L
sg5
g15
sg7
S'##IPC_io.rong.imlib.RongIMClient:registerMessageType'
p2552
sg9
S'18615'
p2553
sg11
S'class io.rong.message.ContactNotificationMessage\n'
p2554
sa(dp2555
g2
S'18615'
p2556
sg4
L1449971966100L
sg5
g15
sg7
S'##IPC_io.rong.imlib.RongIMClient:registerMessageType'
p2557
sg9
S'18615'
p2558
sg11
S'class io.rong.message.RichContentMessage\n'
p2559
sa(dp2560
g2
S'18615'
p2561
sg4
L1449971966100L
sg5
g15
sg7
S'##IPC_io.rong.imlib.RongIMClient:registerMessageType'
p2562
sg9
S'18615'
p2563
sg11
S'class io.rong.message.PublicServiceMultiRichContentMessage\n'
p2564
sa(dp2565
g2
S'18615'
p2566
sg4
L1449971966100L
sg5
g15
sg7
S'##IPC_io.rong.imlib.RongIMClient:registerMessageType'
p2567
sg9
S'18615'
p2568
sg11
S'class io.rong.message.PublicServiceRichContentMessage\n'
p2569
sa(dp2570
g2
S'18615'
p2571
sg4
L1449971966100L
sg5
g15
sg7
S'##IPC_io.rong.imlib.RongIMClient:registerMessageType'
p2572
sg9
S'18615'
p2573
sg11
S'class io.rong.message.PublicServiceCommandMessage\n'
p2574
sa(dp2575
g2
S'18615'
p2576
sg4
L1449971966100L
sg5
g15
sg7
S'##IPC_io.rong.imlib.RongIMClient:registerMessageType'
p2577
sg9
S'18615'
p2578
sg11
S'class io.rong.message.ProfileNotificationMessage\n'
p2579
sa(dp2580
g2
S'18615'
p2581
sg4
L1449971966100L
sg5
g15
sg7
S'##IPC_io.rong.imlib.RongIMClient:registerMessageType'
p2582
sg9
S'18615'
p2583
sg11
S'class io.rong.message.HandshakeMessage\n'
p2584
sa(dp2585
g2
S'18615'
p2586
sg4
L1449971966100L
sg5
g15
sg7
S'##IPC_io.rong.imlib.RongIMClient:registerMessageType'
p2587
sg9
S'18615'
p2588
sg11
S'class io.rong.message.InformationNotificationMessage\n'
p2589
sa(dp2590
g2
S'18615'
p2591
sg4
L1449971966100L
sg5
g15
sg7
S'##IPC_io.rong.imlib.RongIMClient:registerMessageType'
p2592
sg9
S'18615'
p2593
sg11
S'class io.rong.message.DiscussionNotificationMessage\n'
p2594
sa(dp2595
g2
S'18615'
p2596
sg4
L1449971966100L
sg5
g15
sg7
S'##IPC_io.rong.imlib.RongIMClient:registerMessageType'
p2597
sg9
S'18615'
p2598
sg11
S'class io.rong.message.SuspendMessage\n'
p2599
sa(dp2600
g2
S'18615'
p2601
sg4
L1449971966110L
sg5
g6
sg7
S'##KIT_com.xdf.ucan.BaseApplication:init'
p2602
sg9
S'18615'
p2603
sg11
S'before init\n'
p2604
sa(dp2605
g2
S'18615'
p2606
sg4
L1449971966110L
sg5
g15
sg7
S'##IPC_io.rong.imlib.RongIMClient:registerMessageType'
p2607
sg9
S'18615'
p2608
sg11
S'class io.rong.voipkit.message.VoIPAcceptMessage\n'
p2609
sa(dp2610
g2
S'18615'
p2611
sg4
L1449971966110L
sg5
g15
sg7
S'##IPC_io.rong.imlib.RongIMClient:registerMessageType'
p2612
sg9
S'18615'
p2613
sg11
S'class io.rong.voipkit.message.VoIPCallMessage\n'
p2614
sa(dp2615
g2
S'18615'
p2616
sg4
L1449971966110L
sg5
g15
sg7
S'##IPC_io.rong.imlib.RongIMClient:registerMessageType'
p2617
sg9
S'18615'
p2618
sg11
S'class io.rong.voipkit.message.VoIPFinishMessage\n'
p2619
sa(dp2620
g2
S'18634'
p2621
sg4
L1449971966150L
sg5
g6
sg7
S'Trace   '
p2622
sg9
S'18634'
p2623
sg11
S'error opening trace file: No such file or directory (2)\n'
p2624
sa(dp2625
g2
S'18634'
p2626
sg4
L1449971966150L
sg5
g15
sg7
S'ActivityThread'
p2627
sg9
S'18634'
p2628
sg11
S'setTargetHeapUtilization:0.25\n'
p2629
sa(dp2630
g2
S'18634'
p2631
sg4
L1449971966150L
sg5
g15
sg7
S'ActivityThread'
p2632
sg9
S'18634'
p2633
sg11
S'setTargetHeapIdealFree:8388608\n'
p2634
sa(dp2635
g2
S'18634'
p2636
sg4
L1449971966150L
sg5
g15
sg7
S'ActivityThread'
p2637
sg9
S'18634'
p2638
sg11
S'setTargetHeapConcurrentStart:2097152\n'
p2639
sa(dp2640
g2
S'18615'
p2641
sg4
L1449971966160L
sg5
g61
sg7
S'##KIT_com.xdf.ucan.RongCloudEvent:RongIMClientWrapper'
p2642
sg9
S'18615'
p2643
sg11
S'setOnReceiveMessageListener\n'
p2644
sa(dp2645
g2
S'18615'
p2646
sg4
L1449971966280L
sg5
g61
sg7
S'LBE-Sec '
p2647
sg9
S'18615'
p2648
sg11
S'ActivityManager.GetContentProvider->settings\n'
p2649
sa(dp2650
g2
S'18615'
p2651
sg4
L1449971966560L
sg5
g61
sg7
S'Adreno200-EGL'
p2652
sg9
S'18615'
p2653
sg11
S'<qeglDrvAPI_eglInitialize:299>: EGL 1.4 QUALCOMM build: AU_LINUX_ANDROID_JB_REL_RB1.04.01.01.06.041_msm8660_surf_JB_REL_RB1.2_Merge_release_AU (Merge)\nBuild Date: 11/05/12 Mon\nLocal Branch: mybranch425650\nRemote Branch: quic/jb_rel_rb1.2\nLocal Patches: NONE\nReconstruct Branch: AU_LINUX_ANDROID_JB_REL_RB1.04.01.01.06.041 +  NOTHING\n'
p2654
sa(dp2655
g2
S'18634'
p2656
sg4
L1449971966740L
sg5
g15
sg7
S'ImageLoader'
p2657
sg9
S'18634'
p2658
sg11
S'Initialize ImageLoader with configuration\n'
p2659
sa(dp2660
g2
S'18634'
p2661
sg4
L1449971966750L
sg5
g15
sg7
S'long    '
p2662
sg9
S'18634'
p2663
sg11
S'getCurProcessName:com.xdf.ucan:ipc\n'
p2664
sa(dp2665
g2
S'18634'
p2666
sg4
L1449971966760L
sg5
g15
sg7
S'RongService'
p2667
sg9
S'18634'
p2668
sg11
S'onCreate, pid=18634\n'
p2669
sa(dp2670
g2
S'18634'
p2671
sg4
L1449971966760L
sg5
g15
sg7
S'RongService'
p2672
sg9
S'18634'
p2673
sg11
S'onBind, pid=18634\n'
p2674
sa(dp2675
g2
S'18634'
p2676
sg4
L1449971966940L
sg5
g61
sg7
S'##COMMON_io.rong.imlib.LibContext:DeviceId'
p2677
sg9
S'18634'
p2678
sg11
S'867746013051545\n'
p2679
sa(dp2680
g2
S'18634'
p2681
sg4
L1449971966940L
sg5
g15
sg7
S'NativeClient'
p2682
sg9
S'18634'
p2683
sg11
S'/storage/sdcard0/Android/data/com.xdf.ucan/RongCloud||/data/data/com.xdf.ucan/files\n'
p2684
sa(dp2685
g2
S'18615'
p2686
sg4
L1449971966940L
sg5
g15
sg7
S'##IPC_io.rong.imlib.RongIMClient:onServiceConnected'
p2687
sg9
S'18615'
p2688
sg11
S'mConnectionStatus = DISCONNECTED, stub = io.rong.imlib.ipc.remote.IHandler$Stub$Proxy@42beac50\n'
p2689
sa(dp2690
g2
S'18615'
p2691
sg4
L1449971966990L
sg5
g15
sg7
S'##IPC_io.rong.imlib.ConnectChangeReceiver:onReceive'
p2692
sg9
S'18615'
p2693
sg11
S'network:true, intent:Intent { act=android.net.conn.CONNECTIVITY_CHANGE flg=0x8000010 (has extras) }\n'
p2694
sa(dp2695
g2
S'18615'
p2696
sg4
L1449971967340L
sg5
g15
sg7
S'dalvikvm'
p2697
sg9
S'18617'
p2698
sg11
S'GC_CONCURRENT freed 4809K, 38% free 9589K/15363K, paused 2ms+2ms, total 27ms\n'
p2699
sa(dp2700
g2
S'18615'
p2701
sg4
L1449971967340L
sg5
g15
sg7
S'dalvikvm'
p2702
sg9
S'18615'
p2703
sg11
S'WAIT_FOR_CONCURRENT_GC blocked 21ms\n'
p2704
sa(dp2705
g2
S'18615'
p2706
sg4
L1449971968000L
sg5
g15
sg7
S'long    '
p2707
sg9
S'18615'
p2708
sg11
S'cancle request\xef\xbc\x9acom.xdf.ucan.ui.login.StartActivity\n'
p2709
sa(dp2710
g2
S'18672'
p2711
sg4
L1449971970000L
sg5
g6
sg7
S'Trace   '
p2712
sg9
S'18672'
p2713
sg11
S'error opening trace file: No such file or directory (2)\n'
p2714
sa(dp2715
g2
S'18672'
p2716
sg4
L1449971970000L
sg5
g15
sg7
S'ActivityThread'
p2717
sg9
S'18672'
p2718
sg11
S'setTargetHeapUtilization:0.25\n'
p2719
sa(dp2720
g2
S'18672'
p2721
sg4
L1449971970000L
sg5
g15
sg7
S'ActivityThread'
p2722
sg9
S'18672'
p2723
sg11
S'setTargetHeapIdealFree:8388608\n'
p2724
sa(dp2725
g2
S'18672'
p2726
sg4
L1449971970000L
sg5
g15
sg7
S'ActivityThread'
p2727
sg9
S'18672'
p2728
sg11
S'setTargetHeapConcurrentStart:2097152\n'
p2729
sa(dp2730
g2
S'18672'
p2731
sg4
L1449971970440L
sg5
g15
sg7
S'ImageLoader'
p2732
sg9
S'18672'
p2733
sg11
S'Initialize ImageLoader with configuration\n'
p2734
sa(dp2735
g2
S'18672'
p2736
sg4
L1449971970460L
sg5
g15
sg7
S'long    '
p2737
sg9
S'18672'
p2738
sg11
S'getCurProcessName:io.rong.push\n'
p2739
sa(dp2740
g2
S'18615'
p2741
sg4
L1449971970480L
sg5
g568
sg7
S'IInputConnectionWrapper'
p2742
sg9
S'18615'
p2743
sg11
S'showStatusIcon on inactive InputConnection\n'
p2744
sa(dp2745
g2
S'18672'
p2746
sg4
L1449971970490L
sg5
g15
sg7
S'##IPC_com.xdf.ucan.BaseApplication:RongIMClient : init'
p2747
sg9
S'18672'
p2748
sg11
S'process = io.rong.push\n'
p2749
sa(dp2750
g2
S'18672'
p2751
sg4
L1449971970550L
sg5
g15
sg7
S'##COMMON_io.rong.push.PushContext:PushContext'
p2752
sg9
S'18672'
p2753
sg11
S'init\n'
p2754
sa(dp2755
g2
S'18672'
p2756
sg4
L1449971970680L
sg5
g61
sg7
S'##COMMON_io.rong.push.PushContext:sendConnectCommand'
p2757
sg9
S'18672'
p2758
sg11
g43
sa(dp2759
g2
S'18672'
p2760
sg4
L1449971970700L
sg5
g61
sg7
S'##COMMON_io.rong.push.PushReceiver:Action'
p2761
sg9
S'18672'
p2762
sg11
S'io.rong.push.Connect\n'
p2763
sa(dp2764
g2
S'18672'
p2765
sg4
L1449971970960L
sg5
g61
sg7
S'##COMMON_io.rong.push.PushReceiver:ACTION_CONNECT'
p2766
sg9
S'18672'
p2767
sg11
S'version is null, run connect\n'
p2768
sa(dp2769
g2
S'18672'
p2770
sg4
L1449971970970L
sg5
g61
sg7
S'##COMMON_java.lang.Class:PushService'
p2771
sg9
S'18672'
p2772
sg11
S'PushService OnCreate\n'
p2773
sa(dp2774
g2
S'18672'
p2775
sg4
L1449971970970L
sg5
g61
sg7
S'PushService'
p2776
sg9
S'18672'
p2777
sg11
S'PushService OnCreate\n'
p2778
sa(dp2779
g2
S'18672'
p2780
sg4
L1449971970970L
sg5
g61
sg7
S'##COMMON_io.rong.push.PushReceiver:Action'
p2781
sg9
S'18672'
p2782
sg11
S'io.rong.push.Connect\n'
p2783
sa(dp2784
g2
S'18672'
p2785
sg4
L1449971971000L
sg5
g61
sg7
S'##COMMON_io.rong.push.PushReceiver:ACTION_CONNECT'
p2786
sg9
S'18672'
p2787
sg11
S'version is null, run connect\n'
p2788
sa(dp2789
g2
S'18672'
p2790
sg4
L1449971971000L
sg5
g61
sg7
S'##COMMON_io.rong.push.PushService:CONNECT_CHECK'
p2791
sg9
S'18693'
p2792
sg11
S'getRunningPushServiceVersion null\n'
p2793
sa(dp2794
g2
S'18672'
p2795
sg4
L1449971971000L
sg5
g61
sg7
S'##COMMON_io.rong.push.PushService.PushHandler:PushHandler'
p2796
sg9
S'18693'
p2797
sg11
S'ConnectToServer,isClientConnected = false\n'
p2798
sa(dp2799
g2
S'18672'
p2800
sg4
L1449971971190L
sg5
g61
sg7
S'##COMMON_io.rong.push.PushService:DeviceId'
p2801
sg9
S'18693'
p2802
sg11
S'867746013051545\n'
p2803
sa(dp2804
g2
S'18672'
p2805
sg4
L1449971971210L
sg5
g61
sg7
S'##COMMON_io.rong.push.PushService.PushHandler:PushHandler'
p2806
sg9
S'18693'
p2807
sg11
S'the saved IP = 119.254.110.62:8605\n'
p2808
sa(dp2809
g2
S'18672'
p2810
sg4
L1449971971210L
sg5
g61
sg7
S'PushHandler'
p2811
sg9
S'18693'
p2812
sg11
S'the saved time = 1449965022801current time = 1449971971221\n'
p2813
sa(dp2814
g2
S'18672'
p2815
sg4
L1449971971210L
sg5
g61
sg7
S'##COMMON_io.rong.push.PushService.PushHandler:PushHandler'
p2816
sg9
S'18693'
p2817
sg11
S'ConnectToServer,use the saved IP, IP = 119.254.110.62:8605\n'
p2818
sa(dp2819
g2
S'18672'
p2820
sg4
L1449971971220L
sg5
g61
sg7
S'##COMMON_io.rong.push.PushService:getPhoneInformation.'
p2821
sg9
S'18693'
p2822
sg11
S'the phone information is:Xiaomi|MI 1S|16|WIFI|46000\n'
p2823
sa(dp2824
g2
S'18672'
p2825
sg4
L1449971971220L
sg5
g61
sg7
S'##COMMON_io.rong.push.PushClient:connect'
p2826
sg9
S'18693'
p2827
sg11
S'phone info:Xiaomi|MI 1S|16|WIFI|46000 push version:2.6\n'
p2828
sa(dp2829
g2
S'18672'
p2830
sg4
L1449971971230L
sg5
g61
sg7
S'##COMMON_io.rong.push.PushClient:connect'
p2831
sg9
S'18693'
p2832
sg11
S'the socket is established\n'
p2833
sa(dp2834
g2
S'18672'
p2835
sg4
L1449971971380L
sg5
g61
sg7
S'##COMMON_io.rong.push.PushClient:Handler'
p2836
sg9
S'18695'
p2837
sg11
S'CONNACK\n'
p2838
sa(dp2839
g2
S'18672'
p2840
sg4
L1449971971380L
sg5
g61
sg7
S'PushService'
p2841
sg9
S'18695'
p2842
sg11
S'The client connect status is:CONNACK\n'
p2843
sa(dp2844
g2
S'18672'
p2845
sg4
L1449971971380L
sg5
g61
sg7
S'##COMMON_io.rong.push.PushService:Connect'
p2846
sg9
S'18695'
p2847
sg11
S'Client connect successfully.So start the heart beat.\n'
p2848
sa(dp2849
g2
S'18672'
p2850
sg4
L1449971971380L
sg5
g61
sg7
S'##COMMON_io.rong.push.PushContext:Heartbeat'
p2851
sg9
S'18695'
p2852
sg11
S'start_next\n'
p2853
sa(dp2854
g2
S'18672'
p2855
sg4
L1449971971390L
sg5
g61
sg7
S'##COMMON_io.rong.push.PushService:CONNECT_CHECK'
p2856
sg9
S'18693'
p2857
sg11
S'getRunningPushServiceVersion null\n'
p2858
sa(dp2859
g2
S'18672'
p2860
sg4
L1449971971390L
sg5
g61
sg7
S'##COMMON_io.rong.push.PushService.PushHandler:PushHandler'
p2861
sg9
S'18693'
p2862
sg11
S'ConnectToServer,isClientConnected = true\n'
p2863
sa(dp2864
g2
S'18615'
p2865
sg4
L1449971972560L
sg5
g15
sg7
S'long    '
p2866
sg9
S'18615'
p2867
sg11
S'cancle request\xef\xbc\x9acom.xdf.ucan.ui.login.LoginActivity\n'
p2868
sa(dp2869
g2
S'18634'
p2870
sg4
L1449971972650L
sg5
g15
sg7
S'RongService'
p2871
sg9
S'18634'
p2872
sg11
S'onUnbind, pid=18634\n'
p2873
sa(dp2874
g2
S'18634'
p2875
sg4
L1449971972650L
sg5
g15
sg7
S'RongService'
p2876
sg9
S'18634'
p2877
sg11
S'onDestroy, pid=18634\n'
p2878
sa(dp2879
g2
S'18855'
p2880
sg4
L1449971998280L
sg5
g6
sg7
S'Trace   '
p2881
sg9
S'18855'
p2882
sg11
S'error opening trace file: No such file or directory (2)\n'
p2883
sa(dp2884
g2
S'18855'
p2885
sg4
L1449971998280L
sg5
g15
sg7
S'ActivityThread'
p2886
sg9
S'18855'
p2887
sg11
S'setTargetHeapUtilization:0.25\n'
p2888
sa(dp2889
g2
S'18855'
p2890
sg4
L1449971998280L
sg5
g15
sg7
S'ActivityThread'
p2891
sg9
S'18855'
p2892
sg11
S'setTargetHeapIdealFree:8388608\n'
p2893
sa(dp2894
g2
S'18855'
p2895
sg4
L1449971998280L
sg5
g15
sg7
S'ActivityThread'
p2896
sg9
S'18855'
p2897
sg11
S'setTargetHeapConcurrentStart:2097152\n'
p2898
sa(dp2899
g2
S'18855'
p2900
sg4
L1449971998760L
sg5
g15
sg7
S'ImageLoader'
p2901
sg9
S'18855'
p2902
sg11
S'Initialize ImageLoader with configuration\n'
p2903
sa(dp2904
g2
S'18855'
p2905
sg4
L1449971998790L
sg5
g15
sg7
S'long    '
p2906
sg9
S'18855'
p2907
sg11
S'getCurProcessName:com.xdf.ucan\n'
p2908
sa(dp2909
g2
S'18855'
p2910
sg4
L1449971998860L
sg5
g15
sg7
S'##KIT_io.rong.imkit.widget.provider.TextInputProvider:TextInputProvider'
p2911
sg9
S'18855'
p2912
sg11
g43
sa(dp2913
g2
S'18855'
p2914
sg4
L1449971998870L
sg5
g6
sg7
S'##IPC_io.rong.imkit.widget.provider.VoIPInputProvider:VoIPInputProvider'
p2915
sg9
S'18855'
p2916
sg11
S'----------\xe6\x9e\x84\xe9\x80\xa0\xe6\x96\xb9\xe6\xb3\x95----------\n'
p2917
sa(dp2918
g2
S'18855'
p2919
sg4
L1449971998880L
sg5
g15
sg7
S'##IPC_com.xdf.ucan.BaseApplication:RongIMClient : init'
p2920
sg9
S'18855'
p2921
sg11
S'process = com.xdf.ucan\n'
p2922
sa(dp2923
g2
S'18855'
p2924
sg4
L1449971998900L
sg5
g15
sg7
S'##COMMON_io.rong.push.PushContext:PushContext'
p2925
sg9
S'18855'
p2926
sg11
S'init\n'
p2927
sa(dp2928
g2
S'18855'
p2929
sg4
L1449971998970L
sg5
g61
sg7
S'##COMMON_io.rong.push.PushContext:sendConnectCommand'
p2930
sg9
S'18855'
p2931
sg11
S'4300\n'
p2932
sa(dp2933
g2
S'18855'
p2934
sg4
L1449971998980L
sg5
g15
sg7
S'##IPC_io.rong.imlib.RongIMClient:initBindService'
p2935
sg9
S'18855'
p2936
sg11
S'mIsBind = false\n'
p2937
sa(dp2938
g2
S'18855'
p2939
sg4
L1449971999000L
sg5
g15
sg7
S'##IPC_io.rong.imlib.RongIMClient:registerMessageType'
p2940
sg9
S'18855'
p2941
sg11
S'class io.rong.message.TextMessage\n'
p2942
sa(dp2943
g2
S'18855'
p2944
sg4
L1449971999000L
sg5
g15
sg7
S'##IPC_io.rong.imlib.RongIMClient:registerMessageType'
p2945
sg9
S'18855'
p2946
sg11
S'class io.rong.message.VoiceMessage\n'
p2947
sa(dp2948
g2
S'18855'
p2949
sg4
L1449971999000L
sg5
g15
sg7
S'##IPC_io.rong.imlib.RongIMClient:registerMessageType'
p2950
sg9
S'18855'
p2951
sg11
S'class io.rong.message.ImageMessage\n'
p2952
sa(dp2953
g2
S'18855'
p2954
sg4
L1449971999000L
sg5
g15
sg7
S'##IPC_io.rong.imlib.RongIMClient:registerMessageType'
p2955
sg9
S'18855'
p2956
sg11
S'class io.rong.message.LocationMessage\n'
p2957
sa(dp2958
g2
S'18855'
p2959
sg4
L1449971999000L
sg5
g15
sg7
S'##IPC_io.rong.imlib.RongIMClient:registerMessageType'
p2960
sg9
S'18855'
p2961
sg11
S'class io.rong.message.CommandNotificationMessage\n'
p2962
sa(dp2963
g2
S'18855'
p2964
sg4
L1449971999000L
sg5
g15
sg7
S'##IPC_io.rong.imlib.RongIMClient:registerMessageType'
p2965
sg9
S'18855'
p2966
sg11
S'class io.rong.message.ContactNotificationMessage\n'
p2967
sa(dp2968
g2
S'18855'
p2969
sg4
L1449971999000L
sg5
g15
sg7
S'##IPC_io.rong.imlib.RongIMClient:registerMessageType'
p2970
sg9
S'18855'
p2971
sg11
S'class io.rong.message.RichContentMessage\n'
p2972
sa(dp2973
g2
S'18855'
p2974
sg4
L1449971999000L
sg5
g15
sg7
S'##IPC_io.rong.imlib.RongIMClient:registerMessageType'
p2975
sg9
S'18855'
p2976
sg11
S'class io.rong.message.PublicServiceMultiRichContentMessage\n'
p2977
sa(dp2978
g2
S'18855'
p2979
sg4
L1449971999000L
sg5
g15
sg7
S'##IPC_io.rong.imlib.RongIMClient:registerMessageType'
p2980
sg9
S'18855'
p2981
sg11
S'class io.rong.message.PublicServiceRichContentMessage\n'
p2982
sa(dp2983
g2
S'18855'
p2984
sg4
L1449971999000L
sg5
g15
sg7
S'##IPC_io.rong.imlib.RongIMClient:registerMessageType'
p2985
sg9
S'18855'
p2986
sg11
S'class io.rong.message.PublicServiceCommandMessage\n'
p2987
sa(dp2988
g2
S'18855'
p2989
sg4
L1449971999000L
sg5
g15
sg7
S'##IPC_io.rong.imlib.RongIMClient:registerMessageType'
p2990
sg9
S'18855'
p2991
sg11
S'class io.rong.message.ProfileNotificationMessage\n'
p2992
sa(dp2993
g2
S'18855'
p2994
sg4
L1449971999000L
sg5
g15
sg7
S'##IPC_io.rong.imlib.RongIMClient:registerMessageType'
p2995
sg9
S'18855'
p2996
sg11
S'class io.rong.message.HandshakeMessage\n'
p2997
sa(dp2998
g2
S'18855'
p2999
sg4
L1449971999000L
sg5
g15
sg7
S'##IPC_io.rong.imlib.RongIMClient:registerMessageType'
p3000
sg9
S'18855'
p3001
sg11
S'class io.rong.message.InformationNotificationMessage\n'
p3002
sa(dp3003
g2
S'18855'
p3004
sg4
L1449971999000L
sg5
g15
sg7
S'##IPC_io.rong.imlib.RongIMClient:registerMessageType'
p3005
sg9
S'18855'
p3006
sg11
S'class io.rong.message.DiscussionNotificationMessage\n'
p3007
sa(dp3008
g2
S'18855'
p3009
sg4
L1449971999000L
sg5
g15
sg7
S'##IPC_io.rong.imlib.RongIMClient:registerMessageType'
p3010
sg9
S'18855'
p3011
sg11
S'class io.rong.message.SuspendMessage\n'
p3012
sa(dp3013
g2
S'18855'
p3014
sg4
L1449971999010L
sg5
g6
sg7
S'##KIT_com.xdf.ucan.BaseApplication:init'
p3015
sg9
S'18855'
p3016
sg11
S'before init\n'
p3017
sa(dp3018
g2
S'18855'
p3019
sg4
L1449971999010L
sg5
g15
sg7
S'##IPC_io.rong.imlib.RongIMClient:registerMessageType'
p3020
sg9
S'18855'
p3021
sg11
S'class io.rong.voipkit.message.VoIPAcceptMessage\n'
p3022
sa(dp3023
g2
S'18855'
p3024
sg4
L1449971999010L
sg5
g15
sg7
S'##IPC_io.rong.imlib.RongIMClient:registerMessageType'
p3025
sg9
S'18855'
p3026
sg11
S'class io.rong.voipkit.message.VoIPCallMessage\n'
p3027
sa(dp3028
g2
S'18855'
p3029
sg4
L1449971999010L
sg5
g15
sg7
S'##IPC_io.rong.imlib.RongIMClient:registerMessageType'
p3030
sg9
S'18855'
p3031
sg11
S'class io.rong.voipkit.message.VoIPFinishMessage\n'
p3032
sa(dp3033
g2
S'18855'
p3034
sg4
L1449971999030L
sg5
g61
sg7
S'##KIT_com.xdf.ucan.RongCloudEvent:RongIMClientWrapper'
p3035
sg9
S'18855'
p3036
sg11
S'setOnReceiveMessageListener\n'
p3037
sa(dp3038
g2
S'18885'
p3039
sg4
L1449971999060L
sg5
g6
sg7
S'Trace   '
p3040
sg9
S'18885'
p3041
sg11
S'error opening trace file: No such file or directory (2)\n'
p3042
sa(dp3043
g2
S'18885'
p3044
sg4
L1449971999060L
sg5
g15
sg7
S'ActivityThread'
p3045
sg9
S'18885'
p3046
sg11
S'setTargetHeapUtilization:0.25\n'
p3047
sa(dp3048
g2
S'18885'
p3049
sg4
L1449971999060L
sg5
g15
sg7
S'ActivityThread'
p3050
sg9
S'18885'
p3051
sg11
S'setTargetHeapIdealFree:8388608\n'
p3052
sa(dp3053
g2
S'18885'
p3054
sg4
L1449971999060L
sg5
g15
sg7
S'ActivityThread'
p3055
sg9
S'18885'
p3056
sg11
S'setTargetHeapConcurrentStart:2097152\n'
p3057
sa(dp3058
g2
S'18855'
p3059
sg4
L1449971999120L
sg5
g61
sg7
S'LBE-Sec '
p3060
sg9
S'18855'
p3061
sg11
S'ActivityManager.GetContentProvider->settings\n'
p3062
sa(dp3063
g2
S'18855'
p3064
sg4
L1449971999220L
sg5
g61
sg7
S'Adreno200-EGL'
p3065
sg9
S'18855'
p3066
sg11
S'<qeglDrvAPI_eglInitialize:299>: EGL 1.4 QUALCOMM build: AU_LINUX_ANDROID_JB_REL_RB1.04.01.01.06.041_msm8660_surf_JB_REL_RB1.2_Merge_release_AU (Merge)\nBuild Date: 11/05/12 Mon\nLocal Branch: mybranch425650\nRemote Branch: quic/jb_rel_rb1.2\nLocal Patches: NONE\nReconstruct Branch: AU_LINUX_ANDROID_JB_REL_RB1.04.01.01.06.041 +  NOTHING\n'
p3067
sa(dp3068
g2
S'18885'
p3069
sg4
L1449971999590L
sg5
g15
sg7
S'ImageLoader'
p3070
sg9
S'18885'
p3071
sg11
S'Initialize ImageLoader with configuration\n'
p3072
sa(dp3073
g2
S'18885'
p3074
sg4
L1449971999600L
sg5
g15
sg7
S'long    '
p3075
sg9
S'18885'
p3076
sg11
S'getCurProcessName:com.xdf.ucan:ipc\n'
p3077
sa(dp3078
g2
S'18885'
p3079
sg4
L1449971999600L
sg5
g15
sg7
S'RongService'
p3080
sg9
S'18885'
p3081
sg11
S'onCreate, pid=18885\n'
p3082
sa(dp3083
g2
S'18885'
p3084
sg4
L1449971999600L
sg5
g15
sg7
S'RongService'
p3085
sg9
S'18885'
p3086
sg11
S'onBind, pid=18885\n'
p3087
sa(dp3088
g2
S'18885'
p3089
sg4
L1449971999800L
sg5
g61
sg7
S'##COMMON_io.rong.imlib.LibContext:DeviceId'
p3090
sg9
S'18885'
p3091
sg11
S'867746013051545\n'
p3092
sa(dp3093
g2
S'18885'
p3094
sg4
L1449971999800L
sg5
g15
sg7
S'NativeClient'
p3095
sg9
S'18885'
p3096
sg11
S'/storage/sdcard0/Android/data/com.xdf.ucan/RongCloud||/data/data/com.xdf.ucan/files\n'
p3097
sa(dp3098
g2
S'18855'
p3099
sg4
L1449971999810L
sg5
g15
sg7
S'##IPC_io.rong.imlib.RongIMClient:onServiceConnected'
p3100
sg9
S'18855'
p3101
sg11
S'mConnectionStatus = DISCONNECTED, stub = io.rong.imlib.ipc.remote.IHandler$Stub$Proxy@42bf00c0\n'
p3102
sa(dp3103
g2
S'18855'
p3104
sg4
L1449971999850L
sg5
g15
sg7
S'##IPC_io.rong.imlib.ConnectChangeReceiver:onReceive'
p3105
sg9
S'18855'
p3106
sg11
S'network:true, intent:Intent { act=android.net.conn.CONNECTIVITY_CHANGE flg=0x8000010 (has extras) }\n'
p3107
sa(dp3108
g2
S'18855'
p3109
sg4
L1449972000230L
sg5
g15
sg7
S'dalvikvm'
p3110
sg9
S'18857'
p3111
sg11
S'GC_CONCURRENT freed 4806K, 38% free 9614K/15363K, paused 13ms+4ms, total 54ms\n'
p3112
sa(dp3113
g2
S'18855'
p3114
sg4
L1449972000230L
sg5
g15
sg7
S'dalvikvm'
p3115
sg9
S'18855'
p3116
sg11
S'WAIT_FOR_CONCURRENT_GC blocked 42ms\n'
p3117
sa(dp3118
g2
S'18855'
p3119
sg4
L1449972000880L
sg5
g15
sg7
S'long    '
p3120
sg9
S'18855'
p3121
sg11
S'cancle request\xef\xbc\x9acom.xdf.ucan.ui.login.StartActivity\n'
p3122
sa(dp3123
g2
S'18931'
p3124
sg4
L1449972003340L
sg5
g6
sg7
S'Trace   '
p3125
sg9
S'18931'
p3126
sg11
S'error opening trace file: No such file or directory (2)\n'
p3127
sa(dp3128
g2
S'18931'
p3129
sg4
L1449972003340L
sg5
g15
sg7
S'ActivityThread'
p3130
sg9
S'18931'
p3131
sg11
S'setTargetHeapUtilization:0.25\n'
p3132
sa(dp3133
g2
S'18931'
p3134
sg4
L1449972003340L
sg5
g15
sg7
S'ActivityThread'
p3135
sg9
S'18931'
p3136
sg11
S'setTargetHeapIdealFree:8388608\n'
p3137
sa(dp3138
g2
S'18931'
p3139
sg4
L1449972003340L
sg5
g15
sg7
S'ActivityThread'
p3140
sg9
S'18931'
p3141
sg11
S'setTargetHeapConcurrentStart:2097152\n'
p3142
sa(dp3143
g2
S'18855'
p3144
sg4
L1449972003710L
sg5
g15
sg7
S'cn.edu.nju.ise.kikandroid'
p3145
sg9
S'18909'
p3146
sg11
S'Log:1449972003715\n'
p3147
sa(dp3148
g2
S'18931'
p3149
sg4
L1449972003940L
sg5
g15
sg7
S'ImageLoader'
p3150
sg9
S'18931'
p3151
sg11
S'Initialize ImageLoader with configuration\n'
p3152
sa(dp3153
g2
S'18931'
p3154
sg4
L1449972003950L
sg5
g15
sg7
S'long    '
p3155
sg9
S'18931'
p3156
sg11
S'getCurProcessName:io.rong.push\n'
p3157
sa(dp3158
g2
S'18931'
p3159
sg4
L1449972003970L
sg5
g15
sg7
S'##IPC_com.xdf.ucan.BaseApplication:RongIMClient : init'
p3160
sg9
S'18931'
p3161
sg11
S'process = io.rong.push\n'
p3162
sa(dp3163
g2
S'18931'
p3164
sg4
L1449972003990L
sg5
g15
sg7
S'##COMMON_io.rong.push.PushContext:PushContext'
p3165
sg9
S'18931'
p3166
sg11
S'init\n'
p3167
sa(dp3168
g2
S'18931'
p3169
sg4
L1449972004390L
sg5
g61
sg7
S'##COMMON_io.rong.push.PushContext:sendConnectCommand'
p3170
sg9
S'18931'
p3171
sg11
S'1400\n'
p3172
sa(dp3173
g2
S'18931'
p3174
sg4
L1449972004400L
sg5
g61
sg7
S'##COMMON_io.rong.push.PushReceiver:Action'
p3175
sg9
S'18931'
p3176
sg11
S'io.rong.push.Connect\n'
p3177
sa(dp3178
g2
S'18931'
p3179
sg4
L1449972004420L
sg5
g61
sg7
S'##COMMON_io.rong.push.PushReceiver:ACTION_CONNECT'
p3180
sg9
S'18931'
p3181
sg11
S'version is null, run connect\n'
p3182
sa(dp3183
g2
S'18931'
p3184
sg4
L1449972004420L
sg5
g61
sg7
S'##COMMON_java.lang.Class:PushService'
p3185
sg9
S'18931'
p3186
sg11
S'PushService OnCreate\n'
p3187
sa(dp3188
g2
S'18931'
p3189
sg4
L1449972004420L
sg5
g61
sg7
S'PushService'
p3190
sg9
S'18931'
p3191
sg11
S'PushService OnCreate\n'
p3192
sa(dp3193
g2
S'18931'
p3194
sg4
L1449972004440L
sg5
g61
sg7
S'##COMMON_io.rong.push.PushService:CONNECT_CHECK'
p3195
sg9
S'18949'
p3196
sg11
S'getRunningPushServiceVersion null\n'
p3197
sa(dp3198
g2
S'18931'
p3199
sg4
L1449972004440L
sg5
g61
sg7
S'##COMMON_io.rong.push.PushService.PushHandler:PushHandler'
p3200
sg9
S'18949'
p3201
sg11
S'ConnectToServer,isClientConnected = false\n'
p3202
sa(dp3203
g2
S'18931'
p3204
sg4
L1449972004570L
sg5
g61
sg7
S'##COMMON_io.rong.push.PushService:DeviceId'
p3205
sg9
S'18949'
p3206
sg11
S'867746013051545\n'
p3207
sa(dp3208
g2
S'18931'
p3209
sg4
L1449972004580L
sg5
g61
sg7
S'##COMMON_io.rong.push.PushService.PushHandler:PushHandler'
p3210
sg9
S'18949'
p3211
sg11
S'the saved IP = 119.254.110.62:8605\n'
p3212
sa(dp3213
g2
S'18931'
p3214
sg4
L1449972004580L
sg5
g61
sg7
S'PushHandler'
p3215
sg9
S'18949'
p3216
sg11
S'the saved time = 1449965022801current time = 1449972004586\n'
p3217
sa(dp3218
g2
S'18931'
p3219
sg4
L1449972004580L
sg5
g61
sg7
S'##COMMON_io.rong.push.PushService.PushHandler:PushHandler'
p3220
sg9
S'18949'
p3221
sg11
S'ConnectToServer,use the saved IP, IP = 119.254.110.62:8605\n'
p3222
sa(dp3223
g2
S'18931'
p3224
sg4
L1449972004580L
sg5
g61
sg7
S'##COMMON_io.rong.push.PushService:getPhoneInformation.'
p3225
sg9
S'18949'
p3226
sg11
S'the phone information is:Xiaomi|MI 1S|16|WIFI|46000\n'
p3227
sa(dp3228
g2
S'18931'
p3229
sg4
L1449972004580L
sg5
g61
sg7
S'##COMMON_io.rong.push.PushClient:connect'
p3230
sg9
S'18949'
p3231
sg11
S'phone info:Xiaomi|MI 1S|16|WIFI|46000 push version:2.6\n'
p3232
sa(dp3233
g2
S'18931'
p3234
sg4
L1449972004580L
sg5
g61
sg7
S'##COMMON_io.rong.push.PushClient:connect'
p3235
sg9
S'18949'
p3236
sg11
S'the socket is established\n'
p3237
sa(dp3238
g2
S'18931'
p3239
sg4
L1449972004750L
sg5
g61
sg7
S'##COMMON_io.rong.push.PushClient:Handler'
p3240
sg9
S'18951'
p3241
sg11
S'CONNACK\n'
p3242
sa(dp3243
g2
S'18931'
p3244
sg4
L1449972004750L
sg5
g61
sg7
S'PushService'
p3245
sg9
S'18951'
p3246
sg11
S'The client connect status is:CONNACK\n'
p3247
sa(dp3248
g2
S'18931'
p3249
sg4
L1449972004750L
sg5
g61
sg7
S'##COMMON_io.rong.push.PushService:Connect'
p3250
sg9
S'18951'
p3251
sg11
S'Client connect successfully.So start the heart beat.\n'
p3252
sa(dp3253
g2
S'18931'
p3254
sg4
L1449972004750L
sg5
g61
sg7
S'##COMMON_io.rong.push.PushContext:Heartbeat'
p3255
sg9
S'18951'
p3256
sg11
S'start_next\n'
p3257
sa(dp3258
g2
S'18855'
p3259
sg4
L1449972004760L
sg5
g15
sg7
S'cn.edu.nju.ise.kikandroid'
p3260
sg9
S'18909'
p3261
sg11
S'Screenshot:1449972004769\n'
p3262
sa(dp3263
g2
S'18931'
p3264
sg4
L1449972005810L
sg5
g61
sg7
S'##COMMON_io.rong.push.PushReceiver:Action'
p3265
sg9
S'18931'
p3266
sg11
S'io.rong.push.Connect\n'
p3267
sa(dp3268
g2
S'18931'
p3269
sg4
L1449972005830L
sg5
g61
sg7
S'##COMMON_io.rong.push.PushReceiver:ACTION_CONNECT'
p3270
sg9
S'18931'
p3271
sg11
S'version is null, run connect\n'
p3272
sa(dp3273
g2
S'18931'
p3274
sg4
L1449972005840L
sg5
g61
sg7
S'##COMMON_io.rong.push.PushService:CONNECT_CHECK'
p3275
sg9
S'18949'
p3276
sg11
S'getRunningPushServiceVersion null\n'
p3277
sa(dp3278
g2
S'18931'
p3279
sg4
L1449972005840L
sg5
g61
sg7
S'##COMMON_io.rong.push.PushService.PushHandler:PushHandler'
p3280
sg9
S'18949'
p3281
sg11
S'ConnectToServer,isClientConnected = true\n'
p3282
sa(dp3283
g2
S'18855'
p3284
sg4
L1449972006720L
sg5
g15
sg7
S'cn.edu.nju.ise.kikandroid'
p3285
sg9
S'18909'
p3286
sg11
S'Log:1449972006728\n'
p3287
sa(dp3288
g2
S'18855'
p3289
sg4
L1449972007640L
sg5
g15
sg7
S'cn.edu.nju.ise.kikandroid'
p3290
sg9
S'18909'
p3291
sg11
S'Screenshot:1449972007646\n'
p3292
sa(dp3293
g2
S'18855'
p3294
sg4
L1449972007700L
sg5
g15
sg7
S'dalvikvm'
p3295
sg9
S'18855'
p3296
sg11
S'GC_FOR_ALLOC freed 3994K, 35% free 11230K/17031K, paused 26ms, total 27ms\n'
p3297
sa(dp3298
g2
S'18855'
p3299
sg4
L1449972014880L
sg5
g15
sg7
S'cn.edu.nju.ise.kikandroid'
p3300
sg9
S'18909'
p3301
sg11
S'Log:1449972014890\n'
p3302
sa(dp3303
g2
S'18855'
p3304
sg4
L1449972015730L
sg5
g15
sg7
S'cn.edu.nju.ise.kikandroid'
p3305
sg9
S'18909'
p3306
sg11
S'Screenshot:1449972015739\n'
p3307
sa(dp3308
g2
S'18855'
p3309
sg4
L1449972020910L
sg5
g15
sg7
S'long    '
p3310
sg9
S'18855'
p3311
sg11
S'cancle request\xef\xbc\x9acom.xdf.ucan.ui.login.ForgetActivity\n'
p3312
sa(dp3313
g2
S'18855'
p3314
sg4
L1449972027890L
sg5
g15
sg7
S'cn.edu.nju.ise.kikandroid'
p3315
sg9
S'18909'
p3316
sg11
S'Log:1449972027899\n'
p3317
sa(dp3318
g2
S'18855'
p3319
sg4
L1449972029240L
sg5
g15
sg7
S'long    '
p3320
sg9
S'18855'
p3321
sg11
S'cancle request\xef\xbc\x9acom.xdf.ucan.ui.login.RegActivity\n'
p3322
sa(dp3323
g2
S'18855'
p3324
sg4
L1449972031390L
sg5
g568
sg7
S'IInputConnectionWrapper'
p3325
sg9
S'18855'
p3326
sg11
S'showStatusIcon on inactive InputConnection\n'
p3327
sa(dp3328
g2
S'18855'
p3329
sg4
L1449972031880L
sg5
g15
sg7
S'long    '
p3330
sg9
S'18855'
p3331
sg11
S'cancle request\xef\xbc\x9acom.xdf.ucan.ui.login.LoginActivity\n'
p3332
sa.