(lp0
(dp1
S'processID'
p2
S'26547'
p3
sS'SyscTime'
p4
L1449732543006L
sS'priority'
p5
S'E'
p6
sS'tag'
p7
S'Trace   '
p8
sS'threadID'
p9
S'26547'
p10
sS'message'
p11
S'error opening trace file: No such file or directory (2)\n'
p12
sa(dp13
g2
S'26547'
p14
sg4
L1449732543016L
sg5
S'W'
p15
sg7
S'dalvikvm'
p16
sg9
S'26547'
p17
sg11
S"Refusing to reopen boot DEX '/system/framework/hwframework.jar'\n"
p18
sa(dp19
g2
S'26547'
p20
sg4
L1449732543126L
sg5
g6
sg7
S'dalvikvm'
p21
sg9
S'26547'
p22
sg11
S'GC_FOR_ALLOC freed 81K, 6% free 8249K/8771K, paused 15ms, total 15ms\n'
p23
sa(dp24
g2
S'26547'
p25
sg4
L1449732543176L
sg5
g6
sg7
S'dalvikvm'
p26
sg9
S'26549'
p27
sg11
S'GC_CONCURRENT freed 1K, 5% free 12033K/12615K, paused 3ms+2ms, total 19ms\n'
p28
sa(dp29
g2
S'26547'
p30
sg4
L1449732543306L
sg5
g6
sg7
S'dalvikvm'
p31
sg9
S'26547'
p32
sg11
S'GC_FOR_ALLOC freed 0K, 5% free 12033K/12615K, paused 13ms, total 13ms\n'
p33
sa(dp34
g2
S'26547'
p35
sg4
L1449732543366L
sg5
g6
sg7
S'dalvikvm'
p36
sg9
S'26549'
p37
sg11
S'GC_CONCURRENT freed 0K, 4% free 20551K/21191K, paused 12ms+2ms, total 28ms\n'
p38
sa(dp39
g2
S'26565'
p40
sg4
L1449732543456L
sg5
g6
sg7
S'Trace   '
p41
sg9
S'26565'
p42
sg11
S'error opening trace file: No such file or directory (2)\n'
p43
sa(dp44
g2
S'26565'
p45
sg4
L1449732543466L
sg5
g15
sg7
S'dalvikvm'
p46
sg9
S'26565'
p47
sg11
S"Refusing to reopen boot DEX '/system/framework/hwframework.jar'\n"
p48
sa(dp49
g2
S'26565'
p50
sg4
L1449732543486L
sg5
g6
sg7
S'dalvikvm'
p51
sg9
S'26565'
p52
sg11
S'GC_FOR_ALLOC freed 67K, 7% free 8221K/8771K, paused 15ms, total 15ms\n'
p53
sa(dp54
g2
S'26547'
p55
sg4
L1449732543516L
sg5
S'I'
p56
sg7
S'Adreno200-EGL'
p57
sg9
S'26547'
p58
sg11
S'<qeglDrvAPI_eglInitialize:299>: EGL 1.4 QUALCOMM build: AU_LINUX_ANDROID_JB_REL_2.0.3.04.01.02.21.107_msm8625_JB_REL_2.0.3_CL3357771_release_AU (CL3357771)\nBuild Date: 02/25/13 Mon\nLocal Branch: \nRemote Branch: quic/jb_rel_2.0.3\nLocal Patches: NONE\nReconstruct Branch: AU_LINUX_ANDROID_JB_REL_2.0.3.04.01.02.21.107 +  NOTHING\n'
p59
sa(dp60
g2
S'26547'
p61
sg4
L1449732545866L
sg5
g6
sg7
S'dalvikvm'
p62
sg9
S'26549'
p63
sg11
S'GC_CONCURRENT freed 5147K, 24% free 17828K/23431K, paused 2ms+3ms, total 20ms\n'
p64
sa(dp65
g2
S'26547'
p66
sg4
L1449732545966L
sg5
g6
sg7
S'dalvikvm'
p67
sg9
S'26549'
p68
sg11
S'GC_CONCURRENT freed 361K, 20% free 18860K/23431K, paused 2ms+14ms, total 30ms\n'
p69
sa(dp70
g2
S'26547'
p71
sg4
L1449732550756L
sg5
g6
sg7
S'dalvikvm'
p72
sg9
S'26549'
p73
sg11
S'GC_CONCURRENT freed 1613K, 20% free 18799K/23431K, paused 2ms+13ms, total 33ms\n'
p74
sa(dp75
g2
S'26547'
p76
sg4
L1449732550796L
sg5
g15
sg7
S'System.err'
p77
sg9
S'26547'
p78
sg11
S'Invalid int: ""\n'
p79
sa(dp80
g2
S'26547'
p81
sg4
L1449732557316L
sg5
g6
sg7
S'dalvikvm'
p82
sg9
S'26549'
p83
sg11
S'GC_CONCURRENT freed 725K, 12% free 20791K/23431K, paused 12ms+2ms, total 42ms\n'
p84
sa(dp85
g2
S'26547'
p86
sg4
L1449732557336L
sg5
g6
sg7
S'dalvikvm'
p87
sg9
S'26547'
p88
sg11
S'GC_FOR_ALLOC freed 10K, 12% free 20781K/23431K, paused 18ms, total 18ms\n'
p89
sa(dp90
g2
S'26547'
p91
sg4
L1449732560896L
sg5
g6
sg7
S'dalvikvm'
p92
sg9
S'26549'
p93
sg11
S'GC_CONCURRENT freed 4206K, 27% free 18769K/25479K, paused 17ms+10ms, total 82ms\n'
p94
sa(dp95
g2
S'26547'
p96
sg4
L1449732560956L
sg5
g6
sg7
S'dalvikvm'
p97
sg9
S'26549'
p98
sg11
S'GC_CONCURRENT freed 21K, 19% free 20778K/25479K, paused 15ms+3ms, total 43ms\n'
p99
sa(dp100
g2
S'26547'
p101
sg4
L1449732563066L
sg5
g6
sg7
S'dalvikvm'
p102
sg9
S'26549'
p103
sg11
S'GC_CONCURRENT freed 4307K, 27% free 18627K/25479K, paused 13ms+5ms, total 43ms\n'
p104
sa(dp105
g2
S'26547'
p106
sg4
L1449732563116L
sg5
g6
sg7
S'dalvikvm'
p107
sg9
S'26549'
p108
sg11
S'GC_CONCURRENT freed 55K, 19% free 20649K/25479K, paused 12ms+3ms, total 31ms\n'
p109
sa(dp110
g2
S'26547'
p111
sg4
L1449732576876L
sg5
g6
sg7
S'dalvikvm'
p112
sg9
S'26549'
p113
sg11
S'GC_CONCURRENT freed 4187K, 19% free 20667K/25479K, paused 12ms+3ms, total 83ms\n'
p114
sa(dp115
g2
S'26547'
p116
sg4
L1449732576996L
sg5
g15
sg7
S'dalvikvm'
p117
sg9
S'26590'
p118
sg11
S'threadid=15: thread exiting with uncaught exception (group=0x40e7d438)\n'
p119
sa.