(lp0
(dp1
S'EventTime'
p2
S'43314862'
p3
sS'SyscTime'
p4
L1449906353137L
sS'recordCount'
p5
S'0'
p6
sS'EventType'
p7
S'TYPE_WINDOW_STATE_CHANGED'
p8
sS'PackageName'
p9
S'com.taobao.ishopping'
p10
sS'OutBounds'
p11
S'Rect(0, 0 - 1080, 1776)'
p12
sS'Action'
p13
S'[ ClassName: com.taobao.ishopping.activity.SplashActivity; Text: [\xe7\x88\xb1\xe9\x80\x9b\xe8\xa1\x97]; ContentDescription: null; ItemCount: -1; CurrentItemIndex: -1; IsEnabled: true; IsPassword: false; IsChecked: false; IsFullScreen: true; Scrollable: false; BeforeText: null; FromIndex: -1; ToIndex: -1; ScrollX: -1; ScrollY: -1; MaxScrollX: -1; MaxScrollY: -1; AddedCount: -1; RemovedCount: -1; ParcelableData: null ]'
p14
sS'MovementGranularity'
p15
g6
sa(dp16
S'EventTime'
p17
S'43314977'
p18
sg4
L1449906353411L
sS'recordCount'
p19
g6
sS'EventType'
p20
S'TYPE_WINDOW_CONTENT_CHANGED'
p21
sS'PackageName'
p22
S'com.taobao.ishopping'
p23
sS'OutBounds'
p24
S'Rect(0, 0 - 1080, 1776)'
p25
sS'Action'
p26
S'[ ClassName: android.widget.FrameLayout; Text: []; ContentDescription: null; ItemCount: -1; CurrentItemIndex: -1; IsEnabled: true; IsPassword: false; IsChecked: false; IsFullScreen: false; Scrollable: false; BeforeText: null; FromIndex: -1; ToIndex: -1; ScrollX: -1; ScrollY: -1; MaxScrollX: -1; MaxScrollY: -1; AddedCount: -1; RemovedCount: -1; ParcelableData: null ]'
p27
sS'MovementGranularity'
p28
g6
sa(dp29
S'EventTime'
p30
S'43316693'
p31
sg4
L1449906354994L
sS'recordCount'
p32
g6
sS'EventType'
p33
S'TYPE_WINDOW_STATE_CHANGED'
p34
sS'PackageName'
p35
S'com.taobao.ishopping'
p36
sS'OutBounds'
p37
S'Rect(0, 0 - 1080, 1776)'
p38
sS'Action'
p39
S'[ ClassName: com.taobao.ishopping.activity.SplashActivity; Text: [\xe7\x88\xb1\xe9\x80\x9b\xe8\xa1\x97]; ContentDescription: null; ItemCount: -1; CurrentItemIndex: -1; IsEnabled: true; IsPassword: false; IsChecked: false; IsFullScreen: true; Scrollable: false; BeforeText: null; FromIndex: -1; ToIndex: -1; ScrollX: -1; ScrollY: -1; MaxScrollX: -1; MaxScrollY: -1; AddedCount: -1; RemovedCount: -1; ParcelableData: null ]'
p40
sS'MovementGranularity'
p41
g6
sa(dp42
S'EventTime'
p43
S'43316768'
p44
sg4
L1449906355044L
sS'recordCount'
p45
g6
sS'EventType'
p46
S'TYPE_WINDOW_CONTENT_CHANGED'
p47
sS'PackageName'
p48
S'com.taobao.ishopping'
p49
sS'OutBounds'
p50
S'Rect(0, 0 - 1080, 1776)'
p51
sS'Action'
p52
S'[ ClassName: android.widget.FrameLayout; Text: []; ContentDescription: null; ItemCount: -1; CurrentItemIndex: -1; IsEnabled: true; IsPassword: false; IsChecked: false; IsFullScreen: false; Scrollable: false; BeforeText: null; FromIndex: -1; ToIndex: -1; ScrollX: -1; ScrollY: -1; MaxScrollX: -1; MaxScrollY: -1; AddedCount: -1; RemovedCount: -1; ParcelableData: null ]'
p53
sS'MovementGranularity'
p54
g6
sa(dp55
S'EventTime'
p56
S'43318509'
p57
sg4
L1449906356767L
sS'recordCount'
p58
g6
sS'EventType'
p59
S'TYPE_WINDOW_CONTENT_CHANGED'
p60
sS'PackageName'
p61
S'com.taobao.ishopping'
p62
sS'OutBounds'
p63
S'Rect(205, 1518 - 875, 1584)'
p64
sS'Action'
p65
S'[ ClassName: android.widget.TextView; Text: []; ContentDescription: null; ItemCount: -1; CurrentItemIndex: -1; IsEnabled: true; IsPassword: false; IsChecked: false; IsFullScreen: false; Scrollable: false; BeforeText: null; FromIndex: -1; ToIndex: -1; ScrollX: -1; ScrollY: -1; MaxScrollX: -1; MaxScrollY: -1; AddedCount: -1; RemovedCount: -1; ParcelableData: null ]'
p66
sS'MovementGranularity'
p67
g6
sa(dp68
S'EventTime'
p69
S'43318624'
p70
sg4
L1449906356874L
sS'recordCount'
p71
g6
sS'EventType'
p72
S'TYPE_WINDOW_CONTENT_CHANGED'
p73
sS'PackageName'
p74
S'com.taobao.ishopping'
p75
sS'OutBounds'
p76
S'Rect(205, 1584 - 875, 1658)'
p77
sS'Action'
p78
S'[ ClassName: android.widget.TextView; Text: []; ContentDescription: null; ItemCount: -1; CurrentItemIndex: -1; IsEnabled: true; IsPassword: false; IsChecked: false; IsFullScreen: false; Scrollable: false; BeforeText: null; FromIndex: -1; ToIndex: -1; ScrollX: -1; ScrollY: -1; MaxScrollX: -1; MaxScrollY: -1; AddedCount: -1; RemovedCount: -1; ParcelableData: null ]'
p79
sS'MovementGranularity'
p80
g6
sa(dp81
S'EventTime'
p82
S'43318787'
p83
sg4
L1449906357041L
sS'recordCount'
p84
g6
sS'EventType'
p85
S'TYPE_WINDOW_CONTENT_CHANGED'
p86
sS'PackageName'
p87
S'com.taobao.ishopping'
p88
sS'OutBounds'
p89
S'Rect(205, 1584 - 875, 1658)'
p90
sS'Action'
p91
S'[ ClassName: android.widget.TextView; Text: []; ContentDescription: null; ItemCount: -1; CurrentItemIndex: -1; IsEnabled: true; IsPassword: false; IsChecked: false; IsFullScreen: false; Scrollable: false; BeforeText: null; FromIndex: -1; ToIndex: -1; ScrollX: -1; ScrollY: -1; MaxScrollX: -1; MaxScrollY: -1; AddedCount: -1; RemovedCount: -1; ParcelableData: null ]'
p92
sS'MovementGranularity'
p93
g6
sa(dp94
S'EventTime'
p95
S'43324141'
p96
sg4
L1449906362464L
sS'recordCount'
p97
g6
sS'EventType'
p98
S'TYPE_WINDOW_STATE_CHANGED'
p99
sS'PackageName'
p100
S'com.taobao.ishopping'
p101
sS'OutBounds'
p102
S'Rect(0, 0 - 1080, 1776)'
p103
sS'Action'
p104
S'[ ClassName: com.taobao.ishopping.activity.home.MainActivity; Text: [\xe7\x88\xb1\xe9\x80\x9b\xe8\xa1\x97]; ContentDescription: null; ItemCount: -1; CurrentItemIndex: -1; IsEnabled: true; IsPassword: false; IsChecked: false; IsFullScreen: true; Scrollable: false; BeforeText: null; FromIndex: -1; ToIndex: -1; ScrollX: -1; ScrollY: -1; MaxScrollX: -1; MaxScrollY: -1; AddedCount: -1; RemovedCount: -1; ParcelableData: null ]'
p105
sS'MovementGranularity'
p106
g6
sa(dp107
S'EventTime'
p108
S'43324239'
p109
sg4
L1449906362526L
sS'recordCount'
p110
g6
sS'EventType'
p111
S'TYPE_VIEW_SCROLLED'
p112
sS'PackageName'
p113
S'com.taobao.ishopping'
p114
sS'OutBounds'
p115
S'Rect(0, 75 - 1080, 1615)'
p116
sS'Action'
p117
S'[ ClassName: android.support.v7.widget.RecyclerView; Text: []; ContentDescription: null; ItemCount: 14; CurrentItemIndex: -1; IsEnabled: true; IsPassword: false; IsChecked: false; IsFullScreen: false; Scrollable: true; BeforeText: null; FromIndex: 0; ToIndex: 1; ScrollX: -1; ScrollY: -1; MaxScrollX: -1; MaxScrollY: -1; AddedCount: -1; RemovedCount: -1; ParcelableData: null ]'
p118
sS'MovementGranularity'
p119
g6
sa(dp120
S'EventTime'
p121
S'43324319'
p122
sg4
L1449906362563L
sS'recordCount'
p123
g6
sS'EventType'
p124
S'TYPE_WINDOW_CONTENT_CHANGED'
p125
sS'PackageName'
p126
S'com.taobao.ishopping'
p127
sS'OutBounds'
p128
S'Rect(309, 1708 - 339, 1755)'
p129
sS'Action'
p130
S'[ ClassName: android.widget.TextView; Text: []; ContentDescription: null; ItemCount: -1; CurrentItemIndex: -1; IsEnabled: true; IsPassword: false; IsChecked: false; IsFullScreen: false; Scrollable: false; BeforeText: null; FromIndex: -1; ToIndex: -1; ScrollX: -1; ScrollY: -1; MaxScrollX: -1; MaxScrollY: -1; AddedCount: -1; RemovedCount: -1; ParcelableData: null ]'
p131
sS'MovementGranularity'
p132
g6
sa(dp133
S'EventTime'
p134
S'43325529'
p135
sg4
L1449906363772L
sS'recordCount'
p136
g6
sS'EventType'
p137
S'TYPE_WINDOW_CONTENT_CHANGED'
p138
sS'PackageName'
p139
S'com.taobao.ishopping'
p140
sS'OutBounds'
p141
S'Rect(0, 207 - 1080, 926)'
p142
sS'Action'
p143
S'[ ClassName: android.support.v4.view.ViewPager; Text: []; ContentDescription: null; ItemCount: -1; CurrentItemIndex: -1; IsEnabled: true; IsPassword: false; IsChecked: false; IsFullScreen: false; Scrollable: false; BeforeText: null; FromIndex: -1; ToIndex: -1; ScrollX: -1; ScrollY: -1; MaxScrollX: -1; MaxScrollY: -1; AddedCount: -1; RemovedCount: -1; ParcelableData: null ]'
p144
sS'MovementGranularity'
p145
g6
sa(dp146
S'EventTime'
p147
S'43325655'
p148
sg4
L1449906363898L
sS'recordCount'
p149
g6
sS'EventType'
p150
S'TYPE_WINDOW_CONTENT_CHANGED'
p151
sS'PackageName'
p152
S'com.taobao.ishopping'
p153
sS'OutBounds'
p154
S'Rect(768, 1630 - 813, 1674)'
p155
sS'Action'
p156
S'[ ClassName: android.widget.TextView; Text: []; ContentDescription: null; ItemCount: -1; CurrentItemIndex: -1; IsEnabled: true; IsPassword: false; IsChecked: false; IsFullScreen: false; Scrollable: false; BeforeText: null; FromIndex: -1; ToIndex: -1; ScrollX: -1; ScrollY: -1; MaxScrollX: -1; MaxScrollY: -1; AddedCount: -1; RemovedCount: -1; ParcelableData: null ]'
p157
sS'MovementGranularity'
p158
g6
sa(dp159
S'EventTime'
p160
S'43326122'
p161
sg4
L1449906364364L
sS'recordCount'
p162
g6
sS'EventType'
p163
S'TYPE_VIEW_CLICKED'
p164
sS'PackageName'
p165
S'com.taobao.ishopping'
p166
sS'OutBounds'
p167
S'Rect(648, 1615 - 864, 1776)'
p168
sS'Action'
p169
S'[ ClassName: android.widget.RelativeLayout; Text: [2, \xe6\xb6\x88\xe6\x81\xaf]; ContentDescription: null; ItemCount: -1; CurrentItemIndex: -1; IsEnabled: true; IsPassword: false; IsChecked: false; IsFullScreen: false; Scrollable: false; BeforeText: null; FromIndex: -1; ToIndex: -1; ScrollX: -1; ScrollY: -1; MaxScrollX: -1; MaxScrollY: -1; AddedCount: -1; RemovedCount: -1; ParcelableData: null ]'
p170
sS'MovementGranularity'
p171
g6
sa(dp172
S'EventTime'
p173
S'43326133'
p174
sg4
L1449906364427L
sS'recordCount'
p175
g6
sS'EventType'
p176
S'TYPE_WINDOW_CONTENT_CHANGED'
p177
sS'PackageName'
p178
S'com.taobao.ishopping'
p179
sS'OutBounds'
p180
S'Rect(648, 1615 - 864, 1776)'
p181
sS'Action'
p182
S'[ ClassName: android.widget.RelativeLayout; Text: []; ContentDescription: null; ItemCount: -1; CurrentItemIndex: -1; IsEnabled: true; IsPassword: false; IsChecked: false; IsFullScreen: false; Scrollable: false; BeforeText: null; FromIndex: -1; ToIndex: -1; ScrollX: -1; ScrollY: -1; MaxScrollX: -1; MaxScrollY: -1; AddedCount: -1; RemovedCount: -1; ParcelableData: null ]'
p183
sS'MovementGranularity'
p184
g6
sa(dp185
S'EventTime'
p186
S'43326374'
p187
sg4
L1449906364624L
sS'recordCount'
p188
g6
sS'EventType'
p189
S'TYPE_VIEW_SCROLLED'
p190
sS'PackageName'
p191
S'com.taobao.ishopping'
p192
sS'OutBounds'
p193
S'Rect(0, 207 - 1080, 1615)'
p194
sS'Action'
p195
S'[ ClassName: android.widget.ListView; Text: []; ContentDescription: null; ItemCount: 3; CurrentItemIndex: -1; IsEnabled: true; IsPassword: false; IsChecked: false; IsFullScreen: false; Scrollable: false; BeforeText: null; FromIndex: 0; ToIndex: 2; ScrollX: -1; ScrollY: -1; MaxScrollX: -1; MaxScrollY: -1; AddedCount: -1; RemovedCount: -1; ParcelableData: null ]'
p196
sS'MovementGranularity'
p197
g6
sa(dp198
S'EventTime'
p199
S'43326395'
p200
sg4
L1449906364637L
sS'recordCount'
p201
S'1'
p202
sS'EventType'
p203
S'TYPE_WINDOW_CONTENT_CHANGED'
p204
sS'PackageName'
p205
S'com.taobao.ishopping'
p206
sS'OutBounds'
p207
S'Rect(210, 760 - 480, 801)'
p208
sS'Action'
p209
S'[ ClassName: android.widget.TextView; Text: []; ContentDescription: null; ItemCount: -1; CurrentItemIndex: -1; IsEnabled: true; IsPassword: false; IsChecked: false; IsFullScreen: false; Scrollable: false; BeforeText: null; FromIndex: -1; ToIndex: -1; ScrollX: -1; ScrollY: -1; MaxScrollX: -1; MaxScrollY: -1; AddedCount: -1; RemovedCount: -1; ParcelableData: null ]'
p210
sS'MovementGranularity'
p211
g6
sa(dp212
S'EventTime'
p213
S'43326952'
p214
sg4
L1449906365194L
sS'recordCount'
p215
g202
sS'EventType'
p216
S'TYPE_VIEW_CLICKED'
p217
sS'PackageName'
p218
S'com.taobao.ishopping'
p219
sS'OutBounds'
p220
S'Rect(0, 627 - 1080, 837)'
p221
sS'Action'
p222
S'[ ClassName: android.widget.RelativeLayout; Text: [\xe4\xb9\xb0\xe4\xb9\xb0\xe4\xb9\xb0, 15 : 45, sw***iu\xef\xbc\x9a\xe5\x90\xac\xe5\xbe\x97\xe8\xa7\x81]; ContentDescription: null; ItemCount: -1; CurrentItemIndex: -1; IsEnabled: true; IsPassword: false; IsChecked: false; IsFullScreen: false; Scrollable: false; BeforeText: null; FromIndex: -1; ToIndex: -1; ScrollX: -1; ScrollY: -1; MaxScrollX: -1; MaxScrollY: -1; AddedCount: -1; RemovedCount: -1; ParcelableData: null ]'
p223
sS'MovementGranularity'
p224
g6
sa(dp225
S'EventTime'
p226
S'43327406'
p227
sg4
L1449906365665L
sS'recordCount'
p228
g6
sS'EventType'
p229
S'TYPE_WINDOW_STATE_CHANGED'
p230
sS'PackageName'
p231
S'com.taobao.ishopping'
p232
sS'OutBounds'
p233
S'Rect(0, 0 - 1080, 1776)'
p234
sS'Action'
p235
S'[ ClassName: com.taobao.ishopping.im.activity.GroupChatActivity; Text: [\xe7\x88\xb1\xe9\x80\x9b\xe8\xa1\x97]; ContentDescription: null; ItemCount: -1; CurrentItemIndex: -1; IsEnabled: true; IsPassword: false; IsChecked: false; IsFullScreen: true; Scrollable: false; BeforeText: null; FromIndex: -1; ToIndex: -1; ScrollX: -1; ScrollY: -1; MaxScrollX: -1; MaxScrollY: -1; AddedCount: -1; RemovedCount: -1; ParcelableData: null ]'
p236
sS'MovementGranularity'
p237
g6
sa(dp238
S'EventTime'
p239
S'43327411'
p240
sg4
L1449906365736L
sS'recordCount'
p241
g6
sS'EventType'
p242
S'TYPE_VIEW_SCROLLED'
p243
sS'PackageName'
p244
S'com.taobao.ishopping'
p245
sS'OutBounds'
p246
S'Rect(0, 345 - 1080, 1626)'
p247
sS'Action'
p248
S'[ ClassName: android.widget.ListView; Text: []; ContentDescription: null; ItemCount: 19; CurrentItemIndex: -1; IsEnabled: true; IsPassword: false; IsChecked: false; IsFullScreen: false; Scrollable: true; BeforeText: null; FromIndex: 14; ToIndex: 18; ScrollX: -1; ScrollY: -1; MaxScrollX: -1; MaxScrollY: -1; AddedCount: -1; RemovedCount: -1; ParcelableData: null ]'
p249
sS'MovementGranularity'
p250
g6
sa(dp251
S'EventTime'
p252
S'43327571'
p253
sg4
L1449906365815L
sS'recordCount'
p254
g202
sS'EventType'
p255
S'TYPE_WINDOW_CONTENT_CHANGED'
p256
sS'PackageName'
p257
S'com.taobao.ishopping'
p258
sS'OutBounds'
p259
S'Rect(434, 271 - 826, 437)'
p260
sS'Action'
p261
S'[ ClassName: android.widget.TextView; Text: []; ContentDescription: null; ItemCount: -1; CurrentItemIndex: -1; IsEnabled: true; IsPassword: false; IsChecked: false; IsFullScreen: false; Scrollable: false; BeforeText: null; FromIndex: -1; ToIndex: -1; ScrollX: -1; ScrollY: -1; MaxScrollX: -1; MaxScrollY: -1; AddedCount: -1; RemovedCount: -1; ParcelableData: null ]'
p262
sS'MovementGranularity'
p263
g6
sa(dp264
S'EventTime'
p265
S'43328714'
p266
sg4
L1449906366967L
sS'recordCount'
p267
g6
sS'EventType'
p268
S'TYPE_WINDOW_CONTENT_CHANGED'
p269
sS'PackageName'
p270
S'com.taobao.ishopping'
p271
sS'OutBounds'
p272
S'Rect(0, 345 - 1080, 1626)'
p273
sS'Action'
p274
S'[ ClassName: android.widget.ListView; Text: []; ContentDescription: null; ItemCount: 19; CurrentItemIndex: -1; IsEnabled: true; IsPassword: false; IsChecked: false; IsFullScreen: false; Scrollable: true; BeforeText: null; FromIndex: 14; ToIndex: 18; ScrollX: -1; ScrollY: -1; MaxScrollX: -1; MaxScrollY: -1; AddedCount: -1; RemovedCount: -1; ParcelableData: null ]'
p275
sS'MovementGranularity'
p276
g6
sa(dp277
S'EventTime'
p278
S'43328797'
p279
sg4
L1449906367050L
sS'recordCount'
p280
g6
sS'EventType'
p281
S'TYPE_VIEW_SCROLLED'
p282
sS'PackageName'
p283
S'com.taobao.ishopping'
p284
sS'OutBounds'
p285
S'Rect(0, 345 - 1080, 1626)'
p286
sS'Action'
p287
S'[ ClassName: android.widget.ListView; Text: []; ContentDescription: null; ItemCount: 19; CurrentItemIndex: -1; IsEnabled: true; IsPassword: false; IsChecked: false; IsFullScreen: false; Scrollable: true; BeforeText: null; FromIndex: 14; ToIndex: 17; ScrollX: -1; ScrollY: -1; MaxScrollX: -1; MaxScrollY: -1; AddedCount: -1; RemovedCount: -1; ParcelableData: null ]'
p288
sS'MovementGranularity'
p289
g6
sa(dp290
S'EventTime'
p291
S'43329132'
p292
sg4
L1449906367385L
sS'recordCount'
p293
g6
sS'EventType'
p294
S'TYPE_VIEW_SCROLLED'
p295
sS'PackageName'
p296
S'com.taobao.ishopping'
p297
sS'OutBounds'
p298
S'Rect(0, 345 - 1080, 1626)'
p299
sS'Action'
p300
S'[ ClassName: android.widget.ListView; Text: []; ContentDescription: null; ItemCount: 19; CurrentItemIndex: -1; IsEnabled: true; IsPassword: false; IsChecked: false; IsFullScreen: false; Scrollable: true; BeforeText: null; FromIndex: 13; ToIndex: 16; ScrollX: -1; ScrollY: -1; MaxScrollX: -1; MaxScrollY: -1; AddedCount: -1; RemovedCount: -1; ParcelableData: null ]'
p301
sS'MovementGranularity'
p302
g6
sa(dp303
S'EventTime'
p304
S'43329133'
p305
sg4
L1449906367407L
sS'recordCount'
p306
g202
sS'EventType'
p307
S'TYPE_WINDOW_CONTENT_CHANGED'
p308
sS'PackageName'
p309
S'com.taobao.ishopping'
p310
sS'OutBounds'
p311
S'Rect(450, 92 - 629, 152)'
p312
sS'Action'
p313
S'[ ClassName: android.widget.TextView; Text: []; ContentDescription: null; ItemCount: -1; CurrentItemIndex: -1; IsEnabled: true; IsPassword: false; IsChecked: false; IsFullScreen: false; Scrollable: false; BeforeText: null; FromIndex: -1; ToIndex: -1; ScrollX: -1; ScrollY: -1; MaxScrollX: -1; MaxScrollY: -1; AddedCount: -1; RemovedCount: -1; ParcelableData: null ]'
p314
sS'MovementGranularity'
p315
g6
sa(dp316
S'EventTime'
p317
S'43329239'
p318
sg4
L1449906367483L
sS'recordCount'
p319
g202
sS'EventType'
p320
S'TYPE_WINDOW_CONTENT_CHANGED'
p321
sS'PackageName'
p322
S'com.taobao.ishopping'
p323
sS'OutBounds'
p324
S'Rect(450, 92 - 629, 152)'
p325
sS'Action'
p326
S'[ ClassName: android.widget.TextView; Text: []; ContentDescription: null; ItemCount: -1; CurrentItemIndex: -1; IsEnabled: true; IsPassword: false; IsChecked: false; IsFullScreen: false; Scrollable: false; BeforeText: null; FromIndex: -1; ToIndex: -1; ScrollX: -1; ScrollY: -1; MaxScrollX: -1; MaxScrollY: -1; AddedCount: -1; RemovedCount: -1; ParcelableData: null ]'
p327
sS'MovementGranularity'
p328
g6
sa(dp329
S'EventTime'
p330
S'43330396'
p331
sg4
L1449906368643L
sS'recordCount'
p332
g202
sS'EventType'
p333
S'TYPE_WINDOW_CONTENT_CHANGED'
p334
sS'PackageName'
p335
S'com.taobao.ishopping'
p336
sS'OutBounds'
p337
S'Rect(0, 1440 - 1080, 1626)'
p338
sS'Action'
p339
S'[ ClassName: android.widget.LinearLayout; Text: []; ContentDescription: null; ItemCount: -1; CurrentItemIndex: -1; IsEnabled: true; IsPassword: false; IsChecked: false; IsFullScreen: false; Scrollable: false; BeforeText: null; FromIndex: -1; ToIndex: -1; ScrollX: -1; ScrollY: -1; MaxScrollX: -1; MaxScrollY: -1; AddedCount: -1; RemovedCount: -1; ParcelableData: null ]'
p340
sS'MovementGranularity'
p341
g6
sa(dp342
S'EventTime'
p343
S'43330399'
p344
sg4
L1449906368666L
sS'recordCount'
p345
g6
sS'EventType'
p346
S'TYPE_VIEW_SCROLLED'
p347
sS'PackageName'
p348
S'com.taobao.ishopping'
p349
sS'OutBounds'
p350
S'Rect(0, 345 - 1080, 1626)'
p351
sS'Action'
p352
S'[ ClassName: android.widget.ListView; Text: []; ContentDescription: null; ItemCount: 19; CurrentItemIndex: -1; IsEnabled: true; IsPassword: false; IsChecked: false; IsFullScreen: false; Scrollable: true; BeforeText: null; FromIndex: 14; ToIndex: 18; ScrollX: -1; ScrollY: -1; MaxScrollX: -1; MaxScrollY: -1; AddedCount: -1; RemovedCount: -1; ParcelableData: null ]'
p353
sS'MovementGranularity'
p354
g6
sa(dp355
S'EventTime'
p356
S'43331145'
p357
sg4
L1449906369387L
sS'recordCount'
p358
g202
sS'EventType'
p359
S'TYPE_VIEW_CLICKED'
p360
sS'PackageName'
p361
S'com.taobao.ishopping'
p362
sS'OutBounds'
p363
S'Rect(180, 954 - 500, 1171)'
p364
sS'Action'
p365
S'[ ClassName: android.widget.ImageView; Text: []; ContentDescription: null; ItemCount: -1; CurrentItemIndex: -1; IsEnabled: true; IsPassword: false; IsChecked: false; IsFullScreen: false; Scrollable: false; BeforeText: null; FromIndex: -1; ToIndex: -1; ScrollX: -1; ScrollY: -1; MaxScrollX: -1; MaxScrollY: -1; AddedCount: -1; RemovedCount: -1; ParcelableData: null ]'
p366
sS'MovementGranularity'
p367
g6
sa(dp368
S'EventTime'
p369
S'43331384'
p370
sg4
L1449906369628L
sS'recordCount'
p371
g6
sS'EventType'
p372
S'TYPE_WINDOW_STATE_CHANGED'
p373
sS'PackageName'
p374
S'com.taobao.ishopping'
p375
sS'OutBounds'
p376
S'Rect(0, 0 - 1080, 1776)'
p377
sS'Action'
p378
S'[ ClassName: com.taobao.ishopping.im.activity.ImageShowerActivity; Text: [\xe7\x88\xb1\xe9\x80\x9b\xe8\xa1\x97]; ContentDescription: null; ItemCount: -1; CurrentItemIndex: -1; IsEnabled: true; IsPassword: false; IsChecked: false; IsFullScreen: true; Scrollable: false; BeforeText: null; FromIndex: -1; ToIndex: -1; ScrollX: -1; ScrollY: -1; MaxScrollX: -1; MaxScrollY: -1; AddedCount: -1; RemovedCount: -1; ParcelableData: null ]'
p379
sS'MovementGranularity'
p380
g6
sa(dp381
S'EventTime'
p382
S'43331455'
p383
sg4
L1449906369701L
sS'recordCount'
p384
g202
sS'EventType'
p385
S'TYPE_WINDOW_CONTENT_CHANGED'
p386
sS'PackageName'
p387
S'com.taobao.ishopping'
p388
sS'OutBounds'
p389
S'Rect(0, 135 - 1080, 1776)'
p390
sS'Action'
p391
S'[ ClassName: android.widget.ImageView; Text: []; ContentDescription: null; ItemCount: -1; CurrentItemIndex: -1; IsEnabled: true; IsPassword: false; IsChecked: false; IsFullScreen: false; Scrollable: false; BeforeText: null; FromIndex: -1; ToIndex: -1; ScrollX: -1; ScrollY: -1; MaxScrollX: -1; MaxScrollY: -1; AddedCount: -1; RemovedCount: -1; ParcelableData: null ]'
p392
sS'MovementGranularity'
p393
g6
sa(dp394
S'EventTime'
p395
S'43375335'
p396
sg4
L1449906413580L
sS'recordCount'
p397
g6
sS'EventType'
p398
S'TYPE_NOTIFICATION_STATE_CHANGED'
p399
sS'PackageName'
p400
S'com.taobao.ishopping'
p401
sS'Action'
p402
S'[ ClassName: android.app.Notification; Text: [\xe8\xb6\x81\xe5\x8f\x8c12\xe8\xb5\xb6\xe7\xb4\xa7\xe6\x8a\x8a\xe8\xbf\x9e\xe8\xa1\xa3\xe8\xa3\x99\xe4\xb9\xb0\xe4\xba\x86\xf0\x9f\x94\x94\xf0\x9f\x94\x94]; ContentDescription: null; ItemCount: -1; CurrentItemIndex: -1; IsEnabled: false; IsPassword: false; IsChecked: false; IsFullScreen: false; Scrollable: false; BeforeText: null; FromIndex: -1; ToIndex: -1; ScrollX: -1; ScrollY: -1; MaxScrollX: -1; MaxScrollY: -1; AddedCount: -1; RemovedCount: -1; ParcelableData: Notification(pri=0 contentView=com.taobao.ishopping/0x10900b6 vibrate=default sound=default defaults=0x3 flags=0x10 kind=[null]) ]'
p403
sS'MovementGranularity'
p404
g6
sa.