(lp0
(dp1
S'EventTime'
p2
S'22156143'
p3
sS'SyscTime'
p4
L1449641870417L
sS'recordCount'
p5
S'0'
p6
sS'EventType'
p7
S'TYPE_WINDOW_CONTENT_CHANGED'
p8
sS'PackageName'
p9
S'com.example.myfristandroid'
p10
sS'Action'
p11
S'[ ClassName: android.widget.LinearLayout; Text: []; ContentDescription: SE-1800\xe7\xa7\xbb\xe5\x8a\xa8APP\xef\xbc\x9a\xe5\xaf\xbc\xe8\x88\xaa\xe4\xb8\xbb\xe9\xa1\xb5; ItemCount: -1; CurrentItemIndex: -1; IsEnabled: true; IsPassword: false; IsChecked: false; IsFullScreen: false; Scrollable: false; BeforeText: null; FromIndex: -1; ToIndex: -1; ScrollX: -1; ScrollY: -1; MaxScrollX: -1; MaxScrollY: -1; AddedCount: -1; RemovedCount: -1; ParcelableData: null ]'
p12
sS'MovementGranularity'
p13
g6
sa(dp14
S'EventTime'
p15
S'22156596'
p16
sg4
L1449641871239L
sS'recordCount'
p17
g6
sS'EventType'
p18
S'TYPE_WINDOW_STATE_CHANGED'
p19
sS'PackageName'
p20
S'com.example.myfristandroid'
p21
sS'OutBounds'
p22
S'Rect(0, 0 - 1080, 1920)'
p23
sS'Action'
p24
S'[ ClassName: com.example.myfristandroid.SplashActivity; Text: [SE-1800\xe7\xa7\xbb\xe5\x8a\xa8APP]; ContentDescription: null; ItemCount: -1; CurrentItemIndex: -1; IsEnabled: true; IsPassword: false; IsChecked: false; IsFullScreen: true; Scrollable: false; BeforeText: null; FromIndex: -1; ToIndex: -1; ScrollX: -1; ScrollY: -1; MaxScrollX: -1; MaxScrollY: -1; AddedCount: -1; RemovedCount: -1; ParcelableData: null ]'
p25
sS'MovementGranularity'
p26
g6
sa(dp27
S'EventTime'
p28
S'22159321'
p29
sg4
L1449641873684L
sS'recordCount'
p30
g6
sS'EventType'
p31
S'TYPE_WINDOW_STATE_CHANGED'
p32
sS'PackageName'
p33
S'com.example.myfristandroid'
p34
sS'OutBounds'
p35
S'Rect(0, 0 - 1080, 1920)'
p36
sS'Action'
p37
S'[ ClassName: com.example.myfristandroid.MainActivity; Text: [SE-1800\xe7\xa7\xbb\xe5\x8a\xa8APP]; ContentDescription: null; ItemCount: -1; CurrentItemIndex: -1; IsEnabled: true; IsPassword: false; IsChecked: false; IsFullScreen: true; Scrollable: false; BeforeText: null; FromIndex: -1; ToIndex: -1; ScrollX: -1; ScrollY: -1; MaxScrollX: -1; MaxScrollY: -1; AddedCount: -1; RemovedCount: -1; ParcelableData: null ]'
p38
sS'MovementGranularity'
p39
g6
sa(dp40
S'EventTime'
p41
S'22159354'
p42
sg4
L1449641873766L
sS'recordCount'
p43
g6
sS'EventType'
p44
S'TYPE_VIEW_SCROLLED'
p45
sS'PackageName'
p46
S'com.example.myfristandroid'
p47
sS'OutBounds'
p48
S'Rect(1098, 624 - 2142, 624)'
p49
sS'Action'
p50
S'[ ClassName: android.widget.ListView; Text: []; ContentDescription: null; ItemCount: 0; CurrentItemIndex: -1; IsEnabled: true; IsPassword: false; IsChecked: false; IsFullScreen: false; Scrollable: false; BeforeText: null; FromIndex: 0; ToIndex: -1; ScrollX: -1; ScrollY: -1; MaxScrollX: -1; MaxScrollY: -1; AddedCount: -1; RemovedCount: -1; ParcelableData: null ]'
p51
sS'MovementGranularity'
p52
g6
sa(dp53
S'EventTime'
p54
S'22159358'
p55
sg4
L1449641873867L
sS'recordCount'
p56
S'1'
p57
sS'EventType'
p58
S'TYPE_WINDOW_CONTENT_CHANGED'
p59
sS'PackageName'
p60
S'com.example.myfristandroid'
p61
sS'OutBounds'
p62
S'Rect(719, 1196 - 1071, 1253)'
p63
sS'Action'
p64
S'[ ClassName: android.widget.TextView; Text: []; ContentDescription: null; ItemCount: -1; CurrentItemIndex: -1; IsEnabled: true; IsPassword: false; IsChecked: false; IsFullScreen: false; Scrollable: false; BeforeText: null; FromIndex: -1; ToIndex: -1; ScrollX: -1; ScrollY: -1; MaxScrollX: -1; MaxScrollY: -1; AddedCount: -1; RemovedCount: -1; ParcelableData: null ]'
p65
sS'MovementGranularity'
p66
g6
sa(dp67
S'EventTime'
p68
S'22159507'
p69
sg4
L1449641873896L
sS'recordCount'
p70
g57
sS'EventType'
p71
S'TYPE_WINDOW_CONTENT_CHANGED'
p72
sS'PackageName'
p73
S'com.example.myfristandroid'
p74
sS'OutBounds'
p75
S'Rect(364, 486 - 716, 543)'
p76
sS'Action'
p77
S'[ ClassName: android.widget.TextView; Text: []; ContentDescription: null; ItemCount: -1; CurrentItemIndex: -1; IsEnabled: true; IsPassword: false; IsChecked: false; IsFullScreen: false; Scrollable: false; BeforeText: null; FromIndex: -1; ToIndex: -1; ScrollX: -1; ScrollY: -1; MaxScrollX: -1; MaxScrollY: -1; AddedCount: -1; RemovedCount: -1; ParcelableData: null ]'
p78
sS'MovementGranularity'
p79
g6
sa(dp80
S'EventTime'
p81
S'22160952'
p82
sg4
L1449641875224L
sS'recordCount'
p83
g57
sS'EventType'
p84
S'TYPE_VIEW_CLICKED'
p85
sS'PackageName'
p86
S'com.example.myfristandroid'
p87
sS'OutBounds'
p88
S'Rect(9, 929 - 361, 1281)'
p89
sS'Action'
p90
S'[ ClassName: android.widget.RelativeLayout; Text: [\xe7\xb3\xbb\xe7\xbb\x9f\xe6\x8b\x93\xe6\x89\x91\xe5\x9b\xbe]; ContentDescription: null; ItemCount: -1; CurrentItemIndex: -1; IsEnabled: true; IsPassword: false; IsChecked: false; IsFullScreen: false; Scrollable: false; BeforeText: null; FromIndex: -1; ToIndex: -1; ScrollX: -1; ScrollY: -1; MaxScrollX: -1; MaxScrollY: -1; AddedCount: -1; RemovedCount: -1; ParcelableData: null ]'
p91
sS'MovementGranularity'
p92
g6
sa(dp93
S'EventTime'
p94
S'22161732'
p95
sg4
L1449641876165L
sS'recordCount'
p96
g6
sS'EventType'
p97
S'TYPE_WINDOW_STATE_CHANGED'
p98
sS'PackageName'
p99
S'com.example.myfristandroid'
p100
sS'OutBounds'
p101
S'Rect(0, 0 - 1080, 1920)'
p102
sS'Action'
p103
S'[ ClassName: com.example.myfristandroid.graphWebShow; Text: [SE-1800\xe7\xa7\xbb\xe5\x8a\xa8APP]; ContentDescription: null; ItemCount: -1; CurrentItemIndex: -1; IsEnabled: true; IsPassword: false; IsChecked: false; IsFullScreen: true; Scrollable: false; BeforeText: null; FromIndex: -1; ToIndex: -1; ScrollX: -1; ScrollY: -1; MaxScrollX: -1; MaxScrollY: -1; AddedCount: -1; RemovedCount: -1; ParcelableData: null ]'
p104
sS'MovementGranularity'
p105
g6
sa(dp106
S'EventTime'
p107
S'22161737'
p108
sg4
L1449641876267L
sS'recordCount'
p109
g6
sS'EventType'
p110
S'TYPE_WINDOW_CONTENT_CHANGED'
p111
sS'PackageName'
p112
S'com.example.myfristandroid'
p113
sS'OutBounds'
p114
S'Rect(0, 210 - 1080, 1920)'
p115
sS'Action'
p116
S'[ ClassName: com.android.org.chromium.content.browser.ContentViewCore; Text: []; ContentDescription: \xe7\xbd\x91\xe9\xa1\xb5\xe8\xa7\x86\xe5\x9b\xbe; ItemCount: -1; CurrentItemIndex: -1; IsEnabled: true; IsPassword: false; IsChecked: false; IsFullScreen: false; Scrollable: false; BeforeText: null; FromIndex: -1; ToIndex: -1; ScrollX: 0; ScrollY: 0; MaxScrollX: 0; MaxScrollY: 0; AddedCount: -1; RemovedCount: -1; ParcelableData: null ]'
p117
sS'MovementGranularity'
p118
g6
sa(dp119
S'EventTime'
p120
S'22162021'
p121
sg4
L1449641876330L
sS'recordCount'
p122
g6
sS'EventType'
p123
S'TYPE_VIEW_FOCUSED'
p124
sS'PackageName'
p125
S'com.example.myfristandroid'
p126
sS'OutBounds'
p127
S'Rect(0, 210 - 1080, 1920)'
p128
sS'Action'
p129
S'[ ClassName: android.webkit.WebView; Text: []; ContentDescription: null; ItemCount: 0; CurrentItemIndex: 0; IsEnabled: true; IsPassword: false; IsChecked: false; IsFullScreen: false; Scrollable: true; BeforeText: null; FromIndex: -1; ToIndex: -1; ScrollX: 0; ScrollY: 0; MaxScrollX: 0; MaxScrollY: 0; AddedCount: -1; RemovedCount: -1; ParcelableData: Bundle[mParcelledData.dataSize=488] ]'
p130
sS'MovementGranularity'
p131
g6
sa(dp132
S'EventTime'
p133
S'22162022'
p134
sg4
L1449641876368L
sS'recordCount'
p135
g6
sS'EventType'
p136
S'TYPE_VIEW_ACCESSIBILITY_FOCUSED'
p137
sS'PackageName'
p138
S'com.example.myfristandroid'
p139
sS'OutBounds'
p140
S'Rect(0, 210 - 1080, 1920)'
p141
sS'Action'
p142
S'[ ClassName: android.webkit.WebView; Text: []; ContentDescription: null; ItemCount: 0; CurrentItemIndex: 0; IsEnabled: true; IsPassword: false; IsChecked: false; IsFullScreen: false; Scrollable: true; BeforeText: null; FromIndex: -1; ToIndex: -1; ScrollX: 0; ScrollY: 0; MaxScrollX: 0; MaxScrollY: 0; AddedCount: -1; RemovedCount: -1; ParcelableData: Bundle[mParcelledData.dataSize=488] ]'
p143
sS'MovementGranularity'
p144
g6
sa(dp145
S'EventTime'
p146
S'22162038'
p147
sg4
L1449641876372L
sS'recordCount'
p148
g6
sS'EventType'
p149
S'TYPE_WINDOW_CONTENT_CHANGED'
p150
sS'PackageName'
p151
S'com.example.myfristandroid'
p152
sS'OutBounds'
p153
S'Rect(0, 210 - 1080, 1920)'
p154
sS'Action'
p155
S'[ ClassName: android.webkit.WebView; Text: []; ContentDescription: null; ItemCount: 0; CurrentItemIndex: 0; IsEnabled: true; IsPassword: false; IsChecked: false; IsFullScreen: false; Scrollable: true; BeforeText: null; FromIndex: -1; ToIndex: -1; ScrollX: 0; ScrollY: 0; MaxScrollX: 0; MaxScrollY: 0; AddedCount: -1; RemovedCount: -1; ParcelableData: Bundle[mParcelledData.dataSize=488] ]'
p156
sS'MovementGranularity'
p157
g6
sa(dp158
S'EventTime'
p159
S'22162155'
p160
sg4
L1449641876428L
sS'recordCount'
p161
g6
sS'EventType'
p162
S'TYPE_VIEW_ACCESSIBILITY_FOCUS_CLEARED'
p163
sS'PackageName'
p164
S'com.example.myfristandroid'
p165
sS'OutBounds'
p166
S'Rect(0, 210 - 1080, 1920)'
p167
sS'Action'
p168
S'[ ClassName: android.webkit.WebView; Text: []; ContentDescription: null; ItemCount: 0; CurrentItemIndex: 0; IsEnabled: true; IsPassword: false; IsChecked: false; IsFullScreen: false; Scrollable: true; BeforeText: null; FromIndex: -1; ToIndex: -1; ScrollX: 0; ScrollY: 0; MaxScrollX: 0; MaxScrollY: 0; AddedCount: -1; RemovedCount: -1; ParcelableData: Bundle[mParcelledData.dataSize=488] ]'
p169
sS'MovementGranularity'
p170
g6
sa(dp171
S'EventTime'
p172
S'22162156'
p173
sg4
L1449641876431L
sS'recordCount'
p174
g6
sS'EventType'
p175
S'TYPE_VIEW_ACCESSIBILITY_FOCUSED'
p176
sS'PackageName'
p177
S'com.example.myfristandroid'
p178
sS'OutBounds'
p179
S'Rect(0, 210 - 1080, 1920)'
p180
sS'Action'
p181
S'[ ClassName: android.webkit.WebView; Text: []; ContentDescription: null; ItemCount: 0; CurrentItemIndex: 0; IsEnabled: true; IsPassword: false; IsChecked: false; IsFullScreen: false; Scrollable: true; BeforeText: null; FromIndex: -1; ToIndex: -1; ScrollX: 0; ScrollY: 0; MaxScrollX: 0; MaxScrollY: 0; AddedCount: -1; RemovedCount: -1; ParcelableData: Bundle[mParcelledData.dataSize=488] ]'
p182
sS'MovementGranularity'
p183
g6
sa(dp184
S'EventTime'
p185
S'22162197'
p186
sg4
L1449641876468L
sS'recordCount'
p187
g6
sS'EventType'
p188
S'TYPE_WINDOW_CONTENT_CHANGED'
p189
sS'PackageName'
p190
S'com.example.myfristandroid'
p191
sS'OutBounds'
p192
S'Rect(0, 210 - 1080, 1920)'
p193
sS'Action'
p194
S'[ ClassName: com.android.org.chromium.content.browser.ContentViewCore; Text: []; ContentDescription: \xe7\xbd\x91\xe9\xa1\xb5\xe8\xa7\x86\xe5\x9b\xbe; ItemCount: -1; CurrentItemIndex: -1; IsEnabled: true; IsPassword: false; IsChecked: false; IsFullScreen: false; Scrollable: false; BeforeText: null; FromIndex: -1; ToIndex: -1; ScrollX: 0; ScrollY: 0; MaxScrollX: 0; MaxScrollY: 0; AddedCount: -1; RemovedCount: -1; ParcelableData: null ]'
p195
sS'MovementGranularity'
p196
g6
sa(dp197
S'EventTime'
p198
S'22163182'
p199
sg4
L1449641877573L
sS'recordCount'
p200
g6
sS'EventType'
p201
S'TYPE_WINDOW_CONTENT_CHANGED'
p202
sS'PackageName'
p203
S'com.example.myfristandroid'
p204
sS'OutBounds'
p205
S'Rect(0, 75 - 1920, 1080)'
p206
sS'Action'
p207
S'[ ClassName: com.android.org.chromium.content.browser.ContentViewCore; Text: []; ContentDescription: \xe7\xbd\x91\xe9\xa1\xb5\xe8\xa7\x86\xe5\x9b\xbe; ItemCount: -1; CurrentItemIndex: -1; IsEnabled: true; IsPassword: false; IsChecked: false; IsFullScreen: false; Scrollable: true; BeforeText: null; FromIndex: -1; ToIndex: -1; ScrollX: 0; ScrollY: 0; MaxScrollX: 0; MaxScrollY: 135; AddedCount: -1; RemovedCount: -1; ParcelableData: null ]'
p208
sS'MovementGranularity'
p209
g6
sa(dp210
S'EventTime'
p211
S'22163401'
p212
sg4
L1449641877673L
sS'recordCount'
p213
g6
sS'EventType'
p214
S'TYPE_WINDOW_CONTENT_CHANGED'
p215
sS'PackageName'
p216
S'com.example.myfristandroid'
p217
sS'OutBounds'
p218
S'Rect(0, 0 - 1920, 1080)'
p219
sS'Action'
p220
S'[ ClassName: android.widget.FrameLayout; Text: []; ContentDescription: null; ItemCount: -1; CurrentItemIndex: -1; IsEnabled: true; IsPassword: false; IsChecked: false; IsFullScreen: false; Scrollable: false; BeforeText: null; FromIndex: -1; ToIndex: -1; ScrollX: -1; ScrollY: -1; MaxScrollX: -1; MaxScrollY: -1; AddedCount: -1; RemovedCount: -1; ParcelableData: null ]'
p221
sS'MovementGranularity'
p222
g6
sa(dp223
S'EventTime'
p224
S'22163882'
p225
sg4
L1449641878164L
sS'recordCount'
p226
g6
sS'EventType'
p227
S'TYPE_WINDOW_CONTENT_CHANGED'
p228
sS'PackageName'
p229
S'com.example.myfristandroid'
p230
sS'OutBounds'
p231
S'Rect(0, 75 - 1920, 1080)'
p232
sS'Action'
p233
S'[ ClassName: com.android.org.chromium.content.browser.ContentViewCore; Text: []; ContentDescription: \xe7\xbd\x91\xe9\xa1\xb5\xe8\xa7\x86\xe5\x9b\xbe; ItemCount: -1; CurrentItemIndex: -1; IsEnabled: true; IsPassword: false; IsChecked: false; IsFullScreen: false; Scrollable: true; BeforeText: null; FromIndex: -1; ToIndex: -1; ScrollX: 0; ScrollY: 0; MaxScrollX: 0; MaxScrollY: 705; AddedCount: -1; RemovedCount: -1; ParcelableData: null ]'
p234
sS'MovementGranularity'
p235
g6
sa(dp236
S'EventTime'
p237
S'22164065'
p238
sg4
L1449641878337L
sS'recordCount'
p239
g6
sS'EventType'
p240
S'TYPE_WINDOW_CONTENT_CHANGED'
p241
sS'PackageName'
p242
S'com.example.myfristandroid'
p243
sS'OutBounds'
p244
S'Rect(0, 75 - 1920, 1080)'
p245
sS'Action'
p246
S'[ ClassName: com.android.org.chromium.content.browser.ContentViewCore; Text: []; ContentDescription: \xe7\xbd\x91\xe9\xa1\xb5\xe8\xa7\x86\xe5\x9b\xbe; ItemCount: -1; CurrentItemIndex: -1; IsEnabled: true; IsPassword: false; IsChecked: false; IsFullScreen: false; Scrollable: false; BeforeText: null; FromIndex: -1; ToIndex: -1; ScrollX: 0; ScrollY: 0; MaxScrollX: 0; MaxScrollY: 0; AddedCount: -1; RemovedCount: -1; ParcelableData: null ]'
p247
sS'MovementGranularity'
p248
g6
sa(dp249
S'EventTime'
p250
S'22166168'
p251
sg4
L1449641880441L
sS'recordCount'
p252
g6
sS'EventType'
p253
S'TYPE_WINDOW_CONTENT_CHANGED'
p254
sS'PackageName'
p255
S'com.example.myfristandroid'
p256
sS'OutBounds'
p257
S'Rect(0, 75 - 1920, 1080)'
p258
sS'Action'
p259
S'[ ClassName: com.android.org.chromium.content.browser.ContentViewCore; Text: []; ContentDescription: \xe7\xbd\x91\xe9\xa1\xb5\xe8\xa7\x86\xe5\x9b\xbe; ItemCount: -1; CurrentItemIndex: -1; IsEnabled: true; IsPassword: false; IsChecked: false; IsFullScreen: false; Scrollable: false; BeforeText: null; FromIndex: -1; ToIndex: -1; ScrollX: 0; ScrollY: 0; MaxScrollX: 0; MaxScrollY: 0; AddedCount: -1; RemovedCount: -1; ParcelableData: null ]'
p260
sS'MovementGranularity'
p261
g6
sa(dp262
S'EventTime'
p263
S'22166501'
p264
sg4
L1449641880773L
sS'recordCount'
p265
g6
sS'EventType'
p266
S'TYPE_WINDOW_CONTENT_CHANGED'
p267
sS'PackageName'
p268
S'com.example.myfristandroid'
p269
sS'OutBounds'
p270
S'Rect(0, 75 - 1920, 1080)'
p271
sS'Action'
p272
S'[ ClassName: com.android.org.chromium.content.browser.ContentViewCore; Text: []; ContentDescription: \xe7\xbd\x91\xe9\xa1\xb5\xe8\xa7\x86\xe5\x9b\xbe; ItemCount: -1; CurrentItemIndex: -1; IsEnabled: true; IsPassword: false; IsChecked: false; IsFullScreen: false; Scrollable: false; BeforeText: null; FromIndex: -1; ToIndex: -1; ScrollX: 0; ScrollY: 0; MaxScrollX: 0; MaxScrollY: 0; AddedCount: -1; RemovedCount: -1; ParcelableData: null ]'
p273
sS'MovementGranularity'
p274
g6
sa(dp275
S'EventTime'
p276
S'22166968'
p277
sg4
L1449641881242L
sS'recordCount'
p278
g6
sS'EventType'
p279
S'TYPE_WINDOW_CONTENT_CHANGED'
p280
sS'PackageName'
p281
S'com.example.myfristandroid'
p282
sS'OutBounds'
p283
S'Rect(0, 75 - 1920, 1080)'
p284
sS'Action'
p285
S'[ ClassName: com.android.org.chromium.content.browser.ContentViewCore; Text: []; ContentDescription: \xe7\xbd\x91\xe9\xa1\xb5\xe8\xa7\x86\xe5\x9b\xbe; ItemCount: -1; CurrentItemIndex: -1; IsEnabled: true; IsPassword: false; IsChecked: false; IsFullScreen: false; Scrollable: false; BeforeText: null; FromIndex: -1; ToIndex: -1; ScrollX: 0; ScrollY: 0; MaxScrollX: 0; MaxScrollY: 0; AddedCount: -1; RemovedCount: -1; ParcelableData: null ]'
p286
sS'MovementGranularity'
p287
g6
sa(dp288
S'EventTime'
p289
S'22170006'
p290
sg4
L1449641884281L
sS'recordCount'
p291
g6
sS'EventType'
p292
S'TYPE_WINDOW_CONTENT_CHANGED'
p293
sS'PackageName'
p294
S'com.example.myfristandroid'
p295
sS'OutBounds'
p296
S'Rect(0, 75 - 1920, 1080)'
p297
sS'Action'
p298
S'[ ClassName: com.android.org.chromium.content.browser.ContentViewCore; Text: []; ContentDescription: \xe7\xbd\x91\xe9\xa1\xb5\xe8\xa7\x86\xe5\x9b\xbe; ItemCount: -1; CurrentItemIndex: -1; IsEnabled: true; IsPassword: false; IsChecked: false; IsFullScreen: false; Scrollable: false; BeforeText: null; FromIndex: -1; ToIndex: -1; ScrollX: 0; ScrollY: 0; MaxScrollX: 0; MaxScrollY: 0; AddedCount: -1; RemovedCount: -1; ParcelableData: null ]'
p299
sS'MovementGranularity'
p300
g6
sa(dp301
S'EventTime'
p302
S'22173157'
p303
sg4
L1449641887431L
sS'recordCount'
p304
g6
sS'EventType'
p305
S'TYPE_WINDOW_CONTENT_CHANGED'
p306
sS'PackageName'
p307
S'com.example.myfristandroid'
p308
sS'OutBounds'
p309
S'Rect(0, 75 - 1920, 1080)'
p310
sS'Action'
p311
S'[ ClassName: com.android.org.chromium.content.browser.ContentViewCore; Text: []; ContentDescription: \xe7\xbd\x91\xe9\xa1\xb5\xe8\xa7\x86\xe5\x9b\xbe; ItemCount: -1; CurrentItemIndex: -1; IsEnabled: true; IsPassword: false; IsChecked: false; IsFullScreen: false; Scrollable: false; BeforeText: null; FromIndex: -1; ToIndex: -1; ScrollX: 0; ScrollY: 0; MaxScrollX: 0; MaxScrollY: 0; AddedCount: -1; RemovedCount: -1; ParcelableData: null ]'
p312
sS'MovementGranularity'
p313
g6
sa(dp314
S'EventTime'
p315
S'22176178'
p316
sg4
L1449641890453L
sS'recordCount'
p317
g6
sS'EventType'
p318
S'TYPE_WINDOW_CONTENT_CHANGED'
p319
sS'PackageName'
p320
S'com.example.myfristandroid'
p321
sS'OutBounds'
p322
S'Rect(0, 75 - 1920, 1080)'
p323
sS'Action'
p324
S'[ ClassName: com.android.org.chromium.content.browser.ContentViewCore; Text: []; ContentDescription: \xe7\xbd\x91\xe9\xa1\xb5\xe8\xa7\x86\xe5\x9b\xbe; ItemCount: -1; CurrentItemIndex: -1; IsEnabled: true; IsPassword: false; IsChecked: false; IsFullScreen: false; Scrollable: false; BeforeText: null; FromIndex: -1; ToIndex: -1; ScrollX: 0; ScrollY: 0; MaxScrollX: 0; MaxScrollY: 0; AddedCount: -1; RemovedCount: -1; ParcelableData: null ]'
p325
sS'MovementGranularity'
p326
g6
sa(dp327
S'EventTime'
p328
S'22176425'
p329
sg4
L1449641890698L
sS'recordCount'
p330
g6
sS'EventType'
p331
S'TYPE_WINDOW_CONTENT_CHANGED'
p332
sS'PackageName'
p333
S'com.example.myfristandroid'
p334
sS'OutBounds'
p335
S'Rect(0, 75 - 1920, 1080)'
p336
sS'Action'
p337
S'[ ClassName: com.android.org.chromium.content.browser.ContentViewCore; Text: []; ContentDescription: \xe7\xbd\x91\xe9\xa1\xb5\xe8\xa7\x86\xe5\x9b\xbe; ItemCount: -1; CurrentItemIndex: -1; IsEnabled: true; IsPassword: false; IsChecked: false; IsFullScreen: false; Scrollable: false; BeforeText: null; FromIndex: -1; ToIndex: -1; ScrollX: 0; ScrollY: 0; MaxScrollX: 0; MaxScrollY: 0; AddedCount: -1; RemovedCount: -1; ParcelableData: null ]'
p338
sS'MovementGranularity'
p339
g6
sa.