(lp0
(dp1
S'EventTime'
p2
S'30841546'
p3
sS'SyscTime'
p4
L1450023870986L
sS'recordCount'
p5
S'0'
p6
sS'EventType'
p7
S'TYPE_WINDOW_STATE_CHANGED'
p8
sS'PackageName'
p9
S'com.taobao.ishopping'
p10
sS'Action'
p11
S'[ ClassName: com.taobao.ishopping.activity.SplashActivity; Text: [\xe7\x88\xb1\xe9\x80\x9b\xe8\xa1\x97]; ContentDescription: null; ItemCount: -1; CurrentItemIndex: -1; IsEnabled: true; IsPassword: false; IsChecked: false; IsFullScreen: true; Scrollable: false; BeforeText: null; FromIndex: -1; ToIndex: -1; ScrollX: -1; ScrollY: -1; MaxScrollX: -1; MaxScrollY: -1; AddedCount: -1; RemovedCount: -1; ParcelableData: null ]'
p12
sS'MovementGranularity'
p13
g6
sa.