(lp0
(dp1
S'processID'
p2
S'4525'
p3
sS'SyscTime'
p4
L1449717267004L
sS'priority'
p5
S'D'
p6
sS'tag'
p7
S'dalvikvm'
p8
sS'threadID'
p9
S' 4525'
p10
sS'message'
p11
S'Late-enabling CheckJNI\n'
p12
sa(dp13
g2
S'4525'
p14
sg4
L1449717267044L
sg5
S'E'
p15
sg7
S'Trace   '
p16
sg9
S' 4525'
p17
sg11
S'error opening trace file: No such file or directory (2)\n'
p18
sa(dp19
g2
S'4525'
p20
sg4
L1449717267174L
sg5
S'V'
p21
sg7
S'Activity'
p22
sg9
S' 4525'
p23
sg11
S'onCreate com.example.myfristandroid.SplashActivity@41be3cf0: null\n'
p24
sa(dp25
g2
S'4525'
p26
sg4
L1449717267204L
sg5
g6
sg7
S'dalvikvm'
p27
sg9
S' 4525'
p28
sg11
S'GC_FOR_ALLOC freed 89K, 6% free 9604K/10179K, paused 14ms, total 15ms\n'
p29
sa(dp30
g2
S'4525'
p31
sg4
L1449717267224L
sg5
S'I'
p32
sg7
S'dalvikvm-heap'
p33
sg9
S' 4525'
p34
sg11
S'Grow heap (frag case) to 15.468MB for 3876224-byte allocation\n'
p35
sa(dp36
g2
S'4525'
p37
sg4
L1449717267244L
sg5
g6
sg7
S'dalvikvm'
p38
sg9
S' 4532'
p39
sg11
S'GC_CONCURRENT freed <1K, 5% free 13388K/14023K, paused 13ms+2ms, total 25ms\n'
p40
sa(dp41
g2
S'4525'
p42
sg4
L1449717267364L
sg5
g6
sg7
S'dalvikvm'
p43
sg9
S' 4525'
p44
sg11
S'GC_FOR_ALLOC freed 0K, 5% free 13388K/14023K, paused 11ms, total 11ms\n'
p45
sa(dp46
g2
S'4525'
p47
sg4
L1449717267384L
sg5
g32
sg7
S'dalvikvm-heap'
p48
sg9
S' 4525'
p49
sg11
S'Grow heap (frag case) to 23.785MB for 8721484-byte allocation\n'
p50
sa(dp51
g2
S'4525'
p52
sg4
L1449717267404L
sg5
g6
sg7
S'dalvikvm'
p53
sg9
S' 4532'
p54
sg11
S'GC_CONCURRENT freed 0K, 4% free 21905K/22599K, paused 2ms+1ms, total 16ms\n'
p55
sa(dp56
g2
S'4557'
p57
sg4
L1449717267444L
sg5
g6
sg7
S'dalvikvm'
p58
sg9
S' 4557'
p59
sg11
S'Late-enabling CheckJNI\n'
p60
sa(dp61
g2
S'4525'
p62
sg4
L1449717267454L
sg5
g21
sg7
S'Activity'
p63
sg9
S' 4525'
p64
sg11
S'onStart com.example.myfristandroid.SplashActivity@41be3cf0\n'
p65
sa(dp66
g2
S'4525'
p67
sg4
L1449717267454L
sg5
g21
sg7
S'Activity'
p68
sg9
S' 4525'
p69
sg11
S'onResume com.example.myfristandroid.SplashActivity@41be3cf0\n'
p70
sa(dp71
g2
S'4557'
p72
sg4
L1449717267494L
sg5
g15
sg7
S'Trace   '
p73
sg9
S' 4557'
p74
sg11
S'error opening trace file: No such file or directory (2)\n'
p75
sa(dp76
g2
S'4525'
p77
sg4
L1449717267494L
sg5
g6
sg7
S'libEGL  '
p78
sg9
S' 4525'
p79
sg11
S'loaded /system/lib/egl/libEGL_adreno200.so\n'
p80
sa(dp81
g2
S'4525'
p82
sg4
L1449717267504L
sg5
g6
sg7
S'libEGL  '
p83
sg9
S' 4525'
p84
sg11
S'loaded /system/lib/egl/libGLESv1_CM_adreno200.so\n'
p85
sa(dp86
g2
S'4525'
p87
sg4
L1449717267504L
sg5
g6
sg7
S'libEGL  '
p88
sg9
S' 4525'
p89
sg11
S'loaded /system/lib/egl/libGLESv2_adreno200.so\n'
p90
sa(dp91
g2
S'4525'
p92
sg4
L1449717267514L
sg5
g32
sg7
S'Log_level_control'
p93
sg9
S' 4525'
p94
sg11
S'YVV7\n'
p95
sa(dp96
g2
S'4525'
p97
sg4
L1449717267514L
sg5
g32
sg7
S'Adreno200-EGL'
p98
sg9
S' 4525'
p99
sg11
S'<qeglDrvAPI_eglInitialize:299>: EGL 1.4 QUALCOMM build: Nondeterministic AU_msm8625_REFS/TAGS/JB_REL_RB5_QRD_D20130303_CL3285357_release_AU (CL3285357)\nBuild Date: 03/04/13 Mon\nLocal Branch: \nRemote Branch: m/refs/tags/jb_rel_rb5_qrd_D20130303\nLocal Patches: NONE\nReconstruct Branch: NOTHING\n'
p100
sa(dp101
g2
S'4557'
p102
sg4
L1449717267544L
sg5
g6
sg7
S'dalvikvm'
p103
sg9
S' 4557'
p104
sg11
S'GC_FOR_ALLOC freed 75K, 6% free 9576K/10179K, paused 22ms, total 22ms\n'
p105
sa(dp106
g2
S'4525'
p107
sg4
L1449717267554L
sg5
g6
sg7
S'OpenGLRenderer'
p108
sg9
S' 4525'
p109
sg11
S'Enabling debug mode 0\n'
p110
sa(dp111
g2
S'4557'
p112
sg4
L1449717267554L
sg5
g32
sg7
S'dalvikvm-heap'
p113
sg9
S' 4557'
p114
sg11
S'Grow heap (frag case) to 12.721MB for 1024016-byte allocation\n'
p115
sa(dp116
g2
S'4557'
p117
sg4
L1449717267574L
sg5
g6
sg7
S'dalvikvm'
p118
sg9
S' 4559'
p119
sg11
S'GC_CONCURRENT freed 58K, 6% free 10588K/11207K, paused 2ms+2ms, total 21ms\n'
p120
sa(dp121
g2
S'4557'
p122
sg4
L1449717267574L
sg5
g6
sg7
S'SocketService'
p123
sg9
S' 4557'
p124
sg11
S'onStartCommand : bLogin:false\n'
p125
sa(dp126
g2
S'4557'
p127
sg4
L1449717267574L
sg5
g6
sg7
S'SocketService'
p128
sg9
S' 4557'
p129
sg11
S'pid:4557 myPid:4557\n'
p130
sa(dp131
g2
S'4557'
p132
sg4
L1449717267584L
sg5
g6
sg7
S'SocketService'
p133
sg9
S' 4557'
p134
sg11
S'start to run current thread!id:1466\n'
p135
sa(dp136
g2
S'4557'
p137
sg4
L1449717267634L
sg5
g6
sg7
S'SocketService'
p138
sg9
S' 4579'
p139
sg11
S'ip/172.20.10.4 lport:45386 p:143\n'
p140
sa(dp141
g2
S'4557'
p142
sg4
L1449717267644L
sg5
g6
sg7
S'ForegroundActivity'
p143
sg9
S' 4579'
p144
sg11
S'\xe6\x9c\xac\xe6\xac\xa1\xe5\x8f\x91\xe9\x80\x81\xe5\xb8\xa7\xe9\x95\xbf:34\t\xe6\x80\xbb\xe5\xb8\xa7\xe9\x95\xbf:34\n'
p145
sa(dp146
g2
S'4557'
p147
sg4
L1449717267644L
sg5
g6
sg7
S'SocketService'
p148
sg9
S' 4579'
p149
sg11
S'success to connect server!id:1466 bLogin:false\n'
p150
sa(dp151
g2
S'4557'
p152
sg4
L1449717267694L
sg5
g6
sg7
S'ForegroundActivity'
p153
sg9
S' 4580'
p154
sg11
S'\xe6\x9c\xac\xe6\xac\xa1\xe6\x94\xb6\xe5\x88\xb0\xe5\xb8\xa7\xe9\x95\xbf:13\t\xe6\x80\xbb\xe5\xb8\xa7\xe9\x95\xbf:13\n'
p155
sa(dp156
g2
S'4525'
p157
sg4
L1449717267944L
sg5
g32
sg7
S'Environment'
p158
sg9
S' 4545'
p159
sg11
S'GetExternalStorageDirectory info:ApplicationInfo{41be6c20 com.example.myfristandroid},packagename:com.example.myfristandroid,UID:0\n'
p160
sa(dp161
g2
S'4557'
p162
sg4
L1449717268574L
sg5
g6
sg7
S'SocketService1'
p163
sg9
S' 4577'
p164
sg11
S'\xe6\x9c\xac\xe6\xac\xa1\xe6\x8f\x90\xe5\x8f\x961:LoadPtr:13 HeadIndex:0 GetSize:13 13 0 \xe5\xa4\xb4\xe4\xbf\xa1\xe6\x81\xaf:EB 90 EB 90 EB 90 0D 00 0E 01 \n'
p165
sa(dp166
g2
S'4557'
p167
sg4
L1449717268654L
sg5
g6
sg7
S'ForegroundActivity'
p168
sg9
S' 4579'
p169
sg11
S'\xe6\x9c\xac\xe6\xac\xa1\xe5\x8f\x91\xe9\x80\x81\xe5\xb8\xa7\xe9\x95\xbf:11\t\xe6\x80\xbb\xe5\xb8\xa7\xe9\x95\xbf:45\n'
p170
sa(dp171
g2
S'4557'
p172
sg4
L1449717268874L
sg5
g6
sg7
S'ForegroundActivity'
p173
sg9
S' 4580'
p174
sg11
S'\xe6\x9c\xac\xe6\xac\xa1\xe6\x94\xb6\xe5\x88\xb0\xe5\xb8\xa7\xe9\x95\xbf:642\t\xe6\x80\xbb\xe5\xb8\xa7\xe9\x95\xbf:655\n'
p175
sa(dp176
g2
S'4557'
p177
sg4
L1449717269614L
sg5
g6
sg7
S'SocketService1'
p178
sg9
S' 4577'
p179
sg11
S'\xe6\x9c\xac\xe6\xac\xa1\xe6\x8f\x90\xe5\x8f\x961:LoadPtr:655 HeadIndex:13 GetSize:642 130 512 \xe5\xa4\xb4\xe4\xbf\xa1\xe6\x81\xaf:EB 90 EB 90 EB 90 82 02 14 0A \n'
p180
sa(dp181
g2
S'4557'
p182
sg4
L1449717269654L
sg5
g6
sg7
S'ForegroundActivity'
p183
sg9
S' 4579'
p184
sg11
S'\xe6\x9c\xac\xe6\xac\xa1\xe5\x8f\x91\xe9\x80\x81\xe5\xb8\xa7\xe9\x95\xbf:11\t\xe6\x80\xbb\xe5\xb8\xa7\xe9\x95\xbf:56\n'
p185
sa(dp186
g2
S'4525'
p187
sg4
L1449717269664L
sg5
g21
sg7
S'Activity'
p188
sg9
S' 4525'
p189
sg11
S'onPause com.example.myfristandroid.SplashActivity@41be3cf0\n'
p190
sa(dp191
g2
S'4525'
p192
sg4
L1449717269684L
sg5
g21
sg7
S'Activity'
p193
sg9
S' 4525'
p194
sg11
S'onCreate com.example.myfristandroid.MainActivity@41bc6f58: null\n'
p195
sa(dp196
g2
S'4525'
p197
sg4
L1449717269854L
sg5
g6
sg7
S'MainActivity'
p198
sg9
S' 4525'
p199
sg11
S'Start One Client\n'
p200
sa(dp201
g2
S'4525'
p202
sg4
L1449717269854L
sg5
g21
sg7
S'Activity'
p203
sg9
S' 4525'
p204
sg11
S'onStart com.example.myfristandroid.MainActivity@41bc6f58\n'
p205
sa(dp206
g2
S'4525'
p207
sg4
L1449717269854L
sg5
g21
sg7
S'Activity'
p208
sg9
S' 4525'
p209
sg11
S'onResume com.example.myfristandroid.MainActivity@41bc6f58\n'
p210
sa(dp211
g2
S'4557'
p212
sg4
L1449717270204L
sg5
g6
sg7
S'ForegroundActivity'
p213
sg9
S' 4580'
p214
sg11
S'\xe6\x9c\xac\xe6\xac\xa1\xe6\x94\xb6\xe5\x88\xb0\xe5\xb8\xa7\xe9\x95\xbf:67\t\xe6\x80\xbb\xe5\xb8\xa7\xe9\x95\xbf:722\n'
p215
sa(dp216
g2
S'4525'
p217
sg4
L1449717270234L
sg5
g6
sg7
S'dalvikvm'
p218
sg9
S' 4525'
p219
sg11
S'GC_FOR_ALLOC freed 4995K, 23% free 18839K/24263K, paused 17ms, total 17ms\n'
p220
sa(dp221
g2
S'4525'
p222
sg4
L1449717270394L
sg5
g6
sg7
S'dalvikvm'
p223
sg9
S' 4532'
p224
sg11
S'GC_CONCURRENT freed 1083K, 19% free 19756K/24263K, paused 2ms+3ms, total 29ms\n'
p225
sa(dp226
g2
S'4525'
p227
sg4
L1449717270394L
sg5
g6
sg7
S'dalvikvm'
p228
sg9
S' 4525'
p229
sg11
S'WAIT_FOR_CONCURRENT_GC blocked 12ms\n'
p230
sa(dp231
g2
S'4557'
p232
sg4
L1449717270674L
sg5
g6
sg7
S'SocketService1'
p233
sg9
S' 4577'
p234
sg11
S'\xe6\x9c\xac\xe6\xac\xa1\xe6\x8f\x90\xe5\x8f\x961:LoadPtr:722 HeadIndex:655 GetSize:67 67 0 \xe5\xa4\xb4\xe4\xbf\xa1\xe6\x81\xaf:EB 90 EB 90 EB 90 43 00 15 02 \n'
p235
sa(dp236
g2
S'4525'
p237
sg4
L1449717270694L
sg5
g6
sg7
S'MainActivity'
p238
sg9
S' 4525'
p239
sg11
S'ServerVersion:22 LocalVersion:12\n'
p240
sa(dp241
g2
S'4525'
p242
sg4
L1449717270904L
sg5
g21
sg7
S'Activity'
p243
sg9
S' 4525'
p244
sg11
S'onStop com.example.myfristandroid.SplashActivity@41be3cf0\n'
p245
sa(dp246
g2
S'4525'
p247
sg4
L1449717270904L
sg5
g21
sg7
S'Activity'
p248
sg9
S' 4525'
p249
sg11
S'onDestroy com.example.myfristandroid.SplashActivity@41be3cf0\n'
p250
sa(dp251
g2
S'4525'
p252
sg4
L1449717272244L
sg5
g21
sg7
S'AudioManager'
p253
sg9
S' 4525'
p254
sg11
S'AudioManager ctor mUseMasterVolume:false\n'
p255
sa(dp256
g2
S'4525'
p257
sg4
L1449717272994L
sg5
g6
sg7
S'MainActivity'
p258
sg9
S' 4525'
p259
sg11
S'V.getTag:null v.id:2131230738\n'
p260
sa(dp261
g2
S'4525'
p262
sg4
L1449717279044L
sg5
g6
sg7
S'MainActivity'
p263
sg9
S' 4525'
p264
sg11
S'V.getTag:null v.id:2131230791\n'
p265
sa(dp266
g2
S'4525'
p267
sg4
L1449717279284L
sg5
S'W'
p268
sg7
S'IInputConnectionWrapper'
p269
sg9
S' 4525'
p270
sg11
S'performPrivateCommand on inactive InputConnection\n'
p271
sa(dp272
g2
S'4525'
p273
sg4
L1449717281424L
sg5
g6
sg7
S'MainActivity'
p274
sg9
S' 4525'
p275
sg11
S'V.getTag:null v.id:2131230790\n'
p276
sa(dp277
g2
S'4525'
p278
sg4
L1449717283114L
sg5
g6
sg7
S'cn.edu.nju.ise.kikandroid'
p279
sg9
S' 4587'
p280
sg11
S'Screenshot:1449717283127\n'
p281
sa(dp282
g2
S'4525'
p283
sg4
L1449717283214L
sg5
g6
sg7
S'dalvikvm'
p284
sg9
S' 4525'
p285
sg11
S'GC_FOR_ALLOC freed 1308K, 17% free 20173K/24263K, paused 27ms, total 28ms\n'
p286
sa(dp287
g2
S'4525'
p288
sg4
L1449717283274L
sg5
g6
sg7
S'dalvikvm'
p289
sg9
S' 4532'
p290
sg11
S'GC_CONCURRENT freed 207K, 10% free 21991K/24263K, paused 12ms+13ms, total 53ms\n'
p291
sa(dp292
g2
S'4525'
p293
sg4
L1449717283304L
sg5
g6
sg7
S'dalvikvm'
p294
sg9
S' 4525'
p295
sg11
S'GC_FOR_ALLOC freed <1K, 10% free 21991K/24263K, paused 18ms, total 18ms\n'
p296
sa(dp297
g2
S'4525'
p298
sg4
L1449717283304L
sg5
g32
sg7
S'dalvikvm-heap'
p299
sg9
S' 4525'
p300
sg11
S'Grow heap (frag case) to 25.846MB for 2073616-byte allocation\n'
p301
sa(dp302
g2
S'4525'
p303
sg4
L1449717283334L
sg5
g6
sg7
S'dalvikvm'
p304
sg9
S' 4532'
p305
sg11
S'GC_CONCURRENT freed 2026K, 17% free 21997K/26311K, paused 3ms+4ms, total 30ms\n'
p306
sa(dp307
g2
S'4525'
p308
sg4
L1449717285454L
sg5
g6
sg7
S'MainActivity'
p309
sg9
S' 4525'
p310
sg11
S'V.getTag:null v.id:2131230791\n'
p311
sa(dp312
g2
S'4525'
p313
sg4
L1449717285674L
sg5
g268
sg7
S'IInputConnectionWrapper'
p314
sg9
S' 4525'
p315
sg11
S'performPrivateCommand on inactive InputConnection\n'
p316
sa(dp317
g2
S'4557'
p318
sg4
L1449717288204L
sg5
g6
sg7
S'dalvikvm'
p319
sg9
S' 4559'
p320
sg11
S'GC_CONCURRENT freed 383K, 8% free 10616K/11463K, paused 24ms+1ms, total 61ms\n'
p321
sa(dp322
g2
S'4525'
p323
sg4
L1449717298864L
sg5
g6
sg7
S'MainActivity'
p324
sg9
S' 4525'
p325
sg11
S'logList.size2():0 com.example.myfristandroid.myListView@42854d70\n'
p326
sa(dp327
g2
S'4525'
p328
sg4
L1449717298864L
sg5
g6
sg7
S'MainActivity'
p329
sg9
S' 4525'
p330
sg11
S'MainActivity Send BroadCast Length:22\n'
p331
sa(dp332
g2
S'4557'
p333
sg4
L1449717298904L
sg5
g6
sg7
S'ForegroundActivity'
p334
sg9
S' 4557'
p335
sg11
S'\xe6\x9c\xac\xe6\xac\xa1\xe5\x8f\x91\xe9\x80\x81\xe5\xb8\xa7\xe9\x95\xbf:22\t\xe6\x80\xbb\xe5\xb8\xa7\xe9\x95\xbf:78\n'
p336
sa(dp337
g2
S'4557'
p338
sg4
L1449717299104L
sg5
g6
sg7
S'ForegroundActivity'
p339
sg9
S' 4580'
p340
sg11
S'\xe6\x9c\xac\xe6\xac\xa1\xe6\x94\xb6\xe5\x88\xb0\xe5\xb8\xa7\xe9\x95\xbf:17\t\xe6\x80\xbb\xe5\xb8\xa7\xe9\x95\xbf:739\n'
p341
sa(dp342
g2
S'4557'
p343
sg4
L1449717299724L
sg5
g6
sg7
S'SocketService1'
p344
sg9
S' 4577'
p345
sg11
S'\xe6\x9c\xac\xe6\xac\xa1\xe6\x8f\x90\xe5\x8f\x961:LoadPtr:739 HeadIndex:722 GetSize:17 17 0 \xe5\xa4\xb4\xe4\xbf\xa1\xe6\x81\xaf:EB 90 EB 90 EB 90 11 00 0D 01 \n'
p346
sa(dp347
g2
S'4525'
p348
sg4
L1449717300424L
sg5
g6
sg7
S'cn.edu.nju.ise.kikandroid'
p349
sg9
S' 4587'
p350
sg11
S'Screenshot:1449717300438\n'
p351
sa(dp352
g2
S'4525'
p353
sg4
L1449717300554L
sg5
g6
sg7
S'dalvikvm'
p354
sg9
S' 4525'
p355
sg11
S'GC_FOR_ALLOC freed 2339K, 24% free 20127K/26311K, paused 29ms, total 29ms\n'
p356
sa(dp357
g2
S'4525'
p358
sg4
L1449717300604L
sg5
g6
sg7
S'dalvikvm'
p359
sg9
S' 4532'
p360
sg11
S'GC_CONCURRENT freed 151K, 17% free 22001K/26311K, paused 12ms+3ms, total 40ms\n'
p361
sa(dp362
g2
S'4525'
p363
sg4
L1449717300644L
sg5
g6
sg7
S'dalvikvm'
p364
sg9
S' 4532'
p365
sg11
S'GC_CONCURRENT freed 2026K, 17% free 22006K/26311K, paused 5ms+3ms, total 39ms\n'
p366
sa(dp367
g2
S'4525'
p368
sg4
L1449717311934L
sg5
g6
sg7
S'cn.edu.nju.ise.kikandroid'
p369
sg9
S' 4587'
p370
sg11
S'Log:1449717311950\n'
p371
sa(dp372
g2
S'4525'
p373
sg4
L1449717311984L
sg5
g6
sg7
S'cn.edu.nju.ise.kikandroid'
p374
sg9
S' 4587'
p375
sg11
S'Screenshot:1449717311999\n'
p376
sa(dp377
g2
S'4525'
p378
sg4
L1449717312044L
sg5
g6
sg7
S'dalvikvm'
p379
sg9
S' 4525'
p380
sg11
S'GC_FOR_ALLOC freed 2175K, 25% free 19979K/26311K, paused 17ms, total 17ms\n'
p381
sa(dp382
g2
S'4525'
p383
sg4
L1449717312084L
sg5
g6
sg7
S'dalvikvm'
p384
sg9
S' 4532'
p385
sg11
S'GC_CONCURRENT freed 1K, 17% free 22003K/26311K, paused 3ms+2ms, total 32ms\n'
p386
sa(dp387
g2
S'4525'
p388
sg4
L1449717312114L
sg5
g6
sg7
S'dalvikvm'
p389
sg9
S' 4532'
p390
sg11
S'GC_CONCURRENT freed 2026K, 17% free 22008K/26311K, paused 3ms+3ms, total 20ms\n'
p391
sa(dp392
g2
S'4525'
p393
sg4
L1449717312174L
sg5
g268
sg7
S'dalvikvm'
p394
sg9
S' 4587'
p395
sg11
S'threadid=14: thread exiting with uncaught exception (group=0x4121b588)\n'
p396
sa(dp397
g2
S'4525'
p398
sg4
L1449717312174L
sg5
g15
sg7
S'AndroidRuntime'
p399
sg9
S' 4587'
p400
sg11
S'FATAL EXCEPTION: Thread-1461\njava.lang.NullPointerException\n\tat android.app.Instrumentation.finish(Instrumentation.java:191)\n\tat cn.edu.nju.ise.kikandroid.AUTInstrument.quitInstr(AUTInstrument.java:195)\n\tat cn.edu.nju.ise.kikandroid.AUTInstrument.startServer(AUTInstrument.java:161)\n\tat cn.edu.nju.ise.kikandroid.AUTInstrument$1.run(AUTInstrument.java:107)\n\tat java.lang.Thread.run(Thread.java:856)\n'
p401
sa.