(lp0
(dp1
S'processID'
p2
S'22646'
p3
sS'SyscTime'
p4
L1449631783496L
sS'priority'
p5
S'D'
p6
sS'tag'
p7
S'MainActivity'
p8
sS'threadID'
p9
S'22646'
p10
sS'message'
p11
S'V.getTag:null v.id:2131230734\n'
p12
sa(dp13
g2
S'22646'
p14
sg4
L1449631789066L
sg5
g6
sg7
S'cn.edu.nju.ise.kikandroid'
p15
sg9
S'22686'
p16
sg11
S'Log:1449631789074\n'
p17
sa(dp18
g2
S'22646'
p19
sg4
L1449631789156L
sg5
g6
sg7
S'dalvikvm'
p20
sg9
S'22646'
p21
sg11
S'GC_FOR_ALLOC freed 2412K, 8% free 29490K/32048K, paused 19ms, total 21ms\n'
p22
sa(dp23
g2
S'22646'
p24
sg4
L1449631789226L
sg5
g6
sg7
S'dalvikvm'
p25
sg9
S'22646'
p26
sg11
S'GC_FOR_ALLOC freed 57K, 8% free 33034K/35652K, paused 14ms, total 14ms\n'
p27
sa(dp28
g2
S'22646'
p29
sg4
L1449631789436L
sg5
g6
sg7
S'cn.edu.nju.ise.kikandroid'
p30
sg9
S'22686'
p31
sg11
S'Screenshot:1449631789105\n'
p32
sa(dp33
g2
S'22646'
p34
sg4
L1449631789436L
sg5
S'W'
p35
sg7
S'dalvikvm'
p36
sg9
S'22686'
p37
sg11
S'threadid=15: thread exiting with uncaught exception (group=0x41eee898)\n'
p38
sa(dp39
g2
S'22646'
p40
sg4
L1449631789446L
sg5
S'E'
p41
sg7
S'AndroidRuntime'
p42
sg9
S'22686'
p43
sg11
S'FATAL EXCEPTION: Thread-19027\njava.lang.NullPointerException\n\tat android.app.Instrumentation.finish(Instrumentation.java:193)\n\tat cn.edu.nju.ise.kikandroid.AUTInstrument.quitInstr(AUTInstrument.java:195)\n\tat cn.edu.nju.ise.kikandroid.AUTInstrument.startServer(AUTInstrument.java:161)\n\tat cn.edu.nju.ise.kikandroid.AUTInstrument$1.run(AUTInstrument.java:107)\n\tat java.lang.Thread.run(Thread.java:841)\n'
p44
sa.