(lp0
(dp1
S'EventTime'
p2
S'7480445'
p3
sS'SyscTime'
p4
L1449715547035L
sS'recordCount'
p5
S'0'
p6
sS'EventType'
p7
S'TYPE_WINDOW_STATE_CHANGED'
p8
sS'PackageName'
p9
S'com.example.myfristandroid'
p10
sS'OutBounds'
p11
S'Rect(0, 0 - 480, 854)'
p12
sS'Action'
p13
S'[ ClassName: com.example.myfristandroid.SplashActivity; Text: [SE-1800\xe7\xa7\xbb\xe5\x8a\xa8APP]; ContentDescription: null; ItemCount: -1; CurrentItemIndex: -1; IsEnabled: true; IsPassword: false; IsChecked: false; IsFullScreen: true; Scrollable: false; BeforeText: null; FromIndex: -1; ToIndex: -1; ScrollX: -1; ScrollY: -1; MaxScrollX: -1; MaxScrollY: -1; AddedCount: -1; RemovedCount: -1; ParcelableData: null ]'
p14
sS'MovementGranularity'
p15
g6
sa(dp16
S'EventTime'
p17
S'7480531'
p18
sg4
L1449715547114L
sS'recordCount'
p19
g6
sS'EventType'
p20
S'TYPE_WINDOW_CONTENT_CHANGED'
p21
sS'PackageName'
p22
S'com.example.myfristandroid'
p23
sS'OutBounds'
p24
S'Rect(0, 0 - 480, 854)'
p25
sS'Action'
p26
S'[ ClassName: android.widget.FrameLayout; Text: []; ContentDescription: null; ItemCount: -1; CurrentItemIndex: -1; IsEnabled: true; IsPassword: false; IsChecked: false; IsFullScreen: false; Scrollable: false; BeforeText: null; FromIndex: -1; ToIndex: -1; ScrollX: -1; ScrollY: -1; MaxScrollX: -1; MaxScrollY: -1; AddedCount: -1; RemovedCount: -1; ParcelableData: null ]'
p27
sS'MovementGranularity'
p28
g6
sa(dp29
S'EventTime'
p30
S'7480642'
p31
sg4
L1449715547223L
sS'recordCount'
p32
g6
sS'EventType'
p33
S'TYPE_NOTIFICATION_STATE_CHANGED'
p34
sS'PackageName'
p35
S'com.example.myfristandroid'
p36
sS'Action'
p37
S'[ ClassName: android.widget.Toast$TN; Text: [\xe6\x9c\x8d\xe5\x8a\xa1\xe5\x99\xa8\xe5\xbc\x82\xe5\xb8\xb8]; ContentDescription: null; ItemCount: -1; CurrentItemIndex: -1; IsEnabled: false; IsPassword: false; IsChecked: false; IsFullScreen: false; Scrollable: false; BeforeText: null; FromIndex: -1; ToIndex: -1; ScrollX: -1; ScrollY: -1; MaxScrollX: -1; MaxScrollY: -1; AddedCount: -1; RemovedCount: -1; ParcelableData: null ]'
p38
sS'MovementGranularity'
p39
g6
sa(dp40
S'EventTime'
p41
S'7482862'
p42
sg4
L1449715549443L
sS'recordCount'
p43
g6
sS'EventType'
p44
S'TYPE_VIEW_FOCUSED'
p45
sS'PackageName'
p46
S'com.example.myfristandroid'
p47
sS'Action'
p48
S'[ ClassName: android.widget.LinearLayout; Text: []; ContentDescription: null; ItemCount: 6; CurrentItemIndex: 0; IsEnabled: true; IsPassword: false; IsChecked: false; IsFullScreen: false; Scrollable: false; BeforeText: null; FromIndex: -1; ToIndex: -1; ScrollX: -1; ScrollY: -1; MaxScrollX: -1; MaxScrollY: -1; AddedCount: -1; RemovedCount: -1; ParcelableData: null ]'
p49
sS'MovementGranularity'
p50
g6
sa(dp51
S'EventTime'
p52
S'7483038'
p53
sg4
L1449715549656L
sS'recordCount'
p54
g6
sS'EventType'
p55
S'TYPE_WINDOW_STATE_CHANGED'
p56
sS'PackageName'
p57
S'com.example.myfristandroid'
p58
sS'OutBounds'
p59
S'Rect(0, 0 - 480, 854)'
p60
sS'Action'
p61
S'[ ClassName: com.example.myfristandroid.MainActivity; Text: [SE-1800\xe7\xa7\xbb\xe5\x8a\xa8APP]; ContentDescription: null; ItemCount: -1; CurrentItemIndex: -1; IsEnabled: true; IsPassword: false; IsChecked: false; IsFullScreen: true; Scrollable: false; BeforeText: null; FromIndex: -1; ToIndex: -1; ScrollX: -1; ScrollY: -1; MaxScrollX: -1; MaxScrollY: -1; AddedCount: -1; RemovedCount: -1; ParcelableData: null ]'
p62
sS'MovementGranularity'
p63
g6
sa(dp64
S'EventTime'
p65
S'7483042'
p66
sg4
L1449715549679L
sS'recordCount'
p67
g6
sS'EventType'
p68
S'TYPE_VIEW_SCROLLED'
p69
sS'PackageName'
p70
S'com.example.myfristandroid'
p71
sS'OutBounds'
p72
S'Rect(490, 315 - 950, 315)'
p73
sS'Action'
p74
S'[ ClassName: android.widget.ListView; Text: []; ContentDescription: null; ItemCount: 0; CurrentItemIndex: -1; IsEnabled: true; IsPassword: false; IsChecked: false; IsFullScreen: false; Scrollable: false; BeforeText: null; FromIndex: 0; ToIndex: -1; ScrollX: -1; ScrollY: -1; MaxScrollX: -1; MaxScrollY: -1; AddedCount: -1; RemovedCount: -1; ParcelableData: null ]'
p75
sS'MovementGranularity'
p76
g6
sa(dp77
S'EventTime'
p78
S'7483202'
p79
sg4
L1449715549844L
sS'recordCount'
p80
g6
sS'EventType'
p81
S'TYPE_WINDOW_CONTENT_CHANGED'
p82
sS'PackageName'
p83
S'com.example.myfristandroid'
p84
sS'OutBounds'
p85
S'Rect(0, 0 - 480, 854)'
p86
sS'Action'
p87
S'[ ClassName: android.widget.FrameLayout; Text: []; ContentDescription: null; ItemCount: -1; CurrentItemIndex: -1; IsEnabled: true; IsPassword: false; IsChecked: false; IsFullScreen: false; Scrollable: false; BeforeText: null; FromIndex: -1; ToIndex: -1; ScrollX: -1; ScrollY: -1; MaxScrollX: -1; MaxScrollY: -1; AddedCount: -1; RemovedCount: -1; ParcelableData: null ]'
p88
sS'MovementGranularity'
p89
g6
sa(dp90
S'EventTime'
p91
S'7484872'
p92
sg4
L1449715551453L
sS'recordCount'
p93
g6
sS'EventType'
p94
S'TYPE_VIEW_CLICKED'
p95
sS'PackageName'
p96
S'com.example.myfristandroid'
p97
sS'OutBounds'
p98
S'Rect(120, 771 - 240, 854)'
p99
sS'Action'
p100
S'[ ClassName: android.widget.LinearLayout; Text: [\xe6\x9f\xa5\xe7\x9c\x8b\xe5\xae\x9e\xe6\x97\xb6\xe6\x95\xb0\xe6\x8d\xae\xe4\xbf\xa1\xe6\x81\xaf, \xe6\x95\xb0\xe6\x8d\xae]; ContentDescription: null; ItemCount: -1; CurrentItemIndex: -1; IsEnabled: true; IsPassword: false; IsChecked: false; IsFullScreen: false; Scrollable: false; BeforeText: null; FromIndex: -1; ToIndex: -1; ScrollX: -1; ScrollY: -1; MaxScrollX: -1; MaxScrollY: -1; AddedCount: -1; RemovedCount: -1; ParcelableData: null ]'
p101
sS'MovementGranularity'
p102
g6
sa(dp103
S'EventTime'
p104
S'7484887'
p105
sg4
L1449715551485L
sS'recordCount'
p106
g6
sS'EventType'
p107
S'TYPE_VIEW_FOCUSED'
p108
sS'PackageName'
p109
S'com.example.myfristandroid'
p110
sS'OutBounds'
p111
S'Rect(26, 227 - 496, 272)'
p112
sS'Action'
p113
S'[ ClassName: android.widget.EditText; Text: [\xe6\x90\x9c\xe7\xb4\xa2]; ContentDescription: null; ItemCount: 10; CurrentItemIndex: 4; IsEnabled: true; IsPassword: false; IsChecked: false; IsFullScreen: false; Scrollable: false; BeforeText: null; FromIndex: -1; ToIndex: -1; ScrollX: -1; ScrollY: -1; MaxScrollX: -1; MaxScrollY: -1; AddedCount: -1; RemovedCount: -1; ParcelableData: null ]'
p114
sS'MovementGranularity'
p115
g6
sa(dp116
S'EventTime'
p117
S'7484991'
p118
sg4
L1449715551596L
sS'recordCount'
p119
g6
sS'EventType'
p120
S'TYPE_WINDOW_CONTENT_CHANGED'
p121
sS'PackageName'
p122
S'com.example.myfristandroid'
p123
sS'OutBounds'
p124
S'Rect(0, 0 - 480, 854)'
p125
sS'Action'
p126
S'[ ClassName: android.widget.FrameLayout; Text: []; ContentDescription: null; ItemCount: -1; CurrentItemIndex: -1; IsEnabled: true; IsPassword: false; IsChecked: false; IsFullScreen: false; Scrollable: false; BeforeText: null; FromIndex: -1; ToIndex: -1; ScrollX: -1; ScrollY: -1; MaxScrollX: -1; MaxScrollY: -1; AddedCount: -1; RemovedCount: -1; ParcelableData: null ]'
p127
sS'MovementGranularity'
p128
g6
sa(dp129
S'EventTime'
p130
S'7485015'
p131
sg4
L1449715551629L
sS'recordCount'
p132
g6
sS'EventType'
p133
S'TYPE_VIEW_SCROLLED'
p134
sS'PackageName'
p135
S'com.example.myfristandroid'
p136
sS'OutBounds'
p137
S'Rect(0, 106 - 480, 771)'
p138
sS'Action'
p139
S'[ ClassName: android.support.v4.view.ViewPager; Text: []; ContentDescription: null; ItemCount: -1; CurrentItemIndex: -1; IsEnabled: true; IsPassword: false; IsChecked: false; IsFullScreen: false; Scrollable: false; BeforeText: null; FromIndex: -1; ToIndex: -1; ScrollX: -1; ScrollY: -1; MaxScrollX: -1; MaxScrollY: -1; AddedCount: -1; RemovedCount: -1; ParcelableData: null ]'
p140
sS'MovementGranularity'
p141
g6
sa(dp142
S'EventTime'
p143
S'7485125'
p144
sg4
L1449715551726L
sS'recordCount'
p145
g6
sS'EventType'
p146
S'TYPE_VIEW_SCROLLED'
p147
sS'PackageName'
p148
S'com.example.myfristandroid'
p149
sS'OutBounds'
p150
S'Rect(0, 106 - 480, 771)'
p151
sS'Action'
p152
S'[ ClassName: android.support.v4.view.ViewPager; Text: []; ContentDescription: null; ItemCount: -1; CurrentItemIndex: -1; IsEnabled: true; IsPassword: false; IsChecked: false; IsFullScreen: false; Scrollable: false; BeforeText: null; FromIndex: -1; ToIndex: -1; ScrollX: -1; ScrollY: -1; MaxScrollX: -1; MaxScrollY: -1; AddedCount: -1; RemovedCount: -1; ParcelableData: null ]'
p153
sS'MovementGranularity'
p154
g6
sa(dp155
S'EventTime'
p156
S'7488338'
p157
sg4
L1449715554923L
sS'recordCount'
p158
g6
sS'EventType'
p159
S'TYPE_VIEW_CLICKED'
p160
sS'PackageName'
p161
S'com.example.myfristandroid'
p162
sS'OutBounds'
p163
S'Rect(188, 121 - 450, 166)'
p164
sS'Action'
p165
S'[ ClassName: android.widget.Button; Text: [\xe7\x82\xb9\xe5\x87\xbb\xe9\x80\x89\xe6\x8b\xa9\xe5\x8e\x82\xe7\xab\x99]; ContentDescription: null; ItemCount: -1; CurrentItemIndex: -1; IsEnabled: true; IsPassword: false; IsChecked: false; IsFullScreen: false; Scrollable: false; BeforeText: null; FromIndex: -1; ToIndex: -1; ScrollX: -1; ScrollY: -1; MaxScrollX: -1; MaxScrollY: -1; AddedCount: -1; RemovedCount: -1; ParcelableData: null ]'
p166
sS'MovementGranularity'
p167
g6
sa(dp168
S'EventTime'
p169
S'7488490'
p170
sg4
L1449715555223L
sS'recordCount'
p171
g6
sS'EventType'
p172
S'TYPE_WINDOW_STATE_CHANGED'
p173
sS'PackageName'
p174
S'com.example.myfristandroid'
p175
sS'OutBounds'
p176
S'Rect(165, 371 - 315, 521)'
p177
sS'Action'
p178
S'[ ClassName: com.example.myfristandroid.CustomProgressDialog; Text: []; ContentDescription: null; ItemCount: -1; CurrentItemIndex: -1; IsEnabled: true; IsPassword: false; IsChecked: false; IsFullScreen: false; Scrollable: false; BeforeText: null; FromIndex: -1; ToIndex: -1; ScrollX: -1; ScrollY: -1; MaxScrollX: -1; MaxScrollY: -1; AddedCount: -1; RemovedCount: -1; ParcelableData: null ]'
p179
sS'MovementGranularity'
p180
g6
sa(dp181
S'EventTime'
p182
S'7488518'
p183
sg4
L1449715555228L
sS'recordCount'
p184
g6
sS'EventType'
p185
S'TYPE_WINDOW_CONTENT_CHANGED'
p186
sS'PackageName'
p187
S'com.example.myfristandroid'
p188
sS'OutBounds'
p189
S'Rect(165, 371 - 315, 521)'
p190
sS'Action'
p191
S'[ ClassName: android.widget.FrameLayout; Text: []; ContentDescription: null; ItemCount: -1; CurrentItemIndex: -1; IsEnabled: true; IsPassword: false; IsChecked: false; IsFullScreen: false; Scrollable: false; BeforeText: null; FromIndex: -1; ToIndex: -1; ScrollX: -1; ScrollY: -1; MaxScrollX: -1; MaxScrollY: -1; AddedCount: -1; RemovedCount: -1; ParcelableData: null ]'
p192
sS'MovementGranularity'
p193
g6
sa(dp194
S'EventTime'
p195
S'7489553'
p196
sg4
L1449715556141L
sS'recordCount'
p197
g6
sS'EventType'
p198
S'TYPE_WINDOW_STATE_CHANGED'
p199
sS'PackageName'
p200
S'com.example.myfristandroid'
p201
sS'OutBounds'
p202
S'Rect(0, 0 - 480, 854)'
p203
sS'Action'
p204
S'[ ClassName: com.example.myfristandroid.HuzAlertDialog; Text: [\xe6\x8f\x90\xe7\xa4\xba, \xe8\xaf\xb7\xe5\x85\x88\xe7\x99\xbb\xe5\xbd\x95, \xe7\xa1\xae\xe5\xae\x9a]; ContentDescription: null; ItemCount: -1; CurrentItemIndex: -1; IsEnabled: true; IsPassword: false; IsChecked: false; IsFullScreen: true; Scrollable: false; BeforeText: null; FromIndex: -1; ToIndex: -1; ScrollX: -1; ScrollY: -1; MaxScrollX: -1; MaxScrollY: -1; AddedCount: -1; RemovedCount: -1; ParcelableData: null ]'
p205
sS'MovementGranularity'
p206
g6
sa(dp207
S'EventTime'
p208
S'7489616'
p209
sg4
L1449715556205L
sS'recordCount'
p210
g6
sS'EventType'
p211
S'TYPE_WINDOW_CONTENT_CHANGED'
p212
sS'PackageName'
p213
S'com.example.myfristandroid'
p214
sS'OutBounds'
p215
S'Rect(0, 0 - 480, 854)'
p216
sS'Action'
p217
S'[ ClassName: android.widget.FrameLayout; Text: []; ContentDescription: null; ItemCount: -1; CurrentItemIndex: -1; IsEnabled: true; IsPassword: false; IsChecked: false; IsFullScreen: false; Scrollable: false; BeforeText: null; FromIndex: -1; ToIndex: -1; ScrollX: -1; ScrollY: -1; MaxScrollX: -1; MaxScrollY: -1; AddedCount: -1; RemovedCount: -1; ParcelableData: null ]'
p218
sS'MovementGranularity'
p219
g6
sa(dp220
S'EventTime'
p221
S'7490675'
p222
sg4
L1449715557256L
sS'recordCount'
p223
g6
sS'EventType'
p224
S'TYPE_VIEW_CLICKED'
p225
sS'PackageName'
p226
S'com.example.myfristandroid'
p227
sS'OutBounds'
p228
S'Rect(138, 481 - 344, 553)'
p229
sS'Action'
p230
S'[ ClassName: android.widget.Button; Text: [\xe7\xa1\xae\xe5\xae\x9a]; ContentDescription: null; ItemCount: -1; CurrentItemIndex: -1; IsEnabled: true; IsPassword: false; IsChecked: false; IsFullScreen: false; Scrollable: false; BeforeText: null; FromIndex: -1; ToIndex: -1; ScrollX: -1; ScrollY: -1; MaxScrollX: -1; MaxScrollY: -1; AddedCount: -1; RemovedCount: -1; ParcelableData: null ]'
p231
sS'MovementGranularity'
p232
g6
sa(dp233
S'EventTime'
p234
S'7490728'
p235
sg4
L1449715557359L
sS'recordCount'
p236
g6
sS'EventType'
p237
S'TYPE_WINDOW_STATE_CHANGED'
p238
sS'PackageName'
p239
S'com.example.myfristandroid'
p240
sS'OutBounds'
p241
S'Rect(0, 0 - 480, 854)'
p242
sS'Action'
p243
S'[ ClassName: com.example.myfristandroid.MainActivity; Text: [SE-1800\xe7\xa7\xbb\xe5\x8a\xa8APP]; ContentDescription: null; ItemCount: -1; CurrentItemIndex: -1; IsEnabled: true; IsPassword: false; IsChecked: false; IsFullScreen: true; Scrollable: false; BeforeText: null; FromIndex: -1; ToIndex: -1; ScrollX: -1; ScrollY: -1; MaxScrollX: -1; MaxScrollY: -1; AddedCount: -1; RemovedCount: -1; ParcelableData: null ]'
p244
sS'MovementGranularity'
p245
g6
sa(dp246
S'EventTime'
p247
S'7517649'
p248
sg4
L1449715584230L
sS'recordCount'
p249
g6
sS'EventType'
p250
S'TYPE_VIEW_CLICKED'
p251
sS'PackageName'
p252
S'com.example.myfristandroid'
p253
sS'OutBounds'
p254
S'Rect(188, 174 - 338, 219)'
p255
sS'Action'
p256
S'[ ClassName: android.widget.Button; Text: [\xe9\x81\xa5 \xe4\xbf\xa1]; ContentDescription: null; ItemCount: -1; CurrentItemIndex: -1; IsEnabled: true; IsPassword: false; IsChecked: false; IsFullScreen: false; Scrollable: false; BeforeText: null; FromIndex: -1; ToIndex: -1; ScrollX: -1; ScrollY: -1; MaxScrollX: -1; MaxScrollY: -1; AddedCount: -1; RemovedCount: -1; ParcelableData: null ]'
p257
sS'MovementGranularity'
p258
g6
sa(dp259
S'EventTime'
p260
S'7517732'
p261
sg4
L1449715584318L
sS'recordCount'
p262
g6
sS'EventType'
p263
S'TYPE_WINDOW_STATE_CHANGED'
p264
sS'PackageName'
p265
S'com.example.myfristandroid'
p266
sS'OutBounds'
p267
S'Rect(0, 0 - 480, 854)'
p268
sS'Action'
p269
S'[ ClassName: com.example.myfristandroid.HuzAlertDialog; Text: [\xe6\x8f\x90\xe7\xa4\xba, \xe8\xaf\xb7\xe5\x85\x88\xe9\x80\x89\xe6\x8b\xa9\xe5\x8e\x82\xe7\xab\x99, \xe7\xa1\xae\xe5\xae\x9a]; ContentDescription: null; ItemCount: -1; CurrentItemIndex: -1; IsEnabled: true; IsPassword: false; IsChecked: false; IsFullScreen: true; Scrollable: false; BeforeText: null; FromIndex: -1; ToIndex: -1; ScrollX: -1; ScrollY: -1; MaxScrollX: -1; MaxScrollY: -1; AddedCount: -1; RemovedCount: -1; ParcelableData: null ]'
p270
sS'MovementGranularity'
p271
g6
sa(dp272
S'EventTime'
p273
S'7517783'
p274
sg4
L1449715584369L
sS'recordCount'
p275
g6
sS'EventType'
p276
S'TYPE_WINDOW_CONTENT_CHANGED'
p277
sS'PackageName'
p278
S'com.example.myfristandroid'
p279
sS'OutBounds'
p280
S'Rect(0, 0 - 480, 854)'
p281
sS'Action'
p282
S'[ ClassName: android.widget.FrameLayout; Text: []; ContentDescription: null; ItemCount: -1; CurrentItemIndex: -1; IsEnabled: true; IsPassword: false; IsChecked: false; IsFullScreen: false; Scrollable: false; BeforeText: null; FromIndex: -1; ToIndex: -1; ScrollX: -1; ScrollY: -1; MaxScrollX: -1; MaxScrollY: -1; AddedCount: -1; RemovedCount: -1; ParcelableData: null ]'
p283
sS'MovementGranularity'
p284
g6
sa(dp285
S'EventTime'
p286
S'7518871'
p287
sg4
L1449715585452L
sS'recordCount'
p288
g6
sS'EventType'
p289
S'TYPE_VIEW_CLICKED'
p290
sS'PackageName'
p291
S'com.example.myfristandroid'
p292
sS'OutBounds'
p293
S'Rect(138, 481 - 344, 553)'
p294
sS'Action'
p295
S'[ ClassName: android.widget.Button; Text: [\xe7\xa1\xae\xe5\xae\x9a]; ContentDescription: null; ItemCount: -1; CurrentItemIndex: -1; IsEnabled: true; IsPassword: false; IsChecked: false; IsFullScreen: false; Scrollable: false; BeforeText: null; FromIndex: -1; ToIndex: -1; ScrollX: -1; ScrollY: -1; MaxScrollX: -1; MaxScrollY: -1; AddedCount: -1; RemovedCount: -1; ParcelableData: null ]'
p296
sS'MovementGranularity'
p297
g6
sa(dp298
S'EventTime'
p299
S'7518928'
p300
sg4
L1449715585541L
sS'recordCount'
p301
g6
sS'EventType'
p302
S'TYPE_WINDOW_STATE_CHANGED'
p303
sS'PackageName'
p304
S'com.example.myfristandroid'
p305
sS'OutBounds'
p306
S'Rect(0, 0 - 480, 854)'
p307
sS'Action'
p308
S'[ ClassName: com.example.myfristandroid.MainActivity; Text: [SE-1800\xe7\xa7\xbb\xe5\x8a\xa8APP]; ContentDescription: null; ItemCount: -1; CurrentItemIndex: -1; IsEnabled: true; IsPassword: false; IsChecked: false; IsFullScreen: true; Scrollable: false; BeforeText: null; FromIndex: -1; ToIndex: -1; ScrollX: -1; ScrollY: -1; MaxScrollX: -1; MaxScrollY: -1; AddedCount: -1; RemovedCount: -1; ParcelableData: null ]'
p309
sS'MovementGranularity'
p310
g6
sa(dp311
S'EventTime'
p312
S'7519820'
p313
sg4
L1449715586399L
sS'recordCount'
p314
g6
sS'EventType'
p315
S'TYPE_VIEW_CLICKED'
p316
sS'PackageName'
p317
S'com.example.myfristandroid'
p318
sS'OutBounds'
p319
S'Rect(188, 121 - 450, 166)'
p320
sS'Action'
p321
S'[ ClassName: android.widget.Button; Text: [\xe7\x82\xb9\xe5\x87\xbb\xe9\x80\x89\xe6\x8b\xa9\xe5\x8e\x82\xe7\xab\x99]; ContentDescription: null; ItemCount: -1; CurrentItemIndex: -1; IsEnabled: true; IsPassword: false; IsChecked: false; IsFullScreen: false; Scrollable: false; BeforeText: null; FromIndex: -1; ToIndex: -1; ScrollX: -1; ScrollY: -1; MaxScrollX: -1; MaxScrollY: -1; AddedCount: -1; RemovedCount: -1; ParcelableData: null ]'
p322
sS'MovementGranularity'
p323
g6
sa(dp324
S'EventTime'
p325
S'7519877'
p326
sg4
L1449715586464L
sS'recordCount'
p327
g6
sS'EventType'
p328
S'TYPE_WINDOW_STATE_CHANGED'
p329
sS'PackageName'
p330
S'com.example.myfristandroid'
p331
sS'OutBounds'
p332
S'Rect(165, 371 - 315, 521)'
p333
sS'Action'
p334
S'[ ClassName: com.example.myfristandroid.CustomProgressDialog; Text: []; ContentDescription: null; ItemCount: -1; CurrentItemIndex: -1; IsEnabled: true; IsPassword: false; IsChecked: false; IsFullScreen: false; Scrollable: false; BeforeText: null; FromIndex: -1; ToIndex: -1; ScrollX: -1; ScrollY: -1; MaxScrollX: -1; MaxScrollY: -1; AddedCount: -1; RemovedCount: -1; ParcelableData: null ]'
p335
sS'MovementGranularity'
p336
g6
sa(dp337
S'EventTime'
p338
S'7519982'
p339
sg4
L1449715586571L
sS'recordCount'
p340
g6
sS'EventType'
p341
S'TYPE_WINDOW_CONTENT_CHANGED'
p342
sS'PackageName'
p343
S'com.example.myfristandroid'
p344
sS'OutBounds'
p345
S'Rect(165, 371 - 315, 521)'
p346
sS'Action'
p347
S'[ ClassName: android.widget.FrameLayout; Text: []; ContentDescription: null; ItemCount: -1; CurrentItemIndex: -1; IsEnabled: true; IsPassword: false; IsChecked: false; IsFullScreen: false; Scrollable: false; BeforeText: null; FromIndex: -1; ToIndex: -1; ScrollX: -1; ScrollY: -1; MaxScrollX: -1; MaxScrollY: -1; AddedCount: -1; RemovedCount: -1; ParcelableData: null ]'
p348
sS'MovementGranularity'
p349
g6
sa(dp350
S'EventTime'
p351
S'7520452'
p352
sg4
L1449715587060L
sS'recordCount'
p353
g6
sS'EventType'
p354
S'TYPE_WINDOW_STATE_CHANGED'
p355
sS'PackageName'
p356
S'com.example.myfristandroid'
p357
sS'OutBounds'
p358
S'Rect(0, 0 - 480, 854)'
p359
sS'Action'
p360
S'[ ClassName: com.example.myfristandroid.MainActivity; Text: [SE-1800\xe7\xa7\xbb\xe5\x8a\xa8APP]; ContentDescription: null; ItemCount: -1; CurrentItemIndex: -1; IsEnabled: true; IsPassword: false; IsChecked: false; IsFullScreen: true; Scrollable: false; BeforeText: null; FromIndex: -1; ToIndex: -1; ScrollX: -1; ScrollY: -1; MaxScrollX: -1; MaxScrollY: -1; AddedCount: -1; RemovedCount: -1; ParcelableData: null ]'
p361
sS'MovementGranularity'
p362
g6
sa(dp363
S'EventTime'
p364
S'7520676'
p365
sg4
L1449715587260L
sS'recordCount'
p366
g6
sS'EventType'
p367
S'TYPE_NOTIFICATION_STATE_CHANGED'
p368
sS'PackageName'
p369
S'com.example.myfristandroid'
p370
sS'Action'
p371
S'[ ClassName: android.widget.Toast$TN; Text: [\xe6\x9c\x8d\xe5\x8a\xa1\xe5\x99\xa8\xe5\xbc\x82\xe5\xb8\xb8]; ContentDescription: null; ItemCount: -1; CurrentItemIndex: -1; IsEnabled: false; IsPassword: false; IsChecked: false; IsFullScreen: false; Scrollable: false; BeforeText: null; FromIndex: -1; ToIndex: -1; ScrollX: -1; ScrollY: -1; MaxScrollX: -1; MaxScrollY: -1; AddedCount: -1; RemovedCount: -1; ParcelableData: null ]'
p372
sS'MovementGranularity'
p373
g6
sa(dp374
S'EventTime'
p375
S'7559358'
p376
sg4
L1449715625938L
sS'recordCount'
p377
g6
sS'EventType'
p378
S'TYPE_VIEW_CLICKED'
p379
sS'PackageName'
p380
S'com.example.myfristandroid'
p381
sS'OutBounds'
p382
S'Rect(120, 771 - 240, 854)'
p383
sS'Action'
p384
S'[ ClassName: android.widget.LinearLayout; Text: [\xe6\x9f\xa5\xe7\x9c\x8b\xe5\xae\x9e\xe6\x97\xb6\xe6\x95\xb0\xe6\x8d\xae\xe4\xbf\xa1\xe6\x81\xaf, \xe6\x95\xb0\xe6\x8d\xae]; ContentDescription: null; ItemCount: -1; CurrentItemIndex: -1; IsEnabled: true; IsPassword: false; IsChecked: false; IsFullScreen: false; Scrollable: false; BeforeText: null; FromIndex: -1; ToIndex: -1; ScrollX: -1; ScrollY: -1; MaxScrollX: -1; MaxScrollY: -1; AddedCount: -1; RemovedCount: -1; ParcelableData: null ]'
p385
sS'MovementGranularity'
p386
g6
sa(dp387
S'EventTime'
p388
S'7559473'
p389
sg4
L1449715626077L
sS'recordCount'
p390
g6
sS'EventType'
p391
S'TYPE_WINDOW_CONTENT_CHANGED'
p392
sS'PackageName'
p393
S'com.example.myfristandroid'
p394
sS'OutBounds'
p395
S'Rect(0, 0 - 480, 854)'
p396
sS'Action'
p397
S'[ ClassName: android.widget.FrameLayout; Text: []; ContentDescription: null; ItemCount: -1; CurrentItemIndex: -1; IsEnabled: true; IsPassword: false; IsChecked: false; IsFullScreen: false; Scrollable: false; BeforeText: null; FromIndex: -1; ToIndex: -1; ScrollX: -1; ScrollY: -1; MaxScrollX: -1; MaxScrollY: -1; AddedCount: -1; RemovedCount: -1; ParcelableData: null ]'
p398
sS'MovementGranularity'
p399
g6
sa(dp400
S'EventTime'
p401
S'7560354'
p402
sg4
L1449715626933L
sS'recordCount'
p403
g6
sS'EventType'
p404
S'TYPE_VIEW_CLICKED'
p405
sS'PackageName'
p406
S'com.example.myfristandroid'
p407
sS'OutBounds'
p408
S'Rect(120, 771 - 240, 854)'
p409
sS'Action'
p410
S'[ ClassName: android.widget.LinearLayout; Text: [\xe6\x9f\xa5\xe7\x9c\x8b\xe5\xae\x9e\xe6\x97\xb6\xe6\x95\xb0\xe6\x8d\xae\xe4\xbf\xa1\xe6\x81\xaf, \xe6\x95\xb0\xe6\x8d\xae]; ContentDescription: null; ItemCount: -1; CurrentItemIndex: -1; IsEnabled: true; IsPassword: false; IsChecked: false; IsFullScreen: false; Scrollable: false; BeforeText: null; FromIndex: -1; ToIndex: -1; ScrollX: -1; ScrollY: -1; MaxScrollX: -1; MaxScrollY: -1; AddedCount: -1; RemovedCount: -1; ParcelableData: null ]'
p411
sS'MovementGranularity'
p412
g6
sa(dp413
S'EventTime'
p414
S'7560460'
p415
sg4
L1449715627067L
sS'recordCount'
p416
g6
sS'EventType'
p417
S'TYPE_WINDOW_CONTENT_CHANGED'
p418
sS'PackageName'
p419
S'com.example.myfristandroid'
p420
sS'OutBounds'
p421
S'Rect(0, 0 - 480, 854)'
p422
sS'Action'
p423
S'[ ClassName: android.widget.FrameLayout; Text: []; ContentDescription: null; ItemCount: -1; CurrentItemIndex: -1; IsEnabled: true; IsPassword: false; IsChecked: false; IsFullScreen: false; Scrollable: false; BeforeText: null; FromIndex: -1; ToIndex: -1; ScrollX: -1; ScrollY: -1; MaxScrollX: -1; MaxScrollY: -1; AddedCount: -1; RemovedCount: -1; ParcelableData: null ]'
p424
sS'MovementGranularity'
p425
g6
sa(dp426
S'EventTime'
p427
S'7560707'
p428
sg4
L1449715627286L
sS'recordCount'
p429
g6
sS'EventType'
p430
S'TYPE_VIEW_CLICKED'
p431
sS'PackageName'
p432
S'com.example.myfristandroid'
p433
sS'OutBounds'
p434
S'Rect(240, 771 - 360, 854)'
p435
sS'Action'
p436
S'[ ClassName: android.widget.LinearLayout; Text: [\xe6\x9f\xa5\xe7\x9c\x8b\xe5\xae\x9e\xe6\x97\xb6\xe5\x91\x8a\xe8\xad\xa6\xe4\xbf\xa1\xe6\x81\xaf, \xe5\x91\x8a\xe8\xad\xa6]; ContentDescription: null; ItemCount: -1; CurrentItemIndex: -1; IsEnabled: true; IsPassword: false; IsChecked: false; IsFullScreen: false; Scrollable: false; BeforeText: null; FromIndex: -1; ToIndex: -1; ScrollX: -1; ScrollY: -1; MaxScrollX: -1; MaxScrollY: -1; AddedCount: -1; RemovedCount: -1; ParcelableData: null ]'
p437
sS'MovementGranularity'
p438
g6
sa(dp439
S'EventTime'
p440
S'7560726'
p441
sg4
L1449715627330L
sS'recordCount'
p442
g6
sS'EventType'
p443
S'TYPE_VIEW_FOCUSED'
p444
sS'PackageName'
p445
S'com.example.myfristandroid'
p446
sS'OutBounds'
p447
S'Rect(19, 189 - 489, 234)'
p448
sS'Action'
p449
S'[ ClassName: android.widget.EditText; Text: [\xe6\x90\x9c\xe7\xb4\xa2]; ContentDescription: null; ItemCount: 8; CurrentItemIndex: 2; IsEnabled: true; IsPassword: false; IsChecked: false; IsFullScreen: false; Scrollable: false; BeforeText: null; FromIndex: -1; ToIndex: -1; ScrollX: -1; ScrollY: -1; MaxScrollX: -1; MaxScrollY: -1; AddedCount: -1; RemovedCount: -1; ParcelableData: null ]'
p450
sS'MovementGranularity'
p451
g6
sa(dp452
S'EventTime'
p453
S'7560833'
p454
sg4
L1449715627433L
sS'recordCount'
p455
g6
sS'EventType'
p456
S'TYPE_WINDOW_CONTENT_CHANGED'
p457
sS'PackageName'
p458
S'com.example.myfristandroid'
p459
sS'OutBounds'
p460
S'Rect(0, 0 - 480, 854)'
p461
sS'Action'
p462
S'[ ClassName: android.widget.FrameLayout; Text: []; ContentDescription: null; ItemCount: -1; CurrentItemIndex: -1; IsEnabled: true; IsPassword: false; IsChecked: false; IsFullScreen: false; Scrollable: false; BeforeText: null; FromIndex: -1; ToIndex: -1; ScrollX: -1; ScrollY: -1; MaxScrollX: -1; MaxScrollY: -1; AddedCount: -1; RemovedCount: -1; ParcelableData: null ]'
p463
sS'MovementGranularity'
p464
g6
sa(dp465
S'EventTime'
p466
S'7560856'
p467
sg4
L1449715627453L
sS'recordCount'
p468
g6
sS'EventType'
p469
S'TYPE_VIEW_SCROLLED'
p470
sS'PackageName'
p471
S'com.example.myfristandroid'
p472
sS'OutBounds'
p473
S'Rect(0, 106 - 480, 771)'
p474
sS'Action'
p475
S'[ ClassName: android.support.v4.view.ViewPager; Text: []; ContentDescription: null; ItemCount: -1; CurrentItemIndex: -1; IsEnabled: true; IsPassword: false; IsChecked: false; IsFullScreen: false; Scrollable: false; BeforeText: null; FromIndex: -1; ToIndex: -1; ScrollX: -1; ScrollY: -1; MaxScrollX: -1; MaxScrollY: -1; AddedCount: -1; RemovedCount: -1; ParcelableData: null ]'
p476
sS'MovementGranularity'
p477
g6
sa(dp478
S'EventTime'
p479
S'7560976'
p480
sg4
L1449715627571L
sS'recordCount'
p481
g6
sS'EventType'
p482
S'TYPE_VIEW_SCROLLED'
p483
sS'PackageName'
p484
S'com.example.myfristandroid'
p485
sS'OutBounds'
p486
S'Rect(0, 106 - 480, 771)'
p487
sS'Action'
p488
S'[ ClassName: android.support.v4.view.ViewPager; Text: []; ContentDescription: null; ItemCount: -1; CurrentItemIndex: -1; IsEnabled: true; IsPassword: false; IsChecked: false; IsFullScreen: false; Scrollable: false; BeforeText: null; FromIndex: -1; ToIndex: -1; ScrollX: -1; ScrollY: -1; MaxScrollX: -1; MaxScrollY: -1; AddedCount: -1; RemovedCount: -1; ParcelableData: null ]'
p489
sS'MovementGranularity'
p490
g6
sa(dp491
S'EventTime'
p492
S'7563822'
p493
sg4
L1449715630401L
sS'recordCount'
p494
g6
sS'EventType'
p495
S'TYPE_VIEW_CLICKED'
p496
sS'PackageName'
p497
S'com.example.myfristandroid'
p498
sS'OutBounds'
p499
S'Rect(52, 129 - 232, 173)'
p500
sS'Action'
p501
S'[ ClassName: android.widget.Button; Text: [\xe5\xae\x9e\xe6\x97\xb6]; ContentDescription: null; ItemCount: -1; CurrentItemIndex: -1; IsEnabled: true; IsPassword: false; IsChecked: false; IsFullScreen: false; Scrollable: false; BeforeText: null; FromIndex: -1; ToIndex: -1; ScrollX: -1; ScrollY: -1; MaxScrollX: -1; MaxScrollY: -1; AddedCount: -1; RemovedCount: -1; ParcelableData: null ]'
p502
sS'MovementGranularity'
p503
g6
sa(dp504
S'EventTime'
p505
S'7563941'
p506
sg4
L1449715630559L
sS'recordCount'
p507
g6
sS'EventType'
p508
S'TYPE_WINDOW_CONTENT_CHANGED'
p509
sS'PackageName'
p510
S'com.example.myfristandroid'
p511
sS'OutBounds'
p512
S'Rect(0, 0 - 480, 854)'
p513
sS'Action'
p514
S'[ ClassName: android.widget.FrameLayout; Text: []; ContentDescription: null; ItemCount: -1; CurrentItemIndex: -1; IsEnabled: true; IsPassword: false; IsChecked: false; IsFullScreen: false; Scrollable: false; BeforeText: null; FromIndex: -1; ToIndex: -1; ScrollX: -1; ScrollY: -1; MaxScrollX: -1; MaxScrollY: -1; AddedCount: -1; RemovedCount: -1; ParcelableData: null ]'
p515
sS'MovementGranularity'
p516
g6
sa(dp517
S'EventTime'
p518
S'7564596'
p519
sg4
L1449715631176L
sS'recordCount'
p520
g6
sS'EventType'
p521
S'TYPE_VIEW_CLICKED'
p522
sS'PackageName'
p523
S'com.example.myfristandroid'
p524
sS'OutBounds'
p525
S'Rect(248, 129 - 428, 173)'
p526
sS'Action'
p527
S'[ ClassName: android.widget.Button; Text: [\xe5\x8e\x86\xe5\x8f\xb2]; ContentDescription: null; ItemCount: -1; CurrentItemIndex: -1; IsEnabled: true; IsPassword: false; IsChecked: false; IsFullScreen: false; Scrollable: false; BeforeText: null; FromIndex: -1; ToIndex: -1; ScrollX: -1; ScrollY: -1; MaxScrollX: -1; MaxScrollY: -1; AddedCount: -1; RemovedCount: -1; ParcelableData: null ]'
p528
sS'MovementGranularity'
p529
g6
sa(dp530
S'EventTime'
p531
S'7564745'
p532
sg4
L1449715631333L
sS'recordCount'
p533
g6
sS'EventType'
p534
S'TYPE_VIEW_FOCUSED'
p535
sS'PackageName'
p536
S'com.example.myfristandroid'
p537
sS'OutBounds'
p538
S'Rect(67, 303 - 163, 573)'
p539
sS'Action'
p540
S'[ ClassName: android.widget.NumberPicker; Text: [2015]; ContentDescription: null; ItemCount: 8; CurrentItemIndex: 1; IsEnabled: true; IsPassword: false; IsChecked: false; IsFullScreen: false; Scrollable: true; BeforeText: null; FromIndex: -1; ToIndex: -1; ScrollX: -1; ScrollY: 352350; MaxScrollX: -1; MaxScrollY: 18000; AddedCount: -1; RemovedCount: -1; ParcelableData: null ]'
p541
sS'MovementGranularity'
p542
g6
sa(dp543
S'EventTime'
p544
S'7564759'
p545
sg4
L1449715631349L
sS'recordCount'
p546
g6
sS'EventType'
p547
S'TYPE_WINDOW_STATE_CHANGED'
p548
sS'PackageName'
p549
S'com.example.myfristandroid'
p550
sS'OutBounds'
p551
S'Rect(0, 0 - 480, 854)'
p552
sS'Action'
p553
S'[ ClassName: com.example.myfristandroid.HuzAlertDialog; Text: [2015-12-10, 2015 \xe5\xb9\xb4 12 \xe6\x9c\x88 10 \xe6\x97\xa5]; ContentDescription: null; ItemCount: -1; CurrentItemIndex: -1; IsEnabled: true; IsPassword: false; IsChecked: false; IsFullScreen: true; Scrollable: false; BeforeText: null; FromIndex: -1; ToIndex: -1; ScrollX: -1; ScrollY: -1; MaxScrollX: -1; MaxScrollY: -1; AddedCount: -1; RemovedCount: -1; ParcelableData: null ]'
p554
sS'MovementGranularity'
p555
g6
sa(dp556
S'EventTime'
p557
S'7564761'
p558
sg4
L1449715631353L
sS'recordCount'
p559
g6
sS'EventType'
p560
S'TYPE_VIEW_TEXT_SELECTION_CHANGED'
p561
sS'PackageName'
p562
S'com.example.myfristandroid'
p563
sS'OutBounds'
p564
S'Rect(199, 419 - 295, 456)'
p565
sS'Action'
p566
S'[ ClassName: android.widget.EditText; Text: [12 \xe6\x9c\x88]; ContentDescription: null; ItemCount: 4; CurrentItemIndex: -1; IsEnabled: true; IsPassword: false; IsChecked: false; IsFullScreen: false; Scrollable: false; BeforeText: null; FromIndex: 4; ToIndex: 4; ScrollX: -1; ScrollY: -1; MaxScrollX: -1; MaxScrollY: -1; AddedCount: -1; RemovedCount: -1; ParcelableData: null ]'
p567
sS'MovementGranularity'
p568
g6
sa(dp569
S'EventTime'
p570
S'7564800'
p571
sg4
L1449715631387L
sS'recordCount'
p572
g6
sS'EventType'
p573
S'TYPE_WINDOW_CONTENT_CHANGED'
p574
sS'PackageName'
p575
S'com.example.myfristandroid'
p576
sS'OutBounds'
p577
S'Rect(0, 0 - 480, 854)'
p578
sS'Action'
p579
S'[ ClassName: android.widget.FrameLayout; Text: []; ContentDescription: null; ItemCount: -1; CurrentItemIndex: -1; IsEnabled: true; IsPassword: false; IsChecked: false; IsFullScreen: false; Scrollable: false; BeforeText: null; FromIndex: -1; ToIndex: -1; ScrollX: -1; ScrollY: -1; MaxScrollX: -1; MaxScrollY: -1; AddedCount: -1; RemovedCount: -1; ParcelableData: null ]'
p580
sS'MovementGranularity'
p581
g6
sa(dp582
S'EventTime'
p583
S'7564935'
p584
sg4
L1449715631521L
sS'recordCount'
p585
g6
sS'EventType'
p586
S'TYPE_WINDOW_CONTENT_CHANGED'
p587
sS'PackageName'
p588
S'com.example.myfristandroid'
p589
sS'OutBounds'
p590
S'Rect(0, 0 - 480, 854)'
p591
sS'Action'
p592
S'[ ClassName: android.widget.FrameLayout; Text: []; ContentDescription: null; ItemCount: -1; CurrentItemIndex: -1; IsEnabled: true; IsPassword: false; IsChecked: false; IsFullScreen: false; Scrollable: false; BeforeText: null; FromIndex: -1; ToIndex: -1; ScrollX: -1; ScrollY: -1; MaxScrollX: -1; MaxScrollY: -1; AddedCount: -1; RemovedCount: -1; ParcelableData: null ]'
p593
sS'MovementGranularity'
p594
g6
sa(dp595
S'EventTime'
p596
S'7568954'
p597
sg4
L1449715635534L
sS'recordCount'
p598
g6
sS'EventType'
p599
S'TYPE_VIEW_CLICKED'
p600
sS'PackageName'
p601
S'com.example.myfristandroid'
p602
sS'OutBounds'
p603
S'Rect(249, 611 - 448, 683)'
p604
sS'Action'
p605
S'[ ClassName: android.widget.Button; Text: [\xe5\x8f\x96\xe6\xb6\x88]; ContentDescription: null; ItemCount: -1; CurrentItemIndex: -1; IsEnabled: true; IsPassword: false; IsChecked: false; IsFullScreen: false; Scrollable: false; BeforeText: null; FromIndex: -1; ToIndex: -1; ScrollX: -1; ScrollY: -1; MaxScrollX: -1; MaxScrollY: -1; AddedCount: -1; RemovedCount: -1; ParcelableData: null ]'
p606
sS'MovementGranularity'
p607
g6
sa(dp608
S'EventTime'
p609
S'7569015'
p610
sg4
L1449715635610L
sS'recordCount'
p611
g6
sS'EventType'
p612
S'TYPE_WINDOW_STATE_CHANGED'
p613
sS'PackageName'
p614
S'com.example.myfristandroid'
p615
sS'OutBounds'
p616
S'Rect(0, 0 - 480, 854)'
p617
sS'Action'
p618
S'[ ClassName: com.example.myfristandroid.MainActivity; Text: [SE-1800\xe7\xa7\xbb\xe5\x8a\xa8APP]; ContentDescription: null; ItemCount: -1; CurrentItemIndex: -1; IsEnabled: true; IsPassword: false; IsChecked: false; IsFullScreen: true; Scrollable: false; BeforeText: null; FromIndex: -1; ToIndex: -1; ScrollX: -1; ScrollY: -1; MaxScrollX: -1; MaxScrollY: -1; AddedCount: -1; RemovedCount: -1; ParcelableData: null ]'
p619
sS'MovementGranularity'
p620
g6
sa(dp621
S'EventTime'
p622
S'7569112'
p623
sg4
L1449715635708L
sS'recordCount'
p624
g6
sS'EventType'
p625
S'TYPE_WINDOW_CONTENT_CHANGED'
p626
sS'PackageName'
p627
S'com.example.myfristandroid'
p628
sS'OutBounds'
p629
S'Rect(0, 0 - 480, 854)'
p630
sS'Action'
p631
S'[ ClassName: android.widget.FrameLayout; Text: []; ContentDescription: null; ItemCount: -1; CurrentItemIndex: -1; IsEnabled: true; IsPassword: false; IsChecked: false; IsFullScreen: false; Scrollable: false; BeforeText: null; FromIndex: -1; ToIndex: -1; ScrollX: -1; ScrollY: -1; MaxScrollX: -1; MaxScrollY: -1; AddedCount: -1; RemovedCount: -1; ParcelableData: null ]'
p632
sS'MovementGranularity'
p633
g6
sa(dp634
S'EventTime'
p635
S'7569974'
p636
sg4
L1449715636556L
sS'recordCount'
p637
g6
sS'EventType'
p638
S'TYPE_VIEW_CLICKED'
p639
sS'PackageName'
p640
S'com.example.myfristandroid'
p641
sS'OutBounds'
p642
S'Rect(360, 771 - 480, 854)'
p643
sS'Action'
p644
S'[ ClassName: android.widget.LinearLayout; Text: [\xe8\xae\xbe\xe7\xbd\xae\xe7\xb3\xbb\xe7\xbb\x9f\xe8\xbf\x90\xe8\xa1\x8c\xe5\x8f\x82\xe6\x95\xb0, \xe8\xae\xbe\xe7\xbd\xae]; ContentDescription: null; ItemCount: -1; CurrentItemIndex: -1; IsEnabled: true; IsPassword: false; IsChecked: false; IsFullScreen: false; Scrollable: false; BeforeText: null; FromIndex: -1; ToIndex: -1; ScrollX: -1; ScrollY: -1; MaxScrollX: -1; MaxScrollY: -1; AddedCount: -1; RemovedCount: -1; ParcelableData: null ]'
p645
sS'MovementGranularity'
p646
g6
sa(dp647
S'EventTime'
p648
S'7569978'
p649
sg4
L1449715636576L
sS'recordCount'
p650
g6
sS'EventType'
p651
S'TYPE_VIEW_FOCUSED'
p652
sS'PackageName'
p653
S'com.example.myfristandroid'
p654
sS'OutBounds'
p655
S'Rect(165, 114 - 486, 159)'
p656
sS'Action'
p657
S'[ ClassName: android.widget.EditText; Text: [\xe6\x9c\x8d\xe5\x8a\xa1\xe5\x99\xa8\xe5\x9c\xb0\xe5\x9d\x80]; ContentDescription: null; ItemCount: 10; CurrentItemIndex: 0; IsEnabled: true; IsPassword: false; IsChecked: false; IsFullScreen: false; Scrollable: false; BeforeText: null; FromIndex: -1; ToIndex: -1; ScrollX: -1; ScrollY: -1; MaxScrollX: -1; MaxScrollY: -1; AddedCount: -1; RemovedCount: -1; ParcelableData: null ]'
p658
sS'MovementGranularity'
p659
g6
sa(dp660
S'EventTime'
p661
S'7569999'
p662
sg4
L1449715636594L
sS'recordCount'
p663
g6
sS'EventType'
p664
S'TYPE_VIEW_TEXT_SELECTION_CHANGED'
p665
sS'PackageName'
p666
S'com.example.myfristandroid'
p667
sS'OutBounds'
p668
S'Rect(155, 167 - 476, 212)'
p669
sS'Action'
p670
S'[ ClassName: android.widget.EditText; Text: [143]; ContentDescription: null; ItemCount: 3; CurrentItemIndex: -1; IsEnabled: true; IsPassword: false; IsChecked: false; IsFullScreen: false; Scrollable: false; BeforeText: null; FromIndex: 0; ToIndex: 0; ScrollX: -1; ScrollY: -1; MaxScrollX: -1; MaxScrollY: -1; AddedCount: -1; RemovedCount: -1; ParcelableData: null ]'
p671
sS'MovementGranularity'
p672
g6
sa(dp673
S'EventTime'
p674
S'7570088'
p675
sg4
L1449715636693L
sS'recordCount'
p676
g6
sS'EventType'
p677
S'TYPE_WINDOW_CONTENT_CHANGED'
p678
sS'PackageName'
p679
S'com.example.myfristandroid'
p680
sS'OutBounds'
p681
S'Rect(0, 0 - 480, 854)'
p682
sS'Action'
p683
S'[ ClassName: android.widget.FrameLayout; Text: []; ContentDescription: null; ItemCount: -1; CurrentItemIndex: -1; IsEnabled: true; IsPassword: false; IsChecked: false; IsFullScreen: false; Scrollable: false; BeforeText: null; FromIndex: -1; ToIndex: -1; ScrollX: -1; ScrollY: -1; MaxScrollX: -1; MaxScrollY: -1; AddedCount: -1; RemovedCount: -1; ParcelableData: null ]'
p684
sS'MovementGranularity'
p685
g6
sa(dp686
S'EventTime'
p687
S'7570120'
p688
sg4
L1449715636712L
sS'recordCount'
p689
g6
sS'EventType'
p690
S'TYPE_VIEW_SCROLLED'
p691
sS'PackageName'
p692
S'com.example.myfristandroid'
p693
sS'OutBounds'
p694
S'Rect(0, 106 - 480, 771)'
p695
sS'Action'
p696
S'[ ClassName: android.support.v4.view.ViewPager; Text: []; ContentDescription: null; ItemCount: -1; CurrentItemIndex: -1; IsEnabled: true; IsPassword: false; IsChecked: false; IsFullScreen: false; Scrollable: false; BeforeText: null; FromIndex: -1; ToIndex: -1; ScrollX: -1; ScrollY: -1; MaxScrollX: -1; MaxScrollY: -1; AddedCount: -1; RemovedCount: -1; ParcelableData: null ]'
p697
sS'MovementGranularity'
p698
g6
sa(dp699
S'EventTime'
p700
S'7570224'
p701
sg4
L1449715636812L
sS'recordCount'
p702
g6
sS'EventType'
p703
S'TYPE_VIEW_SCROLLED'
p704
sS'PackageName'
p705
S'com.example.myfristandroid'
p706
sS'OutBounds'
p707
S'Rect(0, 106 - 480, 771)'
p708
sS'Action'
p709
S'[ ClassName: android.support.v4.view.ViewPager; Text: []; ContentDescription: null; ItemCount: -1; CurrentItemIndex: -1; IsEnabled: true; IsPassword: false; IsChecked: false; IsFullScreen: false; Scrollable: false; BeforeText: null; FromIndex: -1; ToIndex: -1; ScrollX: -1; ScrollY: -1; MaxScrollX: -1; MaxScrollY: -1; AddedCount: -1; RemovedCount: -1; ParcelableData: null ]'
p710
sS'MovementGranularity'
p711
g6
sa(dp712
S'EventTime'
p713
S'7576957'
p714
sg4
L1449715643543L
sS'recordCount'
p715
g6
sS'EventType'
p716
S'TYPE_WINDOW_STATE_CHANGED'
p717
sS'PackageName'
p718
S'com.example.myfristandroid'
p719
sS'OutBounds'
p720
S'Rect(0, 0 - 480, 854)'
p721
sS'Action'
p722
S'[ ClassName: com.example.myfristandroid.HuzAlertDialog; Text: [\xe9\x80\x80\xe5\x87\xba, \xe7\xa1\xae\xe5\xae\x9a\xe9\x80\x80\xe5\x87\xba\xe7\xb3\xbb\xe7\xbb\x9f\xe5\x90\x97\xef\xbc\x9f, \xe5\x90\x8e\xe5\x8f\xb0\xe8\xbf\x90\xe8\xa1\x8c, \xe9\x80\x80\xe5\x87\xba]; ContentDescription: null; ItemCount: -1; CurrentItemIndex: -1; IsEnabled: true; IsPassword: false; IsChecked: false; IsFullScreen: true; Scrollable: false; BeforeText: null; FromIndex: -1; ToIndex: -1; ScrollX: -1; ScrollY: -1; MaxScrollX: -1; MaxScrollY: -1; AddedCount: -1; RemovedCount: -1; ParcelableData: null ]'
p723
sS'MovementGranularity'
p724
g6
sa(dp725
S'EventTime'
p726
S'7577018'
p727
sg4
L1449715643601L
sS'recordCount'
p728
g6
sS'EventType'
p729
S'TYPE_WINDOW_CONTENT_CHANGED'
p730
sS'PackageName'
p731
S'com.example.myfristandroid'
p732
sS'OutBounds'
p733
S'Rect(0, 0 - 480, 854)'
p734
sS'Action'
p735
S'[ ClassName: android.widget.FrameLayout; Text: []; ContentDescription: null; ItemCount: -1; CurrentItemIndex: -1; IsEnabled: true; IsPassword: false; IsChecked: false; IsFullScreen: false; Scrollable: false; BeforeText: null; FromIndex: -1; ToIndex: -1; ScrollX: -1; ScrollY: -1; MaxScrollX: -1; MaxScrollY: -1; AddedCount: -1; RemovedCount: -1; ParcelableData: null ]'
p736
sS'MovementGranularity'
p737
g6
sa(dp738
S'EventTime'
p739
S'7580637'
p740
sg4
L1449715647220L
sS'recordCount'
p741
g6
sS'EventType'
p742
S'TYPE_NOTIFICATION_STATE_CHANGED'
p743
sS'PackageName'
p744
S'com.example.myfristandroid'
p745
sS'Action'
p746
S'[ ClassName: android.widget.Toast$TN; Text: [\xe6\x9c\x8d\xe5\x8a\xa1\xe5\x99\xa8\xe5\xbc\x82\xe5\xb8\xb8]; ContentDescription: null; ItemCount: -1; CurrentItemIndex: -1; IsEnabled: false; IsPassword: false; IsChecked: false; IsFullScreen: false; Scrollable: false; BeforeText: null; FromIndex: -1; ToIndex: -1; ScrollX: -1; ScrollY: -1; MaxScrollX: -1; MaxScrollY: -1; AddedCount: -1; RemovedCount: -1; ParcelableData: null ]'
p747
sS'MovementGranularity'
p748
g6
sa(dp749
S'EventTime'
p750
S'7588686'
p751
sg4
L1449715655320L
sS'recordCount'
p752
g6
sS'EventType'
p753
S'TYPE_WINDOW_STATE_CHANGED'
p754
sS'PackageName'
p755
S'com.example.myfristandroid'
p756
sS'OutBounds'
p757
S'Rect(0, 0 - 480, 854)'
p758
sS'Action'
p759
S'[ ClassName: com.example.myfristandroid.MainActivity; Text: [SE-1800\xe7\xa7\xbb\xe5\x8a\xa8APP]; ContentDescription: null; ItemCount: -1; CurrentItemIndex: -1; IsEnabled: true; IsPassword: false; IsChecked: false; IsFullScreen: true; Scrollable: false; BeforeText: null; FromIndex: -1; ToIndex: -1; ScrollX: -1; ScrollY: -1; MaxScrollX: -1; MaxScrollY: -1; AddedCount: -1; RemovedCount: -1; ParcelableData: null ]'
p760
sS'MovementGranularity'
p761
g6
sa(dp762
S'EventTime'
p763
S'7590049'
p764
sg4
L1449715656702L
sS'recordCount'
p765
g6
sS'EventType'
p766
S'TYPE_VIEW_TEXT_SELECTION_CHANGED'
p767
sS'PackageName'
p768
S'com.example.myfristandroid'
p769
sS'OutBounds'
p770
S'Rect(151, 273 - 472, 318)'
p771
sS'Action'
p772
S'[ ClassName: android.widget.EditText; Text: [\xe7\xb3\xbb\xe7\xbb\x9f\xe7\xae\xa1\xe7\x90\x86\xe5\x91\x98]; ContentDescription: null; ItemCount: 5; CurrentItemIndex: -1; IsEnabled: true; IsPassword: false; IsChecked: false; IsFullScreen: false; Scrollable: false; BeforeText: null; FromIndex: 5; ToIndex: 5; ScrollX: -1; ScrollY: -1; MaxScrollX: -1; MaxScrollY: -1; AddedCount: -1; RemovedCount: -1; ParcelableData: null ]'
p773
sS'MovementGranularity'
p774
g6
sa(dp775
S'EventTime'
p776
S'7590054'
p777
sg4
L1449715656838L
sS'recordCount'
p778
g6
sS'EventType'
p779
S'TYPE_VIEW_FOCUSED'
p780
sS'PackageName'
p781
S'com.example.myfristandroid'
p782
sS'OutBounds'
p783
S'Rect(151, 273 - 472, 318)'
p784
sS'Action'
p785
S'[ ClassName: android.widget.EditText; Text: [\xe7\xb3\xbb\xe7\xbb\x9f\xe7\xae\xa1\xe7\x90\x86\xe5\x91\x98]; ContentDescription: null; ItemCount: 10; CurrentItemIndex: 3; IsEnabled: true; IsPassword: false; IsChecked: false; IsFullScreen: false; Scrollable: false; BeforeText: null; FromIndex: -1; ToIndex: -1; ScrollX: -1; ScrollY: -1; MaxScrollX: -1; MaxScrollY: -1; AddedCount: -1; RemovedCount: -1; ParcelableData: null ]'
p786
sS'MovementGranularity'
p787
g6
sa(dp788
S'EventTime'
p789
S'7590452'
p790
sg4
L1449715657059L
sS'recordCount'
p791
g6
sS'EventType'
p792
S'TYPE_WINDOW_CONTENT_CHANGED'
p793
sS'PackageName'
p794
S'com.example.myfristandroid'
p795
sS'OutBounds'
p796
S'Rect(0, 0 - 480, 854)'
p797
sS'Action'
p798
S'[ ClassName: android.widget.FrameLayout; Text: []; ContentDescription: null; ItemCount: -1; CurrentItemIndex: -1; IsEnabled: true; IsPassword: false; IsChecked: false; IsFullScreen: false; Scrollable: false; BeforeText: null; FromIndex: -1; ToIndex: -1; ScrollX: -1; ScrollY: -1; MaxScrollX: -1; MaxScrollY: -1; AddedCount: -1; RemovedCount: -1; ParcelableData: null ]'
p799
sS'MovementGranularity'
p800
g6
sa(dp801
S'EventTime'
p802
S'7593207'
p803
sg4
L1449715659802L
sS'recordCount'
p804
g6
sS'EventType'
p805
S'TYPE_WINDOW_CONTENT_CHANGED'
p806
sS'PackageName'
p807
S'com.example.myfristandroid'
p808
sS'OutBounds'
p809
S'Rect(0, 0 - 480, 854)'
p810
sS'Action'
p811
S'[ ClassName: android.widget.FrameLayout; Text: []; ContentDescription: null; ItemCount: -1; CurrentItemIndex: -1; IsEnabled: true; IsPassword: false; IsChecked: false; IsFullScreen: false; Scrollable: false; BeforeText: null; FromIndex: -1; ToIndex: -1; ScrollX: -1; ScrollY: -1; MaxScrollX: -1; MaxScrollY: -1; AddedCount: -1; RemovedCount: -1; ParcelableData: null ]'
p812
sS'MovementGranularity'
p813
g6
sa(dp814
S'EventTime'
p815
S'7593989'
p816
sg4
L1449715660568L
sS'recordCount'
p817
g6
sS'EventType'
p818
S'TYPE_VIEW_CLICKED'
p819
sS'PackageName'
p820
S'com.example.myfristandroid'
p821
sS'OutBounds'
p822
S'Rect(135, 379 - 345, 424)'
p823
sS'Action'
p824
S'[ ClassName: android.widget.Button; Text: [\xe7\x99\xbb\xe5\xbd\x95]; ContentDescription: null; ItemCount: -1; CurrentItemIndex: -1; IsEnabled: true; IsPassword: false; IsChecked: false; IsFullScreen: false; Scrollable: false; BeforeText: null; FromIndex: -1; ToIndex: -1; ScrollX: -1; ScrollY: -1; MaxScrollX: -1; MaxScrollY: -1; AddedCount: -1; RemovedCount: -1; ParcelableData: null ]'
p825
sS'MovementGranularity'
p826
g6
sa(dp827
S'EventTime'
p828
S'7594101'
p829
sg4
L1449715661008L
sS'recordCount'
p830
g6
sS'EventType'
p831
S'TYPE_WINDOW_CONTENT_CHANGED'
p832
sS'PackageName'
p833
S'com.example.myfristandroid'
p834
sS'OutBounds'
p835
S'Rect(0, 0 - 480, 854)'
p836
sS'Action'
p837
S'[ ClassName: android.widget.FrameLayout; Text: []; ContentDescription: null; ItemCount: -1; CurrentItemIndex: -1; IsEnabled: true; IsPassword: false; IsChecked: false; IsFullScreen: false; Scrollable: false; BeforeText: null; FromIndex: -1; ToIndex: -1; ScrollX: -1; ScrollY: -1; MaxScrollX: -1; MaxScrollY: -1; AddedCount: -1; RemovedCount: -1; ParcelableData: null ]'
p838
sS'MovementGranularity'
p839
g6
sa(dp840
S'EventTime'
p841
S'7595349'
p842
sg4
L1449715661929L
sS'recordCount'
p843
g6
sS'EventType'
p844
S'TYPE_VIEW_CLICKED'
p845
sS'PackageName'
p846
S'com.example.myfristandroid'
p847
sS'OutBounds'
p848
S'Rect(135, 379 - 345, 424)'
p849
sS'Action'
p850
S'[ ClassName: android.widget.Button; Text: [\xe7\x99\xbb\xe5\xbd\x95]; ContentDescription: null; ItemCount: -1; CurrentItemIndex: -1; IsEnabled: true; IsPassword: false; IsChecked: false; IsFullScreen: false; Scrollable: false; BeforeText: null; FromIndex: -1; ToIndex: -1; ScrollX: -1; ScrollY: -1; MaxScrollX: -1; MaxScrollY: -1; AddedCount: -1; RemovedCount: -1; ParcelableData: null ]'
p851
sS'MovementGranularity'
p852
g6
sa(dp853
S'EventTime'
p854
S'7595459'
p855
sg4
L1449715662096L
sS'recordCount'
p856
g6
sS'EventType'
p857
S'TYPE_WINDOW_CONTENT_CHANGED'
p858
sS'PackageName'
p859
S'com.example.myfristandroid'
p860
sS'OutBounds'
p861
S'Rect(0, 0 - 480, 854)'
p862
sS'Action'
p863
S'[ ClassName: android.widget.FrameLayout; Text: []; ContentDescription: null; ItemCount: -1; CurrentItemIndex: -1; IsEnabled: true; IsPassword: false; IsChecked: false; IsFullScreen: false; Scrollable: false; BeforeText: null; FromIndex: -1; ToIndex: -1; ScrollX: -1; ScrollY: -1; MaxScrollX: -1; MaxScrollY: -1; AddedCount: -1; RemovedCount: -1; ParcelableData: null ]'
p864
sS'MovementGranularity'
p865
g6
sa(dp866
S'EventTime'
p867
S'7595485'
p868
sg4
L1449715662097L
sS'recordCount'
p869
g6
sS'EventType'
p870
S'TYPE_NOTIFICATION_STATE_CHANGED'
p871
sS'PackageName'
p872
S'com.example.myfristandroid'
p873
sS'Action'
p874
S'[ ClassName: android.widget.Toast$TN; Text: [\xe6\x9c\x8d\xe5\x8a\xa1\xe5\x99\xa8\xe5\xbc\x82\xe5\xb8\xb8]; ContentDescription: null; ItemCount: -1; CurrentItemIndex: -1; IsEnabled: false; IsPassword: false; IsChecked: false; IsFullScreen: false; Scrollable: false; BeforeText: null; FromIndex: -1; ToIndex: -1; ScrollX: -1; ScrollY: -1; MaxScrollX: -1; MaxScrollY: -1; AddedCount: -1; RemovedCount: -1; ParcelableData: null ]'
p875
sS'MovementGranularity'
p876
g6
sa(dp877
S'EventTime'
p878
S'7597488'
p879
sg4
L1449715664083L
sS'recordCount'
p880
g6
sS'EventType'
p881
S'TYPE_VIEW_TEXT_SELECTION_CHANGED'
p882
sS'PackageName'
p883
S'com.example.myfristandroid'
p884
sS'OutBounds'
p885
S'Rect(151, 326 - 472, 371)'
p886
sS'Action'
p887
S'[ ClassName: android.widget.EditText; Text: []; ContentDescription: null; ItemCount: 4; CurrentItemIndex: -1; IsEnabled: true; IsPassword: true; IsChecked: false; IsFullScreen: false; Scrollable: false; BeforeText: null; FromIndex: 4; ToIndex: 4; ScrollX: -1; ScrollY: -1; MaxScrollX: -1; MaxScrollY: -1; AddedCount: -1; RemovedCount: -1; ParcelableData: null ]'
p888
sS'MovementGranularity'
p889
g6
sa(dp890
S'EventTime'
p891
S'7597489'
p892
sg4
L1449715664200L
sS'recordCount'
p893
g6
sS'EventType'
p894
S'TYPE_VIEW_FOCUSED'
p895
sS'PackageName'
p896
S'com.example.myfristandroid'
p897
sS'OutBounds'
p898
S'Rect(151, 326 - 472, 361)'
p899
sS'Action'
p900
S'[ ClassName: android.widget.EditText; Text: []; ContentDescription: null; ItemCount: 10; CurrentItemIndex: 4; IsEnabled: true; IsPassword: true; IsChecked: false; IsFullScreen: false; Scrollable: false; BeforeText: null; FromIndex: -1; ToIndex: -1; ScrollX: -1; ScrollY: -1; MaxScrollX: -1; MaxScrollY: -1; AddedCount: -1; RemovedCount: -1; ParcelableData: null ]'
p901
sS'MovementGranularity'
p902
g6
sa(dp903
S'EventTime'
p904
S'7597815'
p905
sg4
L1449715664425L
sS'recordCount'
p906
g6
sS'EventType'
p907
S'TYPE_WINDOW_CONTENT_CHANGED'
p908
sS'PackageName'
p909
S'com.example.myfristandroid'
p910
sS'OutBounds'
p911
S'Rect(0, 0 - 480, 854)'
p912
sS'Action'
p913
S'[ ClassName: android.widget.FrameLayout; Text: []; ContentDescription: null; ItemCount: -1; CurrentItemIndex: -1; IsEnabled: true; IsPassword: false; IsChecked: false; IsFullScreen: false; Scrollable: false; BeforeText: null; FromIndex: -1; ToIndex: -1; ScrollX: -1; ScrollY: -1; MaxScrollX: -1; MaxScrollY: -1; AddedCount: -1; RemovedCount: -1; ParcelableData: null ]'
p914
sS'MovementGranularity'
p915
g6
sa(dp916
S'EventTime'
p917
S'7598545'
p918
sg4
L1449715665151L
sS'recordCount'
p919
g6
sS'EventType'
p920
S'TYPE_VIEW_TEXT_CHANGED'
p921
sS'PackageName'
p922
S'com.example.myfristandroid'
p923
sS'OutBounds'
p924
S'Rect(151, 326 - 472, 361)'
p925
sS'Action'
p926
S'[ ClassName: android.widget.EditText; Text: []; ContentDescription: null; ItemCount: -1; CurrentItemIndex: -1; IsEnabled: true; IsPassword: true; IsChecked: false; IsFullScreen: false; Scrollable: false; BeforeText: null; FromIndex: 3; ToIndex: -1; ScrollX: -1; ScrollY: -1; MaxScrollX: -1; MaxScrollY: -1; AddedCount: 0; RemovedCount: 1; ParcelableData: null ]'
p927
sS'MovementGranularity'
p928
g6
sa(dp929
S'EventTime'
p930
S'7598548'
p931
sg4
L1449715665181L
sS'recordCount'
p932
g6
sS'EventType'
p933
S'TYPE_VIEW_TEXT_SELECTION_CHANGED'
p934
sS'PackageName'
p935
S'com.example.myfristandroid'
p936
sS'OutBounds'
p937
S'Rect(151, 326 - 472, 361)'
p938
sS'Action'
p939
S'[ ClassName: android.widget.EditText; Text: []; ContentDescription: null; ItemCount: 3; CurrentItemIndex: -1; IsEnabled: true; IsPassword: true; IsChecked: false; IsFullScreen: false; Scrollable: false; BeforeText: null; FromIndex: 3; ToIndex: 3; ScrollX: -1; ScrollY: -1; MaxScrollX: -1; MaxScrollY: -1; AddedCount: -1; RemovedCount: -1; ParcelableData: null ]'
p940
sS'MovementGranularity'
p941
g6
sa(dp942
S'EventTime'
p943
S'7598682'
p944
sg4
L1449715665276L
sS'recordCount'
p945
g6
sS'EventType'
p946
S'TYPE_WINDOW_CONTENT_CHANGED'
p947
sS'PackageName'
p948
S'com.example.myfristandroid'
p949
sS'OutBounds'
p950
S'Rect(0, 0 - 480, 854)'
p951
sS'Action'
p952
S'[ ClassName: android.widget.FrameLayout; Text: []; ContentDescription: null; ItemCount: -1; CurrentItemIndex: -1; IsEnabled: true; IsPassword: false; IsChecked: false; IsFullScreen: false; Scrollable: false; BeforeText: null; FromIndex: -1; ToIndex: -1; ScrollX: -1; ScrollY: -1; MaxScrollX: -1; MaxScrollY: -1; AddedCount: -1; RemovedCount: -1; ParcelableData: null ]'
p953
sS'MovementGranularity'
p954
g6
sa(dp955
S'EventTime'
p956
S'7598706'
p957
sg4
L1449715665309L
sS'recordCount'
p958
g6
sS'EventType'
p959
S'TYPE_VIEW_TEXT_CHANGED'
p960
sS'PackageName'
p961
S'com.example.myfristandroid'
p962
sS'OutBounds'
p963
S'Rect(151, 326 - 472, 361)'
p964
sS'Action'
p965
S'[ ClassName: android.widget.EditText; Text: []; ContentDescription: null; ItemCount: -1; CurrentItemIndex: -1; IsEnabled: true; IsPassword: true; IsChecked: false; IsFullScreen: false; Scrollable: false; BeforeText: null; FromIndex: 2; ToIndex: -1; ScrollX: -1; ScrollY: -1; MaxScrollX: -1; MaxScrollY: -1; AddedCount: 0; RemovedCount: 1; ParcelableData: null ]'
p966
sS'MovementGranularity'
p967
g6
sa(dp968
S'EventTime'
p969
S'7598715'
p970
sg4
L1449715665326L
sS'recordCount'
p971
g6
sS'EventType'
p972
S'TYPE_VIEW_TEXT_SELECTION_CHANGED'
p973
sS'PackageName'
p974
S'com.example.myfristandroid'
p975
sS'OutBounds'
p976
S'Rect(151, 326 - 472, 361)'
p977
sS'Action'
p978
S'[ ClassName: android.widget.EditText; Text: []; ContentDescription: null; ItemCount: 2; CurrentItemIndex: -1; IsEnabled: true; IsPassword: true; IsChecked: false; IsFullScreen: false; Scrollable: false; BeforeText: null; FromIndex: 2; ToIndex: 2; ScrollX: -1; ScrollY: -1; MaxScrollX: -1; MaxScrollY: -1; AddedCount: -1; RemovedCount: -1; ParcelableData: null ]'
p979
sS'MovementGranularity'
p980
g6
sa(dp981
S'EventTime'
p982
S'7598828'
p983
sg4
L1449715665454L
sS'recordCount'
p984
g6
sS'EventType'
p985
S'TYPE_WINDOW_CONTENT_CHANGED'
p986
sS'PackageName'
p987
S'com.example.myfristandroid'
p988
sS'OutBounds'
p989
S'Rect(0, 0 - 480, 854)'
p990
sS'Action'
p991
S'[ ClassName: android.widget.FrameLayout; Text: []; ContentDescription: null; ItemCount: -1; CurrentItemIndex: -1; IsEnabled: true; IsPassword: false; IsChecked: false; IsFullScreen: false; Scrollable: false; BeforeText: null; FromIndex: -1; ToIndex: -1; ScrollX: -1; ScrollY: -1; MaxScrollX: -1; MaxScrollY: -1; AddedCount: -1; RemovedCount: -1; ParcelableData: null ]'
p992
sS'MovementGranularity'
p993
g6
sa(dp994
S'EventTime'
p995
S'7598834'
p996
sg4
L1449715665465L
sS'recordCount'
p997
g6
sS'EventType'
p998
S'TYPE_VIEW_TEXT_CHANGED'
p999
sS'PackageName'
p1000
S'com.example.myfristandroid'
p1001
sS'OutBounds'
p1002
S'Rect(151, 326 - 472, 361)'
p1003
sS'Action'
p1004
S'[ ClassName: android.widget.EditText; Text: []; ContentDescription: null; ItemCount: -1; CurrentItemIndex: -1; IsEnabled: true; IsPassword: true; IsChecked: false; IsFullScreen: false; Scrollable: false; BeforeText: null; FromIndex: 1; ToIndex: -1; ScrollX: -1; ScrollY: -1; MaxScrollX: -1; MaxScrollY: -1; AddedCount: 0; RemovedCount: 1; ParcelableData: null ]'
p1005
sS'MovementGranularity'
p1006
g6
sa(dp1007
S'EventTime'
p1008
S'7598837'
p1009
sg4
L1449715665483L
sS'recordCount'
p1010
g6
sS'EventType'
p1011
S'TYPE_VIEW_TEXT_SELECTION_CHANGED'
p1012
sS'PackageName'
p1013
S'com.example.myfristandroid'
p1014
sS'OutBounds'
p1015
S'Rect(151, 326 - 472, 361)'
p1016
sS'Action'
p1017
S'[ ClassName: android.widget.EditText; Text: []; ContentDescription: null; ItemCount: 1; CurrentItemIndex: -1; IsEnabled: true; IsPassword: true; IsChecked: false; IsFullScreen: false; Scrollable: false; BeforeText: null; FromIndex: 1; ToIndex: 1; ScrollX: -1; ScrollY: -1; MaxScrollX: -1; MaxScrollY: -1; AddedCount: -1; RemovedCount: -1; ParcelableData: null ]'
p1018
sS'MovementGranularity'
p1019
g6
sa(dp1020
S'EventTime'
p1021
S'7598974'
p1022
sg4
L1449715665603L
sS'recordCount'
p1023
g6
sS'EventType'
p1024
S'TYPE_WINDOW_CONTENT_CHANGED'
p1025
sS'PackageName'
p1026
S'com.example.myfristandroid'
p1027
sS'OutBounds'
p1028
S'Rect(0, 0 - 480, 854)'
p1029
sS'Action'
p1030
S'[ ClassName: android.widget.FrameLayout; Text: []; ContentDescription: null; ItemCount: -1; CurrentItemIndex: -1; IsEnabled: true; IsPassword: false; IsChecked: false; IsFullScreen: false; Scrollable: false; BeforeText: null; FromIndex: -1; ToIndex: -1; ScrollX: -1; ScrollY: -1; MaxScrollX: -1; MaxScrollY: -1; AddedCount: -1; RemovedCount: -1; ParcelableData: null ]'
p1031
sS'MovementGranularity'
p1032
g6
sa(dp1033
S'EventTime'
p1034
S'7599002'
p1035
sg4
L1449715665611L
sS'recordCount'
p1036
g6
sS'EventType'
p1037
S'TYPE_VIEW_TEXT_CHANGED'
p1038
sS'PackageName'
p1039
S'com.example.myfristandroid'
p1040
sS'OutBounds'
p1041
S'Rect(151, 326 - 472, 361)'
p1042
sS'Action'
p1043
S'[ ClassName: android.widget.EditText; Text: []; ContentDescription: null; ItemCount: -1; CurrentItemIndex: -1; IsEnabled: true; IsPassword: true; IsChecked: false; IsFullScreen: false; Scrollable: false; BeforeText: null; FromIndex: 1; ToIndex: -1; ScrollX: -1; ScrollY: -1; MaxScrollX: -1; MaxScrollY: -1; AddedCount: 1; RemovedCount: 0; ParcelableData: null ]'
p1044
sS'MovementGranularity'
p1045
g6
sa(dp1046
S'EventTime'
p1047
S'7599008'
p1048
sg4
L1449715665633L
sS'recordCount'
p1049
g6
sS'EventType'
p1050
S'TYPE_VIEW_TEXT_SELECTION_CHANGED'
p1051
sS'PackageName'
p1052
S'com.example.myfristandroid'
p1053
sS'OutBounds'
p1054
S'Rect(151, 326 - 472, 361)'
p1055
sS'Action'
p1056
S'[ ClassName: android.widget.EditText; Text: []; ContentDescription: null; ItemCount: 2; CurrentItemIndex: -1; IsEnabled: true; IsPassword: true; IsChecked: false; IsFullScreen: false; Scrollable: false; BeforeText: null; FromIndex: 2; ToIndex: 2; ScrollX: -1; ScrollY: -1; MaxScrollX: -1; MaxScrollY: -1; AddedCount: -1; RemovedCount: -1; ParcelableData: null ]'
p1057
sS'MovementGranularity'
p1058
g6
sa(dp1059
S'EventTime'
p1060
S'7599122'
p1061
sg4
L1449715665740L
sS'recordCount'
p1062
g6
sS'EventType'
p1063
S'TYPE_WINDOW_CONTENT_CHANGED'
p1064
sS'PackageName'
p1065
S'com.example.myfristandroid'
p1066
sS'OutBounds'
p1067
S'Rect(0, 0 - 480, 854)'
p1068
sS'Action'
p1069
S'[ ClassName: android.widget.FrameLayout; Text: []; ContentDescription: null; ItemCount: -1; CurrentItemIndex: -1; IsEnabled: true; IsPassword: false; IsChecked: false; IsFullScreen: false; Scrollable: false; BeforeText: null; FromIndex: -1; ToIndex: -1; ScrollX: -1; ScrollY: -1; MaxScrollX: -1; MaxScrollY: -1; AddedCount: -1; RemovedCount: -1; ParcelableData: null ]'
p1070
sS'MovementGranularity'
p1071
g6
sa(dp1072
S'EventTime'
p1073
S'7599996'
p1074
sg4
L1449715666597L
sS'recordCount'
p1075
g6
sS'EventType'
p1076
S'TYPE_VIEW_TEXT_CHANGED'
p1077
sS'PackageName'
p1078
S'com.example.myfristandroid'
p1079
sS'OutBounds'
p1080
S'Rect(151, 326 - 472, 361)'
p1081
sS'Action'
p1082
S'[ ClassName: android.widget.EditText; Text: []; ContentDescription: null; ItemCount: -1; CurrentItemIndex: -1; IsEnabled: true; IsPassword: true; IsChecked: false; IsFullScreen: false; Scrollable: false; BeforeText: null; FromIndex: 1; ToIndex: -1; ScrollX: -1; ScrollY: -1; MaxScrollX: -1; MaxScrollY: -1; AddedCount: 0; RemovedCount: 1; ParcelableData: null ]'
p1083
sS'MovementGranularity'
p1084
g6
sa(dp1085
S'EventTime'
p1086
S'7599998'
p1087
sg4
L1449715666616L
sS'recordCount'
p1088
g6
sS'EventType'
p1089
S'TYPE_VIEW_TEXT_SELECTION_CHANGED'
p1090
sS'PackageName'
p1091
S'com.example.myfristandroid'
p1092
sS'OutBounds'
p1093
S'Rect(151, 326 - 472, 361)'
p1094
sS'Action'
p1095
S'[ ClassName: android.widget.EditText; Text: []; ContentDescription: null; ItemCount: 1; CurrentItemIndex: -1; IsEnabled: true; IsPassword: true; IsChecked: false; IsFullScreen: false; Scrollable: false; BeforeText: null; FromIndex: 1; ToIndex: 1; ScrollX: -1; ScrollY: -1; MaxScrollX: -1; MaxScrollY: -1; AddedCount: -1; RemovedCount: -1; ParcelableData: null ]'
p1096
sS'MovementGranularity'
p1097
g6
sa(dp1098
S'EventTime'
p1099
S'7600122'
p1100
sg4
L1449715666739L
sS'recordCount'
p1101
g6
sS'EventType'
p1102
S'TYPE_WINDOW_CONTENT_CHANGED'
p1103
sS'PackageName'
p1104
S'com.example.myfristandroid'
p1105
sS'OutBounds'
p1106
S'Rect(0, 0 - 480, 854)'
p1107
sS'Action'
p1108
S'[ ClassName: android.widget.FrameLayout; Text: []; ContentDescription: null; ItemCount: -1; CurrentItemIndex: -1; IsEnabled: true; IsPassword: false; IsChecked: false; IsFullScreen: false; Scrollable: false; BeforeText: null; FromIndex: -1; ToIndex: -1; ScrollX: -1; ScrollY: -1; MaxScrollX: -1; MaxScrollY: -1; AddedCount: -1; RemovedCount: -1; ParcelableData: null ]'
p1109
sS'MovementGranularity'
p1110
g6
sa(dp1111
S'EventTime'
p1112
S'7600153'
p1113
sg4
L1449715666750L
sS'recordCount'
p1114
g6
sS'EventType'
p1115
S'TYPE_VIEW_TEXT_CHANGED'
p1116
sS'PackageName'
p1117
S'com.example.myfristandroid'
p1118
sS'OutBounds'
p1119
S'Rect(151, 326 - 472, 361)'
p1120
sS'Action'
p1121
S'[ ClassName: android.widget.EditText; Text: []; ContentDescription: null; ItemCount: -1; CurrentItemIndex: -1; IsEnabled: true; IsPassword: true; IsChecked: false; IsFullScreen: false; Scrollable: false; BeforeText: null; FromIndex: 0; ToIndex: -1; ScrollX: -1; ScrollY: -1; MaxScrollX: -1; MaxScrollY: -1; AddedCount: 0; RemovedCount: 1; ParcelableData: null ]'
p1122
sS'MovementGranularity'
p1123
g6
sa(dp1124
S'EventTime'
p1125
S'7600156'
p1126
sg4
L1449715666762L
sS'recordCount'
p1127
g6
sS'EventType'
p1128
S'TYPE_VIEW_TEXT_SELECTION_CHANGED'
p1129
sS'PackageName'
p1130
S'com.example.myfristandroid'
p1131
sS'OutBounds'
p1132
S'Rect(151, 326 - 472, 361)'
p1133
sS'Action'
p1134
S'[ ClassName: android.widget.EditText; Text: []; ContentDescription: null; ItemCount: 0; CurrentItemIndex: -1; IsEnabled: true; IsPassword: true; IsChecked: false; IsFullScreen: false; Scrollable: false; BeforeText: null; FromIndex: 0; ToIndex: 0; ScrollX: -1; ScrollY: -1; MaxScrollX: -1; MaxScrollY: -1; AddedCount: -1; RemovedCount: -1; ParcelableData: null ]'
p1135
sS'MovementGranularity'
p1136
g6
sa(dp1137
S'EventTime'
p1138
S'7600291'
p1139
sg4
L1449715666892L
sS'recordCount'
p1140
g6
sS'EventType'
p1141
S'TYPE_WINDOW_CONTENT_CHANGED'
p1142
sS'PackageName'
p1143
S'com.example.myfristandroid'
p1144
sS'OutBounds'
p1145
S'Rect(0, 0 - 480, 854)'
p1146
sS'Action'
p1147
S'[ ClassName: android.widget.FrameLayout; Text: []; ContentDescription: null; ItemCount: -1; CurrentItemIndex: -1; IsEnabled: true; IsPassword: false; IsChecked: false; IsFullScreen: false; Scrollable: false; BeforeText: null; FromIndex: -1; ToIndex: -1; ScrollX: -1; ScrollY: -1; MaxScrollX: -1; MaxScrollY: -1; AddedCount: -1; RemovedCount: -1; ParcelableData: null ]'
p1148
sS'MovementGranularity'
p1149
g6
sa(dp1150
S'EventTime'
p1151
S'7602329'
p1152
sg4
L1449715668925L
sS'recordCount'
p1153
g6
sS'EventType'
p1154
S'TYPE_WINDOW_CONTENT_CHANGED'
p1155
sS'PackageName'
p1156
S'com.example.myfristandroid'
p1157
sS'OutBounds'
p1158
S'Rect(0, 0 - 480, 854)'
p1159
sS'Action'
p1160
S'[ ClassName: android.widget.FrameLayout; Text: []; ContentDescription: null; ItemCount: -1; CurrentItemIndex: -1; IsEnabled: true; IsPassword: false; IsChecked: false; IsFullScreen: false; Scrollable: false; BeforeText: null; FromIndex: -1; ToIndex: -1; ScrollX: -1; ScrollY: -1; MaxScrollX: -1; MaxScrollY: -1; AddedCount: -1; RemovedCount: -1; ParcelableData: null ]'
p1161
sS'MovementGranularity'
p1162
g6
sa(dp1163
S'EventTime'
p1164
S'7603027'
p1165
sg4
L1449715669607L
sS'recordCount'
p1166
g6
sS'EventType'
p1167
S'TYPE_VIEW_CLICKED'
p1168
sS'PackageName'
p1169
S'com.example.myfristandroid'
p1170
sS'OutBounds'
p1171
S'Rect(135, 379 - 345, 424)'
p1172
sS'Action'
p1173
S'[ ClassName: android.widget.Button; Text: [\xe7\x99\xbb\xe5\xbd\x95]; ContentDescription: null; ItemCount: -1; CurrentItemIndex: -1; IsEnabled: true; IsPassword: false; IsChecked: false; IsFullScreen: false; Scrollable: false; BeforeText: null; FromIndex: -1; ToIndex: -1; ScrollX: -1; ScrollY: -1; MaxScrollX: -1; MaxScrollY: -1; AddedCount: -1; RemovedCount: -1; ParcelableData: null ]'
p1174
sS'MovementGranularity'
p1175
g6
sa(dp1176
S'EventTime'
p1177
S'7603194'
p1178
sg4
L1449715669837L
sS'recordCount'
p1179
g6
sS'EventType'
p1180
S'TYPE_WINDOW_CONTENT_CHANGED'
p1181
sS'PackageName'
p1182
S'com.example.myfristandroid'
p1183
sS'OutBounds'
p1184
S'Rect(0, 0 - 480, 854)'
p1185
sS'Action'
p1186
S'[ ClassName: android.widget.FrameLayout; Text: []; ContentDescription: null; ItemCount: -1; CurrentItemIndex: -1; IsEnabled: true; IsPassword: false; IsChecked: false; IsFullScreen: false; Scrollable: false; BeforeText: null; FromIndex: -1; ToIndex: -1; ScrollX: -1; ScrollY: -1; MaxScrollX: -1; MaxScrollY: -1; AddedCount: -1; RemovedCount: -1; ParcelableData: null ]'
p1187
sS'MovementGranularity'
p1188
g6
sa(dp1189
S'EventTime'
p1190
S'7603817'
p1191
sg4
L1449715670397L
sS'recordCount'
p1192
g6
sS'EventType'
p1193
S'TYPE_VIEW_CLICKED'
p1194
sS'PackageName'
p1195
S'com.example.myfristandroid'
p1196
sS'OutBounds'
p1197
S'Rect(135, 379 - 345, 424)'
p1198
sS'Action'
p1199
S'[ ClassName: android.widget.Button; Text: [\xe7\xb3\xbb\xe7\xbb\x9f\xe7\xae\xa1\xe7\x90\x86\xe5\x91\x98]; ContentDescription: null; ItemCount: -1; CurrentItemIndex: -1; IsEnabled: true; IsPassword: false; IsChecked: false; IsFullScreen: false; Scrollable: false; BeforeText: null; FromIndex: -1; ToIndex: -1; ScrollX: -1; ScrollY: -1; MaxScrollX: -1; MaxScrollY: -1; AddedCount: -1; RemovedCount: -1; ParcelableData: null ]'
p1200
sS'MovementGranularity'
p1201
g6
sa(dp1202
S'EventTime'
p1203
S'7603931'
p1204
sg4
L1449715670560L
sS'recordCount'
p1205
g6
sS'EventType'
p1206
S'TYPE_WINDOW_CONTENT_CHANGED'
p1207
sS'PackageName'
p1208
S'com.example.myfristandroid'
p1209
sS'OutBounds'
p1210
S'Rect(0, 0 - 480, 854)'
p1211
sS'Action'
p1212
S'[ ClassName: android.widget.FrameLayout; Text: []; ContentDescription: null; ItemCount: -1; CurrentItemIndex: -1; IsEnabled: true; IsPassword: false; IsChecked: false; IsFullScreen: false; Scrollable: false; BeforeText: null; FromIndex: -1; ToIndex: -1; ScrollX: -1; ScrollY: -1; MaxScrollX: -1; MaxScrollY: -1; AddedCount: -1; RemovedCount: -1; ParcelableData: null ]'
p1213
sS'MovementGranularity'
p1214
g6
sa(dp1215
S'EventTime'
p1216
S'7607689'
p1217
sg4
L1449715674270L
sS'recordCount'
p1218
g6
sS'EventType'
p1219
S'TYPE_VIEW_CLICKED'
p1220
sS'PackageName'
p1221
S'com.example.myfristandroid'
p1222
sS'OutBounds'
p1223
S'Rect(135, 379 - 345, 424)'
p1224
sS'Action'
p1225
S'[ ClassName: android.widget.Button; Text: [\xe7\x99\xbb\xe5\xbd\x95]; ContentDescription: null; ItemCount: -1; CurrentItemIndex: -1; IsEnabled: true; IsPassword: false; IsChecked: false; IsFullScreen: false; Scrollable: false; BeforeText: null; FromIndex: -1; ToIndex: -1; ScrollX: -1; ScrollY: -1; MaxScrollX: -1; MaxScrollY: -1; AddedCount: -1; RemovedCount: -1; ParcelableData: null ]'
p1226
sS'MovementGranularity'
p1227
g6
sa(dp1228
S'EventTime'
p1229
S'7607803'
p1230
sg4
L1449715674394L
sS'recordCount'
p1231
g6
sS'EventType'
p1232
S'TYPE_WINDOW_CONTENT_CHANGED'
p1233
sS'PackageName'
p1234
S'com.example.myfristandroid'
p1235
sS'OutBounds'
p1236
S'Rect(0, 0 - 480, 854)'
p1237
sS'Action'
p1238
S'[ ClassName: android.widget.FrameLayout; Text: []; ContentDescription: null; ItemCount: -1; CurrentItemIndex: -1; IsEnabled: true; IsPassword: false; IsChecked: false; IsFullScreen: false; Scrollable: false; BeforeText: null; FromIndex: -1; ToIndex: -1; ScrollX: -1; ScrollY: -1; MaxScrollX: -1; MaxScrollY: -1; AddedCount: -1; RemovedCount: -1; ParcelableData: null ]'
p1239
sS'MovementGranularity'
p1240
g6
sa(dp1241
S'EventTime'
p1242
S'7609937'
p1243
sg4
L1449715676516L
sS'recordCount'
p1244
g6
sS'EventType'
p1245
S'TYPE_VIEW_CLICKED'
p1246
sS'PackageName'
p1247
S'com.example.myfristandroid'
p1248
sS'OutBounds'
p1249
S'Rect(135, 379 - 345, 424)'
p1250
sS'Action'
p1251
S'[ ClassName: android.widget.Button; Text: [\xe7\x99\xbb\xe5\xbd\x95]; ContentDescription: null; ItemCount: -1; CurrentItemIndex: -1; IsEnabled: true; IsPassword: false; IsChecked: false; IsFullScreen: false; Scrollable: false; BeforeText: null; FromIndex: -1; ToIndex: -1; ScrollX: -1; ScrollY: -1; MaxScrollX: -1; MaxScrollY: -1; AddedCount: -1; RemovedCount: -1; ParcelableData: null ]'
p1252
sS'MovementGranularity'
p1253
g6
sa(dp1254
S'EventTime'
p1255
S'7610043'
p1256
sg4
L1449715676659L
sS'recordCount'
p1257
g6
sS'EventType'
p1258
S'TYPE_WINDOW_CONTENT_CHANGED'
p1259
sS'PackageName'
p1260
S'com.example.myfristandroid'
p1261
sS'OutBounds'
p1262
S'Rect(0, 0 - 480, 854)'
p1263
sS'Action'
p1264
S'[ ClassName: android.widget.FrameLayout; Text: []; ContentDescription: null; ItemCount: -1; CurrentItemIndex: -1; IsEnabled: true; IsPassword: false; IsChecked: false; IsFullScreen: false; Scrollable: false; BeforeText: null; FromIndex: -1; ToIndex: -1; ScrollX: -1; ScrollY: -1; MaxScrollX: -1; MaxScrollY: -1; AddedCount: -1; RemovedCount: -1; ParcelableData: null ]'
p1265
sS'MovementGranularity'
p1266
g6
sa(dp1267
S'EventTime'
p1268
S'7610126'
p1269
sg4
L1449715676708L
sS'recordCount'
p1270
g6
sS'EventType'
p1271
S'TYPE_NOTIFICATION_STATE_CHANGED'
p1272
sS'PackageName'
p1273
S'com.example.myfristandroid'
p1274
sS'Action'
p1275
S'[ ClassName: android.widget.Toast$TN; Text: [\xe6\x9c\x8d\xe5\x8a\xa1\xe5\x99\xa8\xe5\xbc\x82\xe5\xb8\xb8]; ContentDescription: null; ItemCount: -1; CurrentItemIndex: -1; IsEnabled: false; IsPassword: false; IsChecked: false; IsFullScreen: false; Scrollable: false; BeforeText: null; FromIndex: -1; ToIndex: -1; ScrollX: -1; ScrollY: -1; MaxScrollX: -1; MaxScrollY: -1; AddedCount: -1; RemovedCount: -1; ParcelableData: null ]'
p1276
sS'MovementGranularity'
p1277
g6
sa(dp1278
S'EventTime'
p1279
S'7612338'
p1280
sg4
L1449715678918L
sS'recordCount'
p1281
g6
sS'EventType'
p1282
S'TYPE_VIEW_CLICKED'
p1283
sS'PackageName'
p1284
S'com.example.myfristandroid'
p1285
sS'OutBounds'
p1286
S'Rect(120, 771 - 240, 854)'
p1287
sS'Action'
p1288
S'[ ClassName: android.widget.LinearLayout; Text: [\xe6\x9f\xa5\xe7\x9c\x8b\xe5\xae\x9e\xe6\x97\xb6\xe6\x95\xb0\xe6\x8d\xae\xe4\xbf\xa1\xe6\x81\xaf, \xe6\x95\xb0\xe6\x8d\xae]; ContentDescription: null; ItemCount: -1; CurrentItemIndex: -1; IsEnabled: true; IsPassword: false; IsChecked: false; IsFullScreen: false; Scrollable: false; BeforeText: null; FromIndex: -1; ToIndex: -1; ScrollX: -1; ScrollY: -1; MaxScrollX: -1; MaxScrollY: -1; AddedCount: -1; RemovedCount: -1; ParcelableData: null ]'
p1289
sS'MovementGranularity'
p1290
g6
sa(dp1291
S'EventTime'
p1292
S'7612365'
p1293
sg4
L1449715678961L
sS'recordCount'
p1294
g6
sS'EventType'
p1295
S'TYPE_VIEW_FOCUSED'
p1296
sS'PackageName'
p1297
S'com.example.myfristandroid'
p1298
sS'OutBounds'
p1299
S'Rect(-141, 227 - 328, 272)'
p1300
sS'Action'
p1301
S'[ ClassName: android.widget.EditText; Text: [\xe6\x90\x9c\xe7\xb4\xa2]; ContentDescription: null; ItemCount: 10; CurrentItemIndex: 4; IsEnabled: true; IsPassword: false; IsChecked: false; IsFullScreen: false; Scrollable: false; BeforeText: null; FromIndex: -1; ToIndex: -1; ScrollX: -1; ScrollY: -1; MaxScrollX: -1; MaxScrollY: -1; AddedCount: -1; RemovedCount: -1; ParcelableData: null ]'
p1302
sS'MovementGranularity'
p1303
g6
sa(dp1304
S'EventTime'
p1305
S'7612465'
p1306
sg4
L1449715679076L
sS'recordCount'
p1307
g6
sS'EventType'
p1308
S'TYPE_WINDOW_CONTENT_CHANGED'
p1309
sS'PackageName'
p1310
S'com.example.myfristandroid'
p1311
sS'OutBounds'
p1312
S'Rect(0, 0 - 480, 854)'
p1313
sS'Action'
p1314
S'[ ClassName: android.widget.FrameLayout; Text: []; ContentDescription: null; ItemCount: -1; CurrentItemIndex: -1; IsEnabled: true; IsPassword: false; IsChecked: false; IsFullScreen: false; Scrollable: false; BeforeText: null; FromIndex: -1; ToIndex: -1; ScrollX: -1; ScrollY: -1; MaxScrollX: -1; MaxScrollY: -1; AddedCount: -1; RemovedCount: -1; ParcelableData: null ]'
p1315
sS'MovementGranularity'
p1316
g6
sa(dp1317
S'EventTime'
p1318
S'7612486'
p1319
sg4
L1449715679111L
sS'recordCount'
p1320
g6
sS'EventType'
p1321
S'TYPE_VIEW_SCROLLED'
p1322
sS'PackageName'
p1323
S'com.example.myfristandroid'
p1324
sS'OutBounds'
p1325
S'Rect(0, 106 - 480, 771)'
p1326
sS'Action'
p1327
S'[ ClassName: android.support.v4.view.ViewPager; Text: []; ContentDescription: null; ItemCount: -1; CurrentItemIndex: -1; IsEnabled: true; IsPassword: false; IsChecked: false; IsFullScreen: false; Scrollable: false; BeforeText: null; FromIndex: -1; ToIndex: -1; ScrollX: -1; ScrollY: -1; MaxScrollX: -1; MaxScrollY: -1; AddedCount: -1; RemovedCount: -1; ParcelableData: null ]'
p1328
sS'MovementGranularity'
p1329
g6
sa(dp1330
S'EventTime'
p1331
S'7612601'
p1332
sg4
L1449715679212L
sS'recordCount'
p1333
g6
sS'EventType'
p1334
S'TYPE_VIEW_SCROLLED'
p1335
sS'PackageName'
p1336
S'com.example.myfristandroid'
p1337
sS'OutBounds'
p1338
S'Rect(0, 106 - 480, 771)'
p1339
sS'Action'
p1340
S'[ ClassName: android.support.v4.view.ViewPager; Text: []; ContentDescription: null; ItemCount: -1; CurrentItemIndex: -1; IsEnabled: true; IsPassword: false; IsChecked: false; IsFullScreen: false; Scrollable: false; BeforeText: null; FromIndex: -1; ToIndex: -1; ScrollX: -1; ScrollY: -1; MaxScrollX: -1; MaxScrollY: -1; AddedCount: -1; RemovedCount: -1; ParcelableData: null ]'
p1341
sS'MovementGranularity'
p1342
g6
sa(dp1343
S'EventTime'
p1344
S'7612743'
p1345
sg4
L1449715679376L
sS'recordCount'
p1346
g6
sS'EventType'
p1347
S'TYPE_VIEW_SCROLLED'
p1348
sS'PackageName'
p1349
S'com.example.myfristandroid'
p1350
sS'OutBounds'
p1351
S'Rect(0, 106 - 480, 771)'
p1352
sS'Action'
p1353
S'[ ClassName: android.support.v4.view.ViewPager; Text: []; ContentDescription: null; ItemCount: -1; CurrentItemIndex: -1; IsEnabled: true; IsPassword: false; IsChecked: false; IsFullScreen: false; Scrollable: false; BeforeText: null; FromIndex: -1; ToIndex: -1; ScrollX: -1; ScrollY: -1; MaxScrollX: -1; MaxScrollY: -1; AddedCount: -1; RemovedCount: -1; ParcelableData: null ]'
p1354
sS'MovementGranularity'
p1355
g6
sa(dp1356
S'EventTime'
p1357
S'7612839'
p1358
sg4
L1449715679449L
sS'recordCount'
p1359
g6
sS'EventType'
p1360
S'TYPE_WINDOW_CONTENT_CHANGED'
p1361
sS'PackageName'
p1362
S'com.example.myfristandroid'
p1363
sS'OutBounds'
p1364
S'Rect(0, 0 - 480, 854)'
p1365
sS'Action'
p1366
S'[ ClassName: android.widget.FrameLayout; Text: []; ContentDescription: null; ItemCount: -1; CurrentItemIndex: -1; IsEnabled: true; IsPassword: false; IsChecked: false; IsFullScreen: false; Scrollable: false; BeforeText: null; FromIndex: -1; ToIndex: -1; ScrollX: -1; ScrollY: -1; MaxScrollX: -1; MaxScrollY: -1; AddedCount: -1; RemovedCount: -1; ParcelableData: null ]'
p1367
sS'MovementGranularity'
p1368
g6
sa(dp1369
S'EventTime'
p1370
S'7615577'
p1371
sg4
L1449715682157L
sS'recordCount'
p1372
g6
sS'EventType'
p1373
S'TYPE_VIEW_CLICKED'
p1374
sS'PackageName'
p1375
S'com.example.myfristandroid'
p1376
sS'OutBounds'
p1377
S'Rect(188, 121 - 450, 166)'
p1378
sS'Action'
p1379
S'[ ClassName: android.widget.Button; Text: [\xe7\x82\xb9\xe5\x87\xbb\xe9\x80\x89\xe6\x8b\xa9\xe5\x8e\x82\xe7\xab\x99]; ContentDescription: null; ItemCount: -1; CurrentItemIndex: -1; IsEnabled: true; IsPassword: false; IsChecked: false; IsFullScreen: false; Scrollable: false; BeforeText: null; FromIndex: -1; ToIndex: -1; ScrollX: -1; ScrollY: -1; MaxScrollX: -1; MaxScrollY: -1; AddedCount: -1; RemovedCount: -1; ParcelableData: null ]'
p1380
sS'MovementGranularity'
p1381
g6
sa(dp1382
S'EventTime'
p1383
S'7615644'
p1384
sg4
L1449715682238L
sS'recordCount'
p1385
g6
sS'EventType'
p1386
S'TYPE_WINDOW_STATE_CHANGED'
p1387
sS'PackageName'
p1388
S'com.example.myfristandroid'
p1389
sS'OutBounds'
p1390
S'Rect(165, 371 - 315, 521)'
p1391
sS'Action'
p1392
S'[ ClassName: com.example.myfristandroid.CustomProgressDialog; Text: []; ContentDescription: null; ItemCount: -1; CurrentItemIndex: -1; IsEnabled: true; IsPassword: false; IsChecked: false; IsFullScreen: false; Scrollable: false; BeforeText: null; FromIndex: -1; ToIndex: -1; ScrollX: -1; ScrollY: -1; MaxScrollX: -1; MaxScrollY: -1; AddedCount: -1; RemovedCount: -1; ParcelableData: null ]'
p1393
sS'MovementGranularity'
p1394
g6
sa(dp1395
S'EventTime'
p1396
S'7615755'
p1397
sg4
L1449715682352L
sS'recordCount'
p1398
g6
sS'EventType'
p1399
S'TYPE_WINDOW_CONTENT_CHANGED'
p1400
sS'PackageName'
p1401
S'com.example.myfristandroid'
p1402
sS'OutBounds'
p1403
S'Rect(165, 371 - 315, 521)'
p1404
sS'Action'
p1405
S'[ ClassName: android.widget.FrameLayout; Text: []; ContentDescription: null; ItemCount: -1; CurrentItemIndex: -1; IsEnabled: true; IsPassword: false; IsChecked: false; IsFullScreen: false; Scrollable: false; BeforeText: null; FromIndex: -1; ToIndex: -1; ScrollX: -1; ScrollY: -1; MaxScrollX: -1; MaxScrollY: -1; AddedCount: -1; RemovedCount: -1; ParcelableData: null ]'
p1406
sS'MovementGranularity'
p1407
g6
sa(dp1408
S'EventTime'
p1409
S'7616807'
p1410
sg4
L1449715683400L
sS'recordCount'
p1411
g6
sS'EventType'
p1412
S'TYPE_WINDOW_STATE_CHANGED'
p1413
sS'PackageName'
p1414
S'com.example.myfristandroid'
p1415
sS'OutBounds'
p1416
S'Rect(0, 0 - 480, 854)'
p1417
sS'Action'
p1418
S'[ ClassName: com.example.myfristandroid.HuzAlertDialog; Text: [\xe6\x8f\x90\xe7\xa4\xba, \xe8\xaf\xb7\xe5\x85\x88\xe7\x99\xbb\xe5\xbd\x95, \xe7\xa1\xae\xe5\xae\x9a]; ContentDescription: null; ItemCount: -1; CurrentItemIndex: -1; IsEnabled: true; IsPassword: false; IsChecked: false; IsFullScreen: true; Scrollable: false; BeforeText: null; FromIndex: -1; ToIndex: -1; ScrollX: -1; ScrollY: -1; MaxScrollX: -1; MaxScrollY: -1; AddedCount: -1; RemovedCount: -1; ParcelableData: null ]'
p1419
sS'MovementGranularity'
p1420
g6
sa(dp1421
S'EventTime'
p1422
S'7616877'
p1423
sg4
L1449715683471L
sS'recordCount'
p1424
g6
sS'EventType'
p1425
S'TYPE_WINDOW_CONTENT_CHANGED'
p1426
sS'PackageName'
p1427
S'com.example.myfristandroid'
p1428
sS'OutBounds'
p1429
S'Rect(0, 0 - 480, 854)'
p1430
sS'Action'
p1431
S'[ ClassName: android.widget.FrameLayout; Text: []; ContentDescription: null; ItemCount: -1; CurrentItemIndex: -1; IsEnabled: true; IsPassword: false; IsChecked: false; IsFullScreen: false; Scrollable: false; BeforeText: null; FromIndex: -1; ToIndex: -1; ScrollX: -1; ScrollY: -1; MaxScrollX: -1; MaxScrollY: -1; AddedCount: -1; RemovedCount: -1; ParcelableData: null ]'
p1432
sS'MovementGranularity'
p1433
g6
sa(dp1434
S'EventTime'
p1435
S'7617723'
p1436
sg4
L1449715684307L
sS'recordCount'
p1437
g6
sS'EventType'
p1438
S'TYPE_VIEW_CLICKED'
p1439
sS'PackageName'
p1440
S'com.example.myfristandroid'
p1441
sS'OutBounds'
p1442
S'Rect(138, 481 - 344, 553)'
p1443
sS'Action'
p1444
S'[ ClassName: android.widget.Button; Text: [\xe7\xa1\xae\xe5\xae\x9a]; ContentDescription: null; ItemCount: -1; CurrentItemIndex: -1; IsEnabled: true; IsPassword: false; IsChecked: false; IsFullScreen: false; Scrollable: false; BeforeText: null; FromIndex: -1; ToIndex: -1; ScrollX: -1; ScrollY: -1; MaxScrollX: -1; MaxScrollY: -1; AddedCount: -1; RemovedCount: -1; ParcelableData: null ]'
p1445
sS'MovementGranularity'
p1446
g6
sa(dp1447
S'EventTime'
p1448
S'7617791'
p1449
sg4
L1449715684408L
sS'recordCount'
p1450
g6
sS'EventType'
p1451
S'TYPE_WINDOW_STATE_CHANGED'
p1452
sS'PackageName'
p1453
S'com.example.myfristandroid'
p1454
sS'OutBounds'
p1455
S'Rect(0, 0 - 480, 854)'
p1456
sS'Action'
p1457
S'[ ClassName: com.example.myfristandroid.MainActivity; Text: [SE-1800\xe7\xa7\xbb\xe5\x8a\xa8APP]; ContentDescription: null; ItemCount: -1; CurrentItemIndex: -1; IsEnabled: true; IsPassword: false; IsChecked: false; IsFullScreen: true; Scrollable: false; BeforeText: null; FromIndex: -1; ToIndex: -1; ScrollX: -1; ScrollY: -1; MaxScrollX: -1; MaxScrollY: -1; AddedCount: -1; RemovedCount: -1; ParcelableData: null ]'
p1458
sS'MovementGranularity'
p1459
g6
sa(dp1460
S'EventTime'
p1461
S'7618718'
p1462
sg4
L1449715685299L
sS'recordCount'
p1463
g6
sS'EventType'
p1464
S'TYPE_VIEW_CLICKED'
p1465
sS'PackageName'
p1466
S'com.example.myfristandroid'
p1467
sS'OutBounds'
p1468
S'Rect(360, 771 - 480, 854)'
p1469
sS'Action'
p1470
S'[ ClassName: android.widget.LinearLayout; Text: [\xe8\xae\xbe\xe7\xbd\xae\xe7\xb3\xbb\xe7\xbb\x9f\xe8\xbf\x90\xe8\xa1\x8c\xe5\x8f\x82\xe6\x95\xb0, \xe8\xae\xbe\xe7\xbd\xae]; ContentDescription: null; ItemCount: -1; CurrentItemIndex: -1; IsEnabled: true; IsPassword: false; IsChecked: false; IsFullScreen: false; Scrollable: false; BeforeText: null; FromIndex: -1; ToIndex: -1; ScrollX: -1; ScrollY: -1; MaxScrollX: -1; MaxScrollY: -1; AddedCount: -1; RemovedCount: -1; ParcelableData: null ]'
p1471
sS'MovementGranularity'
p1472
g6
sa(dp1473
S'EventTime'
p1474
S'7618742'
p1475
sg4
L1449715685352L
sS'recordCount'
p1476
g6
sS'EventType'
p1477
S'TYPE_VIEW_FOCUSED'
p1478
sS'PackageName'
p1479
S'com.example.myfristandroid'
p1480
sS'OutBounds'
p1481
S'Rect(305, 114 - 626, 159)'
p1482
sS'Action'
p1483
S'[ ClassName: android.widget.EditText; Text: [218.94.19.234]; ContentDescription: null; ItemCount: 10; CurrentItemIndex: 0; IsEnabled: true; IsPassword: false; IsChecked: false; IsFullScreen: false; Scrollable: false; BeforeText: null; FromIndex: -1; ToIndex: -1; ScrollX: -1; ScrollY: -1; MaxScrollX: -1; MaxScrollY: -1; AddedCount: -1; RemovedCount: -1; ParcelableData: null ]'
p1484
sS'MovementGranularity'
p1485
g6
sa(dp1486
S'EventTime'
p1487
S'7618855'
p1488
sg4
L1449715685461L
sS'recordCount'
p1489
g6
sS'EventType'
p1490
S'TYPE_WINDOW_CONTENT_CHANGED'
p1491
sS'PackageName'
p1492
S'com.example.myfristandroid'
p1493
sS'OutBounds'
p1494
S'Rect(0, 0 - 480, 854)'
p1495
sS'Action'
p1496
S'[ ClassName: android.widget.FrameLayout; Text: []; ContentDescription: null; ItemCount: -1; CurrentItemIndex: -1; IsEnabled: true; IsPassword: false; IsChecked: false; IsFullScreen: false; Scrollable: false; BeforeText: null; FromIndex: -1; ToIndex: -1; ScrollX: -1; ScrollY: -1; MaxScrollX: -1; MaxScrollY: -1; AddedCount: -1; RemovedCount: -1; ParcelableData: null ]'
p1497
sS'MovementGranularity'
p1498
g6
sa(dp1499
S'EventTime'
p1500
S'7618875'
p1501
sg4
L1449715685490L
sS'recordCount'
p1502
g6
sS'EventType'
p1503
S'TYPE_VIEW_SCROLLED'
p1504
sS'PackageName'
p1505
S'com.example.myfristandroid'
p1506
sS'OutBounds'
p1507
S'Rect(0, 106 - 480, 771)'
p1508
sS'Action'
p1509
S'[ ClassName: android.support.v4.view.ViewPager; Text: []; ContentDescription: null; ItemCount: -1; CurrentItemIndex: -1; IsEnabled: true; IsPassword: false; IsChecked: false; IsFullScreen: false; Scrollable: false; BeforeText: null; FromIndex: -1; ToIndex: -1; ScrollX: -1; ScrollY: -1; MaxScrollX: -1; MaxScrollY: -1; AddedCount: -1; RemovedCount: -1; ParcelableData: null ]'
p1510
sS'MovementGranularity'
p1511
g6
sa(dp1512
S'EventTime'
p1513
S'7618992'
p1514
sg4
L1449715685590L
sS'recordCount'
p1515
g6
sS'EventType'
p1516
S'TYPE_VIEW_SCROLLED'
p1517
sS'PackageName'
p1518
S'com.example.myfristandroid'
p1519
sS'OutBounds'
p1520
S'Rect(0, 106 - 480, 771)'
p1521
sS'Action'
p1522
S'[ ClassName: android.support.v4.view.ViewPager; Text: []; ContentDescription: null; ItemCount: -1; CurrentItemIndex: -1; IsEnabled: true; IsPassword: false; IsChecked: false; IsFullScreen: false; Scrollable: false; BeforeText: null; FromIndex: -1; ToIndex: -1; ScrollX: -1; ScrollY: -1; MaxScrollX: -1; MaxScrollY: -1; AddedCount: -1; RemovedCount: -1; ParcelableData: null ]'
p1523
sS'MovementGranularity'
p1524
g6
sa(dp1525
S'EventTime'
p1526
S'7619191'
p1527
sg4
L1449715685813L
sS'recordCount'
p1528
g6
sS'EventType'
p1529
S'TYPE_WINDOW_CONTENT_CHANGED'
p1530
sS'PackageName'
p1531
S'com.example.myfristandroid'
p1532
sS'OutBounds'
p1533
S'Rect(0, 0 - 480, 854)'
p1534
sS'Action'
p1535
S'[ ClassName: android.widget.FrameLayout; Text: []; ContentDescription: null; ItemCount: -1; CurrentItemIndex: -1; IsEnabled: true; IsPassword: false; IsChecked: false; IsFullScreen: false; Scrollable: false; BeforeText: null; FromIndex: -1; ToIndex: -1; ScrollX: -1; ScrollY: -1; MaxScrollX: -1; MaxScrollY: -1; AddedCount: -1; RemovedCount: -1; ParcelableData: null ]'
p1536
sS'MovementGranularity'
p1537
g6
sa(dp1538
S'EventTime'
p1539
S'7620541'
p1540
sg4
L1449715687156L
sS'recordCount'
p1541
g6
sS'EventType'
p1542
S'TYPE_VIEW_FOCUSED'
p1543
sS'PackageName'
p1544
S'com.example.myfristandroid'
p1545
sS'OutBounds'
p1546
S'Rect(151, 326 - 472, 361)'
p1547
sS'Action'
p1548
S'[ ClassName: android.widget.EditText; Text: []; ContentDescription: null; ItemCount: 10; CurrentItemIndex: 4; IsEnabled: true; IsPassword: true; IsChecked: false; IsFullScreen: false; Scrollable: false; BeforeText: null; FromIndex: -1; ToIndex: -1; ScrollX: -1; ScrollY: -1; MaxScrollX: -1; MaxScrollY: -1; AddedCount: -1; RemovedCount: -1; ParcelableData: null ]'
p1549
sS'MovementGranularity'
p1550
g6
sa(dp1551
S'EventTime'
p1552
S'7620670'
p1553
sg4
L1449715687296L
sS'recordCount'
p1554
g6
sS'EventType'
p1555
S'TYPE_WINDOW_CONTENT_CHANGED'
p1556
sS'PackageName'
p1557
S'com.example.myfristandroid'
p1558
sS'OutBounds'
p1559
S'Rect(0, 0 - 480, 854)'
p1560
sS'Action'
p1561
S'[ ClassName: android.widget.FrameLayout; Text: []; ContentDescription: null; ItemCount: -1; CurrentItemIndex: -1; IsEnabled: true; IsPassword: false; IsChecked: false; IsFullScreen: false; Scrollable: false; BeforeText: null; FromIndex: -1; ToIndex: -1; ScrollX: -1; ScrollY: -1; MaxScrollX: -1; MaxScrollY: -1; AddedCount: -1; RemovedCount: -1; ParcelableData: null ]'
p1562
sS'MovementGranularity'
p1563
g6
sa(dp1564
S'EventTime'
p1565
S'7623261'
p1566
sg4
L1449715689851L
sS'recordCount'
p1567
g6
sS'EventType'
p1568
S'TYPE_WINDOW_CONTENT_CHANGED'
p1569
sS'PackageName'
p1570
S'com.example.myfristandroid'
p1571
sS'OutBounds'
p1572
S'Rect(0, 0 - 480, 854)'
p1573
sS'Action'
p1574
S'[ ClassName: android.widget.FrameLayout; Text: []; ContentDescription: null; ItemCount: -1; CurrentItemIndex: -1; IsEnabled: true; IsPassword: false; IsChecked: false; IsFullScreen: false; Scrollable: false; BeforeText: null; FromIndex: -1; ToIndex: -1; ScrollX: -1; ScrollY: -1; MaxScrollX: -1; MaxScrollY: -1; AddedCount: -1; RemovedCount: -1; ParcelableData: null ]'
p1575
sS'MovementGranularity'
p1576
g6
sa(dp1577
S'EventTime'
p1578
S'7623878'
p1579
sg4
L1449715690458L
sS'recordCount'
p1580
g6
sS'EventType'
p1581
S'TYPE_VIEW_CLICKED'
p1582
sS'PackageName'
p1583
S'com.example.myfristandroid'
p1584
sS'OutBounds'
p1585
S'Rect(135, 379 - 345, 424)'
p1586
sS'Action'
p1587
S'[ ClassName: android.widget.Button; Text: [\xe7\x99\xbb\xe5\xbd\x95]; ContentDescription: null; ItemCount: -1; CurrentItemIndex: -1; IsEnabled: true; IsPassword: false; IsChecked: false; IsFullScreen: false; Scrollable: false; BeforeText: null; FromIndex: -1; ToIndex: -1; ScrollX: -1; ScrollY: -1; MaxScrollX: -1; MaxScrollY: -1; AddedCount: -1; RemovedCount: -1; ParcelableData: null ]'
p1588
sS'MovementGranularity'
p1589
g6
sa(dp1590
S'EventTime'
p1591
S'7623989'
p1592
sg4
L1449715690579L
sS'recordCount'
p1593
g6
sS'EventType'
p1594
S'TYPE_WINDOW_CONTENT_CHANGED'
p1595
sS'PackageName'
p1596
S'com.example.myfristandroid'
p1597
sS'OutBounds'
p1598
S'Rect(0, 0 - 480, 854)'
p1599
sS'Action'
p1600
S'[ ClassName: android.widget.FrameLayout; Text: []; ContentDescription: null; ItemCount: -1; CurrentItemIndex: -1; IsEnabled: true; IsPassword: false; IsChecked: false; IsFullScreen: false; Scrollable: false; BeforeText: null; FromIndex: -1; ToIndex: -1; ScrollX: -1; ScrollY: -1; MaxScrollX: -1; MaxScrollY: -1; AddedCount: -1; RemovedCount: -1; ParcelableData: null ]'
p1601
sS'MovementGranularity'
p1602
g6
sa(dp1603
S'EventTime'
p1604
S'7625981'
p1605
sg4
L1449715692561L
sS'recordCount'
p1606
g6
sS'EventType'
p1607
S'TYPE_VIEW_CLICKED'
p1608
sS'PackageName'
p1609
S'com.example.myfristandroid'
p1610
sS'OutBounds'
p1611
S'Rect(135, 379 - 345, 424)'
p1612
sS'Action'
p1613
S'[ ClassName: android.widget.Button; Text: [\xe7\x99\xbb\xe5\xbd\x95]; ContentDescription: null; ItemCount: -1; CurrentItemIndex: -1; IsEnabled: true; IsPassword: false; IsChecked: false; IsFullScreen: false; Scrollable: false; BeforeText: null; FromIndex: -1; ToIndex: -1; ScrollX: -1; ScrollY: -1; MaxScrollX: -1; MaxScrollY: -1; AddedCount: -1; RemovedCount: -1; ParcelableData: null ]'
p1614
sS'MovementGranularity'
p1615
g6
sa(dp1616
S'EventTime'
p1617
S'7626092'
p1618
sg4
L1449715692685L
sS'recordCount'
p1619
g6
sS'EventType'
p1620
S'TYPE_WINDOW_CONTENT_CHANGED'
p1621
sS'PackageName'
p1622
S'com.example.myfristandroid'
p1623
sS'OutBounds'
p1624
S'Rect(0, 0 - 480, 854)'
p1625
sS'Action'
p1626
S'[ ClassName: android.widget.FrameLayout; Text: []; ContentDescription: null; ItemCount: -1; CurrentItemIndex: -1; IsEnabled: true; IsPassword: false; IsChecked: false; IsFullScreen: false; Scrollable: false; BeforeText: null; FromIndex: -1; ToIndex: -1; ScrollX: -1; ScrollY: -1; MaxScrollX: -1; MaxScrollY: -1; AddedCount: -1; RemovedCount: -1; ParcelableData: null ]'
p1627
sS'MovementGranularity'
p1628
g6
sa(dp1629
S'EventTime'
p1630
S'7626200'
p1631
sg4
L1449715692781L
sS'recordCount'
p1632
g6
sS'EventType'
p1633
S'TYPE_NOTIFICATION_STATE_CHANGED'
p1634
sS'PackageName'
p1635
S'com.example.myfristandroid'
p1636
sS'Action'
p1637
S'[ ClassName: android.widget.Toast$TN; Text: [\xe6\x9c\x8d\xe5\x8a\xa1\xe5\x99\xa8\xe5\xbc\x82\xe5\xb8\xb8]; ContentDescription: null; ItemCount: -1; CurrentItemIndex: -1; IsEnabled: false; IsPassword: false; IsChecked: false; IsFullScreen: false; Scrollable: false; BeforeText: null; FromIndex: -1; ToIndex: -1; ScrollX: -1; ScrollY: -1; MaxScrollX: -1; MaxScrollY: -1; AddedCount: -1; RemovedCount: -1; ParcelableData: null ]'
p1638
sS'MovementGranularity'
p1639
g6
sa(dp1640
S'EventTime'
p1641
S'7627925'
p1642
sg4
L1449715694512L
sS'recordCount'
p1643
g6
sS'EventType'
p1644
S'TYPE_VIEW_CLICKED'
p1645
sS'PackageName'
p1646
S'com.example.myfristandroid'
p1647
sS'OutBounds'
p1648
S'Rect(135, 379 - 345, 424)'
p1649
sS'Action'
p1650
S'[ ClassName: android.widget.Button; Text: [\xe7\x99\xbb\xe5\xbd\x95]; ContentDescription: null; ItemCount: -1; CurrentItemIndex: -1; IsEnabled: true; IsPassword: false; IsChecked: false; IsFullScreen: false; Scrollable: false; BeforeText: null; FromIndex: -1; ToIndex: -1; ScrollX: -1; ScrollY: -1; MaxScrollX: -1; MaxScrollY: -1; AddedCount: -1; RemovedCount: -1; ParcelableData: null ]'
p1651
sS'MovementGranularity'
p1652
g6
sa(dp1653
S'EventTime'
p1654
S'7628058'
p1655
sg4
L1449715694664L
sS'recordCount'
p1656
g6
sS'EventType'
p1657
S'TYPE_WINDOW_CONTENT_CHANGED'
p1658
sS'PackageName'
p1659
S'com.example.myfristandroid'
p1660
sS'OutBounds'
p1661
S'Rect(0, 0 - 480, 854)'
p1662
sS'Action'
p1663
S'[ ClassName: android.widget.FrameLayout; Text: []; ContentDescription: null; ItemCount: -1; CurrentItemIndex: -1; IsEnabled: true; IsPassword: false; IsChecked: false; IsFullScreen: false; Scrollable: false; BeforeText: null; FromIndex: -1; ToIndex: -1; ScrollX: -1; ScrollY: -1; MaxScrollX: -1; MaxScrollY: -1; AddedCount: -1; RemovedCount: -1; ParcelableData: null ]'
p1664
sS'MovementGranularity'
p1665
g6
sa(dp1666
S'EventTime'
p1667
S'7628243'
p1668
sg4
L1449715694827L
sS'recordCount'
p1669
g6
sS'EventType'
p1670
S'TYPE_VIEW_CLICKED'
p1671
sS'PackageName'
p1672
S'com.example.myfristandroid'
p1673
sS'OutBounds'
p1674
S'Rect(135, 379 - 345, 424)'
p1675
sS'Action'
p1676
S'[ ClassName: android.widget.Button; Text: [\xe7\x99\xbb\xe5\xbd\x95]; ContentDescription: null; ItemCount: -1; CurrentItemIndex: -1; IsEnabled: true; IsPassword: false; IsChecked: false; IsFullScreen: false; Scrollable: false; BeforeText: null; FromIndex: -1; ToIndex: -1; ScrollX: -1; ScrollY: -1; MaxScrollX: -1; MaxScrollY: -1; AddedCount: -1; RemovedCount: -1; ParcelableData: null ]'
p1677
sS'MovementGranularity'
p1678
g6
sa(dp1679
S'EventTime'
p1680
S'7628360'
p1681
sg4
L1449715694959L
sS'recordCount'
p1682
g6
sS'EventType'
p1683
S'TYPE_WINDOW_CONTENT_CHANGED'
p1684
sS'PackageName'
p1685
S'com.example.myfristandroid'
p1686
sS'OutBounds'
p1687
S'Rect(0, 0 - 480, 854)'
p1688
sS'Action'
p1689
S'[ ClassName: android.widget.FrameLayout; Text: []; ContentDescription: null; ItemCount: -1; CurrentItemIndex: -1; IsEnabled: true; IsPassword: false; IsChecked: false; IsFullScreen: false; Scrollable: false; BeforeText: null; FromIndex: -1; ToIndex: -1; ScrollX: -1; ScrollY: -1; MaxScrollX: -1; MaxScrollY: -1; AddedCount: -1; RemovedCount: -1; ParcelableData: null ]'
p1690
sS'MovementGranularity'
p1691
g6
sa(dp1692
S'EventTime'
p1693
S'7628524'
p1694
sg4
L1449715695106L
sS'recordCount'
p1695
g6
sS'EventType'
p1696
S'TYPE_VIEW_CLICKED'
p1697
sS'PackageName'
p1698
S'com.example.myfristandroid'
p1699
sS'OutBounds'
p1700
S'Rect(135, 379 - 345, 424)'
p1701
sS'Action'
p1702
S'[ ClassName: android.widget.Button; Text: [\xe7\x99\xbb\xe5\xbd\x95]; ContentDescription: null; ItemCount: -1; CurrentItemIndex: -1; IsEnabled: true; IsPassword: false; IsChecked: false; IsFullScreen: false; Scrollable: false; BeforeText: null; FromIndex: -1; ToIndex: -1; ScrollX: -1; ScrollY: -1; MaxScrollX: -1; MaxScrollY: -1; AddedCount: -1; RemovedCount: -1; ParcelableData: null ]'
p1703
sS'MovementGranularity'
p1704
g6
sa(dp1705
S'EventTime'
p1706
S'7628630'
p1707
sg4
L1449715695246L
sS'recordCount'
p1708
g6
sS'EventType'
p1709
S'TYPE_WINDOW_CONTENT_CHANGED'
p1710
sS'PackageName'
p1711
S'com.example.myfristandroid'
p1712
sS'OutBounds'
p1713
S'Rect(0, 0 - 480, 854)'
p1714
sS'Action'
p1715
S'[ ClassName: android.widget.FrameLayout; Text: []; ContentDescription: null; ItemCount: -1; CurrentItemIndex: -1; IsEnabled: true; IsPassword: false; IsChecked: false; IsFullScreen: false; Scrollable: false; BeforeText: null; FromIndex: -1; ToIndex: -1; ScrollX: -1; ScrollY: -1; MaxScrollX: -1; MaxScrollY: -1; AddedCount: -1; RemovedCount: -1; ParcelableData: null ]'
p1716
sS'MovementGranularity'
p1717
g6
sa(dp1718
S'EventTime'
p1719
S'7629086'
p1720
sg4
L1449715695669L
sS'recordCount'
p1721
g6
sS'EventType'
p1722
S'TYPE_VIEW_CLICKED'
p1723
sS'PackageName'
p1724
S'com.example.myfristandroid'
p1725
sS'OutBounds'
p1726
S'Rect(135, 379 - 345, 424)'
p1727
sS'Action'
p1728
S'[ ClassName: android.widget.Button; Text: [\xe7\xb3\xbb\xe7\xbb\x9f\xe7\xae\xa1\xe7\x90\x86\xe5\x91\x98]; ContentDescription: null; ItemCount: -1; CurrentItemIndex: -1; IsEnabled: true; IsPassword: false; IsChecked: false; IsFullScreen: false; Scrollable: false; BeforeText: null; FromIndex: -1; ToIndex: -1; ScrollX: -1; ScrollY: -1; MaxScrollX: -1; MaxScrollY: -1; AddedCount: -1; RemovedCount: -1; ParcelableData: null ]'
p1729
sS'MovementGranularity'
p1730
g6
sa(dp1731
S'EventTime'
p1732
S'7629202'
p1733
sg4
L1449715695850L
sS'recordCount'
p1734
g6
sS'EventType'
p1735
S'TYPE_WINDOW_CONTENT_CHANGED'
p1736
sS'PackageName'
p1737
S'com.example.myfristandroid'
p1738
sS'OutBounds'
p1739
S'Rect(0, 0 - 480, 854)'
p1740
sS'Action'
p1741
S'[ ClassName: android.widget.FrameLayout; Text: []; ContentDescription: null; ItemCount: -1; CurrentItemIndex: -1; IsEnabled: true; IsPassword: false; IsChecked: false; IsFullScreen: false; Scrollable: false; BeforeText: null; FromIndex: -1; ToIndex: -1; ScrollX: -1; ScrollY: -1; MaxScrollX: -1; MaxScrollY: -1; AddedCount: -1; RemovedCount: -1; ParcelableData: null ]'
p1742
sS'MovementGranularity'
p1743
g6
sa(dp1744
S'EventTime'
p1745
S'7633611'
p1746
sg4
L1449715700203L
sS'recordCount'
p1747
g6
sS'EventType'
p1748
S'TYPE_VIEW_CLICKED'
p1749
sS'PackageName'
p1750
S'com.example.myfristandroid'
p1751
sS'OutBounds'
p1752
S'Rect(135, 379 - 345, 424)'
p1753
sS'Action'
p1754
S'[ ClassName: android.widget.Button; Text: [\xe7\x99\xbb\xe5\xbd\x95]; ContentDescription: null; ItemCount: -1; CurrentItemIndex: -1; IsEnabled: true; IsPassword: false; IsChecked: false; IsFullScreen: false; Scrollable: false; BeforeText: null; FromIndex: -1; ToIndex: -1; ScrollX: -1; ScrollY: -1; MaxScrollX: -1; MaxScrollY: -1; AddedCount: -1; RemovedCount: -1; ParcelableData: null ]'
p1755
sS'MovementGranularity'
p1756
g6
sa(dp1757
S'EventTime'
p1758
S'7633722'
p1759
sg4
L1449715700358L
sS'recordCount'
p1760
g6
sS'EventType'
p1761
S'TYPE_WINDOW_CONTENT_CHANGED'
p1762
sS'PackageName'
p1763
S'com.example.myfristandroid'
p1764
sS'OutBounds'
p1765
S'Rect(0, 0 - 480, 854)'
p1766
sS'Action'
p1767
S'[ ClassName: android.widget.FrameLayout; Text: []; ContentDescription: null; ItemCount: -1; CurrentItemIndex: -1; IsEnabled: true; IsPassword: false; IsChecked: false; IsFullScreen: false; Scrollable: false; BeforeText: null; FromIndex: -1; ToIndex: -1; ScrollX: -1; ScrollY: -1; MaxScrollX: -1; MaxScrollY: -1; AddedCount: -1; RemovedCount: -1; ParcelableData: null ]'
p1768
sS'MovementGranularity'
p1769
g6
sa.