(lp0
(dp1
S'processID'
p2
S'5294'
p3
sS'SyscTime'
p4
L1449712072245L
sS'priority'
p5
S'D'
p6
sS'tag'
p7
S'MainActivity'
p8
sS'threadID'
p9
S' 5294'
p10
sS'message'
p11
S'V.getTag:null v.id:2131230801\n'
p12
sa(dp13
g2
S'5328'
p14
sg4
L1449712077715L
sg5
g6
sg7
S'ForegroundActivity'
p15
sg9
S' 5344'
p16
sg11
S'\xe6\x9c\xac\xe6\xac\xa1\xe5\x8f\x91\xe9\x80\x81\xe5\xb8\xa7\xe9\x95\xbf:13\t\xe6\x80\xbb\xe5\xb8\xa7\xe9\x95\xbf:108\n'
p17
sa(dp18
g2
S'5328'
p19
sg4
L1449712077775L
sg5
g6
sg7
S'ForegroundActivity'
p20
sg9
S' 5350'
p21
sg11
S'\xe6\x9c\xac\xe6\xac\xa1\xe6\x94\xb6\xe5\x88\xb0\xe5\xb8\xa7\xe9\x95\xbf:13\t\xe6\x80\xbb\xe5\xb8\xa7\xe9\x95\xbf:774\n'
p22
sa(dp23
g2
S'5328'
p24
sg4
L1449712078295L
sg5
g6
sg7
S'SocketService1'
p25
sg9
S' 5346'
p26
sg11
S'\xe6\x9c\xac\xe6\xac\xa1\xe6\x8f\x90\xe5\x8f\x961:LoadPtr:774 HeadIndex:761 GetSize:13 13 0 \xe5\xa4\xb4\xe4\xbf\xa1\xe6\x81\xaf:EB 90 EB 90 EB 90 0D 00 10 01 \n'
p27
sa(dp28
g2
S'5294'
p29
sg4
L1449712081905L
sg5
g6
sg7
S'cn.edu.nju.ise.kikandroid'
p30
sg9
S' 5353'
p31
sg11
S'Log:1449712081915\n'
p32
sa(dp33
g2
S'5294'
p34
sg4
L1449712082565L
sg5
g6
sg7
S'dalvikvm'
p35
sg9
S' 5294'
p36
sg11
S'GC_FOR_ALLOC freed 7495K, 30% free 24450K/34744K, paused 24ms, total 26ms\n'
p37
sa(dp38
g2
S'5294'
p39
sg4
L1449712082615L
sg5
g6
sg7
S'dalvikvm'
p40
sg9
S' 5306'
p41
sg11
S'GC_CONCURRENT freed 3612K, 20% free 28045K/34744K, paused 3ms+4ms, total 29ms\n'
p42
sa(dp43
g2
S'5294'
p44
sg4
L1449712082735L
sg5
g6
sg7
S'cn.edu.nju.ise.kikandroid'
p45
sg9
S' 5353'
p46
sg11
S'Screenshot:1449712082530\n'
p47
sa(dp48
g2
S'5294'
p49
sg4
L1449712085475L
sg5
g6
sg7
S'dalvikvm'
p50
sg9
S' 5294'
p51
sg11
S'GC_FOR_ALLOC freed 3678K, 20% free 28041K/34744K, paused 52ms, total 52ms\n'
p52
sa(dp53
g2
S'5294'
p54
sg4
L1449712085645L
sg5
g6
sg7
S'cn.edu.nju.ise.kikandroid'
p55
sg9
S' 5353'
p56
sg11
S'Screenshot:1449712085380\n'
p57
sa(dp58
g2
S'5294'
p59
sg4
L1449712087935L
sg5
g6
sg7
S'MainActivity'
p60
sg9
S' 5294'
p61
sg11
S'V.getTag:null v.id:2131230802\n'
p62
sa(dp63
g2
S'5294'
p64
sg4
L1449712090815L
sg5
g6
sg7
S'MainActivity'
p65
sg9
S' 5294'
p66
sg11
S'V.getTag:null v.id:2131230738\n'
p67
sa(dp68
g2
S'5294'
p69
sg4
L1449712096405L
sg5
g6
sg7
S'cn.edu.nju.ise.kikandroid'
p70
sg9
S' 5353'
p71
sg11
S'Log:1449712096408\n'
p72
sa(dp73
g2
S'5294'
p74
sg4
L1449712096795L
sg5
g6
sg7
S'cn.edu.nju.ise.kikandroid'
p75
sg9
S' 5353'
p76
sg11
S'Log:1449712096800\n'
p77
sa(dp78
g2
S'5294'
p79
sg4
L1449712097335L
sg5
g6
sg7
S'dalvikvm'
p80
sg9
S' 5294'
p81
sg11
S'GC_FOR_ALLOC freed 7741K, 30% free 24501K/34736K, paused 31ms, total 44ms\n'
p82
sa(dp83
g2
S'5294'
p84
sg4
L1449712097385L
sg5
g6
sg7
S'dalvikvm'
p85
sg9
S' 5306'
p86
sg11
S'GC_CONCURRENT freed 4993K, 24% free 26716K/34736K, paused 4ms+4ms, total 28ms\n'
p87
sa(dp88
g2
S'5294'
p89
sg4
L1449712097525L
sg5
g6
sg7
S'cn.edu.nju.ise.kikandroid'
p90
sg9
S' 5353'
p91
sg11
S'Screenshot:1449712097247\n'
p92
sa(dp93
g2
S'5294'
p94
sg4
L1449712100745L
sg5
g6
sg7
S'dalvikvm'
p95
sg9
S' 5294'
p96
sg11
S'GC_FOR_ALLOC freed 3736K, 12% free 26712K/30032K, paused 28ms, total 28ms\n'
p97
sa(dp98
g2
S'5294'
p99
sg4
L1449712100905L
sg5
g6
sg7
S'cn.edu.nju.ise.kikandroid'
p100
sg9
S' 5353'
p101
sg11
S'Screenshot:1449712100646\n'
p102
sa(dp103
g2
S'5294'
p104
sg4
L1449712102525L
sg5
g6
sg7
S'dalvikvm'
p105
sg9
S' 5294'
p106
sg11
S'GC_FOR_ALLOC freed 7338K, 13% free 23112K/26432K, paused 30ms, total 30ms\n'
p107
sa(dp108
g2
S'5294'
p109
sg4
L1449712102525L
sg5
S'I'
p110
sg7
S'dalvikvm-heap'
p111
sg9
S' 5294'
p112
sg11
S'Grow heap (frag case) to 28.179MB for 3686416-byte allocation\n'
p113
sa(dp114
g2
S'5294'
p115
sg4
L1449712102565L
sg5
g6
sg7
S'dalvikvm'
p116
sg9
S' 5294'
p117
sg11
S'GC_FOR_ALLOC freed 1K, 12% free 26711K/30036K, paused 15ms, total 15ms\n'
p118
sa(dp119
g2
S'5294'
p120
sg4
L1449712102725L
sg5
g6
sg7
S'cn.edu.nju.ise.kikandroid'
p121
sg9
S' 5353'
p122
sg11
S'Screenshot:1449712102457\n'
p123
sa(dp124
g2
S'5328'
p125
sg4
L1449712117715L
sg5
g6
sg7
S'ForegroundActivity'
p126
sg9
S' 5344'
p127
sg11
S'\xe6\x9c\xac\xe6\xac\xa1\xe5\x8f\x91\xe9\x80\x81\xe5\xb8\xa7\xe9\x95\xbf:13\t\xe6\x80\xbb\xe5\xb8\xa7\xe9\x95\xbf:121\n'
p128
sa(dp129
g2
S'5328'
p130
sg4
L1449712117785L
sg5
g6
sg7
S'ForegroundActivity'
p131
sg9
S' 5350'
p132
sg11
S'\xe6\x9c\xac\xe6\xac\xa1\xe6\x94\xb6\xe5\x88\xb0\xe5\xb8\xa7\xe9\x95\xbf:13\t\xe6\x80\xbb\xe5\xb8\xa7\xe9\x95\xbf:787\n'
p133
sa(dp134
g2
S'5328'
p135
sg4
L1449712118345L
sg5
g6
sg7
S'SocketService1'
p136
sg9
S' 5346'
p137
sg11
S'\xe6\x9c\xac\xe6\xac\xa1\xe6\x8f\x90\xe5\x8f\x961:LoadPtr:787 HeadIndex:774 GetSize:13 13 0 \xe5\xa4\xb4\xe4\xbf\xa1\xe6\x81\xaf:EB 90 EB 90 EB 90 0D 00 10 01 \n'
p138
sa(dp139
g2
S'5328'
p140
sg4
L1449712132785L
sg5
g6
sg7
S'dalvikvm'
p141
sg9
S' 5333'
p142
sg11
S'GC_CONCURRENT freed 3930K, 52% free 3877K/8024K, paused 5ms+4ms, total 55ms\n'
p143
sa(dp144
g2
S'5294'
p145
sg4
L1449712141645L
sg5
g6
sg7
S'MainActivity'
p146
sg9
S' 5294'
p147
sg11
S'V.getTag:null v.id:2131230740\n'
p148
sa(dp149
g2
S'5294'
p150
sg4
L1449712141895L
sg5
g110
sg7
S'dalvikvm'
p151
sg9
S' 5309'
p152
sg11
S'Jit: resizing JitTable from 4096 to 8192\n'
p153
sa(dp154
g2
S'5294'
p155
sg4
L1449712149735L
sg5
g6
sg7
S'dalvikvm'
p156
sg9
S' 5294'
p157
sg11
S'GC_FOR_ALLOC freed 7507K, 13% free 23120K/26432K, paused 36ms, total 40ms\n'
p158
sa(dp159
g2
S'5294'
p160
sg4
L1449712149735L
sg5
g110
sg7
S'dalvikvm-heap'
p161
sg9
S' 5294'
p162
sg11
S'Grow heap (frag case) to 28.187MB for 3686416-byte allocation\n'
p163
sa(dp164
g2
S'5294'
p165
sg4
L1449712149805L
sg5
g6
sg7
S'dalvikvm'
p166
sg9
S' 5294'
p167
sg11
S'GC_FOR_ALLOC freed 5K, 12% free 26716K/30036K, paused 21ms, total 21ms\n'
p168
sa(dp169
g2
S'5294'
p170
sg4
L1449712150085L
sg5
g6
sg7
S'cn.edu.nju.ise.kikandroid'
p171
sg9
S' 5353'
p172
sg11
S'Screenshot:1449712149646\n'
p173
sa(dp174
g2
S'5294'
p175
sg4
L1449712151255L
sg5
g6
sg7
S'cn.edu.nju.ise.kikandroid'
p176
sg9
S' 5353'
p177
sg11
S'Log:1449712151261\n'
p178
sa(dp179
g2
S'5328'
p180
sg4
L1449712157715L
sg5
g6
sg7
S'ForegroundActivity'
p181
sg9
S' 5344'
p182
sg11
S'\xe6\x9c\xac\xe6\xac\xa1\xe5\x8f\x91\xe9\x80\x81\xe5\xb8\xa7\xe9\x95\xbf:13\t\xe6\x80\xbb\xe5\xb8\xa7\xe9\x95\xbf:134\n'
p183
sa(dp184
g2
S'5328'
p185
sg4
L1449712157775L
sg5
g6
sg7
S'ForegroundActivity'
p186
sg9
S' 5350'
p187
sg11
S'\xe6\x9c\xac\xe6\xac\xa1\xe6\x94\xb6\xe5\x88\xb0\xe5\xb8\xa7\xe9\x95\xbf:13\t\xe6\x80\xbb\xe5\xb8\xa7\xe9\x95\xbf:800\n'
p188
sa(dp189
g2
S'5294'
p190
sg4
L1449712158405L
sg5
g6
sg7
S'MainActivity'
p191
sg9
S' 5294'
p192
sg11
S'V.getTag:null v.id:2131230796\n'
p193
sa(dp194
g2
S'5328'
p195
sg4
L1449712158475L
sg5
g6
sg7
S'SocketService1'
p196
sg9
S' 5346'
p197
sg11
S'\xe6\x9c\xac\xe6\xac\xa1\xe6\x8f\x90\xe5\x8f\x961:LoadPtr:800 HeadIndex:787 GetSize:13 13 0 \xe5\xa4\xb4\xe4\xbf\xa1\xe6\x81\xaf:EB 90 EB 90 EB 90 0D 00 10 01 \n'
p198
sa(dp199
g2
S'5294'
p200
sg4
L1449712158595L
sg5
g6
sg7
S'StrictMode'
p201
sg9
S' 5294'
p202
sg11
S'StrictMode policy violation; ~duration=187 ms: android.os.StrictMode$StrictModeDiskReadViolation: policy=23 violation=2\n\tat android.os.StrictMode$AndroidBlockGuardPolicy.onReadFromDisk(StrictMode.java:1126)\n\tat libcore.io.BlockGuardOs.open(BlockGuardOs.java:106)\n\tat libcore.io.IoBridge.open(IoBridge.java:393)\n\tat java.io.FileOutputStream.<init>(FileOutputStream.java:88)\n\tat java.io.FileOutputStream.<init>(FileOutputStream.java:73)\n\tat android.app.SharedPreferencesImpl.createFileOutputStream(SharedPreferencesImpl.java:543)\n\tat android.app.SharedPreferencesImpl.writeToFile(SharedPreferencesImpl.java:591)\n\tat android.app.SharedPreferencesImpl.access$800(SharedPreferencesImpl.java:52)\n\tat android.app.SharedPreferencesImpl$2.run(SharedPreferencesImpl.java:511)\n\tat android.app.SharedPreferencesImpl.enqueueDiskWrite(SharedPreferencesImpl.java:532)\n\tat android.app.SharedPreferencesImpl.access$100(SharedPreferencesImpl.java:52)\n\tat android.app.SharedPreferencesImpl$EditorImpl.commit(SharedPreferencesImpl.java:454)\n\tat com.example.myfristandroid.MainActivity.SaveCfg(MainActivity.java:2050)\n\tat com.example.myfristandroid.MainActivity.onClick(MainActivity.java:1672)\n\tat android.view.View.performClick(View.java:4240)\n\tat android.view.View$PerformClick.run(View.java:17752)\n\tat android.os.Handler.handleCallback(Handler.java:730)\n\tat android.os.Handler.dispatchMessage(Handler.java:92)\n\tat android.os.Looper.loop(Looper.java:137)\n\tat android.app.ActivityThread.main(ActivityThread.java:5473)\n\tat java.lang.reflect.Method.invokeNative(Native Method)\n\tat java.lang.reflect.Method.invoke(Method.java:525)\n\tat com.android.internal.os.ZygoteInit$MethodAndArgsCaller.run(ZygoteInit.java:804)\n\tat com.android.internal.os.ZygoteInit.main(ZygoteInit.java:620)\n\tat dalvik.system.NativeStart.main(Native Method)\n'
p203
sa(dp204
g2
S'5294'
p205
sg4
L1449712158595L
sg5
g6
sg7
S'StrictMode'
p206
sg9
S' 5294'
p207
sg11
S'StrictMode policy violation; ~duration=180 ms: android.os.StrictMode$StrictModeDiskWriteViolation: policy=23 violation=1\n\tat android.os.StrictMode$AndroidBlockGuardPolicy.onWriteToDisk(StrictMode.java:1100)\n\tat libcore.io.BlockGuardOs.write(BlockGuardOs.java:196)\n\tat libcore.io.IoBridge.write(IoBridge.java:450)\n\tat java.io.FileOutputStream.write(FileOutputStream.java:187)\n\tat com.android.internal.util.FastXmlSerializer.flushBytes(FastXmlSerializer.java:232)\n\tat com.android.internal.util.FastXmlSerializer.flush(FastXmlSerializer.java:253)\n\tat com.android.internal.util.FastXmlSerializer.endDocument(FastXmlSerializer.java:198)\n\tat com.android.internal.util.XmlUtils.writeMapXml(XmlUtils.java:182)\n\tat android.app.SharedPreferencesImpl.writeToFile(SharedPreferencesImpl.java:596)\n\tat android.app.SharedPreferencesImpl.access$800(SharedPreferencesImpl.java:52)\n\tat android.app.SharedPreferencesImpl$2.run(SharedPreferencesImpl.java:511)\n\tat android.app.SharedPreferencesImpl.enqueueDiskWrite(SharedPreferencesImpl.java:532)\n\tat android.app.SharedPreferencesImpl.access$100(SharedPreferencesImpl.java:52)\n\tat android.app.SharedPreferencesImpl$EditorImpl.commit(SharedPreferencesImpl.java:454)\n\tat com.example.myfristandroid.MainActivity.SaveCfg(MainActivity.java:2050)\n\tat com.example.myfristandroid.MainActivity.onClick(MainActivity.java:1672)\n\tat android.view.View.performClick(View.java:4240)\n\tat android.view.View$PerformClick.run(View.java:17752)\n\tat android.os.Handler.handleCallback(Handler.java:730)\n\tat android.os.Handler.dispatchMessage(Handler.java:92)\n\tat android.os.Looper.loop(Looper.java:137)\n\tat android.app.ActivityThread.main(ActivityThread.java:5473)\n\tat java.lang.reflect.Method.invokeNative(Native Method)\n\tat java.lang.reflect.Method.invoke(Method.java:525)\n\tat com.android.internal.os.ZygoteInit$MethodAndArgsCaller.run(ZygoteInit.java:804)\n\tat com.android.internal.os.ZygoteInit.main(ZygoteInit.java:620)\n\tat dalvik.system.NativeStart.main(Native Method)\n'
p208
sa(dp209
g2
S'5294'
p210
sg4
L1449712158595L
sg5
g6
sg7
S'StrictMode'
p211
sg9
S' 5294'
p212
sg11
S'StrictMode policy violation; ~duration=174 ms: android.os.StrictMode$StrictModeDiskWriteViolation: policy=23 violation=1\n\tat android.os.StrictMode$AndroidBlockGuardPolicy.onWriteToDisk(StrictMode.java:1100)\n\tat libcore.io.BlockGuardOs.fsync(BlockGuardOs.java:96)\n\tat java.io.FileDescriptor.sync(FileDescriptor.java:74)\n\tat android.os.FileUtils.sync(FileUtils.java:77)\n\tat android.app.SharedPreferencesImpl.writeToFile(SharedPreferencesImpl.java:597)\n\tat android.app.SharedPreferencesImpl.access$800(SharedPreferencesImpl.java:52)\n\tat android.app.SharedPreferencesImpl$2.run(SharedPreferencesImpl.java:511)\n\tat android.app.SharedPreferencesImpl.enqueueDiskWrite(SharedPreferencesImpl.java:532)\n\tat android.app.SharedPreferencesImpl.access$100(SharedPreferencesImpl.java:52)\n\tat android.app.SharedPreferencesImpl$EditorImpl.commit(SharedPreferencesImpl.java:454)\n\tat com.example.myfristandroid.MainActivity.SaveCfg(MainActivity.java:2050)\n\tat com.example.myfristandroid.MainActivity.onClick(MainActivity.java:1672)\n\tat android.view.View.performClick(View.java:4240)\n\tat android.view.View$PerformClick.run(View.java:17752)\n\tat android.os.Handler.handleCallback(Handler.java:730)\n\tat android.os.Handler.dispatchMessage(Handler.java:92)\n\tat android.os.Looper.loop(Looper.java:137)\n\tat android.app.ActivityThread.main(ActivityThread.java:5473)\n\tat java.lang.reflect.Method.invokeNative(Native Method)\n\tat java.lang.reflect.Method.invoke(Method.java:525)\n\tat com.android.internal.os.ZygoteInit$MethodAndArgsCaller.run(ZygoteInit.java:804)\n\tat com.android.internal.os.ZygoteInit.main(ZygoteInit.java:620)\n\tat dalvik.system.NativeStart.main(Native Method)\n'
p213
sa(dp214
g2
S'5294'
p215
sg4
L1449712164145L
sg5
g6
sg7
S'cn.edu.nju.ise.kikandroid'
p216
sg9
S' 5353'
p217
sg11
S'Log:1449712164149\n'
p218
sa(dp219
g2
S'5294'
p220
sg4
L1449712165225L
sg5
g6
sg7
S'dalvikvm'
p221
sg9
S' 5294'
p222
sg11
S'GC_FOR_ALLOC freed 7677K, 30% free 24457K/34744K, paused 37ms, total 37ms\n'
p223
sa(dp224
g2
S'5294'
p225
sg4
L1449712165285L
sg5
g6
sg7
S'dalvikvm'
p226
sg9
S' 5306'
p227
sg11
S'GC_CONCURRENT freed 3611K, 20% free 28053K/34744K, paused 3ms+4ms, total 29ms\n'
p228
sa(dp229
g2
S'5294'
p230
sg4
L1449712165405L
sg5
g6
sg7
S'cn.edu.nju.ise.kikandroid'
p231
sg9
S' 5353'
p232
sg11
S'Screenshot:1449712165164\n'
p233
sa(dp234
g2
S'5294'
p235
sg4
L1449712173885L
sg5
g6
sg7
S'dalvikvm'
p236
sg9
S' 5294'
p237
sg11
S'GC_FOR_ALLOC freed 3678K, 20% free 28049K/34736K, paused 28ms, total 28ms\n'
p238
sa(dp239
g2
S'5294'
p240
sg4
L1449712174065L
sg5
g6
sg7
S'cn.edu.nju.ise.kikandroid'
p241
sg9
S' 5353'
p242
sg11
S'Screenshot:1449712173798\n'
p243
sa(dp244
g2
S'5328'
p245
sg4
L1449712197715L
sg5
g6
sg7
S'ForegroundActivity'
p246
sg9
S' 5344'
p247
sg11
S'\xe6\x9c\xac\xe6\xac\xa1\xe5\x8f\x91\xe9\x80\x81\xe5\xb8\xa7\xe9\x95\xbf:13\t\xe6\x80\xbb\xe5\xb8\xa7\xe9\x95\xbf:147\n'
p248
sa(dp249
g2
S'5328'
p250
sg4
L1449712197765L
sg5
g6
sg7
S'ForegroundActivity'
p251
sg9
S' 5350'
p252
sg11
S'\xe6\x9c\xac\xe6\xac\xa1\xe6\x94\xb6\xe5\x88\xb0\xe5\xb8\xa7\xe9\x95\xbf:13\t\xe6\x80\xbb\xe5\xb8\xa7\xe9\x95\xbf:813\n'
p253
sa(dp254
g2
S'5328'
p255
sg4
L1449712198545L
sg5
g6
sg7
S'SocketService1'
p256
sg9
S' 5346'
p257
sg11
S'\xe6\x9c\xac\xe6\xac\xa1\xe6\x8f\x90\xe5\x8f\x961:LoadPtr:813 HeadIndex:800 GetSize:13 13 0 \xe5\xa4\xb4\xe4\xbf\xa1\xe6\x81\xaf:EB 90 EB 90 EB 90 0D 00 10 01 \n'
p258
sa(dp259
g2
S'5294'
p260
sg4
L1449712202105L
sg5
g6
sg7
S'MainActivity'
p261
sg9
S' 5294'
p262
sg11
S'V.getTag:null v.id:2131230799\n'
p263
sa(dp264
g2
S'5294'
p265
sg4
L1449712202105L
sg5
g6
sg7
S'MainActivity'
p266
sg9
S' 5294'
p267
sg11
S'MainActivity Send BroadCast Length:32\n'
p268
sa(dp269
g2
S'5328'
p270
sg4
L1449712202115L
sg5
g6
sg7
S'ForegroundActivity'
p271
sg9
S' 5328'
p272
sg11
S'\xe6\x9c\xac\xe6\xac\xa1\xe5\x8f\x91\xe9\x80\x81\xe5\xb8\xa7\xe9\x95\xbf:32\t\xe6\x80\xbb\xe5\xb8\xa7\xe9\x95\xbf:179\n'
p273
sa(dp274
g2
S'5328'
p275
sg4
L1449712202235L
sg5
g6
sg7
S'ForegroundActivity'
p276
sg9
S' 5350'
p277
sg11
S'\xe6\x9c\xac\xe6\xac\xa1\xe6\x94\xb6\xe5\x88\xb0\xe5\xb8\xa7\xe9\x95\xbf:13\t\xe6\x80\xbb\xe5\xb8\xa7\xe9\x95\xbf:826\n'
p278
sa(dp279
g2
S'5328'
p280
sg4
L1449712202585L
sg5
g6
sg7
S'SocketService1'
p281
sg9
S' 5346'
p282
sg11
S'\xe6\x9c\xac\xe6\xac\xa1\xe6\x8f\x90\xe5\x8f\x961:LoadPtr:826 HeadIndex:813 GetSize:13 13 0 \xe5\xa4\xb4\xe4\xbf\xa1\xe6\x81\xaf:EB 90 EB 90 EB 90 0D 00 00 01 \n'
p283
sa(dp284
g2
S'5294'
p285
sg4
L1449712202705L
sg5
g6
sg7
S'StrictMode'
p286
sg9
S' 5294'
p287
sg11
S'StrictMode policy violation; ~duration=21 ms: android.os.StrictMode$StrictModeDiskReadViolation: policy=23 violation=2\n\tat android.os.StrictMode$AndroidBlockGuardPolicy.onReadFromDisk(StrictMode.java:1126)\n\tat libcore.io.BlockGuardOs.open(BlockGuardOs.java:106)\n\tat libcore.io.IoBridge.open(IoBridge.java:393)\n\tat java.io.FileOutputStream.<init>(FileOutputStream.java:88)\n\tat java.io.FileOutputStream.<init>(FileOutputStream.java:73)\n\tat android.app.SharedPreferencesImpl.createFileOutputStream(SharedPreferencesImpl.java:543)\n\tat android.app.SharedPreferencesImpl.writeToFile(SharedPreferencesImpl.java:591)\n\tat android.app.SharedPreferencesImpl.access$800(SharedPreferencesImpl.java:52)\n\tat android.app.SharedPreferencesImpl$2.run(SharedPreferencesImpl.java:511)\n\tat android.app.SharedPreferencesImpl.enqueueDiskWrite(SharedPreferencesImpl.java:532)\n\tat android.app.SharedPreferencesImpl.access$100(SharedPreferencesImpl.java:52)\n\tat android.app.SharedPreferencesImpl$EditorImpl.commit(SharedPreferencesImpl.java:454)\n\tat com.example.myfristandroid.MainActivity$3.AnalysisMessage(MainActivity.java:565)\n\tat com.example.myfristandroid.MainActivity$3.run(MainActivity.java:478)\n\tat android.app.Activity.runOnUiThread(Activity.java:4774)\n\tat com.example.myfristandroid.MainActivity.AnalysisBroadCastReport(MainActivity.java:470)\n\tat com.example.myfristandroid.MainActivity.access$1(MainActivity.java:468)\n\tat com.example.myfristandroid.MainActivity$CmdReceiver.onReceive(MainActivity.java:371)\n\tat android.app.LoadedApk$ReceiverDispatcher$Args.run(LoadedApk.java:792)\n\tat android.os.Handler.handleCallback(Handler.java:730)\n\tat android.os.Handler.dispatchMessage(Handler.java:92)\n\tat android.os.Looper.loop(Looper.java:137)\n\tat android.app.ActivityThread.main(ActivityThread.java:5473)\n\tat java.lang.reflect.Method.invokeNative(Native Method)\n\tat java.lang.reflect.Method.invoke(Method.java:525)\n\tat com.android.internal.os.ZygoteInit$MethodAndArgsCaller.run(ZygoteInit.java:804)\n\tat com.android.internal.os.ZygoteInit.main(ZygoteInit.java:620)\n\tat dalvik.system.NativeStart.main(Native Method)\n'
p288
sa(dp289
g2
S'5294'
p290
sg4
L1449712202705L
sg5
g6
sg7
S'StrictMode'
p291
sg9
S' 5294'
p292
sg11
S'StrictMode policy violation; ~duration=16 ms: android.os.StrictMode$StrictModeDiskWriteViolation: policy=23 violation=1\n\tat android.os.StrictMode$AndroidBlockGuardPolicy.onWriteToDisk(StrictMode.java:1100)\n\tat libcore.io.BlockGuardOs.write(BlockGuardOs.java:196)\n\tat libcore.io.IoBridge.write(IoBridge.java:450)\n\tat java.io.FileOutputStream.write(FileOutputStream.java:187)\n\tat com.android.internal.util.FastXmlSerializer.flushBytes(FastXmlSerializer.java:232)\n\tat com.android.internal.util.FastXmlSerializer.flush(FastXmlSerializer.java:253)\n\tat com.android.internal.util.FastXmlSerializer.endDocument(FastXmlSerializer.java:198)\n\tat com.android.internal.util.XmlUtils.writeMapXml(XmlUtils.java:182)\n\tat android.app.SharedPreferencesImpl.writeToFile(SharedPreferencesImpl.java:596)\n\tat android.app.SharedPreferencesImpl.access$800(SharedPreferencesImpl.java:52)\n\tat android.app.SharedPreferencesImpl$2.run(SharedPreferencesImpl.java:511)\n\tat android.app.SharedPreferencesImpl.enqueueDiskWrite(SharedPreferencesImpl.java:532)\n\tat android.app.SharedPreferencesImpl.access$100(SharedPreferencesImpl.java:52)\n\tat android.app.SharedPreferencesImpl$EditorImpl.commit(SharedPreferencesImpl.java:454)\n\tat com.example.myfristandroid.MainActivity$3.AnalysisMessage(MainActivity.java:565)\n\tat com.example.myfristandroid.MainActivity$3.run(MainActivity.java:478)\n\tat android.app.Activity.runOnUiThread(Activity.java:4774)\n\tat com.example.myfristandroid.MainActivity.AnalysisBroadCastReport(MainActivity.java:470)\n\tat com.example.myfristandroid.MainActivity.access$1(MainActivity.java:468)\n\tat com.example.myfristandroid.MainActivity$CmdReceiver.onReceive(MainActivity.java:371)\n\tat android.app.LoadedApk$ReceiverDispatcher$Args.run(LoadedApk.java:792)\n\tat android.os.Handler.handleCallback(Handler.java:730)\n\tat android.os.Handler.dispatchMessage(Handler.java:92)\n\tat android.os.Looper.loop(Looper.java:137)\n\tat android.app.ActivityThread.main(ActivityThread.java:5473)\n\tat java.lang.reflect.Method.invokeNative(Native Method)\n\tat java.lang.reflect.Method.invoke(Method.java:525)\n\tat com.android.internal.os.ZygoteInit$MethodAndArgsCaller.run(ZygoteInit.java:804)\n\tat com.android.internal.os.ZygoteInit.main(ZygoteInit.java:620)\n\tat dalvik.system.NativeStart.main(Native Method)\n'
p293
sa(dp294
g2
S'5294'
p295
sg4
L1449712202705L
sg5
g6
sg7
S'StrictMode'
p296
sg9
S' 5294'
p297
sg11
S'StrictMode policy violation; ~duration=10 ms: android.os.StrictMode$StrictModeDiskWriteViolation: policy=23 violation=1\n\tat android.os.StrictMode$AndroidBlockGuardPolicy.onWriteToDisk(StrictMode.java:1100)\n\tat libcore.io.BlockGuardOs.fsync(BlockGuardOs.java:96)\n\tat java.io.FileDescriptor.sync(FileDescriptor.java:74)\n\tat android.os.FileUtils.sync(FileUtils.java:77)\n\tat android.app.SharedPreferencesImpl.writeToFile(SharedPreferencesImpl.java:597)\n\tat android.app.SharedPreferencesImpl.access$800(SharedPreferencesImpl.java:52)\n\tat android.app.SharedPreferencesImpl$2.run(SharedPreferencesImpl.java:511)\n\tat android.app.SharedPreferencesImpl.enqueueDiskWrite(SharedPreferencesImpl.java:532)\n\tat android.app.SharedPreferencesImpl.access$100(SharedPreferencesImpl.java:52)\n\tat android.app.SharedPreferencesImpl$EditorImpl.commit(SharedPreferencesImpl.java:454)\n\tat com.example.myfristandroid.MainActivity$3.AnalysisMessage(MainActivity.java:565)\n\tat com.example.myfristandroid.MainActivity$3.run(MainActivity.java:478)\n\tat android.app.Activity.runOnUiThread(Activity.java:4774)\n\tat com.example.myfristandroid.MainActivity.AnalysisBroadCastReport(MainActivity.java:470)\n\tat com.example.myfristandroid.MainActivity.access$1(MainActivity.java:468)\n\tat com.example.myfristandroid.MainActivity$CmdReceiver.onReceive(MainActivity.java:371)\n\tat android.app.LoadedApk$ReceiverDispatcher$Args.run(LoadedApk.java:792)\n\tat android.os.Handler.handleCallback(Handler.java:730)\n\tat android.os.Handler.dispatchMessage(Handler.java:92)\n\tat android.os.Looper.loop(Looper.java:137)\n\tat android.app.ActivityThread.main(ActivityThread.java:5473)\n\tat java.lang.reflect.Method.invokeNative(Native Method)\n\tat java.lang.reflect.Method.invoke(Method.java:525)\n\tat com.android.internal.os.ZygoteInit$MethodAndArgsCaller.run(ZygoteInit.java:804)\n\tat com.android.internal.os.ZygoteInit.main(ZygoteInit.java:620)\n\tat dalvik.system.NativeStart.main(Native Method)\n'
p298
sa(dp299
g2
S'5328'
p300
sg4
L1449712212825L
sg5
g6
sg7
S'dalvikvm'
p301
sg9
S' 5333'
p302
sg11
S'GC_CONCURRENT freed 1432K, 52% free 3876K/8024K, paused 2ms+1ms, total 17ms\n'
p303
sa(dp304
g2
S'5328'
p305
sg4
L1449712237725L
sg5
g6
sg7
S'ForegroundActivity'
p306
sg9
S' 5344'
p307
sg11
S'\xe6\x9c\xac\xe6\xac\xa1\xe5\x8f\x91\xe9\x80\x81\xe5\xb8\xa7\xe9\x95\xbf:13\t\xe6\x80\xbb\xe5\xb8\xa7\xe9\x95\xbf:192\n'
p308
sa(dp309
g2
S'5328'
p310
sg4
L1449712237835L
sg5
g6
sg7
S'ForegroundActivity'
p311
sg9
S' 5350'
p312
sg11
S'\xe6\x9c\xac\xe6\xac\xa1\xe6\x94\xb6\xe5\x88\xb0\xe5\xb8\xa7\xe9\x95\xbf:13\t\xe6\x80\xbb\xe5\xb8\xa7\xe9\x95\xbf:839\n'
p313
sa(dp314
g2
S'5328'
p315
sg4
L1449712238695L
sg5
g6
sg7
S'SocketService1'
p316
sg9
S' 5346'
p317
sg11
S'\xe6\x9c\xac\xe6\xac\xa1\xe6\x8f\x90\xe5\x8f\x961:LoadPtr:839 HeadIndex:826 GetSize:13 13 0 \xe5\xa4\xb4\xe4\xbf\xa1\xe6\x81\xaf:EB 90 EB 90 EB 90 0D 00 10 01 \n'
p318
sa(dp319
g2
S'5294'
p320
sg4
L1449712272315L
sg5
g6
sg7
S'cn.edu.nju.ise.kikandroid'
p321
sg9
S' 5353'
p322
sg11
S'Log:1449712272319\n'
p323
sa(dp324
g2
S'5294'
p325
sg4
L1449712273185L
sg5
g6
sg7
S'dalvikvm'
p326
sg9
S' 5294'
p327
sg11
S'GC_FOR_ALLOC freed 7662K, 30% free 24507K/34736K, paused 22ms, total 23ms\n'
p328
sa(dp329
g2
S'5294'
p330
sg4
L1449712273225L
sg5
g6
sg7
S'dalvikvm'
p331
sg9
S' 5306'
p332
sg11
S'GC_CONCURRENT freed 3657K, 20% free 28056K/34736K, paused 2ms+3ms, total 23ms\n'
p333
sa(dp334
g2
S'5294'
p335
sg4
L1449712273375L
sg5
g6
sg7
S'cn.edu.nju.ise.kikandroid'
p336
sg9
S' 5353'
p337
sg11
S'Screenshot:1449712273130\n'
p338
sa(dp339
g2
S'5328'
p340
sg4
L1449712277735L
sg5
g6
sg7
S'ForegroundActivity'
p341
sg9
S' 5344'
p342
sg11
S'\xe6\x9c\xac\xe6\xac\xa1\xe5\x8f\x91\xe9\x80\x81\xe5\xb8\xa7\xe9\x95\xbf:13\t\xe6\x80\xbb\xe5\xb8\xa7\xe9\x95\xbf:205\n'
p343
sa(dp344
g2
S'5328'
p345
sg4
L1449712277825L
sg5
g6
sg7
S'ForegroundActivity'
p346
sg9
S' 5350'
p347
sg11
S'\xe6\x9c\xac\xe6\xac\xa1\xe6\x94\xb6\xe5\x88\xb0\xe5\xb8\xa7\xe9\x95\xbf:13\t\xe6\x80\xbb\xe5\xb8\xa7\xe9\x95\xbf:852\n'
p348
sa(dp349
g2
S'5294'
p350
sg4
L1449712278325L
sg5
g6
sg7
S'MainActivity'
p351
sg9
S' 5294'
p352
sg11
S'V.getTag:null v.id:2131230736\n'
p353
sa(dp354
g2
S'5328'
p355
sg4
L1449712278775L
sg5
g6
sg7
S'SocketService1'
p356
sg9
S' 5346'
p357
sg11
S'\xe6\x9c\xac\xe6\xac\xa1\xe6\x8f\x90\xe5\x8f\x961:LoadPtr:852 HeadIndex:839 GetSize:13 13 0 \xe5\xa4\xb4\xe4\xbf\xa1\xe6\x81\xaf:EB 90 EB 90 EB 90 0D 00 10 01 \n'
p358
sa(dp359
g2
S'5294'
p360
sg4
L1449712279285L
sg5
g6
sg7
S'MainActivity'
p361
sg9
S' 5294'
p362
sg11
S'V.getTag:null v.id:2131230738\n'
p363
sa(dp364
g2
S'5294'
p365
sg4
L1449712281565L
sg5
g6
sg7
S'MainActivity'
p366
sg9
S' 5294'
p367
sg11
S'V.getTag:null v.id:2131230791\n'
p368
sa(dp369
g2
S'5294'
p370
sg4
L1449712288045L
sg5
g6
sg7
S'dalvikvm'
p371
sg9
S' 5294'
p372
sg11
S'GC_FOR_ALLOC freed 4351K, 19% free 28194K/34736K, paused 26ms, total 28ms\n'
p373
sa(dp374
g2
S'5294'
p375
sg4
L1449712288235L
sg5
g6
sg7
S'cn.edu.nju.ise.kikandroid'
p376
sg9
S' 5353'
p377
sg11
S'Screenshot:1449712287935\n'
p378
sa(dp379
g2
S'5328'
p380
sg4
L1449712293705L
sg5
g6
sg7
S'dalvikvm'
p381
sg9
S' 5333'
p382
sg11
S'GC_CONCURRENT freed 1441K, 52% free 3877K/8024K, paused 2ms+3ms, total 17ms\n'
p383
sa(dp384
g2
S'5294'
p385
sg4
L1449712302055L
sg5
g6
sg7
S'cn.edu.nju.ise.kikandroid'
p386
sg9
S' 5353'
p387
sg11
S'Log:1449712302063\n'
p388
sa(dp389
g2
S'5294'
p390
sg4
L1449712302235L
sg5
g6
sg7
S'cn.edu.nju.ise.kikandroid'
p391
sg9
S' 5353'
p392
sg11
S'Log:1449712302245\n'
p393
sa(dp394
g2
S'5294'
p395
sg4
L1449712302425L
sg5
g6
sg7
S'cn.edu.nju.ise.kikandroid'
p396
sg9
S' 5353'
p397
sg11
S'Log:1449712302433\n'
p398
sa(dp399
g2
S'5294'
p400
sg4
L1449712305435L
sg5
g6
sg7
S'MainActivity'
p401
sg9
S' 5294'
p402
sg11
S'V.getTag:null v.id:2131230734\n'
p403
sa(dp404
g2
S'5294'
p405
sg4
L1449712317035L
sg5
g6
sg7
S'MainActivity'
p406
sg9
S' 5294'
p407
sg11
S'V.getTag:null v.id:2131230736\n'
p408
sa(dp409
g2
S'5294'
p410
sg4
L1449712317365L
sg5
g6
sg7
S'MainActivity'
p411
sg9
S' 5294'
p412
sg11
S'V.getTag:null v.id:2131230738\n'
p413
sa(dp414
g2
S'5328'
p415
sg4
L1449712317735L
sg5
g6
sg7
S'ForegroundActivity'
p416
sg9
S' 5344'
p417
sg11
S'\xe6\x9c\xac\xe6\xac\xa1\xe5\x8f\x91\xe9\x80\x81\xe5\xb8\xa7\xe9\x95\xbf:13\t\xe6\x80\xbb\xe5\xb8\xa7\xe9\x95\xbf:218\n'
p418
sa(dp419
g2
S'5328'
p420
sg4
L1449712317815L
sg5
g6
sg7
S'ForegroundActivity'
p421
sg9
S' 5350'
p422
sg11
S'\xe6\x9c\xac\xe6\xac\xa1\xe6\x94\xb6\xe5\x88\xb0\xe5\xb8\xa7\xe9\x95\xbf:13\t\xe6\x80\xbb\xe5\xb8\xa7\xe9\x95\xbf:865\n'
p423
sa(dp424
g2
S'5328'
p425
sg4
L1449712318075L
sg5
g6
sg7
S'SocketService1'
p426
sg9
S' 5346'
p427
sg11
S'\xe6\x9c\xac\xe6\xac\xa1\xe6\x8f\x90\xe5\x8f\x961:LoadPtr:865 HeadIndex:852 GetSize:13 13 0 \xe5\xa4\xb4\xe4\xbf\xa1\xe6\x81\xaf:EB 90 EB 90 EB 90 0D 00 10 01 \n'
p428
sa(dp429
g2
S'5294'
p430
sg4
L1449712318615L
sg5
g6
sg7
S'MainActivity'
p431
sg9
S' 5294'
p432
sg11
S'V.getTag:null v.id:2131230790\n'
p433
sa(dp434
g2
S'5294'
p435
sg4
L1449712320075L
sg5
g6
sg7
S'dalvikvm'
p436
sg9
S' 5294'
p437
sg11
S'GC_FOR_ALLOC freed 9161K, 31% free 24546K/35468K, paused 36ms, total 37ms\n'
p438
sa(dp439
g2
S'5294'
p440
sg4
L1449712320135L
sg5
g6
sg7
S'dalvikvm'
p441
sg9
S' 5306'
p442
sg11
S'GC_CONCURRENT freed 5014K, 25% free 26740K/35468K, paused 3ms+4ms, total 25ms\n'
p443
sa(dp444
g2
S'5294'
p445
sg4
L1449712320315L
sg5
g6
sg7
S'cn.edu.nju.ise.kikandroid'
p446
sg9
S' 5353'
p447
sg11
S'Screenshot:1449712319959\n'
p448
sa(dp449
g2
S'5294'
p450
sg4
L1449712353855L
sg5
g6
sg7
S'cn.edu.nju.ise.kikandroid'
p451
sg9
S' 5353'
p452
sg11
S'Log:1449712353865\n'
p453
sa(dp454
g2
S'5294'
p455
sg4
L1449712354385L
sg5
g6
sg7
S'dalvikvm'
p456
sg9
S' 5294'
p457
sg11
S'GC_FOR_ALLOC freed 3787K, 11% free 26736K/30032K, paused 23ms, total 23ms\n'
p458
sa(dp459
g2
S'5294'
p460
sg4
L1449712354565L
sg5
g6
sg7
S'cn.edu.nju.ise.kikandroid'
p461
sg9
S' 5353'
p462
sg11
S'Screenshot:1449712354294\n'
p463
sa(dp464
g2
S'5328'
p465
sg4
L1449712357735L
sg5
g6
sg7
S'ForegroundActivity'
p466
sg9
S' 5344'
p467
sg11
S'\xe6\x9c\xac\xe6\xac\xa1\xe5\x8f\x91\xe9\x80\x81\xe5\xb8\xa7\xe9\x95\xbf:13\t\xe6\x80\xbb\xe5\xb8\xa7\xe9\x95\xbf:231\n'
p468
sa(dp469
g2
S'5328'
p470
sg4
L1449712357795L
sg5
g6
sg7
S'ForegroundActivity'
p471
sg9
S' 5350'
p472
sg11
S'\xe6\x9c\xac\xe6\xac\xa1\xe6\x94\xb6\xe5\x88\xb0\xe5\xb8\xa7\xe9\x95\xbf:13\t\xe6\x80\xbb\xe5\xb8\xa7\xe9\x95\xbf:878\n'
p473
sa(dp474
g2
S'5328'
p475
sg4
L1449712358525L
sg5
g6
sg7
S'SocketService1'
p476
sg9
S' 5346'
p477
sg11
S'\xe6\x9c\xac\xe6\xac\xa1\xe6\x8f\x90\xe5\x8f\x961:LoadPtr:878 HeadIndex:865 GetSize:13 13 0 \xe5\xa4\xb4\xe4\xbf\xa1\xe6\x81\xaf:EB 90 EB 90 EB 90 0D 00 10 01 \n'
p478
sa(dp479
g2
S'5294'
p480
sg4
L1449712359185L
sg5
g6
sg7
S'MainActivity'
p481
sg9
S' 5294'
p482
sg11
S'V.getTag:null v.id:2131230791\n'
p483
sa(dp484
g2
S'5328'
p485
sg4
L1449712373755L
sg5
g6
sg7
S'dalvikvm'
p486
sg9
S' 5333'
p487
sg11
S'GC_CONCURRENT freed 1427K, 52% free 3876K/8024K, paused 2ms+2ms, total 17ms\n'
p488
sa(dp489
g2
S'5328'
p490
sg4
L1449712397745L
sg5
g6
sg7
S'ForegroundActivity'
p491
sg9
S' 5344'
p492
sg11
S'\xe6\x9c\xac\xe6\xac\xa1\xe5\x8f\x91\xe9\x80\x81\xe5\xb8\xa7\xe9\x95\xbf:13\t\xe6\x80\xbb\xe5\xb8\xa7\xe9\x95\xbf:244\n'
p493
sa(dp494
g2
S'5328'
p495
sg4
L1449712397795L
sg5
g6
sg7
S'ForegroundActivity'
p496
sg9
S' 5350'
p497
sg11
S'\xe6\x9c\xac\xe6\xac\xa1\xe6\x94\xb6\xe5\x88\xb0\xe5\xb8\xa7\xe9\x95\xbf:13\t\xe6\x80\xbb\xe5\xb8\xa7\xe9\x95\xbf:891\n'
p498
sa(dp499
g2
S'5328'
p500
sg4
L1449712397915L
sg5
g6
sg7
S'SocketService1'
p501
sg9
S' 5346'
p502
sg11
S'\xe6\x9c\xac\xe6\xac\xa1\xe6\x8f\x90\xe5\x8f\x961:LoadPtr:891 HeadIndex:878 GetSize:13 13 0 \xe5\xa4\xb4\xe4\xbf\xa1\xe6\x81\xaf:EB 90 EB 90 EB 90 0D 00 10 01 \n'
p503
sa(dp504
g2
S'5294'
p505
sg4
L1449712421925L
sg5
g6
sg7
S'cn.edu.nju.ise.kikandroid'
p506
sg9
S' 5353'
p507
sg11
S'Log:1449712421936\n'
p508
sa(dp509
g2
S'5294'
p510
sg4
L1449712422105L
sg5
g6
sg7
S'cn.edu.nju.ise.kikandroid'
p511
sg9
S' 5353'
p512
sg11
S'Log:1449712422108\n'
p513
sa(dp514
g2
S'5294'
p515
sg4
L1449712422945L
sg5
g6
sg7
S'dalvikvm'
p516
sg9
S' 5294'
p517
sg11
S'GC_FOR_ALLOC freed 7933K, 30% free 24555K/34740K, paused 29ms, total 31ms\n'
p518
sa(dp519
g2
S'5294'
p520
sg4
L1449712423035L
sg5
g6
sg7
S'dalvikvm'
p521
sg9
S' 5306'
p522
sg11
S'GC_CONCURRENT freed 3623K, 19% free 28139K/34740K, paused 3ms+3ms, total 58ms\n'
p523
sa(dp524
g2
S'5294'
p525
sg4
L1449712423205L
sg5
g6
sg7
S'cn.edu.nju.ise.kikandroid'
p526
sg9
S' 5353'
p527
sg11
S'Screenshot:1449712422880\n'
p528
sa(dp529
g2
S'5294'
p530
sg4
L1449712424905L
sg5
g6
sg7
S'MainActivity'
p531
sg9
S' 5294'
p532
sg11
S'V.getTag:null v.id:2131230791\n'
p533
sa(dp534
g2
S'5294'
p535
sg4
L1449712429165L
sg5
g6
sg7
S'dalvikvm'
p536
sg9
S' 5294'
p537
sg11
S'GC_FOR_ALLOC freed 4144K, 19% free 28248K/34736K, paused 22ms, total 22ms\n'
p538
sa(dp539
g2
S'5294'
p540
sg4
L1449712429325L
sg5
g6
sg7
S'cn.edu.nju.ise.kikandroid'
p541
sg9
S' 5353'
p542
sg11
S'Screenshot:1449712429049\n'
p543
sa(dp544
g2
S'5294'
p545
sg4
L1449712430685L
sg5
g6
sg7
S'MainActivity'
p546
sg9
S' 5294'
p547
sg11
S'logList.size2():0 com.example.myfristandroid.myListView{41cfa330 V.ED.VC. ......ID 10,10-698,10 #7f08003c app:id/id_lv_logView}\n'
p548
sa(dp549
g2
S'5294'
p550
sg4
L1449712430685L
sg5
g6
sg7
S'MainActivity'
p551
sg9
S' 5294'
p552
sg11
S'MainActivity Send BroadCast Length:22\n'
p553
sa(dp554
g2
S'5328'
p555
sg4
L1449712430695L
sg5
g6
sg7
S'ForegroundActivity'
p556
sg9
S' 5328'
p557
sg11
S'\xe6\x9c\xac\xe6\xac\xa1\xe5\x8f\x91\xe9\x80\x81\xe5\xb8\xa7\xe9\x95\xbf:22\t\xe6\x80\xbb\xe5\xb8\xa7\xe9\x95\xbf:266\n'
p558
sa(dp559
g2
S'5328'
p560
sg4
L1449712430755L
sg5
g6
sg7
S'ForegroundActivity'
p561
sg9
S' 5350'
p562
sg11
S'\xe6\x9c\xac\xe6\xac\xa1\xe6\x94\xb6\xe5\x88\xb0\xe5\xb8\xa7\xe9\x95\xbf:17\t\xe6\x80\xbb\xe5\xb8\xa7\xe9\x95\xbf:908\n'
p563
sa(dp564
g2
S'5328'
p565
sg4
L1449712431255L
sg5
g6
sg7
S'SocketService1'
p566
sg9
S' 5346'
p567
sg11
S'\xe6\x9c\xac\xe6\xac\xa1\xe6\x8f\x90\xe5\x8f\x961:LoadPtr:908 HeadIndex:891 GetSize:17 17 0 \xe5\xa4\xb4\xe4\xbf\xa1\xe6\x81\xaf:EB 90 EB 90 EB 90 11 00 0D 01 \n'
p568
sa(dp569
g2
S'5294'
p570
sg4
L1449712436625L
sg5
g6
sg7
S'cn.edu.nju.ise.kikandroid'
p571
sg9
S' 5353'
p572
sg11
S'Log:1449712436631\n'
p573
sa(dp574
g2
S'5294'
p575
sg4
L1449712437625L
sg5
g6
sg7
S'dalvikvm'
p576
sg9
S' 5294'
p577
sg11
S'GC_FOR_ALLOC freed 7572K, 30% free 24539K/34736K, paused 33ms, total 36ms\n'
p578
sa(dp579
g2
S'5294'
p580
sg4
L1449712437675L
sg5
g6
sg7
S'dalvikvm'
p581
sg9
S' 5306'
p582
sg11
S'GC_CONCURRENT freed 3612K, 20% free 28134K/34736K, paused 3ms+3ms, total 23ms\n'
p583
sa(dp584
g2
S'5294'
p585
sg4
L1449712437825L
sg5
g6
sg7
S'cn.edu.nju.ise.kikandroid'
p586
sg9
S' 5353'
p587
sg11
S'Screenshot:1449712437546\n'
p588
sa(dp589
g2
S'5294'
p590
sg4
L1449712439065L
sg5
g6
sg7
S'dalvikvm'
p591
sg9
S' 5294'
p592
sg11
S'GC_FOR_ALLOC freed 3737K, 20% free 28130K/34736K, paused 18ms, total 18ms\n'
p593
sa(dp594
g2
S'5294'
p595
sg4
L1449712439235L
sg5
g6
sg7
S'cn.edu.nju.ise.kikandroid'
p596
sg9
S' 5353'
p597
sg11
S'Screenshot:1449712438984\n'
p598
sa(dp599
g2
S'5328'
p600
sg4
L1449712453945L
sg5
g6
sg7
S'dalvikvm'
p601
sg9
S' 5333'
p602
sg11
S'GC_CONCURRENT freed 1424K, 52% free 3877K/8024K, paused 4ms+4ms, total 47ms\n'
p603
sa(dp604
g2
S'5328'
p605
sg4
L1449712467805L
sg5
g6
sg7
S'ForegroundActivity'
p606
sg9
S' 5344'
p607
sg11
S'\xe6\x9c\xac\xe6\xac\xa1\xe5\x8f\x91\xe9\x80\x81\xe5\xb8\xa7\xe9\x95\xbf:13\t\xe6\x80\xbb\xe5\xb8\xa7\xe9\x95\xbf:279\n'
p608
sa(dp609
g2
S'5328'
p610
sg4
L1449712467875L
sg5
g6
sg7
S'ForegroundActivity'
p611
sg9
S' 5350'
p612
sg11
S'\xe6\x9c\xac\xe6\xac\xa1\xe6\x94\xb6\xe5\x88\xb0\xe5\xb8\xa7\xe9\x95\xbf:13\t\xe6\x80\xbb\xe5\xb8\xa7\xe9\x95\xbf:921\n'
p613
sa(dp614
g2
S'5328'
p615
sg4
L1449712468805L
sg5
g6
sg7
S'SocketService1'
p616
sg9
S' 5346'
p617
sg11
S'\xe6\x9c\xac\xe6\xac\xa1\xe6\x8f\x90\xe5\x8f\x961:LoadPtr:921 HeadIndex:908 GetSize:13 13 0 \xe5\xa4\xb4\xe4\xbf\xa1\xe6\x81\xaf:EB 90 EB 90 EB 90 0D 00 10 01 \n'
p618
sa(dp619
g2
S'5294'
p620
sg4
L1449712473705L
sg5
S'W'
p621
sg7
S'IInputConnectionWrapper'
p622
sg9
S' 5294'
p623
sg11
S'showStatusIcon on inactive InputConnection\n'
p624
sa(dp625
g2
S'5294'
p626
sg4
L1449712476095L
sg5
g6
sg7
S'dalvikvm'
p627
sg9
S' 5294'
p628
sg11
S'GC_FOR_ALLOC freed 7543K, 30% free 24502K/34736K, paused 26ms, total 26ms\n'
p629
sa(dp630
g2
S'5294'
p631
sg4
L1449712476215L
sg5
g6
sg7
S'dalvikvm'
p632
sg9
S' 5294'
p633
sg11
S'GC_FOR_ALLOC freed 2K, 19% free 28285K/34736K, paused 12ms, total 12ms\n'
p634
sa(dp635
g2
S'5294'
p636
sg4
L1449712476235L
sg5
g110
sg7
S'dalvikvm-heap'
p637
sg9
S' 5294'
p638
sg11
S'Grow heap (frag case) to 44.501MB for 15504848-byte allocation\n'
p639
sa(dp640
g2
S'5294'
p641
sg4
L1449712476265L
sg5
g6
sg7
S'dalvikvm'
p642
sg9
S' 5306'
p643
sg11
S'GC_CONCURRENT freed <1K, 13% free 43426K/49880K, paused 7ms+5ms, total 26ms\n'
p644
sa(dp645
g2
S'5328'
p646
sg4
L1449712476445L
sg5
g6
sg7
S'SocketService'
p647
sg9
S' 5328'
p648
sg11
S'onStartCommand : bLogin:false\n'
p649
sa(dp650
g2
S'7310'
p651
sg4
L1449712481815L
sg5
g6
sg7
S'dalvikvm'
p652
sg9
S' 7310'
p653
sg11
S'Late-enabling CheckJNI\n'
p654
sa(dp655
g2
S'7310'
p656
sg4
L1449712481845L
sg5
g6
sg7
S'ActivityThread'
p657
sg9
S' 7310'
p658
sg11
S'setTargetHeapUtilization:0.75\n'
p659
sa(dp660
g2
S'7310'
p661
sg4
L1449712481845L
sg5
g6
sg7
S'ActivityThread'
p662
sg9
S' 7310'
p663
sg11
S'setTargetHeapConcurrentStart:2097152\n'
p664
sa(dp665
g2
S'7310'
p666
sg4
L1449712482095L
sg5
g6
sg7
S'dalvikvm'
p667
sg9
S' 7310'
p668
sg11
S'GC_FOR_ALLOC freed 83K, 18% free 6659K/8024K, paused 8ms, total 8ms\n'
p669
sa(dp670
g2
S'7310'
p671
sg4
L1449712482115L
sg5
g110
sg7
S'dalvikvm-heap'
p672
sg9
S' 7310'
p673
sg11
S'Grow heap (frag case) to 23.382MB for 15504848-byte allocation\n'
p674
sa(dp675
g2
S'7310'
p676
sg4
L1449712482135L
sg5
g6
sg7
S'dalvikvm'
p677
sg9
S' 7314'
p678
sg11
S'GC_CONCURRENT freed <1K, 6% free 21800K/23168K, paused 3ms+2ms, total 18ms\n'
p679
sa(dp680
g2
S'7334'
p681
sg4
L1449712482375L
sg5
g6
sg7
S'dalvikvm'
p682
sg9
S' 7334'
p683
sg11
S'Late-enabling CheckJNI\n'
p684
sa(dp685
g2
S'7334'
p686
sg4
L1449712482405L
sg5
g6
sg7
S'ActivityThread'
p687
sg9
S' 7334'
p688
sg11
S'setTargetHeapUtilization:0.75\n'
p689
sa(dp690
g2
S'7334'
p691
sg4
L1449712482405L
sg5
g6
sg7
S'ActivityThread'
p692
sg9
S' 7334'
p693
sg11
S'setTargetHeapConcurrentStart:2097152\n'
p694
sa(dp695
g2
S'7310'
p696
sg4
L1449712482425L
sg5
g6
sg7
S'libEGL  '
p697
sg9
S' 7310'
p698
sg11
S'loaded /vendor/lib/egl/libEGL_adreno.so\n'
p699
sa(dp700
g2
S'7310'
p701
sg4
L1449712482425L
sg5
g6
sg7
S'libEGL  '
p702
sg9
S' 7310'
p703
sg11
S'loaded /vendor/lib/egl/libGLESv1_CM_adreno.so\n'
p704
sa(dp705
g2
S'7310'
p706
sg4
L1449712482425L
sg5
g6
sg7
S'libEGL  '
p707
sg9
S' 7310'
p708
sg11
S'loaded /vendor/lib/egl/libGLESv2_adreno.so\n'
p709
sa(dp710
g2
S'7310'
p711
sg4
L1449712482425L
sg5
g110
sg7
S'Adreno-EGL'
p712
sg9
S' 7310'
p713
sg11
S'<qeglDrvAPI_eglInitialize:316>: EGL 1.4 QUALCOMM build: AU_LINUX_ANDROID_JB_3.2_RB2.04.03.00.129.073_msm8226_JB_3.2_RB2__release_AU ()\nOpenGL ES Shader Compiler Version: 20.00.02\nBuild Date: 11/15/13 Fri\nLocal Branch: \nRemote Branch: quic/jb_3.2_rb2.22\nLocal Patches: NONE\nReconstruct Branch: AU_LINUX_ANDROID_JB_3.2_RB2.04.03.00.129.073 +  NOTHING\n'
p714
sa(dp715
g2
S'7334'
p716
sg4
L1449712482435L
sg5
g6
sg7
S'SocketService'
p717
sg9
S' 7334'
p718
sg11
S'onStartCommand : bLogin:false\n'
p719
sa(dp720
g2
S'7334'
p721
sg4
L1449712482435L
sg5
g6
sg7
S'SocketService'
p722
sg9
S' 7334'
p723
sg11
S'pid:7334 myPid:7334\n'
p724
sa(dp725
g2
S'7334'
p726
sg4
L1449712482445L
sg5
g6
sg7
S'SocketService'
p727
sg9
S' 7334'
p728
sg11
S'start to run current thread!id:1106\n'
p729
sa(dp730
g2
S'7310'
p731
sg4
L1449712482465L
sg5
g6
sg7
S'OpenGLRenderer'
p732
sg9
S' 7310'
p733
sg11
S'Enabling debug mode 0\n'
p734
sa(dp735
g2
S'7334'
p736
sg4
L1449712482475L
sg5
g6
sg7
S'SocketService'
p737
sg9
S' 7352'
p738
sg11
S'ip/172.18.198.2 lport:48896 p:143\n'
p739
sa(dp740
g2
S'7334'
p741
sg4
L1449712482475L
sg5
g6
sg7
S'ForegroundActivity'
p742
sg9
S' 7352'
p743
sg11
S'\xe6\x9c\xac\xe6\xac\xa1\xe5\x8f\x91\xe9\x80\x81\xe5\xb8\xa7\xe9\x95\xbf:34\t\xe6\x80\xbb\xe5\xb8\xa7\xe9\x95\xbf:34\n'
p744
sa(dp745
g2
S'7334'
p746
sg4
L1449712482475L
sg5
g6
sg7
S'SocketService'
p747
sg9
S' 7352'
p748
sg11
S'success to connect server!id:1106 bLogin:false\n'
p749
sa(dp750
g2
S'7334'
p751
sg4
L1449712482595L
sg5
g6
sg7
S'ForegroundActivity'
p752
sg9
S' 7354'
p753
sg11
S'\xe6\x9c\xac\xe6\xac\xa1\xe6\x94\xb6\xe5\x88\xb0\xe5\xb8\xa7\xe9\x95\xbf:13\t\xe6\x80\xbb\xe5\xb8\xa7\xe9\x95\xbf:13\n'
p754
sa(dp755
g2
S'7334'
p756
sg4
L1449712483455L
sg5
g6
sg7
S'SocketService1'
p757
sg9
S' 7350'
p758
sg11
S'\xe6\x9c\xac\xe6\xac\xa1\xe6\x8f\x90\xe5\x8f\x961:LoadPtr:13 HeadIndex:0 GetSize:13 13 0 \xe5\xa4\xb4\xe4\xbf\xa1\xe6\x81\xaf:EB 90 EB 90 EB 90 0D 00 0E 01 \n'
p759
sa(dp760
g2
S'7334'
p761
sg4
L1449712483475L
sg5
g6
sg7
S'ForegroundActivity'
p762
sg9
S' 7352'
p763
sg11
S'\xe6\x9c\xac\xe6\xac\xa1\xe5\x8f\x91\xe9\x80\x81\xe5\xb8\xa7\xe9\x95\xbf:11\t\xe6\x80\xbb\xe5\xb8\xa7\xe9\x95\xbf:45\n'
p764
sa(dp765
g2
S'7334'
p766
sg4
L1449712483575L
sg5
g6
sg7
S'ForegroundActivity'
p767
sg9
S' 7354'
p768
sg11
S'\xe6\x9c\xac\xe6\xac\xa1\xe6\x94\xb6\xe5\x88\xb0\xe5\xb8\xa7\xe9\x95\xbf:642\t\xe6\x80\xbb\xe5\xb8\xa7\xe9\x95\xbf:655\n'
p769
sa(dp770
g2
S'7334'
p771
sg4
L1449712484465L
sg5
g6
sg7
S'SocketService1'
p772
sg9
S' 7350'
p773
sg11
S'\xe6\x9c\xac\xe6\xac\xa1\xe6\x8f\x90\xe5\x8f\x961:LoadPtr:655 HeadIndex:13 GetSize:642 130 512 \xe5\xa4\xb4\xe4\xbf\xa1\xe6\x81\xaf:EB 90 EB 90 EB 90 82 02 14 0A \n'
p774
sa(dp775
g2
S'7334'
p776
sg4
L1449712484485L
sg5
g6
sg7
S'ForegroundActivity'
p777
sg9
S' 7352'
p778
sg11
S'\xe6\x9c\xac\xe6\xac\xa1\xe5\x8f\x91\xe9\x80\x81\xe5\xb8\xa7\xe9\x95\xbf:11\t\xe6\x80\xbb\xe5\xb8\xa7\xe9\x95\xbf:56\n'
p779
sa(dp780
g2
S'7334'
p781
sg4
L1449712484555L
sg5
g6
sg7
S'ForegroundActivity'
p782
sg9
S' 7354'
p783
sg11
S'\xe6\x9c\xac\xe6\xac\xa1\xe6\x94\xb6\xe5\x88\xb0\xe5\xb8\xa7\xe9\x95\xbf:67\t\xe6\x80\xbb\xe5\xb8\xa7\xe9\x95\xbf:722\n'
p784
sa(dp785
g2
S'7310'
p786
sg4
L1449712484735L
sg5
g6
sg7
S'MainActivity'
p787
sg9
S' 7310'
p788
sg11
S'Start One Client\n'
p789
sa(dp790
g2
S'7310'
p791
sg4
L1449712484735L
sg5
g6
sg7
S'StrictMode'
p792
sg9
S' 7310'
p793
sg11
S'StrictMode policy violation; ~duration=18 ms: android.os.StrictMode$StrictModeDiskReadViolation: policy=23 violation=2\n\tat android.os.StrictMode$AndroidBlockGuardPolicy.onReadFromDisk(StrictMode.java:1126)\n\tat android.app.SharedPreferencesImpl.awaitLoadedLocked(SharedPreferencesImpl.java:203)\n\tat android.app.SharedPreferencesImpl.edit(SharedPreferencesImpl.java:282)\n\tat com.example.myfristandroid.MainActivity.initCfg(MainActivity.java:454)\n\tat com.example.myfristandroid.MainActivity.onCreate(MainActivity.java:295)\n\tat android.app.Activity.performCreate(Activity.java:5234)\n\tat android.app.Instrumentation.callActivityOnCreate(Instrumentation.java:1087)\n\tat android.app.ActivityThread.performLaunchActivity(ActivityThread.java:2302)\n\tat android.app.ActivityThread.handleLaunchActivity(ActivityThread.java:2388)\n\tat android.app.ActivityThread.access$900(ActivityThread.java:148)\n\tat android.app.ActivityThread$H.handleMessage(ActivityThread.java:1319)\n\tat android.os.Handler.dispatchMessage(Handler.java:99)\n\tat android.os.Looper.loop(Looper.java:137)\n\tat android.app.ActivityThread.main(ActivityThread.java:5473)\n\tat java.lang.reflect.Method.invokeNative(Native Method)\n\tat java.lang.reflect.Method.invoke(Method.java:525)\n\tat com.android.internal.os.ZygoteInit$MethodAndArgsCaller.run(ZygoteInit.java:804)\n\tat com.android.internal.os.ZygoteInit.main(ZygoteInit.java:620)\n\tat dalvik.system.NativeStart.main(Native Method)\n'
p794
sa(dp795
g2
S'7310'
p796
sg4
L1449712484945L
sg5
g6
sg7
S'dalvikvm'
p797
sg9
S' 7314'
p798
sg11
S'GC_CONCURRENT freed 4606K, 18% free 22051K/26764K, paused 3ms+14ms, total 33ms\n'
p799
sa(dp800
g2
S'7334'
p801
sg4
L1449712485505L
sg5
g6
sg7
S'SocketService1'
p802
sg9
S' 7350'
p803
sg11
S'\xe6\x9c\xac\xe6\xac\xa1\xe6\x8f\x90\xe5\x8f\x961:LoadPtr:722 HeadIndex:655 GetSize:67 67 0 \xe5\xa4\xb4\xe4\xbf\xa1\xe6\x81\xaf:EB 90 EB 90 EB 90 43 00 15 02 \n'
p804
sa(dp805
g2
S'7310'
p806
sg4
L1449712485515L
sg5
g6
sg7
S'MainActivity'
p807
sg9
S' 7310'
p808
sg11
S'ServerVersion:22 LocalVersion:12\n'
p809
sa(dp810
g2
S'7310'
p811
sg4
L1449712490105L
sg5
g6
sg7
S'MainActivity'
p812
sg9
S' 7310'
p813
sg11
S'V.getTag:null v.id:2131230738\n'
p814
sa(dp815
g2
S'7310'
p816
sg4
L1449712490215L
sg5
S'V'
p817
sg7
S'RenderScript'
p818
sg9
S' 7310'
p819
sg11
S'0x629da138 Launching thread(s), CPUs 4\n'
p820
sa(dp821
g2
S'7310'
p822
sg4
L1449712492015L
sg5
g6
sg7
S'MainActivity'
p823
sg9
S' 7310'
p824
sg11
S'V.getTag:null v.id:2131230790\n'
p825
sa(dp826
g2
S'7310'
p827
sg4
L1449712505265L
sg5
g6
sg7
S'dalvikvm'
p828
sg9
S' 7310'
p829
sg11
S'GC_FOR_ALLOC freed 1783K, 17% free 22303K/26756K, paused 22ms, total 23ms\n'
p830
sa(dp831
g2
S'7310'
p832
sg4
L1449712505285L
sg5
g110
sg7
S'dalvikvm-heap'
p833
sg9
S' 7310'
p834
sg11
S'Grow heap (frag case) to 27.389MB for 3686416-byte allocation\n'
p835
sa(dp836
g2
S'7310'
p837
sg4
L1449712505325L
sg5
g6
sg7
S'dalvikvm'
p838
sg9
S' 7310'
p839
sg11
S'GC_FOR_ALLOC freed 157K, 16% free 25746K/30360K, paused 18ms, total 18ms\n'
p840
sa(dp841
g2
S'7310'
p842
sg4
L1449712505335L
sg5
g110
sg7
S'dalvikvm-heap'
p843
sg9
S' 7310'
p844
sg11
S'Grow heap (frag case) to 30.751MB for 3686416-byte allocation\n'
p845
sa(dp846
g2
S'7310'
p847
sg4
L1449712505525L
sg5
g6
sg7
S'cn.edu.nju.ise.kikandroid'
p848
sg9
S' 7357'
p849
sg11
S'Screenshot:1449712505149\n'
p850
sa(dp851
g2
S'7310'
p852
sg4
L1449712512455L
sg5
g6
sg7
S'cn.edu.nju.ise.kikandroid'
p853
sg9
S' 7357'
p854
sg11
S'Log:1449712512465\n'
p855
sa(dp856
g2
S'7310'
p857
sg4
L1449712513015L
sg5
g6
sg7
S'cn.edu.nju.ise.kikandroid'
p858
sg9
S' 7357'
p859
sg11
S'Log:1449712513025\n'
p860
sa(dp861
g2
S'7310'
p862
sg4
L1449712513795L
sg5
g6
sg7
S'MainActivity'
p863
sg9
S' 7310'
p864
sg11
S'V.getTag:null v.id:2131230791\n'
p865
sa(dp866
g2
S'7310'
p867
sg4
L1449712515835L
sg5
g6
sg7
S'dalvikvm'
p868
sg9
S' 7310'
p869
sg11
S'GC_FOR_ALLOC freed 7737K, 17% free 22367K/26756K, paused 24ms, total 26ms\n'
p870
sa(dp871
g2
S'7310'
p872
sg4
L1449712515845L
sg5
g110
sg7
S'dalvikvm-heap'
p873
sg9
S' 7310'
p874
sg11
S'Grow heap (frag case) to 27.452MB for 3686416-byte allocation\n'
p875
sa(dp876
g2
S'7310'
p877
sg4
L1449712515875L
sg5
g6
sg7
S'dalvikvm'
p878
sg9
S' 7310'
p879
sg11
S'GC_FOR_ALLOC freed 12K, 15% free 25955K/30360K, paused 15ms, total 15ms\n'
p880
sa(dp881
g2
S'7310'
p882
sg4
L1449712515885L
sg5
g110
sg7
S'dalvikvm-heap'
p883
sg9
S' 7310'
p884
sg11
S'Grow heap (frag case) to 30.956MB for 3686416-byte allocation\n'
p885
sa(dp886
g2
S'7310'
p887
sg4
L1449712516235L
sg5
g6
sg7
S'cn.edu.nju.ise.kikandroid'
p888
sg9
S' 7357'
p889
sg11
S'Screenshot:1449712515768\n'
p890
sa(dp891
g2
S'7334'
p892
sg4
L1449712522435L
sg5
g6
sg7
S'ForegroundActivity'
p893
sg9
S' 7348'
p894
sg11
S'\xe6\x9c\xac\xe6\xac\xa1\xe5\x8f\x91\xe9\x80\x81\xe5\xb8\xa7\xe9\x95\xbf:13\t\xe6\x80\xbb\xe5\xb8\xa7\xe9\x95\xbf:69\n'
p895
sa(dp896
g2
S'7334'
p897
sg4
L1449712522555L
sg5
g6
sg7
S'ForegroundActivity'
p898
sg9
S' 7354'
p899
sg11
S'\xe6\x9c\xac\xe6\xac\xa1\xe6\x94\xb6\xe5\x88\xb0\xe5\xb8\xa7\xe9\x95\xbf:13\t\xe6\x80\xbb\xe5\xb8\xa7\xe9\x95\xbf:735\n'
p900
sa(dp901
g2
S'7310'
p902
sg4
L1449712523445L
sg5
g6
sg7
S'cn.edu.nju.ise.kikandroid'
p903
sg9
S' 7357'
p904
sg11
S'Log:1449712523450\n'
p905
sa(dp906
g2
S'7334'
p907
sg4
L1449712523555L
sg5
g6
sg7
S'SocketService1'
p908
sg9
S' 7350'
p909
sg11
S'\xe6\x9c\xac\xe6\xac\xa1\xe6\x8f\x90\xe5\x8f\x961:LoadPtr:735 HeadIndex:722 GetSize:13 13 0 \xe5\xa4\xb4\xe4\xbf\xa1\xe6\x81\xaf:EB 90 EB 90 EB 90 0D 00 10 01 \n'
p910
sa(dp911
g2
S'7310'
p912
sg4
L1449712525955L
sg5
g6
sg7
S'cn.edu.nju.ise.kikandroid'
p913
sg9
S' 7357'
p914
sg11
S'Log:1449712525960\n'
p915
sa(dp916
g2
S'7310'
p917
sg4
L1449712531995L
sg5
g6
sg7
S'cn.edu.nju.ise.kikandroid'
p918
sg9
S' 7357'
p919
sg11
S'Log:1449712532001\n'
p920
sa(dp921
g2
S'7310'
p922
sg4
L1449712532635L
sg5
g6
sg7
S'dalvikvm'
p923
sg9
S' 7310'
p924
sg11
S'GC_FOR_ALLOC freed 7463K, 17% free 22359K/26756K, paused 18ms, total 18ms\n'
p925
sa(dp926
g2
S'7310'
p927
sg4
L1449712532645L
sg5
g110
sg7
S'dalvikvm-heap'
p928
sg9
S' 7310'
p929
sg11
S'Grow heap (frag case) to 27.444MB for 3686416-byte allocation\n'
p930
sa(dp931
g2
S'7310'
p932
sg4
L1449712532675L
sg5
g6
sg7
S'dalvikvm'
p933
sg9
S' 7310'
p934
sg11
S'GC_FOR_ALLOC freed 4K, 15% free 25956K/30360K, paused 15ms, total 15ms\n'
p935
sa(dp936
g2
S'7310'
p937
sg4
L1449712532685L
sg5
g110
sg7
S'dalvikvm-heap'
p938
sg9
S' 7310'
p939
sg11
S'Grow heap (frag case) to 30.956MB for 3686416-byte allocation\n'
p940
sa(dp941
g2
S'7310'
p942
sg4
L1449712532845L
sg5
g6
sg7
S'cn.edu.nju.ise.kikandroid'
p943
sg9
S' 7357'
p944
sg11
S'Screenshot:1449712532535\n'
p945
sa(dp946
g2
S'7310'
p947
sg4
L1449712546425L
sg5
g6
sg7
S'dalvikvm'
p948
sg9
S' 7310'
p949
sg11
S'GC_FOR_ALLOC freed 7432K, 17% free 22380K/26756K, paused 34ms, total 34ms\n'
p950
sa(dp951
g2
S'7310'
p952
sg4
L1449712546445L
sg5
g110
sg7
S'dalvikvm-heap'
p953
sg9
S' 7310'
p954
sg11
S'Grow heap (frag case) to 27.464MB for 3686416-byte allocation\n'
p955
sa(dp956
g2
S'7310'
p957
sg4
L1449712546475L
sg5
g6
sg7
S'dalvikvm'
p958
sg9
S' 7310'
p959
sg11
S'GC_FOR_ALLOC freed 23K, 15% free 25957K/30360K, paused 16ms, total 16ms\n'
p960
sa(dp961
g2
S'7310'
p962
sg4
L1449712546485L
sg5
g110
sg7
S'dalvikvm-heap'
p963
sg9
S' 7310'
p964
sg11
S'Grow heap (frag case) to 30.958MB for 3686416-byte allocation\n'
p965
sa(dp966
g2
S'7310'
p967
sg4
L1449712546665L
sg5
g6
sg7
S'cn.edu.nju.ise.kikandroid'
p968
sg9
S' 7357'
p969
sg11
S'Screenshot:1449712546336\n'
p970
sa(dp971
g2
S'7310'
p972
sg4
L1449712549705L
sg5
g6
sg7
S'MainActivity'
p973
sg9
S' 7310'
p974
sg11
S'logList.size2():0 com.example.myfristandroid.myListView{41cfa488 V.ED.VC. ......ID 10,10-698,10 #7f08003c app:id/id_lv_logView}\n'
p975
sa(dp976
g2
S'7310'
p977
sg4
L1449712549705L
sg5
g6
sg7
S'MainActivity'
p978
sg9
S' 7310'
p979
sg11
S'MainActivity Send BroadCast Length:22\n'
p980
sa(dp981
g2
S'7334'
p982
sg4
L1449712549725L
sg5
g6
sg7
S'ForegroundActivity'
p983
sg9
S' 7334'
p984
sg11
S'\xe6\x9c\xac\xe6\xac\xa1\xe5\x8f\x91\xe9\x80\x81\xe5\xb8\xa7\xe9\x95\xbf:22\t\xe6\x80\xbb\xe5\xb8\xa7\xe9\x95\xbf:91\n'
p985
sa(dp986
g2
S'7334'
p987
sg4
L1449712549785L
sg5
g6
sg7
S'ForegroundActivity'
p988
sg9
S' 7354'
p989
sg11
S'\xe6\x9c\xac\xe6\xac\xa1\xe6\x94\xb6\xe5\x88\xb0\xe5\xb8\xa7\xe9\x95\xbf:17\t\xe6\x80\xbb\xe5\xb8\xa7\xe9\x95\xbf:752\n'
p990
sa(dp991
g2
S'7334'
p992
sg4
L1449712550615L
sg5
g6
sg7
S'SocketService1'
p993
sg9
S' 7350'
p994
sg11
S'\xe6\x9c\xac\xe6\xac\xa1\xe6\x8f\x90\xe5\x8f\x961:LoadPtr:752 HeadIndex:735 GetSize:17 17 0 \xe5\xa4\xb4\xe4\xbf\xa1\xe6\x81\xaf:EB 90 EB 90 EB 90 11 00 0D 01 \n'
p995
sa(dp996
g2
S'7310'
p997
sg4
L1449712563735L
sg5
g6
sg7
S'cn.edu.nju.ise.kikandroid'
p998
sg9
S' 7357'
p999
sg11
S'Log:1449712563743\n'
p1000
sa(dp1001
g2
S'7310'
p1002
sg4
L1449712564715L
sg5
g6
sg7
S'dalvikvm'
p1003
sg9
S' 7310'
p1004
sg11
S'GC_FOR_ALLOC freed 7545K, 17% free 22362K/26756K, paused 21ms, total 21ms\n'
p1005
sa(dp1006
g2
S'7310'
p1007
sg4
L1449712564725L
sg5
g110
sg7
S'dalvikvm-heap'
p1008
sg9
S' 7310'
p1009
sg11
S'Grow heap (frag case) to 27.447MB for 3686416-byte allocation\n'
p1010
sa(dp1011
g2
S'7310'
p1012
sg4
L1449712564755L
sg5
g6
sg7
S'dalvikvm'
p1013
sg9
S' 7310'
p1014
sg11
S'GC_FOR_ALLOC freed 174K, 16% free 25789K/30360K, paused 14ms, total 14ms\n'
p1015
sa(dp1016
g2
S'7310'
p1017
sg4
L1449712564765L
sg5
g110
sg7
S'dalvikvm-heap'
p1018
sg9
S' 7310'
p1019
sg11
S'Grow heap (frag case) to 30.792MB for 3686416-byte allocation\n'
p1020
sa(dp1021
g2
S'7310'
p1022
sg4
L1449712564935L
sg5
g6
sg7
S'cn.edu.nju.ise.kikandroid'
p1023
sg9
S' 7357'
p1024
sg11
S'Screenshot:1449712564653\n'
p1025
sa(dp1026
g2
S'7310'
p1027
sg4
L1449712567585L
sg5
g6
sg7
S'dalvikvm'
p1028
sg9
S' 7310'
p1029
sg11
S'GC_FOR_ALLOC freed 7354K, 18% free 22173K/26756K, paused 21ms, total 21ms\n'
p1030
sa(dp1031
g2
S'7310'
p1032
sg4
L1449712567605L
sg5
g110
sg7
S'dalvikvm-heap'
p1033
sg9
S' 7310'
p1034
sg11
S'Grow heap (frag case) to 27.262MB for 3686416-byte allocation\n'
p1035
sa(dp1036
g2
S'7310'
p1037
sg4
L1449712567645L
sg5
g6
sg7
S'dalvikvm'
p1038
sg9
S' 7310'
p1039
sg11
S'GC_FOR_ALLOC freed 1K, 16% free 25772K/30360K, paused 16ms, total 16ms\n'
p1040
sa(dp1041
g2
S'7310'
p1042
sg4
L1449712567655L
sg5
g110
sg7
S'dalvikvm-heap'
p1043
sg9
S' 7310'
p1044
sg11
S'Grow heap (frag case) to 30.777MB for 3686416-byte allocation\n'
p1045
sa(dp1046
g2
S'7310'
p1047
sg4
L1449712567865L
sg5
g6
sg7
S'cn.edu.nju.ise.kikandroid'
p1048
sg9
S' 7357'
p1049
sg11
S'Screenshot:1449712567515\n'
p1050
sa(dp1051
g2
S'7310'
p1052
sg4
L1449712575635L
sg5
g6
sg7
S'cn.edu.nju.ise.kikandroid'
p1053
sg9
S' 7357'
p1054
sg11
S'Log:1449712575638\n'
p1055
sa(dp1056
g2
S'7310'
p1057
sg4
L1449712575715L
sg5
g6
sg7
S'dalvikvm'
p1058
sg9
S' 7310'
p1059
sg11
S'GC_FOR_ALLOC freed 7359K, 18% free 22174K/26756K, paused 17ms, total 17ms\n'
p1060
sa(dp1061
g2
S'7310'
p1062
sg4
L1449712575725L
sg5
g110
sg7
S'dalvikvm-heap'
p1063
sg9
S' 7310'
p1064
sg11
S'Grow heap (frag case) to 27.263MB for 3686416-byte allocation\n'
p1065
sa(dp1066
g2
S'7310'
p1067
sg4
L1449712575765L
sg5
g6
sg7
S'dalvikvm'
p1068
sg9
S' 7310'
p1069
sg11
S'GC_FOR_ALLOC freed 1K, 16% free 25773K/30360K, paused 17ms, total 17ms\n'
p1070
sa(dp1071
g2
S'7310'
p1072
sg4
L1449712575775L
sg5
g110
sg7
S'dalvikvm-heap'
p1073
sg9
S' 7310'
p1074
sg11
S'Grow heap (frag case) to 30.778MB for 3686416-byte allocation\n'
p1075
sa(dp1076
g2
S'7310'
p1077
sg4
L1449712575935L
sg5
g6
sg7
S'cn.edu.nju.ise.kikandroid'
p1078
sg9
S' 7357'
p1079
sg11
S'Screenshot:1449712575660\n'
p1080
sa(dp1081
g2
S'7310'
p1082
sg4
L1449712575935L
sg5
g621
sg7
S'dalvikvm'
p1083
sg9
S' 7357'
p1084
sg11
S'threadid=14: thread exiting with uncaught exception (group=0x415ae808)\n'
p1085
sa(dp1086
g2
S'7310'
p1087
sg4
L1449712575935L
sg5
S'E'
p1088
sg7
S'AndroidRuntime'
p1089
sg9
S' 7357'
p1090
sg11
S'FATAL EXCEPTION: Thread-1101\njava.lang.NullPointerException\n\tat android.app.Instrumentation.finish(Instrumentation.java:190)\n\tat cn.edu.nju.ise.kikandroid.AUTInstrument.quitInstr(AUTInstrument.java:195)\n\tat cn.edu.nju.ise.kikandroid.AUTInstrument.startServer(AUTInstrument.java:161)\n\tat cn.edu.nju.ise.kikandroid.AUTInstrument$1.run(AUTInstrument.java:107)\n\tat java.lang.Thread.run(Thread.java:841)\n'
p1091
sa.