(lp0
(dp1
S'EventTime'
p2
S'11760407'
p3
sS'SyscTime'
p4
L1449716955608L
sS'recordCount'
p5
S'0'
p6
sS'EventType'
p7
S'TYPE_WINDOW_STATE_CHANGED'
p8
sS'PackageName'
p9
S'com.example.myfristandroid'
p10
sS'OutBounds'
p11
S'Rect(0, 0 - 1080, 1920)'
p12
sS'Action'
p13
S'[ ClassName: com.example.myfristandroid.SplashActivity; Text: [SE-1800\xe7\xa7\xbb\xe5\x8a\xa8APP]; ContentDescription: null; ItemCount: -1; CurrentItemIndex: -1; IsEnabled: true; IsPassword: false; IsChecked: false; IsFullScreen: true; Scrollable: false; BeforeText: null; FromIndex: -1; ToIndex: -1; ScrollX: -1; ScrollY: -1; MaxScrollX: -1; MaxScrollY: -1; AddedCount: -1; RemovedCount: -1; ParcelableData: null ]'
p14
sS'MovementGranularity'
p15
g6
sa(dp16
S'EventTime'
p17
S'11760598'
p18
sg4
L1449716955706L
sS'recordCount'
p19
g6
sS'EventType'
p20
S'TYPE_WINDOW_CONTENT_CHANGED'
p21
sS'PackageName'
p22
S'com.example.myfristandroid'
p23
sS'OutBounds'
p24
S'Rect(0, 0 - 1080, 1920)'
p25
sS'Action'
p26
S'[ ClassName: android.widget.FrameLayout; Text: []; ContentDescription: null; ItemCount: -1; CurrentItemIndex: -1; IsEnabled: true; IsPassword: false; IsChecked: false; IsFullScreen: false; Scrollable: false; BeforeText: null; FromIndex: -1; ToIndex: -1; ScrollX: -1; ScrollY: -1; MaxScrollX: -1; MaxScrollY: -1; AddedCount: -1; RemovedCount: -1; ParcelableData: null ]'
p27
sS'MovementGranularity'
p28
g6
sa(dp29
S'EventTime'
p30
S'11762670'
p31
sg4
L1449716957811L
sS'recordCount'
p32
g6
sS'EventType'
p33
S'TYPE_WINDOW_STATE_CHANGED'
p34
sS'PackageName'
p35
S'com.example.myfristandroid'
p36
sS'OutBounds'
p37
S'Rect(0, 0 - 1080, 1920)'
p38
sS'Action'
p39
S'[ ClassName: com.example.myfristandroid.MainActivity; Text: [SE-1800\xe7\xa7\xbb\xe5\x8a\xa8APP]; ContentDescription: null; ItemCount: -1; CurrentItemIndex: -1; IsEnabled: true; IsPassword: false; IsChecked: false; IsFullScreen: true; Scrollable: false; BeforeText: null; FromIndex: -1; ToIndex: -1; ScrollX: -1; ScrollY: -1; MaxScrollX: -1; MaxScrollY: -1; AddedCount: -1; RemovedCount: -1; ParcelableData: null ]'
p40
sS'MovementGranularity'
p41
g6
sa(dp42
S'EventTime'
p43
S'11762718'
p44
sg4
L1449716957839L
sS'recordCount'
p45
g6
sS'EventType'
p46
S'TYPE_VIEW_SCROLLED'
p47
sS'PackageName'
p48
S'com.example.myfristandroid'
p49
sS'OutBounds'
p50
S'Rect(1098, 624 - 2142, 624)'
p51
sS'Action'
p52
S'[ ClassName: android.widget.ListView; Text: []; ContentDescription: null; ItemCount: 0; CurrentItemIndex: -1; IsEnabled: true; IsPassword: false; IsChecked: false; IsFullScreen: false; Scrollable: false; BeforeText: null; FromIndex: 0; ToIndex: -1; ScrollX: -1; ScrollY: -1; MaxScrollX: -1; MaxScrollY: -1; AddedCount: -1; RemovedCount: -1; ParcelableData: null ]'
p53
sS'MovementGranularity'
p54
g6
sa(dp55
S'EventTime'
p56
S'11762830'
p57
sg4
L1449716957942L
sS'recordCount'
p58
S'1'
p59
sS'EventType'
p60
S'TYPE_WINDOW_CONTENT_CHANGED'
p61
sS'PackageName'
p62
S'com.example.myfristandroid'
p63
sS'OutBounds'
p64
S'Rect(719, 1197 - 1071, 1253)'
p65
sS'Action'
p66
S'[ ClassName: android.widget.TextView; Text: []; ContentDescription: null; ItemCount: -1; CurrentItemIndex: -1; IsEnabled: true; IsPassword: false; IsChecked: false; IsFullScreen: false; Scrollable: false; BeforeText: null; FromIndex: -1; ToIndex: -1; ScrollX: -1; ScrollY: -1; MaxScrollX: -1; MaxScrollY: -1; AddedCount: -1; RemovedCount: -1; ParcelableData: null ]'
p67
sS'MovementGranularity'
p68
g6
sa(dp69
S'EventTime'
p70
S'11763682'
p71
sg4
L1449716958820L
sS'recordCount'
p72
g6
sS'EventType'
p73
S'TYPE_WINDOW_STATE_CHANGED'
p74
sS'PackageName'
p75
S'com.example.myfristandroid'
p76
sS'OutBounds'
p77
S'Rect(0, 0 - 1080, 1920)'
p78
sS'Action'
p79
S'[ ClassName: com.example.myfristandroid.HuzAlertDialog; Text: [\xe6\x8f\x90\xe7\xa4\xba, \xe7\x89\x88\xe6\x9c\xac\xe6\x9c\x89\xe6\x9b\xb4\xe6\x96\xb0\xef\xbc\x8c\xe6\x98\xaf\xe5\x90\xa6\xe9\x9c\x80\xe8\xa6\x81\xe6\x9b\xb4\xe6\x96\xb0, \xe7\xab\x8b\xe5\x8d\xb3\xe6\x9b\xb4\xe6\x96\xb0, \xe7\xa8\x8d\xe5\x90\x8e\xe6\x9b\xb4\xe6\x96\xb0]; ContentDescription: null; ItemCount: -1; CurrentItemIndex: -1; IsEnabled: true; IsPassword: false; IsChecked: false; IsFullScreen: true; Scrollable: false; BeforeText: null; FromIndex: -1; ToIndex: -1; ScrollX: -1; ScrollY: -1; MaxScrollX: -1; MaxScrollY: -1; AddedCount: -1; RemovedCount: -1; ParcelableData: null ]'
p80
sS'MovementGranularity'
p81
g6
sa(dp82
S'EventTime'
p83
S'11763771'
p84
sg4
L1449716958903L
sS'recordCount'
p85
g6
sS'EventType'
p86
S'TYPE_WINDOW_CONTENT_CHANGED'
p87
sS'PackageName'
p88
S'com.example.myfristandroid'
p89
sS'OutBounds'
p90
S'Rect(89, 917 - 1009, 1017)'
p91
sS'Action'
p92
S'[ ClassName: android.widget.TextView; Text: []; ContentDescription: null; ItemCount: -1; CurrentItemIndex: -1; IsEnabled: true; IsPassword: false; IsChecked: false; IsFullScreen: false; Scrollable: false; BeforeText: null; FromIndex: -1; ToIndex: -1; ScrollX: -1; ScrollY: -1; MaxScrollX: -1; MaxScrollY: -1; AddedCount: -1; RemovedCount: -1; ParcelableData: null ]'
p93
sS'MovementGranularity'
p94
g6
sa(dp95
S'EventTime'
p96
S'11763894'
p97
sg4
L1449716959001L
sS'recordCount'
p98
g6
sS'EventType'
p99
S'TYPE_WINDOW_CONTENT_CHANGED'
p100
sS'PackageName'
p101
S'com.example.myfristandroid'
p102
sS'Action'
p103
S'[ ClassName: android.widget.TextView; Text: []; ContentDescription: null; ItemCount: -1; CurrentItemIndex: -1; IsEnabled: true; IsPassword: false; IsChecked: false; IsFullScreen: false; Scrollable: false; BeforeText: null; FromIndex: -1; ToIndex: -1; ScrollX: -1; ScrollY: -1; MaxScrollX: -1; MaxScrollY: -1; AddedCount: -1; RemovedCount: -1; ParcelableData: null ]'
p104
sS'MovementGranularity'
p105
g6
sa(dp106
S'EventTime'
p107
S'11763968'
p108
sg4
L1449716959076L
sS'recordCount'
p109
g6
sS'EventType'
p110
S'TYPE_VIEW_CLICKED'
p111
sS'PackageName'
p112
S'com.example.myfristandroid'
p113
sS'OutBounds'
p114
S'Rect(558, 1065 - 1018, 1209)'
p115
sS'Action'
p116
S'[ ClassName: android.widget.Button; Text: [\xe7\xa8\x8d\xe5\x90\x8e\xe6\x9b\xb4\xe6\x96\xb0]; ContentDescription: null; ItemCount: -1; CurrentItemIndex: -1; IsEnabled: true; IsPassword: false; IsChecked: false; IsFullScreen: false; Scrollable: false; BeforeText: null; FromIndex: -1; ToIndex: -1; ScrollX: -1; ScrollY: -1; MaxScrollX: -1; MaxScrollY: -1; AddedCount: -1; RemovedCount: -1; ParcelableData: null ]'
p117
sS'MovementGranularity'
p118
g6
sa(dp119
S'EventTime'
p120
S'11764021'
p121
sg4
L1449716959160L
sS'recordCount'
p122
g6
sS'EventType'
p123
S'TYPE_WINDOW_STATE_CHANGED'
p124
sS'PackageName'
p125
S'com.example.myfristandroid'
p126
sS'OutBounds'
p127
S'Rect(0, 0 - 1080, 1920)'
p128
sS'Action'
p129
S'[ ClassName: com.example.myfristandroid.MainActivity; Text: [SE-1800\xe7\xa7\xbb\xe5\x8a\xa8APP]; ContentDescription: null; ItemCount: -1; CurrentItemIndex: -1; IsEnabled: true; IsPassword: false; IsChecked: false; IsFullScreen: true; Scrollable: false; BeforeText: null; FromIndex: -1; ToIndex: -1; ScrollX: -1; ScrollY: -1; MaxScrollX: -1; MaxScrollY: -1; AddedCount: -1; RemovedCount: -1; ParcelableData: null ]'
p130
sS'MovementGranularity'
p131
g6
sa(dp132
S'EventTime'
p133
S'11765409'
p134
sg4
L1449716960517L
sS'recordCount'
p135
g59
sS'EventType'
p136
S'TYPE_VIEW_CLICKED'
p137
sS'PackageName'
p138
S'com.example.myfristandroid'
p139
sS'OutBounds'
p140
S'Rect(364, 929 - 716, 1281)'
p141
sS'Action'
p142
S'[ ClassName: android.widget.RelativeLayout; Text: [\xe5\x87\x8f\xe6\x8e\x92\xe9\x87\x8f\xe4\xbf\xa1\xe6\x81\xaf]; ContentDescription: null; ItemCount: -1; CurrentItemIndex: -1; IsEnabled: true; IsPassword: false; IsChecked: false; IsFullScreen: false; Scrollable: false; BeforeText: null; FromIndex: -1; ToIndex: -1; ScrollX: -1; ScrollY: -1; MaxScrollX: -1; MaxScrollY: -1; AddedCount: -1; RemovedCount: -1; ParcelableData: null ]'
p143
sS'MovementGranularity'
p144
g6
sa(dp145
S'EventTime'
p146
S'11765599'
p147
sg4
L1449716960739L
sS'recordCount'
p148
g6
sS'EventType'
p149
S'TYPE_WINDOW_STATE_CHANGED'
p150
sS'PackageName'
p151
S'com.example.myfristandroid'
p152
sS'OutBounds'
p153
S'Rect(0, 0 - 1080, 1920)'
p154
sS'Action'
p155
S'[ ClassName: com.example.myfristandroid.graphWebShow; Text: [SE-1800\xe7\xa7\xbb\xe5\x8a\xa8APP]; ContentDescription: null; ItemCount: -1; CurrentItemIndex: -1; IsEnabled: true; IsPassword: false; IsChecked: false; IsFullScreen: true; Scrollable: false; BeforeText: null; FromIndex: -1; ToIndex: -1; ScrollX: -1; ScrollY: -1; MaxScrollX: -1; MaxScrollY: -1; AddedCount: -1; RemovedCount: -1; ParcelableData: null ]'
p156
sS'MovementGranularity'
p157
g6
sa(dp158
S'EventTime'
p159
S'11765654'
p160
sg4
L1449716960765L
sS'recordCount'
p161
g6
sS'EventType'
p162
S'TYPE_WINDOW_CONTENT_CHANGED'
p163
sS'PackageName'
p164
S'com.example.myfristandroid'
p165
sS'OutBounds'
p166
S'Rect(0, 0 - 1080, 1920)'
p167
sS'Action'
p168
S'[ ClassName: android.widget.FrameLayout; Text: []; ContentDescription: null; ItemCount: -1; CurrentItemIndex: -1; IsEnabled: true; IsPassword: false; IsChecked: false; IsFullScreen: false; Scrollable: false; BeforeText: null; FromIndex: -1; ToIndex: -1; ScrollX: -1; ScrollY: -1; MaxScrollX: -1; MaxScrollY: -1; AddedCount: -1; RemovedCount: -1; ParcelableData: null ]'
p169
sS'MovementGranularity'
p170
g6
sa(dp171
S'EventTime'
p172
S'11769403'
p173
sg4
L1449716964527L
sS'recordCount'
p174
g6
sS'EventType'
p175
S'TYPE_WINDOW_STATE_CHANGED'
p176
sS'PackageName'
p177
S'com.example.myfristandroid'
p178
sS'OutBounds'
p179
S'Rect(0, 0 - 1080, 1920)'
p180
sS'Action'
p181
S'[ ClassName: com.example.myfristandroid.MainActivity; Text: [SE-1800\xe7\xa7\xbb\xe5\x8a\xa8APP]; ContentDescription: null; ItemCount: -1; CurrentItemIndex: -1; IsEnabled: true; IsPassword: false; IsChecked: false; IsFullScreen: true; Scrollable: false; BeforeText: null; FromIndex: -1; ToIndex: -1; ScrollX: -1; ScrollY: -1; MaxScrollX: -1; MaxScrollY: -1; AddedCount: -1; RemovedCount: -1; ParcelableData: null ]'
p182
sS'MovementGranularity'
p183
g6
sa(dp184
S'EventTime'
p185
S'11770259'
p186
sg4
L1449716965366L
sS'recordCount'
p187
g59
sS'EventType'
p188
S'TYPE_VIEW_CLICKED'
p189
sS'PackageName'
p190
S'com.example.myfristandroid'
p191
sS'OutBounds'
p192
S'Rect(364, 219 - 716, 571)'
p193
sS'Action'
p194
S'[ ClassName: android.widget.RelativeLayout; Text: [\xe6\x9b\xb2\xe7\xba\xbf\xe5\x9b\xbe]; ContentDescription: null; ItemCount: -1; CurrentItemIndex: -1; IsEnabled: true; IsPassword: false; IsChecked: false; IsFullScreen: false; Scrollable: false; BeforeText: null; FromIndex: -1; ToIndex: -1; ScrollX: -1; ScrollY: -1; MaxScrollX: -1; MaxScrollY: -1; AddedCount: -1; RemovedCount: -1; ParcelableData: null ]'
p195
sS'MovementGranularity'
p196
g6
sa(dp197
S'EventTime'
p198
S'11770395'
p199
sg4
L1449716965504L
sS'recordCount'
p200
g6
sS'EventType'
p201
S'TYPE_WINDOW_STATE_CHANGED'
p202
sS'PackageName'
p203
S'com.example.myfristandroid'
p204
sS'OutBounds'
p205
S'Rect(0, 0 - 1080, 1920)'
p206
sS'Action'
p207
S'[ ClassName: com.example.myfristandroid.graphWebShow; Text: [SE-1800\xe7\xa7\xbb\xe5\x8a\xa8APP]; ContentDescription: null; ItemCount: -1; CurrentItemIndex: -1; IsEnabled: true; IsPassword: false; IsChecked: false; IsFullScreen: true; Scrollable: false; BeforeText: null; FromIndex: -1; ToIndex: -1; ScrollX: -1; ScrollY: -1; MaxScrollX: -1; MaxScrollY: -1; AddedCount: -1; RemovedCount: -1; ParcelableData: null ]'
p208
sS'MovementGranularity'
p209
g6
sa(dp210
S'EventTime'
p211
S'11770453'
p212
sg4
L1449716965562L
sS'recordCount'
p213
g6
sS'EventType'
p214
S'TYPE_WINDOW_CONTENT_CHANGED'
p215
sS'PackageName'
p216
S'com.example.myfristandroid'
p217
sS'OutBounds'
p218
S'Rect(0, 210 - 1080, 1920)'
p219
sS'Action'
p220
S'[ ClassName: com.android.org.chromium.content.browser.ContentViewCore; Text: []; ContentDescription: \xe7\xbd\x91\xe9\xa1\xb5\xe8\xa7\x86\xe5\x9b\xbe; ItemCount: -1; CurrentItemIndex: -1; IsEnabled: true; IsPassword: false; IsChecked: false; IsFullScreen: false; Scrollable: false; BeforeText: null; FromIndex: -1; ToIndex: -1; ScrollX: 0; ScrollY: 0; MaxScrollX: 0; MaxScrollY: 0; AddedCount: -1; RemovedCount: -1; ParcelableData: null ]'
p221
sS'MovementGranularity'
p222
g6
sa(dp223
S'EventTime'
p224
S'11775053'
p225
sg4
L1449716970159L
sS'recordCount'
p226
g6
sS'EventType'
p227
S'TYPE_VIEW_CLICKED'
p228
sS'PackageName'
p229
S'com.example.myfristandroid'
p230
sS'OutBounds'
p231
S'Rect(0, 75 - 120, 210)'
p232
sS'Action'
p233
S'[ ClassName: android.widget.ImageButton; Text: []; ContentDescription: null; ItemCount: -1; CurrentItemIndex: -1; IsEnabled: true; IsPassword: false; IsChecked: false; IsFullScreen: false; Scrollable: false; BeforeText: null; FromIndex: -1; ToIndex: -1; ScrollX: -1; ScrollY: -1; MaxScrollX: -1; MaxScrollY: -1; AddedCount: -1; RemovedCount: -1; ParcelableData: null ]'
p234
sS'MovementGranularity'
p235
g6
sa(dp236
S'EventTime'
p237
S'11775095'
p238
sg4
L1449716970217L
sS'recordCount'
p239
g6
sS'EventType'
p240
S'TYPE_WINDOW_STATE_CHANGED'
p241
sS'PackageName'
p242
S'com.example.myfristandroid'
p243
sS'OutBounds'
p244
S'Rect(0, 0 - 1080, 1920)'
p245
sS'Action'
p246
S'[ ClassName: com.example.myfristandroid.MainActivity; Text: [SE-1800\xe7\xa7\xbb\xe5\x8a\xa8APP]; ContentDescription: null; ItemCount: -1; CurrentItemIndex: -1; IsEnabled: true; IsPassword: false; IsChecked: false; IsFullScreen: true; Scrollable: false; BeforeText: null; FromIndex: -1; ToIndex: -1; ScrollX: -1; ScrollY: -1; MaxScrollX: -1; MaxScrollY: -1; AddedCount: -1; RemovedCount: -1; ParcelableData: null ]'
p247
sS'MovementGranularity'
p248
g6
sa(dp249
S'EventTime'
p250
S'11775832'
p251
sg4
L1449716970941L
sS'recordCount'
p252
g59
sS'EventType'
p253
S'TYPE_VIEW_CLICKED'
p254
sS'PackageName'
p255
S'com.example.myfristandroid'
p256
sS'OutBounds'
p257
S'Rect(364, 219 - 716, 571)'
p258
sS'Action'
p259
S'[ ClassName: android.widget.RelativeLayout; Text: [\xe6\x9b\xb2\xe7\xba\xbf\xe5\x9b\xbe]; ContentDescription: null; ItemCount: -1; CurrentItemIndex: -1; IsEnabled: true; IsPassword: false; IsChecked: false; IsFullScreen: false; Scrollable: false; BeforeText: null; FromIndex: -1; ToIndex: -1; ScrollX: -1; ScrollY: -1; MaxScrollX: -1; MaxScrollY: -1; AddedCount: -1; RemovedCount: -1; ParcelableData: null ]'
p260
sS'MovementGranularity'
p261
g6
sa(dp262
S'EventTime'
p263
S'11775957'
p264
sg4
L1449716971065L
sS'recordCount'
p265
g6
sS'EventType'
p266
S'TYPE_WINDOW_STATE_CHANGED'
p267
sS'PackageName'
p268
S'com.example.myfristandroid'
p269
sS'OutBounds'
p270
S'Rect(0, 0 - 1080, 1920)'
p271
sS'Action'
p272
S'[ ClassName: com.example.myfristandroid.graphWebShow; Text: [SE-1800\xe7\xa7\xbb\xe5\x8a\xa8APP]; ContentDescription: null; ItemCount: -1; CurrentItemIndex: -1; IsEnabled: true; IsPassword: false; IsChecked: false; IsFullScreen: true; Scrollable: false; BeforeText: null; FromIndex: -1; ToIndex: -1; ScrollX: -1; ScrollY: -1; MaxScrollX: -1; MaxScrollY: -1; AddedCount: -1; RemovedCount: -1; ParcelableData: null ]'
p273
sS'MovementGranularity'
p274
g6
sa(dp275
S'EventTime'
p276
S'11776015'
p277
sg4
L1449716971124L
sS'recordCount'
p278
g6
sS'EventType'
p279
S'TYPE_WINDOW_CONTENT_CHANGED'
p280
sS'PackageName'
p281
S'com.example.myfristandroid'
p282
sS'OutBounds'
p283
S'Rect(0, 210 - 1080, 1920)'
p284
sS'Action'
p285
S'[ ClassName: com.android.org.chromium.content.browser.ContentViewCore; Text: []; ContentDescription: \xe7\xbd\x91\xe9\xa1\xb5\xe8\xa7\x86\xe5\x9b\xbe; ItemCount: -1; CurrentItemIndex: -1; IsEnabled: true; IsPassword: false; IsChecked: false; IsFullScreen: false; Scrollable: false; BeforeText: null; FromIndex: -1; ToIndex: -1; ScrollX: 0; ScrollY: 0; MaxScrollX: 0; MaxScrollY: 0; AddedCount: -1; RemovedCount: -1; ParcelableData: null ]'
p286
sS'MovementGranularity'
p287
g6
sa(dp288
S'EventTime'
p289
S'11778884'
p290
sg4
L1449716974000L
sS'recordCount'
p291
g6
sS'EventType'
p292
S'TYPE_WINDOW_CONTENT_CHANGED'
p293
sS'PackageName'
p294
S'com.example.myfristandroid'
p295
sS'OutBounds'
p296
S'Rect(0, 0 - 1920, 1080)'
p297
sS'Action'
p298
S'[ ClassName: android.widget.FrameLayout; Text: []; ContentDescription: null; ItemCount: -1; CurrentItemIndex: -1; IsEnabled: true; IsPassword: false; IsChecked: false; IsFullScreen: false; Scrollable: false; BeforeText: null; FromIndex: -1; ToIndex: -1; ScrollX: -1; ScrollY: -1; MaxScrollX: -1; MaxScrollY: -1; AddedCount: -1; RemovedCount: -1; ParcelableData: null ]'
p299
sS'MovementGranularity'
p300
g6
sa(dp301
S'EventTime'
p302
S'11781690'
p303
sg4
L1449716976806L
sS'recordCount'
p304
g6
sS'EventType'
p305
S'TYPE_WINDOW_CONTENT_CHANGED'
p306
sS'PackageName'
p307
S'com.example.myfristandroid'
p308
sS'OutBounds'
p309
S'Rect(1785, 1035 - 1896, 1071)'
p310
sS'Action'
p311
S'[ ClassName: android.view.View; Text: []; ContentDescription: null; ItemCount: 0; CurrentItemIndex: 0; IsEnabled: true; IsPassword: false; IsChecked: false; IsFullScreen: false; Scrollable: false; BeforeText: null; FromIndex: -1; ToIndex: -1; ScrollX: 0; ScrollY: 0; MaxScrollX: 0; MaxScrollY: 0; AddedCount: -1; RemovedCount: -1; ParcelableData: null ]'
p312
sS'MovementGranularity'
p313
g6
sa(dp314
S'EventTime'
p315
S'11784701'
p316
sg4
L1449716979815L
sS'recordCount'
p317
g6
sS'EventType'
p318
S'TYPE_WINDOW_CONTENT_CHANGED'
p319
sS'PackageName'
p320
S'com.example.myfristandroid'
p321
sS'OutBounds'
p322
S'Rect(1785, 1035 - 1896, 1071)'
p323
sS'Action'
p324
S'[ ClassName: android.view.View; Text: []; ContentDescription: null; ItemCount: 0; CurrentItemIndex: 0; IsEnabled: true; IsPassword: false; IsChecked: false; IsFullScreen: false; Scrollable: false; BeforeText: null; FromIndex: -1; ToIndex: -1; ScrollX: 0; ScrollY: 0; MaxScrollX: 0; MaxScrollY: 0; AddedCount: -1; RemovedCount: -1; ParcelableData: null ]'
p325
sS'MovementGranularity'
p326
g6
sa(dp327
S'EventTime'
p328
S'11785641'
p329
sg4
L1449716980762L
sS'recordCount'
p330
g6
sS'EventType'
p331
S'TYPE_WINDOW_STATE_CHANGED'
p332
sS'PackageName'
p333
S'com.example.myfristandroid'
p334
sS'OutBounds'
p335
S'Rect(0, 0 - 1080, 1920)'
p336
sS'Action'
p337
S'[ ClassName: com.example.myfristandroid.MainActivity; Text: [SE-1800\xe7\xa7\xbb\xe5\x8a\xa8APP]; ContentDescription: null; ItemCount: -1; CurrentItemIndex: -1; IsEnabled: true; IsPassword: false; IsChecked: false; IsFullScreen: true; Scrollable: false; BeforeText: null; FromIndex: -1; ToIndex: -1; ScrollX: -1; ScrollY: -1; MaxScrollX: -1; MaxScrollY: -1; AddedCount: -1; RemovedCount: -1; ParcelableData: null ]'
p338
sS'MovementGranularity'
p339
g6
sa(dp340
S'EventTime'
p341
S'11785712'
p342
sg4
L1449716980830L
sS'recordCount'
p343
g6
sS'EventType'
p344
S'TYPE_WINDOW_CONTENT_CHANGED'
p345
sS'PackageName'
p346
S'com.example.myfristandroid'
p347
sS'OutBounds'
p348
S'Rect(0, 210 - 1080, 1755)'
p349
sS'Action'
p350
S'[ ClassName: android.widget.GridView; Text: []; ContentDescription: null; ItemCount: 9; CurrentItemIndex: -1; IsEnabled: true; IsPassword: false; IsChecked: false; IsFullScreen: false; Scrollable: false; BeforeText: null; FromIndex: 0; ToIndex: 8; ScrollX: -1; ScrollY: -1; MaxScrollX: -1; MaxScrollY: -1; AddedCount: -1; RemovedCount: -1; ParcelableData: null ]'
p351
sS'MovementGranularity'
p352
g6
sa(dp353
S'EventTime'
p354
S'11787920'
p355
sg4
L1449716983028L
sS'recordCount'
p356
g59
sS'EventType'
p357
S'TYPE_VIEW_CLICKED'
p358
sS'PackageName'
p359
S'com.example.myfristandroid'
p360
sS'OutBounds'
p361
S'Rect(364, 929 - 716, 1281)'
p362
sS'Action'
p363
S'[ ClassName: android.widget.RelativeLayout; Text: [\xe5\x87\x8f\xe6\x8e\x92\xe9\x87\x8f\xe4\xbf\xa1\xe6\x81\xaf]; ContentDescription: null; ItemCount: -1; CurrentItemIndex: -1; IsEnabled: true; IsPassword: false; IsChecked: false; IsFullScreen: false; Scrollable: false; BeforeText: null; FromIndex: -1; ToIndex: -1; ScrollX: -1; ScrollY: -1; MaxScrollX: -1; MaxScrollY: -1; AddedCount: -1; RemovedCount: -1; ParcelableData: null ]'
p364
sS'MovementGranularity'
p365
g6
sa(dp366
S'EventTime'
p367
S'11788040'
p368
sg4
L1449716983153L
sS'recordCount'
p369
g6
sS'EventType'
p370
S'TYPE_WINDOW_STATE_CHANGED'
p371
sS'PackageName'
p372
S'com.example.myfristandroid'
p373
sS'OutBounds'
p374
S'Rect(0, 0 - 1080, 1920)'
p375
sS'Action'
p376
S'[ ClassName: com.example.myfristandroid.graphWebShow; Text: [SE-1800\xe7\xa7\xbb\xe5\x8a\xa8APP]; ContentDescription: null; ItemCount: -1; CurrentItemIndex: -1; IsEnabled: true; IsPassword: false; IsChecked: false; IsFullScreen: true; Scrollable: false; BeforeText: null; FromIndex: -1; ToIndex: -1; ScrollX: -1; ScrollY: -1; MaxScrollX: -1; MaxScrollY: -1; AddedCount: -1; RemovedCount: -1; ParcelableData: null ]'
p377
sS'MovementGranularity'
p378
g6
sa(dp379
S'EventTime'
p380
S'11788099'
p381
sg4
L1449716983207L
sS'recordCount'
p382
g6
sS'EventType'
p383
S'TYPE_WINDOW_CONTENT_CHANGED'
p384
sS'PackageName'
p385
S'com.example.myfristandroid'
p386
sS'OutBounds'
p387
S'Rect(0, 0 - 1080, 1920)'
p388
sS'Action'
p389
S'[ ClassName: android.widget.FrameLayout; Text: []; ContentDescription: null; ItemCount: -1; CurrentItemIndex: -1; IsEnabled: true; IsPassword: false; IsChecked: false; IsFullScreen: false; Scrollable: false; BeforeText: null; FromIndex: -1; ToIndex: -1; ScrollX: -1; ScrollY: -1; MaxScrollX: -1; MaxScrollY: -1; AddedCount: -1; RemovedCount: -1; ParcelableData: null ]'
p390
sS'MovementGranularity'
p391
g6
sa(dp392
S'EventTime'
p393
S'11800211'
p394
sg4
L1449716995320L
sS'recordCount'
p395
g6
sS'EventType'
p396
S'TYPE_WINDOW_CONTENT_CHANGED'
p397
sS'PackageName'
p398
S'com.example.myfristandroid'
p399
sS'OutBounds'
p400
S'Rect(0, 75 - 1080, 1785)'
p401
sS'Action'
p402
S'[ ClassName: com.android.org.chromium.content.browser.ContentViewCore; Text: []; ContentDescription: \xe7\xbd\x91\xe9\xa1\xb5\xe8\xa7\x86\xe5\x9b\xbe; ItemCount: -1; CurrentItemIndex: -1; IsEnabled: true; IsPassword: false; IsChecked: false; IsFullScreen: false; Scrollable: false; BeforeText: null; FromIndex: -1; ToIndex: -1; ScrollX: 0; ScrollY: 0; MaxScrollX: 0; MaxScrollY: 0; AddedCount: -1; RemovedCount: -1; ParcelableData: null ]'
p403
sS'MovementGranularity'
p404
g6
sa(dp405
S'EventTime'
p406
S'11800312'
p407
sg4
L1449716995421L
sS'recordCount'
p408
g6
sS'EventType'
p409
S'TYPE_WINDOW_CONTENT_CHANGED'
p410
sS'PackageName'
p411
S'com.example.myfristandroid'
p412
sS'OutBounds'
p413
S'Rect(0, 0 - 1920, 1080)'
p414
sS'Action'
p415
S'[ ClassName: android.widget.FrameLayout; Text: []; ContentDescription: null; ItemCount: -1; CurrentItemIndex: -1; IsEnabled: true; IsPassword: false; IsChecked: false; IsFullScreen: false; Scrollable: false; BeforeText: null; FromIndex: -1; ToIndex: -1; ScrollX: -1; ScrollY: -1; MaxScrollX: -1; MaxScrollY: -1; AddedCount: -1; RemovedCount: -1; ParcelableData: null ]'
p416
sS'MovementGranularity'
p417
g6
sa(dp418
S'EventTime'
p419
S'11805330'
p420
sg4
L1449717000451L
sS'recordCount'
p421
g6
sS'EventType'
p422
S'TYPE_WINDOW_STATE_CHANGED'
p423
sS'PackageName'
p424
S'com.example.myfristandroid'
p425
sS'OutBounds'
p426
S'Rect(0, 0 - 1080, 1920)'
p427
sS'Action'
p428
S'[ ClassName: com.example.myfristandroid.MainActivity; Text: [SE-1800\xe7\xa7\xbb\xe5\x8a\xa8APP]; ContentDescription: null; ItemCount: -1; CurrentItemIndex: -1; IsEnabled: true; IsPassword: false; IsChecked: false; IsFullScreen: true; Scrollable: false; BeforeText: null; FromIndex: -1; ToIndex: -1; ScrollX: -1; ScrollY: -1; MaxScrollX: -1; MaxScrollY: -1; AddedCount: -1; RemovedCount: -1; ParcelableData: null ]'
p429
sS'MovementGranularity'
p430
g6
sa(dp431
S'EventTime'
p432
S'11805370'
p433
sg4
L1449717000490L
sS'recordCount'
p434
g6
sS'EventType'
p435
S'TYPE_WINDOW_CONTENT_CHANGED'
p436
sS'PackageName'
p437
S'com.example.myfristandroid'
p438
sS'OutBounds'
p439
S'Rect(0, 210 - 1080, 1755)'
p440
sS'Action'
p441
S'[ ClassName: android.widget.GridView; Text: []; ContentDescription: null; ItemCount: 9; CurrentItemIndex: -1; IsEnabled: true; IsPassword: false; IsChecked: false; IsFullScreen: false; Scrollable: false; BeforeText: null; FromIndex: 0; ToIndex: 8; ScrollX: -1; ScrollY: -1; MaxScrollX: -1; MaxScrollY: -1; AddedCount: -1; RemovedCount: -1; ParcelableData: null ]'
p442
sS'MovementGranularity'
p443
g6
sa.