(lp0
(dp1
S'processID'
p2
S'14349'
p3
sS'SyscTime'
p4
L1449716549638L
sS'priority'
p5
S'D'
p6
sS'tag'
p7
S'dalvikvm'
p8
sS'threadID'
p9
S'14349'
p10
sS'message'
p11
S'Late-enabling CheckJNI\n'
p12
sa(dp13
g2
S'14349'
p14
sg4
L1449716549668L
sg5
g6
sg7
S'dalvikvm'
p15
sg9
S'14349'
p16
sg11
S'Trying to load lib /data/data/com.qihoo360.mobilesafe/files/libavb.so.4x.so 0x428ca0e8\n'
p17
sa(dp18
g2
S'14349'
p19
sg4
L1449716549673L
sg5
g6
sg7
S'dalvikvm'
p20
sg9
S'14349'
p21
sg11
S'Added shared lib /data/data/com.qihoo360.mobilesafe/files/libavb.so.4x.so 0x428ca0e8\n'
p22
sa(dp23
g2
S'14349'
p24
sg4
L1449716549678L
sg5
g6
sg7
S'dalvikvm'
p25
sg9
S'14349'
p26
sg11
S'Trying to load lib /data/data/com.qihoo360.mobilesafe/files/libavb.so.4x.so 0x428ca0e8\n'
p27
sa(dp28
g2
S'14349'
p29
sg4
L1449716549678L
sg5
g6
sg7
S'dalvikvm'
p30
sg9
S'14349'
p31
sg11
S"Shared lib '/data/data/com.qihoo360.mobilesafe/files/libavb.so.4x.so' already loaded in same CL 0x428ca0e8\n"
p32
sa(dp33
g2
S'14349'
p34
sg4
L1449716549733L
sg5
g6
sg7
S'dalvikvm'
p35
sg9
S'14349'
p36
sg11
S'GetMethodID: not returning static method Landroid/os/SystemProperties;.native_get (Ljava/lang/String;)Ljava/lang/String;\n'
p37
sa(dp38
g2
S'14349'
p39
sg4
L1449716549733L
sg5
g6
sg7
S'dalvikvm'
p40
sg9
S'14349'
p41
sg11
S'GetMethodID: not returning static method Ljava/lang/ProcessManager;.exec ([Ljava/lang/String;[Ljava/lang/String;Ljava/lang/String;Ljava/io/FileDescriptor;Ljava/io/FileDescriptor;Ljava/io/FileDescriptor;Z)I\n'
p42
sa(dp43
g2
S'14349'
p44
sg4
L1449716549733L
sg5
g6
sg7
S'dalvikvm'
p45
sg9
S'14349'
p46
sg11
S'GetMethodID: not returning static method Ljava/lang/Class;.classForName (Ljava/lang/String;ZLjava/lang/ClassLoader;)Ljava/lang/Class;\n'
p47
sa(dp48
g2
S'14349'
p49
sg4
L1449716549878L
sg5
S'W'
p50
sg7
S'ApplicationPackageManager'
p51
sg9
S'14349'
p52
sg11
S'getCSCPackageItemText()\n'
p53
sa(dp54
g2
S'14349'
p55
sg4
L1449716549878L
sg5
S'I'
p56
sg7
S'PersonaManager'
p57
sg9
S'14349'
p58
sg11
S'getPersonaService() name persona_policy\n'
p59
sa(dp60
g2
S'14349'
p61
sg4
L1449716549968L
sg5
g6
sg7
S'dalvikvm'
p62
sg9
S'14349'
p63
sg11
S'GC_FOR_ALLOC freed 1014K, 12% free 17059K/19168K, paused 16ms, total 17ms\n'
p64
sa(dp65
g2
S'14349'
p66
sg4
L1449716550048L
sg5
g56
sg7
S'dalvikvm-heap'
p67
sg9
S'14349'
p68
sg11
S'Grow heap (frag case) to 50.995MB for 34885888-byte allocation\n'
p69
sa(dp70
g2
S'14349'
p71
sg4
L1449716550063L
sg5
g6
sg7
S'dalvikvm'
p72
sg9
S'14358'
p73
sg11
S'GC_FOR_ALLOC freed <1K, 4% free 51127K/53240K, paused 13ms, total 13ms\n'
p74
sa(dp75
g2
S'14349'
p76
sg4
L1449716550078L
sg5
g6
sg7
S'dalvikvm'
p77
sg9
S'14353'
p78
sg11
S'GC_CONCURRENT freed 3K, 4% free 51124K/53240K, paused 2ms+2ms, total 15ms\n'
p79
sa(dp80
g2
S'14365'
p81
sg4
L1449716550123L
sg5
g6
sg7
S'dalvikvm'
p82
sg9
S'14365'
p83
sg11
S'Late-enabling CheckJNI\n'
p84
sa(dp85
g2
S'14349'
p86
sg4
L1449716550143L
sg5
g56
sg7
S'        '
p87
sg9
S'14349'
p88
sg11
S'PLATFORM VERSION : JB-MR-2\n'
p89
sa(dp90
g2
S'14365'
p91
sg4
L1449716550148L
sg5
g6
sg7
S'dalvikvm'
p92
sg9
S'14365'
p93
sg11
S'Trying to load lib /data/data/com.qihoo360.mobilesafe/files/libavb.so.4x.so 0x428cb4d8\n'
p94
sa(dp95
g2
S'14365'
p96
sg4
L1449716550148L
sg5
g6
sg7
S'dalvikvm'
p97
sg9
S'14365'
p98
sg11
S'Added shared lib /data/data/com.qihoo360.mobilesafe/files/libavb.so.4x.so 0x428cb4d8\n'
p99
sa(dp100
g2
S'14349'
p101
sg4
L1449716550158L
sg5
g6
sg7
S'mali_winsys'
p102
sg9
S'14349'
p103
sg11
S'new_window_surface returns 0x3000\n'
p104
sa(dp105
g2
S'14365'
p106
sg4
L1449716550158L
sg5
g6
sg7
S'dalvikvm'
p107
sg9
S'14365'
p108
sg11
S'Trying to load lib /data/data/com.qihoo360.mobilesafe/files/libavb.so.4x.so 0x428cb4d8\n'
p109
sa(dp110
g2
S'14365'
p111
sg4
L1449716550158L
sg5
g6
sg7
S'dalvikvm'
p112
sg9
S'14365'
p113
sg11
S"Shared lib '/data/data/com.qihoo360.mobilesafe/files/libavb.so.4x.so' already loaded in same CL 0x428cb4d8\n"
p114
sa(dp115
g2
S'14349'
p116
sg4
L1449716550183L
sg5
g6
sg7
S'OpenGLRenderer'
p117
sg9
S'14349'
p118
sg11
S'Enabling debug mode 0\n'
p119
sa(dp120
g2
S'14365'
p121
sg4
L1449716550233L
sg5
g6
sg7
S'dalvikvm'
p122
sg9
S'14365'
p123
sg11
S'GetMethodID: not returning static method Landroid/os/SystemProperties;.native_get (Ljava/lang/String;)Ljava/lang/String;\n'
p124
sa(dp125
g2
S'14365'
p126
sg4
L1449716550233L
sg5
g6
sg7
S'dalvikvm'
p127
sg9
S'14365'
p128
sg11
S'GetMethodID: not returning static method Ljava/lang/ProcessManager;.exec ([Ljava/lang/String;[Ljava/lang/String;Ljava/lang/String;Ljava/io/FileDescriptor;Ljava/io/FileDescriptor;Ljava/io/FileDescriptor;Z)I\n'
p129
sa(dp130
g2
S'14365'
p131
sg4
L1449716550233L
sg5
g6
sg7
S'dalvikvm'
p132
sg9
S'14365'
p133
sg11
S'GetMethodID: not returning static method Ljava/lang/Class;.classForName (Ljava/lang/String;ZLjava/lang/ClassLoader;)Ljava/lang/Class;\n'
p134
sa(dp135
g2
S'14365'
p136
sg4
L1449716550318L
sg5
g6
sg7
S'SocketService'
p137
sg9
S'14365'
p138
sg11
S'onStartCommand : bLogin:false\n'
p139
sa(dp140
g2
S'14365'
p141
sg4
L1449716550318L
sg5
g6
sg7
S'SocketService'
p142
sg9
S'14365'
p143
sg11
S'pid:14365 myPid:14365\n'
p144
sa(dp145
g2
S'14365'
p146
sg4
L1449716550318L
sg5
g6
sg7
S'SocketService'
p147
sg9
S'14365'
p148
sg11
S'start to run current thread!id:2410\n'
p149
sa(dp150
g2
S'14365'
p151
sg4
L1449716550333L
sg5
g6
sg7
S'SocketService'
p152
sg9
S'14394'
p153
sg11
S'ip/192.168.1.159 lport:34607 p:143\n'
p154
sa(dp155
g2
S'14365'
p156
sg4
L1449716550358L
sg5
g6
sg7
S'ForegroundActivity'
p157
sg9
S'14394'
p158
sg11
S'\xe6\x9c\xac\xe6\xac\xa1\xe5\x8f\x91\xe9\x80\x81\xe5\xb8\xa7\xe9\x95\xbf:35\t\xe6\x80\xbb\xe5\xb8\xa7\xe9\x95\xbf:35\n'
p159
sa(dp160
g2
S'14365'
p161
sg4
L1449716550358L
sg5
g6
sg7
S'SocketService'
p162
sg9
S'14394'
p163
sg11
S'success to connect server!id:2410 bLogin:false\n'
p164
sa(dp165
g2
S'14365'
p166
sg4
L1449716550383L
sg5
g6
sg7
S'ForegroundActivity'
p167
sg9
S'14395'
p168
sg11
S'\xe6\x9c\xac\xe6\xac\xa1\xe6\x94\xb6\xe5\x88\xb0\xe5\xb8\xa7\xe9\x95\xbf:13\t\xe6\x80\xbb\xe5\xb8\xa7\xe9\x95\xbf:13\n'
p169
sa(dp170
g2
S'14365'
p171
sg4
L1449716551318L
sg5
g6
sg7
S'SocketService1'
p172
sg9
S'14392'
p173
sg11
S'\xe6\x9c\xac\xe6\xac\xa1\xe6\x8f\x90\xe5\x8f\x961:LoadPtr:13 HeadIndex:0 GetSize:13 13 0 \xe5\xa4\xb4\xe4\xbf\xa1\xe6\x81\xaf:EB 90 EB 90 EB 90 0D 00 0E 01 \n'
p174
sa(dp175
g2
S'14365'
p176
sg4
L1449716551363L
sg5
g6
sg7
S'ForegroundActivity'
p177
sg9
S'14394'
p178
sg11
S'\xe6\x9c\xac\xe6\xac\xa1\xe5\x8f\x91\xe9\x80\x81\xe5\xb8\xa7\xe9\x95\xbf:11\t\xe6\x80\xbb\xe5\xb8\xa7\xe9\x95\xbf:46\n'
p179
sa(dp180
g2
S'14365'
p181
sg4
L1449716551483L
sg5
g6
sg7
S'ForegroundActivity'
p182
sg9
S'14395'
p183
sg11
S'\xe6\x9c\xac\xe6\xac\xa1\xe6\x94\xb6\xe5\x88\xb0\xe5\xb8\xa7\xe9\x95\xbf:642\t\xe6\x80\xbb\xe5\xb8\xa7\xe9\x95\xbf:655\n'
p184
sa(dp185
g2
S'14349'
p186
sg4
L1449716552163L
sg5
g50
sg7
S'ApplicationPackageManager'
p187
sg9
S'14349'
p188
sg11
S'getCSCPackageItemText()\n'
p189
sa(dp190
g2
S'14349'
p191
sg4
L1449716552203L
sg5
g6
sg7
S'AbsListView'
p192
sg9
S'14349'
p193
sg11
S'Get MotionRecognitionManager\n'
p194
sa(dp195
g2
S'14349'
p196
sg4
L1449716552228L
sg5
g6
sg7
S'AbsListView'
p197
sg9
S'14349'
p198
sg11
S'Get MotionRecognitionManager\n'
p199
sa(dp200
g2
S'14349'
p201
sg4
L1449716552238L
sg5
g6
sg7
S'AbsListView'
p202
sg9
S'14349'
p203
sg11
S'Get MotionRecognitionManager\n'
p204
sa(dp205
g2
S'14349'
p206
sg4
L1449716552273L
sg5
g6
sg7
S'MainActivity'
p207
sg9
S'14349'
p208
sg11
S'Start One Client\n'
p209
sa(dp210
g2
S'14349'
p211
sg4
L1449716552278L
sg5
g6
sg7
S'StrictMode'
p212
sg9
S'14349'
p213
sg11
S'StrictMode policy violation; ~duration=10 ms: android.os.StrictMode$StrictModeDiskReadViolation: policy=23 violation=2\n\tat android.os.StrictMode$AndroidBlockGuardPolicy.onReadFromDisk(StrictMode.java:1146)\n\tat android.app.SharedPreferencesImpl.awaitLoadedLocked(SharedPreferencesImpl.java:203)\n\tat android.app.SharedPreferencesImpl.edit(SharedPreferencesImpl.java:282)\n\tat com.example.myfristandroid.MainActivity.initCfg(MainActivity.java:454)\n\tat com.example.myfristandroid.MainActivity.onCreate(MainActivity.java:295)\n\tat android.app.Activity.performCreate(Activity.java:5389)\n\tat android.app.Instrumentation.callActivityOnCreate(Instrumentation.java:1105)\n\tat com.qihoo360.mobilesafe.loader.c.callActivityOnCreate(SourceFile:98)\n\tat android.app.ActivityThread.performLaunchActivity(ActivityThread.java:2256)\n\tat android.app.ActivityThread.handleLaunchActivity(ActivityThread.java:2350)\n\tat android.app.ActivityThread.access$800(ActivityThread.java:163)\n\tat android.app.ActivityThread$H.handleMessage(ActivityThread.java:1257)\n\tat android.os.Handler.dispatchMessage(Handler.java:102)\n\tat android.os.Looper.loop(Looper.java:157)\n\tat android.app.ActivityThread.main(ActivityThread.java:5335)\n\tat java.lang.reflect.Method.invokeNative(Native Method)\n\tat java.lang.reflect.Method.invoke(Method.java:515)\n\tat com.android.internal.os.ZygoteInit$MethodAndArgsCaller.run(ZygoteInit.java:1265)\n\tat com.android.internal.os.ZygoteInit.main(ZygoteInit.java:1081)\n\tat dalvik.system.NativeStart.main(Native Method)\n'
p214
sa(dp215
g2
S'14349'
p216
sg4
L1449716552303L
sg5
g6
sg7
S'AbsListView'
p217
sg9
S'14349'
p218
sg11
S'unregisterIRListener() is called \n'
p219
sa(dp220
g2
S'14365'
p221
sg4
L1449716552338L
sg5
g6
sg7
S'SocketService1'
p222
sg9
S'14392'
p223
sg11
S'\xe6\x9c\xac\xe6\xac\xa1\xe6\x8f\x90\xe5\x8f\x961:LoadPtr:655 HeadIndex:13 GetSize:642 130 512 \xe5\xa4\xb4\xe4\xbf\xa1\xe6\x81\xaf:EB 90 EB 90 EB 90 82 02 14 0A \n'
p224
sa(dp225
g2
S'14349'
p226
sg4
L1449716552363L
sg5
g6
sg7
S'mali_winsys'
p227
sg9
S'14349'
p228
sg11
S'new_window_surface returns 0x3000\n'
p229
sa(dp230
g2
S'14365'
p231
sg4
L1449716552363L
sg5
g6
sg7
S'ForegroundActivity'
p232
sg9
S'14394'
p233
sg11
S'\xe6\x9c\xac\xe6\xac\xa1\xe5\x8f\x91\xe9\x80\x81\xe5\xb8\xa7\xe9\x95\xbf:11\t\xe6\x80\xbb\xe5\xb8\xa7\xe9\x95\xbf:57\n'
p234
sa(dp235
g2
S'14349'
p236
sg4
L1449716552428L
sg5
g6
sg7
S'AbsListView'
p237
sg9
S'14349'
p238
sg11
S'unregisterIRListener() is called \n'
p239
sa(dp240
g2
S'14349'
p241
sg4
L1449716552433L
sg5
g6
sg7
S'AbsListView'
p242
sg9
S'14349'
p243
sg11
S'unregisterIRListener() is called \n'
p244
sa(dp245
g2
S'14365'
p246
sg4
L1449716552458L
sg5
g6
sg7
S'ForegroundActivity'
p247
sg9
S'14395'
p248
sg11
S'\xe6\x9c\xac\xe6\xac\xa1\xe6\x94\xb6\xe5\x88\xb0\xe5\xb8\xa7\xe9\x95\xbf:67\t\xe6\x80\xbb\xe5\xb8\xa7\xe9\x95\xbf:722\n'
p249
sa(dp250
g2
S'14349'
p251
sg4
L1449716552493L
sg5
g6
sg7
S'MainActivity'
p252
sg9
S'14349'
p253
sg11
S'page0:http://oa.paneng.cn:1143/se9200/realdata/realdata.html\n'
p254
sa(dp255
g2
S'14349'
p256
sg4
L1449716552493L
sg5
g6
sg7
S'MainActivity'
p257
sg9
S'14349'
p258
sg11
S'page1:http://oa.paneng.cn:1143/se9200/graph/gshow.jsp?mRID=1130000050\n'
p259
sa(dp260
g2
S'14349'
p261
sg4
L1449716552493L
sg5
g6
sg7
S'MainActivity'
p262
sg9
S'14349'
p263
sg11
S'page2:http://oa.paneng.cn:1143/se9200/graph/gshow.jsp?mRID=1130000052\n'
p264
sa(dp265
g2
S'14349'
p266
sg4
L1449716552493L
sg5
g6
sg7
S'MainActivity'
p267
sg9
S'14349'
p268
sg11
S'page3:http://oa.paneng.cn:1143/se9200/graph/gshow.jsp?mRID=1130000054\n'
p269
sa(dp270
g2
S'14349'
p271
sg4
L1449716552493L
sg5
g6
sg7
S'MainActivity'
p272
sg9
S'14349'
p273
sg11
S'page4:http://oa.paneng.cn:1143/se9200/graph/gshow.jsp?mRID=1130000007\n'
p274
sa(dp275
g2
S'14349'
p276
sg4
L1449716552493L
sg5
g6
sg7
S'MainActivity'
p277
sg9
S'14349'
p278
sg11
S'page5:http://oa.paneng.cn:1143/se9200/graph/gshow.jsp?mRID=1130000047\n'
p279
sa(dp280
g2
S'14349'
p281
sg4
L1449716552493L
sg5
g6
sg7
S'MainActivity'
p282
sg9
S'14349'
p283
sg11
S'page6:http://oa.paneng.cn:1143/se9200/graph/gshow.jsp?mRID=1130000011\n'
p284
sa(dp285
g2
S'14349'
p286
sg4
L1449716552493L
sg5
g6
sg7
S'MainActivity'
p287
sg9
S'14349'
p288
sg11
S'page7:http://oa.paneng.cn:1143/se9200/graph/gshow.jsp?mRID=1130000005\n'
p289
sa(dp290
g2
S'14349'
p291
sg4
L1449716552493L
sg5
g6
sg7
S'MainActivity'
p292
sg9
S'14349'
p293
sg11
S'page8:http://oa.paneng.cn:1143/se9200/graph/gshow.jsp?mRID=1130000148\n'
p294
sa(dp295
g2
S'14349'
p296
sg4
L1449716552493L
sg5
g6
sg7
S'MainActivity'
p297
sg9
S'14349'
p298
sg11
S'page9:http://oa.paneng.cn:1143/se9200/graph/gshow.jsp?mRID=1130000296\n'
p299
sa(dp300
g2
S'14349'
p301
sg4
L1449716552498L
sg5
g6
sg7
S'AbsListView'
p302
sg9
S'14349'
p303
sg11
S'unregisterIRListener() is called \n'
p304
sa(dp305
g2
S'14349'
p306
sg4
L1449716552528L
sg5
g6
sg7
S'AbsListView'
p307
sg9
S'14349'
p308
sg11
S'unregisterIRListener() is called \n'
p309
sa(dp310
g2
S'14365'
p311
sg4
L1449716553348L
sg5
g6
sg7
S'SocketService1'
p312
sg9
S'14392'
p313
sg11
S'\xe6\x9c\xac\xe6\xac\xa1\xe6\x8f\x90\xe5\x8f\x961:LoadPtr:722 HeadIndex:655 GetSize:67 67 0 \xe5\xa4\xb4\xe4\xbf\xa1\xe6\x81\xaf:EB 90 EB 90 EB 90 43 00 15 02 \n'
p314
sa(dp315
g2
S'14349'
p316
sg4
L1449716553363L
sg5
g6
sg7
S'MainActivity'
p317
sg9
S'14349'
p318
sg11
S'ServerVersion:22 LocalVersion:12\n'
p319
sa(dp320
g2
S'14349'
p321
sg4
L1449716553498L
sg5
g6
sg7
S'mali_winsys'
p322
sg9
S'14349'
p323
sg11
S'new_window_surface returns 0x3000\n'
p324
sa(dp325
g2
S'14349'
p326
sg4
L1449716553563L
sg5
g6
sg7
S'AbsListView'
p327
sg9
S'14349'
p328
sg11
S'unregisterIRListener() is called \n'
p329
sa(dp330
g2
S'14349'
p331
sg4
L1449716553568L
sg5
g6
sg7
S'AbsListView'
p332
sg9
S'14349'
p333
sg11
S'unregisterIRListener() is called \n'
p334
sa(dp335
g2
S'14349'
p336
sg4
L1449716554623L
sg5
g6
sg7
S'AbsListView'
p337
sg9
S'14349'
p338
sg11
S'unregisterIRListener() is called \n'
p339
sa(dp340
g2
S'14349'
p341
sg4
L1449716554628L
sg5
g6
sg7
S'AbsListView'
p342
sg9
S'14349'
p343
sg11
S'unregisterIRListener() is called \n'
p344
sa(dp345
g2
S'14349'
p346
sg4
L1449716554628L
sg5
S'E'
p347
sg7
S'ViewRootImpl'
p348
sg9
S'14349'
p349
sg11
S'sendUserActionEvent() mView == null\n'
p350
sa(dp351
g2
S'14349'
p352
sg4
L1449716557643L
sg5
g6
sg7
S'AbsListView'
p353
sg9
S'14349'
p354
sg11
S'unregisterIRListener() is called \n'
p355
sa(dp356
g2
S'14349'
p357
sg4
L1449716557648L
sg5
g50
sg7
S'ApplicationPackageManager'
p358
sg9
S'14349'
p359
sg11
S'getCSCPackageItemText()\n'
p360
sa(dp361
g2
S'14349'
p362
sg4
L1449716557658L
sg5
S'V'
p363
sg7
S'WebViewChromium'
p364
sg9
S'14349'
p365
sg11
S'Binding Chromium to the background looper Looper (main, tid 1) {428c9738}\n'
p366
sa(dp367
g2
S'14349'
p368
sg4
L1449716557658L
sg5
g56
sg7
S'chromium'
p369
sg9
S'14349'
p370
sg11
S'[INFO:library_loader_hooks.cc(112)] Chromium logging enabled: level = 0, default verbosity = 0\n'
p371
sa(dp372
g2
S'14349'
p373
sg4
L1449716557658L
sg5
g56
sg7
S'BrowserProcessMain'
p374
sg9
S'14349'
p375
sg11
S'Initializing chromium process, renderers=0\n'
p376
sa(dp377
g2
S'14349'
p378
sg4
L1449716557668L
sg5
g50
sg7
S'chromium'
p379
sg9
S'14416'
p380
sg11
S'[WARNING:proxy_service.cc(888)] PAC support disabled because there is no system implementation\n'
p381
sa(dp382
g2
S'14349'
p383
sg4
L1449716557673L
sg5
g50
sg7
S'ApplicationPackageManager'
p384
sg9
S'14349'
p385
sg11
S'getCSCPackageItemText()\n'
p386
sa(dp387
g2
S'14349'
p388
sg4
L1449716557753L
sg5
g6
sg7
S'mali_winsys'
p389
sg9
S'14349'
p390
sg11
S'new_window_surface returns 0x3000\n'
p391
sa(dp392
g2
S'14349'
p393
sg4
L1449716557758L
sg5
g50
sg7
S'AwContents'
p394
sg9
S'14349'
p395
sg11
S'nativeOnDraw failed; clearing to background color.\n'
p396
sa(dp397
g2
S'14349'
p398
sg4
L1449716557878L
sg5
g56
sg7
S'chromium'
p399
sg9
S'14349'
p400
sg11
S'[INFO:CONSOLE(5)] "Viewport target-densitydpi is not supported.", source: http://oa.paneng.cn:1143/se9200/realdata/realdata.html (5)\n'
p401
sa(dp402
g2
S'14349'
p403
sg4
L1449716558103L
sg5
g6
sg7
S'AbsListView'
p404
sg9
S'14349'
p405
sg11
S'onVisibilityChanged() is called, visibility : 4\n'
p406
sa(dp407
g2
S'14349'
p408
sg4
L1449716558103L
sg5
g6
sg7
S'AbsListView'
p409
sg9
S'14349'
p410
sg11
S'unregisterIRListener() is called \n'
p411
sa(dp412
g2
S'14349'
p413
sg4
L1449716558108L
sg5
g6
sg7
S'AbsListView'
p414
sg9
S'14349'
p415
sg11
S'onVisibilityChanged() is called, visibility : 4\n'
p416
sa(dp417
g2
S'14349'
p418
sg4
L1449716558108L
sg5
g6
sg7
S'AbsListView'
p419
sg9
S'14349'
p420
sg11
S'unregisterIRListener() is called \n'
p421
sa(dp422
g2
S'14349'
p423
sg4
L1449716558138L
sg5
g56
sg7
S'chromium'
p424
sg9
S'14349'
p425
sg11
S'[INFO:async_pixel_transfer_manager_android.cc(56)] Async pixel transfers not supported\n'
p426
sa(dp427
g2
S'14349'
p428
sg4
L1449716558148L
sg5
g56
sg7
S'chromium'
p429
sg9
S'14349'
p430
sg11
S'[INFO:async_pixel_transfer_manager_android.cc(56)] Async pixel transfers not supported\n'
p431
sa(dp432
g2
S'14349'
p433
sg4
L1449716558208L
sg5
g56
sg7
S'chromium'
p434
sg9
S'14349'
p435
sg11
S'[INFO:CONSOLE(80)] "Uncaught TypeError: Object [object Object] has no method \'startWait\'", source: http://oa.paneng.cn:1143/se9200/realdata/js/realdata.js (80)\n'
p436
sa(dp437
g2
S'14349'
p438
sg4
L1449716559863L
sg5
g6
sg7
S'AbsListView'
p439
sg9
S'14349'
p440
sg11
S'onVisibilityChanged() is called, visibility : 0\n'
p441
sa(dp442
g2
S'14349'
p443
sg4
L1449716559863L
sg5
g6
sg7
S'AbsListView'
p444
sg9
S'14349'
p445
sg11
S'unregisterIRListener() is called \n'
p446
sa(dp447
g2
S'14349'
p448
sg4
L1449716559873L
sg5
g6
sg7
S'mali_winsys'
p449
sg9
S'14349'
p450
sg11
S'new_window_surface returns 0x3000\n'
p451
sa(dp452
g2
S'14349'
p453
sg4
L1449716559878L
sg5
g6
sg7
S'AbsListView'
p454
sg9
S'14349'
p455
sg11
S'unregisterIRListener() is called \n'
p456
sa(dp457
g2
S'14349'
p458
sg4
L1449716559913L
sg5
g347
sg7
S'ion     '
p459
sg9
S'14349'
p460
sg11
S'ioctl c0044901 failed with code -1: Invalid argument\n'
p461
sa(dp462
g2
S'14349'
p463
sg4
L1449716560703L
sg5
g6
sg7
S'AbsListView'
p464
sg9
S'14349'
p465
sg11
S'unregisterIRListener() is called \n'
p466
sa(dp467
g2
S'14349'
p468
sg4
L1449716560708L
sg5
g50
sg7
S'ApplicationPackageManager'
p469
sg9
S'14349'
p470
sg11
S'getCSCPackageItemText()\n'
p471
sa(dp472
g2
S'14349'
p473
sg4
L1449716560758L
sg5
g6
sg7
S'mali_winsys'
p474
sg9
S'14349'
p475
sg11
S'new_window_surface returns 0x3000\n'
p476
sa(dp477
g2
S'14349'
p478
sg4
L1449716560763L
sg5
g50
sg7
S'AwContents'
p479
sg9
S'14349'
p480
sg11
S'nativeOnDraw failed; clearing to background color.\n'
p481
sa(dp482
g2
S'14349'
p483
sg4
L1449716560798L
sg5
g50
sg7
S'AwContents'
p484
sg9
S'14349'
p485
sg11
S'nativeOnDraw failed; clearing to background color.\n'
p486
sa(dp487
g2
S'14349'
p488
sg4
L1449716561108L
sg5
g6
sg7
S'AbsListView'
p489
sg9
S'14349'
p490
sg11
S'onVisibilityChanged() is called, visibility : 4\n'
p491
sa(dp492
g2
S'14349'
p493
sg4
L1449716561108L
sg5
g6
sg7
S'AbsListView'
p494
sg9
S'14349'
p495
sg11
S'unregisterIRListener() is called \n'
p496
sa(dp497
g2
S'14349'
p498
sg4
L1449716561268L
sg5
g6
sg7
S'MainActivity'
p499
sg9
S'14427'
p500
sg11
S'h:910.5,w:1687.5\n'
p501
sa(dp502
g2
S'14349'
p503
sg4
L1449716561383L
sg5
g56
sg7
S'chromium'
p504
sg9
S'14349'
p505
sg11
S'[INFO:async_pixel_transfer_manager_android.cc(56)] Async pixel transfers not supported\n'
p506
sa(dp507
g2
S'14349'
p508
sg4
L1449716561393L
sg5
g56
sg7
S'chromium'
p509
sg9
S'14349'
p510
sg11
S'[INFO:async_pixel_transfer_manager_android.cc(56)] Async pixel transfers not supported\n'
p511
sa(dp512
g2
S'14349'
p513
sg4
L1449716561418L
sg5
g6
sg7
S'mali_winsys'
p514
sg9
S'14349'
p515
sg11
S'new_window_surface returns 0x3000\n'
p516
sa(dp517
g2
S'14349'
p518
sg4
L1449716563198L
sg5
g50
sg7
S'UnimplementedWebViewApi'
p519
sg9
S'14349'
p520
sg11
S'Unimplemented WebView method onKeyDown called from: android.webkit.WebView.onKeyDown(WebView.java:2179)\n'
p521
sa(dp522
g2
S'14349'
p523
sg4
L1449716563248L
sg5
g6
sg7
S'AbsListView'
p524
sg9
S'14349'
p525
sg11
S'Get MotionRecognitionManager\n'
p526
sa(dp527
g2
S'14349'
p528
sg4
L1449716567393L
sg5
g50
sg7
S'UnimplementedWebViewApi'
p529
sg9
S'14349'
p530
sg11
S'Unimplemented WebView method onKeyDown called from: android.webkit.WebView.onKeyDown(WebView.java:2179)\n'
p531
sa(dp532
g2
S'14349'
p533
sg4
L1449716567548L
sg5
g6
sg7
S'AbsListView'
p534
sg9
S'14349'
p535
sg11
S'onVisibilityChanged() is called, visibility : 0\n'
p536
sa(dp537
g2
S'14349'
p538
sg4
L1449716567548L
sg5
g6
sg7
S'AbsListView'
p539
sg9
S'14349'
p540
sg11
S'unregisterIRListener() is called \n'
p541
sa(dp542
g2
S'14349'
p543
sg4
L1449716567573L
sg5
g6
sg7
S'mali_winsys'
p544
sg9
S'14349'
p545
sg11
S'new_window_surface returns 0x3000\n'
p546
sa(dp547
g2
S'14349'
p548
sg4
L1449716567573L
sg5
g6
sg7
S'AbsListView'
p549
sg9
S'14349'
p550
sg11
S'unregisterIRListener() is called \n'
p551
sa(dp552
g2
S'14349'
p553
sg4
L1449716567578L
sg5
g6
sg7
S'AbsListView'
p554
sg9
S'14349'
p555
sg11
S'unregisterIRListener() is called \n'
p556
sa(dp557
g2
S'14349'
p558
sg4
L1449716567593L
sg5
g6
sg7
S'AbsListView'
p559
sg9
S'14349'
p560
sg11
S'unregisterIRListener() is called \n'
p561
sa(dp562
g2
S'14365'
p563
sg4
L1449716585743L
sg5
g6
sg7
S'dalvikvm'
p564
sg9
S'14369'
p565
sg11
S'GC_CONCURRENT freed 1723K, 14% free 18052K/20872K, paused 5ms+4ms, total 53ms\n'
p566
sa(dp567
g2
S'14365'
p568
sg4
L1449716590318L
sg5
g6
sg7
S'ForegroundActivity'
p569
sg9
S'14390'
p570
sg11
S'\xe6\x9c\xac\xe6\xac\xa1\xe5\x8f\x91\xe9\x80\x81\xe5\xb8\xa7\xe9\x95\xbf:13\t\xe6\x80\xbb\xe5\xb8\xa7\xe9\x95\xbf:70\n'
p571
sa(dp572
g2
S'14365'
p573
sg4
L1449716590623L
sg5
g6
sg7
S'ForegroundActivity'
p574
sg9
S'14395'
p575
sg11
S'\xe6\x9c\xac\xe6\xac\xa1\xe6\x94\xb6\xe5\x88\xb0\xe5\xb8\xa7\xe9\x95\xbf:13\t\xe6\x80\xbb\xe5\xb8\xa7\xe9\x95\xbf:735\n'
p576
sa(dp577
g2
S'14365'
p578
sg4
L1449716591378L
sg5
g6
sg7
S'SocketService1'
p579
sg9
S'14392'
p580
sg11
S'\xe6\x9c\xac\xe6\xac\xa1\xe6\x8f\x90\xe5\x8f\x961:LoadPtr:735 HeadIndex:722 GetSize:13 13 0 \xe5\xa4\xb4\xe4\xbf\xa1\xe6\x81\xaf:EB 90 EB 90 EB 90 0D 00 10 01 \n'
p581
sa(dp582
g2
S'14349'
p583
sg4
L1449716603198L
sg5
g6
sg7
S'AbsListView'
p584
sg9
S'14349'
p585
sg11
S'unregisterIRListener() is called \n'
p586
sa(dp587
g2
S'14349'
p588
sg4
L1449716603198L
sg5
g50
sg7
S'ApplicationPackageManager'
p589
sg9
S'14349'
p590
sg11
S'getCSCPackageItemText()\n'
p591
sa(dp592
g2
S'14349'
p593
sg4
L1449716603203L
sg5
g56
sg7
S'PersonaManager'
p594
sg9
S'14349'
p595
sg11
S'getPersonaService() name persona_policy\n'
p596
sa(dp597
g2
S'14349'
p598
sg4
L1449716603253L
sg5
g6
sg7
S'mali_winsys'
p599
sg9
S'14349'
p600
sg11
S'new_window_surface returns 0x3000\n'
p601
sa(dp602
g2
S'14349'
p603
sg4
L1449716603263L
sg5
g50
sg7
S'AwContents'
p604
sg9
S'14349'
p605
sg11
S'nativeOnDraw failed; clearing to background color.\n'
p606
sa(dp607
g2
S'14349'
p608
sg4
L1449716603298L
sg5
g50
sg7
S'AwContents'
p609
sg9
S'14349'
p610
sg11
S'nativeOnDraw failed; clearing to background color.\n'
p611
sa(dp612
g2
S'14349'
p613
sg4
L1449716603613L
sg5
g6
sg7
S'AbsListView'
p614
sg9
S'14349'
p615
sg11
S'onVisibilityChanged() is called, visibility : 4\n'
p616
sa(dp617
g2
S'14349'
p618
sg4
L1449716603613L
sg5
g6
sg7
S'AbsListView'
p619
sg9
S'14349'
p620
sg11
S'unregisterIRListener() is called \n'
p621
sa(dp622
g2
S'14349'
p623
sg4
L1449716603648L
sg5
g56
sg7
S'chromium'
p624
sg9
S'14349'
p625
sg11
S'[INFO:async_pixel_transfer_manager_android.cc(56)] Async pixel transfers not supported\n'
p626
sa(dp627
g2
S'14349'
p628
sg4
L1449716603653L
sg5
g56
sg7
S'chromium'
p629
sg9
S'14349'
p630
sg11
S'[INFO:async_pixel_transfer_manager_android.cc(56)] Async pixel transfers not supported\n'
p631
sa(dp632
g2
S'14349'
p633
sg4
L1449716607118L
sg5
g50
sg7
S'UnimplementedWebViewApi'
p634
sg9
S'14349'
p635
sg11
S'Unimplemented WebView method onKeyDown called from: android.webkit.WebView.onKeyDown(WebView.java:2179)\n'
p636
sa(dp637
g2
S'14349'
p638
sg4
L1449716607158L
sg5
g6
sg7
S'AbsListView'
p639
sg9
S'14349'
p640
sg11
S'onVisibilityChanged() is called, visibility : 0\n'
p641
sa(dp642
g2
S'14349'
p643
sg4
L1449716607158L
sg5
g6
sg7
S'AbsListView'
p644
sg9
S'14349'
p645
sg11
S'unregisterIRListener() is called \n'
p646
sa(dp647
g2
S'14349'
p648
sg4
L1449716607173L
sg5
g6
sg7
S'mali_winsys'
p649
sg9
S'14349'
p650
sg11
S'new_window_surface returns 0x3000\n'
p651
sa(dp652
g2
S'14349'
p653
sg4
L1449716607173L
sg5
g6
sg7
S'AbsListView'
p654
sg9
S'14349'
p655
sg11
S'unregisterIRListener() is called \n'
p656
sa(dp657
g2
S'14349'
p658
sg4
L1449716607193L
sg5
g50
sg7
S'IInputConnectionWrapper'
p659
sg9
S'14349'
p660
sg11
S'clearMetaKeyStates on inactive InputConnection\n'
p661
sa(dp662
g2
S'14349'
p663
sg4
L1449716608363L
sg5
g6
sg7
S'AbsListView'
p664
sg9
S'14349'
p665
sg11
S'unregisterIRListener() is called \n'
p666
sa(dp667
g2
S'14349'
p668
sg4
L1449716608368L
sg5
g50
sg7
S'ApplicationPackageManager'
p669
sg9
S'14349'
p670
sg11
S'getCSCPackageItemText()\n'
p671
sa(dp672
g2
S'14349'
p673
sg4
L1449716608413L
sg5
g6
sg7
S'mali_winsys'
p674
sg9
S'14349'
p675
sg11
S'new_window_surface returns 0x3000\n'
p676
sa(dp677
g2
S'14349'
p678
sg4
L1449716608423L
sg5
g50
sg7
S'AwContents'
p679
sg9
S'14349'
p680
sg11
S'nativeOnDraw failed; clearing to background color.\n'
p681
sa(dp682
g2
S'14349'
p683
sg4
L1449716608448L
sg5
g50
sg7
S'AwContents'
p684
sg9
S'14349'
p685
sg11
S'nativeOnDraw failed; clearing to background color.\n'
p686
sa(dp687
g2
S'14349'
p688
sg4
L1449716608778L
sg5
g6
sg7
S'AbsListView'
p689
sg9
S'14349'
p690
sg11
S'onVisibilityChanged() is called, visibility : 4\n'
p691
sa(dp692
g2
S'14349'
p693
sg4
L1449716608778L
sg5
g6
sg7
S'AbsListView'
p694
sg9
S'14349'
p695
sg11
S'unregisterIRListener() is called \n'
p696
sa(dp697
g2
S'14349'
p698
sg4
L1449716608813L
sg5
g56
sg7
S'chromium'
p699
sg9
S'14349'
p700
sg11
S'[INFO:async_pixel_transfer_manager_android.cc(56)] Async pixel transfers not supported\n'
p701
sa(dp702
g2
S'14349'
p703
sg4
L1449716608818L
sg5
g56
sg7
S'chromium'
p704
sg9
S'14349'
p705
sg11
S'[INFO:async_pixel_transfer_manager_android.cc(56)] Async pixel transfers not supported\n'
p706
sa(dp707
g2
S'14349'
p708
sg4
L1449716612138L
sg5
g50
sg7
S'UnimplementedWebViewApi'
p709
sg9
S'14349'
p710
sg11
S'Unimplemented WebView method onKeyDown called from: android.webkit.WebView.onKeyDown(WebView.java:2179)\n'
p711
sa(dp712
g2
S'14349'
p713
sg4
L1449716612173L
sg5
g6
sg7
S'AbsListView'
p714
sg9
S'14349'
p715
sg11
S'onVisibilityChanged() is called, visibility : 0\n'
p716
sa(dp717
g2
S'14349'
p718
sg4
L1449716612173L
sg5
g6
sg7
S'AbsListView'
p719
sg9
S'14349'
p720
sg11
S'unregisterIRListener() is called \n'
p721
sa(dp722
g2
S'14349'
p723
sg4
L1449716612183L
sg5
g6
sg7
S'mali_winsys'
p724
sg9
S'14349'
p725
sg11
S'new_window_surface returns 0x3000\n'
p726
sa(dp727
g2
S'14349'
p728
sg4
L1449716612188L
sg5
g6
sg7
S'AbsListView'
p729
sg9
S'14349'
p730
sg11
S'unregisterIRListener() is called \n'
p731
sa(dp732
g2
S'14349'
p733
sg4
L1449716612208L
sg5
g50
sg7
S'IInputConnectionWrapper'
p734
sg9
S'14349'
p735
sg11
S'clearMetaKeyStates on inactive InputConnection\n'
p736
sa(dp737
g2
S'14349'
p738
sg4
L1449716614788L
sg5
g6
sg7
S'AbsListView'
p739
sg9
S'14349'
p740
sg11
S'unregisterIRListener() is called \n'
p741
sa(dp742
g2
S'14349'
p743
sg4
L1449716614788L
sg5
g50
sg7
S'ApplicationPackageManager'
p744
sg9
S'14349'
p745
sg11
S'getCSCPackageItemText()\n'
p746
sa(dp747
g2
S'14349'
p748
sg4
L1449716614838L
sg5
g6
sg7
S'mali_winsys'
p749
sg9
S'14349'
p750
sg11
S'new_window_surface returns 0x3000\n'
p751
sa(dp752
g2
S'14349'
p753
sg4
L1449716614843L
sg5
g50
sg7
S'AwContents'
p754
sg9
S'14349'
p755
sg11
S'nativeOnDraw failed; clearing to background color.\n'
p756
sa(dp757
g2
S'14349'
p758
sg4
L1449716614858L
sg5
g50
sg7
S'AwContents'
p759
sg9
S'14349'
p760
sg11
S'nativeOnDraw failed; clearing to background color.\n'
p761
sa(dp762
g2
S'14349'
p763
sg4
L1449716615183L
sg5
g6
sg7
S'AbsListView'
p764
sg9
S'14349'
p765
sg11
S'onVisibilityChanged() is called, visibility : 4\n'
p766
sa(dp767
g2
S'14349'
p768
sg4
L1449716615183L
sg5
g6
sg7
S'AbsListView'
p769
sg9
S'14349'
p770
sg11
S'unregisterIRListener() is called \n'
p771
sa(dp772
g2
S'14349'
p773
sg4
L1449716615188L
sg5
g6
sg7
S'AbsListView'
p774
sg9
S'14349'
p775
sg11
S'onVisibilityChanged() is called, visibility : 4\n'
p776
sa(dp777
g2
S'14349'
p778
sg4
L1449716615188L
sg5
g6
sg7
S'AbsListView'
p779
sg9
S'14349'
p780
sg11
S'unregisterIRListener() is called \n'
p781
sa(dp782
g2
S'14349'
p783
sg4
L1449716615218L
sg5
g56
sg7
S'chromium'
p784
sg9
S'14349'
p785
sg11
S'[INFO:async_pixel_transfer_manager_android.cc(56)] Async pixel transfers not supported\n'
p786
sa(dp787
g2
S'14349'
p788
sg4
L1449716615228L
sg5
g56
sg7
S'chromium'
p789
sg9
S'14349'
p790
sg11
S'[INFO:async_pixel_transfer_manager_android.cc(56)] Async pixel transfers not supported\n'
p791
sa(dp792
g2
S'14349'
p793
sg4
L1449716623023L
sg5
g6
sg7
S'AbsListView'
p794
sg9
S'14349'
p795
sg11
S'onVisibilityChanged() is called, visibility : 0\n'
p796
sa(dp797
g2
S'14349'
p798
sg4
L1449716623023L
sg5
g6
sg7
S'AbsListView'
p799
sg9
S'14349'
p800
sg11
S'unregisterIRListener() is called \n'
p801
sa(dp802
g2
S'14349'
p803
sg4
L1449716623043L
sg5
g6
sg7
S'mali_winsys'
p804
sg9
S'14349'
p805
sg11
S'new_window_surface returns 0x3000\n'
p806
sa(dp807
g2
S'14349'
p808
sg4
L1449716623043L
sg5
g6
sg7
S'AbsListView'
p809
sg9
S'14349'
p810
sg11
S'unregisterIRListener() is called \n'
p811
sa(dp812
g2
S'14349'
p813
sg4
L1449716626653L
sg5
g6
sg7
S'AbsListView'
p814
sg9
S'14349'
p815
sg11
S'unregisterIRListener() is called \n'
p816
sa(dp817
g2
S'14349'
p818
sg4
L1449716626653L
sg5
g50
sg7
S'ApplicationPackageManager'
p819
sg9
S'14349'
p820
sg11
S'getCSCPackageItemText()\n'
p821
sa(dp822
g2
S'14349'
p823
sg4
L1449716626708L
sg5
g6
sg7
S'mali_winsys'
p824
sg9
S'14349'
p825
sg11
S'new_window_surface returns 0x3000\n'
p826
sa(dp827
g2
S'14349'
p828
sg4
L1449716626718L
sg5
g50
sg7
S'AwContents'
p829
sg9
S'14349'
p830
sg11
S'nativeOnDraw failed; clearing to background color.\n'
p831
sa(dp832
g2
S'14349'
p833
sg4
L1449716626743L
sg5
g50
sg7
S'AwContents'
p834
sg9
S'14349'
p835
sg11
S'nativeOnDraw failed; clearing to background color.\n'
p836
sa(dp837
g2
S'14349'
p838
sg4
L1449716627073L
sg5
g56
sg7
S'chromium'
p839
sg9
S'14349'
p840
sg11
S'[INFO:async_pixel_transfer_manager_android.cc(56)] Async pixel transfers not supported\n'
p841
sa(dp842
g2
S'14349'
p843
sg4
L1449716627083L
sg5
g56
sg7
S'chromium'
p844
sg9
S'14349'
p845
sg11
S'[INFO:async_pixel_transfer_manager_android.cc(56)] Async pixel transfers not supported\n'
p846
sa(dp847
g2
S'14349'
p848
sg4
L1449716627108L
sg5
g6
sg7
S'AbsListView'
p849
sg9
S'14349'
p850
sg11
S'onVisibilityChanged() is called, visibility : 4\n'
p851
sa(dp852
g2
S'14349'
p853
sg4
L1449716627108L
sg5
g6
sg7
S'AbsListView'
p854
sg9
S'14349'
p855
sg11
S'unregisterIRListener() is called \n'
p856
sa(dp857
g2
S'14349'
p858
sg4
L1449716629938L
sg5
g6
sg7
S'AbsListView'
p859
sg9
S'14349'
p860
sg11
S'onVisibilityChanged() is called, visibility : 0\n'
p861
sa(dp862
g2
S'14349'
p863
sg4
L1449716629938L
sg5
g6
sg7
S'AbsListView'
p864
sg9
S'14349'
p865
sg11
S'unregisterIRListener() is called \n'
p866
sa(dp867
g2
S'14349'
p868
sg4
L1449716629948L
sg5
g6
sg7
S'mali_winsys'
p869
sg9
S'14349'
p870
sg11
S'new_window_surface returns 0x3000\n'
p871
sa(dp872
g2
S'14349'
p873
sg4
L1449716629948L
sg5
g6
sg7
S'AbsListView'
p874
sg9
S'14349'
p875
sg11
S'unregisterIRListener() is called \n'
p876
sa(dp877
g2
S'14349'
p878
sg4
L1449716629953L
sg5
g6
sg7
S'AbsListView'
p879
sg9
S'14349'
p880
sg11
S'unregisterIRListener() is called \n'
p881
sa(dp882
g2
S'14365'
p883
sg4
L1449716630318L
sg5
g6
sg7
S'ForegroundActivity'
p884
sg9
S'14390'
p885
sg11
S'\xe6\x9c\xac\xe6\xac\xa1\xe5\x8f\x91\xe9\x80\x81\xe5\xb8\xa7\xe9\x95\xbf:13\t\xe6\x80\xbb\xe5\xb8\xa7\xe9\x95\xbf:83\n'
p886
sa(dp887
g2
S'14365'
p888
sg4
L1449716630533L
sg5
g6
sg7
S'ForegroundActivity'
p889
sg9
S'14395'
p890
sg11
S'\xe6\x9c\xac\xe6\xac\xa1\xe6\x94\xb6\xe5\x88\xb0\xe5\xb8\xa7\xe9\x95\xbf:13\t\xe6\x80\xbb\xe5\xb8\xa7\xe9\x95\xbf:748\n'
p891
sa(dp892
g2
S'14365'
p893
sg4
L1449716631408L
sg5
g6
sg7
S'SocketService1'
p894
sg9
S'14392'
p895
sg11
S'\xe6\x9c\xac\xe6\xac\xa1\xe6\x8f\x90\xe5\x8f\x961:LoadPtr:748 HeadIndex:735 GetSize:13 13 0 \xe5\xa4\xb4\xe4\xbf\xa1\xe6\x81\xaf:EB 90 EB 90 EB 90 0D 00 10 01 \n'
p896
sa(dp897
g2
S'14349'
p898
sg4
L1449716631573L
sg5
g6
sg7
S'AbsListView'
p899
sg9
S'14349'
p900
sg11
S'unregisterIRListener() is called \n'
p901
sa(dp902
g2
S'14349'
p903
sg4
L1449716631578L
sg5
g50
sg7
S'ApplicationPackageManager'
p904
sg9
S'14349'
p905
sg11
S'getCSCPackageItemText()\n'
p906
sa(dp907
g2
S'14349'
p908
sg4
L1449716631638L
sg5
g6
sg7
S'mali_winsys'
p909
sg9
S'14349'
p910
sg11
S'new_window_surface returns 0x3000\n'
p911
sa(dp912
g2
S'14349'
p913
sg4
L1449716631643L
sg5
g50
sg7
S'AwContents'
p914
sg9
S'14349'
p915
sg11
S'nativeOnDraw failed; clearing to background color.\n'
p916
sa(dp917
g2
S'14349'
p918
sg4
L1449716631673L
sg5
g50
sg7
S'AwContents'
p919
sg9
S'14349'
p920
sg11
S'nativeOnDraw failed; clearing to background color.\n'
p921
sa(dp922
g2
S'14349'
p923
sg4
L1449716631988L
sg5
g6
sg7
S'AbsListView'
p924
sg9
S'14349'
p925
sg11
S'onVisibilityChanged() is called, visibility : 4\n'
p926
sa(dp927
g2
S'14349'
p928
sg4
L1449716631988L
sg5
g6
sg7
S'AbsListView'
p929
sg9
S'14349'
p930
sg11
S'unregisterIRListener() is called \n'
p931
sa(dp932
g2
S'14349'
p933
sg4
L1449716631993L
sg5
g6
sg7
S'AbsListView'
p934
sg9
S'14349'
p935
sg11
S'onVisibilityChanged() is called, visibility : 4\n'
p936
sa(dp937
g2
S'14349'
p938
sg4
L1449716631993L
sg5
g6
sg7
S'AbsListView'
p939
sg9
S'14349'
p940
sg11
S'unregisterIRListener() is called \n'
p941
sa(dp942
g2
S'14349'
p943
sg4
L1449716632023L
sg5
g56
sg7
S'chromium'
p944
sg9
S'14349'
p945
sg11
S'[INFO:async_pixel_transfer_manager_android.cc(56)] Async pixel transfers not supported\n'
p946
sa(dp947
g2
S'14349'
p948
sg4
L1449716632028L
sg5
g56
sg7
S'chromium'
p949
sg9
S'14349'
p950
sg11
S'[INFO:async_pixel_transfer_manager_android.cc(56)] Async pixel transfers not supported\n'
p951
sa(dp952
g2
S'14349'
p953
sg4
L1449716636708L
sg5
g6
sg7
S'AbsListView'
p954
sg9
S'14349'
p955
sg11
S'onVisibilityChanged() is called, visibility : 0\n'
p956
sa(dp957
g2
S'14349'
p958
sg4
L1449716636708L
sg5
g6
sg7
S'AbsListView'
p959
sg9
S'14349'
p960
sg11
S'unregisterIRListener() is called \n'
p961
sa(dp962
g2
S'14349'
p963
sg4
L1449716636718L
sg5
g6
sg7
S'mali_winsys'
p964
sg9
S'14349'
p965
sg11
S'new_window_surface returns 0x3000\n'
p966
sa(dp967
g2
S'14349'
p968
sg4
L1449716636718L
sg5
g6
sg7
S'AbsListView'
p969
sg9
S'14349'
p970
sg11
S'unregisterIRListener() is called \n'
p971
sa(dp972
g2
S'14349'
p973
sg4
L1449716636723L
sg5
g6
sg7
S'AbsListView'
p974
sg9
S'14349'
p975
sg11
S'unregisterIRListener() is called \n'
p976
sa(dp977
g2
S'14349'
p978
sg4
L1449716638838L
sg5
g6
sg7
S'AbsListView'
p979
sg9
S'14349'
p980
sg11
S'unregisterIRListener() is called \n'
p981
sa(dp982
g2
S'14349'
p983
sg4
L1449716638843L
sg5
g6
sg7
S'AbsListView'
p984
sg9
S'14349'
p985
sg11
S'unregisterIRListener() is called \n'
p986
sa(dp987
g2
S'14349'
p988
sg4
L1449716638843L
sg5
g50
sg7
S'ApplicationPackageManager'
p989
sg9
S'14349'
p990
sg11
S'getCSCPackageItemText()\n'
p991
sa(dp992
g2
S'14349'
p993
sg4
L1449716638893L
sg5
g6
sg7
S'mali_winsys'
p994
sg9
S'14349'
p995
sg11
S'new_window_surface returns 0x3000\n'
p996
sa(dp997
g2
S'14349'
p998
sg4
L1449716638903L
sg5
g50
sg7
S'AwContents'
p999
sg9
S'14349'
p1000
sg11
S'nativeOnDraw failed; clearing to background color.\n'
p1001
sa(dp1002
g2
S'14349'
p1003
sg4
L1449716638933L
sg5
g50
sg7
S'AwContents'
p1004
sg9
S'14349'
p1005
sg11
S'nativeOnDraw failed; clearing to background color.\n'
p1006
sa(dp1007
g2
S'14349'
p1008
sg4
L1449716639258L
sg5
g6
sg7
S'AbsListView'
p1009
sg9
S'14349'
p1010
sg11
S'onVisibilityChanged() is called, visibility : 4\n'
p1011
sa(dp1012
g2
S'14349'
p1013
sg4
L1449716639258L
sg5
g6
sg7
S'AbsListView'
p1014
sg9
S'14349'
p1015
sg11
S'unregisterIRListener() is called \n'
p1016
sa(dp1017
g2
S'14349'
p1018
sg4
L1449716639293L
sg5
g56
sg7
S'chromium'
p1019
sg9
S'14349'
p1020
sg11
S'[INFO:async_pixel_transfer_manager_android.cc(56)] Async pixel transfers not supported\n'
p1021
sa(dp1022
g2
S'14349'
p1023
sg4
L1449716639303L
sg5
g56
sg7
S'chromium'
p1024
sg9
S'14349'
p1025
sg11
S'[INFO:async_pixel_transfer_manager_android.cc(56)] Async pixel transfers not supported\n'
p1026
sa(dp1027
g2
S'14349'
p1028
sg4
L1449716641678L
sg5
g6
sg7
S'AbsListView'
p1029
sg9
S'14349'
p1030
sg11
S'onVisibilityChanged() is called, visibility : 0\n'
p1031
sa(dp1032
g2
S'14349'
p1033
sg4
L1449716641678L
sg5
g6
sg7
S'AbsListView'
p1034
sg9
S'14349'
p1035
sg11
S'unregisterIRListener() is called \n'
p1036
sa(dp1037
g2
S'14349'
p1038
sg4
L1449716641703L
sg5
g6
sg7
S'mali_winsys'
p1039
sg9
S'14349'
p1040
sg11
S'new_window_surface returns 0x3000\n'
p1041
sa(dp1042
g2
S'14349'
p1043
sg4
L1449716641703L
sg5
g6
sg7
S'AbsListView'
p1044
sg9
S'14349'
p1045
sg11
S'unregisterIRListener() is called \n'
p1046
sa(dp1047
g2
S'14349'
p1048
sg4
L1449716641708L
sg5
g6
sg7
S'AbsListView'
p1049
sg9
S'14349'
p1050
sg11
S'unregisterIRListener() is called \n'
p1051
sa(dp1052
g2
S'14349'
p1053
sg4
L1449716645998L
sg5
g6
sg7
S'AbsListView'
p1054
sg9
S'14349'
p1055
sg11
S'unregisterIRListener() is called \n'
p1056
sa(dp1057
g2
S'14349'
p1058
sg4
L1449716646003L
sg5
g6
sg7
S'AbsListView'
p1059
sg9
S'14349'
p1060
sg11
S'unregisterIRListener() is called \n'
p1061
sa(dp1062
g2
S'14349'
p1063
sg4
L1449716646003L
sg5
g50
sg7
S'ApplicationPackageManager'
p1064
sg9
S'14349'
p1065
sg11
S'getCSCPackageItemText()\n'
p1066
sa(dp1067
g2
S'14349'
p1068
sg4
L1449716646118L
sg5
g6
sg7
S'mali_winsys'
p1069
sg9
S'14349'
p1070
sg11
S'new_window_surface returns 0x3000\n'
p1071
sa(dp1072
g2
S'14349'
p1073
sg4
L1449716646208L
sg5
g50
sg7
S'AwContents'
p1074
sg9
S'14349'
p1075
sg11
S'nativeOnDraw failed; clearing to background color.\n'
p1076
sa(dp1077
g2
S'14349'
p1078
sg4
L1449716646238L
sg5
g50
sg7
S'AwContents'
p1079
sg9
S'14349'
p1080
sg11
S'nativeOnDraw failed; clearing to background color.\n'
p1081
sa(dp1082
g2
S'14349'
p1083
sg4
L1449716646563L
sg5
g6
sg7
S'AbsListView'
p1084
sg9
S'14349'
p1085
sg11
S'onVisibilityChanged() is called, visibility : 4\n'
p1086
sa(dp1087
g2
S'14349'
p1088
sg4
L1449716646563L
sg5
g6
sg7
S'AbsListView'
p1089
sg9
S'14349'
p1090
sg11
S'unregisterIRListener() is called \n'
p1091
sa(dp1092
g2
S'14349'
p1093
sg4
L1449716646698L
sg5
g6
sg7
S'MainActivity'
p1094
sg9
S'14427'
p1095
sg11
S'h:774.256,w:1432\n'
p1096
sa(dp1097
g2
S'14349'
p1098
sg4
L1449716647243L
sg5
g6
sg7
S'MainActivity'
p1099
sg9
S'14427'
p1100
sg11
S'h:910.5,w:1687.5\n'
p1101
sa(dp1102
g2
S'14349'
p1103
sg4
L1449716647313L
sg5
g56
sg7
S'chromium'
p1104
sg9
S'14349'
p1105
sg11
S'[INFO:async_pixel_transfer_manager_android.cc(56)] Async pixel transfers not supported\n'
p1106
sa(dp1107
g2
S'14349'
p1108
sg4
L1449716647323L
sg5
g56
sg7
S'chromium'
p1109
sg9
S'14349'
p1110
sg11
S'[INFO:async_pixel_transfer_manager_android.cc(56)] Async pixel transfers not supported\n'
p1111
sa(dp1112
g2
S'14349'
p1113
sg4
L1449716647543L
sg5
g6
sg7
S'AbsListView'
p1114
sg9
S'14349'
p1115
sg11
S'onVisibilityChanged() is called, visibility : 0\n'
p1116
sa(dp1117
g2
S'14349'
p1118
sg4
L1449716647543L
sg5
g6
sg7
S'AbsListView'
p1119
sg9
S'14349'
p1120
sg11
S'unregisterIRListener() is called \n'
p1121
sa(dp1122
g2
S'14349'
p1123
sg4
L1449716647568L
sg5
g6
sg7
S'mali_winsys'
p1124
sg9
S'14349'
p1125
sg11
S'new_window_surface returns 0x3000\n'
p1126
sa(dp1127
g2
S'14349'
p1128
sg4
L1449716647588L
sg5
g6
sg7
S'AbsListView'
p1129
sg9
S'14349'
p1130
sg11
S'unregisterIRListener() is called \n'
p1131
sa(dp1132
g2
S'14349'
p1133
sg4
L1449716647658L
sg5
g6
sg7
S'MainActivity'
p1134
sg9
S'14427'
p1135
sg11
S'h:710.915,w:1183.07\n'
p1136
sa(dp1137
g2
S'14349'
p1138
sg4
L1449716648103L
sg5
g6
sg7
S'MainActivity'
p1139
sg9
S'14427'
p1140
sg11
S'h:774.256,w:1432\n'
p1141
sa(dp1142
g2
S'14349'
p1143
sg4
L1449716648523L
sg5
g6
sg7
S'MainActivity'
p1144
sg9
S'14427'
p1145
sg11
S'h:710.915,w:1183.07\n'
p1146
sa(dp1147
g2
S'14349'
p1148
sg4
L1449716648923L
sg5
g6
sg7
S'MainActivity'
p1149
sg9
S'14427'
p1150
sg11
S'h:710.915,w:1183.07\n'
p1151
sa(dp1152
g2
S'14349'
p1153
sg4
L1449716649493L
sg5
g6
sg7
S'MainActivity'
p1154
sg9
S'14427'
p1155
sg11
S'h:910.5,w:1687.5\n'
p1156
sa(dp1157
g2
S'14349'
p1158
sg4
L1449716651888L
sg5
g6
sg7
S'AbsListView'
p1159
sg9
S'14349'
p1160
sg11
S'unregisterIRListener() is called \n'
p1161
sa(dp1162
g2
S'14349'
p1163
sg4
L1449716651888L
sg5
g50
sg7
S'ApplicationPackageManager'
p1164
sg9
S'14349'
p1165
sg11
S'getCSCPackageItemText()\n'
p1166
sa(dp1167
g2
S'14349'
p1168
sg4
L1449716651943L
sg5
g6
sg7
S'mali_winsys'
p1169
sg9
S'14349'
p1170
sg11
S'new_window_surface returns 0x3000\n'
p1171
sa(dp1172
g2
S'14349'
p1173
sg4
L1449716651948L
sg5
g50
sg7
S'AwContents'
p1174
sg9
S'14349'
p1175
sg11
S'nativeOnDraw failed; clearing to background color.\n'
p1176
sa(dp1177
g2
S'14349'
p1178
sg4
L1449716651978L
sg5
g50
sg7
S'AwContents'
p1179
sg9
S'14349'
p1180
sg11
S'nativeOnDraw failed; clearing to background color.\n'
p1181
sa(dp1182
g2
S'14349'
p1183
sg4
L1449716652308L
sg5
g6
sg7
S'AbsListView'
p1184
sg9
S'14349'
p1185
sg11
S'onVisibilityChanged() is called, visibility : 4\n'
p1186
sa(dp1187
g2
S'14349'
p1188
sg4
L1449716652308L
sg5
g6
sg7
S'AbsListView'
p1189
sg9
S'14349'
p1190
sg11
S'unregisterIRListener() is called \n'
p1191
sa(dp1192
g2
S'14349'
p1193
sg4
L1449716652343L
sg5
g56
sg7
S'chromium'
p1194
sg9
S'14349'
p1195
sg11
S'[INFO:async_pixel_transfer_manager_android.cc(56)] Async pixel transfers not supported\n'
p1196
sa(dp1197
g2
S'14349'
p1198
sg4
L1449716652353L
sg5
g56
sg7
S'chromium'
p1199
sg9
S'14349'
p1200
sg11
S'[INFO:async_pixel_transfer_manager_android.cc(56)] Async pixel transfers not supported\n'
p1201
sa(dp1202
g2
S'14349'
p1203
sg4
L1449716652393L
sg5
g6
sg7
S'MainActivity'
p1204
sg9
S'14427'
p1205
sg11
S'h:710.915,w:1183.07\n'
p1206
sa(dp1207
g2
S'14349'
p1208
sg4
L1449716652538L
sg5
g6
sg7
S'mali_winsys'
p1209
sg9
S'14349'
p1210
sg11
S'new_window_surface returns 0x3000\n'
p1211
sa(dp1212
g2
S'14349'
p1213
sg4
L1449716658433L
sg5
g50
sg7
S'UnimplementedWebViewApi'
p1214
sg9
S'14349'
p1215
sg11
S'Unimplemented WebView method onKeyDown called from: android.webkit.WebView.onKeyDown(WebView.java:2179)\n'
p1216
sa(dp1217
g2
S'14349'
p1218
sg4
L1449716658588L
sg5
g6
sg7
S'AbsListView'
p1219
sg9
S'14349'
p1220
sg11
S'onVisibilityChanged() is called, visibility : 0\n'
p1221
sa(dp1222
g2
S'14349'
p1223
sg4
L1449716658588L
sg5
g6
sg7
S'AbsListView'
p1224
sg9
S'14349'
p1225
sg11
S'unregisterIRListener() is called \n'
p1226
sa(dp1227
g2
S'14349'
p1228
sg4
L1449716658618L
sg5
g6
sg7
S'mali_winsys'
p1229
sg9
S'14349'
p1230
sg11
S'new_window_surface returns 0x3000\n'
p1231
sa(dp1232
g2
S'14349'
p1233
sg4
L1449716658623L
sg5
g6
sg7
S'AbsListView'
p1234
sg9
S'14349'
p1235
sg11
S'unregisterIRListener() is called \n'
p1236
sa(dp1237
g2
S'14349'
p1238
sg4
L1449716658638L
sg5
g6
sg7
S'AbsListView'
p1239
sg9
S'14349'
p1240
sg11
S'unregisterIRListener() is called \n'
p1241
sa(dp1242
g2
S'14349'
p1243
sg4
L1449716658953L
sg5
g6
sg7
S'mali_winsys'
p1244
sg9
S'14349'
p1245
sg11
S'new_window_surface returns 0x3000\n'
p1246
sa(dp1247
g2
S'14349'
p1248
sg4
L1449716658998L
sg5
g6
sg7
S'AbsListView'
p1249
sg9
S'14349'
p1250
sg11
S'unregisterIRListener() is called \n'
p1251
sa(dp1252
g2
S'14349'
p1253
sg4
L1449716662368L
sg5
g50
sg7
S'InputEventReceiver'
p1254
sg9
S'14349'
p1255
sg11
S'Attempted to finish an input event but the input event receiver has already been disposed.\n'
p1256
sa(dp1257
g2
S'14349'
p1258
sg4
L1449716662368L
sg5
g6
sg7
S'AbsListView'
p1259
sg9
S'14349'
p1260
sg11
S'unregisterIRListener() is called \n'
p1261
sa(dp1262
g2
S'14349'
p1263
sg4
L1449716662373L
sg5
g347
sg7
S'ViewRootImpl'
p1264
sg9
S'14349'
p1265
sg11
S'sendUserActionEvent() mView == null\n'
p1266
sa(dp1267
g2
S'14349'
p1268
sg4
L1449716663618L
sg5
g6
sg7
S'AbsListView'
p1269
sg9
S'14349'
p1270
sg11
S'unregisterIRListener() is called \n'
p1271
sa(dp1272
g2
S'14349'
p1273
sg4
L1449716663618L
sg5
g50
sg7
S'ApplicationPackageManager'
p1274
sg9
S'14349'
p1275
sg11
S'getCSCPackageItemText()\n'
p1276
sa(dp1277
g2
S'14349'
p1278
sg4
L1449716663623L
sg5
g56
sg7
S'PersonaManager'
p1279
sg9
S'14349'
p1280
sg11
S'getPersonaService() name persona_policy\n'
p1281
sa(dp1282
g2
S'14349'
p1283
sg4
L1449716663678L
sg5
g6
sg7
S'mali_winsys'
p1284
sg9
S'14349'
p1285
sg11
S'new_window_surface returns 0x3000\n'
p1286
sa(dp1287
g2
S'14349'
p1288
sg4
L1449716663683L
sg5
g50
sg7
S'AwContents'
p1289
sg9
S'14349'
p1290
sg11
S'nativeOnDraw failed; clearing to background color.\n'
p1291
sa(dp1292
g2
S'14349'
p1293
sg4
L1449716663713L
sg5
g50
sg7
S'AwContents'
p1294
sg9
S'14349'
p1295
sg11
S'nativeOnDraw failed; clearing to background color.\n'
p1296
sa(dp1297
g2
S'14349'
p1298
sg4
L1449716664028L
sg5
g6
sg7
S'AbsListView'
p1299
sg9
S'14349'
p1300
sg11
S'onVisibilityChanged() is called, visibility : 4\n'
p1301
sa(dp1302
g2
S'14349'
p1303
sg4
L1449716664028L
sg5
g6
sg7
S'AbsListView'
p1304
sg9
S'14349'
p1305
sg11
S'unregisterIRListener() is called \n'
p1306
sa(dp1307
g2
S'14349'
p1308
sg4
L1449716664063L
sg5
g56
sg7
S'chromium'
p1309
sg9
S'14349'
p1310
sg11
S'[INFO:async_pixel_transfer_manager_android.cc(56)] Async pixel transfers not supported\n'
p1311
sa(dp1312
g2
S'14349'
p1313
sg4
L1449716664073L
sg5
g56
sg7
S'chromium'
p1314
sg9
S'14349'
p1315
sg11
S'[INFO:async_pixel_transfer_manager_android.cc(56)] Async pixel transfers not supported\n'
p1316
sa(dp1317
g2
S'14349'
p1318
sg4
L1449716664138L
sg5
g6
sg7
S'MainActivity'
p1319
sg9
S'14427'
p1320
sg11
S'h:710.915,w:1183.07\n'
p1321
sa(dp1322
g2
S'14349'
p1323
sg4
L1449716664298L
sg5
g6
sg7
S'mali_winsys'
p1324
sg9
S'14349'
p1325
sg11
S'new_window_surface returns 0x3000\n'
p1326
sa(dp1327
g2
S'14349'
p1328
sg4
L1449716668778L
sg5
g50
sg7
S'UnimplementedWebViewApi'
p1329
sg9
S'14349'
p1330
sg11
S'Unimplemented WebView method onKeyDown called from: android.webkit.WebView.onKeyDown(WebView.java:2179)\n'
p1331
sa(dp1332
g2
S'14349'
p1333
sg4
L1449716668958L
sg5
g6
sg7
S'AbsListView'
p1334
sg9
S'14349'
p1335
sg11
S'onVisibilityChanged() is called, visibility : 0\n'
p1336
sa(dp1337
g2
S'14349'
p1338
sg4
L1449716668958L
sg5
g6
sg7
S'AbsListView'
p1339
sg9
S'14349'
p1340
sg11
S'unregisterIRListener() is called \n'
p1341
sa(dp1342
g2
S'14349'
p1343
sg4
L1449716668983L
sg5
g6
sg7
S'mali_winsys'
p1344
sg9
S'14349'
p1345
sg11
S'new_window_surface returns 0x3000\n'
p1346
sa(dp1347
g2
S'14349'
p1348
sg4
L1449716668988L
sg5
g6
sg7
S'AbsListView'
p1349
sg9
S'14349'
p1350
sg11
S'unregisterIRListener() is called \n'
p1351
sa(dp1352
g2
S'14349'
p1353
sg4
L1449716669003L
sg5
g6
sg7
S'AbsListView'
p1354
sg9
S'14349'
p1355
sg11
S'unregisterIRListener() is called \n'
p1356
sa(dp1357
g2
S'14365'
p1358
sg4
L1449716670323L
sg5
g6
sg7
S'ForegroundActivity'
p1359
sg9
S'14390'
p1360
sg11
S'\xe6\x9c\xac\xe6\xac\xa1\xe5\x8f\x91\xe9\x80\x81\xe5\xb8\xa7\xe9\x95\xbf:13\t\xe6\x80\xbb\xe5\xb8\xa7\xe9\x95\xbf:96\n'
p1361
sa(dp1362
g2
S'14365'
p1363
sg4
L1449716670383L
sg5
g6
sg7
S'ForegroundActivity'
p1364
sg9
S'14395'
p1365
sg11
S'\xe6\x9c\xac\xe6\xac\xa1\xe6\x94\xb6\xe5\x88\xb0\xe5\xb8\xa7\xe9\x95\xbf:13\t\xe6\x80\xbb\xe5\xb8\xa7\xe9\x95\xbf:761\n'
p1366
sa(dp1367
g2
S'14365'
p1368
sg4
L1449716670433L
sg5
g6
sg7
S'SocketService1'
p1369
sg9
S'14392'
p1370
sg11
S'\xe6\x9c\xac\xe6\xac\xa1\xe6\x8f\x90\xe5\x8f\x961:LoadPtr:761 HeadIndex:748 GetSize:13 13 0 \xe5\xa4\xb4\xe4\xbf\xa1\xe6\x81\xaf:EB 90 EB 90 EB 90 0D 00 10 01 \n'
p1371
sa(dp1372
g2
S'14349'
p1373
sg4
L1449716680318L
sg5
g6
sg7
S'AbsListView'
p1374
sg9
S'14349'
p1375
sg11
S'unregisterIRListener() is called \n'
p1376
sa(dp1377
g2
S'14349'
p1378
sg4
L1449716680318L
sg5
g50
sg7
S'ApplicationPackageManager'
p1379
sg9
S'14349'
p1380
sg11
S'getCSCPackageItemText()\n'
p1381
sa(dp1382
g2
S'14349'
p1383
sg4
L1449716680318L
sg5
g56
sg7
S'PersonaManager'
p1384
sg9
S'14349'
p1385
sg11
S'getPersonaService() name persona_policy\n'
p1386
sa(dp1387
g2
S'14349'
p1388
sg4
L1449716680383L
sg5
g6
sg7
S'mali_winsys'
p1389
sg9
S'14349'
p1390
sg11
S'new_window_surface returns 0x3000\n'
p1391
sa(dp1392
g2
S'14349'
p1393
sg4
L1449716680388L
sg5
g50
sg7
S'AwContents'
p1394
sg9
S'14349'
p1395
sg11
S'nativeOnDraw failed; clearing to background color.\n'
p1396
sa(dp1397
g2
S'14349'
p1398
sg4
L1449716680418L
sg5
g50
sg7
S'AwContents'
p1399
sg9
S'14349'
p1400
sg11
S'nativeOnDraw failed; clearing to background color.\n'
p1401
sa(dp1402
g2
S'14349'
p1403
sg4
L1449716680728L
sg5
g6
sg7
S'AbsListView'
p1404
sg9
S'14349'
p1405
sg11
S'onVisibilityChanged() is called, visibility : 4\n'
p1406
sa(dp1407
g2
S'14349'
p1408
sg4
L1449716680728L
sg5
g6
sg7
S'AbsListView'
p1409
sg9
S'14349'
p1410
sg11
S'unregisterIRListener() is called \n'
p1411
sa(dp1412
g2
S'14349'
p1413
sg4
L1449716680733L
sg5
g6
sg7
S'AbsListView'
p1414
sg9
S'14349'
p1415
sg11
S'onVisibilityChanged() is called, visibility : 4\n'
p1416
sa(dp1417
g2
S'14349'
p1418
sg4
L1449716680733L
sg5
g6
sg7
S'AbsListView'
p1419
sg9
S'14349'
p1420
sg11
S'unregisterIRListener() is called \n'
p1421
sa(dp1422
g2
S'14349'
p1423
sg4
L1449716680763L
sg5
g56
sg7
S'chromium'
p1424
sg9
S'14349'
p1425
sg11
S'[INFO:async_pixel_transfer_manager_android.cc(56)] Async pixel transfers not supported\n'
p1426
sa(dp1427
g2
S'14349'
p1428
sg4
L1449716680773L
sg5
g56
sg7
S'chromium'
p1429
sg9
S'14349'
p1430
sg11
S'[INFO:async_pixel_transfer_manager_android.cc(56)] Async pixel transfers not supported\n'
p1431
sa(dp1432
g2
S'14349'
p1433
sg4
L1449716680928L
sg5
g6
sg7
S'MainActivity'
p1434
sg9
S'14427'
p1435
sg11
S'h:910.5,w:1687.5\n'
p1436
sa(dp1437
g2
S'14349'
p1438
sg4
L1449716681078L
sg5
g6
sg7
S'mali_winsys'
p1439
sg9
S'14349'
p1440
sg11
S'new_window_surface returns 0x3000\n'
p1441
sa(dp1442
g2
S'14349'
p1443
sg4
L1449716682523L
sg5
g6
sg7
S'mali_winsys'
p1444
sg9
S'14349'
p1445
sg11
S'new_window_surface returns 0x3000\n'
p1446
sa(dp1447
g2
S'14349'
p1448
sg4
L1449716683163L
sg5
g6
sg7
S'MainActivity'
p1449
sg9
S'14427'
p1450
sg11
S'h:805.135,w:1497.81\n'
p1451
sa(dp1452
g2
S'14349'
p1453
sg4
L1449716683353L
sg5
g347
sg7
S'ViewRootImpl'
p1454
sg9
S'14349'
p1455
sg11
S'sendUserActionEvent() mView == null\n'
p1456
sa(dp1457
g2
S'14349'
p1458
sg4
L1449716686003L
sg5
g50
sg7
S'UnimplementedWebViewApi'
p1459
sg9
S'14349'
p1460
sg11
S'Unimplemented WebView method onKeyDown called from: android.webkit.WebView.onKeyDown(WebView.java:2179)\n'
p1461
sa(dp1462
g2
S'14349'
p1463
sg4
L1449716686443L
sg5
g6
sg7
S'MainActivity'
p1464
sg9
S'14427'
p1465
sg11
S'h:910.5,w:1687.5\n'
p1466
sa(dp1467
g2
S'14349'
p1468
sg4
L1449716687453L
sg5
g6
sg7
S'mali_winsys'
p1469
sg9
S'14349'
p1470
sg11
S'new_window_surface returns 0x3000\n'
p1471
sa(dp1472
g2
S'14349'
p1473
sg4
L1449716687993L
sg5
g6
sg7
S'MainActivity'
p1474
sg9
S'14427'
p1475
sg11
S'h:805.135,w:1496.51\n'
p1476
sa(dp1477
g2
S'14349'
p1478
sg4
L1449716688098L
sg5
g347
sg7
S'ViewRootImpl'
p1479
sg9
S'14349'
p1480
sg11
S'sendUserActionEvent() mView == null\n'
p1481
sa(dp1482
g2
S'14365'
p1483
sg4
L1449716688528L
sg5
g6
sg7
S'dalvikvm'
p1484
sg9
S'14369'
p1485
sg11
S'GC_CONCURRENT freed 1926K, 15% free 18065K/21092K, paused 4ms+1ms, total 16ms\n'
p1486
sa(dp1487
g2
S'14349'
p1488
sg4
L1449716689188L
sg5
g50
sg7
S'UnimplementedWebViewApi'
p1489
sg9
S'14349'
p1490
sg11
S'Unimplemented WebView method onKeyDown called from: android.webkit.WebView.onKeyDown(WebView.java:2179)\n'
p1491
sa(dp1492
g2
S'14349'
p1493
sg4
L1449716689708L
sg5
g6
sg7
S'MainActivity'
p1494
sg9
S'14427'
p1495
sg11
S'h:910.5,w:1687.5\n'
p1496
sa(dp1497
g2
S'14349'
p1498
sg4
L1449716690988L
sg5
g6
sg7
S'mali_winsys'
p1499
sg9
S'14349'
p1500
sg11
S'new_window_surface returns 0x3000\n'
p1501
sa(dp1502
g2
S'14349'
p1503
sg4
L1449716691633L
sg5
g6
sg7
S'MainActivity'
p1504
sg9
S'14427'
p1505
sg11
S'h:795.972,w:1718.77\n'
p1506
sa(dp1507
g2
S'14349'
p1508
sg4
L1449716691783L
sg5
g347
sg7
S'ViewRootImpl'
p1509
sg9
S'14349'
p1510
sg11
S'sendUserActionEvent() mView == null\n'
p1511
sa(dp1512
g2
S'14349'
p1513
sg4
L1449716692748L
sg5
g50
sg7
S'UnimplementedWebViewApi'
p1514
sg9
S'14349'
p1515
sg11
S'Unimplemented WebView method onKeyDown called from: android.webkit.WebView.onKeyDown(WebView.java:2179)\n'
p1516
sa(dp1517
g2
S'14349'
p1518
sg4
L1449716693363L
sg5
g6
sg7
S'MainActivity'
p1519
sg9
S'14427'
p1520
sg11
S'h:910.5,w:1687.5\n'
p1521
sa(dp1522
g2
S'14349'
p1523
sg4
L1449716694538L
sg5
g6
sg7
S'mali_winsys'
p1524
sg9
S'14349'
p1525
sg11
S'new_window_surface returns 0x3000\n'
p1526
sa(dp1527
g2
S'14349'
p1528
sg4
L1449716695058L
sg5
g6
sg7
S'MainActivity'
p1529
sg9
S'14427'
p1530
sg11
S'h:805.135,w:1498.76\n'
p1531
sa(dp1532
g2
S'14349'
p1533
sg4
L1449716695183L
sg5
g347
sg7
S'ViewRootImpl'
p1534
sg9
S'14349'
p1535
sg11
S'sendUserActionEvent() mView == null\n'
p1536
sa(dp1537
g2
S'14349'
p1538
sg4
L1449716696093L
sg5
g50
sg7
S'UnimplementedWebViewApi'
p1539
sg9
S'14349'
p1540
sg11
S'Unimplemented WebView method onKeyDown called from: android.webkit.WebView.onKeyDown(WebView.java:2179)\n'
p1541
sa(dp1542
g2
S'14349'
p1543
sg4
L1449716696688L
sg5
g6
sg7
S'MainActivity'
p1544
sg9
S'14427'
p1545
sg11
S'h:910.5,w:1687.5\n'
p1546
sa(dp1547
g2
S'14349'
p1548
sg4
L1449716697593L
sg5
g6
sg7
S'mali_winsys'
p1549
sg9
S'14349'
p1550
sg11
S'new_window_surface returns 0x3000\n'
p1551
sa(dp1552
g2
S'14349'
p1553
sg4
L1449716698103L
sg5
g6
sg7
S'MainActivity'
p1554
sg9
S'14427'
p1555
sg11
S'h:805.135,w:1543\n'
p1556
sa(dp1557
g2
S'14349'
p1558
sg4
L1449716698233L
sg5
g347
sg7
S'ViewRootImpl'
p1559
sg9
S'14349'
p1560
sg11
S'sendUserActionEvent() mView == null\n'
p1561
sa(dp1562
g2
S'14349'
p1563
sg4
L1449716699173L
sg5
g50
sg7
S'UnimplementedWebViewApi'
p1564
sg9
S'14349'
p1565
sg11
S'Unimplemented WebView method onKeyDown called from: android.webkit.WebView.onKeyDown(WebView.java:2179)\n'
p1566
sa(dp1567
g2
S'14349'
p1568
sg4
L1449716699678L
sg5
g6
sg7
S'MainActivity'
p1569
sg9
S'14427'
p1570
sg11
S'h:910.5,w:1687.5\n'
p1571
sa(dp1572
g2
S'14349'
p1573
sg4
L1449716700548L
sg5
g6
sg7
S'mali_winsys'
p1574
sg9
S'14349'
p1575
sg11
S'new_window_surface returns 0x3000\n'
p1576
sa(dp1577
g2
S'14349'
p1578
sg4
L1449716701148L
sg5
g6
sg7
S'MainActivity'
p1579
sg9
S'14427'
p1580
sg11
S'h:837.086,w:1990.38\n'
p1581
sa(dp1582
g2
S'14349'
p1583
sg4
L1449716701348L
sg5
g347
sg7
S'ViewRootImpl'
p1584
sg9
S'14349'
p1585
sg11
S'sendUserActionEvent() mView == null\n'
p1586
sa(dp1587
g2
S'14349'
p1588
sg4
L1449716702063L
sg5
g50
sg7
S'UnimplementedWebViewApi'
p1589
sg9
S'14349'
p1590
sg11
S'Unimplemented WebView method onKeyDown called from: android.webkit.WebView.onKeyDown(WebView.java:2179)\n'
p1591
sa(dp1592
g2
S'14349'
p1593
sg4
L1449716702688L
sg5
g6
sg7
S'MainActivity'
p1594
sg9
S'14427'
p1595
sg11
S'h:910.5,w:1687.5\n'
p1596
sa(dp1597
g2
S'14349'
p1598
sg4
L1449716703948L
sg5
g6
sg7
S'mali_winsys'
p1599
sg9
S'14349'
p1600
sg11
S'new_window_surface returns 0x3000\n'
p1601
sa(dp1602
g2
S'14349'
p1603
sg4
L1449716704573L
sg5
g6
sg7
S'MainActivity'
p1604
sg9
S'14427'
p1605
sg11
S'h:808.635,w:1451.27\n'
p1606
sa(dp1607
g2
S'14349'
p1608
sg4
L1449716704678L
sg5
g347
sg7
S'ViewRootImpl'
p1609
sg9
S'14349'
p1610
sg11
S'sendUserActionEvent() mView == null\n'
p1611
sa(dp1612
g2
S'14349'
p1613
sg4
L1449716705333L
sg5
g50
sg7
S'UnimplementedWebViewApi'
p1614
sg9
S'14349'
p1615
sg11
S'Unimplemented WebView method onKeyDown called from: android.webkit.WebView.onKeyDown(WebView.java:2179)\n'
p1616
sa(dp1617
g2
S'14349'
p1618
sg4
L1449716705898L
sg5
g6
sg7
S'MainActivity'
p1619
sg9
S'14427'
p1620
sg11
S'h:910.5,w:1687.5\n'
p1621
sa(dp1622
g2
S'14365'
p1623
sg4
L1449716710323L
sg5
g6
sg7
S'ForegroundActivity'
p1624
sg9
S'14390'
p1625
sg11
S'\xe6\x9c\xac\xe6\xac\xa1\xe5\x8f\x91\xe9\x80\x81\xe5\xb8\xa7\xe9\x95\xbf:13\t\xe6\x80\xbb\xe5\xb8\xa7\xe9\x95\xbf:109\n'
p1626
sa(dp1627
g2
S'14365'
p1628
sg4
L1449716710393L
sg5
g6
sg7
S'ForegroundActivity'
p1629
sg9
S'14395'
p1630
sg11
S'\xe6\x9c\xac\xe6\xac\xa1\xe6\x94\xb6\xe5\x88\xb0\xe5\xb8\xa7\xe9\x95\xbf:13\t\xe6\x80\xbb\xe5\xb8\xa7\xe9\x95\xbf:774\n'
p1631
sa(dp1632
g2
S'14365'
p1633
sg4
L1449716710458L
sg5
g6
sg7
S'SocketService1'
p1634
sg9
S'14392'
p1635
sg11
S'\xe6\x9c\xac\xe6\xac\xa1\xe6\x8f\x90\xe5\x8f\x961:LoadPtr:774 HeadIndex:761 GetSize:13 13 0 \xe5\xa4\xb4\xe4\xbf\xa1\xe6\x81\xaf:EB 90 EB 90 EB 90 0D 00 10 01 \n'
p1636
sa(dp1637
g2
S'14349'
p1638
sg4
L1449716713543L
sg5
g50
sg7
S'UnimplementedWebViewApi'
p1639
sg9
S'14349'
p1640
sg11
S'Unimplemented WebView method onKeyDown called from: android.webkit.WebView.onKeyDown(WebView.java:2179)\n'
p1641
sa(dp1642
g2
S'14349'
p1643
sg4
L1449716713693L
sg5
g6
sg7
S'AbsListView'
p1644
sg9
S'14349'
p1645
sg11
S'onVisibilityChanged() is called, visibility : 0\n'
p1646
sa(dp1647
g2
S'14349'
p1648
sg4
L1449716713693L
sg5
g6
sg7
S'AbsListView'
p1649
sg9
S'14349'
p1650
sg11
S'unregisterIRListener() is called \n'
p1651
sa(dp1652
g2
S'14349'
p1653
sg4
L1449716713718L
sg5
g6
sg7
S'mali_winsys'
p1654
sg9
S'14349'
p1655
sg11
S'new_window_surface returns 0x3000\n'
p1656
sa(dp1657
g2
S'14349'
p1658
sg4
L1449716713723L
sg5
g6
sg7
S'AbsListView'
p1659
sg9
S'14349'
p1660
sg11
S'unregisterIRListener() is called \n'
p1661
sa(dp1662
g2
S'14349'
p1663
sg4
L1449716713743L
sg5
g6
sg7
S'AbsListView'
p1664
sg9
S'14349'
p1665
sg11
S'unregisterIRListener() is called \n'
p1666
sa(dp1667
g2
S'14349'
p1668
sg4
L1449716713748L
sg5
g6
sg7
S'AbsListView'
p1669
sg9
S'14349'
p1670
sg11
S'unregisterIRListener() is called \n'
p1671
sa(dp1672
g2
S'14349'
p1673
sg4
L1449716716013L
sg5
g6
sg7
S'AbsListView'
p1674
sg9
S'14349'
p1675
sg11
S'unregisterIRListener() is called \n'
p1676
sa(dp1677
g2
S'14349'
p1678
sg4
L1449716716018L
sg5
g6
sg7
S'AbsListView'
p1679
sg9
S'14349'
p1680
sg11
S'unregisterIRListener() is called \n'
p1681
sa(dp1682
g2
S'14349'
p1683
sg4
L1449716716018L
sg5
g50
sg7
S'ApplicationPackageManager'
p1684
sg9
S'14349'
p1685
sg11
S'getCSCPackageItemText()\n'
p1686
sa(dp1687
g2
S'14349'
p1688
sg4
L1449716716018L
sg5
g56
sg7
S'PersonaManager'
p1689
sg9
S'14349'
p1690
sg11
S'getPersonaService() name persona_policy\n'
p1691
sa(dp1692
g2
S'14349'
p1693
sg4
L1449716716078L
sg5
g6
sg7
S'mali_winsys'
p1694
sg9
S'14349'
p1695
sg11
S'new_window_surface returns 0x3000\n'
p1696
sa(dp1697
g2
S'14349'
p1698
sg4
L1449716716098L
sg5
g50
sg7
S'AwContents'
p1699
sg9
S'14349'
p1700
sg11
S'nativeOnDraw failed; clearing to background color.\n'
p1701
sa(dp1702
g2
S'14349'
p1703
sg4
L1449716716118L
sg5
g50
sg7
S'AwContents'
p1704
sg9
S'14349'
p1705
sg11
S'nativeOnDraw failed; clearing to background color.\n'
p1706
sa(dp1707
g2
S'14349'
p1708
sg4
L1449716716448L
sg5
g6
sg7
S'AbsListView'
p1709
sg9
S'14349'
p1710
sg11
S'onVisibilityChanged() is called, visibility : 4\n'
p1711
sa(dp1712
g2
S'14349'
p1713
sg4
L1449716716448L
sg5
g6
sg7
S'AbsListView'
p1714
sg9
S'14349'
p1715
sg11
S'unregisterIRListener() is called \n'
p1716
sa(dp1717
g2
S'14349'
p1718
sg4
L1449716716508L
sg5
g6
sg7
S'MainActivity'
p1719
sg9
S'14427'
p1720
sg11
S'h:910.5,w:1687.5\n'
p1721
sa(dp1722
g2
S'14349'
p1723
sg4
L1449716716628L
sg5
g56
sg7
S'chromium'
p1724
sg9
S'14349'
p1725
sg11
S'[INFO:async_pixel_transfer_manager_android.cc(56)] Async pixel transfers not supported\n'
p1726
sa(dp1727
g2
S'14349'
p1728
sg4
L1449716716648L
sg5
g56
sg7
S'chromium'
p1729
sg9
S'14349'
p1730
sg11
S'[INFO:async_pixel_transfer_manager_android.cc(56)] Async pixel transfers not supported\n'
p1731
sa(dp1732
g2
S'14349'
p1733
sg4
L1449716716678L
sg5
g6
sg7
S'mali_winsys'
p1734
sg9
S'14349'
p1735
sg11
S'new_window_surface returns 0x3000\n'
p1736
sa(dp1737
g2
S'14349'
p1738
sg4
L1449716718183L
sg5
g6
sg7
S'mali_winsys'
p1739
sg9
S'14349'
p1740
sg11
S'new_window_surface returns 0x3000\n'
p1741
sa(dp1742
g2
S'14349'
p1743
sg4
L1449716718838L
sg5
g6
sg7
S'MainActivity'
p1744
sg9
S'14427'
p1745
sg11
S'h:844.958,w:1720.73\n'
p1746
sa(dp1747
g2
S'14349'
p1748
sg4
L1449716719043L
sg5
g347
sg7
S'ViewRootImpl'
p1749
sg9
S'14349'
p1750
sg11
S'sendUserActionEvent() mView == null\n'
p1751
sa(dp1752
g2
S'14349'
p1753
sg4
L1449716719838L
sg5
g50
sg7
S'UnimplementedWebViewApi'
p1754
sg9
S'14349'
p1755
sg11
S'Unimplemented WebView method onKeyDown called from: android.webkit.WebView.onKeyDown(WebView.java:2179)\n'
p1756
sa(dp1757
g2
S'14349'
p1758
sg4
L1449716719898L
sg5
g56
sg7
S'chromium'
p1759
sg9
S'14349'
p1760
sg11
S'[INFO:CONSOLE(599)] "No data received from server", source: http://oa.paneng.cn:1143/se9200/dwr/engine.js (599)\n'
p1761
sa(dp1762
g2
S'14349'
p1763
sg4
L1449716720818L
sg5
g6
sg7
S'MainActivity'
p1764
sg9
S'14427'
p1765
sg11
S'h:910.5,w:1687.5\n'
p1766
sa(dp1767
g2
S'14349'
p1768
sg4
L1449716720963L
sg5
g6
sg7
S'dalvikvm'
p1769
sg9
S'14353'
p1770
sg11
S'GC_CONCURRENT freed 7241K, 13% free 60150K/68484K, paused 4ms+7ms, total 44ms\n'
p1771
sa(dp1772
g2
S'14349'
p1773
sg4
L1449716721878L
sg5
g50
sg7
S'UnimplementedWebViewApi'
p1774
sg9
S'14349'
p1775
sg11
S'Unimplemented WebView method onKeyDown called from: android.webkit.WebView.onKeyDown(WebView.java:2179)\n'
p1776
sa(dp1777
g2
S'14349'
p1778
sg4
L1449716722038L
sg5
g6
sg7
S'AbsListView'
p1779
sg9
S'14349'
p1780
sg11
S'onVisibilityChanged() is called, visibility : 0\n'
p1781
sa(dp1782
g2
S'14349'
p1783
sg4
L1449716722038L
sg5
g6
sg7
S'AbsListView'
p1784
sg9
S'14349'
p1785
sg11
S'unregisterIRListener() is called \n'
p1786
sa(dp1787
g2
S'14349'
p1788
sg4
L1449716722063L
sg5
g6
sg7
S'mali_winsys'
p1789
sg9
S'14349'
p1790
sg11
S'new_window_surface returns 0x3000\n'
p1791
sa(dp1792
g2
S'14349'
p1793
sg4
L1449716722068L
sg5
g6
sg7
S'AbsListView'
p1794
sg9
S'14349'
p1795
sg11
S'unregisterIRListener() is called \n'
p1796
sa(dp1797
g2
S'14349'
p1798
sg4
L1449716722083L
sg5
g6
sg7
S'AbsListView'
p1799
sg9
S'14349'
p1800
sg11
S'unregisterIRListener() is called \n'
p1801
sa(dp1802
g2
S'14349'
p1803
sg4
L1449716723003L
sg5
g6
sg7
S'AbsListView'
p1804
sg9
S'14349'
p1805
sg11
S'unregisterIRListener() is called \n'
p1806
sa(dp1807
g2
S'14349'
p1808
sg4
L1449716723003L
sg5
g50
sg7
S'ApplicationPackageManager'
p1809
sg9
S'14349'
p1810
sg11
S'getCSCPackageItemText()\n'
p1811
sa(dp1812
g2
S'14349'
p1813
sg4
L1449716723003L
sg5
g56
sg7
S'PersonaManager'
p1814
sg9
S'14349'
p1815
sg11
S'getPersonaService() name persona_policy\n'
p1816
sa(dp1817
g2
S'14349'
p1818
sg4
L1449716723063L
sg5
g6
sg7
S'mali_winsys'
p1819
sg9
S'14349'
p1820
sg11
S'new_window_surface returns 0x3000\n'
p1821
sa(dp1822
g2
S'14349'
p1823
sg4
L1449716723068L
sg5
g50
sg7
S'AwContents'
p1824
sg9
S'14349'
p1825
sg11
S'nativeOnDraw failed; clearing to background color.\n'
p1826
sa(dp1827
g2
S'14349'
p1828
sg4
L1449716723423L
sg5
g6
sg7
S'AbsListView'
p1829
sg9
S'14349'
p1830
sg11
S'onVisibilityChanged() is called, visibility : 4\n'
p1831
sa(dp1832
g2
S'14349'
p1833
sg4
L1449716723423L
sg5
g6
sg7
S'AbsListView'
p1834
sg9
S'14349'
p1835
sg11
S'unregisterIRListener() is called \n'
p1836
sa(dp1837
g2
S'14349'
p1838
sg4
L1449716723428L
sg5
g6
sg7
S'AbsListView'
p1839
sg9
S'14349'
p1840
sg11
S'onVisibilityChanged() is called, visibility : 4\n'
p1841
sa(dp1842
g2
S'14349'
p1843
sg4
L1449716723428L
sg5
g6
sg7
S'AbsListView'
p1844
sg9
S'14349'
p1845
sg11
S'unregisterIRListener() is called \n'
p1846
sa(dp1847
g2
S'14349'
p1848
sg4
L1449716723458L
sg5
g56
sg7
S'chromium'
p1849
sg9
S'14349'
p1850
sg11
S'[INFO:async_pixel_transfer_manager_android.cc(56)] Async pixel transfers not supported\n'
p1851
sa(dp1852
g2
S'14349'
p1853
sg4
L1449716723468L
sg5
g56
sg7
S'chromium'
p1854
sg9
S'14349'
p1855
sg11
S'[INFO:async_pixel_transfer_manager_android.cc(56)] Async pixel transfers not supported\n'
p1856
sa(dp1857
g2
S'14349'
p1858
sg4
L1449716723493L
sg5
g6
sg7
S'MainActivity'
p1859
sg9
S'14427'
p1860
sg11
S'h:910.5,w:1687.5\n'
p1861
sa(dp1862
g2
S'14349'
p1863
sg4
L1449716723633L
sg5
g6
sg7
S'mali_winsys'
p1864
sg9
S'14349'
p1865
sg11
S'new_window_surface returns 0x3000\n'
p1866
sa(dp1867
g2
S'14349'
p1868
sg4
L1449716724538L
sg5
g6
sg7
S'mali_winsys'
p1869
sg9
S'14349'
p1870
sg11
S'new_window_surface returns 0x3000\n'
p1871
sa(dp1872
g2
S'14349'
p1873
sg4
L1449716725058L
sg5
g6
sg7
S'MainActivity'
p1874
sg9
S'14427'
p1875
sg11
S'h:761.443,w:1717.5\n'
p1876
sa(dp1877
g2
S'14349'
p1878
sg4
L1449716725233L
sg5
g347
sg7
S'ViewRootImpl'
p1879
sg9
S'14349'
p1880
sg11
S'sendUserActionEvent() mView == null\n'
p1881
sa(dp1882
g2
S'14349'
p1883
sg4
L1449716727348L
sg5
g50
sg7
S'UnimplementedWebViewApi'
p1884
sg9
S'14349'
p1885
sg11
S'Unimplemented WebView method onKeyDown called from: android.webkit.WebView.onKeyDown(WebView.java:2179)\n'
p1886
sa(dp1887
g2
S'14349'
p1888
sg4
L1449716727483L
sg5
g50
sg7
S'UnimplementedWebViewApi'
p1889
sg9
S'14349'
p1890
sg11
S'Unimplemented WebView method onKeyDown called from: android.webkit.WebView.onKeyDown(WebView.java:2179)\n'
p1891
sa(dp1892
g2
S'14349'
p1893
sg4
L1449716727623L
sg5
g6
sg7
S'AbsListView'
p1894
sg9
S'14349'
p1895
sg11
S'onVisibilityChanged() is called, visibility : 0\n'
p1896
sa(dp1897
g2
S'14349'
p1898
sg4
L1449716727623L
sg5
g6
sg7
S'AbsListView'
p1899
sg9
S'14349'
p1900
sg11
S'unregisterIRListener() is called \n'
p1901
sa(dp1902
g2
S'14349'
p1903
sg4
L1449716727648L
sg5
g6
sg7
S'mali_winsys'
p1904
sg9
S'14349'
p1905
sg11
S'new_window_surface returns 0x3000\n'
p1906
sa(dp1907
g2
S'14349'
p1908
sg4
L1449716727653L
sg5
g6
sg7
S'AbsListView'
p1909
sg9
S'14349'
p1910
sg11
S'unregisterIRListener() is called \n'
p1911
sa(dp1912
g2
S'14349'
p1913
sg4
L1449716727673L
sg5
g6
sg7
S'AbsListView'
p1914
sg9
S'14349'
p1915
sg11
S'unregisterIRListener() is called \n'
p1916
sa(dp1917
g2
S'14349'
p1918
sg4
L1449716728333L
sg5
g6
sg7
S'MainActivity'
p1919
sg9
S'14427'
p1920
sg11
S'h:910.5,w:1687.5\n'
p1921
sa(dp1922
g2
S'14349'
p1923
sg4
L1449716728498L
sg5
g6
sg7
S'AbsListView'
p1924
sg9
S'14349'
p1925
sg11
S'unregisterIRListener() is called \n'
p1926
sa(dp1927
g2
S'14349'
p1928
sg4
L1449716728498L
sg5
g50
sg7
S'ApplicationPackageManager'
p1929
sg9
S'14349'
p1930
sg11
S'getCSCPackageItemText()\n'
p1931
sa(dp1932
g2
S'14349'
p1933
sg4
L1449716728498L
sg5
g56
sg7
S'PersonaManager'
p1934
sg9
S'14349'
p1935
sg11
S'getPersonaService() name persona_policy\n'
p1936
sa(dp1937
g2
S'14349'
p1938
sg4
L1449716728548L
sg5
g6
sg7
S'mali_winsys'
p1939
sg9
S'14349'
p1940
sg11
S'new_window_surface returns 0x3000\n'
p1941
sa(dp1942
g2
S'14349'
p1943
sg4
L1449716728553L
sg5
g50
sg7
S'AwContents'
p1944
sg9
S'14349'
p1945
sg11
S'nativeOnDraw failed; clearing to background color.\n'
p1946
sa(dp1947
g2
S'14349'
p1948
sg4
L1449716728573L
sg5
g50
sg7
S'AwContents'
p1949
sg9
S'14349'
p1950
sg11
S'nativeOnDraw failed; clearing to background color.\n'
p1951
sa(dp1952
g2
S'14349'
p1953
sg4
L1449716728898L
sg5
g6
sg7
S'AbsListView'
p1954
sg9
S'14349'
p1955
sg11
S'onVisibilityChanged() is called, visibility : 4\n'
p1956
sa(dp1957
g2
S'14349'
p1958
sg4
L1449716728898L
sg5
g6
sg7
S'AbsListView'
p1959
sg9
S'14349'
p1960
sg11
S'unregisterIRListener() is called \n'
p1961
sa(dp1962
g2
S'14349'
p1963
sg4
L1449716728933L
sg5
g56
sg7
S'chromium'
p1964
sg9
S'14349'
p1965
sg11
S'[INFO:async_pixel_transfer_manager_android.cc(56)] Async pixel transfers not supported\n'
p1966
sa(dp1967
g2
S'14349'
p1968
sg4
L1449716728938L
sg5
g56
sg7
S'chromium'
p1969
sg9
S'14349'
p1970
sg11
S'[INFO:async_pixel_transfer_manager_android.cc(56)] Async pixel transfers not supported\n'
p1971
sa(dp1972
g2
S'14349'
p1973
sg4
L1449716729068L
sg5
g6
sg7
S'MainActivity'
p1974
sg9
S'14427'
p1975
sg11
S'h:910.5,w:1687.5\n'
p1976
sa(dp1977
g2
S'14349'
p1978
sg4
L1449716729223L
sg5
g6
sg7
S'mali_winsys'
p1979
sg9
S'14349'
p1980
sg11
S'new_window_surface returns 0x3000\n'
p1981
sa(dp1982
g2
S'14349'
p1983
sg4
L1449716730573L
sg5
g6
sg7
S'mali_winsys'
p1984
sg9
S'14349'
p1985
sg11
S'new_window_surface returns 0x3000\n'
p1986
sa(dp1987
g2
S'14349'
p1988
sg4
L1449716731118L
sg5
g6
sg7
S'MainActivity'
p1989
sg9
S'14427'
p1990
sg11
S'h:846.25,w:1721.73\n'
p1991
sa(dp1992
g2
S'14349'
p1993
sg4
L1449716731433L
sg5
g347
sg7
S'ViewRootImpl'
p1994
sg9
S'14349'
p1995
sg11
S'sendUserActionEvent() mView == null\n'
p1996
sa(dp1997
g2
S'14349'
p1998
sg4
L1449716732448L
sg5
g50
sg7
S'UnimplementedWebViewApi'
p1999
sg9
S'14349'
p2000
sg11
S'Unimplemented WebView method onKeyDown called from: android.webkit.WebView.onKeyDown(WebView.java:2179)\n'
p2001
sa(dp2002
g2
S'14349'
p2003
sg4
L1449716733198L
sg5
g6
sg7
S'MainActivity'
p2004
sg9
S'14427'
p2005
sg11
S'h:910.5,w:1687.5\n'
p2006
sa(dp2007
g2
S'14349'
p2008
sg4
L1449716734508L
sg5
g6
sg7
S'mali_winsys'
p2009
sg9
S'14349'
p2010
sg11
S'new_window_surface returns 0x3000\n'
p2011
sa(dp2012
g2
S'14349'
p2013
sg4
L1449716735173L
sg5
g6
sg7
S'MainActivity'
p2014
sg9
S'14427'
p2015
sg11
S'h:847.943,w:1722.73\n'
p2016
sa(dp2017
g2
S'14349'
p2018
sg4
L1449716735338L
sg5
g347
sg7
S'ViewRootImpl'
p2019
sg9
S'14349'
p2020
sg11
S'sendUserActionEvent() mView == null\n'
p2021
sa(dp2022
g2
S'14349'
p2023
sg4
L1449716736273L
sg5
g50
sg7
S'UnimplementedWebViewApi'
p2024
sg9
S'14349'
p2025
sg11
S'Unimplemented WebView method onKeyDown called from: android.webkit.WebView.onKeyDown(WebView.java:2179)\n'
p2026
sa(dp2027
g2
S'14349'
p2028
sg4
L1449716737228L
sg5
g6
sg7
S'MainActivity'
p2029
sg9
S'14427'
p2030
sg11
S'h:910.5,w:1687.5\n'
p2031
sa(dp2032
g2
S'14349'
p2033
sg4
L1449716739003L
sg5
g6
sg7
S'mali_winsys'
p2034
sg9
S'14349'
p2035
sg11
S'new_window_surface returns 0x3000\n'
p2036
sa(dp2037
g2
S'14349'
p2038
sg4
L1449716739773L
sg5
g6
sg7
S'MainActivity'
p2039
sg9
S'14427'
p2040
sg11
S'h:845.835,w:1722.73\n'
p2041
sa(dp2042
g2
S'14349'
p2043
sg4
L1449716739983L
sg5
g347
sg7
S'ViewRootImpl'
p2044
sg9
S'14349'
p2045
sg11
S'sendUserActionEvent() mView == null\n'
p2046
sa(dp2047
g2
S'14349'
p2048
sg4
L1449716741323L
sg5
g50
sg7
S'UnimplementedWebViewApi'
p2049
sg9
S'14349'
p2050
sg11
S'Unimplemented WebView method onKeyDown called from: android.webkit.WebView.onKeyDown(WebView.java:2179)\n'
p2051
sa(dp2052
g2
S'14349'
p2053
sg4
L1449716742553L
sg5
g6
sg7
S'MainActivity'
p2054
sg9
S'14427'
p2055
sg11
S'h:910.5,w:1687.5\n'
p2056
sa(dp2057
g2
S'14349'
p2058
sg4
L1449716743963L
sg5
g6
sg7
S'mali_winsys'
p2059
sg9
S'14349'
p2060
sg11
S'new_window_surface returns 0x3000\n'
p2061
sa(dp2062
g2
S'14349'
p2063
sg4
L1449716744513L
sg5
g6
sg7
S'MainActivity'
p2064
sg9
S'14427'
p2065
sg11
S'h:761.443,w:1717.5\n'
p2066
sa(dp2067
g2
S'14349'
p2068
sg4
L1449716744613L
sg5
g347
sg7
S'ViewRootImpl'
p2069
sg9
S'14349'
p2070
sg11
S'sendUserActionEvent() mView == null\n'
p2071
sa(dp2072
g2
S'14349'
p2073
sg4
L1449716745423L
sg5
g50
sg7
S'UnimplementedWebViewApi'
p2074
sg9
S'14349'
p2075
sg11
S'Unimplemented WebView method onKeyDown called from: android.webkit.WebView.onKeyDown(WebView.java:2179)\n'
p2076
sa(dp2077
g2
S'14349'
p2078
sg4
L1449716745873L
sg5
g6
sg7
S'MainActivity'
p2079
sg9
S'14427'
p2080
sg11
S'h:910.5,w:1687.5\n'
p2081
sa(dp2082
g2
S'14365'
p2083
sg4
L1449716750323L
sg5
g6
sg7
S'ForegroundActivity'
p2084
sg9
S'14390'
p2085
sg11
S'\xe6\x9c\xac\xe6\xac\xa1\xe5\x8f\x91\xe9\x80\x81\xe5\xb8\xa7\xe9\x95\xbf:13\t\xe6\x80\xbb\xe5\xb8\xa7\xe9\x95\xbf:122\n'
p2086
sa(dp2087
g2
S'14365'
p2088
sg4
L1449716750423L
sg5
g6
sg7
S'ForegroundActivity'
p2089
sg9
S'14395'
p2090
sg11
S'\xe6\x9c\xac\xe6\xac\xa1\xe6\x94\xb6\xe5\x88\xb0\xe5\xb8\xa7\xe9\x95\xbf:13\t\xe6\x80\xbb\xe5\xb8\xa7\xe9\x95\xbf:787\n'
p2091
sa(dp2092
g2
S'14365'
p2093
sg4
L1449716750483L
sg5
g6
sg7
S'SocketService1'
p2094
sg9
S'14392'
p2095
sg11
S'\xe6\x9c\xac\xe6\xac\xa1\xe6\x8f\x90\xe5\x8f\x961:LoadPtr:787 HeadIndex:774 GetSize:13 13 0 \xe5\xa4\xb4\xe4\xbf\xa1\xe6\x81\xaf:EB 90 EB 90 EB 90 0D 00 10 01 \n'
p2096
sa(dp2097
g2
S'14349'
p2098
sg4
L1449716751728L
sg5
g50
sg7
S'UnimplementedWebViewApi'
p2099
sg9
S'14349'
p2100
sg11
S'Unimplemented WebView method onKeyDown called from: android.webkit.WebView.onKeyDown(WebView.java:2179)\n'
p2101
sa(dp2102
g2
S'14349'
p2103
sg4
L1449716751883L
sg5
g6
sg7
S'AbsListView'
p2104
sg9
S'14349'
p2105
sg11
S'onVisibilityChanged() is called, visibility : 0\n'
p2106
sa(dp2107
g2
S'14349'
p2108
sg4
L1449716751883L
sg5
g6
sg7
S'AbsListView'
p2109
sg9
S'14349'
p2110
sg11
S'unregisterIRListener() is called \n'
p2111
sa(dp2112
g2
S'14349'
p2113
sg4
L1449716751888L
sg5
g6
sg7
S'AbsListView'
p2114
sg9
S'14349'
p2115
sg11
S'onVisibilityChanged() is called, visibility : 0\n'
p2116
sa(dp2117
g2
S'14349'
p2118
sg4
L1449716751888L
sg5
g6
sg7
S'AbsListView'
p2119
sg9
S'14349'
p2120
sg11
S'unregisterIRListener() is called \n'
p2121
sa(dp2122
g2
S'14349'
p2123
sg4
L1449716751908L
sg5
g6
sg7
S'mali_winsys'
p2124
sg9
S'14349'
p2125
sg11
S'new_window_surface returns 0x3000\n'
p2126
sa(dp2127
g2
S'14349'
p2128
sg4
L1449716751913L
sg5
g6
sg7
S'AbsListView'
p2129
sg9
S'14349'
p2130
sg11
S'unregisterIRListener() is called \n'
p2131
sa(dp2132
g2
S'14349'
p2133
sg4
L1449716751928L
sg5
g6
sg7
S'AbsListView'
p2134
sg9
S'14349'
p2135
sg11
S'unregisterIRListener() is called \n'
p2136
sa(dp2137
g2
S'14349'
p2138
sg4
L1449716760863L
sg5
g6
sg7
S'AbsListView'
p2139
sg9
S'14349'
p2140
sg11
S'unregisterIRListener() is called \n'
p2141
sa(dp2142
g2
S'14349'
p2143
sg4
L1449716760863L
sg5
g50
sg7
S'ApplicationPackageManager'
p2144
sg9
S'14349'
p2145
sg11
S'getCSCPackageItemText()\n'
p2146
sa(dp2147
g2
S'14349'
p2148
sg4
L1449716760863L
sg5
g56
sg7
S'PersonaManager'
p2149
sg9
S'14349'
p2150
sg11
S'getPersonaService() name persona_policy\n'
p2151
sa(dp2152
g2
S'14349'
p2153
sg4
L1449716760928L
sg5
g6
sg7
S'mali_winsys'
p2154
sg9
S'14349'
p2155
sg11
S'new_window_surface returns 0x3000\n'
p2156
sa(dp2157
g2
S'14349'
p2158
sg4
L1449716760933L
sg5
g50
sg7
S'AwContents'
p2159
sg9
S'14349'
p2160
sg11
S'nativeOnDraw failed; clearing to background color.\n'
p2161
sa(dp2162
g2
S'14349'
p2163
sg4
L1449716760968L
sg5
g56
sg7
S'chromium'
p2164
sg9
S'14349'
p2165
sg11
S'[INFO:async_pixel_transfer_manager_android.cc(56)] Async pixel transfers not supported\n'
p2166
sa(dp2167
g2
S'14349'
p2168
sg4
L1449716760978L
sg5
g56
sg7
S'chromium'
p2169
sg9
S'14349'
p2170
sg11
S'[INFO:async_pixel_transfer_manager_android.cc(56)] Async pixel transfers not supported\n'
p2171
sa(dp2172
g2
S'14349'
p2173
sg4
L1449716761273L
sg5
g6
sg7
S'AbsListView'
p2174
sg9
S'14349'
p2175
sg11
S'onVisibilityChanged() is called, visibility : 4\n'
p2176
sa(dp2177
g2
S'14349'
p2178
sg4
L1449716761273L
sg5
g6
sg7
S'AbsListView'
p2179
sg9
S'14349'
p2180
sg11
S'unregisterIRListener() is called \n'
p2181
sa(dp2182
g2
S'14349'
p2183
sg4
L1449716764268L
sg5
g50
sg7
S'UnimplementedWebViewApi'
p2184
sg9
S'14349'
p2185
sg11
S'Unimplemented WebView method onKeyDown called from: android.webkit.WebView.onKeyDown(WebView.java:2179)\n'
p2186
sa(dp2187
g2
S'14349'
p2188
sg4
L1449716764303L
sg5
g6
sg7
S'AbsListView'
p2189
sg9
S'14349'
p2190
sg11
S'onVisibilityChanged() is called, visibility : 0\n'
p2191
sa(dp2192
g2
S'14349'
p2193
sg4
L1449716764303L
sg5
g6
sg7
S'AbsListView'
p2194
sg9
S'14349'
p2195
sg11
S'unregisterIRListener() is called \n'
p2196
sa(dp2197
g2
S'14349'
p2198
sg4
L1449716764313L
sg5
g6
sg7
S'mali_winsys'
p2199
sg9
S'14349'
p2200
sg11
S'new_window_surface returns 0x3000\n'
p2201
sa(dp2202
g2
S'14349'
p2203
sg4
L1449716764318L
sg5
g6
sg7
S'AbsListView'
p2204
sg9
S'14349'
p2205
sg11
S'unregisterIRListener() is called \n'
p2206
sa(dp2207
g2
S'14349'
p2208
sg4
L1449716764338L
sg5
g50
sg7
S'IInputConnectionWrapper'
p2209
sg9
S'14349'
p2210
sg11
S'clearMetaKeyStates on inactive InputConnection\n'
p2211
sa(dp2212
g2
S'14349'
p2213
sg4
L1449716769808L
sg5
g6
sg7
S'cn.edu.nju.ise.kikandroid'
p2214
sg9
S'14398'
p2215
sg11
S'Log:1449716769815\n'
p2216
sa(dp2217
g2
S'14349'
p2218
sg4
L1449716769923L
sg5
g6
sg7
S'dalvikvm'
p2219
sg9
S'14349'
p2220
sg11
S'GC_FOR_ALLOC freed 3634K, 13% free 59867K/68484K, paused 44ms, total 44ms\n'
p2221
sa(dp2222
g2
S'14349'
p2223
sg4
L1449716769943L
sg5
g56
sg7
S'dalvikvm-heap'
p2224
sg9
S'14349'
p2225
sg11
S'Grow heap (frag case) to 67.440MB for 8294416-byte allocation\n'
p2226
sa(dp2227
g2
S'14349'
p2228
sg4
L1449716769963L
sg5
g6
sg7
S'dalvikvm'
p2229
sg9
S'14349'
p2230
sg11
S'GC_FOR_ALLOC freed 1K, 12% free 67966K/76588K, paused 21ms, total 21ms\n'
p2231
sa(dp2232
g2
S'14349'
p2233
sg4
L1449716770003L
sg5
g6
sg7
S'dalvikvm'
p2234
sg9
S'14353'
p2235
sg11
S'GC_CONCURRENT freed 51K, 12% free 67915K/76588K, paused 5ms+3ms, total 38ms\n'
p2236
sa(dp2237
g2
S'14349'
p2238
sg4
L1449716770048L
sg5
g6
sg7
S'dalvikvm'
p2239
sg9
S'14349'
p2240
sg11
S'GC_FOR_ALLOC freed 72K, 12% free 67842K/76588K, paused 19ms, total 19ms\n'
p2241
sa(dp2242
g2
S'14349'
p2243
sg4
L1449716770228L
sg5
g6
sg7
S'cn.edu.nju.ise.kikandroid'
p2244
sg9
S'14398'
p2245
sg11
S'Screenshot:1449716769877\n'
p2246
sa(dp2247
g2
S'14349'
p2248
sg4
L1449716770228L
sg5
g50
sg7
S'dalvikvm'
p2249
sg9
S'14398'
p2250
sg11
S'threadid=15: thread exiting with uncaught exception (group=0x41752c08)\n'
p2251
sa(dp2252
g2
S'14349'
p2253
sg4
L1449716770228L
sg5
g347
sg7
S'AndroidRuntime'
p2254
sg9
S'14398'
p2255
sg11
S'FATAL EXCEPTION: Thread-2405\nProcess: com.example.myfristandroid, PID: 14349\njava.lang.NullPointerException\n\tat android.app.Instrumentation.finish(Instrumentation.java:195)\n\tat cn.edu.nju.ise.kikandroid.AUTInstrument.quitInstr(AUTInstrument.java:195)\n\tat cn.edu.nju.ise.kikandroid.AUTInstrument.startServer(AUTInstrument.java:161)\n\tat cn.edu.nju.ise.kikandroid.AUTInstrument$1.run(AUTInstrument.java:107)\n\tat java.lang.Thread.run(Thread.java:841)\n'
p2256
sa(dp2257
g2
S'15174'
p2258
sg4
L1449716954723L
sg5
g6
sg7
S'dalvikvm'
p2259
sg9
S'15174'
p2260
sg11
S'Late-enabling CheckJNI\n'
p2261
sa(dp2262
g2
S'15174'
p2263
sg4
L1449716954753L
sg5
g6
sg7
S'dalvikvm'
p2264
sg9
S'15174'
p2265
sg11
S'Trying to load lib /data/data/com.qihoo360.mobilesafe/files/libavb.so.4x.so 0x428ce508\n'
p2266
sa(dp2267
g2
S'15174'
p2268
sg4
L1449716954753L
sg5
g6
sg7
S'dalvikvm'
p2269
sg9
S'15174'
p2270
sg11
S'Added shared lib /data/data/com.qihoo360.mobilesafe/files/libavb.so.4x.so 0x428ce508\n'
p2271
sa(dp2272
g2
S'15174'
p2273
sg4
L1449716954763L
sg5
g6
sg7
S'dalvikvm'
p2274
sg9
S'15174'
p2275
sg11
S'Trying to load lib /data/data/com.qihoo360.mobilesafe/files/libavb.so.4x.so 0x428ce508\n'
p2276
sa(dp2277
g2
S'15174'
p2278
sg4
L1449716954763L
sg5
g6
sg7
S'dalvikvm'
p2279
sg9
S'15174'
p2280
sg11
S"Shared lib '/data/data/com.qihoo360.mobilesafe/files/libavb.so.4x.so' already loaded in same CL 0x428ce508\n"
p2281
sa(dp2282
g2
S'15174'
p2283
sg4
L1449716954813L
sg5
g6
sg7
S'dalvikvm'
p2284
sg9
S'15174'
p2285
sg11
S'GetMethodID: not returning static method Landroid/os/SystemProperties;.native_get (Ljava/lang/String;)Ljava/lang/String;\n'
p2286
sa(dp2287
g2
S'15174'
p2288
sg4
L1449716954818L
sg5
g6
sg7
S'dalvikvm'
p2289
sg9
S'15174'
p2290
sg11
S'GetMethodID: not returning static method Ljava/lang/ProcessManager;.exec ([Ljava/lang/String;[Ljava/lang/String;Ljava/lang/String;Ljava/io/FileDescriptor;Ljava/io/FileDescriptor;Ljava/io/FileDescriptor;Z)I\n'
p2291
sa(dp2292
g2
S'15174'
p2293
sg4
L1449716954818L
sg5
g6
sg7
S'dalvikvm'
p2294
sg9
S'15174'
p2295
sg11
S'GetMethodID: not returning static method Ljava/lang/Class;.classForName (Ljava/lang/String;ZLjava/lang/ClassLoader;)Ljava/lang/Class;\n'
p2296
sa(dp2297
g2
S'15174'
p2298
sg4
L1449716954943L
sg5
g50
sg7
S'ApplicationPackageManager'
p2299
sg9
S'15174'
p2300
sg11
S'getCSCPackageItemText()\n'
p2301
sa(dp2302
g2
S'15174'
p2303
sg4
L1449716954943L
sg5
g56
sg7
S'PersonaManager'
p2304
sg9
S'15174'
p2305
sg11
S'getPersonaService() name persona_policy\n'
p2306
sa(dp2307
g2
S'15174'
p2308
sg4
L1449716955178L
sg5
g6
sg7
S'dalvikvm'
p2309
sg9
S'15174'
p2310
sg11
S'GC_FOR_ALLOC freed 1029K, 12% free 17059K/19184K, paused 16ms, total 16ms\n'
p2311
sa(dp2312
g2
S'15174'
p2313
sg4
L1449716955263L
sg5
g56
sg7
S'dalvikvm-heap'
p2314
sg9
S'15174'
p2315
sg11
S'Grow heap (frag case) to 50.995MB for 34885888-byte allocation\n'
p2316
sa(dp2317
g2
S'15174'
p2318
sg4
L1449716955273L
sg5
g6
sg7
S'dalvikvm'
p2319
sg9
S'15183'
p2320
sg11
S'GC_FOR_ALLOC freed 3K, 5% free 51124K/53256K, paused 11ms, total 11ms\n'
p2321
sa(dp2322
g2
S'15174'
p2323
sg4
L1449716955293L
sg5
g6
sg7
S'dalvikvm'
p2324
sg9
S'15178'
p2325
sg11
S'GC_CONCURRENT freed <1K, 5% free 51124K/53256K, paused 2ms+3ms, total 20ms\n'
p2326
sa(dp2327
g2
S'15190'
p2328
sg4
L1449716955343L
sg5
g6
sg7
S'dalvikvm'
p2329
sg9
S'15190'
p2330
sg11
S'Late-enabling CheckJNI\n'
p2331
sa(dp2332
g2
S'15174'
p2333
sg4
L1449716955363L
sg5
g56
sg7
S'        '
p2334
sg9
S'15174'
p2335
sg11
S'PLATFORM VERSION : JB-MR-2\n'
p2336
sa(dp2337
g2
S'15190'
p2338
sg4
L1449716955373L
sg5
g6
sg7
S'dalvikvm'
p2339
sg9
S'15190'
p2340
sg11
S'Trying to load lib /data/data/com.qihoo360.mobilesafe/files/libavb.so.4x.so 0x428cf468\n'
p2341
sa(dp2342
g2
S'15190'
p2343
sg4
L1449716955373L
sg5
g6
sg7
S'dalvikvm'
p2344
sg9
S'15190'
p2345
sg11
S'Added shared lib /data/data/com.qihoo360.mobilesafe/files/libavb.so.4x.so 0x428cf468\n'
p2346
sa(dp2347
g2
S'15174'
p2348
sg4
L1449716955373L
sg5
g6
sg7
S'mali_winsys'
p2349
sg9
S'15174'
p2350
sg11
S'new_window_surface returns 0x3000\n'
p2351
sa(dp2352
g2
S'15190'
p2353
sg4
L1449716955378L
sg5
g6
sg7
S'dalvikvm'
p2354
sg9
S'15190'
p2355
sg11
S'Trying to load lib /data/data/com.qihoo360.mobilesafe/files/libavb.so.4x.so 0x428cf468\n'
p2356
sa(dp2357
g2
S'15190'
p2358
sg4
L1449716955378L
sg5
g6
sg7
S'dalvikvm'
p2359
sg9
S'15190'
p2360
sg11
S"Shared lib '/data/data/com.qihoo360.mobilesafe/files/libavb.so.4x.so' already loaded in same CL 0x428cf468\n"
p2361
sa(dp2362
g2
S'15174'
p2363
sg4
L1449716955398L
sg5
g6
sg7
S'OpenGLRenderer'
p2364
sg9
S'15174'
p2365
sg11
S'Enabling debug mode 0\n'
p2366
sa(dp2367
g2
S'15190'
p2368
sg4
L1449716955448L
sg5
g6
sg7
S'dalvikvm'
p2369
sg9
S'15190'
p2370
sg11
S'GetMethodID: not returning static method Landroid/os/SystemProperties;.native_get (Ljava/lang/String;)Ljava/lang/String;\n'
p2371
sa(dp2372
g2
S'15190'
p2373
sg4
L1449716955448L
sg5
g6
sg7
S'dalvikvm'
p2374
sg9
S'15190'
p2375
sg11
S'GetMethodID: not returning static method Ljava/lang/ProcessManager;.exec ([Ljava/lang/String;[Ljava/lang/String;Ljava/lang/String;Ljava/io/FileDescriptor;Ljava/io/FileDescriptor;Ljava/io/FileDescriptor;Z)I\n'
p2376
sa(dp2377
g2
S'15190'
p2378
sg4
L1449716955453L
sg5
g6
sg7
S'dalvikvm'
p2379
sg9
S'15190'
p2380
sg11
S'GetMethodID: not returning static method Ljava/lang/Class;.classForName (Ljava/lang/String;ZLjava/lang/ClassLoader;)Ljava/lang/Class;\n'
p2381
sa(dp2382
g2
S'15190'
p2383
sg4
L1449716955538L
sg5
g6
sg7
S'SocketService'
p2384
sg9
S'15190'
p2385
sg11
S'onStartCommand : bLogin:false\n'
p2386
sa(dp2387
g2
S'15190'
p2388
sg4
L1449716955543L
sg5
g6
sg7
S'SocketService'
p2389
sg9
S'15190'
p2390
sg11
S'pid:15190 myPid:15190\n'
p2391
sa(dp2392
g2
S'15190'
p2393
sg4
L1449716955543L
sg5
g6
sg7
S'SocketService'
p2394
sg9
S'15190'
p2395
sg11
S'start to run current thread!id:2422\n'
p2396
sa(dp2397
g2
S'15190'
p2398
sg4
L1449716955558L
sg5
g6
sg7
S'SocketService'
p2399
sg9
S'15217'
p2400
sg11
S'ip/192.168.1.159 lport:38826 p:143\n'
p2401
sa(dp2402
g2
S'15190'
p2403
sg4
L1449716955578L
sg5
g6
sg7
S'ForegroundActivity'
p2404
sg9
S'15217'
p2405
sg11
S'\xe6\x9c\xac\xe6\xac\xa1\xe5\x8f\x91\xe9\x80\x81\xe5\xb8\xa7\xe9\x95\xbf:35\t\xe6\x80\xbb\xe5\xb8\xa7\xe9\x95\xbf:35\n'
p2406
sa(dp2407
g2
S'15190'
p2408
sg4
L1449716955578L
sg5
g6
sg7
S'SocketService'
p2409
sg9
S'15217'
p2410
sg11
S'success to connect server!id:2422 bLogin:false\n'
p2411
sa(dp2412
g2
S'15190'
p2413
sg4
L1449716955613L
sg5
g6
sg7
S'ForegroundActivity'
p2414
sg9
S'15218'
p2415
sg11
S'\xe6\x9c\xac\xe6\xac\xa1\xe6\x94\xb6\xe5\x88\xb0\xe5\xb8\xa7\xe9\x95\xbf:13\t\xe6\x80\xbb\xe5\xb8\xa7\xe9\x95\xbf:13\n'
p2416
sa(dp2417
g2
S'15190'
p2418
sg4
L1449716956538L
sg5
g6
sg7
S'SocketService1'
p2419
sg9
S'15215'
p2420
sg11
S'\xe6\x9c\xac\xe6\xac\xa1\xe6\x8f\x90\xe5\x8f\x961:LoadPtr:13 HeadIndex:0 GetSize:13 13 0 \xe5\xa4\xb4\xe4\xbf\xa1\xe6\x81\xaf:EB 90 EB 90 EB 90 0D 00 0E 01 \n'
p2421
sa(dp2422
g2
S'15190'
p2423
sg4
L1449716956578L
sg5
g6
sg7
S'ForegroundActivity'
p2424
sg9
S'15217'
p2425
sg11
S'\xe6\x9c\xac\xe6\xac\xa1\xe5\x8f\x91\xe9\x80\x81\xe5\xb8\xa7\xe9\x95\xbf:11\t\xe6\x80\xbb\xe5\xb8\xa7\xe9\x95\xbf:46\n'
p2426
sa(dp2427
g2
S'15190'
p2428
sg4
L1449716956698L
sg5
g6
sg7
S'ForegroundActivity'
p2429
sg9
S'15218'
p2430
sg11
S'\xe6\x9c\xac\xe6\xac\xa1\xe6\x94\xb6\xe5\x88\xb0\xe5\xb8\xa7\xe9\x95\xbf:642\t\xe6\x80\xbb\xe5\xb8\xa7\xe9\x95\xbf:655\n'
p2431
sa(dp2432
g2
S'15174'
p2433
sg4
L1449716957348L
sg5
g50
sg7
S'ApplicationPackageManager'
p2434
sg9
S'15174'
p2435
sg11
S'getCSCPackageItemText()\n'
p2436
sa(dp2437
g2
S'15174'
p2438
sg4
L1449716957388L
sg5
g6
sg7
S'AbsListView'
p2439
sg9
S'15174'
p2440
sg11
S'Get MotionRecognitionManager\n'
p2441
sa(dp2442
g2
S'15174'
p2443
sg4
L1449716957413L
sg5
g6
sg7
S'AbsListView'
p2444
sg9
S'15174'
p2445
sg11
S'Get MotionRecognitionManager\n'
p2446
sa(dp2447
g2
S'15174'
p2448
sg4
L1449716957423L
sg5
g6
sg7
S'AbsListView'
p2449
sg9
S'15174'
p2450
sg11
S'Get MotionRecognitionManager\n'
p2451
sa(dp2452
g2
S'15174'
p2453
sg4
L1449716957453L
sg5
g6
sg7
S'MainActivity'
p2454
sg9
S'15174'
p2455
sg11
S'Start One Client\n'
p2456
sa(dp2457
g2
S'15174'
p2458
sg4
L1449716957458L
sg5
g6
sg7
S'StrictMode'
p2459
sg9
S'15174'
p2460
sg11
S'StrictMode policy violation; ~duration=11 ms: android.os.StrictMode$StrictModeDiskReadViolation: policy=23 violation=2\n\tat android.os.StrictMode$AndroidBlockGuardPolicy.onReadFromDisk(StrictMode.java:1146)\n\tat android.app.SharedPreferencesImpl.awaitLoadedLocked(SharedPreferencesImpl.java:203)\n\tat android.app.SharedPreferencesImpl.edit(SharedPreferencesImpl.java:282)\n\tat com.example.myfristandroid.MainActivity.initCfg(MainActivity.java:454)\n\tat com.example.myfristandroid.MainActivity.onCreate(MainActivity.java:295)\n\tat android.app.Activity.performCreate(Activity.java:5389)\n\tat android.app.Instrumentation.callActivityOnCreate(Instrumentation.java:1105)\n\tat com.qihoo360.mobilesafe.loader.c.callActivityOnCreate(SourceFile:98)\n\tat android.app.ActivityThread.performLaunchActivity(ActivityThread.java:2256)\n\tat android.app.ActivityThread.handleLaunchActivity(ActivityThread.java:2350)\n\tat android.app.ActivityThread.access$800(ActivityThread.java:163)\n\tat android.app.ActivityThread$H.handleMessage(ActivityThread.java:1257)\n\tat android.os.Handler.dispatchMessage(Handler.java:102)\n\tat android.os.Looper.loop(Looper.java:157)\n\tat android.app.ActivityThread.main(ActivityThread.java:5335)\n\tat java.lang.reflect.Method.invokeNative(Native Method)\n\tat java.lang.reflect.Method.invoke(Method.java:515)\n\tat com.android.internal.os.ZygoteInit$MethodAndArgsCaller.run(ZygoteInit.java:1265)\n\tat com.android.internal.os.ZygoteInit.main(ZygoteInit.java:1081)\n\tat dalvik.system.NativeStart.main(Native Method)\n'
p2461
sa(dp2462
g2
S'15174'
p2463
sg4
L1449716957468L
sg5
g6
sg7
S'AbsListView'
p2464
sg9
S'15174'
p2465
sg11
S'unregisterIRListener() is called \n'
p2466
sa(dp2467
g2
S'15174'
p2468
sg4
L1449716957528L
sg5
g6
sg7
S'mali_winsys'
p2469
sg9
S'15174'
p2470
sg11
S'new_window_surface returns 0x3000\n'
p2471
sa(dp2472
g2
S'15190'
p2473
sg4
L1449716957558L
sg5
g6
sg7
S'SocketService1'
p2474
sg9
S'15215'
p2475
sg11
S'\xe6\x9c\xac\xe6\xac\xa1\xe6\x8f\x90\xe5\x8f\x961:LoadPtr:655 HeadIndex:13 GetSize:642 130 512 \xe5\xa4\xb4\xe4\xbf\xa1\xe6\x81\xaf:EB 90 EB 90 EB 90 82 02 14 0A \n'
p2476
sa(dp2477
g2
S'15190'
p2478
sg4
L1449716957578L
sg5
g6
sg7
S'ForegroundActivity'
p2479
sg9
S'15217'
p2480
sg11
S'\xe6\x9c\xac\xe6\xac\xa1\xe5\x8f\x91\xe9\x80\x81\xe5\xb8\xa7\xe9\x95\xbf:11\t\xe6\x80\xbb\xe5\xb8\xa7\xe9\x95\xbf:57\n'
p2481
sa(dp2482
g2
S'15174'
p2483
sg4
L1449716957598L
sg5
g6
sg7
S'AbsListView'
p2484
sg9
S'15174'
p2485
sg11
S'unregisterIRListener() is called \n'
p2486
sa(dp2487
g2
S'15174'
p2488
sg4
L1449716957603L
sg5
g6
sg7
S'AbsListView'
p2489
sg9
S'15174'
p2490
sg11
S'unregisterIRListener() is called \n'
p2491
sa(dp2492
g2
S'15174'
p2493
sg4
L1449716957663L
sg5
g6
sg7
S'AbsListView'
p2494
sg9
S'15174'
p2495
sg11
S'unregisterIRListener() is called \n'
p2496
sa(dp2497
g2
S'15174'
p2498
sg4
L1449716957673L
sg5
g6
sg7
S'MainActivity'
p2499
sg9
S'15174'
p2500
sg11
S'page0:http://oa.paneng.cn:1143/se9200/realdata/realdata.html\n'
p2501
sa(dp2502
g2
S'15174'
p2503
sg4
L1449716957673L
sg5
g6
sg7
S'MainActivity'
p2504
sg9
S'15174'
p2505
sg11
S'page1:http://oa.paneng.cn:1143/se9200/graph/gshow.jsp?mRID=1130000050\n'
p2506
sa(dp2507
g2
S'15174'
p2508
sg4
L1449716957673L
sg5
g6
sg7
S'MainActivity'
p2509
sg9
S'15174'
p2510
sg11
S'page2:http://oa.paneng.cn:1143/se9200/graph/gshow.jsp?mRID=1130000052\n'
p2511
sa(dp2512
g2
S'15190'
p2513
sg4
L1449716957673L
sg5
g6
sg7
S'ForegroundActivity'
p2514
sg9
S'15218'
p2515
sg11
S'\xe6\x9c\xac\xe6\xac\xa1\xe6\x94\xb6\xe5\x88\xb0\xe5\xb8\xa7\xe9\x95\xbf:67\t\xe6\x80\xbb\xe5\xb8\xa7\xe9\x95\xbf:722\n'
p2516
sa(dp2517
g2
S'15174'
p2518
sg4
L1449716957673L
sg5
g6
sg7
S'MainActivity'
p2519
sg9
S'15174'
p2520
sg11
S'page3:http://oa.paneng.cn:1143/se9200/graph/gshow.jsp?mRID=1130000054\n'
p2521
sa(dp2522
g2
S'15174'
p2523
sg4
L1449716957673L
sg5
g6
sg7
S'MainActivity'
p2524
sg9
S'15174'
p2525
sg11
S'page4:http://oa.paneng.cn:1143/se9200/graph/gshow.jsp?mRID=1130000007\n'
p2526
sa(dp2527
g2
S'15174'
p2528
sg4
L1449716957673L
sg5
g6
sg7
S'MainActivity'
p2529
sg9
S'15174'
p2530
sg11
S'page5:http://oa.paneng.cn:1143/se9200/graph/gshow.jsp?mRID=1130000047\n'
p2531
sa(dp2532
g2
S'15174'
p2533
sg4
L1449716957673L
sg5
g6
sg7
S'MainActivity'
p2534
sg9
S'15174'
p2535
sg11
S'page6:http://oa.paneng.cn:1143/se9200/graph/gshow.jsp?mRID=1130000011\n'
p2536
sa(dp2537
g2
S'15174'
p2538
sg4
L1449716957678L
sg5
g6
sg7
S'MainActivity'
p2539
sg9
S'15174'
p2540
sg11
S'page7:http://oa.paneng.cn:1143/se9200/graph/gshow.jsp?mRID=1130000005\n'
p2541
sa(dp2542
g2
S'15174'
p2543
sg4
L1449716957678L
sg5
g6
sg7
S'MainActivity'
p2544
sg9
S'15174'
p2545
sg11
S'page8:http://oa.paneng.cn:1143/se9200/graph/gshow.jsp?mRID=1130000148\n'
p2546
sa(dp2547
g2
S'15174'
p2548
sg4
L1449716957678L
sg5
g6
sg7
S'MainActivity'
p2549
sg9
S'15174'
p2550
sg11
S'page9:http://oa.paneng.cn:1143/se9200/graph/gshow.jsp?mRID=1130000296\n'
p2551
sa(dp2552
g2
S'15174'
p2553
sg4
L1449716957703L
sg5
g6
sg7
S'AbsListView'
p2554
sg9
S'15174'
p2555
sg11
S'unregisterIRListener() is called \n'
p2556
sa(dp2557
g2
S'15190'
p2558
sg4
L1449716958573L
sg5
g6
sg7
S'SocketService1'
p2559
sg9
S'15215'
p2560
sg11
S'\xe6\x9c\xac\xe6\xac\xa1\xe6\x8f\x90\xe5\x8f\x961:LoadPtr:722 HeadIndex:655 GetSize:67 67 0 \xe5\xa4\xb4\xe4\xbf\xa1\xe6\x81\xaf:EB 90 EB 90 EB 90 43 00 15 02 \n'
p2561
sa(dp2562
g2
S'15174'
p2563
sg4
L1449716958588L
sg5
g6
sg7
S'MainActivity'
p2564
sg9
S'15174'
p2565
sg11
S'ServerVersion:22 LocalVersion:12\n'
p2566
sa(dp2567
g2
S'15174'
p2568
sg4
L1449716958678L
sg5
g6
sg7
S'mali_winsys'
p2569
sg9
S'15174'
p2570
sg11
S'new_window_surface returns 0x3000\n'
p2571
sa(dp2572
g2
S'15174'
p2573
sg4
L1449716958743L
sg5
g6
sg7
S'AbsListView'
p2574
sg9
S'15174'
p2575
sg11
S'unregisterIRListener() is called \n'
p2576
sa(dp2577
g2
S'15174'
p2578
sg4
L1449716958748L
sg5
g6
sg7
S'AbsListView'
p2579
sg9
S'15174'
p2580
sg11
S'unregisterIRListener() is called \n'
p2581
sa(dp2582
g2
S'15174'
p2583
sg4
L1449716959018L
sg5
g6
sg7
S'AbsListView'
p2584
sg9
S'15174'
p2585
sg11
S'unregisterIRListener() is called \n'
p2586
sa(dp2587
g2
S'15174'
p2588
sg4
L1449716959023L
sg5
g347
sg7
S'ViewRootImpl'
p2589
sg9
S'15174'
p2590
sg11
S'sendUserActionEvent() mView == null\n'
p2591
sa(dp2592
g2
S'15174'
p2593
sg4
L1449716960458L
sg5
g6
sg7
S'AbsListView'
p2594
sg9
S'15174'
p2595
sg11
S'unregisterIRListener() is called \n'
p2596
sa(dp2597
g2
S'15174'
p2598
sg4
L1449716960458L
sg5
g50
sg7
S'ApplicationPackageManager'
p2599
sg9
S'15174'
p2600
sg11
S'getCSCPackageItemText()\n'
p2601
sa(dp2602
g2
S'15174'
p2603
sg4
L1449716960468L
sg5
g363
sg7
S'WebViewChromium'
p2604
sg9
S'15174'
p2605
sg11
S'Binding Chromium to the background looper Looper (main, tid 1) {428cdb58}\n'
p2606
sa(dp2607
g2
S'15174'
p2608
sg4
L1449716960473L
sg5
g56
sg7
S'chromium'
p2609
sg9
S'15174'
p2610
sg11
S'[INFO:library_loader_hooks.cc(112)] Chromium logging enabled: level = 0, default verbosity = 0\n'
p2611
sa(dp2612
g2
S'15174'
p2613
sg4
L1449716960473L
sg5
g56
sg7
S'BrowserProcessMain'
p2614
sg9
S'15174'
p2615
sg11
S'Initializing chromium process, renderers=0\n'
p2616
sa(dp2617
g2
S'15174'
p2618
sg4
L1449716960478L
sg5
g50
sg7
S'chromium'
p2619
sg9
S'15239'
p2620
sg11
S'[WARNING:proxy_service.cc(888)] PAC support disabled because there is no system implementation\n'
p2621
sa(dp2622
g2
S'15174'
p2623
sg4
L1449716960483L
sg5
g50
sg7
S'ApplicationPackageManager'
p2624
sg9
S'15174'
p2625
sg11
S'getCSCPackageItemText()\n'
p2626
sa(dp2627
g2
S'15174'
p2628
sg4
L1449716960578L
sg5
g6
sg7
S'mali_winsys'
p2629
sg9
S'15174'
p2630
sg11
S'new_window_surface returns 0x3000\n'
p2631
sa(dp2632
g2
S'15174'
p2633
sg4
L1449716960583L
sg5
g50
sg7
S'AwContents'
p2634
sg9
S'15174'
p2635
sg11
S'nativeOnDraw failed; clearing to background color.\n'
p2636
sa(dp2637
g2
S'15174'
p2638
sg4
L1449716960608L
sg5
g50
sg7
S'AwContents'
p2639
sg9
S'15174'
p2640
sg11
S'nativeOnDraw failed; clearing to background color.\n'
p2641
sa(dp2642
g2
S'15174'
p2643
sg4
L1449716960668L
sg5
g56
sg7
S'chromium'
p2644
sg9
S'15258'
p2645
sg11
S'[INFO:simple_index_file.cc(397)] Simple Cache Index is being restored from disk.\n'
p2646
sa(dp2647
g2
S'15174'
p2648
sg4
L1449716960943L
sg5
g56
sg7
S'chromium'
p2649
sg9
S'15174'
p2650
sg11
S'[INFO:async_pixel_transfer_manager_android.cc(56)] Async pixel transfers not supported\n'
p2651
sa(dp2652
g2
S'15174'
p2653
sg4
L1449716960958L
sg5
g56
sg7
S'chromium'
p2654
sg9
S'15174'
p2655
sg11
S'[INFO:async_pixel_transfer_manager_android.cc(56)] Async pixel transfers not supported\n'
p2656
sa(dp2657
g2
S'15174'
p2658
sg4
L1449716960978L
sg5
g6
sg7
S'AbsListView'
p2659
sg9
S'15174'
p2660
sg11
S'onVisibilityChanged() is called, visibility : 4\n'
p2661
sa(dp2662
g2
S'15174'
p2663
sg4
L1449716960978L
sg5
g6
sg7
S'AbsListView'
p2664
sg9
S'15174'
p2665
sg11
S'unregisterIRListener() is called \n'
p2666
sa(dp2667
g2
S'15174'
p2668
sg4
L1449716964343L
sg5
g50
sg7
S'UnimplementedWebViewApi'
p2669
sg9
S'15174'
p2670
sg11
S'Unimplemented WebView method onKeyDown called from: android.webkit.WebView.onKeyDown(WebView.java:2179)\n'
p2671
sa(dp2672
g2
S'15174'
p2673
sg4
L1449716964378L
sg5
g6
sg7
S'AbsListView'
p2674
sg9
S'15174'
p2675
sg11
S'onVisibilityChanged() is called, visibility : 0\n'
p2676
sa(dp2677
g2
S'15174'
p2678
sg4
L1449716964378L
sg5
g6
sg7
S'AbsListView'
p2679
sg9
S'15174'
p2680
sg11
S'unregisterIRListener() is called \n'
p2681
sa(dp2682
g2
S'15174'
p2683
sg4
L1449716964398L
sg5
g6
sg7
S'mali_winsys'
p2684
sg9
S'15174'
p2685
sg11
S'new_window_surface returns 0x3000\n'
p2686
sa(dp2687
g2
S'15174'
p2688
sg4
L1449716964398L
sg5
g6
sg7
S'AbsListView'
p2689
sg9
S'15174'
p2690
sg11
S'unregisterIRListener() is called \n'
p2691
sa(dp2692
g2
S'15174'
p2693
sg4
L1449716964403L
sg5
g6
sg7
S'AbsListView'
p2694
sg9
S'15174'
p2695
sg11
S'unregisterIRListener() is called \n'
p2696
sa(dp2697
g2
S'15174'
p2698
sg4
L1449716964428L
sg5
g50
sg7
S'IInputConnectionWrapper'
p2699
sg9
S'15174'
p2700
sg11
S'clearMetaKeyStates on inactive InputConnection\n'
p2701
sa(dp2702
g2
S'15174'
p2703
sg4
L1449716964443L
sg5
g347
sg7
S'ion     '
p2704
sg9
S'15174'
p2705
sg11
S'ioctl c0044901 failed with code -1: Invalid argument\n'
p2706
sa(dp2707
g2
S'15174'
p2708
sg4
L1449716964448L
sg5
g347
sg7
S'ion     '
p2709
sg9
S'15174'
p2710
sg11
S'ioctl c0044901 failed with code -1: Invalid argument\n'
p2711
sa(dp2712
g2
S'15174'
p2713
sg4
L1449716965298L
sg5
g6
sg7
S'AbsListView'
p2714
sg9
S'15174'
p2715
sg11
S'unregisterIRListener() is called \n'
p2716
sa(dp2717
g2
S'15174'
p2718
sg4
L1449716965303L
sg5
g6
sg7
S'AbsListView'
p2719
sg9
S'15174'
p2720
sg11
S'unregisterIRListener() is called \n'
p2721
sa(dp2722
g2
S'15174'
p2723
sg4
L1449716965303L
sg5
g50
sg7
S'ApplicationPackageManager'
p2724
sg9
S'15174'
p2725
sg11
S'getCSCPackageItemText()\n'
p2726
sa(dp2727
g2
S'15174'
p2728
sg4
L1449716965373L
sg5
g6
sg7
S'mali_winsys'
p2729
sg9
S'15174'
p2730
sg11
S'new_window_surface returns 0x3000\n'
p2731
sa(dp2732
g2
S'15174'
p2733
sg4
L1449716965383L
sg5
g50
sg7
S'AwContents'
p2734
sg9
S'15174'
p2735
sg11
S'nativeOnDraw failed; clearing to background color.\n'
p2736
sa(dp2737
g2
S'15174'
p2738
sg4
L1449716965413L
sg5
g50
sg7
S'AwContents'
p2739
sg9
S'15174'
p2740
sg11
S'nativeOnDraw failed; clearing to background color.\n'
p2741
sa(dp2742
g2
S'15174'
p2743
sg4
L1449716965723L
sg5
g6
sg7
S'AbsListView'
p2744
sg9
S'15174'
p2745
sg11
S'onVisibilityChanged() is called, visibility : 4\n'
p2746
sa(dp2747
g2
S'15174'
p2748
sg4
L1449716965723L
sg5
g6
sg7
S'AbsListView'
p2749
sg9
S'15174'
p2750
sg11
S'unregisterIRListener() is called \n'
p2751
sa(dp2752
g2
S'15174'
p2753
sg4
L1449716966563L
sg5
g50
sg7
S'AwContents'
p2754
sg9
S'15174'
p2755
sg11
S'nativeOnDraw failed; clearing to background color.\n'
p2756
sa(dp2757
g2
S'15174'
p2758
sg4
L1449716966583L
sg5
g50
sg7
S'AwContents'
p2759
sg9
S'15174'
p2760
sg11
S'nativeOnDraw failed; clearing to background color.\n'
p2761
sa(dp2762
g2
S'15174'
p2763
sg4
L1449716966598L
sg5
g50
sg7
S'AwContents'
p2764
sg9
S'15174'
p2765
sg11
S'nativeOnDraw failed; clearing to background color.\n'
p2766
sa(dp2767
g2
S'15174'
p2768
sg4
L1449716966618L
sg5
g50
sg7
S'AwContents'
p2769
sg9
S'15174'
p2770
sg11
S'nativeOnDraw failed; clearing to background color.\n'
p2771
sa(dp2772
g2
S'15174'
p2773
sg4
L1449716966638L
sg5
g50
sg7
S'AwContents'
p2774
sg9
S'15174'
p2775
sg11
S'nativeOnDraw failed; clearing to background color.\n'
p2776
sa(dp2777
g2
S'15174'
p2778
sg4
L1449716966653L
sg5
g50
sg7
S'AwContents'
p2779
sg9
S'15174'
p2780
sg11
S'nativeOnDraw failed; clearing to background color.\n'
p2781
sa(dp2782
g2
S'15174'
p2783
sg4
L1449716966673L
sg5
g50
sg7
S'AwContents'
p2784
sg9
S'15174'
p2785
sg11
S'nativeOnDraw failed; clearing to background color.\n'
p2786
sa(dp2787
g2
S'15174'
p2788
sg4
L1449716966683L
sg5
g50
sg7
S'AwContents'
p2789
sg9
S'15174'
p2790
sg11
S'nativeOnDraw failed; clearing to background color.\n'
p2791
sa(dp2792
g2
S'15174'
p2793
sg4
L1449716966698L
sg5
g50
sg7
S'AwContents'
p2794
sg9
S'15174'
p2795
sg11
S'nativeOnDraw failed; clearing to background color.\n'
p2796
sa(dp2797
g2
S'15174'
p2798
sg4
L1449716966718L
sg5
g50
sg7
S'AwContents'
p2799
sg9
S'15174'
p2800
sg11
S'nativeOnDraw failed; clearing to background color.\n'
p2801
sa(dp2802
g2
S'15174'
p2803
sg4
L1449716966733L
sg5
g50
sg7
S'AwContents'
p2804
sg9
S'15174'
p2805
sg11
S'nativeOnDraw failed; clearing to background color.\n'
p2806
sa(dp2807
g2
S'15174'
p2808
sg4
L1449716966748L
sg5
g50
sg7
S'AwContents'
p2809
sg9
S'15174'
p2810
sg11
S'nativeOnDraw failed; clearing to background color.\n'
p2811
sa(dp2812
g2
S'15174'
p2813
sg4
L1449716966768L
sg5
g50
sg7
S'AwContents'
p2814
sg9
S'15174'
p2815
sg11
S'nativeOnDraw failed; clearing to background color.\n'
p2816
sa(dp2817
g2
S'15174'
p2818
sg4
L1449716966783L
sg5
g50
sg7
S'AwContents'
p2819
sg9
S'15174'
p2820
sg11
S'nativeOnDraw failed; clearing to background color.\n'
p2821
sa(dp2822
g2
S'15174'
p2823
sg4
L1449716966798L
sg5
g50
sg7
S'AwContents'
p2824
sg9
S'15174'
p2825
sg11
S'nativeOnDraw failed; clearing to background color.\n'
p2826
sa(dp2827
g2
S'15174'
p2828
sg4
L1449716966818L
sg5
g50
sg7
S'AwContents'
p2829
sg9
S'15174'
p2830
sg11
S'nativeOnDraw failed; clearing to background color.\n'
p2831
sa(dp2832
g2
S'15174'
p2833
sg4
L1449716966833L
sg5
g50
sg7
S'AwContents'
p2834
sg9
S'15174'
p2835
sg11
S'nativeOnDraw failed; clearing to background color.\n'
p2836
sa(dp2837
g2
S'15174'
p2838
sg4
L1449716970078L
sg5
g6
sg7
S'AbsListView'
p2839
sg9
S'15174'
p2840
sg11
S'onVisibilityChanged() is called, visibility : 0\n'
p2841
sa(dp2842
g2
S'15174'
p2843
sg4
L1449716970078L
sg5
g6
sg7
S'AbsListView'
p2844
sg9
S'15174'
p2845
sg11
S'unregisterIRListener() is called \n'
p2846
sa(dp2847
g2
S'15174'
p2848
sg4
L1449716970088L
sg5
g6
sg7
S'mali_winsys'
p2849
sg9
S'15174'
p2850
sg11
S'new_window_surface returns 0x3000\n'
p2851
sa(dp2852
g2
S'15174'
p2853
sg4
L1449716970093L
sg5
g6
sg7
S'AbsListView'
p2854
sg9
S'15174'
p2855
sg11
S'unregisterIRListener() is called \n'
p2856
sa(dp2857
g2
S'15174'
p2858
sg4
L1449716970873L
sg5
g6
sg7
S'AbsListView'
p2859
sg9
S'15174'
p2860
sg11
S'unregisterIRListener() is called \n'
p2861
sa(dp2862
g2
S'15174'
p2863
sg4
L1449716970878L
sg5
g6
sg7
S'AbsListView'
p2864
sg9
S'15174'
p2865
sg11
S'unregisterIRListener() is called \n'
p2866
sa(dp2867
g2
S'15174'
p2868
sg4
L1449716970878L
sg5
g50
sg7
S'ApplicationPackageManager'
p2869
sg9
S'15174'
p2870
sg11
S'getCSCPackageItemText()\n'
p2871
sa(dp2872
g2
S'15174'
p2873
sg4
L1449716970938L
sg5
g6
sg7
S'mali_winsys'
p2874
sg9
S'15174'
p2875
sg11
S'new_window_surface returns 0x3000\n'
p2876
sa(dp2877
g2
S'15174'
p2878
sg4
L1449716970943L
sg5
g50
sg7
S'AwContents'
p2879
sg9
S'15174'
p2880
sg11
S'nativeOnDraw failed; clearing to background color.\n'
p2881
sa(dp2882
g2
S'15174'
p2883
sg4
L1449716970973L
sg5
g50
sg7
S'AwContents'
p2884
sg9
S'15174'
p2885
sg11
S'nativeOnDraw failed; clearing to background color.\n'
p2886
sa(dp2887
g2
S'15174'
p2888
sg4
L1449716971313L
sg5
g6
sg7
S'AbsListView'
p2889
sg9
S'15174'
p2890
sg11
S'onVisibilityChanged() is called, visibility : 4\n'
p2891
sa(dp2892
g2
S'15174'
p2893
sg4
L1449716971313L
sg5
g6
sg7
S'AbsListView'
p2894
sg9
S'15174'
p2895
sg11
S'unregisterIRListener() is called \n'
p2896
sa(dp2897
g2
S'15174'
p2898
sg4
L1449716971318L
sg5
g6
sg7
S'AbsListView'
p2899
sg9
S'15174'
p2900
sg11
S'onVisibilityChanged() is called, visibility : 4\n'
p2901
sa(dp2902
g2
S'15174'
p2903
sg4
L1449716971318L
sg5
g6
sg7
S'AbsListView'
p2904
sg9
S'15174'
p2905
sg11
S'unregisterIRListener() is called \n'
p2906
sa(dp2907
g2
S'15174'
p2908
sg4
L1449716972123L
sg5
g50
sg7
S'AwContents'
p2909
sg9
S'15174'
p2910
sg11
S'nativeOnDraw failed; clearing to background color.\n'
p2911
sa(dp2912
g2
S'15174'
p2913
sg4
L1449716972138L
sg5
g50
sg7
S'AwContents'
p2914
sg9
S'15174'
p2915
sg11
S'nativeOnDraw failed; clearing to background color.\n'
p2916
sa(dp2917
g2
S'15174'
p2918
sg4
L1449716972158L
sg5
g50
sg7
S'AwContents'
p2919
sg9
S'15174'
p2920
sg11
S'nativeOnDraw failed; clearing to background color.\n'
p2921
sa(dp2922
g2
S'15174'
p2923
sg4
L1449716972173L
sg5
g50
sg7
S'AwContents'
p2924
sg9
S'15174'
p2925
sg11
S'nativeOnDraw failed; clearing to background color.\n'
p2926
sa(dp2927
g2
S'15174'
p2928
sg4
L1449716972188L
sg5
g50
sg7
S'AwContents'
p2929
sg9
S'15174'
p2930
sg11
S'nativeOnDraw failed; clearing to background color.\n'
p2931
sa(dp2932
g2
S'15174'
p2933
sg4
L1449716972208L
sg5
g50
sg7
S'AwContents'
p2934
sg9
S'15174'
p2935
sg11
S'nativeOnDraw failed; clearing to background color.\n'
p2936
sa(dp2937
g2
S'15174'
p2938
sg4
L1449716972223L
sg5
g50
sg7
S'AwContents'
p2939
sg9
S'15174'
p2940
sg11
S'nativeOnDraw failed; clearing to background color.\n'
p2941
sa(dp2942
g2
S'15174'
p2943
sg4
L1449716972238L
sg5
g50
sg7
S'AwContents'
p2944
sg9
S'15174'
p2945
sg11
S'nativeOnDraw failed; clearing to background color.\n'
p2946
sa(dp2947
g2
S'15174'
p2948
sg4
L1449716972258L
sg5
g50
sg7
S'AwContents'
p2949
sg9
S'15174'
p2950
sg11
S'nativeOnDraw failed; clearing to background color.\n'
p2951
sa(dp2952
g2
S'15174'
p2953
sg4
L1449716972273L
sg5
g50
sg7
S'AwContents'
p2954
sg9
S'15174'
p2955
sg11
S'nativeOnDraw failed; clearing to background color.\n'
p2956
sa(dp2957
g2
S'15174'
p2958
sg4
L1449716972288L
sg5
g50
sg7
S'AwContents'
p2959
sg9
S'15174'
p2960
sg11
S'nativeOnDraw failed; clearing to background color.\n'
p2961
sa(dp2962
g2
S'15174'
p2963
sg4
L1449716972308L
sg5
g50
sg7
S'AwContents'
p2964
sg9
S'15174'
p2965
sg11
S'nativeOnDraw failed; clearing to background color.\n'
p2966
sa(dp2967
g2
S'15174'
p2968
sg4
L1449716972323L
sg5
g50
sg7
S'AwContents'
p2969
sg9
S'15174'
p2970
sg11
S'nativeOnDraw failed; clearing to background color.\n'
p2971
sa(dp2972
g2
S'15174'
p2973
sg4
L1449716972338L
sg5
g50
sg7
S'AwContents'
p2974
sg9
S'15174'
p2975
sg11
S'nativeOnDraw failed; clearing to background color.\n'
p2976
sa(dp2977
g2
S'15174'
p2978
sg4
L1449716972358L
sg5
g50
sg7
S'AwContents'
p2979
sg9
S'15174'
p2980
sg11
S'nativeOnDraw failed; clearing to background color.\n'
p2981
sa(dp2982
g2
S'15174'
p2983
sg4
L1449716972373L
sg5
g50
sg7
S'AwContents'
p2984
sg9
S'15174'
p2985
sg11
S'nativeOnDraw failed; clearing to background color.\n'
p2986
sa(dp2987
g2
S'15174'
p2988
sg4
L1449716972388L
sg5
g50
sg7
S'AwContents'
p2989
sg9
S'15174'
p2990
sg11
S'nativeOnDraw failed; clearing to background color.\n'
p2991
sa(dp2992
g2
S'15174'
p2993
sg4
L1449716972453L
sg5
g6
sg7
S'MainActivity'
p2994
sg9
S'15250'
p2995
sg11
S'h:5684.15,w:7950.53\n'
p2996
sa(dp2997
g2
S'15174'
p2998
sg4
L1449716973323L
sg5
g6
sg7
S'MainActivity'
p2999
sg9
S'15250'
p3000
sg11
S'h:910.5,w:1687.5\n'
p3001
sa(dp3002
g2
S'15174'
p3003
sg4
L1449716973668L
sg5
g6
sg7
S'MainActivity'
p3004
sg9
S'15250'
p3005
sg11
S'h:910.5,w:1687.5\n'
p3006
sa(dp3007
g2
S'15174'
p3008
sg4
L1449716973793L
sg5
g56
sg7
S'chromium'
p3009
sg9
S'15174'
p3010
sg11
S'[INFO:async_pixel_transfer_manager_android.cc(56)] Async pixel transfers not supported\n'
p3011
sa(dp3012
g2
S'15174'
p3013
sg4
L1449716973813L
sg5
g56
sg7
S'chromium'
p3014
sg9
S'15174'
p3015
sg11
S'[INFO:async_pixel_transfer_manager_android.cc(56)] Async pixel transfers not supported\n'
p3016
sa(dp3017
g2
S'15174'
p3018
sg4
L1449716973833L
sg5
g6
sg7
S'mali_winsys'
p3019
sg9
S'15174'
p3020
sg11
S'new_window_surface returns 0x3000\n'
p3021
sa(dp3022
g2
S'15174'
p3023
sg4
L1449716979128L
sg5
g6
sg7
S'dalvikvm'
p3024
sg9
S'15174'
p3025
sg11
S'GC_FOR_ALLOC freed 1999K, 5% free 59222K/62316K, paused 20ms, total 20ms\n'
p3026
sa(dp3027
g2
S'15174'
p3028
sg4
L1449716979148L
sg5
g56
sg7
S'dalvikvm-heap'
p3029
sg9
S'15174'
p3030
sg11
S'Grow heap (frag case) to 66.810MB for 8294416-byte allocation\n'
p3031
sa(dp3032
g2
S'15174'
p3033
sg4
L1449716979163L
sg5
g6
sg7
S'dalvikvm'
p3034
sg9
S'15174'
p3035
sg11
S'GC_FOR_ALLOC freed 2K, 5% free 67320K/70420K, paused 16ms, total 16ms\n'
p3036
sa(dp3037
g2
S'15174'
p3038
sg4
L1449716979198L
sg5
g6
sg7
S'dalvikvm'
p3039
sg9
S'15178'
p3040
sg11
S'GC_CONCURRENT freed 42K, 5% free 67277K/70420K, paused 9ms+3ms, total 30ms\n'
p3041
sa(dp3042
g2
S'15174'
p3043
sg4
L1449716979433L
sg5
g6
sg7
S'cn.edu.nju.ise.kikandroid'
p3044
sg9
S'15221'
p3045
sg11
S'Screenshot:1449716979110\n'
p3046
sa(dp3047
g2
S'15174'
p3048
sg4
L1449716980448L
sg5
g50
sg7
S'UnimplementedWebViewApi'
p3049
sg9
S'15174'
p3050
sg11
S'Unimplemented WebView method onKeyDown called from: android.webkit.WebView.onKeyDown(WebView.java:2179)\n'
p3051
sa(dp3052
g2
S'15174'
p3053
sg4
L1449716980593L
sg5
g6
sg7
S'AbsListView'
p3054
sg9
S'15174'
p3055
sg11
S'onVisibilityChanged() is called, visibility : 0\n'
p3056
sa(dp3057
g2
S'15174'
p3058
sg4
L1449716980593L
sg5
g6
sg7
S'AbsListView'
p3059
sg9
S'15174'
p3060
sg11
S'unregisterIRListener() is called \n'
p3061
sa(dp3062
g2
S'15174'
p3063
sg4
L1449716980618L
sg5
g6
sg7
S'mali_winsys'
p3064
sg9
S'15174'
p3065
sg11
S'new_window_surface returns 0x3000\n'
p3066
sa(dp3067
g2
S'15174'
p3068
sg4
L1449716980623L
sg5
g6
sg7
S'AbsListView'
p3069
sg9
S'15174'
p3070
sg11
S'unregisterIRListener() is called \n'
p3071
sa(dp3072
g2
S'15174'
p3073
sg4
L1449716980638L
sg5
g6
sg7
S'AbsListView'
p3074
sg9
S'15174'
p3075
sg11
S'unregisterIRListener() is called \n'
p3076
sa(dp3077
g2
S'15174'
p3078
sg4
L1449716982963L
sg5
g6
sg7
S'AbsListView'
p3079
sg9
S'15174'
p3080
sg11
S'unregisterIRListener() is called \n'
p3081
sa(dp3082
g2
S'15174'
p3083
sg4
L1449716982968L
sg5
g50
sg7
S'ApplicationPackageManager'
p3084
sg9
S'15174'
p3085
sg11
S'getCSCPackageItemText()\n'
p3086
sa(dp3087
g2
S'15174'
p3088
sg4
L1449716982968L
sg5
g56
sg7
S'PersonaManager'
p3089
sg9
S'15174'
p3090
sg11
S'getPersonaService() name persona_policy\n'
p3091
sa(dp3092
g2
S'15174'
p3093
sg4
L1449716983013L
sg5
g6
sg7
S'mali_winsys'
p3094
sg9
S'15174'
p3095
sg11
S'new_window_surface returns 0x3000\n'
p3096
sa(dp3097
g2
S'15174'
p3098
sg4
L1449716983023L
sg5
g50
sg7
S'AwContents'
p3099
sg9
S'15174'
p3100
sg11
S'nativeOnDraw failed; clearing to background color.\n'
p3101
sa(dp3102
g2
S'15174'
p3103
sg4
L1449716983058L
sg5
g50
sg7
S'AwContents'
p3104
sg9
S'15174'
p3105
sg11
S'nativeOnDraw failed; clearing to background color.\n'
p3106
sa(dp3107
g2
S'15174'
p3108
sg4
L1449716983378L
sg5
g6
sg7
S'AbsListView'
p3109
sg9
S'15174'
p3110
sg11
S'onVisibilityChanged() is called, visibility : 4\n'
p3111
sa(dp3112
g2
S'15174'
p3113
sg4
L1449716983378L
sg5
g6
sg7
S'AbsListView'
p3114
sg9
S'15174'
p3115
sg11
S'unregisterIRListener() is called \n'
p3116
sa(dp3117
g2
S'15174'
p3118
sg4
L1449716983408L
sg5
g56
sg7
S'chromium'
p3119
sg9
S'15174'
p3120
sg11
S'[INFO:async_pixel_transfer_manager_android.cc(56)] Async pixel transfers not supported\n'
p3121
sa(dp3122
g2
S'15174'
p3123
sg4
L1449716983418L
sg5
g56
sg7
S'chromium'
p3124
sg9
S'15174'
p3125
sg11
S'[INFO:async_pixel_transfer_manager_android.cc(56)] Async pixel transfers not supported\n'
p3126
sa(dp3127
g2
S'15190'
p3128
sg4
L1449716989978L
sg5
g6
sg7
S'dalvikvm'
p3129
sg9
S'15194'
p3130
sg11
S'GC_CONCURRENT freed 1721K, 14% free 18051K/20868K, paused 10ms+2ms, total 49ms\n'
p3131
sa(dp3132
g2
S'15174'
p3133
sg4
L1449716995108L
sg5
g6
sg7
S'MainActivity'
p3134
sg9
S'15250'
p3135
sg11
S'h:5684.15,w:7950.53\n'
p3136
sa(dp3137
g2
S'15174'
p3138
sg4
L1449716995243L
sg5
g6
sg7
S'mali_winsys'
p3139
sg9
S'15174'
p3140
sg11
S'new_window_surface returns 0x3000\n'
p3141
sa(dp3142
g2
S'15190'
p3143
sg4
L1449716995543L
sg5
g6
sg7
S'ForegroundActivity'
p3144
sg9
S'15213'
p3145
sg11
S'\xe6\x9c\xac\xe6\xac\xa1\xe5\x8f\x91\xe9\x80\x81\xe5\xb8\xa7\xe9\x95\xbf:13\t\xe6\x80\xbb\xe5\xb8\xa7\xe9\x95\xbf:70\n'
p3146
sa(dp3147
g2
S'15190'
p3148
sg4
L1449716995568L
sg5
g6
sg7
S'ForegroundActivity'
p3149
sg9
S'15218'
p3150
sg11
S'\xe6\x9c\xac\xe6\xac\xa1\xe6\x94\xb6\xe5\x88\xb0\xe5\xb8\xa7\xe9\x95\xbf:13\t\xe6\x80\xbb\xe5\xb8\xa7\xe9\x95\xbf:735\n'
p3151
sa(dp3152
g2
S'15190'
p3153
sg4
L1449716995603L
sg5
g6
sg7
S'SocketService1'
p3154
sg9
S'15215'
p3155
sg11
S'\xe6\x9c\xac\xe6\xac\xa1\xe6\x8f\x90\xe5\x8f\x961:LoadPtr:735 HeadIndex:722 GetSize:13 13 0 \xe5\xa4\xb4\xe4\xbf\xa1\xe6\x81\xaf:EB 90 EB 90 EB 90 0D 00 10 01 \n'
p3156
sa(dp3157
g2
S'15174'
p3158
sg4
L1449716999183L
sg5
g6
sg7
S'dalvikvm'
p3159
sg9
S'15174'
p3160
sg11
S'GC_FOR_ALLOC freed 16916K, 6% free 58993K/62316K, paused 22ms, total 22ms\n'
p3161
sa(dp3162
g2
S'15174'
p3163
sg4
L1449716999203L
sg5
g56
sg7
S'dalvikvm-heap'
p3164
sg9
S'15174'
p3165
sg11
S'Grow heap (frag case) to 66.587MB for 8294416-byte allocation\n'
p3166
sa(dp3167
g2
S'15174'
p3168
sg4
L1449716999223L
sg5
g6
sg7
S'dalvikvm'
p3169
sg9
S'15183'
p3170
sg11
S'GC_FOR_ALLOC freed 13K, 5% free 67080K/70420K, paused 19ms, total 19ms\n'
p3171
sa(dp3172
g2
S'15174'
p3173
sg4
L1449716999253L
sg5
g6
sg7
S'dalvikvm'
p3174
sg9
S'15178'
p3175
sg11
S'GC_CONCURRENT freed 7K, 5% free 67073K/70420K, paused 2ms+1ms, total 26ms\n'
p3176
sa(dp3177
g2
S'15174'
p3178
sg4
L1449716999398L
sg5
g6
sg7
S'cn.edu.nju.ise.kikandroid'
p3179
sg9
S'15221'
p3180
sg11
S'Screenshot:1449716999166\n'
p3181
sa(dp3182
g2
S'15174'
p3183
sg4
L1449717000083L
sg5
g50
sg7
S'UnimplementedWebViewApi'
p3184
sg9
S'15174'
p3185
sg11
S'Unimplemented WebView method onKeyDown called from: android.webkit.WebView.onKeyDown(WebView.java:2179)\n'
p3186
sa(dp3187
g2
S'15174'
p3188
sg4
L1449717000243L
sg5
g6
sg7
S'AbsListView'
p3189
sg9
S'15174'
p3190
sg11
S'onVisibilityChanged() is called, visibility : 0\n'
p3191
sa(dp3192
g2
S'15174'
p3193
sg4
L1449717000243L
sg5
g6
sg7
S'AbsListView'
p3194
sg9
S'15174'
p3195
sg11
S'unregisterIRListener() is called \n'
p3196
sa(dp3197
g2
S'15174'
p3198
sg4
L1449717000283L
sg5
g6
sg7
S'mali_winsys'
p3199
sg9
S'15174'
p3200
sg11
S'new_window_surface returns 0x3000\n'
p3201
sa(dp3202
g2
S'15174'
p3203
sg4
L1449717000288L
sg5
g6
sg7
S'AbsListView'
p3204
sg9
S'15174'
p3205
sg11
S'unregisterIRListener() is called \n'
p3206
sa(dp3207
g2
S'15174'
p3208
sg4
L1449717000328L
sg5
g6
sg7
S'AbsListView'
p3209
sg9
S'15174'
p3210
sg11
S'unregisterIRListener() is called \n'
p3211
sa(dp3212
g2
S'15174'
p3213
sg4
L1449717003338L
sg5
g6
sg7
S'cn.edu.nju.ise.kikandroid'
p3214
sg9
S'15221'
p3215
sg11
S'Log:1449717003344\n'
p3216
sa(dp3217
g2
S'15174'
p3218
sg4
L1449717003423L
sg5
g6
sg7
S'dalvikvm'
p3219
sg9
S'15174'
p3220
sg11
S'GC_FOR_ALLOC freed 16497K, 6% free 58976K/62316K, paused 19ms, total 19ms\n'
p3221
sa(dp3222
g2
S'15174'
p3223
sg4
L1449717003438L
sg5
g56
sg7
S'dalvikvm-heap'
p3224
sg9
S'15174'
p3225
sg11
S'Grow heap (frag case) to 66.570MB for 8294416-byte allocation\n'
p3226
sa(dp3227
g2
S'15174'
p3228
sg4
L1449717003453L
sg5
g6
sg7
S'dalvikvm'
p3229
sg9
S'15183'
p3230
sg11
S'GC_FOR_ALLOC freed 0K, 5% free 67076K/70420K, paused 13ms, total 13ms\n'
p3231
sa(dp3232
g2
S'15174'
p3233
sg4
L1449717003473L
sg5
g6
sg7
S'dalvikvm'
p3234
sg9
S'15178'
p3235
sg11
S'GC_CONCURRENT freed 14K, 5% free 67062K/70420K, paused 2ms+3ms, total 20ms\n'
p3236
sa(dp3237
g2
S'15174'
p3238
sg4
L1449717003643L
sg5
g6
sg7
S'cn.edu.nju.ise.kikandroid'
p3239
sg9
S'15221'
p3240
sg11
S'Screenshot:1449717003401\n'
p3241
sa(dp3242
g2
S'15174'
p3243
sg4
L1449717003643L
sg5
g50
sg7
S'dalvikvm'
p3244
sg9
S'15221'
p3245
sg11
S'threadid=15: thread exiting with uncaught exception (group=0x41752c08)\n'
p3246
sa(dp3247
g2
S'15174'
p3248
sg4
L1449717003643L
sg5
g347
sg7
S'AndroidRuntime'
p3249
sg9
S'15221'
p3250
sg11
S'FATAL EXCEPTION: Thread-2417\nProcess: com.example.myfristandroid, PID: 15174\njava.lang.NullPointerException\n\tat android.app.Instrumentation.finish(Instrumentation.java:195)\n\tat cn.edu.nju.ise.kikandroid.AUTInstrument.quitInstr(AUTInstrument.java:195)\n\tat cn.edu.nju.ise.kikandroid.AUTInstrument.startServer(AUTInstrument.java:161)\n\tat cn.edu.nju.ise.kikandroid.AUTInstrument$1.run(AUTInstrument.java:107)\n\tat java.lang.Thread.run(Thread.java:841)\n'
p3251
sa.