(lp0
(dp1
S'processID'
p2
S'3677'
p3
sS'SyscTime'
p4
L1449718297979L
sS'priority'
p5
S'D'
p6
sS'tag'
p7
S'dalvikvm'
p8
sS'threadID'
p9
S' 3677'
p10
sS'message'
p11
S'Late-enabling CheckJNI\n'
p12
sa(dp13
g2
S'3677'
p14
sg4
L1449718298019L
sg5
S'E'
p15
sg7
S'Trace   '
p16
sg9
S' 3677'
p17
sg11
S'error opening trace file: No such file or directory (2)\n'
p18
sa(dp19
g2
S'3677'
p20
sg4
L1449718298159L
sg5
S'V'
p21
sg7
S'Activity'
p22
sg9
S' 3677'
p23
sg11
S'onCreate com.example.myfristandroid.SplashActivity@424d6400: null\n'
p24
sa(dp25
g2
S'3677'
p26
sg4
L1449718298189L
sg5
g6
sg7
S'dalvikvm'
p27
sg9
S' 3677'
p28
sg11
S'GC_FOR_ALLOC freed 55K, 6% free 9603K/10179K, paused 14ms, total 15ms\n'
p29
sa(dp30
g2
S'3677'
p31
sg4
L1449718298209L
sg5
S'I'
p32
sg7
S'dalvikvm-heap'
p33
sg9
S' 3677'
p34
sg11
S'Grow heap (frag case) to 15.468MB for 3876224-byte allocation\n'
p35
sa(dp36
g2
S'3677'
p37
sg4
L1449718298229L
sg5
g6
sg7
S'dalvikvm'
p38
sg9
S' 3680'
p39
sg11
S'GC_CONCURRENT freed <1K, 5% free 13388K/14023K, paused 2ms+2ms, total 16ms\n'
p40
sa(dp41
g2
S'3677'
p42
sg4
L1449718298339L
sg5
g6
sg7
S'dalvikvm'
p43
sg9
S' 3677'
p44
sg11
S'GC_FOR_ALLOC freed 0K, 5% free 13388K/14023K, paused 11ms, total 11ms\n'
p45
sa(dp46
g2
S'3677'
p47
sg4
L1449718298359L
sg5
g32
sg7
S'dalvikvm-heap'
p48
sg9
S' 3677'
p49
sg11
S'Grow heap (frag case) to 23.785MB for 8721484-byte allocation\n'
p50
sa(dp51
g2
S'3677'
p52
sg4
L1449718298379L
sg5
g6
sg7
S'dalvikvm'
p53
sg9
S' 3680'
p54
sg11
S'GC_CONCURRENT freed 0K, 4% free 21905K/22599K, paused 1ms+2ms, total 15ms\n'
p55
sa(dp56
g2
S'3696'
p57
sg4
L1449718298419L
sg5
g6
sg7
S'dalvikvm'
p58
sg9
S' 3696'
p59
sg11
S'Late-enabling CheckJNI\n'
p60
sa(dp61
g2
S'3677'
p62
sg4
L1449718298429L
sg5
g21
sg7
S'Activity'
p63
sg9
S' 3677'
p64
sg11
S'onStart com.example.myfristandroid.SplashActivity@424d6400\n'
p65
sa(dp66
g2
S'3677'
p67
sg4
L1449718298429L
sg5
g21
sg7
S'Activity'
p68
sg9
S' 3677'
p69
sg11
S'onResume com.example.myfristandroid.SplashActivity@424d6400\n'
p70
sa(dp71
g2
S'3677'
p72
sg4
L1449718298439L
sg5
g21
sg7
S'Activity'
p73
sg9
S' 3677'
p74
sg11
S'onPause com.example.myfristandroid.SplashActivity@424d6400\n'
p75
sa(dp76
g2
S'3696'
p77
sg4
L1449718298449L
sg5
g15
sg7
S'Trace   '
p78
sg9
S' 3696'
p79
sg11
S'error opening trace file: No such file or directory (2)\n'
p80
sa(dp81
g2
S'3677'
p82
sg4
L1449718298449L
sg5
g21
sg7
S'Activity'
p83
sg9
S' 3677'
p84
sg11
S'onResume com.example.myfristandroid.SplashActivity@424d6400\n'
p85
sa(dp86
g2
S'3677'
p87
sg4
L1449718298479L
sg5
g6
sg7
S'libEGL  '
p88
sg9
S' 3677'
p89
sg11
S'loaded /system/lib/egl/libEGL_adreno200.so\n'
p90
sa(dp91
g2
S'3677'
p92
sg4
L1449718298479L
sg5
g6
sg7
S'libEGL  '
p93
sg9
S' 3677'
p94
sg11
S'loaded /system/lib/egl/libGLESv1_CM_adreno200.so\n'
p95
sa(dp96
g2
S'3677'
p97
sg4
L1449718298489L
sg5
g6
sg7
S'libEGL  '
p98
sg9
S' 3677'
p99
sg11
S'loaded /system/lib/egl/libGLESv2_adreno200.so\n'
p100
sa(dp101
g2
S'3677'
p102
sg4
L1449718298489L
sg5
g32
sg7
S'Log_level_control'
p103
sg9
S' 3677'
p104
sg11
S'YVV7\n'
p105
sa(dp106
g2
S'3677'
p107
sg4
L1449718298489L
sg5
g32
sg7
S'Adreno200-EGL'
p108
sg9
S' 3677'
p109
sg11
S'<qeglDrvAPI_eglInitialize:299>: EGL 1.4 QUALCOMM build: Nondeterministic AU_msm8625_REFS/TAGS/JB_REL_RB5_QRD_D20130303_CL3285357_release_AU (CL3285357)\nBuild Date: 03/04/13 Mon\nLocal Branch: \nRemote Branch: m/refs/tags/jb_rel_rb5_qrd_D20130303\nLocal Patches: NONE\nReconstruct Branch: NOTHING\n'
p110
sa(dp111
g2
S'3696'
p112
sg4
L1449718298509L
sg5
g6
sg7
S'dalvikvm'
p113
sg9
S' 3696'
p114
sg11
S'GC_FOR_ALLOC freed 41K, 6% free 9575K/10179K, paused 21ms, total 21ms\n'
p115
sa(dp116
g2
S'3696'
p117
sg4
L1449718298519L
sg5
g32
sg7
S'dalvikvm-heap'
p118
sg9
S' 3696'
p119
sg11
S'Grow heap (frag case) to 12.721MB for 1024016-byte allocation\n'
p120
sa(dp121
g2
S'3677'
p122
sg4
L1449718298519L
sg5
g6
sg7
S'OpenGLRenderer'
p123
sg9
S' 3677'
p124
sg11
S'Enabling debug mode 0\n'
p125
sa(dp126
g2
S'3696'
p127
sg4
L1449718298559L
sg5
g6
sg7
S'dalvikvm'
p128
sg9
S' 3698'
p129
sg11
S'GC_CONCURRENT freed 2K, 6% free 10622K/11207K, paused 13ms+13ms, total 40ms\n'
p130
sa(dp131
g2
S'3696'
p132
sg4
L1449718298569L
sg5
g6
sg7
S'SocketService'
p133
sg9
S' 3696'
p134
sg11
S'onStartCommand : bLogin:false\n'
p135
sa(dp136
g2
S'3696'
p137
sg4
L1449718298569L
sg5
g6
sg7
S'SocketService'
p138
sg9
S' 3696'
p139
sg11
S'pid:3696 myPid:3696\n'
p140
sa(dp141
g2
S'3696'
p142
sg4
L1449718298579L
sg5
g6
sg7
S'SocketService'
p143
sg9
S' 3696'
p144
sg11
S'start to run current thread!id:647\n'
p145
sa(dp146
g2
S'3677'
p147
sg4
L1449718298629L
sg5
g32
sg7
S'Environment'
p148
sg9
S' 3694'
p149
sg11
S'GetExternalStorageDirectory info:ApplicationInfo{424b91e8 com.example.myfristandroid},packagename:com.example.myfristandroid,UID:0\n'
p150
sa(dp151
g2
S'3696'
p152
sg4
L1449718298699L
sg5
g6
sg7
S'SocketService'
p153
sg9
S' 3717'
p154
sg11
S'ip/192.168.1.176 lport:41162 p:143\n'
p155
sa(dp156
g2
S'3696'
p157
sg4
L1449718298709L
sg5
g6
sg7
S'ForegroundActivity'
p158
sg9
S' 3717'
p159
sg11
S'\xe6\x9c\xac\xe6\xac\xa1\xe5\x8f\x91\xe9\x80\x81\xe5\xb8\xa7\xe9\x95\xbf:34\t\xe6\x80\xbb\xe5\xb8\xa7\xe9\x95\xbf:34\n'
p160
sa(dp161
g2
S'3696'
p162
sg4
L1449718298709L
sg5
g6
sg7
S'SocketService'
p163
sg9
S' 3717'
p164
sg11
S'success to connect server!id:647 bLogin:false\n'
p165
sa(dp166
g2
S'3696'
p167
sg4
L1449718298819L
sg5
g6
sg7
S'ForegroundActivity'
p168
sg9
S' 3724'
p169
sg11
S'\xe6\x9c\xac\xe6\xac\xa1\xe6\x94\xb6\xe5\x88\xb0\xe5\xb8\xa7\xe9\x95\xbf:13\t\xe6\x80\xbb\xe5\xb8\xa7\xe9\x95\xbf:13\n'
p170
sa(dp171
g2
S'3696'
p172
sg4
L1449718299569L
sg5
g6
sg7
S'SocketService1'
p173
sg9
S' 3715'
p174
sg11
S'\xe6\x9c\xac\xe6\xac\xa1\xe6\x8f\x90\xe5\x8f\x961:LoadPtr:13 HeadIndex:0 GetSize:13 13 0 \xe5\xa4\xb4\xe4\xbf\xa1\xe6\x81\xaf:EB 90 EB 90 EB 90 0D 00 0E 01 \n'
p175
sa(dp176
g2
S'3696'
p177
sg4
L1449718299719L
sg5
g6
sg7
S'ForegroundActivity'
p178
sg9
S' 3717'
p179
sg11
S'\xe6\x9c\xac\xe6\xac\xa1\xe5\x8f\x91\xe9\x80\x81\xe5\xb8\xa7\xe9\x95\xbf:11\t\xe6\x80\xbb\xe5\xb8\xa7\xe9\x95\xbf:45\n'
p180
sa(dp181
g2
S'3696'
p182
sg4
L1449718299829L
sg5
g6
sg7
S'ForegroundActivity'
p183
sg9
S' 3724'
p184
sg11
S'\xe6\x9c\xac\xe6\xac\xa1\xe6\x94\xb6\xe5\x88\xb0\xe5\xb8\xa7\xe9\x95\xbf:642\t\xe6\x80\xbb\xe5\xb8\xa7\xe9\x95\xbf:655\n'
p185
sa(dp186
g2
S'3677'
p187
sg4
L1449718300499L
sg5
g21
sg7
S'Activity'
p188
sg9
S' 3677'
p189
sg11
S'onPause com.example.myfristandroid.SplashActivity@424d6400\n'
p190
sa(dp191
g2
S'3677'
p192
sg4
L1449718300519L
sg5
g21
sg7
S'Activity'
p193
sg9
S' 3677'
p194
sg11
S'onCreate com.example.myfristandroid.MainActivity@430e5ba0: null\n'
p195
sa(dp196
g2
S'3696'
p197
sg4
L1449718300609L
sg5
g6
sg7
S'SocketService1'
p198
sg9
S' 3715'
p199
sg11
S'\xe6\x9c\xac\xe6\xac\xa1\xe6\x8f\x90\xe5\x8f\x961:LoadPtr:655 HeadIndex:13 GetSize:642 130 512 \xe5\xa4\xb4\xe4\xbf\xa1\xe6\x81\xaf:EB 90 EB 90 EB 90 82 02 14 0A \n'
p200
sa(dp201
g2
S'3677'
p202
sg4
L1449718300709L
sg5
g6
sg7
S'MainActivity'
p203
sg9
S' 3677'
p204
sg11
S'Start One Client\n'
p205
sa(dp206
g2
S'3677'
p207
sg4
L1449718300709L
sg5
g21
sg7
S'Activity'
p208
sg9
S' 3677'
p209
sg11
S'onStart com.example.myfristandroid.MainActivity@430e5ba0\n'
p210
sa(dp211
g2
S'3677'
p212
sg4
L1449718300709L
sg5
g21
sg7
S'Activity'
p213
sg9
S' 3677'
p214
sg11
S'onResume com.example.myfristandroid.MainActivity@430e5ba0\n'
p215
sa(dp216
g2
S'3696'
p217
sg4
L1449718300719L
sg5
g6
sg7
S'ForegroundActivity'
p218
sg9
S' 3717'
p219
sg11
S'\xe6\x9c\xac\xe6\xac\xa1\xe5\x8f\x91\xe9\x80\x81\xe5\xb8\xa7\xe9\x95\xbf:11\t\xe6\x80\xbb\xe5\xb8\xa7\xe9\x95\xbf:56\n'
p220
sa(dp221
g2
S'3696'
p222
sg4
L1449718300849L
sg5
g6
sg7
S'ForegroundActivity'
p223
sg9
S' 3724'
p224
sg11
S'\xe6\x9c\xac\xe6\xac\xa1\xe6\x94\xb6\xe5\x88\xb0\xe5\xb8\xa7\xe9\x95\xbf:67\t\xe6\x80\xbb\xe5\xb8\xa7\xe9\x95\xbf:722\n'
p225
sa(dp226
g2
S'3677'
p227
sg4
L1449718300869L
sg5
g6
sg7
S'dalvikvm'
p228
sg9
S' 3677'
p229
sg11
S'GC_FOR_ALLOC freed 4997K, 23% free 18838K/24263K, paused 18ms, total 18ms\n'
p230
sa(dp231
g2
S'3677'
p232
sg4
L1449718300979L
sg5
g6
sg7
S'dalvikvm'
p233
sg9
S' 3680'
p234
sg11
S'GC_CONCURRENT freed 1083K, 19% free 19755K/24263K, paused 3ms+4ms, total 23ms\n'
p235
sa(dp236
g2
S'3677'
p237
sg4
L1449718300979L
sg5
g6
sg7
S'dalvikvm'
p238
sg9
S' 3677'
p239
sg11
S'WAIT_FOR_CONCURRENT_GC blocked 11ms\n'
p240
sa(dp241
g2
S'3677'
p242
sg4
L1449718301439L
sg5
g21
sg7
S'Activity'
p243
sg9
S' 3677'
p244
sg11
S'onStop com.example.myfristandroid.SplashActivity@424d6400\n'
p245
sa(dp246
g2
S'3677'
p247
sg4
L1449718301439L
sg5
g21
sg7
S'Activity'
p248
sg9
S' 3677'
p249
sg11
S'onDestroy com.example.myfristandroid.SplashActivity@424d6400\n'
p250
sa(dp251
g2
S'3696'
p252
sg4
L1449718301619L
sg5
g6
sg7
S'SocketService1'
p253
sg9
S' 3715'
p254
sg11
S'\xe6\x9c\xac\xe6\xac\xa1\xe6\x8f\x90\xe5\x8f\x961:LoadPtr:722 HeadIndex:655 GetSize:67 67 0 \xe5\xa4\xb4\xe4\xbf\xa1\xe6\x81\xaf:EB 90 EB 90 EB 90 43 00 15 02 \n'
p255
sa(dp256
g2
S'3677'
p257
sg4
L1449718301639L
sg5
g6
sg7
S'MainActivity'
p258
sg9
S' 3677'
p259
sg11
S'ServerVersion:23 LocalVersion:12\n'
p260
sa(dp261
g2
S'3677'
p262
sg4
L1449718303869L
sg5
g21
sg7
S'AudioManager'
p263
sg9
S' 3677'
p264
sg11
S'AudioManager ctor mUseMasterVolume:false\n'
p265
sa(dp266
g2
S'3677'
p267
sg4
L1449718306959L
sg5
g21
sg7
S'Activity'
p268
sg9
S' 3677'
p269
sg11
S'onPause com.example.myfristandroid.MainActivity@430e5ba0\n'
p270
sa(dp271
g2
S'3677'
p272
sg4
L1449718306979L
sg5
g21
sg7
S'Activity'
p273
sg9
S' 3677'
p274
sg11
S'onCreate com.example.myfristandroid.graphWebShow@43100640: null\n'
p275
sa(dp276
g2
S'3677'
p277
sg4
L1449718306999L
sg5
g6
sg7
S'webcore '
p278
sg9
S' 3677'
p279
sg11
S'New send INITIALIZE msg to WebCoreThread\n'
p280
sa(dp281
g2
S'3677'
p282
sg4
L1449718306999L
sg5
g32
sg7
S'Log_level_control'
p283
sg9
S' 3763'
p284
sg11
S'YVV7\n'
p285
sa(dp286
g2
S'3677'
p287
sg4
L1449718306999L
sg5
g6
sg7
S'webcoreglue'
p288
sg9
S' 3763'
p289
sg11
S'netstack: Memory Cache feature is ON\n'
p290
sa(dp291
g2
S'3677'
p292
sg4
L1449718307029L
sg5
g21
sg7
S'Activity'
p293
sg9
S' 3677'
p294
sg11
S'onStart com.example.myfristandroid.graphWebShow@43100640\n'
p295
sa(dp296
g2
S'3677'
p297
sg4
L1449718307029L
sg5
g21
sg7
S'Activity'
p298
sg9
S' 3677'
p299
sg11
S'onResume com.example.myfristandroid.graphWebShow@43100640\n'
p300
sa(dp301
g2
S'3677'
p302
sg4
L1449718307069L
sg5
g32
sg7
S'TextToSpeech'
p303
sg9
S' 3677'
p304
sg11
S'Sucessfully bound to com.svox.pico\n'
p305
sa(dp306
g2
S'3677'
p307
sg4
L1449718307109L
sg5
g6
sg7
S'webcore '
p308
sg9
S' 3763'
p309
sg11
S'initialize, mNativeClass is 1514352912\n'
p310
sa(dp311
g2
S'3677'
p312
sg4
L1449718307109L
sg5
g21
sg7
S'chromium'
p313
sg9
S' 3763'
p314
sg11
S'external/chromium/net/host_resolver_helper/host_resolver_helper.cc:66: [1210/113147:INFO:host_resolver_helper.cc(66)] DNSPreResolver::Init got hostprovider:0x5c5a6010\n'
p315
sa(dp316
g2
S'3677'
p317
sg4
L1449718307109L
sg5
g21
sg7
S'chromium'
p318
sg9
S' 3763'
p319
sg11
S'external/chromium/net/base/host_resolver_impl.cc:1510: [1210/113147:INFO:host_resolver_impl.cc(1510)] HostResolverImpl::SetPreresolver preresolver:0x5c434f28\n'
p320
sa(dp321
g2
S'3677'
p322
sg4
L1449718307109L
sg5
g6
sg7
S'HostStatisticManager'
p323
sg9
S' 3763'
p324
sg11
S'netstack: DNS Host Prioritization is: ON, Version: 5.0.1\n'
p325
sa(dp326
g2
S'3677'
p327
sg4
L1449718307109L
sg5
g6
sg7
S'external/chromium/net/socket/tcp_fin_aggregation_factory.cc'
p328
sg9
S' 3763'
p329
sg11
S'external/chromium/net/socket/tcp_fin_aggregation_factory.cc: libtcpfinaggr.so successfully loaded\n'
p330
sa(dp331
g2
S'3677'
p332
sg4
L1449718307109L
sg5
g6
sg7
S'external/chromium/net/socket/tcp_fin_aggregation_factory.cc'
p333
sg9
S' 3763'
p334
sg11
S'external/chromium/net/socket/tcp_fin_aggregation_factory.cc,: TCP Fin Aggregation initializing method was found in libtcpfinaggr.so\n'
p335
sa(dp336
g2
S'3677'
p337
sg4
L1449718307119L
sg5
g15
sg7
S'Diag_Lib'
p338
sg9
S' 3763'
p339
sg11
S' Diag_LSM_Init: Failed to open handle to diag driver, error = 13\n'
p340
sa(dp341
g2
S'3677'
p342
sg4
L1449718307119L
sg5
g6
sg7
S'TCPFinAggregation'
p343
sg9
S' 3763'
p344
sg11
S'netstack: TCPFinAggregation is 1, Version 5.0.1\n'
p345
sa(dp346
g2
S'3677'
p347
sg4
L1449718307119L
sg5
g6
sg7
S'TCPFinAggregation'
p348
sg9
S' 3763'
p349
sg11
S'system property net.tcp.fin.aggregation.wait was set, value: 20\n'
p350
sa(dp351
g2
S'3677'
p352
sg4
L1449718307119L
sg5
g6
sg7
S'TCPFinAggregation'
p353
sg9
S' 3763'
p354
sg11
S'system property net.tcp.fin.aggregation.close was set, value: 300\n'
p355
sa(dp356
g2
S'3677'
p357
sg4
L1449718307119L
sg5
g6
sg7
S'TCPFinAggregation'
p358
sg9
S' 3763'
p359
sg11
S'netstack: CloseUnusedSockets is ON, (TCPFinAggregation), Version 5.0.1\n'
p360
sa(dp361
g2
S'3677'
p362
sg4
L1449718307119L
sg5
g6
sg7
S'TCPFinAggregation'
p363
sg9
S' 3763'
p364
sg11
S'Failed to get network status! received ret: -2\n'
p365
sa(dp366
g2
S'3677'
p367
sg4
L1449718307119L
sg5
g6
sg7
S'Socket_Pool'
p368
sg9
S' 3763'
p369
sg11
S'netstack: CloseUnusedSockets is ON\n'
p370
sa(dp371
g2
S'3677'
p372
sg4
L1449718307119L
sg5
g6
sg7
S'Socket_Pool'
p373
sg9
S' 3763'
p374
sg11
S'netstack: system net.statistics value: 0\n'
p375
sa(dp376
g2
S'3677'
p377
sg4
L1449718307119L
sg5
g6
sg7
S'external/chromium/net/http/http_getzip_factory.cc'
p378
sg9
S' 3763'
p379
sg11
S'external/chromium/net/http/http_getzip_factory.cc: libgetzip.so successfully loaded\n'
p380
sa(dp381
g2
S'3677'
p382
sg4
L1449718307119L
sg5
g6
sg7
S'external/chromium/net/http/http_getzip_factory.cc'
p383
sg9
S' 3763'
p384
sg11
S'external/chromium/net/http/http_getzip_factory.cc,: GETzip initializing method was found in libgetzip.so\n'
p385
sa(dp386
g2
S'3677'
p387
sg4
L1449718307129L
sg5
g6
sg7
S'        '
p388
sg9
S' 3763'
p389
sg11
S'netstack: Getzip is: ON, Version: 5.0.1\n'
p390
sa(dp391
g2
S'3677'
p392
sg4
L1449718307129L
sg5
g6
sg7
S'Socket_Pool'
p393
sg9
S' 3763'
p394
sg11
S'netstack: CloseUnusedSockets is ON\n'
p395
sa(dp396
g2
S'3677'
p397
sg4
L1449718307129L
sg5
g6
sg7
S'Socket_Pool'
p398
sg9
S' 3763'
p399
sg11
S'netstack: system net.statistics value: 0\n'
p400
sa(dp401
g2
S'3677'
p402
sg4
L1449718307139L
sg5
g32
sg7
S'TextToSpeech'
p403
sg9
S' 3677'
p404
sg11
S'Connected to ComponentInfo{com.svox.pico/com.svox.pico.PicoService}\n'
p405
sa(dp406
g2
S'3677'
p407
sg4
L1449718307149L
sg5
g6
sg7
S'netstack'
p408
sg9
S' 3763'
p409
sg11
S'netstack: Request Priority is ON\n'
p410
sa(dp411
g2
S'3677'
p412
sg4
L1449718307159L
sg5
g21
sg7
S'chromium'
p413
sg9
S' 3776'
p414
sg11
S'external/chromium/net/disk_cache/hostres_plugin_bridge.cc:52: [1210/113147:INFO:hostres_plugin_bridge.cc(52)] StatHubCreateHostResPlugin initializing...\n'
p415
sa(dp416
g2
S'3677'
p417
sg4
L1449718307159L
sg5
g21
sg7
S'chromium'
p418
sg9
S' 3776'
p419
sg11
S'external/chromium/net/disk_cache/hostres_plugin_bridge.cc:57: [1210/113147:INFO:hostres_plugin_bridge.cc(57)] StatHubCreateHostResPlugin lib loaded\n'
p420
sa(dp421
g2
S'3677'
p422
sg4
L1449718307159L
sg5
g21
sg7
S'chromium'
p423
sg9
S' 3776'
p424
sg11
S'external/chromium/net/disk_cache/hostres_plugin_bridge.cc:63: [1210/113147:INFO:hostres_plugin_bridge.cc(63)] StatHubCreateHostResPlugin plugin connected\n'
p425
sa(dp426
g2
S'3677'
p427
sg4
L1449718307159L
sg5
g21
sg7
S'chromium'
p428
sg9
S' 3776'
p429
sg11
S'external/chromium/net/http/http_cache.cc:1168: [1210/113147:INFO:http_cache.cc(1168)] HttpCache::OnBackendCreated HostStat created\n'
p430
sa(dp431
g2
S'3677'
p432
sg4
L1449718307169L
sg5
g15
sg7
S'chromium'
p433
sg9
S' 3776'
p434
sg11
S"external/chromium/net/disk_cache/stat_hub.cc:216: [1210/113147:ERROR:stat_hub.cc(216)] StatHub::Init - App com.example.myfristandroid isn't supported.\n"
p435
sa(dp436
g2
S'3677'
p437
sg4
L1449718307169L
sg5
g21
sg7
S'chromium'
p438
sg9
S' 3776'
p439
sg11
S'external/chromium/net/disk_cache/hostres_plugin_bridge.cc:73: [1210/113147:INFO:hostres_plugin_bridge.cc(73)] netstack: Failed to find symbols in plugin: libdnshostprio.so\n'
p440
sa(dp441
g2
S'3677'
p442
sg4
L1449718307179L
sg5
g21
sg7
S'chromium'
p443
sg9
S' 3776'
p444
sg11
S'external/chromium/net/proxy/proxy_config_service_android.cc:28: [1210/113147:INFO:proxy_config_service_android.cc(28)] property_get persist.sys.proxy:\n'
p445
sa(dp446
g2
S'3677'
p447
sg4
L1449718307179L
sg5
g6
sg7
S'        '
p448
sg9
S' 3776'
p449
sg11
S'netstack: Caching Of Redirection is: ON, Version: 5.0.1\n'
p450
sa(dp451
g2
S'3677'
p452
sg4
L1449718307179L
sg5
g6
sg7
S'        '
p453
sg9
S' 3776'
p454
sg11
S'netstack: Early Connections is: ON, Version: 5.0.1, Param: 3\n'
p455
sa(dp456
g2
S'3677'
p457
sg4
L1449718307379L
sg5
g6
sg7
S'[encoding]'
p458
sg9
S' 3763'
p459
sg11
S'detectTextEncoding encoding=UTF-8\n'
p460
sa(dp461
g2
S'3677'
p462
sg4
L1449718307479L
sg5
g21
sg7
S'Activity'
p463
sg9
S' 3677'
p464
sg11
S'onStop com.example.myfristandroid.MainActivity@430e5ba0\n'
p465
sa(dp466
g2
S'3677'
p467
sg4
L1449718307629L
sg5
g6
sg7
S'[encoding]'
p468
sg9
S' 3763'
p469
sg11
S'detectTextEncoding encoding=UTF-8\n'
p470
sa(dp471
g2
S'3677'
p472
sg4
L1449718307659L
sg5
g6
sg7
S'[encoding]'
p473
sg9
S' 3763'
p474
sg11
S'detectTextEncoding encoding=UTF-8\n'
p475
sa(dp476
g2
S'3677'
p477
sg4
L1449718307679L
sg5
g6
sg7
S'[encoding]'
p478
sg9
S' 3763'
p479
sg11
S'detectTextEncoding encoding=UTF-8\n'
p480
sa(dp481
g2
S'3677'
p482
sg4
L1449718307699L
sg5
g6
sg7
S'[encoding]'
p483
sg9
S' 3763'
p484
sg11
S'detectTextEncoding encoding=UTF-8\n'
p485
sa(dp486
g2
S'3677'
p487
sg4
L1449718307709L
sg5
g6
sg7
S'[encoding]'
p488
sg9
S' 3763'
p489
sg11
S'detectTextEncoding encoding=UTF-8\n'
p490
sa(dp491
g2
S'3677'
p492
sg4
L1449718307719L
sg5
g6
sg7
S'[encoding]'
p493
sg9
S' 3763'
p494
sg11
S'detectTextEncoding encoding=UTF-8\n'
p495
sa(dp496
g2
S'3677'
p497
sg4
L1449718307739L
sg5
g6
sg7
S'[encoding]'
p498
sg9
S' 3763'
p499
sg11
S'detectTextEncoding encoding=UTF-8\n'
p500
sa(dp501
g2
S'3677'
p502
sg4
L1449718307759L
sg5
g6
sg7
S'[encoding]'
p503
sg9
S' 3763'
p504
sg11
S'detectTextEncoding encoding=UTF-8\n'
p505
sa(dp506
g2
S'3677'
p507
sg4
L1449718307779L
sg5
g6
sg7
S'[encoding]'
p508
sg9
S' 3763'
p509
sg11
S'detectTextEncoding encoding=UTF-8\n'
p510
sa(dp511
g2
S'3677'
p512
sg4
L1449718307809L
sg5
g6
sg7
S'[encoding]'
p513
sg9
S' 3763'
p514
sg11
S'detectTextEncoding encoding=UTF-8\n'
p515
sa(dp516
g2
S'3677'
p517
sg4
L1449718308289L
sg5
g6
sg7
S'MainActivity'
p518
sg9
S' 3763'
p519
sg11
S'h:910.5,w:1687.5\n'
p520
sa(dp521
g2
S'3677'
p522
sg4
L1449718308409L
sg5
g21
sg7
S'Activity'
p523
sg9
S' 3677'
p524
sg11
S'onConfigurationChanged com.example.myfristandroid.graphWebShow@43100640: {1.15 460mcc3mnc zh_CN sw455dp w303dp h360dp smll land finger -keyb/v/h -nav/h s.356}\n'
p525
sa(dp526
g2
S'3677'
p527
sg4
L1449718308599L
sg5
g6
sg7
S'TilesManager'
p528
sg9
S' 3677'
p529
sg11
S'new EGLContext from framework: 5d61ec28 \n'
p530
sa(dp531
g2
S'3677'
p532
sg4
L1449718308599L
sg5
g6
sg7
S'GLWebViewState'
p533
sg9
S' 3677'
p534
sg11
S'Reinit shader\n'
p535
sa(dp536
g2
S'3677'
p537
sg4
L1449718308779L
sg5
g6
sg7
S'GLWebViewState'
p538
sg9
S' 3677'
p539
sg11
S'Reinit transferQueue\n'
p540
sa(dp541
g2
S'3696'
p542
sg4
L1449718330109L
sg5
g6
sg7
S'dalvikvm'
p543
sg9
S' 3698'
p544
sg11
S'GC_CONCURRENT freed 453K, 8% free 10610K/11527K, paused 16ms+1ms, total 62ms\n'
p545
sa(dp546
g2
S'3677'
p547
sg4
L1449718330549L
sg5
g21
sg7
S'AudioManager'
p548
sg9
S' 3677'
p549
sg11
S'AudioManager ctor mUseMasterVolume:false\n'
p550
sa(dp551
g2
S'3677'
p552
sg4
L1449718330589L
sg5
g21
sg7
S'Activity'
p553
sg9
S' 3677'
p554
sg11
S'onPause com.example.myfristandroid.graphWebShow@43100640\n'
p555
sa(dp556
g2
S'3677'
p557
sg4
L1449718330709L
sg5
g21
sg7
S'Activity'
p558
sg9
S' 3677'
p559
sg11
S'onStart com.example.myfristandroid.MainActivity@430e5ba0\n'
p560
sa(dp561
g2
S'3677'
p562
sg4
L1449718330709L
sg5
g21
sg7
S'Activity'
p563
sg9
S' 3677'
p564
sg11
S'onResume com.example.myfristandroid.MainActivity@430e5ba0\n'
p565
sa(dp566
g2
S'3677'
p567
sg4
L1449718330789L
sg5
g21
sg7
S'Activity'
p568
sg9
S' 3677'
p569
sg11
S'onStop com.example.myfristandroid.graphWebShow@43100640\n'
p570
sa(dp571
g2
S'3677'
p572
sg4
L1449718330789L
sg5
g21
sg7
S'Activity'
p573
sg9
S' 3677'
p574
sg11
S'onDestroy com.example.myfristandroid.graphWebShow@43100640\n'
p575
sa(dp576
g2
S'3677'
p577
sg4
L1449718330959L
sg5
S'W'
p578
sg7
S'InputEventReceiver'
p579
sg9
S' 3677'
p580
sg11
S'Attempted to finish an input event but the input event receiver has already been disposed.\n'
p581
sa(dp582
g2
S'3677'
p583
sg4
L1449718330969L
sg5
g578
sg7
S'IInputConnectionWrapper'
p584
sg9
S' 3677'
p585
sg11
S'performPrivateCommand on inactive InputConnection\n'
p586
sa(dp587
g2
S'3677'
p588
sg4
L1449718330979L
sg5
g578
sg7
S'IInputConnectionWrapper'
p589
sg9
S' 3677'
p590
sg11
S'performPrivateCommand on inactive InputConnection\n'
p591
sa(dp592
g2
S'3677'
p593
sg4
L1449718333689L
sg5
g6
sg7
S'MainActivity'
p594
sg9
S' 3677'
p595
sg11
S'V.getTag:null v.id:2131230738\n'
p596
sa(dp597
g2
S'3677'
p598
sg4
L1449718335209L
sg5
g6
sg7
S'MainActivity'
p599
sg9
S' 3677'
p600
sg11
S'V.getTag:null v.id:2131230791\n'
p601
sa(dp602
g2
S'3677'
p603
sg4
L1449718335569L
sg5
g6
sg7
S'dalvikvm'
p604
sg9
S' 3680'
p605
sg11
S'GC_CONCURRENT freed 1381K, 17% free 20307K/24263K, paused 2ms+17ms, total 73ms\n'
p606
sa(dp607
g2
S'3677'
p608
sg4
L1449718335609L
sg5
g578
sg7
S'IInputConnectionWrapper'
p609
sg9
S' 3677'
p610
sg11
S'performPrivateCommand on inactive InputConnection\n'
p611
sa(dp612
g2
S'3696'
p613
sg4
L1449718338569L
sg5
g6
sg7
S'ForegroundActivity'
p614
sg9
S' 3713'
p615
sg11
S'\xe6\x9c\xac\xe6\xac\xa1\xe5\x8f\x91\xe9\x80\x81\xe5\xb8\xa7\xe9\x95\xbf:13\t\xe6\x80\xbb\xe5\xb8\xa7\xe9\x95\xbf:69\n'
p616
sa(dp617
g2
S'3677'
p618
sg4
L1449718338739L
sg5
g6
sg7
S'MainActivity'
p619
sg9
S' 3677'
p620
sg11
S'V.getTag:null v.id:2131230790\n'
p621
sa(dp622
g2
S'3696'
p623
sg4
L1449718338749L
sg5
g6
sg7
S'ForegroundActivity'
p624
sg9
S' 3724'
p625
sg11
S'\xe6\x9c\xac\xe6\xac\xa1\xe6\x94\xb6\xe5\x88\xb0\xe5\xb8\xa7\xe9\x95\xbf:13\t\xe6\x80\xbb\xe5\xb8\xa7\xe9\x95\xbf:735\n'
p626
sa(dp627
g2
S'3696'
p628
sg4
L1449718339679L
sg5
g6
sg7
S'SocketService1'
p629
sg9
S' 3715'
p630
sg11
S'\xe6\x9c\xac\xe6\xac\xa1\xe6\x8f\x90\xe5\x8f\x961:LoadPtr:735 HeadIndex:722 GetSize:13 13 0 \xe5\xa4\xb4\xe4\xbf\xa1\xe6\x81\xaf:EB 90 EB 90 EB 90 0D 00 10 01 \n'
p631
sa(dp632
g2
S'3677'
p633
sg4
L1449718339799L
sg5
g6
sg7
S'MainActivity'
p634
sg9
S' 3677'
p635
sg11
S'V.getTag:null v.id:2131230791\n'
p636
sa(dp637
g2
S'3677'
p638
sg4
L1449718339989L
sg5
g578
sg7
S'IInputConnectionWrapper'
p639
sg9
S' 3677'
p640
sg11
S'performPrivateCommand on inactive InputConnection\n'
p641
sa(dp642
g2
S'3677'
p643
sg4
L1449718341739L
sg5
g6
sg7
S'cn.edu.nju.ise.kikandroid'
p644
sg9
S' 3723'
p645
sg11
S'Screenshot:1449718341744\n'
p646
sa(dp647
g2
S'3677'
p648
sg4
L1449718341829L
sg5
g6
sg7
S'dalvikvm'
p649
sg9
S' 3677'
p650
sg11
S'GC_FOR_ALLOC freed 327K, 16% free 20389K/24263K, paused 30ms, total 30ms\n'
p651
sa(dp652
g2
S'3677'
p653
sg4
L1449718341879L
sg5
g6
sg7
S'dalvikvm'
p654
sg9
S' 3680'
p655
sg11
S'GC_CONCURRENT freed 102K, 9% free 22312K/24263K, paused 12ms+3ms, total 37ms\n'
p656
sa(dp657
g2
S'3677'
p658
sg4
L1449718341879L
sg5
g6
sg7
S'dalvikvm'
p659
sg9
S' 3677'
p660
sg11
S'WAIT_FOR_CONCURRENT_GC blocked 10ms\n'
p661
sa(dp662
g2
S'3677'
p663
sg4
L1449718341899L
sg5
g6
sg7
S'dalvikvm'
p664
sg9
S' 3677'
p665
sg11
S'GC_FOR_ALLOC freed 0K, 9% free 22312K/24263K, paused 18ms, total 18ms\n'
p666
sa(dp667
g2
S'3677'
p668
sg4
L1449718341899L
sg5
g32
sg7
S'dalvikvm-heap'
p669
sg9
S' 3677'
p670
sg11
S'Grow heap (frag case) to 26.161MB for 2073616-byte allocation\n'
p671
sa(dp672
g2
S'3677'
p673
sg4
L1449718341929L
sg5
g6
sg7
S'dalvikvm'
p674
sg9
S' 3680'
p675
sg11
S'GC_CONCURRENT freed 2026K, 16% free 22318K/26311K, paused 12ms+3ms, total 31ms\n'
p676
sa(dp677
g2
S'3677'
p678
sg4
L1449718343889L
sg5
g6
sg7
S'cn.edu.nju.ise.kikandroid'
p679
sg9
S' 3723'
p680
sg11
S'Log:1449718343900\n'
p681
sa(dp682
g2
S'3677'
p683
sg4
L1449718344889L
sg5
g6
sg7
S'cn.edu.nju.ise.kikandroid'
p684
sg9
S' 3723'
p685
sg11
S'Log:1449718344899\n'
p686
sa(dp687
g2
S'3696'
p688
sg4
L1449718361529L
sg5
g6
sg7
S'dalvikvm'
p689
sg9
S' 3698'
p690
sg11
S'GC_CONCURRENT freed 385K, 8% free 10608K/11527K, paused 11ms+2ms, total 24ms\n'
p691
sa(dp692
g2
S'3677'
p693
sg4
L1449718367529L
sg5
g6
sg7
S'cn.edu.nju.ise.kikandroid'
p694
sg9
S' 3723'
p695
sg11
S'Log:1449718367538\n'
p696
sa(dp697
g2
S'3677'
p698
sg4
L1449718367579L
sg5
g6
sg7
S'cn.edu.nju.ise.kikandroid'
p699
sg9
S' 3723'
p700
sg11
S'Screenshot:1449718367584\n'
p701
sa(dp702
g2
S'3677'
p703
sg4
L1449718367639L
sg5
g6
sg7
S'dalvikvm'
p704
sg9
S' 3677'
p705
sg11
S'GC_FOR_ALLOC freed 2235K, 23% free 20301K/26311K, paused 23ms, total 23ms\n'
p706
sa(dp707
g2
S'3677'
p708
sg4
L1449718367669L
sg5
g6
sg7
S'dalvikvm'
p709
sg9
S' 3680'
p710
sg11
S'GC_CONCURRENT freed 3K, 16% free 22324K/26311K, paused 2ms+13ms, total 32ms\n'
p711
sa(dp712
g2
S'3677'
p713
sg4
L1449718367669L
sg5
g6
sg7
S'dalvikvm'
p714
sg9
S' 3677'
p715
sg11
S'WAIT_FOR_CONCURRENT_GC blocked 1ms\n'
p716
sa(dp717
g2
S'3677'
p718
sg4
L1449718367719L
sg5
g6
sg7
S'dalvikvm'
p719
sg9
S' 3680'
p720
sg11
S'GC_CONCURRENT freed 2026K, 16% free 22329K/26311K, paused 12ms+4ms, total 37ms\n'
p721
sa(dp722
g2
S'3677'
p723
sg4
L1449718367789L
sg5
g578
sg7
S'dalvikvm'
p724
sg9
S' 3723'
p725
sg11
S'threadid=14: thread exiting with uncaught exception (group=0x41b16588)\n'
p726
sa(dp727
g2
S'3677'
p728
sg4
L1449718367789L
sg5
g15
sg7
S'AndroidRuntime'
p729
sg9
S' 3723'
p730
sg11
S'FATAL EXCEPTION: Thread-642\njava.lang.NullPointerException\n\tat android.app.Instrumentation.finish(Instrumentation.java:191)\n\tat cn.edu.nju.ise.kikandroid.AUTInstrument.quitInstr(AUTInstrument.java:195)\n\tat cn.edu.nju.ise.kikandroid.AUTInstrument.startServer(AUTInstrument.java:161)\n\tat cn.edu.nju.ise.kikandroid.AUTInstrument$1.run(AUTInstrument.java:107)\n\tat java.lang.Thread.run(Thread.java:856)\n'
p731
sa.