(lp0
(dp1
S'EventTime'
p2
S'516151262'
p3
sS'SyscTime'
p4
L1449717541361L
sS'recordCount'
p5
S'0'
p6
sS'EventType'
p7
S'TYPE_WINDOW_CONTENT_CHANGED'
p8
sS'PackageName'
p9
S'com.xdf.ucan'
p10
sS'Action'
p11
S'[ ClassName: android.widget.FrameLayout; Text: []; ContentDescription: null; ItemCount: -1; CurrentItemIndex: -1; IsEnabled: true; IsPassword: false; IsChecked: false; IsFullScreen: false; Scrollable: false; BeforeText: null; FromIndex: -1; ToIndex: -1; ScrollX: -1; ScrollY: -1; MaxScrollX: -1; MaxScrollY: -1; AddedCount: -1; RemovedCount: -1; ParcelableData: null ]'
p12
sS'MovementGranularity'
p13
g6
sa(dp14
S'EventTime'
p15
S'516151732'
p16
sg4
L1449717541859L
sS'recordCount'
p17
g6
sS'EventType'
p18
S'TYPE_WINDOW_STATE_CHANGED'
p19
sS'PackageName'
p20
S'com.xdf.ucan'
p21
sS'OutBounds'
p22
S'Rect(0, 0 - 720, 1184)'
p23
sS'Action'
p24
S'[ ClassName: com.xdf.ucan.ui.login.StartActivity; Text: [\xe4\xbc\x98\xe6\x92\xad\xe8\xaf\xbe]; ContentDescription: null; ItemCount: -1; CurrentItemIndex: -1; IsEnabled: true; IsPassword: false; IsChecked: false; IsFullScreen: true; Scrollable: false; BeforeText: null; FromIndex: -1; ToIndex: -1; ScrollX: -1; ScrollY: -1; MaxScrollX: -1; MaxScrollY: -1; AddedCount: -1; RemovedCount: -1; ParcelableData: null ]'
p25
sS'MovementGranularity'
p26
g6
sa(dp27
S'EventTime'
p28
S'516151860'
p29
sg4
L1449717542053L
sS'recordCount'
p30
g6
sS'EventType'
p31
S'TYPE_WINDOW_CONTENT_CHANGED'
p32
sS'PackageName'
p33
S'com.xdf.ucan'
p34
sS'OutBounds'
p35
S'Rect(0, 0 - 720, 1184)'
p36
sS'Action'
p37
S'[ ClassName: android.widget.FrameLayout; Text: []; ContentDescription: null; ItemCount: -1; CurrentItemIndex: -1; IsEnabled: true; IsPassword: false; IsChecked: false; IsFullScreen: false; Scrollable: false; BeforeText: null; FromIndex: -1; ToIndex: -1; ScrollX: -1; ScrollY: -1; MaxScrollX: -1; MaxScrollY: -1; AddedCount: -1; RemovedCount: -1; ParcelableData: null ]'
p38
sS'MovementGranularity'
p39
g6
sa(dp40
S'EventTime'
p41
S'516152402'
p42
sg4
L1449717542535L
sS'recordCount'
p43
g6
sS'EventType'
p44
S'TYPE_WINDOW_STATE_CHANGED'
p45
sS'PackageName'
p46
S'com.xdf.ucan'
p47
sS'OutBounds'
p48
S'Rect(0, 0 - 720, 1184)'
p49
sS'Action'
p50
S'[ ClassName: com.xdf.ucan.MainActivity; Text: [\xe4\xbc\x98\xe6\x92\xad\xe8\xaf\xbe]; ContentDescription: null; ItemCount: -1; CurrentItemIndex: -1; IsEnabled: true; IsPassword: false; IsChecked: false; IsFullScreen: true; Scrollable: false; BeforeText: null; FromIndex: -1; ToIndex: -1; ScrollX: -1; ScrollY: -1; MaxScrollX: -1; MaxScrollY: -1; AddedCount: -1; RemovedCount: -1; ParcelableData: null ]'
p51
sS'MovementGranularity'
p52
g6
sa(dp53
S'EventTime'
p54
S'516152556'
p55
sg4
L1449717542657L
sS'recordCount'
p56
g6
sS'EventType'
p57
S'TYPE_WINDOW_CONTENT_CHANGED'
p58
sS'PackageName'
p59
S'com.xdf.ucan'
p60
sS'OutBounds'
p61
S'Rect(115, 471 - 499, 504)'
p62
sS'Action'
p63
S'[ ClassName: android.widget.TextView; Text: []; ContentDescription: null; ItemCount: -1; CurrentItemIndex: -1; IsEnabled: true; IsPassword: false; IsChecked: false; IsFullScreen: false; Scrollable: false; BeforeText: null; FromIndex: -1; ToIndex: -1; ScrollX: -1; ScrollY: -1; MaxScrollX: -1; MaxScrollY: -1; AddedCount: -1; RemovedCount: -1; ParcelableData: null ]'
p64
sS'MovementGranularity'
p65
g6
sa(dp66
S'EventTime'
p67
S'516175416'
p68
sg4
L1449717565513L
sS'recordCount'
p69
g6
sS'EventType'
p70
S'TYPE_VIEW_CLICKED'
p71
sS'PackageName'
p72
S'com.xdf.ucan'
p73
sS'OutBounds'
p74
S'Rect(644, 50 - 720, 138)'
p75
sS'Action'
p76
S'[ ClassName: android.widget.ImageView; Text: []; ContentDescription: null; ItemCount: -1; CurrentItemIndex: -1; IsEnabled: true; IsPassword: false; IsChecked: false; IsFullScreen: false; Scrollable: false; BeforeText: null; FromIndex: -1; ToIndex: -1; ScrollX: -1; ScrollY: -1; MaxScrollX: -1; MaxScrollY: -1; AddedCount: -1; RemovedCount: -1; ParcelableData: null ]'
p77
sS'MovementGranularity'
p78
g6
sa(dp79
S'EventTime'
p80
S'516175522'
p81
sg4
L1449717565626L
sS'recordCount'
p82
g6
sS'EventType'
p83
S'TYPE_WINDOW_CONTENT_CHANGED'
p84
sS'PackageName'
p85
S'com.xdf.ucan'
p86
sS'OutBounds'
p87
S'Rect(446, 363 - 502, 401)'
p88
sS'Action'
p89
S'[ ClassName: android.widget.TextView; Text: []; ContentDescription: null; ItemCount: -1; CurrentItemIndex: -1; IsEnabled: true; IsPassword: false; IsChecked: false; IsFullScreen: false; Scrollable: false; BeforeText: null; FromIndex: -1; ToIndex: -1; ScrollX: -1; ScrollY: -1; MaxScrollX: -1; MaxScrollY: -1; AddedCount: -1; RemovedCount: -1; ParcelableData: null ]'
p90
sS'MovementGranularity'
p91
g6
sa(dp92
S'EventTime'
p93
S'516175625'
p94
sg4
L1449717565729L
sS'recordCount'
p95
g6
sS'EventType'
p96
S'TYPE_WINDOW_CONTENT_CHANGED'
p97
sS'PackageName'
p98
S'com.xdf.ucan'
p99
sS'OutBounds'
p100
S'Rect(446, 363 - 502, 401)'
p101
sS'Action'
p102
S'[ ClassName: android.widget.TextView; Text: []; ContentDescription: null; ItemCount: -1; CurrentItemIndex: -1; IsEnabled: true; IsPassword: false; IsChecked: false; IsFullScreen: false; Scrollable: false; BeforeText: null; FromIndex: -1; ToIndex: -1; ScrollX: -1; ScrollY: -1; MaxScrollX: -1; MaxScrollY: -1; AddedCount: -1; RemovedCount: -1; ParcelableData: null ]'
p103
sS'MovementGranularity'
p104
g6
sa(dp105
S'EventTime'
p106
S'516177116'
p107
sg4
L1449717567213L
sS'recordCount'
p108
g6
sS'EventType'
p109
S'TYPE_WINDOW_STATE_CHANGED'
p110
sS'PackageName'
p111
S'com.xdf.ucan'
p112
sS'Action'
p113
S'[ ClassName: com.xdf.ucan.views.LoadingDialog; Text: []; ContentDescription: null; ItemCount: -1; CurrentItemIndex: -1; IsEnabled: true; IsPassword: false; IsChecked: false; IsFullScreen: false; Scrollable: false; BeforeText: null; FromIndex: -1; ToIndex: -1; ScrollX: -1; ScrollY: -1; MaxScrollX: -1; MaxScrollY: -1; AddedCount: -1; RemovedCount: -1; ParcelableData: null ]'
p114
sS'MovementGranularity'
p115
g6
sa(dp116
S'EventTime'
p117
S'516177180'
p118
sg4
L1449717567278L
sS'recordCount'
p119
g6
sS'EventType'
p120
S'TYPE_WINDOW_CONTENT_CHANGED'
p121
sS'PackageName'
p122
S'com.xdf.ucan'
p123
sS'Action'
p124
S'[ ClassName: android.widget.Button; Text: []; ContentDescription: null; ItemCount: -1; CurrentItemIndex: -1; IsEnabled: true; IsPassword: false; IsChecked: false; IsFullScreen: false; Scrollable: false; BeforeText: null; FromIndex: -1; ToIndex: -1; ScrollX: -1; ScrollY: -1; MaxScrollX: -1; MaxScrollY: -1; AddedCount: -1; RemovedCount: -1; ParcelableData: null ]'
p125
sS'MovementGranularity'
p126
g6
sa(dp127
S'EventTime'
p128
S'516177314'
p129
sg4
L1449717567490L
sS'recordCount'
p130
g6
sS'EventType'
p131
S'TYPE_WINDOW_STATE_CHANGED'
p132
sS'PackageName'
p133
S'com.xdf.ucan'
p134
sS'OutBounds'
p135
S'Rect(0, 0 - 720, 1184)'
p136
sS'Action'
p137
S'[ ClassName: com.xdf.ucan.ui.subscript.AddSubscriptionActivity; Text: [\xe4\xbc\x98\xe6\x92\xad\xe8\xaf\xbe]; ContentDescription: null; ItemCount: -1; CurrentItemIndex: -1; IsEnabled: true; IsPassword: false; IsChecked: false; IsFullScreen: true; Scrollable: false; BeforeText: null; FromIndex: -1; ToIndex: -1; ScrollX: -1; ScrollY: -1; MaxScrollX: -1; MaxScrollY: -1; AddedCount: -1; RemovedCount: -1; ParcelableData: null ]'
p138
sS'MovementGranularity'
p139
g6
sa(dp140
S'EventTime'
p141
S'516177414'
p142
sg4
L1449717567525L
sS'recordCount'
p143
g6
sS'EventType'
p144
S'TYPE_VIEW_SCROLLED'
p145
sS'PackageName'
p146
S'com.xdf.ucan'
p147
sS'OutBounds'
p148
S'Rect(0, 312 - 720, 1184)'
p149
sS'Action'
p150
S'[ ClassName: android.widget.ListView; Text: []; ContentDescription: null; ItemCount: 20; CurrentItemIndex: -1; IsEnabled: true; IsPassword: false; IsChecked: false; IsFullScreen: false; Scrollable: true; BeforeText: null; FromIndex: 0; ToIndex: 8; ScrollX: -1; ScrollY: -1; MaxScrollX: -1; MaxScrollY: -1; AddedCount: -1; RemovedCount: -1; ParcelableData: null ]'
p151
sS'MovementGranularity'
p152
g6
sa(dp153
S'EventTime'
p154
S'516177486'
p155
sg4
L1449717567593L
sS'recordCount'
p156
S'1'
p157
sS'EventType'
p158
S'TYPE_WINDOW_CONTENT_CHANGED'
p159
sS'PackageName'
p160
S'com.xdf.ucan'
p161
sS'OutBounds'
p162
S'Rect(550, 341 - 690, 399)'
p163
sS'Action'
p164
S'[ ClassName: android.widget.TextView; Text: []; ContentDescription: null; ItemCount: -1; CurrentItemIndex: -1; IsEnabled: true; IsPassword: false; IsChecked: false; IsFullScreen: false; Scrollable: false; BeforeText: null; FromIndex: -1; ToIndex: -1; ScrollX: -1; ScrollY: -1; MaxScrollX: -1; MaxScrollY: -1; AddedCount: -1; RemovedCount: -1; ParcelableData: null ]'
p165
sS'MovementGranularity'
p166
g6
sa(dp167
S'EventTime'
p168
S'516179884'
p169
sg4
L1449717569996L
sS'recordCount'
p170
g6
sS'EventType'
p171
S'TYPE_VIEW_SCROLLED'
p172
sS'PackageName'
p173
S'com.xdf.ucan'
p174
sS'OutBounds'
p175
S'Rect(0, 312 - 720, 1184)'
p176
sS'Action'
p177
S'[ ClassName: android.widget.ListView; Text: []; ContentDescription: null; ItemCount: 20; CurrentItemIndex: -1; IsEnabled: true; IsPassword: false; IsChecked: false; IsFullScreen: false; Scrollable: true; BeforeText: null; FromIndex: 1; ToIndex: 9; ScrollX: -1; ScrollY: -1; MaxScrollX: -1; MaxScrollY: -1; AddedCount: -1; RemovedCount: -1; ParcelableData: null ]'
p178
sS'MovementGranularity'
p179
g6
sa(dp180
S'EventTime'
p181
S'516180004'
p182
sg4
L1449717570113L
sS'recordCount'
p183
g6
sS'EventType'
p184
S'TYPE_VIEW_SCROLLED'
p185
sS'PackageName'
p186
S'com.xdf.ucan'
p187
sS'OutBounds'
p188
S'Rect(0, 312 - 720, 1184)'
p189
sS'Action'
p190
S'[ ClassName: android.widget.ListView; Text: []; ContentDescription: null; ItemCount: 20; CurrentItemIndex: -1; IsEnabled: true; IsPassword: false; IsChecked: false; IsFullScreen: false; Scrollable: true; BeforeText: null; FromIndex: 2; ToIndex: 9; ScrollX: -1; ScrollY: -1; MaxScrollX: -1; MaxScrollY: -1; AddedCount: -1; RemovedCount: -1; ParcelableData: null ]'
p191
sS'MovementGranularity'
p192
g6
sa(dp193
S'EventTime'
p194
S'516180117'
p195
sg4
L1449717570226L
sS'recordCount'
p196
g6
sS'EventType'
p197
S'TYPE_VIEW_SCROLLED'
p198
sS'PackageName'
p199
S'com.xdf.ucan'
p200
sS'OutBounds'
p201
S'Rect(0, 312 - 720, 1184)'
p202
sS'Action'
p203
S'[ ClassName: android.widget.ListView; Text: []; ContentDescription: null; ItemCount: 20; CurrentItemIndex: -1; IsEnabled: true; IsPassword: false; IsChecked: false; IsFullScreen: false; Scrollable: true; BeforeText: null; FromIndex: 2; ToIndex: 10; ScrollX: -1; ScrollY: -1; MaxScrollX: -1; MaxScrollY: -1; AddedCount: -1; RemovedCount: -1; ParcelableData: null ]'
p204
sS'MovementGranularity'
p205
g6
sa(dp206
S'EventTime'
p207
S'516180183'
p208
sg4
L1449717570295L
sS'recordCount'
p209
g6
sS'EventType'
p210
S'TYPE_WINDOW_CONTENT_CHANGED'
p211
sS'PackageName'
p212
S'com.xdf.ucan'
p213
sS'OutBounds'
p214
S'Rect(0, 312 - 720, 1184)'
p215
sS'Action'
p216
S'[ ClassName: android.widget.ListView; Text: []; ContentDescription: null; ItemCount: 20; CurrentItemIndex: -1; IsEnabled: true; IsPassword: false; IsChecked: false; IsFullScreen: false; Scrollable: true; BeforeText: null; FromIndex: 2; ToIndex: 10; ScrollX: -1; ScrollY: -1; MaxScrollX: -1; MaxScrollY: -1; AddedCount: -1; RemovedCount: -1; ParcelableData: null ]'
p217
sS'MovementGranularity'
p218
g6
sa(dp219
S'EventTime'
p220
S'516180397'
p221
sg4
L1449717570506L
sS'recordCount'
p222
g6
sS'EventType'
p223
S'TYPE_VIEW_SCROLLED'
p224
sS'PackageName'
p225
S'com.xdf.ucan'
p226
sS'OutBounds'
p227
S'Rect(0, 312 - 720, 1184)'
p228
sS'Action'
p229
S'[ ClassName: android.widget.ListView; Text: []; ContentDescription: null; ItemCount: 20; CurrentItemIndex: -1; IsEnabled: true; IsPassword: false; IsChecked: false; IsFullScreen: false; Scrollable: true; BeforeText: null; FromIndex: 2; ToIndex: 9; ScrollX: -1; ScrollY: -1; MaxScrollX: -1; MaxScrollY: -1; AddedCount: -1; RemovedCount: -1; ParcelableData: null ]'
p230
sS'MovementGranularity'
p231
g6
sa(dp232
S'EventTime'
p233
S'516180584'
p234
sg4
L1449717570692L
sS'recordCount'
p235
g6
sS'EventType'
p236
S'TYPE_WINDOW_CONTENT_CHANGED'
p237
sS'PackageName'
p238
S'com.xdf.ucan'
p239
sS'OutBounds'
p240
S'Rect(0, 312 - 720, 1184)'
p241
sS'Action'
p242
S'[ ClassName: android.widget.ListView; Text: []; ContentDescription: null; ItemCount: 20; CurrentItemIndex: -1; IsEnabled: true; IsPassword: false; IsChecked: false; IsFullScreen: false; Scrollable: true; BeforeText: null; FromIndex: 2; ToIndex: 9; ScrollX: -1; ScrollY: -1; MaxScrollX: -1; MaxScrollY: -1; AddedCount: -1; RemovedCount: -1; ParcelableData: null ]'
p243
sS'MovementGranularity'
p244
g6
sa(dp245
S'EventTime'
p246
S'516180785'
p247
sg4
L1449717570904L
sS'recordCount'
p248
g6
sS'EventType'
p249
S'TYPE_WINDOW_CONTENT_CHANGED'
p250
sS'PackageName'
p251
S'com.xdf.ucan'
p252
sS'OutBounds'
p253
S'Rect(0, 312 - 720, 1184)'
p254
sS'Action'
p255
S'[ ClassName: android.widget.ListView; Text: []; ContentDescription: null; ItemCount: 20; CurrentItemIndex: -1; IsEnabled: true; IsPassword: false; IsChecked: false; IsFullScreen: false; Scrollable: true; BeforeText: null; FromIndex: 2; ToIndex: 9; ScrollX: -1; ScrollY: -1; MaxScrollX: -1; MaxScrollY: -1; AddedCount: -1; RemovedCount: -1; ParcelableData: null ]'
p256
sS'MovementGranularity'
p257
g6
sa(dp258
S'EventTime'
p259
S'516183994'
p260
sg4
L1449717574091L
sS'recordCount'
p261
g157
sS'EventType'
p262
S'TYPE_VIEW_CLICKED'
p263
sS'PackageName'
p264
S'com.xdf.ucan'
p265
sS'OutBounds'
p266
S'Rect(550, 692 - 690, 750)'
p267
sS'Action'
p268
S'[ ClassName: android.widget.TextView; Text: []; ContentDescription: null; ItemCount: -1; CurrentItemIndex: -1; IsEnabled: true; IsPassword: false; IsChecked: false; IsFullScreen: false; Scrollable: false; BeforeText: null; FromIndex: -1; ToIndex: -1; ScrollX: -1; ScrollY: -1; MaxScrollX: -1; MaxScrollY: -1; AddedCount: -1; RemovedCount: -1; ParcelableData: null ]'
p269
sS'MovementGranularity'
p270
g6
sa(dp271
S'EventTime'
p272
S'516184107'
p273
sg4
L1449717574219L
sS'recordCount'
p274
g6
sS'EventType'
p275
S'TYPE_WINDOW_STATE_CHANGED'
p276
sS'PackageName'
p277
S'com.xdf.ucan'
p278
sS'OutBounds'
p279
S'Rect(0, 0 - 720, 1184)'
p280
sS'Action'
p281
S'[ ClassName: com.xdf.ucan.ui.subscript.AddSubscriptionActivity; Text: [\xe4\xbc\x98\xe6\x92\xad\xe8\xaf\xbe]; ContentDescription: null; ItemCount: -1; CurrentItemIndex: -1; IsEnabled: true; IsPassword: false; IsChecked: false; IsFullScreen: true; Scrollable: false; BeforeText: null; FromIndex: -1; ToIndex: -1; ScrollX: -1; ScrollY: -1; MaxScrollX: -1; MaxScrollY: -1; AddedCount: -1; RemovedCount: -1; ParcelableData: null ]'
p282
sS'MovementGranularity'
p283
g6
sa(dp284
S'EventTime'
p285
S'516184182'
p286
sg4
L1449717574286L
sS'recordCount'
p287
g6
sS'EventType'
p288
S'TYPE_WINDOW_CONTENT_CHANGED'
p289
sS'PackageName'
p290
S'com.xdf.ucan'
p291
sS'OutBounds'
p292
S'Rect(0, 312 - 720, 1184)'
p293
sS'Action'
p294
S'[ ClassName: android.widget.ListView; Text: []; ContentDescription: null; ItemCount: 20; CurrentItemIndex: -1; IsEnabled: true; IsPassword: false; IsChecked: false; IsFullScreen: false; Scrollable: true; BeforeText: null; FromIndex: 2; ToIndex: 9; ScrollX: -1; ScrollY: -1; MaxScrollX: -1; MaxScrollY: -1; AddedCount: -1; RemovedCount: -1; ParcelableData: null ]'
p295
sS'MovementGranularity'
p296
g6
sa(dp297
S'EventTime'
p298
S'516187759'
p299
sg4
L1449717577866L
sS'recordCount'
p300
g6
sS'EventType'
p301
S'TYPE_WINDOW_STATE_CHANGED'
p302
sS'PackageName'
p303
S'com.xdf.ucan'
p304
sS'OutBounds'
p305
S'Rect(0, 0 - 720, 1184)'
p306
sS'Action'
p307
S'[ ClassName: com.xdf.ucan.MainActivity; Text: [\xe4\xbc\x98\xe6\x92\xad\xe8\xaf\xbe]; ContentDescription: null; ItemCount: -1; CurrentItemIndex: -1; IsEnabled: true; IsPassword: false; IsChecked: false; IsFullScreen: true; Scrollable: false; BeforeText: null; FromIndex: -1; ToIndex: -1; ScrollX: -1; ScrollY: -1; MaxScrollX: -1; MaxScrollY: -1; AddedCount: -1; RemovedCount: -1; ParcelableData: null ]'
p308
sS'MovementGranularity'
p309
g6
sa(dp310
S'EventTime'
p311
S'516191311'
p312
sg4
L1449717581419L
sS'recordCount'
p313
g6
sS'EventType'
p314
S'TYPE_WINDOW_CONTENT_CHANGED'
p315
sS'PackageName'
p316
S'com.xdf.ucan'
p317
sS'OutBounds'
p318
S'Rect(358, 169 - 454, 212)'
p319
sS'Action'
p320
S'[ ClassName: android.widget.TextView; Text: []; ContentDescription: null; ItemCount: -1; CurrentItemIndex: -1; IsEnabled: true; IsPassword: false; IsChecked: false; IsFullScreen: false; Scrollable: false; BeforeText: null; FromIndex: -1; ToIndex: -1; ScrollX: -1; ScrollY: -1; MaxScrollX: -1; MaxScrollY: -1; AddedCount: -1; RemovedCount: -1; ParcelableData: null ]'
p321
sS'MovementGranularity'
p322
g6
sa(dp323
S'EventTime'
p324
S'516191453'
p325
sg4
L1449717581554L
sS'recordCount'
p326
g6
sS'EventType'
p327
S'TYPE_WINDOW_CONTENT_CHANGED'
p328
sS'PackageName'
p329
S'com.xdf.ucan'
p330
sS'OutBounds'
p331
S'Rect(324, 69 - 396, 118)'
p332
sS'Action'
p333
S'[ ClassName: android.widget.TextView; Text: []; ContentDescription: null; ItemCount: -1; CurrentItemIndex: -1; IsEnabled: true; IsPassword: false; IsChecked: false; IsFullScreen: false; Scrollable: false; BeforeText: null; FromIndex: -1; ToIndex: -1; ScrollX: -1; ScrollY: -1; MaxScrollX: -1; MaxScrollY: -1; AddedCount: -1; RemovedCount: -1; ParcelableData: null ]'
p334
sS'MovementGranularity'
p335
g6
sa(dp336
S'EventTime'
p337
S'516193465'
p338
sg4
L1449717583565L
sS'recordCount'
p339
g6
sS'EventType'
p340
S'TYPE_WINDOW_CONTENT_CHANGED'
p341
sS'PackageName'
p342
S'com.xdf.ucan'
p343
sS'OutBounds'
p344
S'Rect(332, 107 - 481, 150)'
p345
sS'Action'
p346
S'[ ClassName: android.widget.TextView; Text: []; ContentDescription: null; ItemCount: -1; CurrentItemIndex: -1; IsEnabled: true; IsPassword: false; IsChecked: false; IsFullScreen: false; Scrollable: false; BeforeText: null; FromIndex: -1; ToIndex: -1; ScrollX: -1; ScrollY: -1; MaxScrollX: -1; MaxScrollY: -1; AddedCount: -1; RemovedCount: -1; ParcelableData: null ]'
p347
sS'MovementGranularity'
p348
g6
sa(dp349
S'EventTime'
p350
S'516198621'
p351
sg4
L1449717588718L
sS'recordCount'
p352
g6
sS'EventType'
p353
S'TYPE_VIEW_CLICKED'
p354
sS'PackageName'
p355
S'com.xdf.ucan'
p356
sS'OutBounds'
p357
S'Rect(644, 50 - 720, 138)'
p358
sS'Action'
p359
S'[ ClassName: android.widget.ImageView; Text: []; ContentDescription: null; ItemCount: -1; CurrentItemIndex: -1; IsEnabled: true; IsPassword: false; IsChecked: false; IsFullScreen: false; Scrollable: false; BeforeText: null; FromIndex: -1; ToIndex: -1; ScrollX: -1; ScrollY: -1; MaxScrollX: -1; MaxScrollY: -1; AddedCount: -1; RemovedCount: -1; ParcelableData: null ]'
p360
sS'MovementGranularity'
p361
g6
sa(dp362
S'EventTime'
p363
S'516198837'
p364
sg4
L1449717588941L
sS'recordCount'
p365
g6
sS'EventType'
p366
S'TYPE_WINDOW_CONTENT_CHANGED'
p367
sS'PackageName'
p368
S'com.xdf.ucan'
p369
sS'OutBounds'
p370
S'Rect(446, 363 - 502, 401)'
p371
sS'Action'
p372
S'[ ClassName: android.widget.TextView; Text: []; ContentDescription: null; ItemCount: -1; CurrentItemIndex: -1; IsEnabled: true; IsPassword: false; IsChecked: false; IsFullScreen: false; Scrollable: false; BeforeText: null; FromIndex: -1; ToIndex: -1; ScrollX: -1; ScrollY: -1; MaxScrollX: -1; MaxScrollY: -1; AddedCount: -1; RemovedCount: -1; ParcelableData: null ]'
p373
sS'MovementGranularity'
p374
g6
sa(dp375
S'EventTime'
p376
S'516199592'
p377
sg4
L1449717589689L
sS'recordCount'
p378
g6
sS'EventType'
p379
S'TYPE_WINDOW_STATE_CHANGED'
p380
sS'PackageName'
p381
S'com.xdf.ucan'
p382
sS'Action'
p383
S'[ ClassName: com.xdf.ucan.views.LoadingDialog; Text: []; ContentDescription: null; ItemCount: -1; CurrentItemIndex: -1; IsEnabled: true; IsPassword: false; IsChecked: false; IsFullScreen: false; Scrollable: false; BeforeText: null; FromIndex: -1; ToIndex: -1; ScrollX: -1; ScrollY: -1; MaxScrollX: -1; MaxScrollY: -1; AddedCount: -1; RemovedCount: -1; ParcelableData: null ]'
p384
sS'MovementGranularity'
p385
g6
sa(dp386
S'EventTime'
p387
S'516199651'
p388
sg4
L1449717589749L
sS'recordCount'
p389
g6
sS'EventType'
p390
S'TYPE_WINDOW_CONTENT_CHANGED'
p391
sS'PackageName'
p392
S'com.xdf.ucan'
p393
sS'Action'
p394
S'[ ClassName: android.widget.Button; Text: []; ContentDescription: null; ItemCount: -1; CurrentItemIndex: -1; IsEnabled: true; IsPassword: false; IsChecked: false; IsFullScreen: false; Scrollable: false; BeforeText: null; FromIndex: -1; ToIndex: -1; ScrollX: -1; ScrollY: -1; MaxScrollX: -1; MaxScrollY: -1; AddedCount: -1; RemovedCount: -1; ParcelableData: null ]'
p395
sS'MovementGranularity'
p396
g6
sa(dp397
S'EventTime'
p398
S'516199731'
p399
sg4
L1449717589888L
sS'recordCount'
p400
g6
sS'EventType'
p401
S'TYPE_WINDOW_STATE_CHANGED'
p402
sS'PackageName'
p403
S'com.xdf.ucan'
p404
sS'OutBounds'
p405
S'Rect(0, 0 - 720, 1184)'
p406
sS'Action'
p407
S'[ ClassName: com.xdf.ucan.ui.subscript.AddSubscriptionActivity; Text: [\xe4\xbc\x98\xe6\x92\xad\xe8\xaf\xbe]; ContentDescription: null; ItemCount: -1; CurrentItemIndex: -1; IsEnabled: true; IsPassword: false; IsChecked: false; IsFullScreen: true; Scrollable: false; BeforeText: null; FromIndex: -1; ToIndex: -1; ScrollX: -1; ScrollY: -1; MaxScrollX: -1; MaxScrollY: -1; AddedCount: -1; RemovedCount: -1; ParcelableData: null ]'
p408
sS'MovementGranularity'
p409
g6
sa(dp410
S'EventTime'
p411
S'516199950'
p412
sg4
L1449717590070L
sS'recordCount'
p413
g6
sS'EventType'
p414
S'TYPE_VIEW_SCROLLED'
p415
sS'PackageName'
p416
S'com.xdf.ucan'
p417
sS'OutBounds'
p418
S'Rect(0, 312 - 720, 1184)'
p419
sS'Action'
p420
S'[ ClassName: android.widget.ListView; Text: []; ContentDescription: null; ItemCount: 20; CurrentItemIndex: -1; IsEnabled: true; IsPassword: false; IsChecked: false; IsFullScreen: false; Scrollable: true; BeforeText: null; FromIndex: 0; ToIndex: 8; ScrollX: -1; ScrollY: -1; MaxScrollX: -1; MaxScrollY: -1; AddedCount: -1; RemovedCount: -1; ParcelableData: null ]'
p421
sS'MovementGranularity'
p422
g6
sa(dp423
S'EventTime'
p424
S'516199972'
p425
sg4
L1449717590087L
sS'recordCount'
p426
g157
sS'EventType'
p427
S'TYPE_WINDOW_CONTENT_CHANGED'
p428
sS'PackageName'
p429
S'com.xdf.ucan'
p430
sS'OutBounds'
p431
S'Rect(168, 1170 - 290, 1208)'
p432
sS'Action'
p433
S'[ ClassName: android.widget.TextView; Text: []; ContentDescription: null; ItemCount: -1; CurrentItemIndex: -1; IsEnabled: true; IsPassword: false; IsChecked: false; IsFullScreen: false; Scrollable: false; BeforeText: null; FromIndex: -1; ToIndex: -1; ScrollX: -1; ScrollY: -1; MaxScrollX: -1; MaxScrollY: -1; AddedCount: -1; RemovedCount: -1; ParcelableData: null ]'
p434
sS'MovementGranularity'
p435
g6
sa(dp436
S'EventTime'
p437
S'516207643'
p438
sg4
L1449717597755L
sS'recordCount'
p439
g6
sS'EventType'
p440
S'TYPE_WINDOW_STATE_CHANGED'
p441
sS'PackageName'
p442
S'com.xdf.ucan'
p443
sS'OutBounds'
p444
S'Rect(0, 0 - 720, 1184)'
p445
sS'Action'
p446
S'[ ClassName: com.xdf.ucan.MainActivity; Text: [\xe4\xbc\x98\xe6\x92\xad\xe8\xaf\xbe]; ContentDescription: null; ItemCount: -1; CurrentItemIndex: -1; IsEnabled: true; IsPassword: false; IsChecked: false; IsFullScreen: true; Scrollable: false; BeforeText: null; FromIndex: -1; ToIndex: -1; ScrollX: -1; ScrollY: -1; MaxScrollX: -1; MaxScrollY: -1; AddedCount: -1; RemovedCount: -1; ParcelableData: null ]'
p447
sS'MovementGranularity'
p448
g6
sa(dp449
S'EventTime'
p450
S'516211140'
p451
sg4
L1449717601237L
sS'recordCount'
p452
g6
sS'EventType'
p453
S'TYPE_VIEW_CLICKED'
p454
sS'PackageName'
p455
S'com.xdf.ucan'
p456
sS'OutBounds'
p457
S'Rect(0, 266 - 720, 394)'
p458
sS'Action'
p459
S'[ ClassName: android.widget.RelativeLayout; Text: [\xe8\xb5\x84\xe6\x96\x99, \xe6\x8d\xae\xe8\xaf\xb4\xef\xbc\x8c\xe6\x96\xb0\xe4\xb8\x9c\xe6\x96\xb9\xe6\x98\xaf\xe8\xb5\x84\xe6\x96\x99\xe5\x88\xb6\xe9\x80\xa0\xe7\x8b\x82]; ContentDescription: null; ItemCount: -1; CurrentItemIndex: -1; IsEnabled: true; IsPassword: false; IsChecked: false; IsFullScreen: false; Scrollable: false; BeforeText: null; FromIndex: -1; ToIndex: -1; ScrollX: -1; ScrollY: -1; MaxScrollX: -1; MaxScrollY: -1; AddedCount: -1; RemovedCount: -1; ParcelableData: null ]'
p460
sS'MovementGranularity'
p461
g6
sa(dp462
S'EventTime'
p463
S'516211451'
p464
sg4
L1449717601630L
sS'recordCount'
p465
g6
sS'EventType'
p466
S'TYPE_WINDOW_STATE_CHANGED'
p467
sS'PackageName'
p468
S'com.xdf.ucan'
p469
sS'OutBounds'
p470
S'Rect(40, 50 - 680, 1184)'
p471
sS'Action'
p472
S'[ ClassName: com.xdf.ucan.views.LoadingDialog; Text: []; ContentDescription: null; ItemCount: -1; CurrentItemIndex: -1; IsEnabled: true; IsPassword: false; IsChecked: false; IsFullScreen: false; Scrollable: false; BeforeText: null; FromIndex: -1; ToIndex: -1; ScrollX: -1; ScrollY: -1; MaxScrollX: -1; MaxScrollY: -1; AddedCount: -1; RemovedCount: -1; ParcelableData: null ]'
p473
sS'MovementGranularity'
p474
g6
sa(dp475
S'EventTime'
p476
S'516211552'
p477
sg4
L1449717601660L
sS'recordCount'
p478
g6
sS'EventType'
p479
S'TYPE_WINDOW_CONTENT_CHANGED'
p480
sS'PackageName'
p481
S'com.xdf.ucan'
p482
sS'OutBounds'
p483
S'Rect(40, 50 - 160, 130)'
p484
sS'Action'
p485
S'[ ClassName: android.widget.Button; Text: []; ContentDescription: null; ItemCount: -1; CurrentItemIndex: -1; IsEnabled: true; IsPassword: false; IsChecked: false; IsFullScreen: false; Scrollable: false; BeforeText: null; FromIndex: -1; ToIndex: -1; ScrollX: -1; ScrollY: -1; MaxScrollX: -1; MaxScrollY: -1; AddedCount: -1; RemovedCount: -1; ParcelableData: null ]'
p486
sS'MovementGranularity'
p487
g6
sa(dp488
S'EventTime'
p489
S'516211652'
p490
sg4
L1449717601769L
sS'recordCount'
p491
g6
sS'EventType'
p492
S'TYPE_WINDOW_CONTENT_CHANGED'
p493
sS'PackageName'
p494
S'com.xdf.ucan'
p495
sS'OutBounds'
p496
S'Rect(40, 50 - 160, 130)'
p497
sS'Action'
p498
S'[ ClassName: android.widget.Button; Text: []; ContentDescription: null; ItemCount: -1; CurrentItemIndex: -1; IsEnabled: true; IsPassword: false; IsChecked: false; IsFullScreen: false; Scrollable: false; BeforeText: null; FromIndex: -1; ToIndex: -1; ScrollX: -1; ScrollY: -1; MaxScrollX: -1; MaxScrollY: -1; AddedCount: -1; RemovedCount: -1; ParcelableData: null ]'
p499
sS'MovementGranularity'
p500
g6
sa(dp501
S'EventTime'
p502
S'516231328'
p503
sg4
L1449717621425L
sS'recordCount'
p504
g6
sS'EventType'
p505
S'TYPE_NOTIFICATION_STATE_CHANGED'
p506
sS'PackageName'
p507
S'com.xdf.ucan'
p508
sS'Action'
p509
S'[ ClassName: android.widget.Toast$TN; Text: [\xe7\xbd\x91\xe7\xbb\x9c\xe4\xb8\x8d\xe7\xbb\x99\xe5\x8a\x9b]; ContentDescription: null; ItemCount: -1; CurrentItemIndex: -1; IsEnabled: false; IsPassword: false; IsChecked: false; IsFullScreen: false; Scrollable: false; BeforeText: null; FromIndex: -1; ToIndex: -1; ScrollX: -1; ScrollY: -1; MaxScrollX: -1; MaxScrollY: -1; AddedCount: -1; RemovedCount: -1; ParcelableData: null ]'
p510
sS'MovementGranularity'
p511
g6
sa(dp512
S'EventTime'
p513
S'516231330'
p514
sg4
L1449717621490L
sS'recordCount'
p515
g6
sS'EventType'
p516
S'TYPE_WINDOW_STATE_CHANGED'
p517
sS'PackageName'
p518
S'com.xdf.ucan'
p519
sS'OutBounds'
p520
S'Rect(0, 0 - 720, 1184)'
p521
sS'Action'
p522
S'[ ClassName: com.xdf.ucan.ui.material.MaterialListActivity; Text: [\xe4\xbc\x98\xe6\x92\xad\xe8\xaf\xbe]; ContentDescription: null; ItemCount: -1; CurrentItemIndex: -1; IsEnabled: true; IsPassword: false; IsChecked: false; IsFullScreen: true; Scrollable: false; BeforeText: null; FromIndex: -1; ToIndex: -1; ScrollX: -1; ScrollY: -1; MaxScrollX: -1; MaxScrollY: -1; AddedCount: -1; RemovedCount: -1; ParcelableData: null ]'
p523
sS'MovementGranularity'
p524
g6
sa(dp525
S'EventTime'
p526
S'516231435'
p527
sg4
L1449717621533L
sS'recordCount'
p528
g6
sS'EventType'
p529
S'TYPE_WINDOW_CONTENT_CHANGED'
p530
sS'PackageName'
p531
S'com.xdf.ucan'
p532
sS'OutBounds'
p533
S'Rect(324, 69 - 396, 118)'
p534
sS'Action'
p535
S'[ ClassName: android.widget.TextView; Text: []; ContentDescription: null; ItemCount: -1; CurrentItemIndex: -1; IsEnabled: true; IsPassword: false; IsChecked: false; IsFullScreen: false; Scrollable: false; BeforeText: null; FromIndex: -1; ToIndex: -1; ScrollX: -1; ScrollY: -1; MaxScrollX: -1; MaxScrollY: -1; AddedCount: -1; RemovedCount: -1; ParcelableData: null ]'
p536
sS'MovementGranularity'
p537
g6
sa(dp538
S'EventTime'
p539
S'516242076'
p540
sg4
L1449717632255L
sS'recordCount'
p541
g6
sS'EventType'
p542
S'TYPE_WINDOW_CONTENT_CHANGED'
p543
sS'PackageName'
p544
S'com.xdf.ucan'
p545
sS'Action'
p546
S'[ ClassName: android.widget.TextView; Text: []; ContentDescription: null; ItemCount: -1; CurrentItemIndex: -1; IsEnabled: true; IsPassword: false; IsChecked: false; IsFullScreen: false; Scrollable: false; BeforeText: null; FromIndex: -1; ToIndex: -1; ScrollX: -1; ScrollY: -1; MaxScrollX: -1; MaxScrollY: -1; AddedCount: -1; RemovedCount: -1; ParcelableData: null ]'
p547
sS'MovementGranularity'
p548
g6
sa(dp549
S'EventTime'
p550
S'516242207'
p551
sg4
L1449717632343L
sS'recordCount'
p552
g157
sS'EventType'
p553
S'TYPE_WINDOW_CONTENT_CHANGED'
p554
sS'PackageName'
p555
S'com.xdf.ucan'
p556
sS'OutBounds'
p557
S'Rect(358, 248 - 454, 291)'
p558
sS'Action'
p559
S'[ ClassName: android.widget.TextView; Text: []; ContentDescription: null; ItemCount: -1; CurrentItemIndex: -1; IsEnabled: true; IsPassword: false; IsChecked: false; IsFullScreen: false; Scrollable: false; BeforeText: null; FromIndex: -1; ToIndex: -1; ScrollX: -1; ScrollY: -1; MaxScrollX: -1; MaxScrollY: -1; AddedCount: -1; RemovedCount: -1; ParcelableData: null ]'
p560
sS'MovementGranularity'
p561
g6
sa(dp562
S'EventTime'
p563
S'516242345'
p564
sg4
L1449717632446L
sS'recordCount'
p565
g157
sS'EventType'
p566
S'TYPE_WINDOW_CONTENT_CHANGED'
p567
sS'PackageName'
p568
S'com.xdf.ucan'
p569
sS'OutBounds'
p570
S'Rect(358, 165 - 454, 208)'
p571
sS'Action'
p572
S'[ ClassName: android.widget.TextView; Text: []; ContentDescription: null; ItemCount: -1; CurrentItemIndex: -1; IsEnabled: true; IsPassword: false; IsChecked: false; IsFullScreen: false; Scrollable: false; BeforeText: null; FromIndex: -1; ToIndex: -1; ScrollX: -1; ScrollY: -1; MaxScrollX: -1; MaxScrollY: -1; AddedCount: -1; RemovedCount: -1; ParcelableData: null ]'
p573
sS'MovementGranularity'
p574
g6
sa(dp575
S'EventTime'
p576
S'516257008'
p577
sg4
L1449717647627L
sS'recordCount'
p578
g6
sS'EventType'
p579
S'TYPE_WINDOW_CONTENT_CHANGED'
p580
sS'PackageName'
p581
S'com.xdf.ucan'
p582
sS'OutBounds'
p583
S'Rect(0, 229 - 720, 1275)'
p584
sS'Action'
p585
S'[ ClassName: android.widget.ListView; Text: []; ContentDescription: null; ItemCount: 13; CurrentItemIndex: -1; IsEnabled: true; IsPassword: false; IsChecked: false; IsFullScreen: false; Scrollable: true; BeforeText: null; FromIndex: 0; ToIndex: 2; ScrollX: -1; ScrollY: -1; MaxScrollX: -1; MaxScrollY: -1; AddedCount: -1; RemovedCount: -1; ParcelableData: null ]'
p586
sS'MovementGranularity'
p587
g6
sa(dp588
S'EventTime'
p589
S'516257471'
p590
sg4
L1449717647696L
sS'recordCount'
p591
g157
sS'EventType'
p592
S'TYPE_WINDOW_CONTENT_CHANGED'
p593
sS'PackageName'
p594
S'com.xdf.ucan'
p595
sS'Action'
p596
S'[ ClassName: android.widget.TextView; Text: []; ContentDescription: null; ItemCount: -1; CurrentItemIndex: -1; IsEnabled: true; IsPassword: false; IsChecked: false; IsFullScreen: false; Scrollable: false; BeforeText: null; FromIndex: -1; ToIndex: -1; ScrollX: -1; ScrollY: -1; MaxScrollX: -1; MaxScrollY: -1; AddedCount: -1; RemovedCount: -1; ParcelableData: null ]'
p597
sS'MovementGranularity'
p598
g6
sa(dp599
S'EventTime'
p600
S'516258425'
p601
sg4
L1449717648591L
sS'recordCount'
p602
g6
sS'EventType'
p603
S'TYPE_WINDOW_STATE_CHANGED'
p604
sS'PackageName'
p605
S'com.xdf.ucan'
p606
sS'OutBounds'
p607
S'Rect(0, 0 - 720, 1184)'
p608
sS'Action'
p609
S'[ ClassName: com.xdf.ucan.ui.material.MaterialListActivity; Text: [\xe4\xbc\x98\xe6\x92\xad\xe8\xaf\xbe]; ContentDescription: null; ItemCount: -1; CurrentItemIndex: -1; IsEnabled: true; IsPassword: false; IsChecked: false; IsFullScreen: true; Scrollable: false; BeforeText: null; FromIndex: -1; ToIndex: -1; ScrollX: -1; ScrollY: -1; MaxScrollX: -1; MaxScrollY: -1; AddedCount: -1; RemovedCount: -1; ParcelableData: null ]'
p610
sS'MovementGranularity'
p611
g6
sa(dp612
S'EventTime'
p613
S'516258589'
p614
sg4
L1449717648694L
sS'recordCount'
p615
g157
sS'EventType'
p616
S'TYPE_WINDOW_CONTENT_CHANGED'
p617
sS'PackageName'
p618
S'com.xdf.ucan'
p619
sS'OutBounds'
p620
S'Rect(155, 412 - 214, 444)'
p621
sS'Action'
p622
S'[ ClassName: android.widget.TextView; Text: []; ContentDescription: null; ItemCount: -1; CurrentItemIndex: -1; IsEnabled: true; IsPassword: false; IsChecked: false; IsFullScreen: false; Scrollable: false; BeforeText: null; FromIndex: -1; ToIndex: -1; ScrollX: -1; ScrollY: -1; MaxScrollX: -1; MaxScrollY: -1; AddedCount: -1; RemovedCount: -1; ParcelableData: null ]'
p623
sS'MovementGranularity'
p624
g6
sa(dp625
S'EventTime'
p626
S'516259472'
p627
sg4
L1449717649771L
sS'recordCount'
p628
g6
sS'EventType'
p629
S'TYPE_WINDOW_CONTENT_CHANGED'
p630
sS'PackageName'
p631
S'com.xdf.ucan'
p632
sS'OutBounds'
p633
S'Rect(0, 138 - 720, 1184)'
p634
sS'Action'
p635
S'[ ClassName: android.widget.ListView; Text: []; ContentDescription: null; ItemCount: 13; CurrentItemIndex: -1; IsEnabled: true; IsPassword: false; IsChecked: false; IsFullScreen: false; Scrollable: true; BeforeText: null; FromIndex: 0; ToIndex: 5; ScrollX: -1; ScrollY: -1; MaxScrollX: -1; MaxScrollY: -1; AddedCount: -1; RemovedCount: -1; ParcelableData: null ]'
p636
sS'MovementGranularity'
p637
g6
sa(dp638
S'EventTime'
p639
S'516259723'
p640
sg4
L1449717649836L
sS'recordCount'
p641
g6
sS'EventType'
p642
S'TYPE_WINDOW_CONTENT_CHANGED'
p643
sS'PackageName'
p644
S'com.xdf.ucan'
p645
sS'OutBounds'
p646
S'Rect(0, 138 - 720, 1184)'
p647
sS'Action'
p648
S'[ ClassName: android.widget.ListView; Text: []; ContentDescription: null; ItemCount: 13; CurrentItemIndex: -1; IsEnabled: true; IsPassword: false; IsChecked: false; IsFullScreen: false; Scrollable: true; BeforeText: null; FromIndex: 0; ToIndex: 5; ScrollX: -1; ScrollY: -1; MaxScrollX: -1; MaxScrollY: -1; AddedCount: -1; RemovedCount: -1; ParcelableData: null ]'
p649
sS'MovementGranularity'
p650
g6
sa(dp651
S'EventTime'
p652
S'516261054'
p653
sg4
L1449717651225L
sS'recordCount'
p654
g6
sS'EventType'
p655
S'TYPE_VIEW_SCROLLED'
p656
sS'PackageName'
p657
S'com.xdf.ucan'
p658
sS'OutBounds'
p659
S'Rect(0, 138 - 720, 1184)'
p660
sS'Action'
p661
S'[ ClassName: android.widget.ListView; Text: []; ContentDescription: null; ItemCount: 13; CurrentItemIndex: -1; IsEnabled: true; IsPassword: false; IsChecked: false; IsFullScreen: false; Scrollable: true; BeforeText: null; FromIndex: 1; ToIndex: 5; ScrollX: -1; ScrollY: -1; MaxScrollX: -1; MaxScrollY: -1; AddedCount: -1; RemovedCount: -1; ParcelableData: null ]'
p662
sS'MovementGranularity'
p663
g6
sa(dp664
S'EventTime'
p665
S'516261223'
p666
sg4
L1449717651334L
sS'recordCount'
p667
g157
sS'EventType'
p668
S'TYPE_WINDOW_CONTENT_CHANGED'
p669
sS'PackageName'
p670
S'com.xdf.ucan'
p671
sS'OutBounds'
p672
S'Rect(555, 328 - 572, 369)'
p673
sS'Action'
p674
S'[ ClassName: android.widget.TextView; Text: []; ContentDescription: null; ItemCount: -1; CurrentItemIndex: -1; IsEnabled: true; IsPassword: false; IsChecked: false; IsFullScreen: false; Scrollable: false; BeforeText: null; FromIndex: -1; ToIndex: -1; ScrollX: -1; ScrollY: -1; MaxScrollX: -1; MaxScrollY: -1; AddedCount: -1; RemovedCount: -1; ParcelableData: null ]'
p675
sS'MovementGranularity'
p676
g6
sa(dp677
S'EventTime'
p678
S'516261234'
p679
sg4
L1449717651429L
sS'recordCount'
p680
g6
sS'EventType'
p681
S'TYPE_VIEW_SCROLLED'
p682
sS'PackageName'
p683
S'com.xdf.ucan'
p684
sS'OutBounds'
p685
S'Rect(0, 138 - 720, 1184)'
p686
sS'Action'
p687
S'[ ClassName: android.widget.ListView; Text: []; ContentDescription: null; ItemCount: 13; CurrentItemIndex: -1; IsEnabled: true; IsPassword: false; IsChecked: false; IsFullScreen: false; Scrollable: true; BeforeText: null; FromIndex: 2; ToIndex: 5; ScrollX: -1; ScrollY: -1; MaxScrollX: -1; MaxScrollY: -1; AddedCount: -1; RemovedCount: -1; ParcelableData: null ]'
p688
sS'MovementGranularity'
p689
g6
sa(dp690
S'EventTime'
p691
S'516261335'
p692
sg4
L1449717651578L
sS'recordCount'
p693
g6
sS'EventType'
p694
S'TYPE_WINDOW_CONTENT_CHANGED'
p695
sS'PackageName'
p696
S'com.xdf.ucan'
p697
sS'OutBounds'
p698
S'Rect(0, 138 - 720, 1184)'
p699
sS'Action'
p700
S'[ ClassName: android.widget.ListView; Text: []; ContentDescription: null; ItemCount: 13; CurrentItemIndex: -1; IsEnabled: true; IsPassword: false; IsChecked: false; IsFullScreen: false; Scrollable: true; BeforeText: null; FromIndex: 2; ToIndex: 5; ScrollX: -1; ScrollY: -1; MaxScrollX: -1; MaxScrollY: -1; AddedCount: -1; RemovedCount: -1; ParcelableData: null ]'
p701
sS'MovementGranularity'
p702
g6
sa(dp703
S'EventTime'
p704
S'516261439'
p705
sg4
L1449717651690L
sS'recordCount'
p706
g6
sS'EventType'
p707
S'TYPE_WINDOW_CONTENT_CHANGED'
p708
sS'PackageName'
p709
S'com.xdf.ucan'
p710
sS'OutBounds'
p711
S'Rect(0, 138 - 720, 1184)'
p712
sS'Action'
p713
S'[ ClassName: android.widget.ListView; Text: []; ContentDescription: null; ItemCount: 13; CurrentItemIndex: -1; IsEnabled: true; IsPassword: false; IsChecked: false; IsFullScreen: false; Scrollable: true; BeforeText: null; FromIndex: 2; ToIndex: 5; ScrollX: -1; ScrollY: -1; MaxScrollX: -1; MaxScrollY: -1; AddedCount: -1; RemovedCount: -1; ParcelableData: null ]'
p714
sS'MovementGranularity'
p715
g6
sa(dp716
S'EventTime'
p717
S'516261530'
p718
sg4
L1449717651870L
sS'recordCount'
p719
g6
sS'EventType'
p720
S'TYPE_VIEW_SCROLLED'
p721
sS'PackageName'
p722
S'com.xdf.ucan'
p723
sS'OutBounds'
p724
S'Rect(0, 138 - 720, 1184)'
p725
sS'Action'
p726
S'[ ClassName: android.widget.ListView; Text: []; ContentDescription: null; ItemCount: 13; CurrentItemIndex: -1; IsEnabled: true; IsPassword: false; IsChecked: false; IsFullScreen: false; Scrollable: true; BeforeText: null; FromIndex: 1; ToIndex: 5; ScrollX: -1; ScrollY: -1; MaxScrollX: -1; MaxScrollY: -1; AddedCount: -1; RemovedCount: -1; ParcelableData: null ]'
p727
sS'MovementGranularity'
p728
g6
sa(dp729
S'EventTime'
p730
S'516261590'
p731
sg4
L1449717651976L
sS'recordCount'
p732
g6
sS'EventType'
p733
S'TYPE_WINDOW_CONTENT_CHANGED'
p734
sS'PackageName'
p735
S'com.xdf.ucan'
p736
sS'OutBounds'
p737
S'Rect(0, 138 - 720, 1184)'
p738
sS'Action'
p739
S'[ ClassName: android.widget.ListView; Text: []; ContentDescription: null; ItemCount: 13; CurrentItemIndex: -1; IsEnabled: true; IsPassword: false; IsChecked: false; IsFullScreen: false; Scrollable: true; BeforeText: null; FromIndex: 1; ToIndex: 5; ScrollX: -1; ScrollY: -1; MaxScrollX: -1; MaxScrollY: -1; AddedCount: -1; RemovedCount: -1; ParcelableData: null ]'
p740
sS'MovementGranularity'
p741
g6
sa(dp742
S'EventTime'
p743
S'516261751'
p744
sg4
L1449717652123L
sS'recordCount'
p745
g6
sS'EventType'
p746
S'TYPE_VIEW_SCROLLED'
p747
sS'PackageName'
p748
S'com.xdf.ucan'
p749
sS'OutBounds'
p750
S'Rect(0, 138 - 720, 1184)'
p751
sS'Action'
p752
S'[ ClassName: android.widget.ListView; Text: []; ContentDescription: null; ItemCount: 13; CurrentItemIndex: -1; IsEnabled: true; IsPassword: false; IsChecked: false; IsFullScreen: false; Scrollable: true; BeforeText: null; FromIndex: 0; ToIndex: 5; ScrollX: -1; ScrollY: -1; MaxScrollX: -1; MaxScrollY: -1; AddedCount: -1; RemovedCount: -1; ParcelableData: null ]'
p753
sS'MovementGranularity'
p754
g6
sa(dp755
S'EventTime'
p756
S'516261761'
p757
sg4
L1449717652274L
sS'recordCount'
p758
g6
sS'EventType'
p759
S'TYPE_WINDOW_CONTENT_CHANGED'
p760
sS'PackageName'
p761
S'com.xdf.ucan'
p762
sS'OutBounds'
p763
S'Rect(0, 138 - 720, 1184)'
p764
sS'Action'
p765
S'[ ClassName: android.widget.ListView; Text: []; ContentDescription: null; ItemCount: 13; CurrentItemIndex: -1; IsEnabled: true; IsPassword: false; IsChecked: false; IsFullScreen: false; Scrollable: true; BeforeText: null; FromIndex: 0; ToIndex: 5; ScrollX: -1; ScrollY: -1; MaxScrollX: -1; MaxScrollY: -1; AddedCount: -1; RemovedCount: -1; ParcelableData: null ]'
p766
sS'MovementGranularity'
p767
g6
sa(dp768
S'EventTime'
p769
S'516262283'
p770
sg4
L1449717652522L
sS'recordCount'
p771
g6
sS'EventType'
p772
S'TYPE_WINDOW_CONTENT_CHANGED'
p773
sS'PackageName'
p774
S'com.xdf.ucan'
p775
sS'OutBounds'
p776
S'Rect(0, 138 - 720, 1184)'
p777
sS'Action'
p778
S'[ ClassName: android.widget.ListView; Text: []; ContentDescription: null; ItemCount: 13; CurrentItemIndex: -1; IsEnabled: true; IsPassword: false; IsChecked: false; IsFullScreen: false; Scrollable: true; BeforeText: null; FromIndex: 1; ToIndex: 5; ScrollX: -1; ScrollY: -1; MaxScrollX: -1; MaxScrollY: -1; AddedCount: -1; RemovedCount: -1; ParcelableData: null ]'
p779
sS'MovementGranularity'
p780
g6
sa(dp781
S'EventTime'
p782
S'516262423'
p783
sg4
L1449717652688L
sS'recordCount'
p784
g6
sS'EventType'
p785
S'TYPE_VIEW_SCROLLED'
p786
sS'PackageName'
p787
S'com.xdf.ucan'
p788
sS'OutBounds'
p789
S'Rect(0, 138 - 720, 1184)'
p790
sS'Action'
p791
S'[ ClassName: android.widget.ListView; Text: []; ContentDescription: null; ItemCount: 13; CurrentItemIndex: -1; IsEnabled: true; IsPassword: false; IsChecked: false; IsFullScreen: false; Scrollable: true; BeforeText: null; FromIndex: 2; ToIndex: 6; ScrollX: -1; ScrollY: -1; MaxScrollX: -1; MaxScrollY: -1; AddedCount: -1; RemovedCount: -1; ParcelableData: null ]'
p792
sS'MovementGranularity'
p793
g6
sa(dp794
S'EventTime'
p795
S'516262587'
p796
sg4
L1449717652815L
sS'recordCount'
p797
g6
sS'EventType'
p798
S'TYPE_WINDOW_CONTENT_CHANGED'
p799
sS'PackageName'
p800
S'com.xdf.ucan'
p801
sS'OutBounds'
p802
S'Rect(0, 138 - 720, 1184)'
p803
sS'Action'
p804
S'[ ClassName: android.widget.ListView; Text: []; ContentDescription: null; ItemCount: 13; CurrentItemIndex: -1; IsEnabled: true; IsPassword: false; IsChecked: false; IsFullScreen: false; Scrollable: true; BeforeText: null; FromIndex: 2; ToIndex: 6; ScrollX: -1; ScrollY: -1; MaxScrollX: -1; MaxScrollY: -1; AddedCount: -1; RemovedCount: -1; ParcelableData: null ]'
p805
sS'MovementGranularity'
p806
g6
sa(dp807
S'EventTime'
p808
S'516262700'
p809
sg4
L1449717652966L
sS'recordCount'
p810
g6
sS'EventType'
p811
S'TYPE_WINDOW_CONTENT_CHANGED'
p812
sS'PackageName'
p813
S'com.xdf.ucan'
p814
sS'OutBounds'
p815
S'Rect(0, 138 - 720, 1184)'
p816
sS'Action'
p817
S'[ ClassName: android.widget.ListView; Text: []; ContentDescription: null; ItemCount: 13; CurrentItemIndex: -1; IsEnabled: true; IsPassword: false; IsChecked: false; IsFullScreen: false; Scrollable: true; BeforeText: null; FromIndex: 2; ToIndex: 6; ScrollX: -1; ScrollY: -1; MaxScrollX: -1; MaxScrollY: -1; AddedCount: -1; RemovedCount: -1; ParcelableData: null ]'
p818
sS'MovementGranularity'
p819
g6
sa(dp820
S'EventTime'
p821
S'516262848'
p822
sg4
L1449717653143L
sS'recordCount'
p823
g6
sS'EventType'
p824
S'TYPE_WINDOW_CONTENT_CHANGED'
p825
sS'PackageName'
p826
S'com.xdf.ucan'
p827
sS'OutBounds'
p828
S'Rect(0, 138 - 720, 1184)'
p829
sS'Action'
p830
S'[ ClassName: android.widget.ListView; Text: []; ContentDescription: null; ItemCount: 13; CurrentItemIndex: -1; IsEnabled: true; IsPassword: false; IsChecked: false; IsFullScreen: false; Scrollable: true; BeforeText: null; FromIndex: 3; ToIndex: 6; ScrollX: -1; ScrollY: -1; MaxScrollX: -1; MaxScrollY: -1; AddedCount: -1; RemovedCount: -1; ParcelableData: null ]'
p831
sS'MovementGranularity'
p832
g6
sa(dp833
S'EventTime'
p834
S'516263030'
p835
sg4
L1449717653259L
sS'recordCount'
p836
g6
sS'EventType'
p837
S'TYPE_VIEW_SCROLLED'
p838
sS'PackageName'
p839
S'com.xdf.ucan'
p840
sS'OutBounds'
p841
S'Rect(0, 138 - 720, 1184)'
p842
sS'Action'
p843
S'[ ClassName: android.widget.ListView; Text: []; ContentDescription: null; ItemCount: 13; CurrentItemIndex: -1; IsEnabled: true; IsPassword: false; IsChecked: false; IsFullScreen: false; Scrollable: true; BeforeText: null; FromIndex: 3; ToIndex: 7; ScrollX: -1; ScrollY: -1; MaxScrollX: -1; MaxScrollY: -1; AddedCount: -1; RemovedCount: -1; ParcelableData: null ]'
p844
sS'MovementGranularity'
p845
g6
sa(dp846
S'EventTime'
p847
S'516263038'
p848
sg4
L1449717653401L
sS'recordCount'
p849
g6
sS'EventType'
p850
S'TYPE_WINDOW_CONTENT_CHANGED'
p851
sS'PackageName'
p852
S'com.xdf.ucan'
p853
sS'OutBounds'
p854
S'Rect(0, 138 - 720, 1184)'
p855
sS'Action'
p856
S'[ ClassName: android.widget.ListView; Text: []; ContentDescription: null; ItemCount: 13; CurrentItemIndex: -1; IsEnabled: true; IsPassword: false; IsChecked: false; IsFullScreen: false; Scrollable: true; BeforeText: null; FromIndex: 3; ToIndex: 7; ScrollX: -1; ScrollY: -1; MaxScrollX: -1; MaxScrollY: -1; AddedCount: -1; RemovedCount: -1; ParcelableData: null ]'
p857
sS'MovementGranularity'
p858
g6
sa(dp859
S'EventTime'
p860
S'516263155'
p861
sg4
L1449717653577L
sS'recordCount'
p862
g6
sS'EventType'
p863
S'TYPE_WINDOW_CONTENT_CHANGED'
p864
sS'PackageName'
p865
S'com.xdf.ucan'
p866
sS'OutBounds'
p867
S'Rect(0, 138 - 720, 1184)'
p868
sS'Action'
p869
S'[ ClassName: android.widget.ListView; Text: []; ContentDescription: null; ItemCount: 13; CurrentItemIndex: -1; IsEnabled: true; IsPassword: false; IsChecked: false; IsFullScreen: false; Scrollable: true; BeforeText: null; FromIndex: 3; ToIndex: 7; ScrollX: -1; ScrollY: -1; MaxScrollX: -1; MaxScrollY: -1; AddedCount: -1; RemovedCount: -1; ParcelableData: null ]'
p870
sS'MovementGranularity'
p871
g6
sa(dp872
S'EventTime'
p873
S'516263428'
p874
sg4
L1449717653696L
sS'recordCount'
p875
g6
sS'EventType'
p876
S'TYPE_VIEW_SCROLLED'
p877
sS'PackageName'
p878
S'com.xdf.ucan'
p879
sS'OutBounds'
p880
S'Rect(0, 138 - 720, 1184)'
p881
sS'Action'
p882
S'[ ClassName: android.widget.ListView; Text: []; ContentDescription: null; ItemCount: 13; CurrentItemIndex: -1; IsEnabled: true; IsPassword: false; IsChecked: false; IsFullScreen: false; Scrollable: true; BeforeText: null; FromIndex: 4; ToIndex: 7; ScrollX: -1; ScrollY: -1; MaxScrollX: -1; MaxScrollY: -1; AddedCount: -1; RemovedCount: -1; ParcelableData: null ]'
p883
sS'MovementGranularity'
p884
g6
sa(dp885
S'EventTime'
p886
S'516263436'
p887
sg4
L1449717653806L
sS'recordCount'
p888
g6
sS'EventType'
p889
S'TYPE_WINDOW_CONTENT_CHANGED'
p890
sS'PackageName'
p891
S'com.xdf.ucan'
p892
sS'OutBounds'
p893
S'Rect(0, 138 - 720, 1184)'
p894
sS'Action'
p895
S'[ ClassName: android.widget.ListView; Text: []; ContentDescription: null; ItemCount: 13; CurrentItemIndex: -1; IsEnabled: true; IsPassword: false; IsChecked: false; IsFullScreen: false; Scrollable: true; BeforeText: null; FromIndex: 4; ToIndex: 7; ScrollX: -1; ScrollY: -1; MaxScrollX: -1; MaxScrollY: -1; AddedCount: -1; RemovedCount: -1; ParcelableData: null ]'
p896
sS'MovementGranularity'
p897
g6
sa(dp898
S'EventTime'
p899
S'516263656'
p900
sg4
L1449717653980L
sS'recordCount'
p901
g6
sS'EventType'
p902
S'TYPE_VIEW_SCROLLED'
p903
sS'PackageName'
p904
S'com.xdf.ucan'
p905
sS'OutBounds'
p906
S'Rect(0, 138 - 720, 1184)'
p907
sS'Action'
p908
S'[ ClassName: android.widget.ListView; Text: []; ContentDescription: null; ItemCount: 13; CurrentItemIndex: -1; IsEnabled: true; IsPassword: false; IsChecked: false; IsFullScreen: false; Scrollable: true; BeforeText: null; FromIndex: 5; ToIndex: 8; ScrollX: -1; ScrollY: -1; MaxScrollX: -1; MaxScrollY: -1; AddedCount: -1; RemovedCount: -1; ParcelableData: null ]'
p909
sS'MovementGranularity'
p910
g6
sa(dp911
S'EventTime'
p912
S'516263707'
p913
sg4
L1449717654136L
sS'recordCount'
p914
g6
sS'EventType'
p915
S'TYPE_WINDOW_CONTENT_CHANGED'
p916
sS'PackageName'
p917
S'com.xdf.ucan'
p918
sS'OutBounds'
p919
S'Rect(0, 138 - 720, 1184)'
p920
sS'Action'
p921
S'[ ClassName: android.widget.ListView; Text: []; ContentDescription: null; ItemCount: 13; CurrentItemIndex: -1; IsEnabled: true; IsPassword: false; IsChecked: false; IsFullScreen: false; Scrollable: true; BeforeText: null; FromIndex: 5; ToIndex: 8; ScrollX: -1; ScrollY: -1; MaxScrollX: -1; MaxScrollY: -1; AddedCount: -1; RemovedCount: -1; ParcelableData: null ]'
p922
sS'MovementGranularity'
p923
g6
sa(dp924
S'EventTime'
p925
S'516263831'
p926
sg4
L1449717654248L
sS'recordCount'
p927
g6
sS'EventType'
p928
S'TYPE_WINDOW_CONTENT_CHANGED'
p929
sS'PackageName'
p930
S'com.xdf.ucan'
p931
sS'OutBounds'
p932
S'Rect(0, 138 - 720, 1184)'
p933
sS'Action'
p934
S'[ ClassName: android.widget.ListView; Text: []; ContentDescription: null; ItemCount: 13; CurrentItemIndex: -1; IsEnabled: true; IsPassword: false; IsChecked: false; IsFullScreen: false; Scrollable: true; BeforeText: null; FromIndex: 5; ToIndex: 8; ScrollX: -1; ScrollY: -1; MaxScrollX: -1; MaxScrollY: -1; AddedCount: -1; RemovedCount: -1; ParcelableData: null ]'
p935
sS'MovementGranularity'
p936
g6
sa(dp937
S'EventTime'
p938
S'516263999'
p939
sg4
L1449717654355L
sS'recordCount'
p940
g6
sS'EventType'
p941
S'TYPE_WINDOW_CONTENT_CHANGED'
p942
sS'PackageName'
p943
S'com.xdf.ucan'
p944
sS'OutBounds'
p945
S'Rect(0, 138 - 720, 1184)'
p946
sS'Action'
p947
S'[ ClassName: android.widget.ListView; Text: []; ContentDescription: null; ItemCount: 13; CurrentItemIndex: -1; IsEnabled: true; IsPassword: false; IsChecked: false; IsFullScreen: false; Scrollable: true; BeforeText: null; FromIndex: 4; ToIndex: 7; ScrollX: -1; ScrollY: -1; MaxScrollX: -1; MaxScrollY: -1; AddedCount: -1; RemovedCount: -1; ParcelableData: null ]'
p948
sS'MovementGranularity'
p949
g6
sa(dp950
S'EventTime'
p951
S'516264089'
p952
sg4
L1449717654526L
sS'recordCount'
p953
g6
sS'EventType'
p954
S'TYPE_VIEW_SCROLLED'
p955
sS'PackageName'
p956
S'com.xdf.ucan'
p957
sS'OutBounds'
p958
S'Rect(0, 138 - 720, 1184)'
p959
sS'Action'
p960
S'[ ClassName: android.widget.ListView; Text: []; ContentDescription: null; ItemCount: 13; CurrentItemIndex: -1; IsEnabled: true; IsPassword: false; IsChecked: false; IsFullScreen: false; Scrollable: true; BeforeText: null; FromIndex: 3; ToIndex: 7; ScrollX: -1; ScrollY: -1; MaxScrollX: -1; MaxScrollY: -1; AddedCount: -1; RemovedCount: -1; ParcelableData: null ]'
p961
sS'MovementGranularity'
p962
g6
sa(dp963
S'EventTime'
p964
S'516264258'
p965
sg4
L1449717654671L
sS'recordCount'
p966
g6
sS'EventType'
p967
S'TYPE_VIEW_SCROLLED'
p968
sS'PackageName'
p969
S'com.xdf.ucan'
p970
sS'OutBounds'
p971
S'Rect(0, 138 - 720, 1184)'
p972
sS'Action'
p973
S'[ ClassName: android.widget.ListView; Text: []; ContentDescription: null; ItemCount: 13; CurrentItemIndex: -1; IsEnabled: true; IsPassword: false; IsChecked: false; IsFullScreen: false; Scrollable: true; BeforeText: null; FromIndex: 3; ToIndex: 6; ScrollX: -1; ScrollY: -1; MaxScrollX: -1; MaxScrollY: -1; AddedCount: -1; RemovedCount: -1; ParcelableData: null ]'
p974
sS'MovementGranularity'
p975
g6
sa(dp976
S'EventTime'
p977
S'516264266'
p978
sg4
L1449717654797L
sS'recordCount'
p979
g6
sS'EventType'
p980
S'TYPE_WINDOW_CONTENT_CHANGED'
p981
sS'PackageName'
p982
S'com.xdf.ucan'
p983
sS'OutBounds'
p984
S'Rect(0, 398 - 720, 1444)'
p985
sS'Action'
p986
S'[ ClassName: android.widget.ListView; Text: []; ContentDescription: null; ItemCount: 13; CurrentItemIndex: -1; IsEnabled: true; IsPassword: false; IsChecked: false; IsFullScreen: false; Scrollable: true; BeforeText: null; FromIndex: 3; ToIndex: 6; ScrollX: -1; ScrollY: -1; MaxScrollX: -1; MaxScrollY: -1; AddedCount: -1; RemovedCount: -1; ParcelableData: null ]'
p987
sS'MovementGranularity'
p988
g6
sa(dp989
S'EventTime'
p990
S'516264379'
p991
sg4
L1449717654927L
sS'recordCount'
p992
g6
sS'EventType'
p993
S'TYPE_WINDOW_CONTENT_CHANGED'
p994
sS'PackageName'
p995
S'com.xdf.ucan'
p996
sS'OutBounds'
p997
S'Rect(0, 164 - 720, 1210)'
p998
sS'Action'
p999
S'[ ClassName: android.widget.ListView; Text: []; ContentDescription: null; ItemCount: 13; CurrentItemIndex: -1; IsEnabled: true; IsPassword: false; IsChecked: false; IsFullScreen: false; Scrollable: true; BeforeText: null; FromIndex: 3; ToIndex: 6; ScrollX: -1; ScrollY: -1; MaxScrollX: -1; MaxScrollY: -1; AddedCount: -1; RemovedCount: -1; ParcelableData: null ]'
p1000
sS'MovementGranularity'
p1001
g6
sa(dp1002
S'EventTime'
p1003
S'516264546'
p1004
sg4
L1449717655059L
sS'recordCount'
p1005
g6
sS'EventType'
p1006
S'TYPE_WINDOW_CONTENT_CHANGED'
p1007
sS'PackageName'
p1008
S'com.xdf.ucan'
p1009
sS'OutBounds'
p1010
S'Rect(0, 138 - 720, 1184)'
p1011
sS'Action'
p1012
S'[ ClassName: android.widget.ListView; Text: []; ContentDescription: null; ItemCount: 13; CurrentItemIndex: -1; IsEnabled: true; IsPassword: false; IsChecked: false; IsFullScreen: false; Scrollable: true; BeforeText: null; FromIndex: 2; ToIndex: 5; ScrollX: -1; ScrollY: -1; MaxScrollX: -1; MaxScrollY: -1; AddedCount: -1; RemovedCount: -1; ParcelableData: null ]'
p1013
sS'MovementGranularity'
p1014
g6
sa(dp1015
S'EventTime'
p1016
S'516264623'
p1017
sg4
L1449717655190L
sS'recordCount'
p1018
g6
sS'EventType'
p1019
S'TYPE_VIEW_SCROLLED'
p1020
sS'PackageName'
p1021
S'com.xdf.ucan'
p1022
sS'OutBounds'
p1023
S'Rect(0, 138 - 720, 1184)'
p1024
sS'Action'
p1025
S'[ ClassName: android.widget.ListView; Text: []; ContentDescription: null; ItemCount: 13; CurrentItemIndex: -1; IsEnabled: true; IsPassword: false; IsChecked: false; IsFullScreen: false; Scrollable: true; BeforeText: null; FromIndex: 0; ToIndex: 5; ScrollX: -1; ScrollY: -1; MaxScrollX: -1; MaxScrollY: -1; AddedCount: -1; RemovedCount: -1; ParcelableData: null ]'
p1026
sS'MovementGranularity'
p1027
g6
sa(dp1028
S'EventTime'
p1029
S'516264679'
p1030
sg4
L1449717655268L
sS'recordCount'
p1031
g6
sS'EventType'
p1032
S'TYPE_WINDOW_CONTENT_CHANGED'
p1033
sS'PackageName'
p1034
S'com.xdf.ucan'
p1035
sS'Action'
p1036
S'[ ClassName: android.widget.TextView; Text: []; ContentDescription: null; ItemCount: -1; CurrentItemIndex: -1; IsEnabled: true; IsPassword: false; IsChecked: false; IsFullScreen: false; Scrollable: false; BeforeText: null; FromIndex: -1; ToIndex: -1; ScrollX: -1; ScrollY: -1; MaxScrollX: -1; MaxScrollY: -1; AddedCount: -1; RemovedCount: -1; ParcelableData: null ]'
p1037
sS'MovementGranularity'
p1038
g6
sa(dp1039
S'EventTime'
p1040
S'516267582'
p1041
sg4
L1449717657680L
sS'recordCount'
p1042
g157
sS'EventType'
p1043
S'TYPE_VIEW_CLICKED'
p1044
sS'PackageName'
p1045
S'com.xdf.ucan'
p1046
sS'OutBounds'
p1047
S'Rect(20, 580 - 700, 768)'
p1048
sS'Action'
p1049
S'[ ClassName: android.widget.LinearLayout; Text: [\xe3\x80\x90\xe6\x9c\x9f\xe4\xb8\xad\xe5\xa4\x8d\xe4\xb9\xa0\xe8\xa1\xa5\xe6\xbc\x8f\xe3\x80\x91\xe8\xae\xae\xe8\xae\xba\xe6\x96\x87\xe9\xa2\x98\xe9\x9b\x86, \xe5\x88\x9d\xe8\xaf\xad, \xe5\x88\x9d\xe4\xb8\xad\xe8\xaf\xad\xe6\x96\x87, 2015-10-26]; ContentDescription: null; ItemCount: -1; CurrentItemIndex: -1; IsEnabled: true; IsPassword: false; IsChecked: false; IsFullScreen: false; Scrollable: false; BeforeText: null; FromIndex: -1; ToIndex: -1; ScrollX: -1; ScrollY: -1; MaxScrollX: -1; MaxScrollY: -1; AddedCount: -1; RemovedCount: -1; ParcelableData: null ]'
p1050
sS'MovementGranularity'
p1051
g6
sa(dp1052
S'EventTime'
p1053
S'516268123'
p1054
sg4
L1449717658224L
sS'recordCount'
p1055
g6
sS'EventType'
p1056
S'TYPE_WINDOW_STATE_CHANGED'
p1057
sS'PackageName'
p1058
S'com.xdf.ucan'
p1059
sS'OutBounds'
p1060
S'Rect(40, 50 - 680, 1184)'
p1061
sS'Action'
p1062
S'[ ClassName: com.xdf.ucan.views.LoadingDialog; Text: []; ContentDescription: null; ItemCount: -1; CurrentItemIndex: -1; IsEnabled: true; IsPassword: false; IsChecked: false; IsFullScreen: false; Scrollable: false; BeforeText: null; FromIndex: -1; ToIndex: -1; ScrollX: -1; ScrollY: -1; MaxScrollX: -1; MaxScrollY: -1; AddedCount: -1; RemovedCount: -1; ParcelableData: null ]'
p1063
sS'MovementGranularity'
p1064
g6
sa(dp1065
S'EventTime'
p1066
S'516268165'
p1067
sg4
L1449717658264L
sS'recordCount'
p1068
g6
sS'EventType'
p1069
S'TYPE_WINDOW_CONTENT_CHANGED'
p1070
sS'PackageName'
p1071
S'com.xdf.ucan'
p1072
sS'OutBounds'
p1073
S'Rect(40, 50 - 160, 130)'
p1074
sS'Action'
p1075
S'[ ClassName: android.widget.Button; Text: []; ContentDescription: null; ItemCount: -1; CurrentItemIndex: -1; IsEnabled: true; IsPassword: false; IsChecked: false; IsFullScreen: false; Scrollable: false; BeforeText: null; FromIndex: -1; ToIndex: -1; ScrollX: -1; ScrollY: -1; MaxScrollX: -1; MaxScrollY: -1; AddedCount: -1; RemovedCount: -1; ParcelableData: null ]'
p1076
sS'MovementGranularity'
p1077
g6
sa(dp1078
S'EventTime'
p1079
S'516268265'
p1080
sg4
L1449717658365L
sS'recordCount'
p1081
g6
sS'EventType'
p1082
S'TYPE_WINDOW_CONTENT_CHANGED'
p1083
sS'PackageName'
p1084
S'com.xdf.ucan'
p1085
sS'OutBounds'
p1086
S'Rect(40, 50 - 160, 130)'
p1087
sS'Action'
p1088
S'[ ClassName: android.widget.Button; Text: []; ContentDescription: null; ItemCount: -1; CurrentItemIndex: -1; IsEnabled: true; IsPassword: false; IsChecked: false; IsFullScreen: false; Scrollable: false; BeforeText: null; FromIndex: -1; ToIndex: -1; ScrollX: -1; ScrollY: -1; MaxScrollX: -1; MaxScrollY: -1; AddedCount: -1; RemovedCount: -1; ParcelableData: null ]'
p1089
sS'MovementGranularity'
p1090
g6
sa(dp1091
S'EventTime'
p1092
S'516295108'
p1093
sg4
L1449717685207L
sS'recordCount'
p1094
g6
sS'EventType'
p1095
S'TYPE_WINDOW_STATE_CHANGED'
p1096
sS'PackageName'
p1097
S'com.xdf.ucan'
p1098
sS'Action'
p1099
S'[ ClassName: com.xdf.ucan.ui.material.MaterialActivity; Text: [\xe4\xbc\x98\xe6\x92\xad\xe8\xaf\xbe]; ContentDescription: null; ItemCount: -1; CurrentItemIndex: -1; IsEnabled: true; IsPassword: false; IsChecked: false; IsFullScreen: true; Scrollable: false; BeforeText: null; FromIndex: -1; ToIndex: -1; ScrollX: -1; ScrollY: -1; MaxScrollX: -1; MaxScrollY: -1; AddedCount: -1; RemovedCount: -1; ParcelableData: null ]'
p1100
sS'MovementGranularity'
p1101
g6
sa(dp1102
S'EventTime'
p1103
S'516315345'
p1104
sg4
L1449717705478L
sS'recordCount'
p1105
g6
sS'EventType'
p1106
S'TYPE_WINDOW_STATE_CHANGED'
p1107
sS'PackageName'
p1108
S'com.xdf.ucan'
p1109
sS'OutBounds'
p1110
S'Rect(0, 0 - 720, 1184)'
p1111
sS'Action'
p1112
S'[ ClassName: com.xdf.ucan.ui.material.MaterialActivity; Text: [\xe4\xbc\x98\xe6\x92\xad\xe8\xaf\xbe]; ContentDescription: null; ItemCount: -1; CurrentItemIndex: -1; IsEnabled: true; IsPassword: false; IsChecked: false; IsFullScreen: true; Scrollable: false; BeforeText: null; FromIndex: -1; ToIndex: -1; ScrollX: -1; ScrollY: -1; MaxScrollX: -1; MaxScrollY: -1; AddedCount: -1; RemovedCount: -1; ParcelableData: null ]'
p1113
sS'MovementGranularity'
p1114
g6
sa(dp1115
S'EventTime'
p1116
S'516315477'
p1117
sg4
L1449717705579L
sS'recordCount'
p1118
g6
sS'EventType'
p1119
S'TYPE_WINDOW_CONTENT_CHANGED'
p1120
sS'PackageName'
p1121
S'com.xdf.ucan'
p1122
sS'OutBounds'
p1123
S'Rect(607, 1116 - 641, 1157)'
p1124
sS'Action'
p1125
S'[ ClassName: android.widget.TextView; Text: []; ContentDescription: null; ItemCount: -1; CurrentItemIndex: -1; IsEnabled: true; IsPassword: false; IsChecked: false; IsFullScreen: false; Scrollable: false; BeforeText: null; FromIndex: -1; ToIndex: -1; ScrollX: -1; ScrollY: -1; MaxScrollX: -1; MaxScrollY: -1; AddedCount: -1; RemovedCount: -1; ParcelableData: null ]'
p1126
sS'MovementGranularity'
p1127
g6
sa(dp1128
S'EventTime'
p1129
S'516320560'
p1130
sg4
L1449717710715L
sS'recordCount'
p1131
g6
sS'EventType'
p1132
S'TYPE_WINDOW_STATE_CHANGED'
p1133
sS'PackageName'
p1134
S'com.xdf.ucan'
p1135
sS'OutBounds'
p1136
S'Rect(0, 0 - 720, 1184)'
p1137
sS'Action'
p1138
S'[ ClassName: com.xdf.ucan.ui.material.MaterialListActivity; Text: [\xe4\xbc\x98\xe6\x92\xad\xe8\xaf\xbe]; ContentDescription: null; ItemCount: -1; CurrentItemIndex: -1; IsEnabled: true; IsPassword: false; IsChecked: false; IsFullScreen: true; Scrollable: false; BeforeText: null; FromIndex: -1; ToIndex: -1; ScrollX: -1; ScrollY: -1; MaxScrollX: -1; MaxScrollY: -1; AddedCount: -1; RemovedCount: -1; ParcelableData: null ]'
p1139
sS'MovementGranularity'
p1140
g6
sa(dp1141
S'EventTime'
p1142
S'516321278'
p1143
sg4
L1449717711392L
sS'recordCount'
p1144
g6
sS'EventType'
p1145
S'TYPE_WINDOW_CONTENT_CHANGED'
p1146
sS'PackageName'
p1147
S'com.xdf.ucan'
p1148
sS'OutBounds'
p1149
S'Rect(332, 171 - 481, 214)'
p1150
sS'Action'
p1151
S'[ ClassName: android.widget.TextView; Text: []; ContentDescription: null; ItemCount: -1; CurrentItemIndex: -1; IsEnabled: true; IsPassword: false; IsChecked: false; IsFullScreen: false; Scrollable: false; BeforeText: null; FromIndex: -1; ToIndex: -1; ScrollX: -1; ScrollY: -1; MaxScrollX: -1; MaxScrollY: -1; AddedCount: -1; RemovedCount: -1; ParcelableData: null ]'
p1152
sS'MovementGranularity'
p1153
g6
sa(dp1154
S'EventTime'
p1155
S'516324640'
p1156
sg4
L1449717714751L
sS'recordCount'
p1157
g6
sS'EventType'
p1158
S'TYPE_WINDOW_STATE_CHANGED'
p1159
sS'PackageName'
p1160
S'com.xdf.ucan'
p1161
sS'OutBounds'
p1162
S'Rect(0, 0 - 720, 1184)'
p1163
sS'Action'
p1164
S'[ ClassName: com.xdf.ucan.MainActivity; Text: [\xe4\xbc\x98\xe6\x92\xad\xe8\xaf\xbe]; ContentDescription: null; ItemCount: -1; CurrentItemIndex: -1; IsEnabled: true; IsPassword: false; IsChecked: false; IsFullScreen: true; Scrollable: false; BeforeText: null; FromIndex: -1; ToIndex: -1; ScrollX: -1; ScrollY: -1; MaxScrollX: -1; MaxScrollY: -1; AddedCount: -1; RemovedCount: -1; ParcelableData: null ]'
p1165
sS'MovementGranularity'
p1166
g6
sa(dp1167
S'EventTime'
p1168
S'516324672'
p1169
sg4
L1449717714777L
sS'recordCount'
p1170
g6
sS'EventType'
p1171
S'TYPE_WINDOW_CONTENT_CHANGED'
p1172
sS'PackageName'
p1173
S'com.xdf.ucan'
p1174
sS'OutBounds'
p1175
S'Rect(0, 266 - 720, 394)'
p1176
sS'Action'
p1177
S'[ ClassName: android.widget.RelativeLayout; Text: []; ContentDescription: null; ItemCount: -1; CurrentItemIndex: -1; IsEnabled: true; IsPassword: false; IsChecked: false; IsFullScreen: false; Scrollable: false; BeforeText: null; FromIndex: -1; ToIndex: -1; ScrollX: -1; ScrollY: -1; MaxScrollX: -1; MaxScrollY: -1; AddedCount: -1; RemovedCount: -1; ParcelableData: null ]'
p1178
sS'MovementGranularity'
p1179
g6
sa(dp1180
S'EventTime'
p1181
S'516328572'
p1182
sg4
L1449717718669L
sS'recordCount'
p1183
g6
sS'EventType'
p1184
S'TYPE_VIEW_CLICKED'
p1185
sS'PackageName'
p1186
S'com.xdf.ucan'
p1187
sS'OutBounds'
p1188
S'Rect(0, 266 - 720, 394)'
p1189
sS'Action'
p1190
S'[ ClassName: android.widget.RelativeLayout; Text: [\xe8\xb5\x84\xe6\x96\x99, 1\xe5\xa4\xa9\xe5\x89\x8d, \xe3\x80\x90\xe5\x90\x8d\xe8\x91\x97\xe7\xa7\xaf\xe7\xb4\xaf\xe3\x80\x91\xe5\x88\x9d\xe4\xb8\xad\xe6\x9c\x9f\xe4\xb8\xad\xe6\x9c\x9f\xe6\x9c\xab\xe5\x90\x8d\xe8\x91\x97\xe7\xbb\x83\xe4\xb9\xa0\xe9\xa2\x98\xe9\x9b\x86\xef\xbc\x88\xe5\x90\xab\xe7\xad\x94\xe6\xa1\x88\xef\xbc\x89]; ContentDescription: null; ItemCount: -1; CurrentItemIndex: -1; IsEnabled: true; IsPassword: false; IsChecked: false; IsFullScreen: false; Scrollable: false; BeforeText: null; FromIndex: -1; ToIndex: -1; ScrollX: -1; ScrollY: -1; MaxScrollX: -1; MaxScrollY: -1; AddedCount: -1; RemovedCount: -1; ParcelableData: null ]'
p1191
sS'MovementGranularity'
p1192
g6
sa(dp1193
S'EventTime'
p1194
S'516328823'
p1195
sg4
L1449717718971L
sS'recordCount'
p1196
g6
sS'EventType'
p1197
S'TYPE_WINDOW_STATE_CHANGED'
p1198
sS'PackageName'
p1199
S'com.xdf.ucan'
p1200
sS'OutBounds'
p1201
S'Rect(40, 50 - 680, 1184)'
p1202
sS'Action'
p1203
S'[ ClassName: com.xdf.ucan.views.LoadingDialog; Text: []; ContentDescription: null; ItemCount: -1; CurrentItemIndex: -1; IsEnabled: true; IsPassword: false; IsChecked: false; IsFullScreen: false; Scrollable: false; BeforeText: null; FromIndex: -1; ToIndex: -1; ScrollX: -1; ScrollY: -1; MaxScrollX: -1; MaxScrollY: -1; AddedCount: -1; RemovedCount: -1; ParcelableData: null ]'
p1204
sS'MovementGranularity'
p1205
g6
sa(dp1206
S'EventTime'
p1207
S'516328902'
p1208
sg4
L1449717719001L
sS'recordCount'
p1209
g6
sS'EventType'
p1210
S'TYPE_WINDOW_CONTENT_CHANGED'
p1211
sS'PackageName'
p1212
S'com.xdf.ucan'
p1213
sS'OutBounds'
p1214
S'Rect(40, 50 - 160, 130)'
p1215
sS'Action'
p1216
S'[ ClassName: android.widget.Button; Text: []; ContentDescription: null; ItemCount: -1; CurrentItemIndex: -1; IsEnabled: true; IsPassword: false; IsChecked: false; IsFullScreen: false; Scrollable: false; BeforeText: null; FromIndex: -1; ToIndex: -1; ScrollX: -1; ScrollY: -1; MaxScrollX: -1; MaxScrollY: -1; AddedCount: -1; RemovedCount: -1; ParcelableData: null ]'
p1217
sS'MovementGranularity'
p1218
g6
sa(dp1219
S'EventTime'
p1220
S'516329002'
p1221
sg4
L1449717719106L
sS'recordCount'
p1222
g6
sS'EventType'
p1223
S'TYPE_WINDOW_CONTENT_CHANGED'
p1224
sS'PackageName'
p1225
S'com.xdf.ucan'
p1226
sS'OutBounds'
p1227
S'Rect(40, 50 - 160, 130)'
p1228
sS'Action'
p1229
S'[ ClassName: android.widget.Button; Text: []; ContentDescription: null; ItemCount: -1; CurrentItemIndex: -1; IsEnabled: true; IsPassword: false; IsChecked: false; IsFullScreen: false; Scrollable: false; BeforeText: null; FromIndex: -1; ToIndex: -1; ScrollX: -1; ScrollY: -1; MaxScrollX: -1; MaxScrollY: -1; AddedCount: -1; RemovedCount: -1; ParcelableData: null ]'
p1230
sS'MovementGranularity'
p1231
g6
sa(dp1232
S'EventTime'
p1233
S'516344581'
p1234
sg4
L1449717734679L
sS'recordCount'
p1235
g6
sS'EventType'
p1236
S'TYPE_NOTIFICATION_STATE_CHANGED'
p1237
sS'PackageName'
p1238
S'com.xdf.ucan'
p1239
sS'Action'
p1240
S'[ ClassName: android.widget.Toast$TN; Text: [\xe7\xbd\x91\xe7\xbb\x9c\xe4\xb8\x8d\xe7\xbb\x99\xe5\x8a\x9b]; ContentDescription: null; ItemCount: -1; CurrentItemIndex: -1; IsEnabled: false; IsPassword: false; IsChecked: false; IsFullScreen: false; Scrollable: false; BeforeText: null; FromIndex: -1; ToIndex: -1; ScrollX: -1; ScrollY: -1; MaxScrollX: -1; MaxScrollY: -1; AddedCount: -1; RemovedCount: -1; ParcelableData: null ]'
p1241
sS'MovementGranularity'
p1242
g6
sa(dp1243
S'EventTime'
p1244
S'516347373'
p1245
sg4
L1449717737932L
sS'recordCount'
p1246
g6
sS'EventType'
p1247
S'TYPE_WINDOW_STATE_CHANGED'
p1248
sS'PackageName'
p1249
S'com.xdf.ucan'
p1250
sS'OutBounds'
p1251
S'Rect(0, 0 - 720, 1184)'
p1252
sS'Action'
p1253
S'[ ClassName: com.xdf.ucan.ui.material.MaterialListActivity; Text: [\xe4\xbc\x98\xe6\x92\xad\xe8\xaf\xbe]; ContentDescription: null; ItemCount: -1; CurrentItemIndex: -1; IsEnabled: true; IsPassword: false; IsChecked: false; IsFullScreen: true; Scrollable: false; BeforeText: null; FromIndex: -1; ToIndex: -1; ScrollX: -1; ScrollY: -1; MaxScrollX: -1; MaxScrollY: -1; AddedCount: -1; RemovedCount: -1; ParcelableData: null ]'
p1254
sS'MovementGranularity'
p1255
g6
sa(dp1256
S'EventTime'
p1257
S'516347394'
p1258
sg4
L1449717738128L
sS'recordCount'
p1259
g6
sS'EventType'
p1260
S'TYPE_WINDOW_CONTENT_CHANGED'
p1261
sS'PackageName'
p1262
S'com.xdf.ucan'
p1263
sS'OutBounds'
p1264
S'Rect(0, 138 - 720, 1184)'
p1265
sS'Action'
p1266
S'[ ClassName: android.widget.ListView; Text: []; ContentDescription: null; ItemCount: 13; CurrentItemIndex: -1; IsEnabled: true; IsPassword: false; IsChecked: false; IsFullScreen: false; Scrollable: true; BeforeText: null; FromIndex: 0; ToIndex: 0; ScrollX: -1; ScrollY: -1; MaxScrollX: -1; MaxScrollY: -1; AddedCount: -1; RemovedCount: -1; ParcelableData: null ]'
p1267
sS'MovementGranularity'
p1268
g6
sa(dp1269
S'EventTime'
p1270
S'516347940'
p1271
sg4
L1449717738237L
sS'recordCount'
p1272
g6
sS'EventType'
p1273
S'TYPE_WINDOW_CONTENT_CHANGED'
p1274
sS'PackageName'
p1275
S'com.xdf.ucan'
p1276
sS'OutBounds'
p1277
S'Rect(0, 138 - 720, 1184)'
p1278
sS'Action'
p1279
S'[ ClassName: android.widget.ListView; Text: []; ContentDescription: null; ItemCount: 13; CurrentItemIndex: -1; IsEnabled: true; IsPassword: false; IsChecked: false; IsFullScreen: false; Scrollable: true; BeforeText: null; FromIndex: 0; ToIndex: 5; ScrollX: -1; ScrollY: -1; MaxScrollX: -1; MaxScrollY: -1; AddedCount: -1; RemovedCount: -1; ParcelableData: null ]'
p1280
sS'MovementGranularity'
p1281
g6
sa(dp1282
S'EventTime'
p1283
S'516348017'
p1284
sg4
L1449717738351L
sS'recordCount'
p1285
g6
sS'EventType'
p1286
S'TYPE_VIEW_SCROLLED'
p1287
sS'PackageName'
p1288
S'com.xdf.ucan'
p1289
sS'OutBounds'
p1290
S'Rect(0, 138 - 720, 1184)'
p1291
sS'Action'
p1292
S'[ ClassName: android.widget.ListView; Text: []; ContentDescription: null; ItemCount: 13; CurrentItemIndex: -1; IsEnabled: true; IsPassword: false; IsChecked: false; IsFullScreen: false; Scrollable: true; BeforeText: null; FromIndex: 0; ToIndex: 5; ScrollX: -1; ScrollY: -1; MaxScrollX: -1; MaxScrollY: -1; AddedCount: -1; RemovedCount: -1; ParcelableData: null ]'
p1293
sS'MovementGranularity'
p1294
g6
sa(dp1295
S'EventTime'
p1296
S'516348082'
p1297
sg4
L1449717738427L
sS'recordCount'
p1298
g157
sS'EventType'
p1299
S'TYPE_WINDOW_CONTENT_CHANGED'
p1300
sS'PackageName'
p1301
S'com.xdf.ucan'
p1302
sS'OutBounds'
p1303
S'Rect(194, 488 - 254, 529)'
p1304
sS'Action'
p1305
S'[ ClassName: android.widget.TextView; Text: []; ContentDescription: null; ItemCount: -1; CurrentItemIndex: -1; IsEnabled: true; IsPassword: false; IsChecked: false; IsFullScreen: false; Scrollable: false; BeforeText: null; FromIndex: -1; ToIndex: -1; ScrollX: -1; ScrollY: -1; MaxScrollX: -1; MaxScrollY: -1; AddedCount: -1; RemovedCount: -1; ParcelableData: null ]'
p1306
sS'MovementGranularity'
p1307
g6
sa(dp1308
S'EventTime'
p1309
S'516348415'
p1310
sg4
L1449717738535L
sS'recordCount'
p1311
g157
sS'EventType'
p1312
S'TYPE_WINDOW_CONTENT_CHANGED'
p1313
sS'PackageName'
p1314
S'com.xdf.ucan'
p1315
sS'OutBounds'
p1316
S'Rect(194, 488 - 254, 529)'
p1317
sS'Action'
p1318
S'[ ClassName: android.widget.TextView; Text: []; ContentDescription: null; ItemCount: -1; CurrentItemIndex: -1; IsEnabled: true; IsPassword: false; IsChecked: false; IsFullScreen: false; Scrollable: false; BeforeText: null; FromIndex: -1; ToIndex: -1; ScrollX: -1; ScrollY: -1; MaxScrollX: -1; MaxScrollY: -1; AddedCount: -1; RemovedCount: -1; ParcelableData: null ]'
p1319
sS'MovementGranularity'
p1320
g6
sa(dp1321
S'EventTime'
p1322
S'516350434'
p1323
sg4
L1449717740531L
sS'recordCount'
p1324
g157
sS'EventType'
p1325
S'TYPE_VIEW_CLICKED'
p1326
sS'PackageName'
p1327
S'com.xdf.ucan'
p1328
sS'OutBounds'
p1329
S'Rect(21, 769 - 359, 869)'
p1330
sS'Action'
p1331
S'[ ClassName: android.widget.LinearLayout; Text: [\xe8\xaf\x84\xe8\xae\xba]; ContentDescription: null; ItemCount: -1; CurrentItemIndex: -1; IsEnabled: true; IsPassword: false; IsChecked: false; IsFullScreen: false; Scrollable: false; BeforeText: null; FromIndex: -1; ToIndex: -1; ScrollX: -1; ScrollY: -1; MaxScrollX: -1; MaxScrollY: -1; AddedCount: -1; RemovedCount: -1; ParcelableData: null ]'
p1332
sS'MovementGranularity'
p1333
g6
sa(dp1334
S'EventTime'
p1335
S'516350858'
p1336
sg4
L1449717741139L
sS'recordCount'
p1337
g6
sS'EventType'
p1338
S'TYPE_WINDOW_STATE_CHANGED'
p1339
sS'PackageName'
p1340
S'com.xdf.ucan'
p1341
sS'Action'
p1342
S'[ ClassName: com.xdf.ucan.views.LoadingDialog; Text: []; ContentDescription: null; ItemCount: -1; CurrentItemIndex: -1; IsEnabled: true; IsPassword: false; IsChecked: false; IsFullScreen: false; Scrollable: false; BeforeText: null; FromIndex: -1; ToIndex: -1; ScrollX: -1; ScrollY: -1; MaxScrollX: -1; MaxScrollY: -1; AddedCount: -1; RemovedCount: -1; ParcelableData: null ]'
p1343
sS'MovementGranularity'
p1344
g6
sa(dp1345
S'EventTime'
p1346
S'516351151'
p1347
sg4
L1449717741492L
sS'recordCount'
p1348
g6
sS'EventType'
p1349
S'TYPE_WINDOW_STATE_CHANGED'
p1350
sS'PackageName'
p1351
S'com.xdf.ucan'
p1352
sS'OutBounds'
p1353
S'Rect(0, 0 - 720, 1184)'
p1354
sS'Action'
p1355
S'[ ClassName: com.xdf.ucan.ui.video.CommentListActivity; Text: [\xe4\xbc\x98\xe6\x92\xad\xe8\xaf\xbe]; ContentDescription: null; ItemCount: -1; CurrentItemIndex: -1; IsEnabled: true; IsPassword: false; IsChecked: false; IsFullScreen: true; Scrollable: false; BeforeText: null; FromIndex: -1; ToIndex: -1; ScrollX: -1; ScrollY: -1; MaxScrollX: -1; MaxScrollY: -1; AddedCount: -1; RemovedCount: -1; ParcelableData: null ]'
p1356
sS'MovementGranularity'
p1357
g6
sa(dp1358
S'EventTime'
p1359
S'516351222'
p1360
sg4
L1449717741727L
sS'recordCount'
p1361
g6
sS'EventType'
p1362
S'TYPE_VIEW_SCROLLED'
p1363
sS'PackageName'
p1364
S'com.xdf.ucan'
p1365
sS'OutBounds'
p1366
S'Rect(0, 138 - 720, 505)'
p1367
sS'Action'
p1368
S'[ ClassName: android.widget.ListView; Text: []; ContentDescription: null; ItemCount: 3; CurrentItemIndex: -1; IsEnabled: true; IsPassword: false; IsChecked: false; IsFullScreen: false; Scrollable: false; BeforeText: null; FromIndex: 0; ToIndex: 2; ScrollX: -1; ScrollY: -1; MaxScrollX: -1; MaxScrollY: -1; AddedCount: -1; RemovedCount: -1; ParcelableData: null ]'
p1369
sS'MovementGranularity'
p1370
g6
sa(dp1371
S'EventTime'
p1372
S'516351532'
p1373
sg4
L1449717741803L
sS'recordCount'
p1374
g6
sS'EventType'
p1375
S'TYPE_WINDOW_CONTENT_CHANGED'
p1376
sS'PackageName'
p1377
S'com.xdf.ucan'
p1378
sS'OutBounds'
p1379
S'Rect(0, 138 - 720, 505)'
p1380
sS'Action'
p1381
S'[ ClassName: android.widget.ListView; Text: []; ContentDescription: null; ItemCount: 3; CurrentItemIndex: -1; IsEnabled: true; IsPassword: false; IsChecked: false; IsFullScreen: false; Scrollable: false; BeforeText: null; FromIndex: 0; ToIndex: 2; ScrollX: -1; ScrollY: -1; MaxScrollX: -1; MaxScrollY: -1; AddedCount: -1; RemovedCount: -1; ParcelableData: null ]'
p1382
sS'MovementGranularity'
p1383
g6
sa(dp1384
S'EventTime'
p1385
S'516351693'
p1386
sg4
L1449717741869L
sS'recordCount'
p1387
g157
sS'EventType'
p1388
S'TYPE_WINDOW_CONTENT_CHANGED'
p1389
sS'PackageName'
p1390
S'com.xdf.ucan'
p1391
sS'OutBounds'
p1392
S'Rect(640, 175 - 720, 233)'
p1393
sS'Action'
p1394
S'[ ClassName: android.widget.TextView; Text: []; ContentDescription: null; ItemCount: -1; CurrentItemIndex: -1; IsEnabled: true; IsPassword: false; IsChecked: false; IsFullScreen: false; Scrollable: false; BeforeText: null; FromIndex: -1; ToIndex: -1; ScrollX: -1; ScrollY: -1; MaxScrollX: -1; MaxScrollY: -1; AddedCount: -1; RemovedCount: -1; ParcelableData: null ]'
p1395
sS'MovementGranularity'
p1396
g6
sa(dp1397
S'EventTime'
p1398
S'516362374'
p1399
sg4
L1449717752506L
sS'recordCount'
p1400
g6
sS'EventType'
p1401
S'TYPE_WINDOW_CONTENT_CHANGED'
p1402
sS'PackageName'
p1403
S'com.xdf.ucan'
p1404
sS'OutBounds'
p1405
S'Rect(0, 138 - 720, 1076)'
p1406
sS'Action'
p1407
S'[ ClassName: android.widget.ListView; Text: []; ContentDescription: null; ItemCount: 3; CurrentItemIndex: -1; IsEnabled: true; IsPassword: false; IsChecked: false; IsFullScreen: false; Scrollable: false; BeforeText: null; FromIndex: 0; ToIndex: 2; ScrollX: -1; ScrollY: -1; MaxScrollX: -1; MaxScrollY: -1; AddedCount: -1; RemovedCount: -1; ParcelableData: null ]'
p1408
sS'MovementGranularity'
p1409
g6
sa(dp1410
S'EventTime'
p1411
S'516363319'
p1412
sg4
L1449717753482L
sS'recordCount'
p1413
g6
sS'EventType'
p1414
S'TYPE_WINDOW_STATE_CHANGED'
p1415
sS'PackageName'
p1416
S'com.xdf.ucan'
p1417
sS'OutBounds'
p1418
S'Rect(0, 0 - 720, 1184)'
p1419
sS'Action'
p1420
S'[ ClassName: com.xdf.ucan.ui.material.MaterialListActivity; Text: [\xe4\xbc\x98\xe6\x92\xad\xe8\xaf\xbe]; ContentDescription: null; ItemCount: -1; CurrentItemIndex: -1; IsEnabled: true; IsPassword: false; IsChecked: false; IsFullScreen: true; Scrollable: false; BeforeText: null; FromIndex: -1; ToIndex: -1; ScrollX: -1; ScrollY: -1; MaxScrollX: -1; MaxScrollY: -1; AddedCount: -1; RemovedCount: -1; ParcelableData: null ]'
p1421
sS'MovementGranularity'
p1422
g6
sa(dp1423
S'EventTime'
p1424
S'516367885'
p1425
sg4
L1449717757983L
sS'recordCount'
p1426
g157
sS'EventType'
p1427
S'TYPE_VIEW_CLICKED'
p1428
sS'PackageName'
p1429
S'com.xdf.ucan'
p1430
sS'OutBounds'
p1431
S'Rect(360, 769 - 699, 870)'
p1432
sS'Action'
p1433
S'[ ClassName: android.widget.LinearLayout; Text: [24]; ContentDescription: null; ItemCount: -1; CurrentItemIndex: -1; IsEnabled: true; IsPassword: false; IsChecked: false; IsFullScreen: false; Scrollable: false; BeforeText: null; FromIndex: -1; ToIndex: -1; ScrollX: -1; ScrollY: -1; MaxScrollX: -1; MaxScrollY: -1; AddedCount: -1; RemovedCount: -1; ParcelableData: null ]'
p1434
sS'MovementGranularity'
p1435
g6
sa(dp1436
S'EventTime'
p1437
S'516367951'
p1438
sg4
L1449717758066L
sS'recordCount'
p1439
g157
sS'EventType'
p1440
S'TYPE_WINDOW_CONTENT_CHANGED'
p1441
sS'PackageName'
p1442
S'com.xdf.ucan'
p1443
sS'OutBounds'
p1444
S'Rect(547, 799 - 581, 840)'
p1445
sS'Action'
p1446
S'[ ClassName: android.widget.TextView; Text: []; ContentDescription: null; ItemCount: -1; CurrentItemIndex: -1; IsEnabled: true; IsPassword: false; IsChecked: false; IsFullScreen: false; Scrollable: false; BeforeText: null; FromIndex: -1; ToIndex: -1; ScrollX: -1; ScrollY: -1; MaxScrollX: -1; MaxScrollY: -1; AddedCount: -1; RemovedCount: -1; ParcelableData: null ]'
p1447
sS'MovementGranularity'
p1448
g6
sa(dp1449
S'EventTime'
p1450
S'516372145'
p1451
sg4
L1449717762243L
sS'recordCount'
p1452
g157
sS'EventType'
p1453
S'TYPE_VIEW_CLICKED'
p1454
sS'PackageName'
p1455
S'com.xdf.ucan'
p1456
sS'OutBounds'
p1457
S'Rect(360, 769 - 699, 870)'
p1458
sS'Action'
p1459
S'[ ClassName: android.widget.LinearLayout; Text: [25]; ContentDescription: null; ItemCount: -1; CurrentItemIndex: -1; IsEnabled: true; IsPassword: false; IsChecked: false; IsFullScreen: false; Scrollable: false; BeforeText: null; FromIndex: -1; ToIndex: -1; ScrollX: -1; ScrollY: -1; MaxScrollX: -1; MaxScrollY: -1; AddedCount: -1; RemovedCount: -1; ParcelableData: null ]'
p1460
sS'MovementGranularity'
p1461
g6
sa(dp1462
S'EventTime'
p1463
S'516372221'
p1464
sg4
L1449717762334L
sS'recordCount'
p1465
g157
sS'EventType'
p1466
S'TYPE_WINDOW_CONTENT_CHANGED'
p1467
sS'PackageName'
p1468
S'com.xdf.ucan'
p1469
sS'OutBounds'
p1470
S'Rect(547, 799 - 581, 840)'
p1471
sS'Action'
p1472
S'[ ClassName: android.widget.TextView; Text: []; ContentDescription: null; ItemCount: -1; CurrentItemIndex: -1; IsEnabled: true; IsPassword: false; IsChecked: false; IsFullScreen: false; Scrollable: false; BeforeText: null; FromIndex: -1; ToIndex: -1; ScrollX: -1; ScrollY: -1; MaxScrollX: -1; MaxScrollY: -1; AddedCount: -1; RemovedCount: -1; ParcelableData: null ]'
p1473
sS'MovementGranularity'
p1474
g6
sa(dp1475
S'EventTime'
p1476
S'516384018'
p1477
sg4
L1449717774130L
sS'recordCount'
p1478
g6
sS'EventType'
p1479
S'TYPE_WINDOW_CONTENT_CHANGED'
p1480
sS'PackageName'
p1481
S'com.xdf.ucan'
p1482
sS'OutBounds'
p1483
S'Rect(332, 142 - 481, 185)'
p1484
sS'Action'
p1485
S'[ ClassName: android.widget.TextView; Text: []; ContentDescription: null; ItemCount: -1; CurrentItemIndex: -1; IsEnabled: true; IsPassword: false; IsChecked: false; IsFullScreen: false; Scrollable: false; BeforeText: null; FromIndex: -1; ToIndex: -1; ScrollX: -1; ScrollY: -1; MaxScrollX: -1; MaxScrollY: -1; AddedCount: -1; RemovedCount: -1; ParcelableData: null ]'
p1486
sS'MovementGranularity'
p1487
g6
sa(dp1488
S'EventTime'
p1489
S'516384121'
p1490
sg4
L1449717774220L
sS'recordCount'
p1491
g6
sS'EventType'
p1492
S'TYPE_WINDOW_CONTENT_CHANGED'
p1493
sS'PackageName'
p1494
S'com.xdf.ucan'
p1495
sS'OutBounds'
p1496
S'Rect(332, 151 - 481, 194)'
p1497
sS'Action'
p1498
S'[ ClassName: android.widget.TextView; Text: []; ContentDescription: null; ItemCount: -1; CurrentItemIndex: -1; IsEnabled: true; IsPassword: false; IsChecked: false; IsFullScreen: false; Scrollable: false; BeforeText: null; FromIndex: -1; ToIndex: -1; ScrollX: -1; ScrollY: -1; MaxScrollX: -1; MaxScrollY: -1; AddedCount: -1; RemovedCount: -1; ParcelableData: null ]'
p1499
sS'MovementGranularity'
p1500
g6
sa(dp1501
S'EventTime'
p1502
S'516384282'
p1503
sg4
L1449717774382L
sS'recordCount'
p1504
g6
sS'EventType'
p1505
S'TYPE_WINDOW_CONTENT_CHANGED'
p1506
sS'PackageName'
p1507
S'com.xdf.ucan'
p1508
sS'OutBounds'
p1509
S'Rect(332, 95 - 481, 138)'
p1510
sS'Action'
p1511
S'[ ClassName: android.widget.TextView; Text: []; ContentDescription: null; ItemCount: -1; CurrentItemIndex: -1; IsEnabled: true; IsPassword: false; IsChecked: false; IsFullScreen: false; Scrollable: false; BeforeText: null; FromIndex: -1; ToIndex: -1; ScrollX: -1; ScrollY: -1; MaxScrollX: -1; MaxScrollY: -1; AddedCount: -1; RemovedCount: -1; ParcelableData: null ]'
p1512
sS'MovementGranularity'
p1513
g6
sa(dp1514
S'EventTime'
p1515
S'516385053'
p1516
sg4
L1449717775154L
sS'recordCount'
p1517
g157
sS'EventType'
p1518
S'TYPE_VIEW_CLICKED'
p1519
sS'PackageName'
p1520
S'com.xdf.ucan'
p1521
sS'OutBounds'
p1522
S'Rect(547, 604 - 623, 686)'
p1523
sS'Action'
p1524
S'[ ClassName: android.widget.LinearLayout; Text: []; ContentDescription: null; ItemCount: -1; CurrentItemIndex: -1; IsEnabled: true; IsPassword: false; IsChecked: false; IsFullScreen: false; Scrollable: false; BeforeText: null; FromIndex: -1; ToIndex: -1; ScrollX: -1; ScrollY: -1; MaxScrollX: -1; MaxScrollY: -1; AddedCount: -1; RemovedCount: -1; ParcelableData: null ]'
p1525
sS'MovementGranularity'
p1526
g6
sa(dp1527
S'EventTime'
p1528
S'516388814'
p1529
sg4
L1449717778913L
sS'recordCount'
p1530
g157
sS'EventType'
p1531
S'TYPE_VIEW_CLICKED'
p1532
sS'PackageName'
p1533
S'com.xdf.ucan'
p1534
sS'OutBounds'
p1535
S'Rect(547, 580 - 623, 662)'
p1536
sS'Action'
p1537
S'[ ClassName: android.widget.LinearLayout; Text: []; ContentDescription: null; ItemCount: -1; CurrentItemIndex: -1; IsEnabled: true; IsPassword: false; IsChecked: false; IsFullScreen: false; Scrollable: false; BeforeText: null; FromIndex: -1; ToIndex: -1; ScrollX: -1; ScrollY: -1; MaxScrollX: -1; MaxScrollY: -1; AddedCount: -1; RemovedCount: -1; ParcelableData: null ]'
p1538
sS'MovementGranularity'
p1539
g6
sa(dp1540
S'EventTime'
p1541
S'516395073'
p1542
sg4
L1449717785170L
sS'recordCount'
p1543
g157
sS'EventType'
p1544
S'TYPE_VIEW_CLICKED'
p1545
sS'PackageName'
p1546
S'com.xdf.ucan'
p1547
sS'OutBounds'
p1548
S'Rect(20, 580 - 700, 768)'
p1549
sS'Action'
p1550
S'[ ClassName: android.widget.LinearLayout; Text: [\xe3\x80\x90\xe6\x9c\x9f\xe4\xb8\xad\xe5\xa4\x8d\xe4\xb9\xa0\xe8\xa1\xa5\xe6\xbc\x8f\xe3\x80\x91\xe8\xae\xae\xe8\xae\xba\xe6\x96\x87\xe9\xa2\x98\xe9\x9b\x86, \xe5\x88\x9d\xe8\xaf\xad, \xe5\x88\x9d\xe4\xb8\xad\xe8\xaf\xad\xe6\x96\x87, 2015-10-26]; ContentDescription: null; ItemCount: -1; CurrentItemIndex: -1; IsEnabled: true; IsPassword: false; IsChecked: false; IsFullScreen: false; Scrollable: false; BeforeText: null; FromIndex: -1; ToIndex: -1; ScrollX: -1; ScrollY: -1; MaxScrollX: -1; MaxScrollY: -1; AddedCount: -1; RemovedCount: -1; ParcelableData: null ]'
p1551
sS'MovementGranularity'
p1552
g6
sa(dp1553
S'EventTime'
p1554
S'516398899'
p1555
sg4
L1449717789012L
sS'recordCount'
p1556
g6
sS'EventType'
p1557
S'TYPE_WINDOW_STATE_CHANGED'
p1558
sS'PackageName'
p1559
S'com.xdf.ucan'
p1560
sS'OutBounds'
p1561
S'Rect(0, 0 - 720, 1184)'
p1562
sS'Action'
p1563
S'[ ClassName: com.xdf.ucan.ui.material.MaterialActivity; Text: [\xe4\xbc\x98\xe6\x92\xad\xe8\xaf\xbe]; ContentDescription: null; ItemCount: -1; CurrentItemIndex: -1; IsEnabled: true; IsPassword: false; IsChecked: false; IsFullScreen: true; Scrollable: false; BeforeText: null; FromIndex: -1; ToIndex: -1; ScrollX: -1; ScrollY: -1; MaxScrollX: -1; MaxScrollY: -1; AddedCount: -1; RemovedCount: -1; ParcelableData: null ]'
p1564
sS'MovementGranularity'
p1565
g6
sa(dp1566
S'EventTime'
p1567
S'516399014'
p1568
sg4
L1449717789114L
sS'recordCount'
p1569
g6
sS'EventType'
p1570
S'TYPE_WINDOW_CONTENT_CHANGED'
p1571
sS'PackageName'
p1572
S'com.xdf.ucan'
p1573
sS'OutBounds'
p1574
S'Rect(114, 1116 - 174, 1157)'
p1575
sS'Action'
p1576
S'[ ClassName: android.widget.TextView; Text: []; ContentDescription: null; ItemCount: -1; CurrentItemIndex: -1; IsEnabled: true; IsPassword: false; IsChecked: false; IsFullScreen: false; Scrollable: false; BeforeText: null; FromIndex: -1; ToIndex: -1; ScrollX: -1; ScrollY: -1; MaxScrollX: -1; MaxScrollY: -1; AddedCount: -1; RemovedCount: -1; ParcelableData: null ]'
p1577
sS'MovementGranularity'
p1578
g6
sa(dp1579
S'EventTime'
p1580
S'516399998'
p1581
sg4
L1449717790096L
sS'recordCount'
p1582
g6
sS'EventType'
p1583
S'TYPE_VIEW_CLICKED'
p1584
sS'PackageName'
p1585
S'com.xdf.ucan'
p1586
sS'OutBounds'
p1587
S'Rect(658, 50 - 700, 138)'
p1588
sS'Action'
p1589
S'[ ClassName: android.widget.TextView; Text: []; ContentDescription: null; ItemCount: -1; CurrentItemIndex: -1; IsEnabled: true; IsPassword: false; IsChecked: false; IsFullScreen: false; Scrollable: false; BeforeText: null; FromIndex: -1; ToIndex: -1; ScrollX: -1; ScrollY: -1; MaxScrollX: -1; MaxScrollY: -1; AddedCount: -1; RemovedCount: -1; ParcelableData: null ]'
p1590
sS'MovementGranularity'
p1591
g6
sa(dp1592
S'EventTime'
p1593
S'516400205'
p1594
sg4
L1449717790317L
sS'recordCount'
p1595
g6
sS'EventType'
p1596
S'TYPE_WINDOW_STATE_CHANGED'
p1597
sS'PackageName'
p1598
S'com.xdf.ucan'
p1599
sS'OutBounds'
p1600
S'Rect(0, 0 - 720, 1184)'
p1601
sS'Action'
p1602
S'[ ClassName: com.mob.tools.MobUIShell; Text: [\xe4\xbc\x98\xe6\x92\xad\xe8\xaf\xbe]; ContentDescription: null; ItemCount: -1; CurrentItemIndex: -1; IsEnabled: true; IsPassword: false; IsChecked: false; IsFullScreen: true; Scrollable: false; BeforeText: null; FromIndex: -1; ToIndex: -1; ScrollX: -1; ScrollY: -1; MaxScrollX: -1; MaxScrollY: -1; AddedCount: -1; RemovedCount: -1; ParcelableData: null ]'
p1603
sS'MovementGranularity'
p1604
g6
sa(dp1605
S'EventTime'
p1606
S'516400428'
p1607
sg4
L1449717790539L
sS'recordCount'
p1608
g6
sS'EventType'
p1609
S'TYPE_WINDOW_CONTENT_CHANGED'
p1610
sS'PackageName'
p1611
S'com.xdf.ucan'
p1612
sS'OutBounds'
p1613
S'Rect(574, 1001 - 612, 1034)'
p1614
sS'Action'
p1615
S'[ ClassName: android.widget.TextView; Text: []; ContentDescription: null; ItemCount: -1; CurrentItemIndex: -1; IsEnabled: true; IsPassword: false; IsChecked: false; IsFullScreen: false; Scrollable: false; BeforeText: null; FromIndex: -1; ToIndex: -1; ScrollX: -1; ScrollY: -1; MaxScrollX: -1; MaxScrollY: -1; AddedCount: -1; RemovedCount: -1; ParcelableData: null ]'
p1616
sS'MovementGranularity'
p1617
g6
sa(dp1618
S'EventTime'
p1619
S'516412230'
p1620
sg4
L1449717802328L
sS'recordCount'
p1621
g6
sS'EventType'
p1622
S'TYPE_VIEW_CLICKED'
p1623
sS'PackageName'
p1624
S'com.xdf.ucan'
p1625
sS'OutBounds'
p1626
S'Rect(244, 845 - 477, 1044)'
p1627
sS'Action'
p1628
S'[ ClassName: android.widget.LinearLayout; Text: [\xe5\xbe\xae\xe4\xbf\xa1\xe6\x9c\x8b\xe5\x8f\x8b\xe5\x9c\x88]; ContentDescription: null; ItemCount: -1; CurrentItemIndex: -1; IsEnabled: true; IsPassword: false; IsChecked: false; IsFullScreen: false; Scrollable: false; BeforeText: null; FromIndex: -1; ToIndex: -1; ScrollX: -1; ScrollY: -1; MaxScrollX: -1; MaxScrollY: -1; AddedCount: -1; RemovedCount: -1; ParcelableData: null ]'
p1629
sS'MovementGranularity'
p1630
g6
sa(dp1631
S'EventTime'
p1632
S'516412237'
p1633
sg4
L1449717802378L
sS'recordCount'
p1634
g6
sS'EventType'
p1635
S'TYPE_NOTIFICATION_STATE_CHANGED'
p1636
sS'PackageName'
p1637
S'com.xdf.ucan'
p1638
sS'Action'
p1639
S'[ ClassName: android.widget.Toast$TN; Text: [\xe5\x88\x86\xe4\xba\xab\xe6\x93\x8d\xe4\xbd\x9c\xe6\xad\xa3\xe5\x9c\xa8\xe5\x90\x8e\xe5\x8f\xb0\xe8\xbf\x9b\xe8\xa1\x8c\xe2\x80\xa6]; ContentDescription: null; ItemCount: -1; CurrentItemIndex: -1; IsEnabled: false; IsPassword: false; IsChecked: false; IsFullScreen: false; Scrollable: false; BeforeText: null; FromIndex: -1; ToIndex: -1; ScrollX: -1; ScrollY: -1; MaxScrollX: -1; MaxScrollY: -1; AddedCount: -1; RemovedCount: -1; ParcelableData: null ]'
p1640
sS'MovementGranularity'
p1641
g6
sa(dp1642
S'EventTime'
p1643
S'516413230'
p1644
sg4
L1449717803333L
sS'recordCount'
p1645
g6
sS'EventType'
p1646
S'TYPE_WINDOW_STATE_CHANGED'
p1647
sS'PackageName'
p1648
S'com.xdf.ucan'
p1649
sS'OutBounds'
p1650
S'Rect(0, 0 - 720, 1184)'
p1651
sS'Action'
p1652
S'[ ClassName: com.xdf.ucan.ui.material.MaterialActivity; Text: [\xe4\xbc\x98\xe6\x92\xad\xe8\xaf\xbe]; ContentDescription: null; ItemCount: -1; CurrentItemIndex: -1; IsEnabled: true; IsPassword: false; IsChecked: false; IsFullScreen: true; Scrollable: false; BeforeText: null; FromIndex: -1; ToIndex: -1; ScrollX: -1; ScrollY: -1; MaxScrollX: -1; MaxScrollY: -1; AddedCount: -1; RemovedCount: -1; ParcelableData: null ]'
p1653
sS'MovementGranularity'
p1654
g6
sa(dp1655
S'EventTime'
p1656
S'516456357'
p1657
sg4
L1449717846455L
sS'recordCount'
p1658
g6
sS'EventType'
p1659
S'TYPE_WINDOW_STATE_CHANGED'
p1660
sS'PackageName'
p1661
S'com.xdf.ucan'
p1662
sS'OutBounds'
p1663
S'Rect(0, 0 - 720, 1184)'
p1664
sS'Action'
p1665
S'[ ClassName: com.xdf.ucan.ui.login.StartActivity; Text: [\xe4\xbc\x98\xe6\x92\xad\xe8\xaf\xbe]; ContentDescription: null; ItemCount: -1; CurrentItemIndex: -1; IsEnabled: true; IsPassword: false; IsChecked: false; IsFullScreen: true; Scrollable: false; BeforeText: null; FromIndex: -1; ToIndex: -1; ScrollX: -1; ScrollY: -1; MaxScrollX: -1; MaxScrollY: -1; AddedCount: -1; RemovedCount: -1; ParcelableData: null ]'
p1666
sS'MovementGranularity'
p1667
g6
sa(dp1668
S'EventTime'
p1669
S'516456423'
p1670
sg4
L1449717846524L
sS'recordCount'
p1671
g6
sS'EventType'
p1672
S'TYPE_WINDOW_CONTENT_CHANGED'
p1673
sS'PackageName'
p1674
S'com.xdf.ucan'
p1675
sS'OutBounds'
p1676
S'Rect(0, 0 - 720, 1184)'
p1677
sS'Action'
p1678
S'[ ClassName: android.widget.FrameLayout; Text: []; ContentDescription: null; ItemCount: -1; CurrentItemIndex: -1; IsEnabled: true; IsPassword: false; IsChecked: false; IsFullScreen: false; Scrollable: false; BeforeText: null; FromIndex: -1; ToIndex: -1; ScrollX: -1; ScrollY: -1; MaxScrollX: -1; MaxScrollY: -1; AddedCount: -1; RemovedCount: -1; ParcelableData: null ]'
p1679
sS'MovementGranularity'
p1680
g6
sa(dp1681
S'EventTime'
p1682
S'516489030'
p1683
sg4
L1449717879134L
sS'recordCount'
p1684
g6
sS'EventType'
p1685
S'TYPE_WINDOW_STATE_CHANGED'
p1686
sS'PackageName'
p1687
S'com.xdf.ucan'
p1688
sS'OutBounds'
p1689
S'Rect(0, 0 - 720, 1184)'
p1690
sS'Action'
p1691
S'[ ClassName: com.xdf.ucan.ui.material.MaterialActivity; Text: [\xe4\xbc\x98\xe6\x92\xad\xe8\xaf\xbe]; ContentDescription: null; ItemCount: -1; CurrentItemIndex: -1; IsEnabled: true; IsPassword: false; IsChecked: false; IsFullScreen: true; Scrollable: false; BeforeText: null; FromIndex: -1; ToIndex: -1; ScrollX: -1; ScrollY: -1; MaxScrollX: -1; MaxScrollY: -1; AddedCount: -1; RemovedCount: -1; ParcelableData: null ]'
p1692
sS'MovementGranularity'
p1693
g6
sa(dp1694
S'EventTime'
p1695
S'516491001'
p1696
sg4
L1449717881097L
sS'recordCount'
p1697
g6
sS'EventType'
p1698
S'TYPE_VIEW_CLICKED'
p1699
sS'PackageName'
p1700
S'com.xdf.ucan'
p1701
sS'OutBounds'
p1702
S'Rect(658, 50 - 700, 138)'
p1703
sS'Action'
p1704
S'[ ClassName: android.widget.TextView; Text: []; ContentDescription: null; ItemCount: -1; CurrentItemIndex: -1; IsEnabled: true; IsPassword: false; IsChecked: false; IsFullScreen: false; Scrollable: false; BeforeText: null; FromIndex: -1; ToIndex: -1; ScrollX: -1; ScrollY: -1; MaxScrollX: -1; MaxScrollY: -1; AddedCount: -1; RemovedCount: -1; ParcelableData: null ]'
p1705
sS'MovementGranularity'
p1706
g6
sa(dp1707
S'EventTime'
p1708
S'516491115'
p1709
sg4
L1449717881230L
sS'recordCount'
p1710
g6
sS'EventType'
p1711
S'TYPE_WINDOW_STATE_CHANGED'
p1712
sS'PackageName'
p1713
S'com.xdf.ucan'
p1714
sS'OutBounds'
p1715
S'Rect(0, 0 - 720, 1184)'
p1716
sS'Action'
p1717
S'[ ClassName: com.mob.tools.MobUIShell; Text: [\xe4\xbc\x98\xe6\x92\xad\xe8\xaf\xbe]; ContentDescription: null; ItemCount: -1; CurrentItemIndex: -1; IsEnabled: true; IsPassword: false; IsChecked: false; IsFullScreen: true; Scrollable: false; BeforeText: null; FromIndex: -1; ToIndex: -1; ScrollX: -1; ScrollY: -1; MaxScrollX: -1; MaxScrollY: -1; AddedCount: -1; RemovedCount: -1; ParcelableData: null ]'
p1718
sS'MovementGranularity'
p1719
g6
sa(dp1720
S'EventTime'
p1721
S'516491180'
p1722
sg4
L1449717881290L
sS'recordCount'
p1723
g6
sS'EventType'
p1724
S'TYPE_WINDOW_CONTENT_CHANGED'
p1725
sS'PackageName'
p1726
S'com.xdf.ucan'
p1727
sS'OutBounds'
p1728
S'Rect(290, 1001 - 430, 1034)'
p1729
sS'Action'
p1730
S'[ ClassName: android.widget.TextView; Text: []; ContentDescription: null; ItemCount: -1; CurrentItemIndex: -1; IsEnabled: true; IsPassword: false; IsChecked: false; IsFullScreen: false; Scrollable: false; BeforeText: null; FromIndex: -1; ToIndex: -1; ScrollX: -1; ScrollY: -1; MaxScrollX: -1; MaxScrollY: -1; AddedCount: -1; RemovedCount: -1; ParcelableData: null ]'
p1731
sS'MovementGranularity'
p1732
g6
sa(dp1733
S'EventTime'
p1734
S'516491293'
p1735
sg4
L1449717881402L
sS'recordCount'
p1736
g6
sS'EventType'
p1737
S'TYPE_WINDOW_CONTENT_CHANGED'
p1738
sS'PackageName'
p1739
S'com.xdf.ucan'
p1740
sS'OutBounds'
p1741
S'Rect(290, 1001 - 430, 1034)'
p1742
sS'Action'
p1743
S'[ ClassName: android.widget.TextView; Text: []; ContentDescription: null; ItemCount: -1; CurrentItemIndex: -1; IsEnabled: true; IsPassword: false; IsChecked: false; IsFullScreen: false; Scrollable: false; BeforeText: null; FromIndex: -1; ToIndex: -1; ScrollX: -1; ScrollY: -1; MaxScrollX: -1; MaxScrollY: -1; AddedCount: -1; RemovedCount: -1; ParcelableData: null ]'
p1744
sS'MovementGranularity'
p1745
g6
sa(dp1746
S'EventTime'
p1747
S'516493602'
p1748
sg4
L1449717883702L
sS'recordCount'
p1749
g6
sS'EventType'
p1750
S'TYPE_VIEW_CLICKED'
p1751
sS'PackageName'
p1752
S'com.xdf.ucan'
p1753
sS'OutBounds'
p1754
S'Rect(10, 845 - 244, 1044)'
p1755
sS'Action'
p1756
S'[ ClassName: android.widget.LinearLayout; Text: [\xe5\xbe\xae\xe4\xbf\xa1\xe5\xa5\xbd\xe5\x8f\x8b]; ContentDescription: null; ItemCount: -1; CurrentItemIndex: -1; IsEnabled: true; IsPassword: false; IsChecked: false; IsFullScreen: false; Scrollable: false; BeforeText: null; FromIndex: -1; ToIndex: -1; ScrollX: -1; ScrollY: -1; MaxScrollX: -1; MaxScrollY: -1; AddedCount: -1; RemovedCount: -1; ParcelableData: null ]'
p1757
sS'MovementGranularity'
p1758
g6
sa(dp1759
S'EventTime'
p1760
S'516493611'
p1761
sg4
L1449717883732L
sS'recordCount'
p1762
g6
sS'EventType'
p1763
S'TYPE_NOTIFICATION_STATE_CHANGED'
p1764
sS'PackageName'
p1765
S'com.xdf.ucan'
p1766
sS'Action'
p1767
S'[ ClassName: android.widget.Toast$TN; Text: [\xe5\x88\x86\xe4\xba\xab\xe6\x93\x8d\xe4\xbd\x9c\xe6\xad\xa3\xe5\x9c\xa8\xe5\x90\x8e\xe5\x8f\xb0\xe8\xbf\x9b\xe8\xa1\x8c\xe2\x80\xa6]; ContentDescription: null; ItemCount: -1; CurrentItemIndex: -1; IsEnabled: false; IsPassword: false; IsChecked: false; IsFullScreen: false; Scrollable: false; BeforeText: null; FromIndex: -1; ToIndex: -1; ScrollX: -1; ScrollY: -1; MaxScrollX: -1; MaxScrollY: -1; AddedCount: -1; RemovedCount: -1; ParcelableData: null ]'
p1768
sS'MovementGranularity'
p1769
g6
sa(dp1770
S'EventTime'
p1771
S'516494235'
p1772
sg4
L1449717884335L
sS'recordCount'
p1773
g6
sS'EventType'
p1774
S'TYPE_WINDOW_STATE_CHANGED'
p1775
sS'PackageName'
p1776
S'com.xdf.ucan'
p1777
sS'OutBounds'
p1778
S'Rect(0, 0 - 720, 1184)'
p1779
sS'Action'
p1780
S'[ ClassName: com.xdf.ucan.ui.material.MaterialActivity; Text: [\xe4\xbc\x98\xe6\x92\xad\xe8\xaf\xbe]; ContentDescription: null; ItemCount: -1; CurrentItemIndex: -1; IsEnabled: true; IsPassword: false; IsChecked: false; IsFullScreen: true; Scrollable: false; BeforeText: null; FromIndex: -1; ToIndex: -1; ScrollX: -1; ScrollY: -1; MaxScrollX: -1; MaxScrollY: -1; AddedCount: -1; RemovedCount: -1; ParcelableData: null ]'
p1781
sS'MovementGranularity'
p1782
g6
sa(dp1783
S'EventTime'
p1784
S'516496776'
p1785
sg4
L1449717886873L
sS'recordCount'
p1786
g6
sS'EventType'
p1787
S'TYPE_VIEW_CLICKED'
p1788
sS'PackageName'
p1789
S'com.xdf.ucan'
p1790
sS'OutBounds'
p1791
S'Rect(658, 50 - 700, 138)'
p1792
sS'Action'
p1793
S'[ ClassName: android.widget.TextView; Text: []; ContentDescription: null; ItemCount: -1; CurrentItemIndex: -1; IsEnabled: true; IsPassword: false; IsChecked: false; IsFullScreen: false; Scrollable: false; BeforeText: null; FromIndex: -1; ToIndex: -1; ScrollX: -1; ScrollY: -1; MaxScrollX: -1; MaxScrollY: -1; AddedCount: -1; RemovedCount: -1; ParcelableData: null ]'
p1794
sS'MovementGranularity'
p1795
g6
sa(dp1796
S'EventTime'
p1797
S'516496867'
p1798
sg4
L1449717886981L
sS'recordCount'
p1799
g6
sS'EventType'
p1800
S'TYPE_WINDOW_STATE_CHANGED'
p1801
sS'PackageName'
p1802
S'com.xdf.ucan'
p1803
sS'OutBounds'
p1804
S'Rect(0, 0 - 720, 1184)'
p1805
sS'Action'
p1806
S'[ ClassName: com.mob.tools.MobUIShell; Text: [\xe4\xbc\x98\xe6\x92\xad\xe8\xaf\xbe]; ContentDescription: null; ItemCount: -1; CurrentItemIndex: -1; IsEnabled: true; IsPassword: false; IsChecked: false; IsFullScreen: true; Scrollable: false; BeforeText: null; FromIndex: -1; ToIndex: -1; ScrollX: -1; ScrollY: -1; MaxScrollX: -1; MaxScrollY: -1; AddedCount: -1; RemovedCount: -1; ParcelableData: null ]'
p1807
sS'MovementGranularity'
p1808
g6
sa(dp1809
S'EventTime'
p1810
S'516496949'
p1811
sg4
L1449717887060L
sS'recordCount'
p1812
g6
sS'EventType'
p1813
S'TYPE_WINDOW_CONTENT_CHANGED'
p1814
sS'PackageName'
p1815
S'com.xdf.ucan'
p1816
sS'OutBounds'
p1817
S'Rect(574, 1001 - 612, 1034)'
p1818
sS'Action'
p1819
S'[ ClassName: android.widget.TextView; Text: []; ContentDescription: null; ItemCount: -1; CurrentItemIndex: -1; IsEnabled: true; IsPassword: false; IsChecked: false; IsFullScreen: false; Scrollable: false; BeforeText: null; FromIndex: -1; ToIndex: -1; ScrollX: -1; ScrollY: -1; MaxScrollX: -1; MaxScrollY: -1; AddedCount: -1; RemovedCount: -1; ParcelableData: null ]'
p1820
sS'MovementGranularity'
p1821
g6
sa(dp1822
S'EventTime'
p1823
S'516498987'
p1824
sg4
L1449717889084L
sS'recordCount'
p1825
g6
sS'EventType'
p1826
S'TYPE_VIEW_CLICKED'
p1827
sS'PackageName'
p1828
S'com.xdf.ucan'
p1829
sS'OutBounds'
p1830
S'Rect(244, 845 - 477, 1044)'
p1831
sS'Action'
p1832
S'[ ClassName: android.widget.LinearLayout; Text: [\xe5\xbe\xae\xe4\xbf\xa1\xe6\x9c\x8b\xe5\x8f\x8b\xe5\x9c\x88]; ContentDescription: null; ItemCount: -1; CurrentItemIndex: -1; IsEnabled: true; IsPassword: false; IsChecked: false; IsFullScreen: false; Scrollable: false; BeforeText: null; FromIndex: -1; ToIndex: -1; ScrollX: -1; ScrollY: -1; MaxScrollX: -1; MaxScrollY: -1; AddedCount: -1; RemovedCount: -1; ParcelableData: null ]'
p1833
sS'MovementGranularity'
p1834
g6
sa(dp1835
S'EventTime'
p1836
S'516498995'
p1837
sg4
L1449717889117L
sS'recordCount'
p1838
g6
sS'EventType'
p1839
S'TYPE_NOTIFICATION_STATE_CHANGED'
p1840
sS'PackageName'
p1841
S'com.xdf.ucan'
p1842
sS'Action'
p1843
S'[ ClassName: android.widget.Toast$TN; Text: [\xe5\x88\x86\xe4\xba\xab\xe6\x93\x8d\xe4\xbd\x9c\xe6\xad\xa3\xe5\x9c\xa8\xe5\x90\x8e\xe5\x8f\xb0\xe8\xbf\x9b\xe8\xa1\x8c\xe2\x80\xa6]; ContentDescription: null; ItemCount: -1; CurrentItemIndex: -1; IsEnabled: false; IsPassword: false; IsChecked: false; IsFullScreen: false; Scrollable: false; BeforeText: null; FromIndex: -1; ToIndex: -1; ScrollX: -1; ScrollY: -1; MaxScrollX: -1; MaxScrollY: -1; AddedCount: -1; RemovedCount: -1; ParcelableData: null ]'
p1844
sS'MovementGranularity'
p1845
g6
sa(dp1846
S'EventTime'
p1847
S'516499562'
p1848
sg4
L1449717889664L
sS'recordCount'
p1849
g6
sS'EventType'
p1850
S'TYPE_WINDOW_STATE_CHANGED'
p1851
sS'PackageName'
p1852
S'com.xdf.ucan'
p1853
sS'OutBounds'
p1854
S'Rect(0, 0 - 720, 1184)'
p1855
sS'Action'
p1856
S'[ ClassName: com.xdf.ucan.ui.material.MaterialActivity; Text: [\xe4\xbc\x98\xe6\x92\xad\xe8\xaf\xbe]; ContentDescription: null; ItemCount: -1; CurrentItemIndex: -1; IsEnabled: true; IsPassword: false; IsChecked: false; IsFullScreen: true; Scrollable: false; BeforeText: null; FromIndex: -1; ToIndex: -1; ScrollX: -1; ScrollY: -1; MaxScrollX: -1; MaxScrollY: -1; AddedCount: -1; RemovedCount: -1; ParcelableData: null ]'
p1857
sS'MovementGranularity'
p1858
g6
sa(dp1859
S'EventTime'
p1860
S'516520058'
p1861
sg4
L1449717910158L
sS'recordCount'
p1862
g6
sS'EventType'
p1863
S'TYPE_WINDOW_STATE_CHANGED'
p1864
sS'PackageName'
p1865
S'com.xdf.ucan'
p1866
sS'OutBounds'
p1867
S'Rect(0, 0 - 720, 1184)'
p1868
sS'Action'
p1869
S'[ ClassName: com.xdf.ucan.ui.login.StartActivity; Text: [\xe4\xbc\x98\xe6\x92\xad\xe8\xaf\xbe]; ContentDescription: null; ItemCount: -1; CurrentItemIndex: -1; IsEnabled: true; IsPassword: false; IsChecked: false; IsFullScreen: true; Scrollable: false; BeforeText: null; FromIndex: -1; ToIndex: -1; ScrollX: -1; ScrollY: -1; MaxScrollX: -1; MaxScrollY: -1; AddedCount: -1; RemovedCount: -1; ParcelableData: null ]'
p1870
sS'MovementGranularity'
p1871
g6
sa(dp1872
S'EventTime'
p1873
S'516520106'
p1874
sg4
L1449717910204L
sS'recordCount'
p1875
g6
sS'EventType'
p1876
S'TYPE_WINDOW_CONTENT_CHANGED'
p1877
sS'PackageName'
p1878
S'com.xdf.ucan'
p1879
sS'OutBounds'
p1880
S'Rect(0, 0 - 720, 1184)'
p1881
sS'Action'
p1882
S'[ ClassName: android.widget.FrameLayout; Text: []; ContentDescription: null; ItemCount: -1; CurrentItemIndex: -1; IsEnabled: true; IsPassword: false; IsChecked: false; IsFullScreen: false; Scrollable: false; BeforeText: null; FromIndex: -1; ToIndex: -1; ScrollX: -1; ScrollY: -1; MaxScrollX: -1; MaxScrollY: -1; AddedCount: -1; RemovedCount: -1; ParcelableData: null ]'
p1883
sS'MovementGranularity'
p1884
g6
sa(dp1885
S'EventTime'
p1886
S'516566740'
p1887
sg4
L1449717956847L
sS'recordCount'
p1888
g6
sS'EventType'
p1889
S'TYPE_WINDOW_STATE_CHANGED'
p1890
sS'PackageName'
p1891
S'com.xdf.ucan'
p1892
sS'OutBounds'
p1893
S'Rect(0, 0 - 720, 1184)'
p1894
sS'Action'
p1895
S'[ ClassName: com.xdf.ucan.ui.material.MaterialActivity; Text: [\xe4\xbc\x98\xe6\x92\xad\xe8\xaf\xbe]; ContentDescription: null; ItemCount: -1; CurrentItemIndex: -1; IsEnabled: true; IsPassword: false; IsChecked: false; IsFullScreen: true; Scrollable: false; BeforeText: null; FromIndex: -1; ToIndex: -1; ScrollX: -1; ScrollY: -1; MaxScrollX: -1; MaxScrollY: -1; AddedCount: -1; RemovedCount: -1; ParcelableData: null ]'
p1896
sS'MovementGranularity'
p1897
g6
sa(dp1898
S'EventTime'
p1899
S'516591359'
p1900
sg4
L1449717981474L
sS'recordCount'
p1901
g6
sS'EventType'
p1902
S'TYPE_WINDOW_STATE_CHANGED'
p1903
sS'PackageName'
p1904
S'com.xdf.ucan'
p1905
sS'OutBounds'
p1906
S'Rect(0, 0 - 720, 1184)'
p1907
sS'Action'
p1908
S'[ ClassName: com.xdf.ucan.ui.material.MaterialActivity; Text: [\xe4\xbc\x98\xe6\x92\xad\xe8\xaf\xbe]; ContentDescription: null; ItemCount: -1; CurrentItemIndex: -1; IsEnabled: true; IsPassword: false; IsChecked: false; IsFullScreen: true; Scrollable: false; BeforeText: null; FromIndex: -1; ToIndex: -1; ScrollX: -1; ScrollY: -1; MaxScrollX: -1; MaxScrollY: -1; AddedCount: -1; RemovedCount: -1; ParcelableData: null ]'
p1909
sS'MovementGranularity'
p1910
g6
sa(dp1911
S'EventTime'
p1912
S'516592594'
p1913
sg4
L1449717982692L
sS'recordCount'
p1914
g6
sS'EventType'
p1915
S'TYPE_VIEW_CLICKED'
p1916
sS'PackageName'
p1917
S'com.xdf.ucan'
p1918
sS'OutBounds'
p1919
S'Rect(658, 50 - 700, 138)'
p1920
sS'Action'
p1921
S'[ ClassName: android.widget.TextView; Text: []; ContentDescription: null; ItemCount: -1; CurrentItemIndex: -1; IsEnabled: true; IsPassword: false; IsChecked: false; IsFullScreen: false; Scrollable: false; BeforeText: null; FromIndex: -1; ToIndex: -1; ScrollX: -1; ScrollY: -1; MaxScrollX: -1; MaxScrollY: -1; AddedCount: -1; RemovedCount: -1; ParcelableData: null ]'
p1922
sS'MovementGranularity'
p1923
g6
sa(dp1924
S'EventTime'
p1925
S'516592722'
p1926
sg4
L1449717982842L
sS'recordCount'
p1927
g6
sS'EventType'
p1928
S'TYPE_WINDOW_STATE_CHANGED'
p1929
sS'PackageName'
p1930
S'com.xdf.ucan'
p1931
sS'OutBounds'
p1932
S'Rect(0, 0 - 720, 1184)'
p1933
sS'Action'
p1934
S'[ ClassName: com.mob.tools.MobUIShell; Text: [\xe4\xbc\x98\xe6\x92\xad\xe8\xaf\xbe]; ContentDescription: null; ItemCount: -1; CurrentItemIndex: -1; IsEnabled: true; IsPassword: false; IsChecked: false; IsFullScreen: true; Scrollable: false; BeforeText: null; FromIndex: -1; ToIndex: -1; ScrollX: -1; ScrollY: -1; MaxScrollX: -1; MaxScrollY: -1; AddedCount: -1; RemovedCount: -1; ParcelableData: null ]'
p1935
sS'MovementGranularity'
p1936
g6
sa(dp1937
S'EventTime'
p1938
S'516592780'
p1939
sg4
L1449717982890L
sS'recordCount'
p1940
g6
sS'EventType'
p1941
S'TYPE_WINDOW_CONTENT_CHANGED'
p1942
sS'PackageName'
p1943
S'com.xdf.ucan'
p1944
sS'OutBounds'
p1945
S'Rect(574, 1001 - 612, 1034)'
p1946
sS'Action'
p1947
S'[ ClassName: android.widget.TextView; Text: []; ContentDescription: null; ItemCount: -1; CurrentItemIndex: -1; IsEnabled: true; IsPassword: false; IsChecked: false; IsFullScreen: false; Scrollable: false; BeforeText: null; FromIndex: -1; ToIndex: -1; ScrollX: -1; ScrollY: -1; MaxScrollX: -1; MaxScrollY: -1; AddedCount: -1; RemovedCount: -1; ParcelableData: null ]'
p1948
sS'MovementGranularity'
p1949
g6
sa(dp1950
S'EventTime'
p1951
S'516592893'
p1952
sg4
L1449717983003L
sS'recordCount'
p1953
g6
sS'EventType'
p1954
S'TYPE_WINDOW_CONTENT_CHANGED'
p1955
sS'PackageName'
p1956
S'com.xdf.ucan'
p1957
sS'OutBounds'
p1958
S'Rect(574, 1001 - 612, 1034)'
p1959
sS'Action'
p1960
S'[ ClassName: android.widget.TextView; Text: []; ContentDescription: null; ItemCount: -1; CurrentItemIndex: -1; IsEnabled: true; IsPassword: false; IsChecked: false; IsFullScreen: false; Scrollable: false; BeforeText: null; FromIndex: -1; ToIndex: -1; ScrollX: -1; ScrollY: -1; MaxScrollX: -1; MaxScrollY: -1; AddedCount: -1; RemovedCount: -1; ParcelableData: null ]'
p1961
sS'MovementGranularity'
p1962
g6
sa(dp1963
S'EventTime'
p1964
S'516594025'
p1965
sg4
L1449717984122L
sS'recordCount'
p1966
g6
sS'EventType'
p1967
S'TYPE_VIEW_CLICKED'
p1968
sS'PackageName'
p1969
S'com.xdf.ucan'
p1970
sS'OutBounds'
p1971
S'Rect(10, 845 - 244, 1044)'
p1972
sS'Action'
p1973
S'[ ClassName: android.widget.LinearLayout; Text: [\xe5\xbe\xae\xe4\xbf\xa1\xe5\xa5\xbd\xe5\x8f\x8b]; ContentDescription: null; ItemCount: -1; CurrentItemIndex: -1; IsEnabled: true; IsPassword: false; IsChecked: false; IsFullScreen: false; Scrollable: false; BeforeText: null; FromIndex: -1; ToIndex: -1; ScrollX: -1; ScrollY: -1; MaxScrollX: -1; MaxScrollY: -1; AddedCount: -1; RemovedCount: -1; ParcelableData: null ]'
p1974
sS'MovementGranularity'
p1975
g6
sa(dp1976
S'EventTime'
p1977
S'516594033'
p1978
sg4
L1449717984145L
sS'recordCount'
p1979
g6
sS'EventType'
p1980
S'TYPE_NOTIFICATION_STATE_CHANGED'
p1981
sS'PackageName'
p1982
S'com.xdf.ucan'
p1983
sS'Action'
p1984
S'[ ClassName: android.widget.Toast$TN; Text: [\xe5\x88\x86\xe4\xba\xab\xe6\x93\x8d\xe4\xbd\x9c\xe6\xad\xa3\xe5\x9c\xa8\xe5\x90\x8e\xe5\x8f\xb0\xe8\xbf\x9b\xe8\xa1\x8c\xe2\x80\xa6]; ContentDescription: null; ItemCount: -1; CurrentItemIndex: -1; IsEnabled: false; IsPassword: false; IsChecked: false; IsFullScreen: false; Scrollable: false; BeforeText: null; FromIndex: -1; ToIndex: -1; ScrollX: -1; ScrollY: -1; MaxScrollX: -1; MaxScrollY: -1; AddedCount: -1; RemovedCount: -1; ParcelableData: null ]'
p1985
sS'MovementGranularity'
p1986
g6
sa(dp1987
S'EventTime'
p1988
S'516617069'
p1989
sg4
L1449718007171L
sS'recordCount'
p1990
g6
sS'EventType'
p1991
S'TYPE_WINDOW_STATE_CHANGED'
p1992
sS'PackageName'
p1993
S'com.xdf.ucan'
p1994
sS'OutBounds'
p1995
S'Rect(0, 0 - 720, 1184)'
p1996
sS'Action'
p1997
S'[ ClassName: com.xdf.ucan.ui.material.MaterialActivity; Text: [\xe4\xbc\x98\xe6\x92\xad\xe8\xaf\xbe]; ContentDescription: null; ItemCount: -1; CurrentItemIndex: -1; IsEnabled: true; IsPassword: false; IsChecked: false; IsFullScreen: true; Scrollable: false; BeforeText: null; FromIndex: -1; ToIndex: -1; ScrollX: -1; ScrollY: -1; MaxScrollX: -1; MaxScrollY: -1; AddedCount: -1; RemovedCount: -1; ParcelableData: null ]'
p1998
sS'MovementGranularity'
p1999
g6
sa(dp2000
S'EventTime'
p2001
S'516620191'
p2002
sg4
L1449718010293L
sS'recordCount'
p2003
g6
sS'EventType'
p2004
S'TYPE_WINDOW_STATE_CHANGED'
p2005
sS'PackageName'
p2006
S'com.xdf.ucan'
p2007
sS'OutBounds'
p2008
S'Rect(0, 0 - 720, 1184)'
p2009
sS'Action'
p2010
S'[ ClassName: com.xdf.ucan.ui.material.MaterialActivity; Text: [\xe4\xbc\x98\xe6\x92\xad\xe8\xaf\xbe]; ContentDescription: null; ItemCount: -1; CurrentItemIndex: -1; IsEnabled: true; IsPassword: false; IsChecked: false; IsFullScreen: true; Scrollable: false; BeforeText: null; FromIndex: -1; ToIndex: -1; ScrollX: -1; ScrollY: -1; MaxScrollX: -1; MaxScrollY: -1; AddedCount: -1; RemovedCount: -1; ParcelableData: null ]'
p2011
sS'MovementGranularity'
p2012
g6
sa(dp2013
S'EventTime'
p2014
S'516621295'
p2015
sg4
L1449718011392L
sS'recordCount'
p2016
g6
sS'EventType'
p2017
S'TYPE_VIEW_CLICKED'
p2018
sS'PackageName'
p2019
S'com.xdf.ucan'
p2020
sS'OutBounds'
p2021
S'Rect(658, 50 - 700, 138)'
p2022
sS'Action'
p2023
S'[ ClassName: android.widget.TextView; Text: []; ContentDescription: null; ItemCount: -1; CurrentItemIndex: -1; IsEnabled: true; IsPassword: false; IsChecked: false; IsFullScreen: false; Scrollable: false; BeforeText: null; FromIndex: -1; ToIndex: -1; ScrollX: -1; ScrollY: -1; MaxScrollX: -1; MaxScrollY: -1; AddedCount: -1; RemovedCount: -1; ParcelableData: null ]'
p2024
sS'MovementGranularity'
p2025
g6
sa(dp2026
S'EventTime'
p2027
S'516621403'
p2028
sg4
L1449718011517L
sS'recordCount'
p2029
g6
sS'EventType'
p2030
S'TYPE_WINDOW_STATE_CHANGED'
p2031
sS'PackageName'
p2032
S'com.xdf.ucan'
p2033
sS'OutBounds'
p2034
S'Rect(0, 0 - 720, 1184)'
p2035
sS'Action'
p2036
S'[ ClassName: com.mob.tools.MobUIShell; Text: [\xe4\xbc\x98\xe6\x92\xad\xe8\xaf\xbe]; ContentDescription: null; ItemCount: -1; CurrentItemIndex: -1; IsEnabled: true; IsPassword: false; IsChecked: false; IsFullScreen: true; Scrollable: false; BeforeText: null; FromIndex: -1; ToIndex: -1; ScrollX: -1; ScrollY: -1; MaxScrollX: -1; MaxScrollY: -1; AddedCount: -1; RemovedCount: -1; ParcelableData: null ]'
p2037
sS'MovementGranularity'
p2038
g6
sa(dp2039
S'EventTime'
p2040
S'516621597'
p2041
sg4
L1449718011709L
sS'recordCount'
p2042
g6
sS'EventType'
p2043
S'TYPE_WINDOW_CONTENT_CHANGED'
p2044
sS'PackageName'
p2045
S'com.xdf.ucan'
p2046
sS'OutBounds'
p2047
S'Rect(574, 1001 - 612, 1034)'
p2048
sS'Action'
p2049
S'[ ClassName: android.widget.TextView; Text: []; ContentDescription: null; ItemCount: -1; CurrentItemIndex: -1; IsEnabled: true; IsPassword: false; IsChecked: false; IsFullScreen: false; Scrollable: false; BeforeText: null; FromIndex: -1; ToIndex: -1; ScrollX: -1; ScrollY: -1; MaxScrollX: -1; MaxScrollY: -1; AddedCount: -1; RemovedCount: -1; ParcelableData: null ]'
p2050
sS'MovementGranularity'
p2051
g6
sa(dp2052
S'EventTime'
p2053
S'516622120'
p2054
sg4
L1449718012218L
sS'recordCount'
p2055
g6
sS'EventType'
p2056
S'TYPE_VIEW_CLICKED'
p2057
sS'PackageName'
p2058
S'com.xdf.ucan'
p2059
sS'OutBounds'
p2060
S'Rect(10, 845 - 244, 1044)'
p2061
sS'Action'
p2062
S'[ ClassName: android.widget.LinearLayout; Text: [\xe5\xbe\xae\xe4\xbf\xa1\xe5\xa5\xbd\xe5\x8f\x8b]; ContentDescription: null; ItemCount: -1; CurrentItemIndex: -1; IsEnabled: true; IsPassword: false; IsChecked: false; IsFullScreen: false; Scrollable: false; BeforeText: null; FromIndex: -1; ToIndex: -1; ScrollX: -1; ScrollY: -1; MaxScrollX: -1; MaxScrollY: -1; AddedCount: -1; RemovedCount: -1; ParcelableData: null ]'
p2063
sS'MovementGranularity'
p2064
g6
sa(dp2065
S'EventTime'
p2066
S'516622130'
p2067
sg4
L1449718012232L
sS'recordCount'
p2068
g6
sS'EventType'
p2069
S'TYPE_NOTIFICATION_STATE_CHANGED'
p2070
sS'PackageName'
p2071
S'com.xdf.ucan'
p2072
sS'Action'
p2073
S'[ ClassName: android.widget.Toast$TN; Text: [\xe5\x88\x86\xe4\xba\xab\xe6\x93\x8d\xe4\xbd\x9c\xe6\xad\xa3\xe5\x9c\xa8\xe5\x90\x8e\xe5\x8f\xb0\xe8\xbf\x9b\xe8\xa1\x8c\xe2\x80\xa6]; ContentDescription: null; ItemCount: -1; CurrentItemIndex: -1; IsEnabled: false; IsPassword: false; IsChecked: false; IsFullScreen: false; Scrollable: false; BeforeText: null; FromIndex: -1; ToIndex: -1; ScrollX: -1; ScrollY: -1; MaxScrollX: -1; MaxScrollY: -1; AddedCount: -1; RemovedCount: -1; ParcelableData: null ]'
p2074
sS'MovementGranularity'
p2075
g6
sa(dp2076
S'EventTime'
p2077
S'516622838'
p2078
sg4
L1449718012940L
sS'recordCount'
p2079
g6
sS'EventType'
p2080
S'TYPE_WINDOW_STATE_CHANGED'
p2081
sS'PackageName'
p2082
S'com.xdf.ucan'
p2083
sS'OutBounds'
p2084
S'Rect(0, 0 - 720, 1184)'
p2085
sS'Action'
p2086
S'[ ClassName: com.xdf.ucan.ui.material.MaterialActivity; Text: [\xe4\xbc\x98\xe6\x92\xad\xe8\xaf\xbe]; ContentDescription: null; ItemCount: -1; CurrentItemIndex: -1; IsEnabled: true; IsPassword: false; IsChecked: false; IsFullScreen: true; Scrollable: false; BeforeText: null; FromIndex: -1; ToIndex: -1; ScrollX: -1; ScrollY: -1; MaxScrollX: -1; MaxScrollY: -1; AddedCount: -1; RemovedCount: -1; ParcelableData: null ]'
p2087
sS'MovementGranularity'
p2088
g6
sa(dp2089
S'EventTime'
p2090
S'516624203'
p2091
sg4
L1449718014300L
sS'recordCount'
p2092
g6
sS'EventType'
p2093
S'TYPE_VIEW_CLICKED'
p2094
sS'PackageName'
p2095
S'com.xdf.ucan'
p2096
sS'OutBounds'
p2097
S'Rect(658, 50 - 700, 138)'
p2098
sS'Action'
p2099
S'[ ClassName: android.widget.TextView; Text: []; ContentDescription: null; ItemCount: -1; CurrentItemIndex: -1; IsEnabled: true; IsPassword: false; IsChecked: false; IsFullScreen: false; Scrollable: false; BeforeText: null; FromIndex: -1; ToIndex: -1; ScrollX: -1; ScrollY: -1; MaxScrollX: -1; MaxScrollY: -1; AddedCount: -1; RemovedCount: -1; ParcelableData: null ]'
p2100
sS'MovementGranularity'
p2101
g6
sa(dp2102
S'EventTime'
p2103
S'516624300'
p2104
sg4
L1449718014408L
sS'recordCount'
p2105
g6
sS'EventType'
p2106
S'TYPE_WINDOW_STATE_CHANGED'
p2107
sS'PackageName'
p2108
S'com.xdf.ucan'
p2109
sS'OutBounds'
p2110
S'Rect(0, 0 - 720, 1184)'
p2111
sS'Action'
p2112
S'[ ClassName: com.mob.tools.MobUIShell; Text: [\xe4\xbc\x98\xe6\x92\xad\xe8\xaf\xbe]; ContentDescription: null; ItemCount: -1; CurrentItemIndex: -1; IsEnabled: true; IsPassword: false; IsChecked: false; IsFullScreen: true; Scrollable: false; BeforeText: null; FromIndex: -1; ToIndex: -1; ScrollX: -1; ScrollY: -1; MaxScrollX: -1; MaxScrollY: -1; AddedCount: -1; RemovedCount: -1; ParcelableData: null ]'
p2113
sS'MovementGranularity'
p2114
g6
sa(dp2115
S'EventTime'
p2116
S'516624370'
p2117
sg4
L1449718014477L
sS'recordCount'
p2118
g6
sS'EventType'
p2119
S'TYPE_WINDOW_CONTENT_CHANGED'
p2120
sS'PackageName'
p2121
S'com.xdf.ucan'
p2122
sS'OutBounds'
p2123
S'Rect(574, 1001 - 612, 1034)'
p2124
sS'Action'
p2125
S'[ ClassName: android.widget.TextView; Text: []; ContentDescription: null; ItemCount: -1; CurrentItemIndex: -1; IsEnabled: true; IsPassword: false; IsChecked: false; IsFullScreen: false; Scrollable: false; BeforeText: null; FromIndex: -1; ToIndex: -1; ScrollX: -1; ScrollY: -1; MaxScrollX: -1; MaxScrollY: -1; AddedCount: -1; RemovedCount: -1; ParcelableData: null ]'
p2126
sS'MovementGranularity'
p2127
g6
sa(dp2128
S'EventTime'
p2129
S'516625409'
p2130
sg4
L1449718015507L
sS'recordCount'
p2131
g6
sS'EventType'
p2132
S'TYPE_VIEW_CLICKED'
p2133
sS'PackageName'
p2134
S'com.xdf.ucan'
p2135
sS'OutBounds'
p2136
S'Rect(10, 845 - 244, 1044)'
p2137
sS'Action'
p2138
S'[ ClassName: android.widget.LinearLayout; Text: [\xe5\xbe\xae\xe4\xbf\xa1\xe5\xa5\xbd\xe5\x8f\x8b]; ContentDescription: null; ItemCount: -1; CurrentItemIndex: -1; IsEnabled: true; IsPassword: false; IsChecked: false; IsFullScreen: false; Scrollable: false; BeforeText: null; FromIndex: -1; ToIndex: -1; ScrollX: -1; ScrollY: -1; MaxScrollX: -1; MaxScrollY: -1; AddedCount: -1; RemovedCount: -1; ParcelableData: null ]'
p2139
sS'MovementGranularity'
p2140
g6
sa(dp2141
S'EventTime'
p2142
S'516625419'
p2143
sg4
L1449718015527L
sS'recordCount'
p2144
g6
sS'EventType'
p2145
S'TYPE_NOTIFICATION_STATE_CHANGED'
p2146
sS'PackageName'
p2147
S'com.xdf.ucan'
p2148
sS'Action'
p2149
S'[ ClassName: android.widget.Toast$TN; Text: [\xe5\x88\x86\xe4\xba\xab\xe6\x93\x8d\xe4\xbd\x9c\xe6\xad\xa3\xe5\x9c\xa8\xe5\x90\x8e\xe5\x8f\xb0\xe8\xbf\x9b\xe8\xa1\x8c\xe2\x80\xa6]; ContentDescription: null; ItemCount: -1; CurrentItemIndex: -1; IsEnabled: false; IsPassword: false; IsChecked: false; IsFullScreen: false; Scrollable: false; BeforeText: null; FromIndex: -1; ToIndex: -1; ScrollX: -1; ScrollY: -1; MaxScrollX: -1; MaxScrollY: -1; AddedCount: -1; RemovedCount: -1; ParcelableData: null ]'
p2150
sS'MovementGranularity'
p2151
g6
sa(dp2152
S'EventTime'
p2153
S'516625973'
p2154
sg4
L1449718016074L
sS'recordCount'
p2155
g6
sS'EventType'
p2156
S'TYPE_WINDOW_STATE_CHANGED'
p2157
sS'PackageName'
p2158
S'com.xdf.ucan'
p2159
sS'OutBounds'
p2160
S'Rect(0, 0 - 720, 1184)'
p2161
sS'Action'
p2162
S'[ ClassName: com.xdf.ucan.ui.material.MaterialActivity; Text: [\xe4\xbc\x98\xe6\x92\xad\xe8\xaf\xbe]; ContentDescription: null; ItemCount: -1; CurrentItemIndex: -1; IsEnabled: true; IsPassword: false; IsChecked: false; IsFullScreen: true; Scrollable: false; BeforeText: null; FromIndex: -1; ToIndex: -1; ScrollX: -1; ScrollY: -1; MaxScrollX: -1; MaxScrollY: -1; AddedCount: -1; RemovedCount: -1; ParcelableData: null ]'
p2163
sS'MovementGranularity'
p2164
g6
sa(dp2165
S'EventTime'
p2166
S'516626997'
p2167
sg4
L1449718017095L
sS'recordCount'
p2168
g6
sS'EventType'
p2169
S'TYPE_VIEW_CLICKED'
p2170
sS'PackageName'
p2171
S'com.xdf.ucan'
p2172
sS'OutBounds'
p2173
S'Rect(658, 50 - 700, 138)'
p2174
sS'Action'
p2175
S'[ ClassName: android.widget.TextView; Text: []; ContentDescription: null; ItemCount: -1; CurrentItemIndex: -1; IsEnabled: true; IsPassword: false; IsChecked: false; IsFullScreen: false; Scrollable: false; BeforeText: null; FromIndex: -1; ToIndex: -1; ScrollX: -1; ScrollY: -1; MaxScrollX: -1; MaxScrollY: -1; AddedCount: -1; RemovedCount: -1; ParcelableData: null ]'
p2176
sS'MovementGranularity'
p2177
g6
sa(dp2178
S'EventTime'
p2179
S'516627105'
p2180
sg4
L1449718017217L
sS'recordCount'
p2181
g6
sS'EventType'
p2182
S'TYPE_WINDOW_STATE_CHANGED'
p2183
sS'PackageName'
p2184
S'com.xdf.ucan'
p2185
sS'OutBounds'
p2186
S'Rect(0, 0 - 720, 1184)'
p2187
sS'Action'
p2188
S'[ ClassName: com.mob.tools.MobUIShell; Text: [\xe4\xbc\x98\xe6\x92\xad\xe8\xaf\xbe]; ContentDescription: null; ItemCount: -1; CurrentItemIndex: -1; IsEnabled: true; IsPassword: false; IsChecked: false; IsFullScreen: true; Scrollable: false; BeforeText: null; FromIndex: -1; ToIndex: -1; ScrollX: -1; ScrollY: -1; MaxScrollX: -1; MaxScrollY: -1; AddedCount: -1; RemovedCount: -1; ParcelableData: null ]'
p2189
sS'MovementGranularity'
p2190
g6
sa(dp2191
S'EventTime'
p2192
S'516627174'
p2193
sg4
L1449718017281L
sS'recordCount'
p2194
g6
sS'EventType'
p2195
S'TYPE_WINDOW_CONTENT_CHANGED'
p2196
sS'PackageName'
p2197
S'com.xdf.ucan'
p2198
sS'OutBounds'
p2199
S'Rect(290, 1001 - 430, 1034)'
p2200
sS'Action'
p2201
S'[ ClassName: android.widget.TextView; Text: []; ContentDescription: null; ItemCount: -1; CurrentItemIndex: -1; IsEnabled: true; IsPassword: false; IsChecked: false; IsFullScreen: false; Scrollable: false; BeforeText: null; FromIndex: -1; ToIndex: -1; ScrollX: -1; ScrollY: -1; MaxScrollX: -1; MaxScrollY: -1; AddedCount: -1; RemovedCount: -1; ParcelableData: null ]'
p2202
sS'MovementGranularity'
p2203
g6
sa(dp2204
S'EventTime'
p2205
S'516627284'
p2206
sg4
L1449718017396L
sS'recordCount'
p2207
g6
sS'EventType'
p2208
S'TYPE_WINDOW_CONTENT_CHANGED'
p2209
sS'PackageName'
p2210
S'com.xdf.ucan'
p2211
sS'OutBounds'
p2212
S'Rect(290, 1001 - 430, 1034)'
p2213
sS'Action'
p2214
S'[ ClassName: android.widget.TextView; Text: []; ContentDescription: null; ItemCount: -1; CurrentItemIndex: -1; IsEnabled: true; IsPassword: false; IsChecked: false; IsFullScreen: false; Scrollable: false; BeforeText: null; FromIndex: -1; ToIndex: -1; ScrollX: -1; ScrollY: -1; MaxScrollX: -1; MaxScrollY: -1; AddedCount: -1; RemovedCount: -1; ParcelableData: null ]'
p2215
sS'MovementGranularity'
p2216
g6
sa(dp2217
S'EventTime'
p2218
S'516628035'
p2219
sg4
L1449718018131L
sS'recordCount'
p2220
g6
sS'EventType'
p2221
S'TYPE_VIEW_CLICKED'
p2222
sS'PackageName'
p2223
S'com.xdf.ucan'
p2224
sS'OutBounds'
p2225
S'Rect(10, 845 - 244, 1044)'
p2226
sS'Action'
p2227
S'[ ClassName: android.widget.LinearLayout; Text: [\xe5\xbe\xae\xe4\xbf\xa1\xe5\xa5\xbd\xe5\x8f\x8b]; ContentDescription: null; ItemCount: -1; CurrentItemIndex: -1; IsEnabled: true; IsPassword: false; IsChecked: false; IsFullScreen: false; Scrollable: false; BeforeText: null; FromIndex: -1; ToIndex: -1; ScrollX: -1; ScrollY: -1; MaxScrollX: -1; MaxScrollY: -1; AddedCount: -1; RemovedCount: -1; ParcelableData: null ]'
p2228
sS'MovementGranularity'
p2229
g6
sa(dp2230
S'EventTime'
p2231
S'516628043'
p2232
sg4
L1449718018150L
sS'recordCount'
p2233
g6
sS'EventType'
p2234
S'TYPE_NOTIFICATION_STATE_CHANGED'
p2235
sS'PackageName'
p2236
S'com.xdf.ucan'
p2237
sS'Action'
p2238
S'[ ClassName: android.widget.Toast$TN; Text: [\xe5\x88\x86\xe4\xba\xab\xe6\x93\x8d\xe4\xbd\x9c\xe6\xad\xa3\xe5\x9c\xa8\xe5\x90\x8e\xe5\x8f\xb0\xe8\xbf\x9b\xe8\xa1\x8c\xe2\x80\xa6]; ContentDescription: null; ItemCount: -1; CurrentItemIndex: -1; IsEnabled: false; IsPassword: false; IsChecked: false; IsFullScreen: false; Scrollable: false; BeforeText: null; FromIndex: -1; ToIndex: -1; ScrollX: -1; ScrollY: -1; MaxScrollX: -1; MaxScrollY: -1; AddedCount: -1; RemovedCount: -1; ParcelableData: null ]'
p2239
sS'MovementGranularity'
p2240
g6
sa(dp2241
S'EventTime'
p2242
S'516628592'
p2243
sg4
L1449718018695L
sS'recordCount'
p2244
g6
sS'EventType'
p2245
S'TYPE_WINDOW_STATE_CHANGED'
p2246
sS'PackageName'
p2247
S'com.xdf.ucan'
p2248
sS'OutBounds'
p2249
S'Rect(0, 0 - 720, 1184)'
p2250
sS'Action'
p2251
S'[ ClassName: com.xdf.ucan.ui.material.MaterialActivity; Text: [\xe4\xbc\x98\xe6\x92\xad\xe8\xaf\xbe]; ContentDescription: null; ItemCount: -1; CurrentItemIndex: -1; IsEnabled: true; IsPassword: false; IsChecked: false; IsFullScreen: true; Scrollable: false; BeforeText: null; FromIndex: -1; ToIndex: -1; ScrollX: -1; ScrollY: -1; MaxScrollX: -1; MaxScrollY: -1; AddedCount: -1; RemovedCount: -1; ParcelableData: null ]'
p2252
sS'MovementGranularity'
p2253
g6
sa(dp2254
S'EventTime'
p2255
S'516640340'
p2256
sg4
L1449718030437L
sS'recordCount'
p2257
g6
sS'EventType'
p2258
S'TYPE_VIEW_CLICKED'
p2259
sS'PackageName'
p2260
S'com.xdf.ucan'
p2261
sS'OutBounds'
p2262
S'Rect(658, 50 - 700, 138)'
p2263
sS'Action'
p2264
S'[ ClassName: android.widget.TextView; Text: []; ContentDescription: null; ItemCount: -1; CurrentItemIndex: -1; IsEnabled: true; IsPassword: false; IsChecked: false; IsFullScreen: false; Scrollable: false; BeforeText: null; FromIndex: -1; ToIndex: -1; ScrollX: -1; ScrollY: -1; MaxScrollX: -1; MaxScrollY: -1; AddedCount: -1; RemovedCount: -1; ParcelableData: null ]'
p2265
sS'MovementGranularity'
p2266
g6
sa(dp2267
S'EventTime'
p2268
S'516640447'
p2269
sg4
L1449718030565L
sS'recordCount'
p2270
g6
sS'EventType'
p2271
S'TYPE_WINDOW_STATE_CHANGED'
p2272
sS'PackageName'
p2273
S'com.xdf.ucan'
p2274
sS'OutBounds'
p2275
S'Rect(0, 0 - 720, 1184)'
p2276
sS'Action'
p2277
S'[ ClassName: com.mob.tools.MobUIShell; Text: [\xe4\xbc\x98\xe6\x92\xad\xe8\xaf\xbe]; ContentDescription: null; ItemCount: -1; CurrentItemIndex: -1; IsEnabled: true; IsPassword: false; IsChecked: false; IsFullScreen: true; Scrollable: false; BeforeText: null; FromIndex: -1; ToIndex: -1; ScrollX: -1; ScrollY: -1; MaxScrollX: -1; MaxScrollY: -1; AddedCount: -1; RemovedCount: -1; ParcelableData: null ]'
p2278
sS'MovementGranularity'
p2279
g6
sa(dp2280
S'EventTime'
p2281
S'516640521'
p2282
sg4
L1449718030624L
sS'recordCount'
p2283
g6
sS'EventType'
p2284
S'TYPE_WINDOW_CONTENT_CHANGED'
p2285
sS'PackageName'
p2286
S'com.xdf.ucan'
p2287
sS'OutBounds'
p2288
S'Rect(574, 1001 - 612, 1034)'
p2289
sS'Action'
p2290
S'[ ClassName: android.widget.TextView; Text: []; ContentDescription: null; ItemCount: -1; CurrentItemIndex: -1; IsEnabled: true; IsPassword: false; IsChecked: false; IsFullScreen: false; Scrollable: false; BeforeText: null; FromIndex: -1; ToIndex: -1; ScrollX: -1; ScrollY: -1; MaxScrollX: -1; MaxScrollY: -1; AddedCount: -1; RemovedCount: -1; ParcelableData: null ]'
p2291
sS'MovementGranularity'
p2292
g6
sa(dp2293
S'EventTime'
p2294
S'516640627'
p2295
sg4
L1449718030738L
sS'recordCount'
p2296
g6
sS'EventType'
p2297
S'TYPE_WINDOW_CONTENT_CHANGED'
p2298
sS'PackageName'
p2299
S'com.xdf.ucan'
p2300
sS'OutBounds'
p2301
S'Rect(574, 1001 - 612, 1034)'
p2302
sS'Action'
p2303
S'[ ClassName: android.widget.TextView; Text: []; ContentDescription: null; ItemCount: -1; CurrentItemIndex: -1; IsEnabled: true; IsPassword: false; IsChecked: false; IsFullScreen: false; Scrollable: false; BeforeText: null; FromIndex: -1; ToIndex: -1; ScrollX: -1; ScrollY: -1; MaxScrollX: -1; MaxScrollY: -1; AddedCount: -1; RemovedCount: -1; ParcelableData: null ]'
p2304
sS'MovementGranularity'
p2305
g6
sa(dp2306
S'EventTime'
p2307
S'516647856'
p2308
sg4
L1449718037954L
sS'recordCount'
p2309
g6
sS'EventType'
p2310
S'TYPE_VIEW_CLICKED'
p2311
sS'PackageName'
p2312
S'com.xdf.ucan'
p2313
sS'OutBounds'
p2314
S'Rect(10, 845 - 244, 1044)'
p2315
sS'Action'
p2316
S'[ ClassName: android.widget.LinearLayout; Text: [\xe5\xbe\xae\xe4\xbf\xa1\xe5\xa5\xbd\xe5\x8f\x8b]; ContentDescription: null; ItemCount: -1; CurrentItemIndex: -1; IsEnabled: true; IsPassword: false; IsChecked: false; IsFullScreen: false; Scrollable: false; BeforeText: null; FromIndex: -1; ToIndex: -1; ScrollX: -1; ScrollY: -1; MaxScrollX: -1; MaxScrollY: -1; AddedCount: -1; RemovedCount: -1; ParcelableData: null ]'
p2317
sS'MovementGranularity'
p2318
g6
sa(dp2319
S'EventTime'
p2320
S'516647862'
p2321
sg4
L1449718037978L
sS'recordCount'
p2322
g6
sS'EventType'
p2323
S'TYPE_NOTIFICATION_STATE_CHANGED'
p2324
sS'PackageName'
p2325
S'com.xdf.ucan'
p2326
sS'Action'
p2327
S'[ ClassName: android.widget.Toast$TN; Text: [\xe5\x88\x86\xe4\xba\xab\xe6\x93\x8d\xe4\xbd\x9c\xe6\xad\xa3\xe5\x9c\xa8\xe5\x90\x8e\xe5\x8f\xb0\xe8\xbf\x9b\xe8\xa1\x8c\xe2\x80\xa6]; ContentDescription: null; ItemCount: -1; CurrentItemIndex: -1; IsEnabled: false; IsPassword: false; IsChecked: false; IsFullScreen: false; Scrollable: false; BeforeText: null; FromIndex: -1; ToIndex: -1; ScrollX: -1; ScrollY: -1; MaxScrollX: -1; MaxScrollY: -1; AddedCount: -1; RemovedCount: -1; ParcelableData: null ]'
p2328
sS'MovementGranularity'
p2329
g6
sa(dp2330
S'EventTime'
p2331
S'516648443'
p2332
sg4
L1449718038544L
sS'recordCount'
p2333
g6
sS'EventType'
p2334
S'TYPE_WINDOW_STATE_CHANGED'
p2335
sS'PackageName'
p2336
S'com.xdf.ucan'
p2337
sS'OutBounds'
p2338
S'Rect(0, 0 - 720, 1184)'
p2339
sS'Action'
p2340
S'[ ClassName: com.xdf.ucan.ui.material.MaterialActivity; Text: [\xe4\xbc\x98\xe6\x92\xad\xe8\xaf\xbe]; ContentDescription: null; ItemCount: -1; CurrentItemIndex: -1; IsEnabled: true; IsPassword: false; IsChecked: false; IsFullScreen: true; Scrollable: false; BeforeText: null; FromIndex: -1; ToIndex: -1; ScrollX: -1; ScrollY: -1; MaxScrollX: -1; MaxScrollY: -1; AddedCount: -1; RemovedCount: -1; ParcelableData: null ]'
p2341
sS'MovementGranularity'
p2342
g6
sa(dp2343
S'EventTime'
p2344
S'516651668'
p2345
sg4
L1449718041771L
sS'recordCount'
p2346
g6
sS'EventType'
p2347
S'TYPE_WINDOW_STATE_CHANGED'
p2348
sS'PackageName'
p2349
S'com.xdf.ucan'
p2350
sS'OutBounds'
p2351
S'Rect(0, 0 - 720, 1184)'
p2352
sS'Action'
p2353
S'[ ClassName: com.xdf.ucan.ui.material.MaterialActivity; Text: [\xe4\xbc\x98\xe6\x92\xad\xe8\xaf\xbe]; ContentDescription: null; ItemCount: -1; CurrentItemIndex: -1; IsEnabled: true; IsPassword: false; IsChecked: false; IsFullScreen: true; Scrollable: false; BeforeText: null; FromIndex: -1; ToIndex: -1; ScrollX: -1; ScrollY: -1; MaxScrollX: -1; MaxScrollY: -1; AddedCount: -1; RemovedCount: -1; ParcelableData: null ]'
p2354
sS'MovementGranularity'
p2355
g6
sa(dp2356
S'EventTime'
p2357
S'516653839'
p2358
sg4
L1449718043936L
sS'recordCount'
p2359
g6
sS'EventType'
p2360
S'TYPE_VIEW_CLICKED'
p2361
sS'PackageName'
p2362
S'com.xdf.ucan'
p2363
sS'OutBounds'
p2364
S'Rect(658, 50 - 700, 138)'
p2365
sS'Action'
p2366
S'[ ClassName: android.widget.TextView; Text: []; ContentDescription: null; ItemCount: -1; CurrentItemIndex: -1; IsEnabled: true; IsPassword: false; IsChecked: false; IsFullScreen: false; Scrollable: false; BeforeText: null; FromIndex: -1; ToIndex: -1; ScrollX: -1; ScrollY: -1; MaxScrollX: -1; MaxScrollY: -1; AddedCount: -1; RemovedCount: -1; ParcelableData: null ]'
p2367
sS'MovementGranularity'
p2368
g6
sa(dp2369
S'EventTime'
p2370
S'516653941'
p2371
sg4
L1449718044056L
sS'recordCount'
p2372
g6
sS'EventType'
p2373
S'TYPE_WINDOW_STATE_CHANGED'
p2374
sS'PackageName'
p2375
S'com.xdf.ucan'
p2376
sS'OutBounds'
p2377
S'Rect(0, 0 - 720, 1184)'
p2378
sS'Action'
p2379
S'[ ClassName: com.mob.tools.MobUIShell; Text: [\xe4\xbc\x98\xe6\x92\xad\xe8\xaf\xbe]; ContentDescription: null; ItemCount: -1; CurrentItemIndex: -1; IsEnabled: true; IsPassword: false; IsChecked: false; IsFullScreen: true; Scrollable: false; BeforeText: null; FromIndex: -1; ToIndex: -1; ScrollX: -1; ScrollY: -1; MaxScrollX: -1; MaxScrollY: -1; AddedCount: -1; RemovedCount: -1; ParcelableData: null ]'
p2380
sS'MovementGranularity'
p2381
g6
sa(dp2382
S'EventTime'
p2383
S'516654006'
p2384
sg4
L1449718044116L
sS'recordCount'
p2385
g6
sS'EventType'
p2386
S'TYPE_WINDOW_CONTENT_CHANGED'
p2387
sS'PackageName'
p2388
S'com.xdf.ucan'
p2389
sS'OutBounds'
p2390
S'Rect(574, 1001 - 612, 1034)'
p2391
sS'Action'
p2392
S'[ ClassName: android.widget.TextView; Text: []; ContentDescription: null; ItemCount: -1; CurrentItemIndex: -1; IsEnabled: true; IsPassword: false; IsChecked: false; IsFullScreen: false; Scrollable: false; BeforeText: null; FromIndex: -1; ToIndex: -1; ScrollX: -1; ScrollY: -1; MaxScrollX: -1; MaxScrollY: -1; AddedCount: -1; RemovedCount: -1; ParcelableData: null ]'
p2393
sS'MovementGranularity'
p2394
g6
sa(dp2395
S'EventTime'
p2396
S'516654118'
p2397
sg4
L1449718044231L
sS'recordCount'
p2398
g6
sS'EventType'
p2399
S'TYPE_WINDOW_CONTENT_CHANGED'
p2400
sS'PackageName'
p2401
S'com.xdf.ucan'
p2402
sS'OutBounds'
p2403
S'Rect(574, 1001 - 612, 1034)'
p2404
sS'Action'
p2405
S'[ ClassName: android.widget.TextView; Text: []; ContentDescription: null; ItemCount: -1; CurrentItemIndex: -1; IsEnabled: true; IsPassword: false; IsChecked: false; IsFullScreen: false; Scrollable: false; BeforeText: null; FromIndex: -1; ToIndex: -1; ScrollX: -1; ScrollY: -1; MaxScrollX: -1; MaxScrollY: -1; AddedCount: -1; RemovedCount: -1; ParcelableData: null ]'
p2406
sS'MovementGranularity'
p2407
g6
sa(dp2408
S'EventTime'
p2409
S'516655467'
p2410
sg4
L1449718045563L
sS'recordCount'
p2411
g6
sS'EventType'
p2412
S'TYPE_VIEW_CLICKED'
p2413
sS'PackageName'
p2414
S'com.xdf.ucan'
p2415
sS'OutBounds'
p2416
S'Rect(244, 845 - 477, 1044)'
p2417
sS'Action'
p2418
S'[ ClassName: android.widget.LinearLayout; Text: [\xe5\xbe\xae\xe4\xbf\xa1\xe6\x9c\x8b\xe5\x8f\x8b\xe5\x9c\x88]; ContentDescription: null; ItemCount: -1; CurrentItemIndex: -1; IsEnabled: true; IsPassword: false; IsChecked: false; IsFullScreen: false; Scrollable: false; BeforeText: null; FromIndex: -1; ToIndex: -1; ScrollX: -1; ScrollY: -1; MaxScrollX: -1; MaxScrollY: -1; AddedCount: -1; RemovedCount: -1; ParcelableData: null ]'
p2419
sS'MovementGranularity'
p2420
g6
sa(dp2421
S'EventTime'
p2422
S'516655475'
p2423
sg4
L1449718045587L
sS'recordCount'
p2424
g6
sS'EventType'
p2425
S'TYPE_NOTIFICATION_STATE_CHANGED'
p2426
sS'PackageName'
p2427
S'com.xdf.ucan'
p2428
sS'Action'
p2429
S'[ ClassName: android.widget.Toast$TN; Text: [\xe5\x88\x86\xe4\xba\xab\xe6\x93\x8d\xe4\xbd\x9c\xe6\xad\xa3\xe5\x9c\xa8\xe5\x90\x8e\xe5\x8f\xb0\xe8\xbf\x9b\xe8\xa1\x8c\xe2\x80\xa6]; ContentDescription: null; ItemCount: -1; CurrentItemIndex: -1; IsEnabled: false; IsPassword: false; IsChecked: false; IsFullScreen: false; Scrollable: false; BeforeText: null; FromIndex: -1; ToIndex: -1; ScrollX: -1; ScrollY: -1; MaxScrollX: -1; MaxScrollY: -1; AddedCount: -1; RemovedCount: -1; ParcelableData: null ]'
p2430
sS'MovementGranularity'
p2431
g6
sa(dp2432
S'EventTime'
p2433
S'516656064'
p2434
sg4
L1449718046166L
sS'recordCount'
p2435
g6
sS'EventType'
p2436
S'TYPE_WINDOW_STATE_CHANGED'
p2437
sS'PackageName'
p2438
S'com.xdf.ucan'
p2439
sS'OutBounds'
p2440
S'Rect(0, 0 - 720, 1184)'
p2441
sS'Action'
p2442
S'[ ClassName: com.xdf.ucan.ui.material.MaterialActivity; Text: [\xe4\xbc\x98\xe6\x92\xad\xe8\xaf\xbe]; ContentDescription: null; ItemCount: -1; CurrentItemIndex: -1; IsEnabled: true; IsPassword: false; IsChecked: false; IsFullScreen: true; Scrollable: false; BeforeText: null; FromIndex: -1; ToIndex: -1; ScrollX: -1; ScrollY: -1; MaxScrollX: -1; MaxScrollY: -1; AddedCount: -1; RemovedCount: -1; ParcelableData: null ]'
p2443
sS'MovementGranularity'
p2444
g6
sa(dp2445
S'EventTime'
p2446
S'516658293'
p2447
sg4
L1449718048390L
sS'recordCount'
p2448
g6
sS'EventType'
p2449
S'TYPE_VIEW_CLICKED'
p2450
sS'PackageName'
p2451
S'com.xdf.ucan'
p2452
sS'OutBounds'
p2453
S'Rect(658, 50 - 700, 138)'
p2454
sS'Action'
p2455
S'[ ClassName: android.widget.TextView; Text: []; ContentDescription: null; ItemCount: -1; CurrentItemIndex: -1; IsEnabled: true; IsPassword: false; IsChecked: false; IsFullScreen: false; Scrollable: false; BeforeText: null; FromIndex: -1; ToIndex: -1; ScrollX: -1; ScrollY: -1; MaxScrollX: -1; MaxScrollY: -1; AddedCount: -1; RemovedCount: -1; ParcelableData: null ]'
p2456
sS'MovementGranularity'
p2457
g6
sa(dp2458
S'EventTime'
p2459
S'516658401'
p2460
sg4
L1449718048515L
sS'recordCount'
p2461
g6
sS'EventType'
p2462
S'TYPE_WINDOW_STATE_CHANGED'
p2463
sS'PackageName'
p2464
S'com.xdf.ucan'
p2465
sS'OutBounds'
p2466
S'Rect(0, 0 - 720, 1184)'
p2467
sS'Action'
p2468
S'[ ClassName: com.mob.tools.MobUIShell; Text: [\xe4\xbc\x98\xe6\x92\xad\xe8\xaf\xbe]; ContentDescription: null; ItemCount: -1; CurrentItemIndex: -1; IsEnabled: true; IsPassword: false; IsChecked: false; IsFullScreen: true; Scrollable: false; BeforeText: null; FromIndex: -1; ToIndex: -1; ScrollX: -1; ScrollY: -1; MaxScrollX: -1; MaxScrollY: -1; AddedCount: -1; RemovedCount: -1; ParcelableData: null ]'
p2469
sS'MovementGranularity'
p2470
g6
sa(dp2471
S'EventTime'
p2472
S'516658466'
p2473
sg4
L1449718048575L
sS'recordCount'
p2474
g6
sS'EventType'
p2475
S'TYPE_WINDOW_CONTENT_CHANGED'
p2476
sS'PackageName'
p2477
S'com.xdf.ucan'
p2478
sS'OutBounds'
p2479
S'Rect(574, 1001 - 612, 1034)'
p2480
sS'Action'
p2481
S'[ ClassName: android.widget.TextView; Text: []; ContentDescription: null; ItemCount: -1; CurrentItemIndex: -1; IsEnabled: true; IsPassword: false; IsChecked: false; IsFullScreen: false; Scrollable: false; BeforeText: null; FromIndex: -1; ToIndex: -1; ScrollX: -1; ScrollY: -1; MaxScrollX: -1; MaxScrollY: -1; AddedCount: -1; RemovedCount: -1; ParcelableData: null ]'
p2482
sS'MovementGranularity'
p2483
g6
sa(dp2484
S'EventTime'
p2485
S'516658577'
p2486
sg4
L1449718048689L
sS'recordCount'
p2487
g6
sS'EventType'
p2488
S'TYPE_WINDOW_CONTENT_CHANGED'
p2489
sS'PackageName'
p2490
S'com.xdf.ucan'
p2491
sS'OutBounds'
p2492
S'Rect(574, 1001 - 612, 1034)'
p2493
sS'Action'
p2494
S'[ ClassName: android.widget.TextView; Text: []; ContentDescription: null; ItemCount: -1; CurrentItemIndex: -1; IsEnabled: true; IsPassword: false; IsChecked: false; IsFullScreen: false; Scrollable: false; BeforeText: null; FromIndex: -1; ToIndex: -1; ScrollX: -1; ScrollY: -1; MaxScrollX: -1; MaxScrollY: -1; AddedCount: -1; RemovedCount: -1; ParcelableData: null ]'
p2495
sS'MovementGranularity'
p2496
g6
sa(dp2497
S'EventTime'
p2498
S'516659078'
p2499
sg4
L1449718049176L
sS'recordCount'
p2500
g6
sS'EventType'
p2501
S'TYPE_VIEW_CLICKED'
p2502
sS'PackageName'
p2503
S'com.xdf.ucan'
p2504
sS'OutBounds'
p2505
S'Rect(10, 845 - 244, 1044)'
p2506
sS'Action'
p2507
S'[ ClassName: android.widget.LinearLayout; Text: [\xe5\xbe\xae\xe4\xbf\xa1\xe5\xa5\xbd\xe5\x8f\x8b]; ContentDescription: null; ItemCount: -1; CurrentItemIndex: -1; IsEnabled: true; IsPassword: false; IsChecked: false; IsFullScreen: false; Scrollable: false; BeforeText: null; FromIndex: -1; ToIndex: -1; ScrollX: -1; ScrollY: -1; MaxScrollX: -1; MaxScrollY: -1; AddedCount: -1; RemovedCount: -1; ParcelableData: null ]'
p2508
sS'MovementGranularity'
p2509
g6
sa(dp2510
S'EventTime'
p2511
S'516659086'
p2512
sg4
L1449718049189L
sS'recordCount'
p2513
g6
sS'EventType'
p2514
S'TYPE_NOTIFICATION_STATE_CHANGED'
p2515
sS'PackageName'
p2516
S'com.xdf.ucan'
p2517
sS'Action'
p2518
S'[ ClassName: android.widget.Toast$TN; Text: [\xe5\x88\x86\xe4\xba\xab\xe6\x93\x8d\xe4\xbd\x9c\xe6\xad\xa3\xe5\x9c\xa8\xe5\x90\x8e\xe5\x8f\xb0\xe8\xbf\x9b\xe8\xa1\x8c\xe2\x80\xa6]; ContentDescription: null; ItemCount: -1; CurrentItemIndex: -1; IsEnabled: false; IsPassword: false; IsChecked: false; IsFullScreen: false; Scrollable: false; BeforeText: null; FromIndex: -1; ToIndex: -1; ScrollX: -1; ScrollY: -1; MaxScrollX: -1; MaxScrollY: -1; AddedCount: -1; RemovedCount: -1; ParcelableData: null ]'
p2519
sS'MovementGranularity'
p2520
g6
sa(dp2521
S'EventTime'
p2522
S'516659590'
p2523
sg4
L1449718049691L
sS'recordCount'
p2524
g6
sS'EventType'
p2525
S'TYPE_WINDOW_STATE_CHANGED'
p2526
sS'PackageName'
p2527
S'com.xdf.ucan'
p2528
sS'OutBounds'
p2529
S'Rect(0, 0 - 720, 1184)'
p2530
sS'Action'
p2531
S'[ ClassName: com.xdf.ucan.ui.material.MaterialActivity; Text: [\xe4\xbc\x98\xe6\x92\xad\xe8\xaf\xbe]; ContentDescription: null; ItemCount: -1; CurrentItemIndex: -1; IsEnabled: true; IsPassword: false; IsChecked: false; IsFullScreen: true; Scrollable: false; BeforeText: null; FromIndex: -1; ToIndex: -1; ScrollX: -1; ScrollY: -1; MaxScrollX: -1; MaxScrollY: -1; AddedCount: -1; RemovedCount: -1; ParcelableData: null ]'
p2532
sS'MovementGranularity'
p2533
g6
sa(dp2534
S'EventTime'
p2535
S'516661425'
p2536
sg4
L1449718051522L
sS'recordCount'
p2537
g6
sS'EventType'
p2538
S'TYPE_VIEW_CLICKED'
p2539
sS'PackageName'
p2540
S'com.xdf.ucan'
p2541
sS'OutBounds'
p2542
S'Rect(658, 50 - 700, 138)'
p2543
sS'Action'
p2544
S'[ ClassName: android.widget.TextView; Text: []; ContentDescription: null; ItemCount: -1; CurrentItemIndex: -1; IsEnabled: true; IsPassword: false; IsChecked: false; IsFullScreen: false; Scrollable: false; BeforeText: null; FromIndex: -1; ToIndex: -1; ScrollX: -1; ScrollY: -1; MaxScrollX: -1; MaxScrollY: -1; AddedCount: -1; RemovedCount: -1; ParcelableData: null ]'
p2545
sS'MovementGranularity'
p2546
g6
sa(dp2547
S'EventTime'
p2548
S'516661532'
p2549
sg4
L1449718051647L
sS'recordCount'
p2550
g6
sS'EventType'
p2551
S'TYPE_WINDOW_STATE_CHANGED'
p2552
sS'PackageName'
p2553
S'com.xdf.ucan'
p2554
sS'OutBounds'
p2555
S'Rect(0, 0 - 720, 1184)'
p2556
sS'Action'
p2557
S'[ ClassName: com.mob.tools.MobUIShell; Text: [\xe4\xbc\x98\xe6\x92\xad\xe8\xaf\xbe]; ContentDescription: null; ItemCount: -1; CurrentItemIndex: -1; IsEnabled: true; IsPassword: false; IsChecked: false; IsFullScreen: true; Scrollable: false; BeforeText: null; FromIndex: -1; ToIndex: -1; ScrollX: -1; ScrollY: -1; MaxScrollX: -1; MaxScrollY: -1; AddedCount: -1; RemovedCount: -1; ParcelableData: null ]'
p2558
sS'MovementGranularity'
p2559
g6
sa(dp2560
S'EventTime'
p2561
S'516661602'
p2562
sg4
L1449718051706L
sS'recordCount'
p2563
g6
sS'EventType'
p2564
S'TYPE_WINDOW_CONTENT_CHANGED'
p2565
sS'PackageName'
p2566
S'com.xdf.ucan'
p2567
sS'OutBounds'
p2568
S'Rect(574, 1001 - 612, 1034)'
p2569
sS'Action'
p2570
S'[ ClassName: android.widget.TextView; Text: []; ContentDescription: null; ItemCount: -1; CurrentItemIndex: -1; IsEnabled: true; IsPassword: false; IsChecked: false; IsFullScreen: false; Scrollable: false; BeforeText: null; FromIndex: -1; ToIndex: -1; ScrollX: -1; ScrollY: -1; MaxScrollX: -1; MaxScrollY: -1; AddedCount: -1; RemovedCount: -1; ParcelableData: null ]'
p2571
sS'MovementGranularity'
p2572
g6
sa(dp2573
S'EventTime'
p2574
S'516661708'
p2575
sg4
L1449718051821L
sS'recordCount'
p2576
g6
sS'EventType'
p2577
S'TYPE_WINDOW_CONTENT_CHANGED'
p2578
sS'PackageName'
p2579
S'com.xdf.ucan'
p2580
sS'OutBounds'
p2581
S'Rect(574, 1001 - 612, 1034)'
p2582
sS'Action'
p2583
S'[ ClassName: android.widget.TextView; Text: []; ContentDescription: null; ItemCount: -1; CurrentItemIndex: -1; IsEnabled: true; IsPassword: false; IsChecked: false; IsFullScreen: false; Scrollable: false; BeforeText: null; FromIndex: -1; ToIndex: -1; ScrollX: -1; ScrollY: -1; MaxScrollX: -1; MaxScrollY: -1; AddedCount: -1; RemovedCount: -1; ParcelableData: null ]'
p2584
sS'MovementGranularity'
p2585
g6
sa(dp2586
S'EventTime'
p2587
S'516662292'
p2588
sg4
L1449718052389L
sS'recordCount'
p2589
g6
sS'EventType'
p2590
S'TYPE_VIEW_CLICKED'
p2591
sS'PackageName'
p2592
S'com.xdf.ucan'
p2593
sS'OutBounds'
p2594
S'Rect(10, 845 - 244, 1044)'
p2595
sS'Action'
p2596
S'[ ClassName: android.widget.LinearLayout; Text: [\xe5\xbe\xae\xe4\xbf\xa1\xe5\xa5\xbd\xe5\x8f\x8b]; ContentDescription: null; ItemCount: -1; CurrentItemIndex: -1; IsEnabled: true; IsPassword: false; IsChecked: false; IsFullScreen: false; Scrollable: false; BeforeText: null; FromIndex: -1; ToIndex: -1; ScrollX: -1; ScrollY: -1; MaxScrollX: -1; MaxScrollY: -1; AddedCount: -1; RemovedCount: -1; ParcelableData: null ]'
p2597
sS'MovementGranularity'
p2598
g6
sa(dp2599
S'EventTime'
p2600
S'516662299'
p2601
sg4
L1449718052421L
sS'recordCount'
p2602
g6
sS'EventType'
p2603
S'TYPE_NOTIFICATION_STATE_CHANGED'
p2604
sS'PackageName'
p2605
S'com.xdf.ucan'
p2606
sS'Action'
p2607
S'[ ClassName: android.widget.Toast$TN; Text: [\xe5\x88\x86\xe4\xba\xab\xe6\x93\x8d\xe4\xbd\x9c\xe6\xad\xa3\xe5\x9c\xa8\xe5\x90\x8e\xe5\x8f\xb0\xe8\xbf\x9b\xe8\xa1\x8c\xe2\x80\xa6]; ContentDescription: null; ItemCount: -1; CurrentItemIndex: -1; IsEnabled: false; IsPassword: false; IsChecked: false; IsFullScreen: false; Scrollable: false; BeforeText: null; FromIndex: -1; ToIndex: -1; ScrollX: -1; ScrollY: -1; MaxScrollX: -1; MaxScrollY: -1; AddedCount: -1; RemovedCount: -1; ParcelableData: null ]'
p2608
sS'MovementGranularity'
p2609
g6
sa(dp2610
S'EventTime'
p2611
S'516662854'
p2612
sg4
L1449718052955L
sS'recordCount'
p2613
g6
sS'EventType'
p2614
S'TYPE_WINDOW_STATE_CHANGED'
p2615
sS'PackageName'
p2616
S'com.xdf.ucan'
p2617
sS'OutBounds'
p2618
S'Rect(0, 0 - 720, 1184)'
p2619
sS'Action'
p2620
S'[ ClassName: com.xdf.ucan.ui.material.MaterialActivity; Text: [\xe4\xbc\x98\xe6\x92\xad\xe8\xaf\xbe]; ContentDescription: null; ItemCount: -1; CurrentItemIndex: -1; IsEnabled: true; IsPassword: false; IsChecked: false; IsFullScreen: true; Scrollable: false; BeforeText: null; FromIndex: -1; ToIndex: -1; ScrollX: -1; ScrollY: -1; MaxScrollX: -1; MaxScrollY: -1; AddedCount: -1; RemovedCount: -1; ParcelableData: null ]'
p2621
sS'MovementGranularity'
p2622
g6
sa(dp2623
S'EventTime'
p2624
S'516670451'
p2625
sg4
L1449718060549L
sS'recordCount'
p2626
g6
sS'EventType'
p2627
S'TYPE_VIEW_CLICKED'
p2628
sS'PackageName'
p2629
S'com.xdf.ucan'
p2630
sS'OutBounds'
p2631
S'Rect(658, 50 - 700, 138)'
p2632
sS'Action'
p2633
S'[ ClassName: android.widget.TextView; Text: []; ContentDescription: null; ItemCount: -1; CurrentItemIndex: -1; IsEnabled: true; IsPassword: false; IsChecked: false; IsFullScreen: false; Scrollable: false; BeforeText: null; FromIndex: -1; ToIndex: -1; ScrollX: -1; ScrollY: -1; MaxScrollX: -1; MaxScrollY: -1; AddedCount: -1; RemovedCount: -1; ParcelableData: null ]'
p2634
sS'MovementGranularity'
p2635
g6
sa(dp2636
S'EventTime'
p2637
S'516670546'
p2638
sg4
L1449718060660L
sS'recordCount'
p2639
g6
sS'EventType'
p2640
S'TYPE_WINDOW_STATE_CHANGED'
p2641
sS'PackageName'
p2642
S'com.xdf.ucan'
p2643
sS'OutBounds'
p2644
S'Rect(0, 0 - 720, 1184)'
p2645
sS'Action'
p2646
S'[ ClassName: com.mob.tools.MobUIShell; Text: [\xe4\xbc\x98\xe6\x92\xad\xe8\xaf\xbe]; ContentDescription: null; ItemCount: -1; CurrentItemIndex: -1; IsEnabled: true; IsPassword: false; IsChecked: false; IsFullScreen: true; Scrollable: false; BeforeText: null; FromIndex: -1; ToIndex: -1; ScrollX: -1; ScrollY: -1; MaxScrollX: -1; MaxScrollY: -1; AddedCount: -1; RemovedCount: -1; ParcelableData: null ]'
p2647
sS'MovementGranularity'
p2648
g6
sa(dp2649
S'EventTime'
p2650
S'516670628'
p2651
sg4
L1449718060739L
sS'recordCount'
p2652
g6
sS'EventType'
p2653
S'TYPE_WINDOW_CONTENT_CHANGED'
p2654
sS'PackageName'
p2655
S'com.xdf.ucan'
p2656
sS'OutBounds'
p2657
S'Rect(574, 1001 - 612, 1034)'
p2658
sS'Action'
p2659
S'[ ClassName: android.widget.TextView; Text: []; ContentDescription: null; ItemCount: -1; CurrentItemIndex: -1; IsEnabled: true; IsPassword: false; IsChecked: false; IsFullScreen: false; Scrollable: false; BeforeText: null; FromIndex: -1; ToIndex: -1; ScrollX: -1; ScrollY: -1; MaxScrollX: -1; MaxScrollY: -1; AddedCount: -1; RemovedCount: -1; ParcelableData: null ]'
p2660
sS'MovementGranularity'
p2661
g6
sa(dp2662
S'EventTime'
p2663
S'516671354'
p2664
sg4
L1449718061452L
sS'recordCount'
p2665
g6
sS'EventType'
p2666
S'TYPE_VIEW_CLICKED'
p2667
sS'PackageName'
p2668
S'com.xdf.ucan'
p2669
sS'OutBounds'
p2670
S'Rect(10, 845 - 244, 1044)'
p2671
sS'Action'
p2672
S'[ ClassName: android.widget.LinearLayout; Text: [\xe5\xbe\xae\xe4\xbf\xa1\xe5\xa5\xbd\xe5\x8f\x8b]; ContentDescription: null; ItemCount: -1; CurrentItemIndex: -1; IsEnabled: true; IsPassword: false; IsChecked: false; IsFullScreen: false; Scrollable: false; BeforeText: null; FromIndex: -1; ToIndex: -1; ScrollX: -1; ScrollY: -1; MaxScrollX: -1; MaxScrollY: -1; AddedCount: -1; RemovedCount: -1; ParcelableData: null ]'
p2673
sS'MovementGranularity'
p2674
g6
sa(dp2675
S'EventTime'
p2676
S'516671936'
p2677
sg4
L1449718062037L
sS'recordCount'
p2678
g6
sS'EventType'
p2679
S'TYPE_WINDOW_STATE_CHANGED'
p2680
sS'PackageName'
p2681
S'com.xdf.ucan'
p2682
sS'OutBounds'
p2683
S'Rect(0, 0 - 720, 1184)'
p2684
sS'Action'
p2685
S'[ ClassName: com.xdf.ucan.ui.material.MaterialActivity; Text: [\xe4\xbc\x98\xe6\x92\xad\xe8\xaf\xbe]; ContentDescription: null; ItemCount: -1; CurrentItemIndex: -1; IsEnabled: true; IsPassword: false; IsChecked: false; IsFullScreen: true; Scrollable: false; BeforeText: null; FromIndex: -1; ToIndex: -1; ScrollX: -1; ScrollY: -1; MaxScrollX: -1; MaxScrollY: -1; AddedCount: -1; RemovedCount: -1; ParcelableData: null ]'
p2686
sS'MovementGranularity'
p2687
g6
sa(dp2688
S'EventTime'
p2689
S'516672196'
p2690
sg4
L1449718062293L
sS'recordCount'
p2691
g6
sS'EventType'
p2692
S'TYPE_NOTIFICATION_STATE_CHANGED'
p2693
sS'PackageName'
p2694
S'com.xdf.ucan'
p2695
sS'Action'
p2696
S'[ ClassName: android.widget.Toast$TN; Text: [\xe5\x88\x86\xe4\xba\xab\xe6\x93\x8d\xe4\xbd\x9c\xe6\xad\xa3\xe5\x9c\xa8\xe5\x90\x8e\xe5\x8f\xb0\xe8\xbf\x9b\xe8\xa1\x8c\xe2\x80\xa6]; ContentDescription: null; ItemCount: -1; CurrentItemIndex: -1; IsEnabled: false; IsPassword: false; IsChecked: false; IsFullScreen: false; Scrollable: false; BeforeText: null; FromIndex: -1; ToIndex: -1; ScrollX: -1; ScrollY: -1; MaxScrollX: -1; MaxScrollY: -1; AddedCount: -1; RemovedCount: -1; ParcelableData: null ]'
p2697
sS'MovementGranularity'
p2698
g6
sa(dp2699
S'EventTime'
p2700
S'516679236'
p2701
sg4
L1449718069340L
sS'recordCount'
p2702
g6
sS'EventType'
p2703
S'TYPE_WINDOW_STATE_CHANGED'
p2704
sS'PackageName'
p2705
S'com.xdf.ucan'
p2706
sS'OutBounds'
p2707
S'Rect(0, 0 - 720, 1184)'
p2708
sS'Action'
p2709
S'[ ClassName: com.xdf.ucan.ui.material.MaterialActivity; Text: [\xe4\xbc\x98\xe6\x92\xad\xe8\xaf\xbe]; ContentDescription: null; ItemCount: -1; CurrentItemIndex: -1; IsEnabled: true; IsPassword: false; IsChecked: false; IsFullScreen: true; Scrollable: false; BeforeText: null; FromIndex: -1; ToIndex: -1; ScrollX: -1; ScrollY: -1; MaxScrollX: -1; MaxScrollY: -1; AddedCount: -1; RemovedCount: -1; ParcelableData: null ]'
p2710
sS'MovementGranularity'
p2711
g6
sa(dp2712
S'EventTime'
p2713
S'516683450'
p2714
sg4
L1449718073553L
sS'recordCount'
p2715
g6
sS'EventType'
p2716
S'TYPE_WINDOW_STATE_CHANGED'
p2717
sS'PackageName'
p2718
S'com.xdf.ucan'
p2719
sS'OutBounds'
p2720
S'Rect(0, 0 - 720, 1184)'
p2721
sS'Action'
p2722
S'[ ClassName: com.xdf.ucan.ui.material.MaterialActivity; Text: [\xe4\xbc\x98\xe6\x92\xad\xe8\xaf\xbe]; ContentDescription: null; ItemCount: -1; CurrentItemIndex: -1; IsEnabled: true; IsPassword: false; IsChecked: false; IsFullScreen: true; Scrollable: false; BeforeText: null; FromIndex: -1; ToIndex: -1; ScrollX: -1; ScrollY: -1; MaxScrollX: -1; MaxScrollY: -1; AddedCount: -1; RemovedCount: -1; ParcelableData: null ]'
p2723
sS'MovementGranularity'
p2724
g6
sa(dp2725
S'EventTime'
p2726
S'516685162'
p2727
sg4
L1449718075260L
sS'recordCount'
p2728
g6
sS'EventType'
p2729
S'TYPE_VIEW_CLICKED'
p2730
sS'PackageName'
p2731
S'com.xdf.ucan'
p2732
sS'OutBounds'
p2733
S'Rect(658, 50 - 700, 138)'
p2734
sS'Action'
p2735
S'[ ClassName: android.widget.TextView; Text: []; ContentDescription: null; ItemCount: -1; CurrentItemIndex: -1; IsEnabled: true; IsPassword: false; IsChecked: false; IsFullScreen: false; Scrollable: false; BeforeText: null; FromIndex: -1; ToIndex: -1; ScrollX: -1; ScrollY: -1; MaxScrollX: -1; MaxScrollY: -1; AddedCount: -1; RemovedCount: -1; ParcelableData: null ]'
p2736
sS'MovementGranularity'
p2737
g6
sa(dp2738
S'EventTime'
p2739
S'516685265'
p2740
sg4
L1449718075383L
sS'recordCount'
p2741
g6
sS'EventType'
p2742
S'TYPE_WINDOW_STATE_CHANGED'
p2743
sS'PackageName'
p2744
S'com.xdf.ucan'
p2745
sS'OutBounds'
p2746
S'Rect(0, 0 - 720, 1184)'
p2747
sS'Action'
p2748
S'[ ClassName: com.mob.tools.MobUIShell; Text: [\xe4\xbc\x98\xe6\x92\xad\xe8\xaf\xbe]; ContentDescription: null; ItemCount: -1; CurrentItemIndex: -1; IsEnabled: true; IsPassword: false; IsChecked: false; IsFullScreen: true; Scrollable: false; BeforeText: null; FromIndex: -1; ToIndex: -1; ScrollX: -1; ScrollY: -1; MaxScrollX: -1; MaxScrollY: -1; AddedCount: -1; RemovedCount: -1; ParcelableData: null ]'
p2749
sS'MovementGranularity'
p2750
g6
sa(dp2751
S'EventTime'
p2752
S'516685333'
p2753
sg4
L1449718075443L
sS'recordCount'
p2754
g6
sS'EventType'
p2755
S'TYPE_WINDOW_CONTENT_CHANGED'
p2756
sS'PackageName'
p2757
S'com.xdf.ucan'
p2758
sS'OutBounds'
p2759
S'Rect(290, 1001 - 430, 1034)'
p2760
sS'Action'
p2761
S'[ ClassName: android.widget.TextView; Text: []; ContentDescription: null; ItemCount: -1; CurrentItemIndex: -1; IsEnabled: true; IsPassword: false; IsChecked: false; IsFullScreen: false; Scrollable: false; BeforeText: null; FromIndex: -1; ToIndex: -1; ScrollX: -1; ScrollY: -1; MaxScrollX: -1; MaxScrollY: -1; AddedCount: -1; RemovedCount: -1; ParcelableData: null ]'
p2762
sS'MovementGranularity'
p2763
g6
sa(dp2764
S'EventTime'
p2765
S'516685445'
p2766
sg4
L1449718075557L
sS'recordCount'
p2767
g6
sS'EventType'
p2768
S'TYPE_WINDOW_CONTENT_CHANGED'
p2769
sS'PackageName'
p2770
S'com.xdf.ucan'
p2771
sS'OutBounds'
p2772
S'Rect(290, 1001 - 430, 1034)'
p2773
sS'Action'
p2774
S'[ ClassName: android.widget.TextView; Text: []; ContentDescription: null; ItemCount: -1; CurrentItemIndex: -1; IsEnabled: true; IsPassword: false; IsChecked: false; IsFullScreen: false; Scrollable: false; BeforeText: null; FromIndex: -1; ToIndex: -1; ScrollX: -1; ScrollY: -1; MaxScrollX: -1; MaxScrollY: -1; AddedCount: -1; RemovedCount: -1; ParcelableData: null ]'
p2775
sS'MovementGranularity'
p2776
g6
sa(dp2777
S'EventTime'
p2778
S'516686158'
p2779
sg4
L1449718076255L
sS'recordCount'
p2780
g6
sS'EventType'
p2781
S'TYPE_VIEW_CLICKED'
p2782
sS'PackageName'
p2783
S'com.xdf.ucan'
p2784
sS'OutBounds'
p2785
S'Rect(10, 845 - 244, 1044)'
p2786
sS'Action'
p2787
S'[ ClassName: android.widget.LinearLayout; Text: [\xe5\xbe\xae\xe4\xbf\xa1\xe5\xa5\xbd\xe5\x8f\x8b]; ContentDescription: null; ItemCount: -1; CurrentItemIndex: -1; IsEnabled: true; IsPassword: false; IsChecked: false; IsFullScreen: false; Scrollable: false; BeforeText: null; FromIndex: -1; ToIndex: -1; ScrollX: -1; ScrollY: -1; MaxScrollX: -1; MaxScrollY: -1; AddedCount: -1; RemovedCount: -1; ParcelableData: null ]'
p2788
sS'MovementGranularity'
p2789
g6
sa(dp2790
S'EventTime'
p2791
S'516686166'
p2792
sg4
L1449718076277L
sS'recordCount'
p2793
g6
sS'EventType'
p2794
S'TYPE_NOTIFICATION_STATE_CHANGED'
p2795
sS'PackageName'
p2796
S'com.xdf.ucan'
p2797
sS'Action'
p2798
S'[ ClassName: android.widget.Toast$TN; Text: [\xe5\x88\x86\xe4\xba\xab\xe6\x93\x8d\xe4\xbd\x9c\xe6\xad\xa3\xe5\x9c\xa8\xe5\x90\x8e\xe5\x8f\xb0\xe8\xbf\x9b\xe8\xa1\x8c\xe2\x80\xa6]; ContentDescription: null; ItemCount: -1; CurrentItemIndex: -1; IsEnabled: false; IsPassword: false; IsChecked: false; IsFullScreen: false; Scrollable: false; BeforeText: null; FromIndex: -1; ToIndex: -1; ScrollX: -1; ScrollY: -1; MaxScrollX: -1; MaxScrollY: -1; AddedCount: -1; RemovedCount: -1; ParcelableData: null ]'
p2799
sS'MovementGranularity'
p2800
g6
sa(dp2801
S'EventTime'
p2802
S'516687013'
p2803
sg4
L1449718077114L
sS'recordCount'
p2804
g6
sS'EventType'
p2805
S'TYPE_WINDOW_STATE_CHANGED'
p2806
sS'PackageName'
p2807
S'com.xdf.ucan'
p2808
sS'OutBounds'
p2809
S'Rect(0, 0 - 720, 1184)'
p2810
sS'Action'
p2811
S'[ ClassName: com.xdf.ucan.ui.material.MaterialActivity; Text: [\xe4\xbc\x98\xe6\x92\xad\xe8\xaf\xbe]; ContentDescription: null; ItemCount: -1; CurrentItemIndex: -1; IsEnabled: true; IsPassword: false; IsChecked: false; IsFullScreen: true; Scrollable: false; BeforeText: null; FromIndex: -1; ToIndex: -1; ScrollX: -1; ScrollY: -1; MaxScrollX: -1; MaxScrollY: -1; AddedCount: -1; RemovedCount: -1; ParcelableData: null ]'
p2812
sS'MovementGranularity'
p2813
g6
sa(dp2814
S'EventTime'
p2815
S'516688034'
p2816
sg4
L1449718078131L
sS'recordCount'
p2817
g6
sS'EventType'
p2818
S'TYPE_VIEW_CLICKED'
p2819
sS'PackageName'
p2820
S'com.xdf.ucan'
p2821
sS'OutBounds'
p2822
S'Rect(658, 50 - 700, 138)'
p2823
sS'Action'
p2824
S'[ ClassName: android.widget.TextView; Text: []; ContentDescription: null; ItemCount: -1; CurrentItemIndex: -1; IsEnabled: true; IsPassword: false; IsChecked: false; IsFullScreen: false; Scrollable: false; BeforeText: null; FromIndex: -1; ToIndex: -1; ScrollX: -1; ScrollY: -1; MaxScrollX: -1; MaxScrollY: -1; AddedCount: -1; RemovedCount: -1; ParcelableData: null ]'
p2825
sS'MovementGranularity'
p2826
g6
sa(dp2827
S'EventTime'
p2828
S'516688135'
p2829
sg4
L1449718078250L
sS'recordCount'
p2830
g6
sS'EventType'
p2831
S'TYPE_WINDOW_STATE_CHANGED'
p2832
sS'PackageName'
p2833
S'com.xdf.ucan'
p2834
sS'OutBounds'
p2835
S'Rect(0, 0 - 720, 1184)'
p2836
sS'Action'
p2837
S'[ ClassName: com.mob.tools.MobUIShell; Text: [\xe4\xbc\x98\xe6\x92\xad\xe8\xaf\xbe]; ContentDescription: null; ItemCount: -1; CurrentItemIndex: -1; IsEnabled: true; IsPassword: false; IsChecked: false; IsFullScreen: true; Scrollable: false; BeforeText: null; FromIndex: -1; ToIndex: -1; ScrollX: -1; ScrollY: -1; MaxScrollX: -1; MaxScrollY: -1; AddedCount: -1; RemovedCount: -1; ParcelableData: null ]'
p2838
sS'MovementGranularity'
p2839
g6
sa(dp2840
S'EventTime'
p2841
S'516688202'
p2842
sg4
L1449718078311L
sS'recordCount'
p2843
g6
sS'EventType'
p2844
S'TYPE_WINDOW_CONTENT_CHANGED'
p2845
sS'PackageName'
p2846
S'com.xdf.ucan'
p2847
sS'OutBounds'
p2848
S'Rect(574, 1001 - 612, 1034)'
p2849
sS'Action'
p2850
S'[ ClassName: android.widget.TextView; Text: []; ContentDescription: null; ItemCount: -1; CurrentItemIndex: -1; IsEnabled: true; IsPassword: false; IsChecked: false; IsFullScreen: false; Scrollable: false; BeforeText: null; FromIndex: -1; ToIndex: -1; ScrollX: -1; ScrollY: -1; MaxScrollX: -1; MaxScrollY: -1; AddedCount: -1; RemovedCount: -1; ParcelableData: null ]'
p2851
sS'MovementGranularity'
p2852
g6
sa(dp2853
S'EventTime'
p2854
S'516688313'
p2855
sg4
L1449718078424L
sS'recordCount'
p2856
g6
sS'EventType'
p2857
S'TYPE_WINDOW_CONTENT_CHANGED'
p2858
sS'PackageName'
p2859
S'com.xdf.ucan'
p2860
sS'OutBounds'
p2861
S'Rect(574, 1001 - 612, 1034)'
p2862
sS'Action'
p2863
S'[ ClassName: android.widget.TextView; Text: []; ContentDescription: null; ItemCount: -1; CurrentItemIndex: -1; IsEnabled: true; IsPassword: false; IsChecked: false; IsFullScreen: false; Scrollable: false; BeforeText: null; FromIndex: -1; ToIndex: -1; ScrollX: -1; ScrollY: -1; MaxScrollX: -1; MaxScrollY: -1; AddedCount: -1; RemovedCount: -1; ParcelableData: null ]'
p2864
sS'MovementGranularity'
p2865
g6
sa(dp2866
S'EventTime'
p2867
S'516688803'
p2868
sg4
L1449718078899L
sS'recordCount'
p2869
g6
sS'EventType'
p2870
S'TYPE_VIEW_CLICKED'
p2871
sS'PackageName'
p2872
S'com.xdf.ucan'
p2873
sS'OutBounds'
p2874
S'Rect(10, 845 - 244, 1044)'
p2875
sS'Action'
p2876
S'[ ClassName: android.widget.LinearLayout; Text: [\xe5\xbe\xae\xe4\xbf\xa1\xe5\xa5\xbd\xe5\x8f\x8b]; ContentDescription: null; ItemCount: -1; CurrentItemIndex: -1; IsEnabled: true; IsPassword: false; IsChecked: false; IsFullScreen: false; Scrollable: false; BeforeText: null; FromIndex: -1; ToIndex: -1; ScrollX: -1; ScrollY: -1; MaxScrollX: -1; MaxScrollY: -1; AddedCount: -1; RemovedCount: -1; ParcelableData: null ]'
p2877
sS'MovementGranularity'
p2878
g6
sa(dp2879
S'EventTime'
p2880
S'516688812'
p2881
sg4
L1449718078917L
sS'recordCount'
p2882
g6
sS'EventType'
p2883
S'TYPE_NOTIFICATION_STATE_CHANGED'
p2884
sS'PackageName'
p2885
S'com.xdf.ucan'
p2886
sS'Action'
p2887
S'[ ClassName: android.widget.Toast$TN; Text: [\xe5\x88\x86\xe4\xba\xab\xe6\x93\x8d\xe4\xbd\x9c\xe6\xad\xa3\xe5\x9c\xa8\xe5\x90\x8e\xe5\x8f\xb0\xe8\xbf\x9b\xe8\xa1\x8c\xe2\x80\xa6]; ContentDescription: null; ItemCount: -1; CurrentItemIndex: -1; IsEnabled: false; IsPassword: false; IsChecked: false; IsFullScreen: false; Scrollable: false; BeforeText: null; FromIndex: -1; ToIndex: -1; ScrollX: -1; ScrollY: -1; MaxScrollX: -1; MaxScrollY: -1; AddedCount: -1; RemovedCount: -1; ParcelableData: null ]'
p2888
sS'MovementGranularity'
p2889
g6
sa(dp2890
S'EventTime'
p2891
S'516689596'
p2892
sg4
L1449718079697L
sS'recordCount'
p2893
g6
sS'EventType'
p2894
S'TYPE_WINDOW_STATE_CHANGED'
p2895
sS'PackageName'
p2896
S'com.xdf.ucan'
p2897
sS'OutBounds'
p2898
S'Rect(0, 0 - 720, 1184)'
p2899
sS'Action'
p2900
S'[ ClassName: com.xdf.ucan.ui.material.MaterialActivity; Text: [\xe4\xbc\x98\xe6\x92\xad\xe8\xaf\xbe]; ContentDescription: null; ItemCount: -1; CurrentItemIndex: -1; IsEnabled: true; IsPassword: false; IsChecked: false; IsFullScreen: true; Scrollable: false; BeforeText: null; FromIndex: -1; ToIndex: -1; ScrollX: -1; ScrollY: -1; MaxScrollX: -1; MaxScrollY: -1; AddedCount: -1; RemovedCount: -1; ParcelableData: null ]'
p2901
sS'MovementGranularity'
p2902
g6
sa(dp2903
S'EventTime'
p2904
S'516691380'
p2905
sg4
L1449718081477L
sS'recordCount'
p2906
g6
sS'EventType'
p2907
S'TYPE_VIEW_CLICKED'
p2908
sS'PackageName'
p2909
S'com.xdf.ucan'
p2910
sS'OutBounds'
p2911
S'Rect(658, 50 - 700, 138)'
p2912
sS'Action'
p2913
S'[ ClassName: android.widget.TextView; Text: []; ContentDescription: null; ItemCount: -1; CurrentItemIndex: -1; IsEnabled: true; IsPassword: false; IsChecked: false; IsFullScreen: false; Scrollable: false; BeforeText: null; FromIndex: -1; ToIndex: -1; ScrollX: -1; ScrollY: -1; MaxScrollX: -1; MaxScrollY: -1; AddedCount: -1; RemovedCount: -1; ParcelableData: null ]'
p2914
sS'MovementGranularity'
p2915
g6
sa(dp2916
S'EventTime'
p2917
S'516691479'
p2918
sg4
L1449718081593L
sS'recordCount'
p2919
g6
sS'EventType'
p2920
S'TYPE_WINDOW_STATE_CHANGED'
p2921
sS'PackageName'
p2922
S'com.xdf.ucan'
p2923
sS'OutBounds'
p2924
S'Rect(0, 0 - 720, 1184)'
p2925
sS'Action'
p2926
S'[ ClassName: com.mob.tools.MobUIShell; Text: [\xe4\xbc\x98\xe6\x92\xad\xe8\xaf\xbe]; ContentDescription: null; ItemCount: -1; CurrentItemIndex: -1; IsEnabled: true; IsPassword: false; IsChecked: false; IsFullScreen: true; Scrollable: false; BeforeText: null; FromIndex: -1; ToIndex: -1; ScrollX: -1; ScrollY: -1; MaxScrollX: -1; MaxScrollY: -1; AddedCount: -1; RemovedCount: -1; ParcelableData: null ]'
p2927
sS'MovementGranularity'
p2928
g6
sa(dp2929
S'EventTime'
p2930
S'516691561'
p2931
sg4
L1449718081671L
sS'recordCount'
p2932
g6
sS'EventType'
p2933
S'TYPE_WINDOW_CONTENT_CHANGED'
p2934
sS'PackageName'
p2935
S'com.xdf.ucan'
p2936
sS'OutBounds'
p2937
S'Rect(574, 1001 - 612, 1034)'
p2938
sS'Action'
p2939
S'[ ClassName: android.widget.TextView; Text: []; ContentDescription: null; ItemCount: -1; CurrentItemIndex: -1; IsEnabled: true; IsPassword: false; IsChecked: false; IsFullScreen: false; Scrollable: false; BeforeText: null; FromIndex: -1; ToIndex: -1; ScrollX: -1; ScrollY: -1; MaxScrollX: -1; MaxScrollY: -1; AddedCount: -1; RemovedCount: -1; ParcelableData: null ]'
p2940
sS'MovementGranularity'
p2941
g6
sa(dp2942
S'EventTime'
p2943
S'516692126'
p2944
sg4
L1449718082224L
sS'recordCount'
p2945
g6
sS'EventType'
p2946
S'TYPE_VIEW_CLICKED'
p2947
sS'PackageName'
p2948
S'com.xdf.ucan'
p2949
sS'OutBounds'
p2950
S'Rect(10, 845 - 244, 1044)'
p2951
sS'Action'
p2952
S'[ ClassName: android.widget.LinearLayout; Text: [\xe5\xbe\xae\xe4\xbf\xa1\xe5\xa5\xbd\xe5\x8f\x8b]; ContentDescription: null; ItemCount: -1; CurrentItemIndex: -1; IsEnabled: true; IsPassword: false; IsChecked: false; IsFullScreen: false; Scrollable: false; BeforeText: null; FromIndex: -1; ToIndex: -1; ScrollX: -1; ScrollY: -1; MaxScrollX: -1; MaxScrollY: -1; AddedCount: -1; RemovedCount: -1; ParcelableData: null ]'
p2953
sS'MovementGranularity'
p2954
g6
sa(dp2955
S'EventTime'
p2956
S'516692133'
p2957
sg4
L1449718082251L
sS'recordCount'
p2958
g6
sS'EventType'
p2959
S'TYPE_NOTIFICATION_STATE_CHANGED'
p2960
sS'PackageName'
p2961
S'com.xdf.ucan'
p2962
sS'Action'
p2963
S'[ ClassName: android.widget.Toast$TN; Text: [\xe5\x88\x86\xe4\xba\xab\xe6\x93\x8d\xe4\xbd\x9c\xe6\xad\xa3\xe5\x9c\xa8\xe5\x90\x8e\xe5\x8f\xb0\xe8\xbf\x9b\xe8\xa1\x8c\xe2\x80\xa6]; ContentDescription: null; ItemCount: -1; CurrentItemIndex: -1; IsEnabled: false; IsPassword: false; IsChecked: false; IsFullScreen: false; Scrollable: false; BeforeText: null; FromIndex: -1; ToIndex: -1; ScrollX: -1; ScrollY: -1; MaxScrollX: -1; MaxScrollY: -1; AddedCount: -1; RemovedCount: -1; ParcelableData: null ]'
p2964
sS'MovementGranularity'
p2965
g6
sa(dp2966
S'EventTime'
p2967
S'516693209'
p2968
sg4
L1449718083311L
sS'recordCount'
p2969
g6
sS'EventType'
p2970
S'TYPE_WINDOW_STATE_CHANGED'
p2971
sS'PackageName'
p2972
S'com.xdf.ucan'
p2973
sS'OutBounds'
p2974
S'Rect(0, 0 - 720, 1184)'
p2975
sS'Action'
p2976
S'[ ClassName: com.xdf.ucan.ui.material.MaterialActivity; Text: [\xe4\xbc\x98\xe6\x92\xad\xe8\xaf\xbe]; ContentDescription: null; ItemCount: -1; CurrentItemIndex: -1; IsEnabled: true; IsPassword: false; IsChecked: false; IsFullScreen: true; Scrollable: false; BeforeText: null; FromIndex: -1; ToIndex: -1; ScrollX: -1; ScrollY: -1; MaxScrollX: -1; MaxScrollY: -1; AddedCount: -1; RemovedCount: -1; ParcelableData: null ]'
p2977
sS'MovementGranularity'
p2978
g6
sa(dp2979
S'EventTime'
p2980
S'516694422'
p2981
sg4
L1449718084589L
sS'recordCount'
p2982
g6
sS'EventType'
p2983
S'TYPE_WINDOW_STATE_CHANGED'
p2984
sS'PackageName'
p2985
S'com.xdf.ucan'
p2986
sS'OutBounds'
p2987
S'Rect(0, 0 - 720, 1184)'
p2988
sS'Action'
p2989
S'[ ClassName: com.xdf.ucan.ui.material.MaterialListActivity; Text: [\xe4\xbc\x98\xe6\x92\xad\xe8\xaf\xbe]; ContentDescription: null; ItemCount: -1; CurrentItemIndex: -1; IsEnabled: true; IsPassword: false; IsChecked: false; IsFullScreen: true; Scrollable: false; BeforeText: null; FromIndex: -1; ToIndex: -1; ScrollX: -1; ScrollY: -1; MaxScrollX: -1; MaxScrollY: -1; AddedCount: -1; RemovedCount: -1; ParcelableData: null ]'
p2990
sS'MovementGranularity'
p2991
g6
sa(dp2992
S'EventTime'
p2993
S'516695739'
p2994
sg4
L1449718085836L
sS'recordCount'
p2995
g157
sS'EventType'
p2996
S'TYPE_VIEW_CLICKED'
p2997
sS'PackageName'
p2998
S'com.xdf.ucan'
p2999
sS'OutBounds'
p3000
S'Rect(20, 270 - 700, 458)'
p3001
sS'Action'
p3002
S'[ ClassName: android.widget.LinearLayout; Text: [\xe3\x80\x90\xe5\x90\x8d\xe8\x91\x97\xe7\xa7\xaf\xe7\xb4\xaf\xe3\x80\x91\xe5\x88\x9d\xe4\xb8\xad\xe6\x9c\x9f\xe4\xb8\xad\xe6\x9c\x9f\xe6\x9c\xab\xe5\x90\x8d\xe8\x91\x97\xe7\xbb\x83\xe4\xb9\xa0\xe9\xa2\x98\xe9\x9b\x86\xef\xbc\x88\xe5\x90\xab\xe7\xad\x94\xe6\xa1\x88\xef\xbc\x89, \xe5\x88\x9d\xe8\xaf\xad, \xe5\x88\x9d\xe4\xb8\xad\xe8\xaf\xad\xe6\x96\x87, 1\xe5\xa4\xa9\xe5\x89\x8d]; ContentDescription: null; ItemCount: -1; CurrentItemIndex: -1; IsEnabled: true; IsPassword: false; IsChecked: false; IsFullScreen: false; Scrollable: false; BeforeText: null; FromIndex: -1; ToIndex: -1; ScrollX: -1; ScrollY: -1; MaxScrollX: -1; MaxScrollY: -1; AddedCount: -1; RemovedCount: -1; ParcelableData: null ]'
p3003
sS'MovementGranularity'
p3004
g6
sa(dp3005
S'EventTime'
p3006
S'516696114'
p3007
sg4
L1449718086226L
sS'recordCount'
p3008
g6
sS'EventType'
p3009
S'TYPE_WINDOW_STATE_CHANGED'
p3010
sS'PackageName'
p3011
S'com.xdf.ucan'
p3012
sS'OutBounds'
p3013
S'Rect(40, 50 - 680, 1184)'
p3014
sS'Action'
p3015
S'[ ClassName: com.xdf.ucan.views.LoadingDialog; Text: []; ContentDescription: null; ItemCount: -1; CurrentItemIndex: -1; IsEnabled: true; IsPassword: false; IsChecked: false; IsFullScreen: false; Scrollable: false; BeforeText: null; FromIndex: -1; ToIndex: -1; ScrollX: -1; ScrollY: -1; MaxScrollX: -1; MaxScrollY: -1; AddedCount: -1; RemovedCount: -1; ParcelableData: null ]'
p3016
sS'MovementGranularity'
p3017
g6
sa(dp3018
S'EventTime'
p3019
S'516696252'
p3020
sg4
L1449718086367L
sS'recordCount'
p3021
g6
sS'EventType'
p3022
S'TYPE_WINDOW_CONTENT_CHANGED'
p3023
sS'PackageName'
p3024
S'com.xdf.ucan'
p3025
sS'OutBounds'
p3026
S'Rect(40, 50 - 160, 130)'
p3027
sS'Action'
p3028
S'[ ClassName: android.widget.Button; Text: []; ContentDescription: null; ItemCount: -1; CurrentItemIndex: -1; IsEnabled: true; IsPassword: false; IsChecked: false; IsFullScreen: false; Scrollable: false; BeforeText: null; FromIndex: -1; ToIndex: -1; ScrollX: -1; ScrollY: -1; MaxScrollX: -1; MaxScrollY: -1; AddedCount: -1; RemovedCount: -1; ParcelableData: null ]'
p3029
sS'MovementGranularity'
p3030
g6
sa(dp3031
S'EventTime'
p3032
S'516702929'
p3033
sg4
L1449718093059L
sS'recordCount'
p3034
g6
sS'EventType'
p3035
S'TYPE_WINDOW_STATE_CHANGED'
p3036
sS'PackageName'
p3037
S'com.xdf.ucan'
p3038
sS'OutBounds'
p3039
S'Rect(0, 0 - 720, 1184)'
p3040
sS'Action'
p3041
S'[ ClassName: com.xdf.ucan.ui.material.MaterialActivity; Text: [\xe4\xbc\x98\xe6\x92\xad\xe8\xaf\xbe]; ContentDescription: null; ItemCount: -1; CurrentItemIndex: -1; IsEnabled: true; IsPassword: false; IsChecked: false; IsFullScreen: true; Scrollable: false; BeforeText: null; FromIndex: -1; ToIndex: -1; ScrollX: -1; ScrollY: -1; MaxScrollX: -1; MaxScrollY: -1; AddedCount: -1; RemovedCount: -1; ParcelableData: null ]'
p3042
sS'MovementGranularity'
p3043
g6
sa(dp3044
S'EventTime'
p3045
S'516703060'
p3046
sg4
L1449718093161L
sS'recordCount'
p3047
g6
sS'EventType'
p3048
S'TYPE_WINDOW_CONTENT_CHANGED'
p3049
sS'PackageName'
p3050
S'com.xdf.ucan'
p3051
sS'OutBounds'
p3052
S'Rect(114, 1116 - 174, 1157)'
p3053
sS'Action'
p3054
S'[ ClassName: android.widget.TextView; Text: []; ContentDescription: null; ItemCount: -1; CurrentItemIndex: -1; IsEnabled: true; IsPassword: false; IsChecked: false; IsFullScreen: false; Scrollable: false; BeforeText: null; FromIndex: -1; ToIndex: -1; ScrollX: -1; ScrollY: -1; MaxScrollX: -1; MaxScrollY: -1; AddedCount: -1; RemovedCount: -1; ParcelableData: null ]'
p3055
sS'MovementGranularity'
p3056
g6
sa(dp3057
S'EventTime'
p3058
S'516703707'
p3059
sg4
L1449718093804L
sS'recordCount'
p3060
g6
sS'EventType'
p3061
S'TYPE_VIEW_CLICKED'
p3062
sS'PackageName'
p3063
S'com.xdf.ucan'
p3064
sS'OutBounds'
p3065
S'Rect(658, 50 - 700, 138)'
p3066
sS'Action'
p3067
S'[ ClassName: android.widget.TextView; Text: []; ContentDescription: null; ItemCount: -1; CurrentItemIndex: -1; IsEnabled: true; IsPassword: false; IsChecked: false; IsFullScreen: false; Scrollable: false; BeforeText: null; FromIndex: -1; ToIndex: -1; ScrollX: -1; ScrollY: -1; MaxScrollX: -1; MaxScrollY: -1; AddedCount: -1; RemovedCount: -1; ParcelableData: null ]'
p3068
sS'MovementGranularity'
p3069
g6
sa(dp3070
S'EventTime'
p3071
S'516703825'
p3072
sg4
L1449718093940L
sS'recordCount'
p3073
g6
sS'EventType'
p3074
S'TYPE_WINDOW_STATE_CHANGED'
p3075
sS'PackageName'
p3076
S'com.xdf.ucan'
p3077
sS'OutBounds'
p3078
S'Rect(0, 0 - 720, 1184)'
p3079
sS'Action'
p3080
S'[ ClassName: com.mob.tools.MobUIShell; Text: [\xe4\xbc\x98\xe6\x92\xad\xe8\xaf\xbe]; ContentDescription: null; ItemCount: -1; CurrentItemIndex: -1; IsEnabled: true; IsPassword: false; IsChecked: false; IsFullScreen: true; Scrollable: false; BeforeText: null; FromIndex: -1; ToIndex: -1; ScrollX: -1; ScrollY: -1; MaxScrollX: -1; MaxScrollY: -1; AddedCount: -1; RemovedCount: -1; ParcelableData: null ]'
p3081
sS'MovementGranularity'
p3082
g6
sa(dp3083
S'EventTime'
p3084
S'516703896'
p3085
sg4
L1449718094001L
sS'recordCount'
p3086
g6
sS'EventType'
p3087
S'TYPE_WINDOW_CONTENT_CHANGED'
p3088
sS'PackageName'
p3089
S'com.xdf.ucan'
p3090
sS'OutBounds'
p3091
S'Rect(574, 1001 - 612, 1034)'
p3092
sS'Action'
p3093
S'[ ClassName: android.widget.TextView; Text: []; ContentDescription: null; ItemCount: -1; CurrentItemIndex: -1; IsEnabled: true; IsPassword: false; IsChecked: false; IsFullScreen: false; Scrollable: false; BeforeText: null; FromIndex: -1; ToIndex: -1; ScrollX: -1; ScrollY: -1; MaxScrollX: -1; MaxScrollY: -1; AddedCount: -1; RemovedCount: -1; ParcelableData: null ]'
p3094
sS'MovementGranularity'
p3095
g6
sa(dp3096
S'EventTime'
p3097
S'516704003'
p3098
sg4
L1449718094113L
sS'recordCount'
p3099
g6
sS'EventType'
p3100
S'TYPE_WINDOW_CONTENT_CHANGED'
p3101
sS'PackageName'
p3102
S'com.xdf.ucan'
p3103
sS'OutBounds'
p3104
S'Rect(574, 1001 - 612, 1034)'
p3105
sS'Action'
p3106
S'[ ClassName: android.widget.TextView; Text: []; ContentDescription: null; ItemCount: -1; CurrentItemIndex: -1; IsEnabled: true; IsPassword: false; IsChecked: false; IsFullScreen: false; Scrollable: false; BeforeText: null; FromIndex: -1; ToIndex: -1; ScrollX: -1; ScrollY: -1; MaxScrollX: -1; MaxScrollY: -1; AddedCount: -1; RemovedCount: -1; ParcelableData: null ]'
p3107
sS'MovementGranularity'
p3108
g6
sa(dp3109
S'EventTime'
p3110
S'516704694'
p3111
sg4
L1449718094792L
sS'recordCount'
p3112
g6
sS'EventType'
p3113
S'TYPE_VIEW_CLICKED'
p3114
sS'PackageName'
p3115
S'com.xdf.ucan'
p3116
sS'OutBounds'
p3117
S'Rect(10, 845 - 244, 1044)'
p3118
sS'Action'
p3119
S'[ ClassName: android.widget.LinearLayout; Text: [\xe5\xbe\xae\xe4\xbf\xa1\xe5\xa5\xbd\xe5\x8f\x8b]; ContentDescription: null; ItemCount: -1; CurrentItemIndex: -1; IsEnabled: true; IsPassword: false; IsChecked: false; IsFullScreen: false; Scrollable: false; BeforeText: null; FromIndex: -1; ToIndex: -1; ScrollX: -1; ScrollY: -1; MaxScrollX: -1; MaxScrollY: -1; AddedCount: -1; RemovedCount: -1; ParcelableData: null ]'
p3120
sS'MovementGranularity'
p3121
g6
sa(dp3122
S'EventTime'
p3123
S'516704702'
p3124
sg4
L1449718094810L
sS'recordCount'
p3125
g6
sS'EventType'
p3126
S'TYPE_NOTIFICATION_STATE_CHANGED'
p3127
sS'PackageName'
p3128
S'com.xdf.ucan'
p3129
sS'Action'
p3130
S'[ ClassName: android.widget.Toast$TN; Text: [\xe5\x88\x86\xe4\xba\xab\xe6\x93\x8d\xe4\xbd\x9c\xe6\xad\xa3\xe5\x9c\xa8\xe5\x90\x8e\xe5\x8f\xb0\xe8\xbf\x9b\xe8\xa1\x8c\xe2\x80\xa6]; ContentDescription: null; ItemCount: -1; CurrentItemIndex: -1; IsEnabled: false; IsPassword: false; IsChecked: false; IsFullScreen: false; Scrollable: false; BeforeText: null; FromIndex: -1; ToIndex: -1; ScrollX: -1; ScrollY: -1; MaxScrollX: -1; MaxScrollY: -1; AddedCount: -1; RemovedCount: -1; ParcelableData: null ]'
p3131
sS'MovementGranularity'
p3132
g6
sa(dp3133
S'EventTime'
p3134
S'516709537'
p3135
sg4
L1449718099641L
sS'recordCount'
p3136
g6
sS'EventType'
p3137
S'TYPE_WINDOW_STATE_CHANGED'
p3138
sS'PackageName'
p3139
S'com.xdf.ucan'
p3140
sS'OutBounds'
p3141
S'Rect(0, 0 - 720, 1184)'
p3142
sS'Action'
p3143
S'[ ClassName: com.xdf.ucan.ui.material.MaterialActivity; Text: [\xe4\xbc\x98\xe6\x92\xad\xe8\xaf\xbe]; ContentDescription: null; ItemCount: -1; CurrentItemIndex: -1; IsEnabled: true; IsPassword: false; IsChecked: false; IsFullScreen: true; Scrollable: false; BeforeText: null; FromIndex: -1; ToIndex: -1; ScrollX: -1; ScrollY: -1; MaxScrollX: -1; MaxScrollY: -1; AddedCount: -1; RemovedCount: -1; ParcelableData: null ]'
p3144
sS'MovementGranularity'
p3145
g6
sa(dp3146
S'EventTime'
p3147
S'516710716'
p3148
sg4
L1449718100814L
sS'recordCount'
p3149
g6
sS'EventType'
p3150
S'TYPE_VIEW_CLICKED'
p3151
sS'PackageName'
p3152
S'com.xdf.ucan'
p3153
sS'OutBounds'
p3154
S'Rect(658, 50 - 700, 138)'
p3155
sS'Action'
p3156
S'[ ClassName: android.widget.TextView; Text: []; ContentDescription: null; ItemCount: -1; CurrentItemIndex: -1; IsEnabled: true; IsPassword: false; IsChecked: false; IsFullScreen: false; Scrollable: false; BeforeText: null; FromIndex: -1; ToIndex: -1; ScrollX: -1; ScrollY: -1; MaxScrollX: -1; MaxScrollY: -1; AddedCount: -1; RemovedCount: -1; ParcelableData: null ]'
p3157
sS'MovementGranularity'
p3158
g6
sa(dp3159
S'EventTime'
p3160
S'516710823'
p3161
sg4
L1449718100938L
sS'recordCount'
p3162
g6
sS'EventType'
p3163
S'TYPE_WINDOW_STATE_CHANGED'
p3164
sS'PackageName'
p3165
S'com.xdf.ucan'
p3166
sS'OutBounds'
p3167
S'Rect(0, 0 - 720, 1184)'
p3168
sS'Action'
p3169
S'[ ClassName: com.mob.tools.MobUIShell; Text: [\xe4\xbc\x98\xe6\x92\xad\xe8\xaf\xbe]; ContentDescription: null; ItemCount: -1; CurrentItemIndex: -1; IsEnabled: true; IsPassword: false; IsChecked: false; IsFullScreen: true; Scrollable: false; BeforeText: null; FromIndex: -1; ToIndex: -1; ScrollX: -1; ScrollY: -1; MaxScrollX: -1; MaxScrollY: -1; AddedCount: -1; RemovedCount: -1; ParcelableData: null ]'
p3170
sS'MovementGranularity'
p3171
g6
sa(dp3172
S'EventTime'
p3173
S'516710895'
p3174
sg4
L1449718101000L
sS'recordCount'
p3175
g6
sS'EventType'
p3176
S'TYPE_WINDOW_CONTENT_CHANGED'
p3177
sS'PackageName'
p3178
S'com.xdf.ucan'
p3179
sS'OutBounds'
p3180
S'Rect(574, 1001 - 612, 1034)'
p3181
sS'Action'
p3182
S'[ ClassName: android.widget.TextView; Text: []; ContentDescription: null; ItemCount: -1; CurrentItemIndex: -1; IsEnabled: true; IsPassword: false; IsChecked: false; IsFullScreen: false; Scrollable: false; BeforeText: null; FromIndex: -1; ToIndex: -1; ScrollX: -1; ScrollY: -1; MaxScrollX: -1; MaxScrollY: -1; AddedCount: -1; RemovedCount: -1; ParcelableData: null ]'
p3183
sS'MovementGranularity'
p3184
g6
sa(dp3185
S'EventTime'
p3186
S'516711002'
p3187
sg4
L1449718101115L
sS'recordCount'
p3188
g6
sS'EventType'
p3189
S'TYPE_WINDOW_CONTENT_CHANGED'
p3190
sS'PackageName'
p3191
S'com.xdf.ucan'
p3192
sS'OutBounds'
p3193
S'Rect(574, 1001 - 612, 1034)'
p3194
sS'Action'
p3195
S'[ ClassName: android.widget.TextView; Text: []; ContentDescription: null; ItemCount: -1; CurrentItemIndex: -1; IsEnabled: true; IsPassword: false; IsChecked: false; IsFullScreen: false; Scrollable: false; BeforeText: null; FromIndex: -1; ToIndex: -1; ScrollX: -1; ScrollY: -1; MaxScrollX: -1; MaxScrollY: -1; AddedCount: -1; RemovedCount: -1; ParcelableData: null ]'
p3196
sS'MovementGranularity'
p3197
g6
sa(dp3198
S'EventTime'
p3199
S'516711657'
p3200
sg4
L1449718101754L
sS'recordCount'
p3201
g6
sS'EventType'
p3202
S'TYPE_VIEW_CLICKED'
p3203
sS'PackageName'
p3204
S'com.xdf.ucan'
p3205
sS'OutBounds'
p3206
S'Rect(10, 845 - 244, 1044)'
p3207
sS'Action'
p3208
S'[ ClassName: android.widget.LinearLayout; Text: [\xe5\xbe\xae\xe4\xbf\xa1\xe5\xa5\xbd\xe5\x8f\x8b]; ContentDescription: null; ItemCount: -1; CurrentItemIndex: -1; IsEnabled: true; IsPassword: false; IsChecked: false; IsFullScreen: false; Scrollable: false; BeforeText: null; FromIndex: -1; ToIndex: -1; ScrollX: -1; ScrollY: -1; MaxScrollX: -1; MaxScrollY: -1; AddedCount: -1; RemovedCount: -1; ParcelableData: null ]'
p3209
sS'MovementGranularity'
p3210
g6
sa(dp3211
S'EventTime'
p3212
S'516711664'
p3213
sg4
L1449718101767L
sS'recordCount'
p3214
g6
sS'EventType'
p3215
S'TYPE_NOTIFICATION_STATE_CHANGED'
p3216
sS'PackageName'
p3217
S'com.xdf.ucan'
p3218
sS'Action'
p3219
S'[ ClassName: android.widget.Toast$TN; Text: [\xe5\x88\x86\xe4\xba\xab\xe6\x93\x8d\xe4\xbd\x9c\xe6\xad\xa3\xe5\x9c\xa8\xe5\x90\x8e\xe5\x8f\xb0\xe8\xbf\x9b\xe8\xa1\x8c\xe2\x80\xa6]; ContentDescription: null; ItemCount: -1; CurrentItemIndex: -1; IsEnabled: false; IsPassword: false; IsChecked: false; IsFullScreen: false; Scrollable: false; BeforeText: null; FromIndex: -1; ToIndex: -1; ScrollX: -1; ScrollY: -1; MaxScrollX: -1; MaxScrollY: -1; AddedCount: -1; RemovedCount: -1; ParcelableData: null ]'
p3220
sS'MovementGranularity'
p3221
g6
sa(dp3222
S'EventTime'
p3223
S'516712372'
p3224
sg4
L1449718102474L
sS'recordCount'
p3225
g6
sS'EventType'
p3226
S'TYPE_WINDOW_STATE_CHANGED'
p3227
sS'PackageName'
p3228
S'com.xdf.ucan'
p3229
sS'OutBounds'
p3230
S'Rect(0, 0 - 720, 1184)'
p3231
sS'Action'
p3232
S'[ ClassName: com.xdf.ucan.ui.material.MaterialActivity; Text: [\xe4\xbc\x98\xe6\x92\xad\xe8\xaf\xbe]; ContentDescription: null; ItemCount: -1; CurrentItemIndex: -1; IsEnabled: true; IsPassword: false; IsChecked: false; IsFullScreen: true; Scrollable: false; BeforeText: null; FromIndex: -1; ToIndex: -1; ScrollX: -1; ScrollY: -1; MaxScrollX: -1; MaxScrollY: -1; AddedCount: -1; RemovedCount: -1; ParcelableData: null ]'
p3233
sS'MovementGranularity'
p3234
g6
sa(dp3235
S'EventTime'
p3236
S'516713453'
p3237
sg4
L1449718103551L
sS'recordCount'
p3238
g6
sS'EventType'
p3239
S'TYPE_VIEW_CLICKED'
p3240
sS'PackageName'
p3241
S'com.xdf.ucan'
p3242
sS'OutBounds'
p3243
S'Rect(658, 50 - 700, 138)'
p3244
sS'Action'
p3245
S'[ ClassName: android.widget.TextView; Text: []; ContentDescription: null; ItemCount: -1; CurrentItemIndex: -1; IsEnabled: true; IsPassword: false; IsChecked: false; IsFullScreen: false; Scrollable: false; BeforeText: null; FromIndex: -1; ToIndex: -1; ScrollX: -1; ScrollY: -1; MaxScrollX: -1; MaxScrollY: -1; AddedCount: -1; RemovedCount: -1; ParcelableData: null ]'
p3246
sS'MovementGranularity'
p3247
g6
sa(dp3248
S'EventTime'
p3249
S'516713558'
p3250
sg4
L1449718103675L
sS'recordCount'
p3251
g6
sS'EventType'
p3252
S'TYPE_WINDOW_STATE_CHANGED'
p3253
sS'PackageName'
p3254
S'com.xdf.ucan'
p3255
sS'OutBounds'
p3256
S'Rect(0, 0 - 720, 1184)'
p3257
sS'Action'
p3258
S'[ ClassName: com.mob.tools.MobUIShell; Text: [\xe4\xbc\x98\xe6\x92\xad\xe8\xaf\xbe]; ContentDescription: null; ItemCount: -1; CurrentItemIndex: -1; IsEnabled: true; IsPassword: false; IsChecked: false; IsFullScreen: true; Scrollable: false; BeforeText: null; FromIndex: -1; ToIndex: -1; ScrollX: -1; ScrollY: -1; MaxScrollX: -1; MaxScrollY: -1; AddedCount: -1; RemovedCount: -1; ParcelableData: null ]'
p3259
sS'MovementGranularity'
p3260
g6
sa(dp3261
S'EventTime'
p3262
S'516713627'
p3263
sg4
L1449718103739L
sS'recordCount'
p3264
g6
sS'EventType'
p3265
S'TYPE_WINDOW_CONTENT_CHANGED'
p3266
sS'PackageName'
p3267
S'com.xdf.ucan'
p3268
sS'OutBounds'
p3269
S'Rect(290, 1001 - 430, 1034)'
p3270
sS'Action'
p3271
S'[ ClassName: android.widget.TextView; Text: []; ContentDescription: null; ItemCount: -1; CurrentItemIndex: -1; IsEnabled: true; IsPassword: false; IsChecked: false; IsFullScreen: false; Scrollable: false; BeforeText: null; FromIndex: -1; ToIndex: -1; ScrollX: -1; ScrollY: -1; MaxScrollX: -1; MaxScrollY: -1; AddedCount: -1; RemovedCount: -1; ParcelableData: null ]'
p3272
sS'MovementGranularity'
p3273
g6
sa(dp3274
S'EventTime'
p3275
S'516713741'
p3276
sg4
L1449718103851L
sS'recordCount'
p3277
g6
sS'EventType'
p3278
S'TYPE_WINDOW_CONTENT_CHANGED'
p3279
sS'PackageName'
p3280
S'com.xdf.ucan'
p3281
sS'OutBounds'
p3282
S'Rect(290, 1001 - 430, 1034)'
p3283
sS'Action'
p3284
S'[ ClassName: android.widget.TextView; Text: []; ContentDescription: null; ItemCount: -1; CurrentItemIndex: -1; IsEnabled: true; IsPassword: false; IsChecked: false; IsFullScreen: false; Scrollable: false; BeforeText: null; FromIndex: -1; ToIndex: -1; ScrollX: -1; ScrollY: -1; MaxScrollX: -1; MaxScrollY: -1; AddedCount: -1; RemovedCount: -1; ParcelableData: null ]'
p3285
sS'MovementGranularity'
p3286
g6
sa(dp3287
S'EventTime'
p3288
S'516714318'
p3289
sg4
L1449718104415L
sS'recordCount'
p3290
g6
sS'EventType'
p3291
S'TYPE_VIEW_CLICKED'
p3292
sS'PackageName'
p3293
S'com.xdf.ucan'
p3294
sS'OutBounds'
p3295
S'Rect(10, 845 - 244, 1044)'
p3296
sS'Action'
p3297
S'[ ClassName: android.widget.LinearLayout; Text: [\xe5\xbe\xae\xe4\xbf\xa1\xe5\xa5\xbd\xe5\x8f\x8b]; ContentDescription: null; ItemCount: -1; CurrentItemIndex: -1; IsEnabled: true; IsPassword: false; IsChecked: false; IsFullScreen: false; Scrollable: false; BeforeText: null; FromIndex: -1; ToIndex: -1; ScrollX: -1; ScrollY: -1; MaxScrollX: -1; MaxScrollY: -1; AddedCount: -1; RemovedCount: -1; ParcelableData: null ]'
p3298
sS'MovementGranularity'
p3299
g6
sa(dp3300
S'EventTime'
p3301
S'516714326'
p3302
sg4
L1449718104440L
sS'recordCount'
p3303
g6
sS'EventType'
p3304
S'TYPE_NOTIFICATION_STATE_CHANGED'
p3305
sS'PackageName'
p3306
S'com.xdf.ucan'
p3307
sS'Action'
p3308
S'[ ClassName: android.widget.Toast$TN; Text: [\xe5\x88\x86\xe4\xba\xab\xe6\x93\x8d\xe4\xbd\x9c\xe6\xad\xa3\xe5\x9c\xa8\xe5\x90\x8e\xe5\x8f\xb0\xe8\xbf\x9b\xe8\xa1\x8c\xe2\x80\xa6]; ContentDescription: null; ItemCount: -1; CurrentItemIndex: -1; IsEnabled: false; IsPassword: false; IsChecked: false; IsFullScreen: false; Scrollable: false; BeforeText: null; FromIndex: -1; ToIndex: -1; ScrollX: -1; ScrollY: -1; MaxScrollX: -1; MaxScrollY: -1; AddedCount: -1; RemovedCount: -1; ParcelableData: null ]'
p3309
sS'MovementGranularity'
p3310
g6
sa(dp3311
S'EventTime'
p3312
S'516715044'
p3313
sg4
L1449718105146L
sS'recordCount'
p3314
g6
sS'EventType'
p3315
S'TYPE_WINDOW_STATE_CHANGED'
p3316
sS'PackageName'
p3317
S'com.xdf.ucan'
p3318
sS'OutBounds'
p3319
S'Rect(0, 0 - 720, 1184)'
p3320
sS'Action'
p3321
S'[ ClassName: com.xdf.ucan.ui.material.MaterialActivity; Text: [\xe4\xbc\x98\xe6\x92\xad\xe8\xaf\xbe]; ContentDescription: null; ItemCount: -1; CurrentItemIndex: -1; IsEnabled: true; IsPassword: false; IsChecked: false; IsFullScreen: true; Scrollable: false; BeforeText: null; FromIndex: -1; ToIndex: -1; ScrollX: -1; ScrollY: -1; MaxScrollX: -1; MaxScrollY: -1; AddedCount: -1; RemovedCount: -1; ParcelableData: null ]'
p3322
sS'MovementGranularity'
p3323
g6
sa(dp3324
S'EventTime'
p3325
S'516718644'
p3326
sg4
L1449718108741L
sS'recordCount'
p3327
g6
sS'EventType'
p3328
S'TYPE_VIEW_CLICKED'
p3329
sS'PackageName'
p3330
S'com.xdf.ucan'
p3331
sS'OutBounds'
p3332
S'Rect(658, 50 - 700, 138)'
p3333
sS'Action'
p3334
S'[ ClassName: android.widget.TextView; Text: []; ContentDescription: null; ItemCount: -1; CurrentItemIndex: -1; IsEnabled: true; IsPassword: false; IsChecked: false; IsFullScreen: false; Scrollable: false; BeforeText: null; FromIndex: -1; ToIndex: -1; ScrollX: -1; ScrollY: -1; MaxScrollX: -1; MaxScrollY: -1; AddedCount: -1; RemovedCount: -1; ParcelableData: null ]'
p3335
sS'MovementGranularity'
p3336
g6
sa(dp3337
S'EventTime'
p3338
S'516718739'
p3339
sg4
L1449718108853L
sS'recordCount'
p3340
g6
sS'EventType'
p3341
S'TYPE_WINDOW_STATE_CHANGED'
p3342
sS'PackageName'
p3343
S'com.xdf.ucan'
p3344
sS'OutBounds'
p3345
S'Rect(0, 0 - 720, 1184)'
p3346
sS'Action'
p3347
S'[ ClassName: com.mob.tools.MobUIShell; Text: [\xe4\xbc\x98\xe6\x92\xad\xe8\xaf\xbe]; ContentDescription: null; ItemCount: -1; CurrentItemIndex: -1; IsEnabled: true; IsPassword: false; IsChecked: false; IsFullScreen: true; Scrollable: false; BeforeText: null; FromIndex: -1; ToIndex: -1; ScrollX: -1; ScrollY: -1; MaxScrollX: -1; MaxScrollY: -1; AddedCount: -1; RemovedCount: -1; ParcelableData: null ]'
p3348
sS'MovementGranularity'
p3349
g6
sa(dp3350
S'EventTime'
p3351
S'516718822'
p3352
sg4
L1449718108930L
sS'recordCount'
p3353
g6
sS'EventType'
p3354
S'TYPE_WINDOW_CONTENT_CHANGED'
p3355
sS'PackageName'
p3356
S'com.xdf.ucan'
p3357
sS'OutBounds'
p3358
S'Rect(574, 1001 - 612, 1034)'
p3359
sS'Action'
p3360
S'[ ClassName: android.widget.TextView; Text: []; ContentDescription: null; ItemCount: -1; CurrentItemIndex: -1; IsEnabled: true; IsPassword: false; IsChecked: false; IsFullScreen: false; Scrollable: false; BeforeText: null; FromIndex: -1; ToIndex: -1; ScrollX: -1; ScrollY: -1; MaxScrollX: -1; MaxScrollY: -1; AddedCount: -1; RemovedCount: -1; ParcelableData: null ]'
p3361
sS'MovementGranularity'
p3362
g6
sa(dp3363
S'EventTime'
p3364
S'516719657'
p3365
sg4
L1449718109755L
sS'recordCount'
p3366
g6
sS'EventType'
p3367
S'TYPE_VIEW_CLICKED'
p3368
sS'PackageName'
p3369
S'com.xdf.ucan'
p3370
sS'OutBounds'
p3371
S'Rect(10, 845 - 244, 1044)'
p3372
sS'Action'
p3373
S'[ ClassName: android.widget.LinearLayout; Text: [\xe5\xbe\xae\xe4\xbf\xa1\xe5\xa5\xbd\xe5\x8f\x8b]; ContentDescription: null; ItemCount: -1; CurrentItemIndex: -1; IsEnabled: true; IsPassword: false; IsChecked: false; IsFullScreen: false; Scrollable: false; BeforeText: null; FromIndex: -1; ToIndex: -1; ScrollX: -1; ScrollY: -1; MaxScrollX: -1; MaxScrollY: -1; AddedCount: -1; RemovedCount: -1; ParcelableData: null ]'
p3374
sS'MovementGranularity'
p3375
g6
sa(dp3376
S'EventTime'
p3377
S'516719664'
p3378
sg4
L1449718109777L
sS'recordCount'
p3379
g6
sS'EventType'
p3380
S'TYPE_NOTIFICATION_STATE_CHANGED'
p3381
sS'PackageName'
p3382
S'com.xdf.ucan'
p3383
sS'Action'
p3384
S'[ ClassName: android.widget.Toast$TN; Text: [\xe5\x88\x86\xe4\xba\xab\xe6\x93\x8d\xe4\xbd\x9c\xe6\xad\xa3\xe5\x9c\xa8\xe5\x90\x8e\xe5\x8f\xb0\xe8\xbf\x9b\xe8\xa1\x8c\xe2\x80\xa6]; ContentDescription: null; ItemCount: -1; CurrentItemIndex: -1; IsEnabled: false; IsPassword: false; IsChecked: false; IsFullScreen: false; Scrollable: false; BeforeText: null; FromIndex: -1; ToIndex: -1; ScrollX: -1; ScrollY: -1; MaxScrollX: -1; MaxScrollY: -1; AddedCount: -1; RemovedCount: -1; ParcelableData: null ]'
p3385
sS'MovementGranularity'
p3386
g6
sa(dp3387
S'EventTime'
p3388
S'516720434'
p3389
sg4
L1449718110535L
sS'recordCount'
p3390
g6
sS'EventType'
p3391
S'TYPE_WINDOW_STATE_CHANGED'
p3392
sS'PackageName'
p3393
S'com.xdf.ucan'
p3394
sS'OutBounds'
p3395
S'Rect(0, 0 - 720, 1184)'
p3396
sS'Action'
p3397
S'[ ClassName: com.xdf.ucan.ui.material.MaterialActivity; Text: [\xe4\xbc\x98\xe6\x92\xad\xe8\xaf\xbe]; ContentDescription: null; ItemCount: -1; CurrentItemIndex: -1; IsEnabled: true; IsPassword: false; IsChecked: false; IsFullScreen: true; Scrollable: false; BeforeText: null; FromIndex: -1; ToIndex: -1; ScrollX: -1; ScrollY: -1; MaxScrollX: -1; MaxScrollY: -1; AddedCount: -1; RemovedCount: -1; ParcelableData: null ]'
p3398
sS'MovementGranularity'
p3399
g6
sa(dp3400
S'EventTime'
p3401
S'516723504'
p3402
sg4
L1449718113602L
sS'recordCount'
p3403
g6
sS'EventType'
p3404
S'TYPE_VIEW_CLICKED'
p3405
sS'PackageName'
p3406
S'com.xdf.ucan'
p3407
sS'OutBounds'
p3408
S'Rect(658, 50 - 700, 138)'
p3409
sS'Action'
p3410
S'[ ClassName: android.widget.TextView; Text: []; ContentDescription: null; ItemCount: -1; CurrentItemIndex: -1; IsEnabled: true; IsPassword: false; IsChecked: false; IsFullScreen: false; Scrollable: false; BeforeText: null; FromIndex: -1; ToIndex: -1; ScrollX: -1; ScrollY: -1; MaxScrollX: -1; MaxScrollY: -1; AddedCount: -1; RemovedCount: -1; ParcelableData: null ]'
p3411
sS'MovementGranularity'
p3412
g6
sa(dp3413
S'EventTime'
p3414
S'516723626'
p3415
sg4
L1449718113739L
sS'recordCount'
p3416
g6
sS'EventType'
p3417
S'TYPE_WINDOW_STATE_CHANGED'
p3418
sS'PackageName'
p3419
S'com.xdf.ucan'
p3420
sS'OutBounds'
p3421
S'Rect(0, 0 - 720, 1184)'
p3422
sS'Action'
p3423
S'[ ClassName: com.mob.tools.MobUIShell; Text: [\xe4\xbc\x98\xe6\x92\xad\xe8\xaf\xbe]; ContentDescription: null; ItemCount: -1; CurrentItemIndex: -1; IsEnabled: true; IsPassword: false; IsChecked: false; IsFullScreen: true; Scrollable: false; BeforeText: null; FromIndex: -1; ToIndex: -1; ScrollX: -1; ScrollY: -1; MaxScrollX: -1; MaxScrollY: -1; AddedCount: -1; RemovedCount: -1; ParcelableData: null ]'
p3424
sS'MovementGranularity'
p3425
g6
sa(dp3426
S'EventTime'
p3427
S'516723693'
p3428
sg4
L1449718113804L
sS'recordCount'
p3429
g6
sS'EventType'
p3430
S'TYPE_WINDOW_CONTENT_CHANGED'
p3431
sS'PackageName'
p3432
S'com.xdf.ucan'
p3433
sS'OutBounds'
p3434
S'Rect(574, 1001 - 612, 1034)'
p3435
sS'Action'
p3436
S'[ ClassName: android.widget.TextView; Text: []; ContentDescription: null; ItemCount: -1; CurrentItemIndex: -1; IsEnabled: true; IsPassword: false; IsChecked: false; IsFullScreen: false; Scrollable: false; BeforeText: null; FromIndex: -1; ToIndex: -1; ScrollX: -1; ScrollY: -1; MaxScrollX: -1; MaxScrollY: -1; AddedCount: -1; RemovedCount: -1; ParcelableData: null ]'
p3437
sS'MovementGranularity'
p3438
g6
sa(dp3439
S'EventTime'
p3440
S'516723805'
p3441
sg4
L1449718113915L
sS'recordCount'
p3442
g6
sS'EventType'
p3443
S'TYPE_WINDOW_CONTENT_CHANGED'
p3444
sS'PackageName'
p3445
S'com.xdf.ucan'
p3446
sS'OutBounds'
p3447
S'Rect(574, 1001 - 612, 1034)'
p3448
sS'Action'
p3449
S'[ ClassName: android.widget.TextView; Text: []; ContentDescription: null; ItemCount: -1; CurrentItemIndex: -1; IsEnabled: true; IsPassword: false; IsChecked: false; IsFullScreen: false; Scrollable: false; BeforeText: null; FromIndex: -1; ToIndex: -1; ScrollX: -1; ScrollY: -1; MaxScrollX: -1; MaxScrollY: -1; AddedCount: -1; RemovedCount: -1; ParcelableData: null ]'
p3450
sS'MovementGranularity'
p3451
g6
sa(dp3452
S'EventTime'
p3453
S'516724323'
p3454
sg4
L1449718114420L
sS'recordCount'
p3455
g6
sS'EventType'
p3456
S'TYPE_VIEW_CLICKED'
p3457
sS'PackageName'
p3458
S'com.xdf.ucan'
p3459
sS'OutBounds'
p3460
S'Rect(10, 845 - 244, 1044)'
p3461
sS'Action'
p3462
S'[ ClassName: android.widget.LinearLayout; Text: [\xe5\xbe\xae\xe4\xbf\xa1\xe5\xa5\xbd\xe5\x8f\x8b]; ContentDescription: null; ItemCount: -1; CurrentItemIndex: -1; IsEnabled: true; IsPassword: false; IsChecked: false; IsFullScreen: false; Scrollable: false; BeforeText: null; FromIndex: -1; ToIndex: -1; ScrollX: -1; ScrollY: -1; MaxScrollX: -1; MaxScrollY: -1; AddedCount: -1; RemovedCount: -1; ParcelableData: null ]'
p3463
sS'MovementGranularity'
p3464
g6
sa(dp3465
S'EventTime'
p3466
S'516725170'
p3467
sg4
L1449718115267L
sS'recordCount'
p3468
g6
sS'EventType'
p3469
S'TYPE_NOTIFICATION_STATE_CHANGED'
p3470
sS'PackageName'
p3471
S'com.xdf.ucan'
p3472
sS'Action'
p3473
S'[ ClassName: android.widget.Toast$TN; Text: [\xe5\x88\x86\xe4\xba\xab\xe6\x93\x8d\xe4\xbd\x9c\xe6\xad\xa3\xe5\x9c\xa8\xe5\x90\x8e\xe5\x8f\xb0\xe8\xbf\x9b\xe8\xa1\x8c\xe2\x80\xa6]; ContentDescription: null; ItemCount: -1; CurrentItemIndex: -1; IsEnabled: false; IsPassword: false; IsChecked: false; IsFullScreen: false; Scrollable: false; BeforeText: null; FromIndex: -1; ToIndex: -1; ScrollX: -1; ScrollY: -1; MaxScrollX: -1; MaxScrollY: -1; AddedCount: -1; RemovedCount: -1; ParcelableData: null ]'
p3474
sS'MovementGranularity'
p3475
g6
sa(dp3476
S'EventTime'
p3477
S'516725615'
p3478
sg4
L1449718115718L
sS'recordCount'
p3479
g6
sS'EventType'
p3480
S'TYPE_WINDOW_STATE_CHANGED'
p3481
sS'PackageName'
p3482
S'com.xdf.ucan'
p3483
sS'OutBounds'
p3484
S'Rect(0, 0 - 720, 1184)'
p3485
sS'Action'
p3486
S'[ ClassName: com.xdf.ucan.ui.material.MaterialActivity; Text: [\xe4\xbc\x98\xe6\x92\xad\xe8\xaf\xbe]; ContentDescription: null; ItemCount: -1; CurrentItemIndex: -1; IsEnabled: true; IsPassword: false; IsChecked: false; IsFullScreen: true; Scrollable: false; BeforeText: null; FromIndex: -1; ToIndex: -1; ScrollX: -1; ScrollY: -1; MaxScrollX: -1; MaxScrollY: -1; AddedCount: -1; RemovedCount: -1; ParcelableData: null ]'
p3487
sS'MovementGranularity'
p3488
g6
sa(dp3489
S'EventTime'
p3490
S'516727523'
p3491
sg4
L1449718117620L
sS'recordCount'
p3492
g6
sS'EventType'
p3493
S'TYPE_VIEW_CLICKED'
p3494
sS'PackageName'
p3495
S'com.xdf.ucan'
p3496
sS'OutBounds'
p3497
S'Rect(658, 50 - 700, 138)'
p3498
sS'Action'
p3499
S'[ ClassName: android.widget.TextView; Text: []; ContentDescription: null; ItemCount: -1; CurrentItemIndex: -1; IsEnabled: true; IsPassword: false; IsChecked: false; IsFullScreen: false; Scrollable: false; BeforeText: null; FromIndex: -1; ToIndex: -1; ScrollX: -1; ScrollY: -1; MaxScrollX: -1; MaxScrollY: -1; AddedCount: -1; RemovedCount: -1; ParcelableData: null ]'
p3500
sS'MovementGranularity'
p3501
g6
sa(dp3502
S'EventTime'
p3503
S'516727626'
p3504
sg4
L1449718117743L
sS'recordCount'
p3505
g6
sS'EventType'
p3506
S'TYPE_WINDOW_STATE_CHANGED'
p3507
sS'PackageName'
p3508
S'com.xdf.ucan'
p3509
sS'OutBounds'
p3510
S'Rect(0, 0 - 720, 1184)'
p3511
sS'Action'
p3512
S'[ ClassName: com.mob.tools.MobUIShell; Text: [\xe4\xbc\x98\xe6\x92\xad\xe8\xaf\xbe]; ContentDescription: null; ItemCount: -1; CurrentItemIndex: -1; IsEnabled: true; IsPassword: false; IsChecked: false; IsFullScreen: true; Scrollable: false; BeforeText: null; FromIndex: -1; ToIndex: -1; ScrollX: -1; ScrollY: -1; MaxScrollX: -1; MaxScrollY: -1; AddedCount: -1; RemovedCount: -1; ParcelableData: null ]'
p3513
sS'MovementGranularity'
p3514
g6
sa(dp3515
S'EventTime'
p3516
S'516727693'
p3517
sg4
L1449718117800L
sS'recordCount'
p3518
g6
sS'EventType'
p3519
S'TYPE_WINDOW_CONTENT_CHANGED'
p3520
sS'PackageName'
p3521
S'com.xdf.ucan'
p3522
sS'OutBounds'
p3523
S'Rect(574, 1001 - 612, 1034)'
p3524
sS'Action'
p3525
S'[ ClassName: android.widget.TextView; Text: []; ContentDescription: null; ItemCount: -1; CurrentItemIndex: -1; IsEnabled: true; IsPassword: false; IsChecked: false; IsFullScreen: false; Scrollable: false; BeforeText: null; FromIndex: -1; ToIndex: -1; ScrollX: -1; ScrollY: -1; MaxScrollX: -1; MaxScrollY: -1; AddedCount: -1; RemovedCount: -1; ParcelableData: null ]'
p3526
sS'MovementGranularity'
p3527
g6
sa(dp3528
S'EventTime'
p3529
S'516727803'
p3530
sg4
L1449718117914L
sS'recordCount'
p3531
g6
sS'EventType'
p3532
S'TYPE_WINDOW_CONTENT_CHANGED'
p3533
sS'PackageName'
p3534
S'com.xdf.ucan'
p3535
sS'OutBounds'
p3536
S'Rect(574, 1001 - 612, 1034)'
p3537
sS'Action'
p3538
S'[ ClassName: android.widget.TextView; Text: []; ContentDescription: null; ItemCount: -1; CurrentItemIndex: -1; IsEnabled: true; IsPassword: false; IsChecked: false; IsFullScreen: false; Scrollable: false; BeforeText: null; FromIndex: -1; ToIndex: -1; ScrollX: -1; ScrollY: -1; MaxScrollX: -1; MaxScrollY: -1; AddedCount: -1; RemovedCount: -1; ParcelableData: null ]'
p3539
sS'MovementGranularity'
p3540
g6
sa(dp3541
S'EventTime'
p3542
S'516728982'
p3543
sg4
L1449718119079L
sS'recordCount'
p3544
g6
sS'EventType'
p3545
S'TYPE_VIEW_CLICKED'
p3546
sS'PackageName'
p3547
S'com.xdf.ucan'
p3548
sS'OutBounds'
p3549
S'Rect(244, 845 - 477, 1044)'
p3550
sS'Action'
p3551
S'[ ClassName: android.widget.LinearLayout; Text: [\xe5\xbe\xae\xe4\xbf\xa1\xe6\x9c\x8b\xe5\x8f\x8b\xe5\x9c\x88]; ContentDescription: null; ItemCount: -1; CurrentItemIndex: -1; IsEnabled: true; IsPassword: false; IsChecked: false; IsFullScreen: false; Scrollable: false; BeforeText: null; FromIndex: -1; ToIndex: -1; ScrollX: -1; ScrollY: -1; MaxScrollX: -1; MaxScrollY: -1; AddedCount: -1; RemovedCount: -1; ParcelableData: null ]'
p3552
sS'MovementGranularity'
p3553
g6
sa(dp3554
S'EventTime'
p3555
S'516728989'
p3556
sg4
L1449718119097L
sS'recordCount'
p3557
g6
sS'EventType'
p3558
S'TYPE_NOTIFICATION_STATE_CHANGED'
p3559
sS'PackageName'
p3560
S'com.xdf.ucan'
p3561
sS'Action'
p3562
S'[ ClassName: android.widget.Toast$TN; Text: [\xe5\x88\x86\xe4\xba\xab\xe6\x93\x8d\xe4\xbd\x9c\xe6\xad\xa3\xe5\x9c\xa8\xe5\x90\x8e\xe5\x8f\xb0\xe8\xbf\x9b\xe8\xa1\x8c\xe2\x80\xa6]; ContentDescription: null; ItemCount: -1; CurrentItemIndex: -1; IsEnabled: false; IsPassword: false; IsChecked: false; IsFullScreen: false; Scrollable: false; BeforeText: null; FromIndex: -1; ToIndex: -1; ScrollX: -1; ScrollY: -1; MaxScrollX: -1; MaxScrollY: -1; AddedCount: -1; RemovedCount: -1; ParcelableData: null ]'
p3563
sS'MovementGranularity'
p3564
g6
sa(dp3565
S'EventTime'
p3566
S'516729704'
p3567
sg4
L1449718119805L
sS'recordCount'
p3568
g6
sS'EventType'
p3569
S'TYPE_WINDOW_STATE_CHANGED'
p3570
sS'PackageName'
p3571
S'com.xdf.ucan'
p3572
sS'OutBounds'
p3573
S'Rect(0, 0 - 720, 1184)'
p3574
sS'Action'
p3575
S'[ ClassName: com.xdf.ucan.ui.material.MaterialActivity; Text: [\xe4\xbc\x98\xe6\x92\xad\xe8\xaf\xbe]; ContentDescription: null; ItemCount: -1; CurrentItemIndex: -1; IsEnabled: true; IsPassword: false; IsChecked: false; IsFullScreen: true; Scrollable: false; BeforeText: null; FromIndex: -1; ToIndex: -1; ScrollX: -1; ScrollY: -1; MaxScrollX: -1; MaxScrollY: -1; AddedCount: -1; RemovedCount: -1; ParcelableData: null ]'
p3576
sS'MovementGranularity'
p3577
g6
sa.