(lp0
(dp1
S'EventTime'
p2
S'341508999'
p3
sS'SyscTime'
p4
L1449716565978L
sS'recordCount'
p5
S'0'
p6
sS'EventType'
p7
S'TYPE_WINDOW_STATE_CHANGED'
p8
sS'PackageName'
p9
S'com.example.myfristandroid'
p10
sS'OutBounds'
p11
S'Rect(0, 0 - 480, 800)'
p12
sS'Action'
p13
S'[ ClassName: com.example.myfristandroid.SplashActivity; Text: [SE-1800\xe7\xa7\xbb\xe5\x8a\xa8APP]; ContentDescription: null; ItemCount: -1; CurrentItemIndex: -1; IsEnabled: true; IsPassword: false; IsChecked: false; IsFullScreen: true; Scrollable: false; BeforeText: null; FromIndex: -1; ToIndex: -1; ScrollX: -1; ScrollY: -1; MaxScrollX: -1; MaxScrollY: -1; AddedCount: -1; RemovedCount: -1; ParcelableData: null ]'
p14
sS'MovementGranularity'
p15
g6
sa(dp16
S'EventTime'
p17
S'341509176'
p18
sg4
L1449716566083L
sS'recordCount'
p19
g6
sS'EventType'
p20
S'TYPE_WINDOW_CONTENT_CHANGED'
p21
sS'PackageName'
p22
S'com.example.myfristandroid'
p23
sS'OutBounds'
p24
S'Rect(0, 0 - 480, 800)'
p25
sS'Action'
p26
S'[ ClassName: android.widget.FrameLayout; Text: []; ContentDescription: null; ItemCount: -1; CurrentItemIndex: -1; IsEnabled: true; IsPassword: false; IsChecked: false; IsFullScreen: false; Scrollable: false; BeforeText: null; FromIndex: -1; ToIndex: -1; ScrollX: -1; ScrollY: -1; MaxScrollX: -1; MaxScrollY: -1; AddedCount: -1; RemovedCount: -1; ParcelableData: null ]'
p27
sS'MovementGranularity'
p28
g6
sa(dp29
S'EventTime'
p30
S'341511901'
p31
sg4
L1449716568879L
sS'recordCount'
p32
g6
sS'EventType'
p33
S'TYPE_WINDOW_STATE_CHANGED'
p34
sS'PackageName'
p35
S'com.example.myfristandroid'
p36
sS'OutBounds'
p37
S'Rect(0, 0 - 480, 800)'
p38
sS'Action'
p39
S'[ ClassName: com.example.myfristandroid.MainActivity; Text: [SE-1800\xe7\xa7\xbb\xe5\x8a\xa8APP]; ContentDescription: null; ItemCount: -1; CurrentItemIndex: -1; IsEnabled: true; IsPassword: false; IsChecked: false; IsFullScreen: true; Scrollable: false; BeforeText: null; FromIndex: -1; ToIndex: -1; ScrollX: -1; ScrollY: -1; MaxScrollX: -1; MaxScrollY: -1; AddedCount: -1; RemovedCount: -1; ParcelableData: null ]'
p40
sS'MovementGranularity'
p41
g6
sa(dp42
S'EventTime'
p43
S'341511905'
p44
sg4
L1449716568949L
sS'recordCount'
p45
g6
sS'EventType'
p46
S'TYPE_VIEW_SCROLLED'
p47
sS'PackageName'
p48
S'com.example.myfristandroid'
p49
sS'OutBounds'
p50
S'Rect(490, 315 - 950, 315)'
p51
sS'Action'
p52
S'[ ClassName: android.widget.ListView; Text: []; ContentDescription: null; ItemCount: 0; CurrentItemIndex: -1; IsEnabled: true; IsPassword: false; IsChecked: false; IsFullScreen: false; Scrollable: false; BeforeText: null; FromIndex: 0; ToIndex: -1; ScrollX: -1; ScrollY: -1; MaxScrollX: -1; MaxScrollY: -1; AddedCount: -1; RemovedCount: -1; ParcelableData: null ]'
p53
sS'MovementGranularity'
p54
g6
sa(dp55
S'EventTime'
p56
S'341512147'
p57
sg4
L1449716569046L
sS'recordCount'
p58
g6
sS'EventType'
p59
S'TYPE_WINDOW_CONTENT_CHANGED'
p60
sS'PackageName'
p61
S'com.example.myfristandroid'
p62
sS'Action'
p63
S'[ ClassName: android.widget.FrameLayout; Text: []; ContentDescription: null; ItemCount: -1; CurrentItemIndex: -1; IsEnabled: true; IsPassword: false; IsChecked: false; IsFullScreen: false; Scrollable: false; BeforeText: null; FromIndex: -1; ToIndex: -1; ScrollX: -1; ScrollY: -1; MaxScrollX: -1; MaxScrollY: -1; AddedCount: -1; RemovedCount: -1; ParcelableData: null ]'
p64
sS'MovementGranularity'
p65
g6
sa(dp66
S'EventTime'
p67
S'341512220'
p68
sg4
L1449716569129L
sS'recordCount'
p69
g6
sS'EventType'
p70
S'TYPE_WINDOW_STATE_CHANGED'
p71
sS'PackageName'
p72
S'com.example.myfristandroid'
p73
sS'OutBounds'
p74
S'Rect(0, 0 - 480, 800)'
p75
sS'Action'
p76
S'[ ClassName: com.example.myfristandroid.HuzAlertDialog; Text: [\xe6\x8f\x90\xe7\xa4\xba, \xe7\x89\x88\xe6\x9c\xac\xe6\x9c\x89\xe6\x9b\xb4\xe6\x96\xb0\xef\xbc\x8c\xe6\x98\xaf\xe5\x90\xa6\xe9\x9c\x80\xe8\xa6\x81\xe6\x9b\xb4\xe6\x96\xb0, \xe7\xab\x8b\xe5\x8d\xb3\xe6\x9b\xb4\xe6\x96\xb0, \xe7\xa8\x8d\xe5\x90\x8e\xe6\x9b\xb4\xe6\x96\xb0]; ContentDescription: null; ItemCount: -1; CurrentItemIndex: -1; IsEnabled: true; IsPassword: false; IsChecked: false; IsFullScreen: true; Scrollable: false; BeforeText: null; FromIndex: -1; ToIndex: -1; ScrollX: -1; ScrollY: -1; MaxScrollX: -1; MaxScrollY: -1; AddedCount: -1; RemovedCount: -1; ParcelableData: null ]'
p77
sS'MovementGranularity'
p78
g6
sa(dp79
S'EventTime'
p80
S'341512267'
p81
sg4
L1449716569203L
sS'recordCount'
p82
g6
sS'EventType'
p83
S'TYPE_WINDOW_CONTENT_CHANGED'
p84
sS'PackageName'
p85
S'com.example.myfristandroid'
p86
sS'OutBounds'
p87
S'Rect(0, 0 - 480, 800)'
p88
sS'Action'
p89
S'[ ClassName: android.widget.FrameLayout; Text: []; ContentDescription: null; ItemCount: -1; CurrentItemIndex: -1; IsEnabled: true; IsPassword: false; IsChecked: false; IsFullScreen: false; Scrollable: false; BeforeText: null; FromIndex: -1; ToIndex: -1; ScrollX: -1; ScrollY: -1; MaxScrollX: -1; MaxScrollY: -1; AddedCount: -1; RemovedCount: -1; ParcelableData: null ]'
p90
sS'MovementGranularity'
p91
g6
sa(dp92
S'EventTime'
p93
S'341512385'
p94
sg4
L1449716569300L
sS'recordCount'
p95
g6
sS'EventType'
p96
S'TYPE_WINDOW_CONTENT_CHANGED'
p97
sS'PackageName'
p98
S'com.example.myfristandroid'
p99
sS'OutBounds'
p100
S'Rect(0, 0 - 480, 800)'
p101
sS'Action'
p102
S'[ ClassName: android.widget.FrameLayout; Text: []; ContentDescription: null; ItemCount: -1; CurrentItemIndex: -1; IsEnabled: true; IsPassword: false; IsChecked: false; IsFullScreen: false; Scrollable: false; BeforeText: null; FromIndex: -1; ToIndex: -1; ScrollX: -1; ScrollY: -1; MaxScrollX: -1; MaxScrollY: -1; AddedCount: -1; RemovedCount: -1; ParcelableData: null ]'
p103
sS'MovementGranularity'
p104
g6
sa(dp105
S'EventTime'
p106
S'341515151'
p107
sg4
L1449716572051L
sS'recordCount'
p108
g6
sS'EventType'
p109
S'TYPE_VIEW_CLICKED'
p110
sS'PackageName'
p111
S'com.example.myfristandroid'
p112
sS'OutBounds'
p113
S'Rect(249, 454 - 448, 526)'
p114
sS'Action'
p115
S'[ ClassName: android.widget.Button; Text: [\xe7\xa8\x8d\xe5\x90\x8e\xe6\x9b\xb4\xe6\x96\xb0]; ContentDescription: null; ItemCount: -1; CurrentItemIndex: -1; IsEnabled: true; IsPassword: false; IsChecked: false; IsFullScreen: false; Scrollable: false; BeforeText: null; FromIndex: -1; ToIndex: -1; ScrollX: -1; ScrollY: -1; MaxScrollX: -1; MaxScrollY: -1; AddedCount: -1; RemovedCount: -1; ParcelableData: null ]'
p116
sS'MovementGranularity'
p117
g6
sa(dp118
S'EventTime'
p119
S'341515196'
p120
sg4
L1449716572136L
sS'recordCount'
p121
g6
sS'EventType'
p122
S'TYPE_WINDOW_STATE_CHANGED'
p123
sS'PackageName'
p124
S'com.example.myfristandroid'
p125
sS'OutBounds'
p126
S'Rect(0, 0 - 480, 800)'
p127
sS'Action'
p128
S'[ ClassName: com.example.myfristandroid.MainActivity; Text: [SE-1800\xe7\xa7\xbb\xe5\x8a\xa8APP]; ContentDescription: null; ItemCount: -1; CurrentItemIndex: -1; IsEnabled: true; IsPassword: false; IsChecked: false; IsFullScreen: true; Scrollable: false; BeforeText: null; FromIndex: -1; ToIndex: -1; ScrollX: -1; ScrollY: -1; MaxScrollX: -1; MaxScrollY: -1; AddedCount: -1; RemovedCount: -1; ParcelableData: null ]'
p129
sS'MovementGranularity'
p130
g6
sa(dp131
S'EventTime'
p132
S'341518178'
p133
sg4
L1449716575080L
sS'recordCount'
p134
S'1'
p135
sS'EventType'
p136
S'TYPE_VIEW_CLICKED'
p137
sS'PackageName'
p138
S'com.example.myfristandroid'
p139
sS'OutBounds'
p140
S'Rect(162, 268 - 318, 424)'
p141
sS'Action'
p142
S'[ ClassName: android.widget.RelativeLayout; Text: [\xe6\xb1\x87\xe6\xb5\x81\xe7\xae\xb1]; ContentDescription: null; ItemCount: -1; CurrentItemIndex: -1; IsEnabled: true; IsPassword: false; IsChecked: false; IsFullScreen: false; Scrollable: false; BeforeText: null; FromIndex: -1; ToIndex: -1; ScrollX: -1; ScrollY: -1; MaxScrollX: -1; MaxScrollY: -1; AddedCount: -1; RemovedCount: -1; ParcelableData: null ]'
p143
sS'MovementGranularity'
p144
g6
sa(dp145
S'EventTime'
p146
S'341519580'
p147
sg4
L1449716576606L
sS'recordCount'
p148
g6
sS'EventType'
p149
S'TYPE_WINDOW_STATE_CHANGED'
p150
sS'PackageName'
p151
S'com.example.myfristandroid'
p152
sS'OutBounds'
p153
S'Rect(0, 0 - 480, 800)'
p154
sS'Action'
p155
S'[ ClassName: com.example.myfristandroid.graphWebShow; Text: [SE-1800\xe7\xa7\xbb\xe5\x8a\xa8APP]; ContentDescription: null; ItemCount: -1; CurrentItemIndex: -1; IsEnabled: true; IsPassword: false; IsChecked: false; IsFullScreen: true; Scrollable: false; BeforeText: null; FromIndex: -1; ToIndex: -1; ScrollX: -1; ScrollY: -1; MaxScrollX: -1; MaxScrollY: -1; AddedCount: -1; RemovedCount: -1; ParcelableData: null ]'
p156
sS'MovementGranularity'
p157
g6
sa(dp158
S'EventTime'
p159
S'341519814'
p160
sg4
L1449716576721L
sS'recordCount'
p161
g6
sS'EventType'
p162
S'TYPE_WINDOW_CONTENT_CHANGED'
p163
sS'PackageName'
p164
S'com.example.myfristandroid'
p165
sS'OutBounds'
p166
S'Rect(0, 0 - 480, 800)'
p167
sS'Action'
p168
S'[ ClassName: android.widget.FrameLayout; Text: []; ContentDescription: null; ItemCount: -1; CurrentItemIndex: -1; IsEnabled: true; IsPassword: false; IsChecked: false; IsFullScreen: false; Scrollable: false; BeforeText: null; FromIndex: -1; ToIndex: -1; ScrollX: -1; ScrollY: -1; MaxScrollX: -1; MaxScrollY: -1; AddedCount: -1; RemovedCount: -1; ParcelableData: null ]'
p169
sS'MovementGranularity'
p170
g6
sa(dp171
S'EventTime'
p172
S'341529661'
p173
sg4
L1449716586561L
sS'recordCount'
p174
g6
sS'EventType'
p175
S'TYPE_VIEW_CLICKED'
p176
sS'PackageName'
p177
S'com.example.myfristandroid'
p178
sS'OutBounds'
p179
S'Rect(0, 38 - 60, 106)'
p180
sS'Action'
p181
S'[ ClassName: android.widget.ImageButton; Text: []; ContentDescription: null; ItemCount: -1; CurrentItemIndex: -1; IsEnabled: true; IsPassword: false; IsChecked: false; IsFullScreen: false; Scrollable: false; BeforeText: null; FromIndex: -1; ToIndex: -1; ScrollX: -1; ScrollY: -1; MaxScrollX: -1; MaxScrollY: -1; AddedCount: -1; RemovedCount: -1; ParcelableData: null ]'
p182
sS'MovementGranularity'
p183
g6
sa(dp184
S'EventTime'
p185
S'341529777'
p186
sg4
L1449716586720L
sS'recordCount'
p187
g6
sS'EventType'
p188
S'TYPE_WINDOW_STATE_CHANGED'
p189
sS'PackageName'
p190
S'com.example.myfristandroid'
p191
sS'OutBounds'
p192
S'Rect(0, 0 - 480, 800)'
p193
sS'Action'
p194
S'[ ClassName: com.example.myfristandroid.MainActivity; Text: [SE-1800\xe7\xa7\xbb\xe5\x8a\xa8APP]; ContentDescription: null; ItemCount: -1; CurrentItemIndex: -1; IsEnabled: true; IsPassword: false; IsChecked: false; IsFullScreen: true; Scrollable: false; BeforeText: null; FromIndex: -1; ToIndex: -1; ScrollX: -1; ScrollY: -1; MaxScrollX: -1; MaxScrollY: -1; AddedCount: -1; RemovedCount: -1; ParcelableData: null ]'
p195
sS'MovementGranularity'
p196
g6
sa(dp197
S'EventTime'
p198
S'341531106'
p199
sg4
L1449716588116L
sS'recordCount'
p200
g135
sS'EventType'
p201
S'TYPE_VIEW_CLICKED'
p202
sS'PackageName'
p203
S'com.example.myfristandroid'
p204
sS'OutBounds'
p205
S'Rect(319, 268 - 475, 424)'
p206
sS'Action'
p207
S'[ ClassName: android.widget.RelativeLayout; Text: [\xe7\x8e\xaf\xe5\xa2\x83\xe7\x9b\x91\xe6\xb5\x8b]; ContentDescription: null; ItemCount: -1; CurrentItemIndex: -1; IsEnabled: true; IsPassword: false; IsChecked: false; IsFullScreen: false; Scrollable: false; BeforeText: null; FromIndex: -1; ToIndex: -1; ScrollX: -1; ScrollY: -1; MaxScrollX: -1; MaxScrollY: -1; AddedCount: -1; RemovedCount: -1; ParcelableData: null ]'
p208
sS'MovementGranularity'
p209
g6
sa(dp210
S'EventTime'
p211
S'341531569'
p212
sg4
L1449716588470L
sS'recordCount'
p213
g6
sS'EventType'
p214
S'TYPE_WINDOW_STATE_CHANGED'
p215
sS'PackageName'
p216
S'com.example.myfristandroid'
p217
sS'OutBounds'
p218
S'Rect(0, 0 - 480, 800)'
p219
sS'Action'
p220
S'[ ClassName: com.example.myfristandroid.graphWebShow; Text: [SE-1800\xe7\xa7\xbb\xe5\x8a\xa8APP]; ContentDescription: null; ItemCount: -1; CurrentItemIndex: -1; IsEnabled: true; IsPassword: false; IsChecked: false; IsFullScreen: true; Scrollable: false; BeforeText: null; FromIndex: -1; ToIndex: -1; ScrollX: -1; ScrollY: -1; MaxScrollX: -1; MaxScrollY: -1; AddedCount: -1; RemovedCount: -1; ParcelableData: null ]'
p221
sS'MovementGranularity'
p222
g6
sa(dp223
S'EventTime'
p224
S'341531615'
p225
sg4
L1449716588517L
sS'recordCount'
p226
g6
sS'EventType'
p227
S'TYPE_WINDOW_CONTENT_CHANGED'
p228
sS'PackageName'
p229
S'com.example.myfristandroid'
p230
sS'OutBounds'
p231
S'Rect(0, 0 - 480, 800)'
p232
sS'Action'
p233
S'[ ClassName: android.widget.FrameLayout; Text: []; ContentDescription: null; ItemCount: -1; CurrentItemIndex: -1; IsEnabled: true; IsPassword: false; IsChecked: false; IsFullScreen: false; Scrollable: false; BeforeText: null; FromIndex: -1; ToIndex: -1; ScrollX: -1; ScrollY: -1; MaxScrollX: -1; MaxScrollY: -1; AddedCount: -1; RemovedCount: -1; ParcelableData: null ]'
p234
sS'MovementGranularity'
p235
g6
sa(dp236
S'EventTime'
p237
S'341533768'
p238
sg4
L1449716590667L
sS'recordCount'
p239
g6
sS'EventType'
p240
S'TYPE_VIEW_CLICKED'
p241
sS'PackageName'
p242
S'com.example.myfristandroid'
p243
sS'OutBounds'
p244
S'Rect(0, 38 - 60, 106)'
p245
sS'Action'
p246
S'[ ClassName: android.widget.ImageButton; Text: []; ContentDescription: null; ItemCount: -1; CurrentItemIndex: -1; IsEnabled: true; IsPassword: false; IsChecked: false; IsFullScreen: false; Scrollable: false; BeforeText: null; FromIndex: -1; ToIndex: -1; ScrollX: -1; ScrollY: -1; MaxScrollX: -1; MaxScrollY: -1; AddedCount: -1; RemovedCount: -1; ParcelableData: null ]'
p247
sS'MovementGranularity'
p248
g6
sa(dp249
S'EventTime'
p250
S'341533837'
p251
sg4
L1449716590770L
sS'recordCount'
p252
g6
sS'EventType'
p253
S'TYPE_WINDOW_STATE_CHANGED'
p254
sS'PackageName'
p255
S'com.example.myfristandroid'
p256
sS'OutBounds'
p257
S'Rect(0, 0 - 480, 800)'
p258
sS'Action'
p259
S'[ ClassName: com.example.myfristandroid.MainActivity; Text: [SE-1800\xe7\xa7\xbb\xe5\x8a\xa8APP]; ContentDescription: null; ItemCount: -1; CurrentItemIndex: -1; IsEnabled: true; IsPassword: false; IsChecked: false; IsFullScreen: true; Scrollable: false; BeforeText: null; FromIndex: -1; ToIndex: -1; ScrollX: -1; ScrollY: -1; MaxScrollX: -1; MaxScrollY: -1; AddedCount: -1; RemovedCount: -1; ParcelableData: null ]'
p260
sS'MovementGranularity'
p261
g6
sa(dp262
S'EventTime'
p263
S'341534725'
p264
sg4
L1449716591624L
sS'recordCount'
p265
g135
sS'EventType'
p266
S'TYPE_VIEW_CLICKED'
p267
sS'PackageName'
p268
S'com.example.myfristandroid'
p269
sS'OutBounds'
p270
S'Rect(5, 425 - 161, 581)'
p271
sS'Action'
p272
S'[ ClassName: android.widget.RelativeLayout; Text: [\xe7\xb3\xbb\xe7\xbb\x9f\xe6\x8b\x93\xe6\x89\x91\xe5\x9b\xbe]; ContentDescription: null; ItemCount: -1; CurrentItemIndex: -1; IsEnabled: true; IsPassword: false; IsChecked: false; IsFullScreen: false; Scrollable: false; BeforeText: null; FromIndex: -1; ToIndex: -1; ScrollX: -1; ScrollY: -1; MaxScrollX: -1; MaxScrollY: -1; AddedCount: -1; RemovedCount: -1; ParcelableData: null ]'
p273
sS'MovementGranularity'
p274
g6
sa(dp275
S'EventTime'
p276
S'341534883'
p277
sg4
L1449716591786L
sS'recordCount'
p278
g6
sS'EventType'
p279
S'TYPE_WINDOW_STATE_CHANGED'
p280
sS'PackageName'
p281
S'com.example.myfristandroid'
p282
sS'OutBounds'
p283
S'Rect(0, 0 - 480, 800)'
p284
sS'Action'
p285
S'[ ClassName: com.example.myfristandroid.graphWebShow; Text: [SE-1800\xe7\xa7\xbb\xe5\x8a\xa8APP]; ContentDescription: null; ItemCount: -1; CurrentItemIndex: -1; IsEnabled: true; IsPassword: false; IsChecked: false; IsFullScreen: true; Scrollable: false; BeforeText: null; FromIndex: -1; ToIndex: -1; ScrollX: -1; ScrollY: -1; MaxScrollX: -1; MaxScrollY: -1; AddedCount: -1; RemovedCount: -1; ParcelableData: null ]'
p286
sS'MovementGranularity'
p287
g6
sa(dp288
S'EventTime'
p289
S'341534937'
p290
sg4
L1449716591843L
sS'recordCount'
p291
g6
sS'EventType'
p292
S'TYPE_WINDOW_CONTENT_CHANGED'
p293
sS'PackageName'
p294
S'com.example.myfristandroid'
p295
sS'OutBounds'
p296
S'Rect(0, 0 - 480, 800)'
p297
sS'Action'
p298
S'[ ClassName: android.widget.FrameLayout; Text: []; ContentDescription: null; ItemCount: -1; CurrentItemIndex: -1; IsEnabled: true; IsPassword: false; IsChecked: false; IsFullScreen: false; Scrollable: false; BeforeText: null; FromIndex: -1; ToIndex: -1; ScrollX: -1; ScrollY: -1; MaxScrollX: -1; MaxScrollY: -1; AddedCount: -1; RemovedCount: -1; ParcelableData: null ]'
p299
sS'MovementGranularity'
p300
g6
sa(dp301
S'EventTime'
p302
S'341535978'
p303
sg4
L1449716592879L
sS'recordCount'
p304
g6
sS'EventType'
p305
S'TYPE_VIEW_CLICKED'
p306
sS'PackageName'
p307
S'com.example.myfristandroid'
p308
sS'OutBounds'
p309
S'Rect(0, 38 - 60, 106)'
p310
sS'Action'
p311
S'[ ClassName: android.widget.ImageButton; Text: []; ContentDescription: null; ItemCount: -1; CurrentItemIndex: -1; IsEnabled: true; IsPassword: false; IsChecked: false; IsFullScreen: false; Scrollable: false; BeforeText: null; FromIndex: -1; ToIndex: -1; ScrollX: -1; ScrollY: -1; MaxScrollX: -1; MaxScrollY: -1; AddedCount: -1; RemovedCount: -1; ParcelableData: null ]'
p312
sS'MovementGranularity'
p313
g6
sa(dp314
S'EventTime'
p315
S'341536039'
p316
sg4
L1449716592986L
sS'recordCount'
p317
g6
sS'EventType'
p318
S'TYPE_WINDOW_STATE_CHANGED'
p319
sS'PackageName'
p320
S'com.example.myfristandroid'
p321
sS'OutBounds'
p322
S'Rect(0, 0 - 480, 800)'
p323
sS'Action'
p324
S'[ ClassName: com.example.myfristandroid.MainActivity; Text: [SE-1800\xe7\xa7\xbb\xe5\x8a\xa8APP]; ContentDescription: null; ItemCount: -1; CurrentItemIndex: -1; IsEnabled: true; IsPassword: false; IsChecked: false; IsFullScreen: true; Scrollable: false; BeforeText: null; FromIndex: -1; ToIndex: -1; ScrollX: -1; ScrollY: -1; MaxScrollX: -1; MaxScrollY: -1; AddedCount: -1; RemovedCount: -1; ParcelableData: null ]'
p325
sS'MovementGranularity'
p326
g6
sa(dp327
S'EventTime'
p328
S'341536783'
p329
sg4
L1449716593682L
sS'recordCount'
p330
g135
sS'EventType'
p331
S'TYPE_VIEW_CLICKED'
p332
sS'PackageName'
p333
S'com.example.myfristandroid'
p334
sS'OutBounds'
p335
S'Rect(162, 425 - 318, 581)'
p336
sS'Action'
p337
S'[ ClassName: android.widget.RelativeLayout; Text: [\xe5\x87\x8f\xe6\x8e\x92\xe9\x87\x8f\xe4\xbf\xa1\xe6\x81\xaf]; ContentDescription: null; ItemCount: -1; CurrentItemIndex: -1; IsEnabled: true; IsPassword: false; IsChecked: false; IsFullScreen: false; Scrollable: false; BeforeText: null; FromIndex: -1; ToIndex: -1; ScrollX: -1; ScrollY: -1; MaxScrollX: -1; MaxScrollY: -1; AddedCount: -1; RemovedCount: -1; ParcelableData: null ]'
p338
sS'MovementGranularity'
p339
g6
sa(dp340
S'EventTime'
p341
S'341536977'
p342
sg4
L1449716593899L
sS'recordCount'
p343
g6
sS'EventType'
p344
S'TYPE_WINDOW_STATE_CHANGED'
p345
sS'PackageName'
p346
S'com.example.myfristandroid'
p347
sS'OutBounds'
p348
S'Rect(0, 0 - 480, 800)'
p349
sS'Action'
p350
S'[ ClassName: com.example.myfristandroid.graphWebShow; Text: [SE-1800\xe7\xa7\xbb\xe5\x8a\xa8APP]; ContentDescription: null; ItemCount: -1; CurrentItemIndex: -1; IsEnabled: true; IsPassword: false; IsChecked: false; IsFullScreen: true; Scrollable: false; BeforeText: null; FromIndex: -1; ToIndex: -1; ScrollX: -1; ScrollY: -1; MaxScrollX: -1; MaxScrollY: -1; AddedCount: -1; RemovedCount: -1; ParcelableData: null ]'
p351
sS'MovementGranularity'
p352
g6
sa(dp353
S'EventTime'
p354
S'341537055'
p355
sg4
L1449716593957L
sS'recordCount'
p356
g6
sS'EventType'
p357
S'TYPE_WINDOW_CONTENT_CHANGED'
p358
sS'PackageName'
p359
S'com.example.myfristandroid'
p360
sS'OutBounds'
p361
S'Rect(0, 0 - 480, 800)'
p362
sS'Action'
p363
S'[ ClassName: android.widget.FrameLayout; Text: []; ContentDescription: null; ItemCount: -1; CurrentItemIndex: -1; IsEnabled: true; IsPassword: false; IsChecked: false; IsFullScreen: false; Scrollable: false; BeforeText: null; FromIndex: -1; ToIndex: -1; ScrollX: -1; ScrollY: -1; MaxScrollX: -1; MaxScrollY: -1; AddedCount: -1; RemovedCount: -1; ParcelableData: null ]'
p364
sS'MovementGranularity'
p365
g6
sa(dp366
S'EventTime'
p367
S'341538169'
p368
sg4
L1449716595098L
sS'recordCount'
p369
g6
sS'EventType'
p370
S'TYPE_VIEW_CLICKED'
p371
sS'PackageName'
p372
S'com.example.myfristandroid'
p373
sS'OutBounds'
p374
S'Rect(0, 38 - 60, 106)'
p375
sS'Action'
p376
S'[ ClassName: android.widget.ImageButton; Text: []; ContentDescription: null; ItemCount: -1; CurrentItemIndex: -1; IsEnabled: true; IsPassword: false; IsChecked: false; IsFullScreen: false; Scrollable: false; BeforeText: null; FromIndex: -1; ToIndex: -1; ScrollX: -1; ScrollY: -1; MaxScrollX: -1; MaxScrollY: -1; AddedCount: -1; RemovedCount: -1; ParcelableData: null ]'
p377
sS'MovementGranularity'
p378
g6
sa(dp379
S'EventTime'
p380
S'341538348'
p381
sg4
L1449716595273L
sS'recordCount'
p382
g6
sS'EventType'
p383
S'TYPE_WINDOW_STATE_CHANGED'
p384
sS'PackageName'
p385
S'com.example.myfristandroid'
p386
sS'OutBounds'
p387
S'Rect(0, 0 - 480, 800)'
p388
sS'Action'
p389
S'[ ClassName: com.example.myfristandroid.MainActivity; Text: [SE-1800\xe7\xa7\xbb\xe5\x8a\xa8APP]; ContentDescription: null; ItemCount: -1; CurrentItemIndex: -1; IsEnabled: true; IsPassword: false; IsChecked: false; IsFullScreen: true; Scrollable: false; BeforeText: null; FromIndex: -1; ToIndex: -1; ScrollX: -1; ScrollY: -1; MaxScrollX: -1; MaxScrollY: -1; AddedCount: -1; RemovedCount: -1; ParcelableData: null ]'
p390
sS'MovementGranularity'
p391
g6
sa(dp392
S'EventTime'
p393
S'341539274'
p394
sg4
L1449716596173L
sS'recordCount'
p395
g135
sS'EventType'
p396
S'TYPE_VIEW_CLICKED'
p397
sS'PackageName'
p398
S'com.example.myfristandroid'
p399
sS'OutBounds'
p400
S'Rect(319, 425 - 475, 581)'
p401
sS'Action'
p402
S'[ ClassName: android.widget.RelativeLayout; Text: [\xe5\x85\xb6\xe4\xbb\x96\xe6\xbc\x94\xe7\xa4\xba\xe7\xb3\xbb\xe7\xbb\x9f]; ContentDescription: null; ItemCount: -1; CurrentItemIndex: -1; IsEnabled: true; IsPassword: false; IsChecked: false; IsFullScreen: false; Scrollable: false; BeforeText: null; FromIndex: -1; ToIndex: -1; ScrollX: -1; ScrollY: -1; MaxScrollX: -1; MaxScrollY: -1; AddedCount: -1; RemovedCount: -1; ParcelableData: null ]'
p403
sS'MovementGranularity'
p404
g6
sa(dp405
S'EventTime'
p406
S'341539438'
p407
sg4
L1449716596348L
sS'recordCount'
p408
g6
sS'EventType'
p409
S'TYPE_WINDOW_STATE_CHANGED'
p410
sS'PackageName'
p411
S'com.example.myfristandroid'
p412
sS'OutBounds'
p413
S'Rect(0, 0 - 480, 800)'
p414
sS'Action'
p415
S'[ ClassName: com.example.myfristandroid.graphWebShow; Text: [SE-1800\xe7\xa7\xbb\xe5\x8a\xa8APP]; ContentDescription: null; ItemCount: -1; CurrentItemIndex: -1; IsEnabled: true; IsPassword: false; IsChecked: false; IsFullScreen: true; Scrollable: false; BeforeText: null; FromIndex: -1; ToIndex: -1; ScrollX: -1; ScrollY: -1; MaxScrollX: -1; MaxScrollY: -1; AddedCount: -1; RemovedCount: -1; ParcelableData: null ]'
p416
sS'MovementGranularity'
p417
g6
sa(dp418
S'EventTime'
p419
S'341539460'
p420
sg4
L1449716596363L
sS'recordCount'
p421
g6
sS'EventType'
p422
S'TYPE_WINDOW_CONTENT_CHANGED'
p423
sS'PackageName'
p424
S'com.example.myfristandroid'
p425
sS'OutBounds'
p426
S'Rect(0, 0 - 480, 800)'
p427
sS'Action'
p428
S'[ ClassName: android.widget.FrameLayout; Text: []; ContentDescription: null; ItemCount: -1; CurrentItemIndex: -1; IsEnabled: true; IsPassword: false; IsChecked: false; IsFullScreen: false; Scrollable: false; BeforeText: null; FromIndex: -1; ToIndex: -1; ScrollX: -1; ScrollY: -1; MaxScrollX: -1; MaxScrollY: -1; AddedCount: -1; RemovedCount: -1; ParcelableData: null ]'
p429
sS'MovementGranularity'
p430
g6
sa(dp431
S'EventTime'
p432
S'341540914'
p433
sg4
L1449716597813L
sS'recordCount'
p434
g6
sS'EventType'
p435
S'TYPE_VIEW_CLICKED'
p436
sS'PackageName'
p437
S'com.example.myfristandroid'
p438
sS'OutBounds'
p439
S'Rect(0, 38 - 60, 106)'
p440
sS'Action'
p441
S'[ ClassName: android.widget.ImageButton; Text: []; ContentDescription: null; ItemCount: -1; CurrentItemIndex: -1; IsEnabled: true; IsPassword: false; IsChecked: false; IsFullScreen: false; Scrollable: false; BeforeText: null; FromIndex: -1; ToIndex: -1; ScrollX: -1; ScrollY: -1; MaxScrollX: -1; MaxScrollY: -1; AddedCount: -1; RemovedCount: -1; ParcelableData: null ]'
p442
sS'MovementGranularity'
p443
g6
sa(dp444
S'EventTime'
p445
S'341540978'
p446
sg4
L1449716597901L
sS'recordCount'
p447
g6
sS'EventType'
p448
S'TYPE_WINDOW_STATE_CHANGED'
p449
sS'PackageName'
p450
S'com.example.myfristandroid'
p451
sS'OutBounds'
p452
S'Rect(0, 0 - 480, 800)'
p453
sS'Action'
p454
S'[ ClassName: com.example.myfristandroid.MainActivity; Text: [SE-1800\xe7\xa7\xbb\xe5\x8a\xa8APP]; ContentDescription: null; ItemCount: -1; CurrentItemIndex: -1; IsEnabled: true; IsPassword: false; IsChecked: false; IsFullScreen: true; Scrollable: false; BeforeText: null; FromIndex: -1; ToIndex: -1; ScrollX: -1; ScrollY: -1; MaxScrollX: -1; MaxScrollY: -1; AddedCount: -1; RemovedCount: -1; ParcelableData: null ]'
p455
sS'MovementGranularity'
p456
g6
sa(dp457
S'EventTime'
p458
S'341548399'
p459
sg4
L1449716605299L
sS'recordCount'
p460
g135
sS'EventType'
p461
S'TYPE_VIEW_CLICKED'
p462
sS'PackageName'
p463
S'com.example.myfristandroid'
p464
sS'OutBounds'
p465
S'Rect(319, 268 - 475, 424)'
p466
sS'Action'
p467
S'[ ClassName: android.widget.RelativeLayout; Text: [\xe7\x8e\xaf\xe5\xa2\x83\xe7\x9b\x91\xe6\xb5\x8b]; ContentDescription: null; ItemCount: -1; CurrentItemIndex: -1; IsEnabled: true; IsPassword: false; IsChecked: false; IsFullScreen: false; Scrollable: false; BeforeText: null; FromIndex: -1; ToIndex: -1; ScrollX: -1; ScrollY: -1; MaxScrollX: -1; MaxScrollY: -1; AddedCount: -1; RemovedCount: -1; ParcelableData: null ]'
p468
sS'MovementGranularity'
p469
g6
sa(dp470
S'EventTime'
p471
S'341548618'
p472
sg4
L1449716605539L
sS'recordCount'
p473
g6
sS'EventType'
p474
S'TYPE_WINDOW_STATE_CHANGED'
p475
sS'PackageName'
p476
S'com.example.myfristandroid'
p477
sS'OutBounds'
p478
S'Rect(0, 0 - 480, 800)'
p479
sS'Action'
p480
S'[ ClassName: com.example.myfristandroid.graphWebShow; Text: [SE-1800\xe7\xa7\xbb\xe5\x8a\xa8APP]; ContentDescription: null; ItemCount: -1; CurrentItemIndex: -1; IsEnabled: true; IsPassword: false; IsChecked: false; IsFullScreen: true; Scrollable: false; BeforeText: null; FromIndex: -1; ToIndex: -1; ScrollX: -1; ScrollY: -1; MaxScrollX: -1; MaxScrollY: -1; AddedCount: -1; RemovedCount: -1; ParcelableData: null ]'
p481
sS'MovementGranularity'
p482
g6
sa(dp483
S'EventTime'
p484
S'341548719'
p485
sg4
L1449716605626L
sS'recordCount'
p486
g6
sS'EventType'
p487
S'TYPE_WINDOW_CONTENT_CHANGED'
p488
sS'PackageName'
p489
S'com.example.myfristandroid'
p490
sS'OutBounds'
p491
S'Rect(0, 0 - 480, 800)'
p492
sS'Action'
p493
S'[ ClassName: android.widget.FrameLayout; Text: []; ContentDescription: null; ItemCount: -1; CurrentItemIndex: -1; IsEnabled: true; IsPassword: false; IsChecked: false; IsFullScreen: false; Scrollable: false; BeforeText: null; FromIndex: -1; ToIndex: -1; ScrollX: -1; ScrollY: -1; MaxScrollX: -1; MaxScrollY: -1; AddedCount: -1; RemovedCount: -1; ParcelableData: null ]'
p494
sS'MovementGranularity'
p495
g6
sa(dp496
S'EventTime'
p497
S'341551076'
p498
sg4
L1449716607975L
sS'recordCount'
p499
g6
sS'EventType'
p500
S'TYPE_VIEW_CLICKED'
p501
sS'PackageName'
p502
S'com.example.myfristandroid'
p503
sS'OutBounds'
p504
S'Rect(0, 38 - 60, 106)'
p505
sS'Action'
p506
S'[ ClassName: android.widget.ImageButton; Text: []; ContentDescription: null; ItemCount: -1; CurrentItemIndex: -1; IsEnabled: true; IsPassword: false; IsChecked: false; IsFullScreen: false; Scrollable: false; BeforeText: null; FromIndex: -1; ToIndex: -1; ScrollX: -1; ScrollY: -1; MaxScrollX: -1; MaxScrollY: -1; AddedCount: -1; RemovedCount: -1; ParcelableData: null ]'
p507
sS'MovementGranularity'
p508
g6
sa(dp509
S'EventTime'
p510
S'341551167'
p511
sg4
L1449716608127L
sS'recordCount'
p512
g6
sS'EventType'
p513
S'TYPE_WINDOW_STATE_CHANGED'
p514
sS'PackageName'
p515
S'com.example.myfristandroid'
p516
sS'OutBounds'
p517
S'Rect(0, 0 - 480, 800)'
p518
sS'Action'
p519
S'[ ClassName: com.example.myfristandroid.MainActivity; Text: [SE-1800\xe7\xa7\xbb\xe5\x8a\xa8APP]; ContentDescription: null; ItemCount: -1; CurrentItemIndex: -1; IsEnabled: true; IsPassword: false; IsChecked: false; IsFullScreen: true; Scrollable: false; BeforeText: null; FromIndex: -1; ToIndex: -1; ScrollX: -1; ScrollY: -1; MaxScrollX: -1; MaxScrollY: -1; AddedCount: -1; RemovedCount: -1; ParcelableData: null ]'
p520
sS'MovementGranularity'
p521
g6
sa.