(lp0
(dp1
S'EventTime'
p2
S'66655579'
p3
sS'SyscTime'
p4
L1449974774566L
sS'recordCount'
p5
S'0'
p6
sS'EventType'
p7
S'TYPE_WINDOW_STATE_CHANGED'
p8
sS'PackageName'
p9
S'com.xp.tugele'
p10
sS'OutBounds'
p11
S'Rect(157, 550 - 563, 780)'
p12
sS'Action'
p13
S'[ ClassName: android.app.ProgressDialog; Text: [\xe5\x8a\xa0\xe8\xbd\xbd\xe4\xb8\xad\xef\xbc\x8c\xe8\xaf\xb7\xe7\xa8\x8d\xe5\x90\x8e]; ContentDescription: null; ItemCount: -1; CurrentItemIndex: -1; IsEnabled: true; IsPassword: false; IsChecked: false; IsFullScreen: false; Scrollable: false; BeforeText: null; FromIndex: -1; ToIndex: -1; ScrollX: -1; ScrollY: -1; MaxScrollX: -1; MaxScrollY: -1; AddedCount: -1; RemovedCount: -1; ParcelableData: null ]'
p14
sS'MovementGranularity'
p15
g6
sa(dp16
S'EventTime'
p17
S'66655638'
p18
sg4
L1449974774598L
sS'recordCount'
p19
g6
sS'EventType'
p20
S'TYPE_WINDOW_CONTENT_CHANGED'
p21
sS'PackageName'
p22
S'com.xp.tugele'
p23
sS'OutBounds'
p24
S'Rect(157, 550 - 563, 780)'
p25
sS'Action'
p26
S'[ ClassName: android.widget.FrameLayout; Text: []; ContentDescription: null; ItemCount: -1; CurrentItemIndex: -1; IsEnabled: true; IsPassword: false; IsChecked: false; IsFullScreen: false; Scrollable: false; BeforeText: null; FromIndex: -1; ToIndex: -1; ScrollX: -1; ScrollY: -1; MaxScrollX: -1; MaxScrollY: -1; AddedCount: -1; RemovedCount: -1; ParcelableData: null ]'
p27
sS'MovementGranularity'
p28
g6
sa(dp29
S'EventTime'
p30
S'66655752'
p31
sg4
L1449974774714L
sS'recordCount'
p32
g6
sS'EventType'
p33
S'TYPE_WINDOW_CONTENT_CHANGED'
p34
sS'PackageName'
p35
S'com.xp.tugele'
p36
sS'OutBounds'
p37
S'Rect(157, 550 - 563, 780)'
p38
sS'Action'
p39
S'[ ClassName: android.widget.FrameLayout; Text: []; ContentDescription: null; ItemCount: -1; CurrentItemIndex: -1; IsEnabled: true; IsPassword: false; IsChecked: false; IsFullScreen: false; Scrollable: false; BeforeText: null; FromIndex: -1; ToIndex: -1; ScrollX: -1; ScrollY: -1; MaxScrollX: -1; MaxScrollY: -1; AddedCount: -1; RemovedCount: -1; ParcelableData: null ]'
p40
sS'MovementGranularity'
p41
g6
sa(dp42
S'EventTime'
p43
S'66658934'
p44
sg4
L1449974777909L
sS'recordCount'
p45
g6
sS'EventType'
p46
S'TYPE_WINDOW_STATE_CHANGED'
p47
sS'PackageName'
p48
S'com.xp.tugele'
p49
sS'OutBounds'
p50
S'Rect(0, 0 - 720, 1280)'
p51
sS'Action'
p52
S'[ ClassName: com.xp.ui.MainActivity; Text: [\xe5\x9b\xbe\xe4\xb8\xaa\xe4\xb9\x90]; ContentDescription: null; ItemCount: -1; CurrentItemIndex: -1; IsEnabled: true; IsPassword: false; IsChecked: false; IsFullScreen: true; Scrollable: false; BeforeText: null; FromIndex: -1; ToIndex: -1; ScrollX: -1; ScrollY: -1; MaxScrollX: -1; MaxScrollY: -1; AddedCount: -1; RemovedCount: -1; ParcelableData: null ]'
p53
sS'MovementGranularity'
p54
g6
sa(dp55
S'EventTime'
p56
S'66658935'
p57
sg4
L1449974777925L
sS'recordCount'
p58
g6
sS'EventType'
p59
S'TYPE_WINDOW_CONTENT_CHANGED'
p60
sS'PackageName'
p61
S'com.xp.tugele'
p62
sS'OutBounds'
p63
S'Rect(0, 0 - 720, 1280)'
p64
sS'Action'
p65
S'[ ClassName: android.widget.FrameLayout; Text: []; ContentDescription: null; ItemCount: -1; CurrentItemIndex: -1; IsEnabled: true; IsPassword: false; IsChecked: false; IsFullScreen: false; Scrollable: false; BeforeText: null; FromIndex: -1; ToIndex: -1; ScrollX: -1; ScrollY: -1; MaxScrollX: -1; MaxScrollY: -1; AddedCount: -1; RemovedCount: -1; ParcelableData: null ]'
p66
sS'MovementGranularity'
p67
g6
sa(dp68
S'EventTime'
p69
S'66658945'
p70
sg4
L1449974777940L
sS'recordCount'
p71
g6
sS'EventType'
p72
S'TYPE_VIEW_SCROLLED'
p73
sS'PackageName'
p74
S'com.xp.tugele'
p75
sS'OutBounds'
p76
S'Rect(0, 52 - 720, 1175)'
p77
sS'Action'
p78
S'[ ClassName: android.widget.ListView; Text: []; ContentDescription: null; ItemCount: 20; CurrentItemIndex: -1; IsEnabled: true; IsPassword: false; IsChecked: false; IsFullScreen: false; Scrollable: true; BeforeText: null; FromIndex: 0; ToIndex: 2; ScrollX: -1; ScrollY: -1; MaxScrollX: -1; MaxScrollY: -1; AddedCount: -1; RemovedCount: -1; ParcelableData: null ]'
p79
sS'MovementGranularity'
p80
g6
sa(dp81
S'EventTime'
p82
S'66659070'
p83
sg4
L1449974778056L
sS'recordCount'
p84
g6
sS'EventType'
p85
S'TYPE_WINDOW_CONTENT_CHANGED'
p86
sS'PackageName'
p87
S'com.xp.tugele'
p88
sS'OutBounds'
p89
S'Rect(0, 0 - 720, 1280)'
p90
sS'Action'
p91
S'[ ClassName: android.widget.FrameLayout; Text: []; ContentDescription: null; ItemCount: -1; CurrentItemIndex: -1; IsEnabled: true; IsPassword: false; IsChecked: false; IsFullScreen: false; Scrollable: false; BeforeText: null; FromIndex: -1; ToIndex: -1; ScrollX: -1; ScrollY: -1; MaxScrollX: -1; MaxScrollY: -1; AddedCount: -1; RemovedCount: -1; ParcelableData: null ]'
p92
sS'MovementGranularity'
p93
g6
sa(dp94
S'EventTime'
p95
S'66660719'
p96
sg4
L1449974779678L
sS'recordCount'
p97
g6
sS'EventType'
p98
S'TYPE_VIEW_CLICKED'
p99
sS'PackageName'
p100
S'com.xp.tugele'
p101
sS'OutBounds'
p102
S'Rect(360, 1180 - 538, 1276)'
p103
sS'Action'
p104
S'[ ClassName: android.view.View; Text: []; ContentDescription: null; ItemCount: -1; CurrentItemIndex: -1; IsEnabled: true; IsPassword: false; IsChecked: false; IsFullScreen: false; Scrollable: false; BeforeText: null; FromIndex: -1; ToIndex: -1; ScrollX: -1; ScrollY: -1; MaxScrollX: -1; MaxScrollY: -1; AddedCount: -1; RemovedCount: -1; ParcelableData: null ]'
p105
sS'MovementGranularity'
p106
g6
sa(dp107
S'EventTime'
p108
S'66660823'
p109
sg4
L1449974779788L
sS'recordCount'
p110
g6
sS'EventType'
p111
S'TYPE_WINDOW_CONTENT_CHANGED'
p112
sS'PackageName'
p113
S'com.xp.tugele'
p114
sS'OutBounds'
p115
S'Rect(0, 0 - 720, 1280)'
p116
sS'Action'
p117
S'[ ClassName: android.widget.FrameLayout; Text: []; ContentDescription: null; ItemCount: -1; CurrentItemIndex: -1; IsEnabled: true; IsPassword: false; IsChecked: false; IsFullScreen: false; Scrollable: false; BeforeText: null; FromIndex: -1; ToIndex: -1; ScrollX: -1; ScrollY: -1; MaxScrollX: -1; MaxScrollY: -1; AddedCount: -1; RemovedCount: -1; ParcelableData: null ]'
p118
sS'MovementGranularity'
p119
g6
sa(dp120
S'EventTime'
p121
S'66660897'
p122
sg4
L1449974779856L
sS'recordCount'
p123
g6
sS'EventType'
p124
S'TYPE_VIEW_CLICKED'
p125
sS'PackageName'
p126
S'com.xp.tugele'
p127
sS'OutBounds'
p128
S'Rect(360, 1180 - 538, 1276)'
p129
sS'Action'
p130
S'[ ClassName: android.view.View; Text: []; ContentDescription: null; ItemCount: -1; CurrentItemIndex: -1; IsEnabled: true; IsPassword: false; IsChecked: false; IsFullScreen: false; Scrollable: false; BeforeText: null; FromIndex: -1; ToIndex: -1; ScrollX: -1; ScrollY: -1; MaxScrollX: -1; MaxScrollY: -1; AddedCount: -1; RemovedCount: -1; ParcelableData: null ]'
p131
sS'MovementGranularity'
p132
g6
sa(dp133
S'EventTime'
p134
S'66661084'
p135
sg4
L1449974780056L
sS'recordCount'
p136
g6
sS'EventType'
p137
S'TYPE_WINDOW_CONTENT_CHANGED'
p138
sS'PackageName'
p139
S'com.xp.tugele'
p140
sS'OutBounds'
p141
S'Rect(0, 0 - 720, 1280)'
p142
sS'Action'
p143
S'[ ClassName: android.widget.FrameLayout; Text: []; ContentDescription: null; ItemCount: -1; CurrentItemIndex: -1; IsEnabled: true; IsPassword: false; IsChecked: false; IsFullScreen: false; Scrollable: false; BeforeText: null; FromIndex: -1; ToIndex: -1; ScrollX: -1; ScrollY: -1; MaxScrollX: -1; MaxScrollY: -1; AddedCount: -1; RemovedCount: -1; ParcelableData: null ]'
p144
sS'MovementGranularity'
p145
g6
sa(dp146
S'EventTime'
p147
S'66662128'
p148
sg4
L1449974781087L
sS'recordCount'
p149
g6
sS'EventType'
p150
S'TYPE_VIEW_CLICKED'
p151
sS'PackageName'
p152
S'com.xp.tugele'
p153
sS'OutBounds'
p154
S'Rect(0, 438 - 720, 508)'
p155
sS'Action'
p156
S'[ ClassName: android.widget.TextView; Text: [\xe5\x8d\x95\xe8\xba\xab]; ContentDescription: null; ItemCount: -1; CurrentItemIndex: -1; IsEnabled: true; IsPassword: false; IsChecked: false; IsFullScreen: false; Scrollable: false; BeforeText: null; FromIndex: -1; ToIndex: -1; ScrollX: -1; ScrollY: -1; MaxScrollX: -1; MaxScrollY: -1; AddedCount: -1; RemovedCount: -1; ParcelableData: null ]'
p157
sS'MovementGranularity'
p158
g6
sa(dp159
S'EventTime'
p160
S'66663017'
p161
sg4
L1449974781980L
sS'recordCount'
p162
g6
sS'EventType'
p163
S'TYPE_WINDOW_STATE_CHANGED'
p164
sS'PackageName'
p165
S'com.xp.tugele'
p166
sS'OutBounds'
p167
S'Rect(0, 0 - 720, 1280)'
p168
sS'Action'
p169
S'[ ClassName: com.xp.ui.activity.SearchResultActivity; Text: [SearchResultActivity]; ContentDescription: null; ItemCount: -1; CurrentItemIndex: -1; IsEnabled: true; IsPassword: false; IsChecked: false; IsFullScreen: true; Scrollable: false; BeforeText: null; FromIndex: -1; ToIndex: -1; ScrollX: -1; ScrollY: -1; MaxScrollX: -1; MaxScrollY: -1; AddedCount: -1; RemovedCount: -1; ParcelableData: null ]'
p170
sS'MovementGranularity'
p171
g6
sa(dp172
S'EventTime'
p173
S'66663123'
p174
sg4
L1449974782089L
sS'recordCount'
p175
g6
sS'EventType'
p176
S'TYPE_WINDOW_CONTENT_CHANGED'
p177
sS'PackageName'
p178
S'com.xp.tugele'
p179
sS'OutBounds'
p180
S'Rect(0, 0 - 720, 1280)'
p181
sS'Action'
p182
S'[ ClassName: android.widget.FrameLayout; Text: []; ContentDescription: null; ItemCount: -1; CurrentItemIndex: -1; IsEnabled: true; IsPassword: false; IsChecked: false; IsFullScreen: false; Scrollable: false; BeforeText: null; FromIndex: -1; ToIndex: -1; ScrollX: -1; ScrollY: -1; MaxScrollX: -1; MaxScrollY: -1; AddedCount: -1; RemovedCount: -1; ParcelableData: null ]'
p183
sS'MovementGranularity'
p184
g6
sa(dp185
S'EventTime'
p186
S'66664477'
p187
sg4
L1449974783467L
sS'recordCount'
p188
g6
sS'EventType'
p189
S'TYPE_WINDOW_CONTENT_CHANGED'
p190
sS'PackageName'
p191
S'com.xp.tugele'
p192
sS'OutBounds'
p193
S'Rect(0, 0 - 720, 1280)'
p194
sS'Action'
p195
S'[ ClassName: android.widget.FrameLayout; Text: []; ContentDescription: null; ItemCount: -1; CurrentItemIndex: -1; IsEnabled: true; IsPassword: false; IsChecked: false; IsFullScreen: false; Scrollable: false; BeforeText: null; FromIndex: -1; ToIndex: -1; ScrollX: -1; ScrollY: -1; MaxScrollX: -1; MaxScrollY: -1; AddedCount: -1; RemovedCount: -1; ParcelableData: null ]'
p196
sS'MovementGranularity'
p197
g6
sa(dp198
S'EventTime'
p199
S'66664888'
p200
sg4
L1449974783874L
sS'recordCount'
p201
g6
sS'EventType'
p202
S'TYPE_WINDOW_CONTENT_CHANGED'
p203
sS'PackageName'
p204
S'com.xp.tugele'
p205
sS'OutBounds'
p206
S'Rect(0, 0 - 720, 1280)'
p207
sS'Action'
p208
S'[ ClassName: android.widget.FrameLayout; Text: []; ContentDescription: null; ItemCount: -1; CurrentItemIndex: -1; IsEnabled: true; IsPassword: false; IsChecked: false; IsFullScreen: false; Scrollable: false; BeforeText: null; FromIndex: -1; ToIndex: -1; ScrollX: -1; ScrollY: -1; MaxScrollX: -1; MaxScrollY: -1; AddedCount: -1; RemovedCount: -1; ParcelableData: null ]'
p209
sS'MovementGranularity'
p210
g6
sa(dp211
S'EventTime'
p212
S'66665092'
p213
sg4
L1449974784145L
sS'recordCount'
p214
g6
sS'EventType'
p215
S'TYPE_WINDOW_CONTENT_CHANGED'
p216
sS'PackageName'
p217
S'com.xp.tugele'
p218
sS'OutBounds'
p219
S'Rect(0, 0 - 720, 1280)'
p220
sS'Action'
p221
S'[ ClassName: android.widget.FrameLayout; Text: []; ContentDescription: null; ItemCount: -1; CurrentItemIndex: -1; IsEnabled: true; IsPassword: false; IsChecked: false; IsFullScreen: false; Scrollable: false; BeforeText: null; FromIndex: -1; ToIndex: -1; ScrollX: -1; ScrollY: -1; MaxScrollX: -1; MaxScrollY: -1; AddedCount: -1; RemovedCount: -1; ParcelableData: null ]'
p222
sS'MovementGranularity'
p223
g6
sa(dp224
S'EventTime'
p225
S'66665436'
p226
sg4
L1449974784418L
sS'recordCount'
p227
g6
sS'EventType'
p228
S'TYPE_WINDOW_CONTENT_CHANGED'
p229
sS'PackageName'
p230
S'com.xp.tugele'
p231
sS'OutBounds'
p232
S'Rect(0, 0 - 720, 1280)'
p233
sS'Action'
p234
S'[ ClassName: android.widget.FrameLayout; Text: []; ContentDescription: null; ItemCount: -1; CurrentItemIndex: -1; IsEnabled: true; IsPassword: false; IsChecked: false; IsFullScreen: false; Scrollable: false; BeforeText: null; FromIndex: -1; ToIndex: -1; ScrollX: -1; ScrollY: -1; MaxScrollX: -1; MaxScrollY: -1; AddedCount: -1; RemovedCount: -1; ParcelableData: null ]'
p235
sS'MovementGranularity'
p236
g6
sa(dp237
S'EventTime'
p238
S'66665723'
p239
sg4
L1449974784703L
sS'recordCount'
p240
g6
sS'EventType'
p241
S'TYPE_WINDOW_CONTENT_CHANGED'
p242
sS'PackageName'
p243
S'com.xp.tugele'
p244
sS'OutBounds'
p245
S'Rect(0, 0 - 720, 1280)'
p246
sS'Action'
p247
S'[ ClassName: android.widget.FrameLayout; Text: []; ContentDescription: null; ItemCount: -1; CurrentItemIndex: -1; IsEnabled: true; IsPassword: false; IsChecked: false; IsFullScreen: false; Scrollable: false; BeforeText: null; FromIndex: -1; ToIndex: -1; ScrollX: -1; ScrollY: -1; MaxScrollX: -1; MaxScrollY: -1; AddedCount: -1; RemovedCount: -1; ParcelableData: null ]'
p248
sS'MovementGranularity'
p249
g6
sa(dp250
S'EventTime'
p251
S'66667183'
p252
sg4
L1449974786182L
sS'recordCount'
p253
g6
sS'EventType'
p254
S'TYPE_WINDOW_CONTENT_CHANGED'
p255
sS'PackageName'
p256
S'com.xp.tugele'
p257
sS'OutBounds'
p258
S'Rect(0, 0 - 720, 1280)'
p259
sS'Action'
p260
S'[ ClassName: android.widget.FrameLayout; Text: []; ContentDescription: null; ItemCount: -1; CurrentItemIndex: -1; IsEnabled: true; IsPassword: false; IsChecked: false; IsFullScreen: false; Scrollable: false; BeforeText: null; FromIndex: -1; ToIndex: -1; ScrollX: -1; ScrollY: -1; MaxScrollX: -1; MaxScrollY: -1; AddedCount: -1; RemovedCount: -1; ParcelableData: null ]'
p261
sS'MovementGranularity'
p262
g6
sa(dp263
S'EventTime'
p264
S'66667325'
p265
sg4
L1449974786313L
sS'recordCount'
p266
g6
sS'EventType'
p267
S'TYPE_WINDOW_CONTENT_CHANGED'
p268
sS'PackageName'
p269
S'com.xp.tugele'
p270
sS'OutBounds'
p271
S'Rect(0, 0 - 720, 1280)'
p272
sS'Action'
p273
S'[ ClassName: android.widget.FrameLayout; Text: []; ContentDescription: null; ItemCount: -1; CurrentItemIndex: -1; IsEnabled: true; IsPassword: false; IsChecked: false; IsFullScreen: false; Scrollable: false; BeforeText: null; FromIndex: -1; ToIndex: -1; ScrollX: -1; ScrollY: -1; MaxScrollX: -1; MaxScrollY: -1; AddedCount: -1; RemovedCount: -1; ParcelableData: null ]'
p274
sS'MovementGranularity'
p275
g6
sa(dp276
S'EventTime'
p277
S'66667455'
p278
sg4
L1449974786437L
sS'recordCount'
p279
g6
sS'EventType'
p280
S'TYPE_WINDOW_CONTENT_CHANGED'
p281
sS'PackageName'
p282
S'com.xp.tugele'
p283
sS'OutBounds'
p284
S'Rect(0, 0 - 720, 1280)'
p285
sS'Action'
p286
S'[ ClassName: android.widget.FrameLayout; Text: []; ContentDescription: null; ItemCount: -1; CurrentItemIndex: -1; IsEnabled: true; IsPassword: false; IsChecked: false; IsFullScreen: false; Scrollable: false; BeforeText: null; FromIndex: -1; ToIndex: -1; ScrollX: -1; ScrollY: -1; MaxScrollX: -1; MaxScrollY: -1; AddedCount: -1; RemovedCount: -1; ParcelableData: null ]'
p287
sS'MovementGranularity'
p288
g6
sa(dp289
S'EventTime'
p290
S'66667579'
p291
sg4
L1449974786571L
sS'recordCount'
p292
g6
sS'EventType'
p293
S'TYPE_WINDOW_CONTENT_CHANGED'
p294
sS'PackageName'
p295
S'com.xp.tugele'
p296
sS'OutBounds'
p297
S'Rect(0, 0 - 720, 1280)'
p298
sS'Action'
p299
S'[ ClassName: android.widget.FrameLayout; Text: []; ContentDescription: null; ItemCount: -1; CurrentItemIndex: -1; IsEnabled: true; IsPassword: false; IsChecked: false; IsFullScreen: false; Scrollable: false; BeforeText: null; FromIndex: -1; ToIndex: -1; ScrollX: -1; ScrollY: -1; MaxScrollX: -1; MaxScrollY: -1; AddedCount: -1; RemovedCount: -1; ParcelableData: null ]'
p300
sS'MovementGranularity'
p301
g6
sa(dp302
S'EventTime'
p303
S'66667700'
p304
sg4
L1449974786691L
sS'recordCount'
p305
g6
sS'EventType'
p306
S'TYPE_WINDOW_CONTENT_CHANGED'
p307
sS'PackageName'
p308
S'com.xp.tugele'
p309
sS'OutBounds'
p310
S'Rect(0, 0 - 720, 1280)'
p311
sS'Action'
p312
S'[ ClassName: android.widget.FrameLayout; Text: []; ContentDescription: null; ItemCount: -1; CurrentItemIndex: -1; IsEnabled: true; IsPassword: false; IsChecked: false; IsFullScreen: false; Scrollable: false; BeforeText: null; FromIndex: -1; ToIndex: -1; ScrollX: -1; ScrollY: -1; MaxScrollX: -1; MaxScrollY: -1; AddedCount: -1; RemovedCount: -1; ParcelableData: null ]'
p313
sS'MovementGranularity'
p314
g6
sa(dp315
S'EventTime'
p316
S'66667831'
p317
sg4
L1449974786822L
sS'recordCount'
p318
g6
sS'EventType'
p319
S'TYPE_WINDOW_CONTENT_CHANGED'
p320
sS'PackageName'
p321
S'com.xp.tugele'
p322
sS'OutBounds'
p323
S'Rect(0, 0 - 720, 1280)'
p324
sS'Action'
p325
S'[ ClassName: android.widget.FrameLayout; Text: []; ContentDescription: null; ItemCount: -1; CurrentItemIndex: -1; IsEnabled: true; IsPassword: false; IsChecked: false; IsFullScreen: false; Scrollable: false; BeforeText: null; FromIndex: -1; ToIndex: -1; ScrollX: -1; ScrollY: -1; MaxScrollX: -1; MaxScrollY: -1; AddedCount: -1; RemovedCount: -1; ParcelableData: null ]'
p326
sS'MovementGranularity'
p327
g6
sa(dp328
S'EventTime'
p329
S'66667977'
p330
sg4
L1449974786974L
sS'recordCount'
p331
g6
sS'EventType'
p332
S'TYPE_WINDOW_CONTENT_CHANGED'
p333
sS'PackageName'
p334
S'com.xp.tugele'
p335
sS'OutBounds'
p336
S'Rect(0, 0 - 720, 1280)'
p337
sS'Action'
p338
S'[ ClassName: android.widget.FrameLayout; Text: []; ContentDescription: null; ItemCount: -1; CurrentItemIndex: -1; IsEnabled: true; IsPassword: false; IsChecked: false; IsFullScreen: false; Scrollable: false; BeforeText: null; FromIndex: -1; ToIndex: -1; ScrollX: -1; ScrollY: -1; MaxScrollX: -1; MaxScrollY: -1; AddedCount: -1; RemovedCount: -1; ParcelableData: null ]'
p339
sS'MovementGranularity'
p340
g6
sa(dp341
S'EventTime'
p342
S'66668115'
p343
sg4
L1449974787103L
sS'recordCount'
p344
g6
sS'EventType'
p345
S'TYPE_WINDOW_CONTENT_CHANGED'
p346
sS'PackageName'
p347
S'com.xp.tugele'
p348
sS'OutBounds'
p349
S'Rect(0, 0 - 720, 1280)'
p350
sS'Action'
p351
S'[ ClassName: android.widget.FrameLayout; Text: []; ContentDescription: null; ItemCount: -1; CurrentItemIndex: -1; IsEnabled: true; IsPassword: false; IsChecked: false; IsFullScreen: false; Scrollable: false; BeforeText: null; FromIndex: -1; ToIndex: -1; ScrollX: -1; ScrollY: -1; MaxScrollX: -1; MaxScrollY: -1; AddedCount: -1; RemovedCount: -1; ParcelableData: null ]'
p352
sS'MovementGranularity'
p353
g6
sa(dp354
S'EventTime'
p355
S'66668258'
p356
sg4
L1449974787251L
sS'recordCount'
p357
g6
sS'EventType'
p358
S'TYPE_WINDOW_CONTENT_CHANGED'
p359
sS'PackageName'
p360
S'com.xp.tugele'
p361
sS'OutBounds'
p362
S'Rect(0, 0 - 720, 1280)'
p363
sS'Action'
p364
S'[ ClassName: android.widget.FrameLayout; Text: []; ContentDescription: null; ItemCount: -1; CurrentItemIndex: -1; IsEnabled: true; IsPassword: false; IsChecked: false; IsFullScreen: false; Scrollable: false; BeforeText: null; FromIndex: -1; ToIndex: -1; ScrollX: -1; ScrollY: -1; MaxScrollX: -1; MaxScrollY: -1; AddedCount: -1; RemovedCount: -1; ParcelableData: null ]'
p365
sS'MovementGranularity'
p366
g6
sa(dp367
S'EventTime'
p368
S'66668392'
p369
sg4
L1449974787382L
sS'recordCount'
p370
g6
sS'EventType'
p371
S'TYPE_WINDOW_CONTENT_CHANGED'
p372
sS'PackageName'
p373
S'com.xp.tugele'
p374
sS'OutBounds'
p375
S'Rect(0, 0 - 720, 1280)'
p376
sS'Action'
p377
S'[ ClassName: android.widget.FrameLayout; Text: []; ContentDescription: null; ItemCount: -1; CurrentItemIndex: -1; IsEnabled: true; IsPassword: false; IsChecked: false; IsFullScreen: false; Scrollable: false; BeforeText: null; FromIndex: -1; ToIndex: -1; ScrollX: -1; ScrollY: -1; MaxScrollX: -1; MaxScrollY: -1; AddedCount: -1; RemovedCount: -1; ParcelableData: null ]'
p378
sS'MovementGranularity'
p379
g6
sa(dp380
S'EventTime'
p381
S'66668523'
p382
sg4
L1449974787509L
sS'recordCount'
p383
g6
sS'EventType'
p384
S'TYPE_WINDOW_CONTENT_CHANGED'
p385
sS'PackageName'
p386
S'com.xp.tugele'
p387
sS'OutBounds'
p388
S'Rect(0, 0 - 720, 1280)'
p389
sS'Action'
p390
S'[ ClassName: android.widget.FrameLayout; Text: []; ContentDescription: null; ItemCount: -1; CurrentItemIndex: -1; IsEnabled: true; IsPassword: false; IsChecked: false; IsFullScreen: false; Scrollable: false; BeforeText: null; FromIndex: -1; ToIndex: -1; ScrollX: -1; ScrollY: -1; MaxScrollX: -1; MaxScrollY: -1; AddedCount: -1; RemovedCount: -1; ParcelableData: null ]'
p391
sS'MovementGranularity'
p392
g6
sa(dp393
S'EventTime'
p394
S'66668650'
p395
sg4
L1449974787646L
sS'recordCount'
p396
g6
sS'EventType'
p397
S'TYPE_WINDOW_CONTENT_CHANGED'
p398
sS'PackageName'
p399
S'com.xp.tugele'
p400
sS'OutBounds'
p401
S'Rect(0, 0 - 720, 1280)'
p402
sS'Action'
p403
S'[ ClassName: android.widget.FrameLayout; Text: []; ContentDescription: null; ItemCount: -1; CurrentItemIndex: -1; IsEnabled: true; IsPassword: false; IsChecked: false; IsFullScreen: false; Scrollable: false; BeforeText: null; FromIndex: -1; ToIndex: -1; ScrollX: -1; ScrollY: -1; MaxScrollX: -1; MaxScrollY: -1; AddedCount: -1; RemovedCount: -1; ParcelableData: null ]'
p404
sS'MovementGranularity'
p405
g6
sa(dp406
S'EventTime'
p407
S'66668787'
p408
sg4
L1449974787786L
sS'recordCount'
p409
g6
sS'EventType'
p410
S'TYPE_WINDOW_CONTENT_CHANGED'
p411
sS'PackageName'
p412
S'com.xp.tugele'
p413
sS'OutBounds'
p414
S'Rect(0, 0 - 720, 1280)'
p415
sS'Action'
p416
S'[ ClassName: android.widget.FrameLayout; Text: []; ContentDescription: null; ItemCount: -1; CurrentItemIndex: -1; IsEnabled: true; IsPassword: false; IsChecked: false; IsFullScreen: false; Scrollable: false; BeforeText: null; FromIndex: -1; ToIndex: -1; ScrollX: -1; ScrollY: -1; MaxScrollX: -1; MaxScrollY: -1; AddedCount: -1; RemovedCount: -1; ParcelableData: null ]'
p417
sS'MovementGranularity'
p418
g6
sa(dp419
S'EventTime'
p420
S'66668926'
p421
sg4
L1449974787916L
sS'recordCount'
p422
g6
sS'EventType'
p423
S'TYPE_WINDOW_CONTENT_CHANGED'
p424
sS'PackageName'
p425
S'com.xp.tugele'
p426
sS'OutBounds'
p427
S'Rect(0, 0 - 720, 1280)'
p428
sS'Action'
p429
S'[ ClassName: android.widget.FrameLayout; Text: []; ContentDescription: null; ItemCount: -1; CurrentItemIndex: -1; IsEnabled: true; IsPassword: false; IsChecked: false; IsFullScreen: false; Scrollable: false; BeforeText: null; FromIndex: -1; ToIndex: -1; ScrollX: -1; ScrollY: -1; MaxScrollX: -1; MaxScrollY: -1; AddedCount: -1; RemovedCount: -1; ParcelableData: null ]'
p430
sS'MovementGranularity'
p431
g6
sa(dp432
S'EventTime'
p433
S'66669277'
p434
sg4
L1449974788262L
sS'recordCount'
p435
g6
sS'EventType'
p436
S'TYPE_WINDOW_CONTENT_CHANGED'
p437
sS'PackageName'
p438
S'com.xp.tugele'
p439
sS'OutBounds'
p440
S'Rect(0, 0 - 720, 1280)'
p441
sS'Action'
p442
S'[ ClassName: android.widget.FrameLayout; Text: []; ContentDescription: null; ItemCount: -1; CurrentItemIndex: -1; IsEnabled: true; IsPassword: false; IsChecked: false; IsFullScreen: false; Scrollable: false; BeforeText: null; FromIndex: -1; ToIndex: -1; ScrollX: -1; ScrollY: -1; MaxScrollX: -1; MaxScrollY: -1; AddedCount: -1; RemovedCount: -1; ParcelableData: null ]'
p443
sS'MovementGranularity'
p444
g6
sa(dp445
S'EventTime'
p446
S'66670117'
p447
sg4
L1449974789101L
sS'recordCount'
p448
g6
sS'EventType'
p449
S'TYPE_WINDOW_CONTENT_CHANGED'
p450
sS'PackageName'
p451
S'com.xp.tugele'
p452
sS'OutBounds'
p453
S'Rect(0, 0 - 720, 1280)'
p454
sS'Action'
p455
S'[ ClassName: android.widget.FrameLayout; Text: []; ContentDescription: null; ItemCount: -1; CurrentItemIndex: -1; IsEnabled: true; IsPassword: false; IsChecked: false; IsFullScreen: false; Scrollable: false; BeforeText: null; FromIndex: -1; ToIndex: -1; ScrollX: -1; ScrollY: -1; MaxScrollX: -1; MaxScrollY: -1; AddedCount: -1; RemovedCount: -1; ParcelableData: null ]'
p456
sS'MovementGranularity'
p457
g6
sa(dp458
S'EventTime'
p459
S'66670320'
p460
sg4
L1449974789317L
sS'recordCount'
p461
g6
sS'EventType'
p462
S'TYPE_WINDOW_CONTENT_CHANGED'
p463
sS'PackageName'
p464
S'com.xp.tugele'
p465
sS'OutBounds'
p466
S'Rect(0, 0 - 720, 1280)'
p467
sS'Action'
p468
S'[ ClassName: android.widget.FrameLayout; Text: []; ContentDescription: null; ItemCount: -1; CurrentItemIndex: -1; IsEnabled: true; IsPassword: false; IsChecked: false; IsFullScreen: false; Scrollable: false; BeforeText: null; FromIndex: -1; ToIndex: -1; ScrollX: -1; ScrollY: -1; MaxScrollX: -1; MaxScrollY: -1; AddedCount: -1; RemovedCount: -1; ParcelableData: null ]'
p469
sS'MovementGranularity'
p470
g6
sa(dp471
S'EventTime'
p472
S'66670456'
p473
sg4
L1449974789415L
sS'recordCount'
p474
g6
sS'EventType'
p475
S'TYPE_VIEW_CLICKED'
p476
sS'PackageName'
p477
S'com.xp.tugele'
p478
sS'OutBounds'
p479
S'Rect(4, 257 - 356, 797)'
p480
sS'Action'
p481
S'[ ClassName: android.widget.ImageView; Text: []; ContentDescription: null; ItemCount: -1; CurrentItemIndex: -1; IsEnabled: true; IsPassword: false; IsChecked: false; IsFullScreen: false; Scrollable: false; BeforeText: null; FromIndex: -1; ToIndex: -1; ScrollX: -1; ScrollY: -1; MaxScrollX: -1; MaxScrollY: -1; AddedCount: -1; RemovedCount: -1; ParcelableData: null ]'
p482
sS'MovementGranularity'
p483
g6
sa(dp484
S'EventTime'
p485
S'66670534'
p486
sg4
L1449974789566L
sS'recordCount'
p487
g6
sS'EventType'
p488
S'TYPE_WINDOW_CONTENT_CHANGED'
p489
sS'PackageName'
p490
S'com.xp.tugele'
p491
sS'OutBounds'
p492
S'Rect(0, 0 - 720, 1280)'
p493
sS'Action'
p494
S'[ ClassName: android.widget.FrameLayout; Text: []; ContentDescription: null; ItemCount: -1; CurrentItemIndex: -1; IsEnabled: true; IsPassword: false; IsChecked: false; IsFullScreen: false; Scrollable: false; BeforeText: null; FromIndex: -1; ToIndex: -1; ScrollX: -1; ScrollY: -1; MaxScrollX: -1; MaxScrollY: -1; AddedCount: -1; RemovedCount: -1; ParcelableData: null ]'
p495
sS'MovementGranularity'
p496
g6
sa(dp497
S'EventTime'
p498
S'66670763'
p499
sg4
L1449974789727L
sS'recordCount'
p500
g6
sS'EventType'
p501
S'TYPE_WINDOW_STATE_CHANGED'
p502
sS'PackageName'
p503
S'com.xp.tugele'
p504
sS'OutBounds'
p505
S'Rect(0, 0 - 720, 1280)'
p506
sS'Action'
p507
S'[ ClassName: com.xp.ui.activity.ImageScanningActivity; Text: [\xe5\x9b\xbe\xe4\xb8\xaa\xe4\xb9\x90]; ContentDescription: null; ItemCount: -1; CurrentItemIndex: -1; IsEnabled: true; IsPassword: false; IsChecked: false; IsFullScreen: true; Scrollable: false; BeforeText: null; FromIndex: -1; ToIndex: -1; ScrollX: -1; ScrollY: -1; MaxScrollX: -1; MaxScrollY: -1; AddedCount: -1; RemovedCount: -1; ParcelableData: null ]'
p508
sS'MovementGranularity'
p509
g6
sa(dp510
S'EventTime'
p511
S'66670799'
p512
sg4
L1449974789760L
sS'recordCount'
p513
g6
sS'EventType'
p514
S'TYPE_WINDOW_CONTENT_CHANGED'
p515
sS'PackageName'
p516
S'com.xp.tugele'
p517
sS'OutBounds'
p518
S'Rect(0, 0 - 720, 1280)'
p519
sS'Action'
p520
S'[ ClassName: android.widget.FrameLayout; Text: []; ContentDescription: null; ItemCount: -1; CurrentItemIndex: -1; IsEnabled: true; IsPassword: false; IsChecked: false; IsFullScreen: false; Scrollable: false; BeforeText: null; FromIndex: -1; ToIndex: -1; ScrollX: -1; ScrollY: -1; MaxScrollX: -1; MaxScrollY: -1; AddedCount: -1; RemovedCount: -1; ParcelableData: null ]'
p521
sS'MovementGranularity'
p522
g6
sa(dp523
S'EventTime'
p524
S'66671440'
p525
sg4
L1449974790420L
sS'recordCount'
p526
g6
sS'EventType'
p527
S'TYPE_WINDOW_STATE_CHANGED'
p528
sS'PackageName'
p529
S'com.xp.tugele'
p530
sS'OutBounds'
p531
S'Rect(0, 0 - 720, 1280)'
p532
sS'Action'
p533
S'[ ClassName: com.xp.ui.activity.SearchResultActivity; Text: [SearchResultActivity]; ContentDescription: null; ItemCount: -1; CurrentItemIndex: -1; IsEnabled: true; IsPassword: false; IsChecked: false; IsFullScreen: true; Scrollable: false; BeforeText: null; FromIndex: -1; ToIndex: -1; ScrollX: -1; ScrollY: -1; MaxScrollX: -1; MaxScrollY: -1; AddedCount: -1; RemovedCount: -1; ParcelableData: null ]'
p534
sS'MovementGranularity'
p535
g6
sa(dp536
S'EventTime'
p537
S'66671535'
p538
sg4
L1449974790516L
sS'recordCount'
p539
g6
sS'EventType'
p540
S'TYPE_WINDOW_CONTENT_CHANGED'
p541
sS'PackageName'
p542
S'com.xp.tugele'
p543
sS'OutBounds'
p544
S'Rect(0, 0 - 720, 1280)'
p545
sS'Action'
p546
S'[ ClassName: android.widget.FrameLayout; Text: []; ContentDescription: null; ItemCount: -1; CurrentItemIndex: -1; IsEnabled: true; IsPassword: false; IsChecked: false; IsFullScreen: false; Scrollable: false; BeforeText: null; FromIndex: -1; ToIndex: -1; ScrollX: -1; ScrollY: -1; MaxScrollX: -1; MaxScrollY: -1; AddedCount: -1; RemovedCount: -1; ParcelableData: null ]'
p547
sS'MovementGranularity'
p548
g6
sa(dp549
S'EventTime'
p550
S'66672186'
p551
sg4
L1449974791143L
sS'recordCount'
p552
g6
sS'EventType'
p553
S'TYPE_VIEW_CLICKED'
p554
sS'PackageName'
p555
S'com.xp.tugele'
p556
sS'OutBounds'
p557
S'Rect(4, 257 - 356, 797)'
p558
sS'Action'
p559
S'[ ClassName: android.widget.ImageView; Text: []; ContentDescription: null; ItemCount: -1; CurrentItemIndex: -1; IsEnabled: true; IsPassword: false; IsChecked: false; IsFullScreen: false; Scrollable: false; BeforeText: null; FromIndex: -1; ToIndex: -1; ScrollX: -1; ScrollY: -1; MaxScrollX: -1; MaxScrollY: -1; AddedCount: -1; RemovedCount: -1; ParcelableData: null ]'
p560
sS'MovementGranularity'
p561
g6
sa(dp562
S'EventTime'
p563
S'66672524'
p564
sg4
L1449974791487L
sS'recordCount'
p565
g6
sS'EventType'
p566
S'TYPE_WINDOW_STATE_CHANGED'
p567
sS'PackageName'
p568
S'com.xp.tugele'
p569
sS'OutBounds'
p570
S'Rect(0, 0 - 720, 1280)'
p571
sS'Action'
p572
S'[ ClassName: com.xp.ui.activity.ImageScanningActivity; Text: [\xe5\x9b\xbe\xe4\xb8\xaa\xe4\xb9\x90]; ContentDescription: null; ItemCount: -1; CurrentItemIndex: -1; IsEnabled: true; IsPassword: false; IsChecked: false; IsFullScreen: true; Scrollable: false; BeforeText: null; FromIndex: -1; ToIndex: -1; ScrollX: -1; ScrollY: -1; MaxScrollX: -1; MaxScrollY: -1; AddedCount: -1; RemovedCount: -1; ParcelableData: null ]'
p573
sS'MovementGranularity'
p574
g6
sa(dp575
S'EventTime'
p576
S'66672562'
p577
sg4
L1449974791529L
sS'recordCount'
p578
g6
sS'EventType'
p579
S'TYPE_WINDOW_CONTENT_CHANGED'
p580
sS'PackageName'
p581
S'com.xp.tugele'
p582
sS'OutBounds'
p583
S'Rect(0, 0 - 720, 1280)'
p584
sS'Action'
p585
S'[ ClassName: android.widget.FrameLayout; Text: []; ContentDescription: null; ItemCount: -1; CurrentItemIndex: -1; IsEnabled: true; IsPassword: false; IsChecked: false; IsFullScreen: false; Scrollable: false; BeforeText: null; FromIndex: -1; ToIndex: -1; ScrollX: -1; ScrollY: -1; MaxScrollX: -1; MaxScrollY: -1; AddedCount: -1; RemovedCount: -1; ParcelableData: null ]'
p586
sS'MovementGranularity'
p587
g6
sa(dp588
S'EventTime'
p589
S'66673334'
p590
sg4
L1449974792300L
sS'recordCount'
p591
g6
sS'EventType'
p592
S'TYPE_VIEW_SCROLLED'
p593
sS'PackageName'
p594
S'com.xp.tugele'
p595
sS'OutBounds'
p596
S'Rect(0, 50 - 720, 1280)'
p597
sS'Action'
p598
S'[ ClassName: android.support.v4.view.ViewPager; Text: []; ContentDescription: null; ItemCount: -1; CurrentItemIndex: -1; IsEnabled: true; IsPassword: false; IsChecked: false; IsFullScreen: false; Scrollable: false; BeforeText: null; FromIndex: -1; ToIndex: -1; ScrollX: -1; ScrollY: -1; MaxScrollX: -1; MaxScrollY: -1; AddedCount: -1; RemovedCount: -1; ParcelableData: null ]'
p599
sS'MovementGranularity'
p600
g6
sa(dp601
S'EventTime'
p602
S'66673447'
p603
sg4
L1449974792413L
sS'recordCount'
p604
g6
sS'EventType'
p605
S'TYPE_WINDOW_CONTENT_CHANGED'
p606
sS'PackageName'
p607
S'com.xp.tugele'
p608
sS'OutBounds'
p609
S'Rect(0, 0 - 720, 1280)'
p610
sS'Action'
p611
S'[ ClassName: android.widget.FrameLayout; Text: []; ContentDescription: null; ItemCount: -1; CurrentItemIndex: -1; IsEnabled: true; IsPassword: false; IsChecked: false; IsFullScreen: false; Scrollable: false; BeforeText: null; FromIndex: -1; ToIndex: -1; ScrollX: -1; ScrollY: -1; MaxScrollX: -1; MaxScrollY: -1; AddedCount: -1; RemovedCount: -1; ParcelableData: null ]'
p612
sS'MovementGranularity'
p613
g6
sa(dp614
S'EventTime'
p615
S'66673479'
p616
sg4
L1449974792452L
sS'recordCount'
p617
g6
sS'EventType'
p618
S'TYPE_VIEW_SCROLLED'
p619
sS'PackageName'
p620
S'com.xp.tugele'
p621
sS'OutBounds'
p622
S'Rect(0, 50 - 720, 1280)'
p623
sS'Action'
p624
S'[ ClassName: android.support.v4.view.ViewPager; Text: []; ContentDescription: null; ItemCount: -1; CurrentItemIndex: -1; IsEnabled: true; IsPassword: false; IsChecked: false; IsFullScreen: false; Scrollable: false; BeforeText: null; FromIndex: -1; ToIndex: -1; ScrollX: -1; ScrollY: -1; MaxScrollX: -1; MaxScrollY: -1; AddedCount: -1; RemovedCount: -1; ParcelableData: null ]'
p625
sS'MovementGranularity'
p626
g6
sa(dp627
S'EventTime'
p628
S'66673595'
p629
sg4
L1449974792559L
sS'recordCount'
p630
g6
sS'EventType'
p631
S'TYPE_VIEW_SCROLLED'
p632
sS'PackageName'
p633
S'com.xp.tugele'
p634
sS'OutBounds'
p635
S'Rect(0, 50 - 720, 1280)'
p636
sS'Action'
p637
S'[ ClassName: android.support.v4.view.ViewPager; Text: []; ContentDescription: null; ItemCount: -1; CurrentItemIndex: -1; IsEnabled: true; IsPassword: false; IsChecked: false; IsFullScreen: false; Scrollable: false; BeforeText: null; FromIndex: -1; ToIndex: -1; ScrollX: -1; ScrollY: -1; MaxScrollX: -1; MaxScrollY: -1; AddedCount: -1; RemovedCount: -1; ParcelableData: null ]'
p638
sS'MovementGranularity'
p639
g6
sa(dp640
S'EventTime'
p641
S'66673685'
p642
sg4
L1449974792666L
sS'recordCount'
p643
g6
sS'EventType'
p644
S'TYPE_WINDOW_CONTENT_CHANGED'
p645
sS'PackageName'
p646
S'com.xp.tugele'
p647
sS'OutBounds'
p648
S'Rect(0, 0 - 720, 1280)'
p649
sS'Action'
p650
S'[ ClassName: android.widget.FrameLayout; Text: []; ContentDescription: null; ItemCount: -1; CurrentItemIndex: -1; IsEnabled: true; IsPassword: false; IsChecked: false; IsFullScreen: false; Scrollable: false; BeforeText: null; FromIndex: -1; ToIndex: -1; ScrollX: -1; ScrollY: -1; MaxScrollX: -1; MaxScrollY: -1; AddedCount: -1; RemovedCount: -1; ParcelableData: null ]'
p651
sS'MovementGranularity'
p652
g6
sa(dp653
S'EventTime'
p654
S'66673709'
p655
sg4
L1449974792682L
sS'recordCount'
p656
g6
sS'EventType'
p657
S'TYPE_VIEW_SCROLLED'
p658
sS'PackageName'
p659
S'com.xp.tugele'
p660
sS'OutBounds'
p661
S'Rect(0, 50 - 720, 1280)'
p662
sS'Action'
p663
S'[ ClassName: android.support.v4.view.ViewPager; Text: []; ContentDescription: null; ItemCount: -1; CurrentItemIndex: -1; IsEnabled: true; IsPassword: false; IsChecked: false; IsFullScreen: false; Scrollable: false; BeforeText: null; FromIndex: -1; ToIndex: -1; ScrollX: -1; ScrollY: -1; MaxScrollX: -1; MaxScrollY: -1; AddedCount: -1; RemovedCount: -1; ParcelableData: null ]'
p664
sS'MovementGranularity'
p665
g6
sa(dp666
S'EventTime'
p667
S'66673825'
p668
sg4
L1449974792787L
sS'recordCount'
p669
g6
sS'EventType'
p670
S'TYPE_VIEW_SCROLLED'
p671
sS'PackageName'
p672
S'com.xp.tugele'
p673
sS'OutBounds'
p674
S'Rect(0, 50 - 720, 1280)'
p675
sS'Action'
p676
S'[ ClassName: android.support.v4.view.ViewPager; Text: []; ContentDescription: null; ItemCount: -1; CurrentItemIndex: -1; IsEnabled: true; IsPassword: false; IsChecked: false; IsFullScreen: false; Scrollable: false; BeforeText: null; FromIndex: -1; ToIndex: -1; ScrollX: -1; ScrollY: -1; MaxScrollX: -1; MaxScrollY: -1; AddedCount: -1; RemovedCount: -1; ParcelableData: null ]'
p677
sS'MovementGranularity'
p678
g6
sa(dp679
S'EventTime'
p680
S'66673897'
p681
sg4
L1449974792863L
sS'recordCount'
p682
g6
sS'EventType'
p683
S'TYPE_WINDOW_CONTENT_CHANGED'
p684
sS'PackageName'
p685
S'com.xp.tugele'
p686
sS'OutBounds'
p687
S'Rect(0, 0 - 720, 1280)'
p688
sS'Action'
p689
S'[ ClassName: android.widget.FrameLayout; Text: []; ContentDescription: null; ItemCount: -1; CurrentItemIndex: -1; IsEnabled: true; IsPassword: false; IsChecked: false; IsFullScreen: false; Scrollable: false; BeforeText: null; FromIndex: -1; ToIndex: -1; ScrollX: -1; ScrollY: -1; MaxScrollX: -1; MaxScrollY: -1; AddedCount: -1; RemovedCount: -1; ParcelableData: null ]'
p690
sS'MovementGranularity'
p691
g6
sa(dp692
S'EventTime'
p693
S'66673938'
p694
sg4
L1449974792902L
sS'recordCount'
p695
g6
sS'EventType'
p696
S'TYPE_VIEW_SCROLLED'
p697
sS'PackageName'
p698
S'com.xp.tugele'
p699
sS'OutBounds'
p700
S'Rect(0, 50 - 720, 1280)'
p701
sS'Action'
p702
S'[ ClassName: android.support.v4.view.ViewPager; Text: []; ContentDescription: null; ItemCount: -1; CurrentItemIndex: -1; IsEnabled: true; IsPassword: false; IsChecked: false; IsFullScreen: false; Scrollable: false; BeforeText: null; FromIndex: -1; ToIndex: -1; ScrollX: -1; ScrollY: -1; MaxScrollX: -1; MaxScrollY: -1; AddedCount: -1; RemovedCount: -1; ParcelableData: null ]'
p703
sS'MovementGranularity'
p704
g6
sa(dp705
S'EventTime'
p706
S'66674054'
p707
sg4
L1449974793019L
sS'recordCount'
p708
g6
sS'EventType'
p709
S'TYPE_VIEW_SCROLLED'
p710
sS'PackageName'
p711
S'com.xp.tugele'
p712
sS'OutBounds'
p713
S'Rect(0, 50 - 720, 1280)'
p714
sS'Action'
p715
S'[ ClassName: android.support.v4.view.ViewPager; Text: []; ContentDescription: null; ItemCount: -1; CurrentItemIndex: -1; IsEnabled: true; IsPassword: false; IsChecked: false; IsFullScreen: false; Scrollable: false; BeforeText: null; FromIndex: -1; ToIndex: -1; ScrollX: -1; ScrollY: -1; MaxScrollX: -1; MaxScrollY: -1; AddedCount: -1; RemovedCount: -1; ParcelableData: null ]'
p716
sS'MovementGranularity'
p717
g6
sa(dp718
S'EventTime'
p719
S'66674181'
p720
sg4
L1449974793146L
sS'recordCount'
p721
g6
sS'EventType'
p722
S'TYPE_WINDOW_CONTENT_CHANGED'
p723
sS'PackageName'
p724
S'com.xp.tugele'
p725
sS'OutBounds'
p726
S'Rect(0, 0 - 720, 1280)'
p727
sS'Action'
p728
S'[ ClassName: android.widget.FrameLayout; Text: []; ContentDescription: null; ItemCount: -1; CurrentItemIndex: -1; IsEnabled: true; IsPassword: false; IsChecked: false; IsFullScreen: false; Scrollable: false; BeforeText: null; FromIndex: -1; ToIndex: -1; ScrollX: -1; ScrollY: -1; MaxScrollX: -1; MaxScrollY: -1; AddedCount: -1; RemovedCount: -1; ParcelableData: null ]'
p729
sS'MovementGranularity'
p730
g6
sa(dp731
S'EventTime'
p732
S'66674468'
p733
sg4
L1449974793427L
sS'recordCount'
p734
g6
sS'EventType'
p735
S'TYPE_VIEW_CLICKED'
p736
sS'PackageName'
p737
S'com.xp.tugele'
p738
sS'OutBounds'
p739
S'Rect(0, 1190 - 359, 1280)'
p740
sS'Action'
p741
S'[ ClassName: android.widget.LinearLayout; Text: [\xe4\xb8\x8b\xe8\xbd\xbd]; ContentDescription: null; ItemCount: -1; CurrentItemIndex: -1; IsEnabled: true; IsPassword: false; IsChecked: false; IsFullScreen: false; Scrollable: false; BeforeText: null; FromIndex: -1; ToIndex: -1; ScrollX: -1; ScrollY: -1; MaxScrollX: -1; MaxScrollY: -1; AddedCount: -1; RemovedCount: -1; ParcelableData: null ]'
p742
sS'MovementGranularity'
p743
g6
sa(dp744
S'EventTime'
p745
S'66674809'
p746
sg4
L1449974793767L
sS'recordCount'
p747
g6
sS'EventType'
p748
S'TYPE_NOTIFICATION_STATE_CHANGED'
p749
sS'PackageName'
p750
S'com.xp.tugele'
p751
sS'Action'
p752
S'[ ClassName: android.widget.Toast$TN; Text: [\xe4\xb8\x8b\xe8\xbd\xbd\xe6\x88\x90\xe5\x8a\x9f]; ContentDescription: null; ItemCount: -1; CurrentItemIndex: -1; IsEnabled: false; IsPassword: false; IsChecked: false; IsFullScreen: false; Scrollable: false; BeforeText: null; FromIndex: -1; ToIndex: -1; ScrollX: -1; ScrollY: -1; MaxScrollX: -1; MaxScrollY: -1; AddedCount: -1; RemovedCount: -1; ParcelableData: null ]'
p753
sS'MovementGranularity'
p754
g6
sa(dp755
S'EventTime'
p756
S'66675636'
p757
sg4
L1449974794621L
sS'recordCount'
p758
g6
sS'EventType'
p759
S'TYPE_VIEW_SCROLLED'
p760
sS'PackageName'
p761
S'com.xp.tugele'
p762
sS'OutBounds'
p763
S'Rect(0, 50 - 720, 1280)'
p764
sS'Action'
p765
S'[ ClassName: android.support.v4.view.ViewPager; Text: []; ContentDescription: null; ItemCount: -1; CurrentItemIndex: -1; IsEnabled: true; IsPassword: false; IsChecked: false; IsFullScreen: false; Scrollable: false; BeforeText: null; FromIndex: -1; ToIndex: -1; ScrollX: -1; ScrollY: -1; MaxScrollX: -1; MaxScrollY: -1; AddedCount: -1; RemovedCount: -1; ParcelableData: null ]'
p766
sS'MovementGranularity'
p767
g6
sa(dp768
S'EventTime'
p769
S'66675764'
p770
sg4
L1449974794729L
sS'recordCount'
p771
g6
sS'EventType'
p772
S'TYPE_VIEW_SCROLLED'
p773
sS'PackageName'
p774
S'com.xp.tugele'
p775
sS'OutBounds'
p776
S'Rect(0, 50 - 720, 1280)'
p777
sS'Action'
p778
S'[ ClassName: android.support.v4.view.ViewPager; Text: []; ContentDescription: null; ItemCount: -1; CurrentItemIndex: -1; IsEnabled: true; IsPassword: false; IsChecked: false; IsFullScreen: false; Scrollable: false; BeforeText: null; FromIndex: -1; ToIndex: -1; ScrollX: -1; ScrollY: -1; MaxScrollX: -1; MaxScrollY: -1; AddedCount: -1; RemovedCount: -1; ParcelableData: null ]'
p779
sS'MovementGranularity'
p780
g6
sa(dp781
S'EventTime'
p782
S'66675854'
p783
sg4
L1449974794821L
sS'recordCount'
p784
g6
sS'EventType'
p785
S'TYPE_WINDOW_CONTENT_CHANGED'
p786
sS'PackageName'
p787
S'com.xp.tugele'
p788
sS'OutBounds'
p789
S'Rect(0, 0 - 720, 1280)'
p790
sS'Action'
p791
S'[ ClassName: android.widget.FrameLayout; Text: []; ContentDescription: null; ItemCount: -1; CurrentItemIndex: -1; IsEnabled: true; IsPassword: false; IsChecked: false; IsFullScreen: false; Scrollable: false; BeforeText: null; FromIndex: -1; ToIndex: -1; ScrollX: -1; ScrollY: -1; MaxScrollX: -1; MaxScrollY: -1; AddedCount: -1; RemovedCount: -1; ParcelableData: null ]'
p792
sS'MovementGranularity'
p793
g6
sa(dp794
S'EventTime'
p795
S'66675880'
p796
sg4
L1449974794845L
sS'recordCount'
p797
g6
sS'EventType'
p798
S'TYPE_VIEW_SCROLLED'
p799
sS'PackageName'
p800
S'com.xp.tugele'
p801
sS'OutBounds'
p802
S'Rect(0, 50 - 720, 1280)'
p803
sS'Action'
p804
S'[ ClassName: android.support.v4.view.ViewPager; Text: []; ContentDescription: null; ItemCount: -1; CurrentItemIndex: -1; IsEnabled: true; IsPassword: false; IsChecked: false; IsFullScreen: false; Scrollable: false; BeforeText: null; FromIndex: -1; ToIndex: -1; ScrollX: -1; ScrollY: -1; MaxScrollX: -1; MaxScrollY: -1; AddedCount: -1; RemovedCount: -1; ParcelableData: null ]'
p805
sS'MovementGranularity'
p806
g6
sa(dp807
S'EventTime'
p808
S'66676044'
p809
sg4
L1449974795027L
sS'recordCount'
p810
g6
sS'EventType'
p811
S'TYPE_WINDOW_CONTENT_CHANGED'
p812
sS'PackageName'
p813
S'com.xp.tugele'
p814
sS'OutBounds'
p815
S'Rect(0, 0 - 720, 1280)'
p816
sS'Action'
p817
S'[ ClassName: android.widget.FrameLayout; Text: []; ContentDescription: null; ItemCount: -1; CurrentItemIndex: -1; IsEnabled: true; IsPassword: false; IsChecked: false; IsFullScreen: false; Scrollable: false; BeforeText: null; FromIndex: -1; ToIndex: -1; ScrollX: -1; ScrollY: -1; MaxScrollX: -1; MaxScrollY: -1; AddedCount: -1; RemovedCount: -1; ParcelableData: null ]'
p818
sS'MovementGranularity'
p819
g6
sa(dp820
S'EventTime'
p821
S'66676078'
p822
sg4
L1449974795045L
sS'recordCount'
p823
g6
sS'EventType'
p824
S'TYPE_VIEW_SCROLLED'
p825
sS'PackageName'
p826
S'com.xp.tugele'
p827
sS'OutBounds'
p828
S'Rect(0, 50 - 720, 1280)'
p829
sS'Action'
p830
S'[ ClassName: android.support.v4.view.ViewPager; Text: []; ContentDescription: null; ItemCount: -1; CurrentItemIndex: -1; IsEnabled: true; IsPassword: false; IsChecked: false; IsFullScreen: false; Scrollable: false; BeforeText: null; FromIndex: -1; ToIndex: -1; ScrollX: -1; ScrollY: -1; MaxScrollX: -1; MaxScrollY: -1; AddedCount: -1; RemovedCount: -1; ParcelableData: null ]'
p831
sS'MovementGranularity'
p832
g6
sa(dp833
S'EventTime'
p834
S'66676195'
p835
sg4
L1449974795161L
sS'recordCount'
p836
g6
sS'EventType'
p837
S'TYPE_VIEW_SCROLLED'
p838
sS'PackageName'
p839
S'com.xp.tugele'
p840
sS'OutBounds'
p841
S'Rect(0, 50 - 720, 1280)'
p842
sS'Action'
p843
S'[ ClassName: android.support.v4.view.ViewPager; Text: []; ContentDescription: null; ItemCount: -1; CurrentItemIndex: -1; IsEnabled: true; IsPassword: false; IsChecked: false; IsFullScreen: false; Scrollable: false; BeforeText: null; FromIndex: -1; ToIndex: -1; ScrollX: -1; ScrollY: -1; MaxScrollX: -1; MaxScrollY: -1; AddedCount: -1; RemovedCount: -1; ParcelableData: null ]'
p844
sS'MovementGranularity'
p845
g6
sa(dp846
S'EventTime'
p847
S'66676258'
p848
sg4
L1449974795226L
sS'recordCount'
p849
g6
sS'EventType'
p850
S'TYPE_WINDOW_CONTENT_CHANGED'
p851
sS'PackageName'
p852
S'com.xp.tugele'
p853
sS'OutBounds'
p854
S'Rect(0, 0 - 720, 1280)'
p855
sS'Action'
p856
S'[ ClassName: android.widget.FrameLayout; Text: []; ContentDescription: null; ItemCount: -1; CurrentItemIndex: -1; IsEnabled: true; IsPassword: false; IsChecked: false; IsFullScreen: false; Scrollable: false; BeforeText: null; FromIndex: -1; ToIndex: -1; ScrollX: -1; ScrollY: -1; MaxScrollX: -1; MaxScrollY: -1; AddedCount: -1; RemovedCount: -1; ParcelableData: null ]'
p857
sS'MovementGranularity'
p858
g6
sa(dp859
S'EventTime'
p860
S'66676303'
p861
sg4
L1449974795270L
sS'recordCount'
p862
g6
sS'EventType'
p863
S'TYPE_VIEW_SCROLLED'
p864
sS'PackageName'
p865
S'com.xp.tugele'
p866
sS'OutBounds'
p867
S'Rect(0, 50 - 720, 1280)'
p868
sS'Action'
p869
S'[ ClassName: android.support.v4.view.ViewPager; Text: []; ContentDescription: null; ItemCount: -1; CurrentItemIndex: -1; IsEnabled: true; IsPassword: false; IsChecked: false; IsFullScreen: false; Scrollable: false; BeforeText: null; FromIndex: -1; ToIndex: -1; ScrollX: -1; ScrollY: -1; MaxScrollX: -1; MaxScrollY: -1; AddedCount: -1; RemovedCount: -1; ParcelableData: null ]'
p870
sS'MovementGranularity'
p871
g6
sa(dp872
S'EventTime'
p873
S'66676455'
p874
sg4
L1449974795459L
sS'recordCount'
p875
g6
sS'EventType'
p876
S'TYPE_WINDOW_CONTENT_CHANGED'
p877
sS'PackageName'
p878
S'com.xp.tugele'
p879
sS'OutBounds'
p880
S'Rect(0, 0 - 720, 1280)'
p881
sS'Action'
p882
S'[ ClassName: android.widget.FrameLayout; Text: []; ContentDescription: null; ItemCount: -1; CurrentItemIndex: -1; IsEnabled: true; IsPassword: false; IsChecked: false; IsFullScreen: false; Scrollable: false; BeforeText: null; FromIndex: -1; ToIndex: -1; ScrollX: -1; ScrollY: -1; MaxScrollX: -1; MaxScrollY: -1; AddedCount: -1; RemovedCount: -1; ParcelableData: null ]'
p883
sS'MovementGranularity'
p884
g6
sa(dp885
S'EventTime'
p886
S'66676505'
p887
sg4
L1449974795476L
sS'recordCount'
p888
g6
sS'EventType'
p889
S'TYPE_VIEW_SCROLLED'
p890
sS'PackageName'
p891
S'com.xp.tugele'
p892
sS'OutBounds'
p893
S'Rect(0, 50 - 720, 1280)'
p894
sS'Action'
p895
S'[ ClassName: android.support.v4.view.ViewPager; Text: []; ContentDescription: null; ItemCount: -1; CurrentItemIndex: -1; IsEnabled: true; IsPassword: false; IsChecked: false; IsFullScreen: false; Scrollable: false; BeforeText: null; FromIndex: -1; ToIndex: -1; ScrollX: -1; ScrollY: -1; MaxScrollX: -1; MaxScrollY: -1; AddedCount: -1; RemovedCount: -1; ParcelableData: null ]'
p896
sS'MovementGranularity'
p897
g6
sa(dp898
S'EventTime'
p899
S'66676689'
p900
sg4
L1449974795656L
sS'recordCount'
p901
g6
sS'EventType'
p902
S'TYPE_WINDOW_CONTENT_CHANGED'
p903
sS'PackageName'
p904
S'com.xp.tugele'
p905
sS'OutBounds'
p906
S'Rect(0, 0 - 720, 1280)'
p907
sS'Action'
p908
S'[ ClassName: android.widget.FrameLayout; Text: []; ContentDescription: null; ItemCount: -1; CurrentItemIndex: -1; IsEnabled: true; IsPassword: false; IsChecked: false; IsFullScreen: false; Scrollable: false; BeforeText: null; FromIndex: -1; ToIndex: -1; ScrollX: -1; ScrollY: -1; MaxScrollX: -1; MaxScrollY: -1; AddedCount: -1; RemovedCount: -1; ParcelableData: null ]'
p909
sS'MovementGranularity'
p910
g6
sa(dp911
S'EventTime'
p912
S'66676711'
p913
sg4
L1449974795682L
sS'recordCount'
p914
g6
sS'EventType'
p915
S'TYPE_VIEW_SCROLLED'
p916
sS'PackageName'
p917
S'com.xp.tugele'
p918
sS'OutBounds'
p919
S'Rect(0, 50 - 720, 1280)'
p920
sS'Action'
p921
S'[ ClassName: android.support.v4.view.ViewPager; Text: []; ContentDescription: null; ItemCount: -1; CurrentItemIndex: -1; IsEnabled: true; IsPassword: false; IsChecked: false; IsFullScreen: false; Scrollable: false; BeforeText: null; FromIndex: -1; ToIndex: -1; ScrollX: -1; ScrollY: -1; MaxScrollX: -1; MaxScrollY: -1; AddedCount: -1; RemovedCount: -1; ParcelableData: null ]'
p922
sS'MovementGranularity'
p923
g6
sa(dp924
S'EventTime'
p925
S'66676811'
p926
sg4
L1449974795782L
sS'recordCount'
p927
g6
sS'EventType'
p928
S'TYPE_WINDOW_CONTENT_CHANGED'
p929
sS'PackageName'
p930
S'com.xp.tugele'
p931
sS'OutBounds'
p932
S'Rect(0, 0 - 720, 1280)'
p933
sS'Action'
p934
S'[ ClassName: android.widget.FrameLayout; Text: []; ContentDescription: null; ItemCount: -1; CurrentItemIndex: -1; IsEnabled: true; IsPassword: false; IsChecked: false; IsFullScreen: false; Scrollable: false; BeforeText: null; FromIndex: -1; ToIndex: -1; ScrollX: -1; ScrollY: -1; MaxScrollX: -1; MaxScrollY: -1; AddedCount: -1; RemovedCount: -1; ParcelableData: null ]'
p935
sS'MovementGranularity'
p936
g6
sa(dp937
S'EventTime'
p938
S'66676819'
p939
sg4
L1449974795796L
sS'recordCount'
p940
g6
sS'EventType'
p941
S'TYPE_VIEW_SCROLLED'
p942
sS'PackageName'
p943
S'com.xp.tugele'
p944
sS'OutBounds'
p945
S'Rect(0, 50 - 720, 1280)'
p946
sS'Action'
p947
S'[ ClassName: android.support.v4.view.ViewPager; Text: []; ContentDescription: null; ItemCount: -1; CurrentItemIndex: -1; IsEnabled: true; IsPassword: false; IsChecked: false; IsFullScreen: false; Scrollable: false; BeforeText: null; FromIndex: -1; ToIndex: -1; ScrollX: -1; ScrollY: -1; MaxScrollX: -1; MaxScrollY: -1; AddedCount: -1; RemovedCount: -1; ParcelableData: null ]'
p948
sS'MovementGranularity'
p949
g6
sa(dp950
S'EventTime'
p951
S'66676939'
p952
sg4
L1449974795904L
sS'recordCount'
p953
g6
sS'EventType'
p954
S'TYPE_VIEW_SCROLLED'
p955
sS'PackageName'
p956
S'com.xp.tugele'
p957
sS'OutBounds'
p958
S'Rect(0, 50 - 720, 1280)'
p959
sS'Action'
p960
S'[ ClassName: android.support.v4.view.ViewPager; Text: []; ContentDescription: null; ItemCount: -1; CurrentItemIndex: -1; IsEnabled: true; IsPassword: false; IsChecked: false; IsFullScreen: false; Scrollable: false; BeforeText: null; FromIndex: -1; ToIndex: -1; ScrollX: -1; ScrollY: -1; MaxScrollX: -1; MaxScrollY: -1; AddedCount: -1; RemovedCount: -1; ParcelableData: null ]'
p961
sS'MovementGranularity'
p962
g6
sa(dp963
S'EventTime'
p964
S'66677051'
p965
sg4
L1449974796021L
sS'recordCount'
p966
g6
sS'EventType'
p967
S'TYPE_VIEW_SCROLLED'
p968
sS'PackageName'
p969
S'com.xp.tugele'
p970
sS'OutBounds'
p971
S'Rect(0, 50 - 720, 1280)'
p972
sS'Action'
p973
S'[ ClassName: android.support.v4.view.ViewPager; Text: []; ContentDescription: null; ItemCount: -1; CurrentItemIndex: -1; IsEnabled: true; IsPassword: false; IsChecked: false; IsFullScreen: false; Scrollable: false; BeforeText: null; FromIndex: -1; ToIndex: -1; ScrollX: -1; ScrollY: -1; MaxScrollX: -1; MaxScrollY: -1; AddedCount: -1; RemovedCount: -1; ParcelableData: null ]'
p974
sS'MovementGranularity'
p975
g6
sa(dp976
S'EventTime'
p977
S'66677168'
p978
sg4
L1449974796134L
sS'recordCount'
p979
g6
sS'EventType'
p980
S'TYPE_VIEW_SCROLLED'
p981
sS'PackageName'
p982
S'com.xp.tugele'
p983
sS'OutBounds'
p984
S'Rect(0, 50 - 720, 1280)'
p985
sS'Action'
p986
S'[ ClassName: android.support.v4.view.ViewPager; Text: []; ContentDescription: null; ItemCount: -1; CurrentItemIndex: -1; IsEnabled: true; IsPassword: false; IsChecked: false; IsFullScreen: false; Scrollable: false; BeforeText: null; FromIndex: -1; ToIndex: -1; ScrollX: -1; ScrollY: -1; MaxScrollX: -1; MaxScrollY: -1; AddedCount: -1; RemovedCount: -1; ParcelableData: null ]'
p987
sS'MovementGranularity'
p988
g6
sa(dp989
S'EventTime'
p990
S'66677189'
p991
sg4
L1449974796157L
sS'recordCount'
p992
g6
sS'EventType'
p993
S'TYPE_WINDOW_CONTENT_CHANGED'
p994
sS'PackageName'
p995
S'com.xp.tugele'
p996
sS'OutBounds'
p997
S'Rect(0, 0 - 720, 1280)'
p998
sS'Action'
p999
S'[ ClassName: android.widget.FrameLayout; Text: []; ContentDescription: null; ItemCount: -1; CurrentItemIndex: -1; IsEnabled: true; IsPassword: false; IsChecked: false; IsFullScreen: false; Scrollable: false; BeforeText: null; FromIndex: -1; ToIndex: -1; ScrollX: -1; ScrollY: -1; MaxScrollX: -1; MaxScrollY: -1; AddedCount: -1; RemovedCount: -1; ParcelableData: null ]'
p1000
sS'MovementGranularity'
p1001
g6
sa(dp1002
S'EventTime'
p1003
S'66677281'
p1004
sg4
L1449974796246L
sS'recordCount'
p1005
g6
sS'EventType'
p1006
S'TYPE_VIEW_SCROLLED'
p1007
sS'PackageName'
p1008
S'com.xp.tugele'
p1009
sS'OutBounds'
p1010
S'Rect(0, 50 - 720, 1280)'
p1011
sS'Action'
p1012
S'[ ClassName: android.support.v4.view.ViewPager; Text: []; ContentDescription: null; ItemCount: -1; CurrentItemIndex: -1; IsEnabled: true; IsPassword: false; IsChecked: false; IsFullScreen: false; Scrollable: false; BeforeText: null; FromIndex: -1; ToIndex: -1; ScrollX: -1; ScrollY: -1; MaxScrollX: -1; MaxScrollY: -1; AddedCount: -1; RemovedCount: -1; ParcelableData: null ]'
p1013
sS'MovementGranularity'
p1014
g6
sa(dp1015
S'EventTime'
p1016
S'66677709'
p1017
sg4
L1449974796676L
sS'recordCount'
p1018
g6
sS'EventType'
p1019
S'TYPE_WINDOW_CONTENT_CHANGED'
p1020
sS'PackageName'
p1021
S'com.xp.tugele'
p1022
sS'OutBounds'
p1023
S'Rect(0, 0 - 720, 1280)'
p1024
sS'Action'
p1025
S'[ ClassName: android.widget.FrameLayout; Text: []; ContentDescription: null; ItemCount: -1; CurrentItemIndex: -1; IsEnabled: true; IsPassword: false; IsChecked: false; IsFullScreen: false; Scrollable: false; BeforeText: null; FromIndex: -1; ToIndex: -1; ScrollX: -1; ScrollY: -1; MaxScrollX: -1; MaxScrollY: -1; AddedCount: -1; RemovedCount: -1; ParcelableData: null ]'
p1026
sS'MovementGranularity'
p1027
g6
sa(dp1028
S'EventTime'
p1029
S'66678034'
p1030
sg4
L1449974797001L
sS'recordCount'
p1031
g6
sS'EventType'
p1032
S'TYPE_VIEW_SCROLLED'
p1033
sS'PackageName'
p1034
S'com.xp.tugele'
p1035
sS'OutBounds'
p1036
S'Rect(0, 50 - 720, 1280)'
p1037
sS'Action'
p1038
S'[ ClassName: android.support.v4.view.ViewPager; Text: []; ContentDescription: null; ItemCount: -1; CurrentItemIndex: -1; IsEnabled: true; IsPassword: false; IsChecked: false; IsFullScreen: false; Scrollable: false; BeforeText: null; FromIndex: -1; ToIndex: -1; ScrollX: -1; ScrollY: -1; MaxScrollX: -1; MaxScrollY: -1; AddedCount: -1; RemovedCount: -1; ParcelableData: null ]'
p1039
sS'MovementGranularity'
p1040
g6
sa(dp1041
S'EventTime'
p1042
S'66678158'
p1043
sg4
L1449974797128L
sS'recordCount'
p1044
g6
sS'EventType'
p1045
S'TYPE_VIEW_SCROLLED'
p1046
sS'PackageName'
p1047
S'com.xp.tugele'
p1048
sS'OutBounds'
p1049
S'Rect(0, 50 - 720, 1280)'
p1050
sS'Action'
p1051
S'[ ClassName: android.support.v4.view.ViewPager; Text: []; ContentDescription: null; ItemCount: -1; CurrentItemIndex: -1; IsEnabled: true; IsPassword: false; IsChecked: false; IsFullScreen: false; Scrollable: false; BeforeText: null; FromIndex: -1; ToIndex: -1; ScrollX: -1; ScrollY: -1; MaxScrollX: -1; MaxScrollY: -1; AddedCount: -1; RemovedCount: -1; ParcelableData: null ]'
p1052
sS'MovementGranularity'
p1053
g6
sa(dp1054
S'EventTime'
p1055
S'66678271'
p1056
sg4
L1449974797239L
sS'recordCount'
p1057
g6
sS'EventType'
p1058
S'TYPE_WINDOW_CONTENT_CHANGED'
p1059
sS'PackageName'
p1060
S'com.xp.tugele'
p1061
sS'OutBounds'
p1062
S'Rect(0, 0 - 720, 1280)'
p1063
sS'Action'
p1064
S'[ ClassName: android.widget.FrameLayout; Text: []; ContentDescription: null; ItemCount: -1; CurrentItemIndex: -1; IsEnabled: true; IsPassword: false; IsChecked: false; IsFullScreen: false; Scrollable: false; BeforeText: null; FromIndex: -1; ToIndex: -1; ScrollX: -1; ScrollY: -1; MaxScrollX: -1; MaxScrollY: -1; AddedCount: -1; RemovedCount: -1; ParcelableData: null ]'
p1065
sS'MovementGranularity'
p1066
g6
sa(dp1067
S'EventTime'
p1068
S'66678282'
p1069
sg4
L1449974797253L
sS'recordCount'
p1070
g6
sS'EventType'
p1071
S'TYPE_VIEW_SCROLLED'
p1072
sS'PackageName'
p1073
S'com.xp.tugele'
p1074
sS'OutBounds'
p1075
S'Rect(0, 50 - 720, 1280)'
p1076
sS'Action'
p1077
S'[ ClassName: android.support.v4.view.ViewPager; Text: []; ContentDescription: null; ItemCount: -1; CurrentItemIndex: -1; IsEnabled: true; IsPassword: false; IsChecked: false; IsFullScreen: false; Scrollable: false; BeforeText: null; FromIndex: -1; ToIndex: -1; ScrollX: -1; ScrollY: -1; MaxScrollX: -1; MaxScrollY: -1; AddedCount: -1; RemovedCount: -1; ParcelableData: null ]'
p1078
sS'MovementGranularity'
p1079
g6
sa(dp1080
S'EventTime'
p1081
S'66678405'
p1082
sg4
L1449974797375L
sS'recordCount'
p1083
g6
sS'EventType'
p1084
S'TYPE_VIEW_SCROLLED'
p1085
sS'PackageName'
p1086
S'com.xp.tugele'
p1087
sS'OutBounds'
p1088
S'Rect(0, 50 - 720, 1280)'
p1089
sS'Action'
p1090
S'[ ClassName: android.support.v4.view.ViewPager; Text: []; ContentDescription: null; ItemCount: -1; CurrentItemIndex: -1; IsEnabled: true; IsPassword: false; IsChecked: false; IsFullScreen: false; Scrollable: false; BeforeText: null; FromIndex: -1; ToIndex: -1; ScrollX: -1; ScrollY: -1; MaxScrollX: -1; MaxScrollY: -1; AddedCount: -1; RemovedCount: -1; ParcelableData: null ]'
p1091
sS'MovementGranularity'
p1092
g6
sa(dp1093
S'EventTime'
p1094
S'66678456'
p1095
sg4
L1449974797425L
sS'recordCount'
p1096
g6
sS'EventType'
p1097
S'TYPE_WINDOW_CONTENT_CHANGED'
p1098
sS'PackageName'
p1099
S'com.xp.tugele'
p1100
sS'OutBounds'
p1101
S'Rect(0, 0 - 720, 1280)'
p1102
sS'Action'
p1103
S'[ ClassName: android.widget.FrameLayout; Text: []; ContentDescription: null; ItemCount: -1; CurrentItemIndex: -1; IsEnabled: true; IsPassword: false; IsChecked: false; IsFullScreen: false; Scrollable: false; BeforeText: null; FromIndex: -1; ToIndex: -1; ScrollX: -1; ScrollY: -1; MaxScrollX: -1; MaxScrollY: -1; AddedCount: -1; RemovedCount: -1; ParcelableData: null ]'
p1104
sS'MovementGranularity'
p1105
g6
sa(dp1106
S'EventTime'
p1107
S'66678517'
p1108
sg4
L1449974797478L
sS'recordCount'
p1109
g6
sS'EventType'
p1110
S'TYPE_VIEW_SCROLLED'
p1111
sS'PackageName'
p1112
S'com.xp.tugele'
p1113
sS'OutBounds'
p1114
S'Rect(0, 50 - 720, 1280)'
p1115
sS'Action'
p1116
S'[ ClassName: android.support.v4.view.ViewPager; Text: []; ContentDescription: null; ItemCount: -1; CurrentItemIndex: -1; IsEnabled: true; IsPassword: false; IsChecked: false; IsFullScreen: false; Scrollable: false; BeforeText: null; FromIndex: -1; ToIndex: -1; ScrollX: -1; ScrollY: -1; MaxScrollX: -1; MaxScrollY: -1; AddedCount: -1; RemovedCount: -1; ParcelableData: null ]'
p1117
sS'MovementGranularity'
p1118
g6
sa(dp1119
S'EventTime'
p1120
S'66678626'
p1121
sg4
L1449974797596L
sS'recordCount'
p1122
g6
sS'EventType'
p1123
S'TYPE_VIEW_SCROLLED'
p1124
sS'PackageName'
p1125
S'com.xp.tugele'
p1126
sS'OutBounds'
p1127
S'Rect(0, 50 - 720, 1280)'
p1128
sS'Action'
p1129
S'[ ClassName: android.support.v4.view.ViewPager; Text: []; ContentDescription: null; ItemCount: -1; CurrentItemIndex: -1; IsEnabled: true; IsPassword: false; IsChecked: false; IsFullScreen: false; Scrollable: false; BeforeText: null; FromIndex: -1; ToIndex: -1; ScrollX: -1; ScrollY: -1; MaxScrollX: -1; MaxScrollY: -1; AddedCount: -1; RemovedCount: -1; ParcelableData: null ]'
p1130
sS'MovementGranularity'
p1131
g6
sa(dp1132
S'EventTime'
p1133
S'66678652'
p1134
sg4
L1449974797624L
sS'recordCount'
p1135
g6
sS'EventType'
p1136
S'TYPE_WINDOW_CONTENT_CHANGED'
p1137
sS'PackageName'
p1138
S'com.xp.tugele'
p1139
sS'OutBounds'
p1140
S'Rect(0, 0 - 720, 1280)'
p1141
sS'Action'
p1142
S'[ ClassName: android.widget.FrameLayout; Text: []; ContentDescription: null; ItemCount: -1; CurrentItemIndex: -1; IsEnabled: true; IsPassword: false; IsChecked: false; IsFullScreen: false; Scrollable: false; BeforeText: null; FromIndex: -1; ToIndex: -1; ScrollX: -1; ScrollY: -1; MaxScrollX: -1; MaxScrollY: -1; AddedCount: -1; RemovedCount: -1; ParcelableData: null ]'
p1143
sS'MovementGranularity'
p1144
g6
sa(dp1145
S'EventTime'
p1146
S'66678741'
p1147
sg4
L1449974797705L
sS'recordCount'
p1148
g6
sS'EventType'
p1149
S'TYPE_VIEW_SCROLLED'
p1150
sS'PackageName'
p1151
S'com.xp.tugele'
p1152
sS'OutBounds'
p1153
S'Rect(0, 50 - 720, 1280)'
p1154
sS'Action'
p1155
S'[ ClassName: android.support.v4.view.ViewPager; Text: []; ContentDescription: null; ItemCount: -1; CurrentItemIndex: -1; IsEnabled: true; IsPassword: false; IsChecked: false; IsFullScreen: false; Scrollable: false; BeforeText: null; FromIndex: -1; ToIndex: -1; ScrollX: -1; ScrollY: -1; MaxScrollX: -1; MaxScrollY: -1; AddedCount: -1; RemovedCount: -1; ParcelableData: null ]'
p1156
sS'MovementGranularity'
p1157
g6
sa(dp1158
S'EventTime'
p1159
S'66678828'
p1160
sg4
L1449974797798L
sS'recordCount'
p1161
g6
sS'EventType'
p1162
S'TYPE_WINDOW_CONTENT_CHANGED'
p1163
sS'PackageName'
p1164
S'com.xp.tugele'
p1165
sS'OutBounds'
p1166
S'Rect(0, 0 - 720, 1280)'
p1167
sS'Action'
p1168
S'[ ClassName: android.widget.FrameLayout; Text: []; ContentDescription: null; ItemCount: -1; CurrentItemIndex: -1; IsEnabled: true; IsPassword: false; IsChecked: false; IsFullScreen: false; Scrollable: false; BeforeText: null; FromIndex: -1; ToIndex: -1; ScrollX: -1; ScrollY: -1; MaxScrollX: -1; MaxScrollY: -1; AddedCount: -1; RemovedCount: -1; ParcelableData: null ]'
p1169
sS'MovementGranularity'
p1170
g6
sa(dp1171
S'EventTime'
p1172
S'66678855'
p1173
sg4
L1449974797878L
sS'recordCount'
p1174
g6
sS'EventType'
p1175
S'TYPE_VIEW_SCROLLED'
p1176
sS'PackageName'
p1177
S'com.xp.tugele'
p1178
sS'OutBounds'
p1179
S'Rect(0, 50 - 720, 1280)'
p1180
sS'Action'
p1181
S'[ ClassName: android.support.v4.view.ViewPager; Text: []; ContentDescription: null; ItemCount: -1; CurrentItemIndex: -1; IsEnabled: true; IsPassword: false; IsChecked: false; IsFullScreen: false; Scrollable: false; BeforeText: null; FromIndex: -1; ToIndex: -1; ScrollX: -1; ScrollY: -1; MaxScrollX: -1; MaxScrollY: -1; AddedCount: -1; RemovedCount: -1; ParcelableData: null ]'
p1182
sS'MovementGranularity'
p1183
g6
sa(dp1184
S'EventTime'
p1185
S'66679014'
p1186
sg4
L1449974797986L
sS'recordCount'
p1187
g6
sS'EventType'
p1188
S'TYPE_VIEW_SCROLLED'
p1189
sS'PackageName'
p1190
S'com.xp.tugele'
p1191
sS'OutBounds'
p1192
S'Rect(0, 50 - 720, 1280)'
p1193
sS'Action'
p1194
S'[ ClassName: android.support.v4.view.ViewPager; Text: []; ContentDescription: null; ItemCount: -1; CurrentItemIndex: -1; IsEnabled: true; IsPassword: false; IsChecked: false; IsFullScreen: false; Scrollable: false; BeforeText: null; FromIndex: -1; ToIndex: -1; ScrollX: -1; ScrollY: -1; MaxScrollX: -1; MaxScrollY: -1; AddedCount: -1; RemovedCount: -1; ParcelableData: null ]'
p1195
sS'MovementGranularity'
p1196
g6
sa(dp1197
S'EventTime'
p1198
S'66679029'
p1199
sg4
L1449974798003L
sS'recordCount'
p1200
g6
sS'EventType'
p1201
S'TYPE_WINDOW_CONTENT_CHANGED'
p1202
sS'PackageName'
p1203
S'com.xp.tugele'
p1204
sS'OutBounds'
p1205
S'Rect(0, 0 - 720, 1280)'
p1206
sS'Action'
p1207
S'[ ClassName: android.widget.FrameLayout; Text: []; ContentDescription: null; ItemCount: -1; CurrentItemIndex: -1; IsEnabled: true; IsPassword: false; IsChecked: false; IsFullScreen: false; Scrollable: false; BeforeText: null; FromIndex: -1; ToIndex: -1; ScrollX: -1; ScrollY: -1; MaxScrollX: -1; MaxScrollY: -1; AddedCount: -1; RemovedCount: -1; ParcelableData: null ]'
p1208
sS'MovementGranularity'
p1209
g6
sa(dp1210
S'EventTime'
p1211
S'66679348'
p1212
sg4
L1449974798315L
sS'recordCount'
p1213
g6
sS'EventType'
p1214
S'TYPE_WINDOW_CONTENT_CHANGED'
p1215
sS'PackageName'
p1216
S'com.xp.tugele'
p1217
sS'OutBounds'
p1218
S'Rect(0, 0 - 720, 1280)'
p1219
sS'Action'
p1220
S'[ ClassName: android.widget.FrameLayout; Text: []; ContentDescription: null; ItemCount: -1; CurrentItemIndex: -1; IsEnabled: true; IsPassword: false; IsChecked: false; IsFullScreen: false; Scrollable: false; BeforeText: null; FromIndex: -1; ToIndex: -1; ScrollX: -1; ScrollY: -1; MaxScrollX: -1; MaxScrollY: -1; AddedCount: -1; RemovedCount: -1; ParcelableData: null ]'
p1221
sS'MovementGranularity'
p1222
g6
sa(dp1223
S'EventTime'
p1224
S'66679505'
p1225
sg4
L1449974798475L
sS'recordCount'
p1226
g6
sS'EventType'
p1227
S'TYPE_WINDOW_CONTENT_CHANGED'
p1228
sS'PackageName'
p1229
S'com.xp.tugele'
p1230
sS'OutBounds'
p1231
S'Rect(0, 0 - 720, 1280)'
p1232
sS'Action'
p1233
S'[ ClassName: android.widget.FrameLayout; Text: []; ContentDescription: null; ItemCount: -1; CurrentItemIndex: -1; IsEnabled: true; IsPassword: false; IsChecked: false; IsFullScreen: false; Scrollable: false; BeforeText: null; FromIndex: -1; ToIndex: -1; ScrollX: -1; ScrollY: -1; MaxScrollX: -1; MaxScrollY: -1; AddedCount: -1; RemovedCount: -1; ParcelableData: null ]'
p1234
sS'MovementGranularity'
p1235
g6
sa(dp1236
S'EventTime'
p1237
S'66679595'
p1238
sg4
L1449974798562L
sS'recordCount'
p1239
g6
sS'EventType'
p1240
S'TYPE_VIEW_SCROLLED'
p1241
sS'PackageName'
p1242
S'com.xp.tugele'
p1243
sS'OutBounds'
p1244
S'Rect(0, 50 - 720, 1280)'
p1245
sS'Action'
p1246
S'[ ClassName: android.support.v4.view.ViewPager; Text: []; ContentDescription: null; ItemCount: -1; CurrentItemIndex: -1; IsEnabled: true; IsPassword: false; IsChecked: false; IsFullScreen: false; Scrollable: false; BeforeText: null; FromIndex: -1; ToIndex: -1; ScrollX: -1; ScrollY: -1; MaxScrollX: -1; MaxScrollY: -1; AddedCount: -1; RemovedCount: -1; ParcelableData: null ]'
p1247
sS'MovementGranularity'
p1248
g6
sa(dp1249
S'EventTime'
p1250
S'66679657'
p1251
sg4
L1449974798624L
sS'recordCount'
p1252
g6
sS'EventType'
p1253
S'TYPE_WINDOW_CONTENT_CHANGED'
p1254
sS'PackageName'
p1255
S'com.xp.tugele'
p1256
sS'OutBounds'
p1257
S'Rect(0, 0 - 720, 1280)'
p1258
sS'Action'
p1259
S'[ ClassName: android.widget.FrameLayout; Text: []; ContentDescription: null; ItemCount: -1; CurrentItemIndex: -1; IsEnabled: true; IsPassword: false; IsChecked: false; IsFullScreen: false; Scrollable: false; BeforeText: null; FromIndex: -1; ToIndex: -1; ScrollX: -1; ScrollY: -1; MaxScrollX: -1; MaxScrollY: -1; AddedCount: -1; RemovedCount: -1; ParcelableData: null ]'
p1260
sS'MovementGranularity'
p1261
g6
sa(dp1262
S'EventTime'
p1263
S'66679793'
p1264
sg4
L1449974798755L
sS'recordCount'
p1265
g6
sS'EventType'
p1266
S'TYPE_VIEW_SCROLLED'
p1267
sS'PackageName'
p1268
S'com.xp.tugele'
p1269
sS'OutBounds'
p1270
S'Rect(0, 50 - 720, 1280)'
p1271
sS'Action'
p1272
S'[ ClassName: android.support.v4.view.ViewPager; Text: []; ContentDescription: null; ItemCount: -1; CurrentItemIndex: -1; IsEnabled: true; IsPassword: false; IsChecked: false; IsFullScreen: false; Scrollable: false; BeforeText: null; FromIndex: -1; ToIndex: -1; ScrollX: -1; ScrollY: -1; MaxScrollX: -1; MaxScrollY: -1; AddedCount: -1; RemovedCount: -1; ParcelableData: null ]'
p1273
sS'MovementGranularity'
p1274
g6
sa(dp1275
S'EventTime'
p1276
S'66679948'
p1277
sg4
L1449974798910L
sS'recordCount'
p1278
g6
sS'EventType'
p1279
S'TYPE_WINDOW_CONTENT_CHANGED'
p1280
sS'PackageName'
p1281
S'com.xp.tugele'
p1282
sS'OutBounds'
p1283
S'Rect(0, 0 - 720, 1280)'
p1284
sS'Action'
p1285
S'[ ClassName: android.widget.FrameLayout; Text: []; ContentDescription: null; ItemCount: -1; CurrentItemIndex: -1; IsEnabled: true; IsPassword: false; IsChecked: false; IsFullScreen: false; Scrollable: false; BeforeText: null; FromIndex: -1; ToIndex: -1; ScrollX: -1; ScrollY: -1; MaxScrollX: -1; MaxScrollY: -1; AddedCount: -1; RemovedCount: -1; ParcelableData: null ]'
p1286
sS'MovementGranularity'
p1287
g6
sa(dp1288
S'EventTime'
p1289
S'66679973'
p1290
sg4
L1449974798934L
sS'recordCount'
p1291
g6
sS'EventType'
p1292
S'TYPE_VIEW_SCROLLED'
p1293
sS'PackageName'
p1294
S'com.xp.tugele'
p1295
sS'OutBounds'
p1296
S'Rect(0, 50 - 720, 1280)'
p1297
sS'Action'
p1298
S'[ ClassName: android.support.v4.view.ViewPager; Text: []; ContentDescription: null; ItemCount: -1; CurrentItemIndex: -1; IsEnabled: true; IsPassword: false; IsChecked: false; IsFullScreen: false; Scrollable: false; BeforeText: null; FromIndex: -1; ToIndex: -1; ScrollX: -1; ScrollY: -1; MaxScrollX: -1; MaxScrollY: -1; AddedCount: -1; RemovedCount: -1; ParcelableData: null ]'
p1299
sS'MovementGranularity'
p1300
g6
sa(dp1301
S'EventTime'
p1302
S'66680126'
p1303
sg4
L1449974799086L
sS'recordCount'
p1304
g6
sS'EventType'
p1305
S'TYPE_WINDOW_CONTENT_CHANGED'
p1306
sS'PackageName'
p1307
S'com.xp.tugele'
p1308
sS'OutBounds'
p1309
S'Rect(0, 0 - 720, 1280)'
p1310
sS'Action'
p1311
S'[ ClassName: android.widget.FrameLayout; Text: []; ContentDescription: null; ItemCount: -1; CurrentItemIndex: -1; IsEnabled: true; IsPassword: false; IsChecked: false; IsFullScreen: false; Scrollable: false; BeforeText: null; FromIndex: -1; ToIndex: -1; ScrollX: -1; ScrollY: -1; MaxScrollX: -1; MaxScrollY: -1; AddedCount: -1; RemovedCount: -1; ParcelableData: null ]'
p1312
sS'MovementGranularity'
p1313
g6
sa(dp1314
S'EventTime'
p1315
S'66680165'
p1316
sg4
L1449974799216L
sS'recordCount'
p1317
g6
sS'EventType'
p1318
S'TYPE_VIEW_SCROLLED'
p1319
sS'PackageName'
p1320
S'com.xp.tugele'
p1321
sS'OutBounds'
p1322
S'Rect(0, 50 - 720, 1280)'
p1323
sS'Action'
p1324
S'[ ClassName: android.support.v4.view.ViewPager; Text: []; ContentDescription: null; ItemCount: -1; CurrentItemIndex: -1; IsEnabled: true; IsPassword: false; IsChecked: false; IsFullScreen: false; Scrollable: false; BeforeText: null; FromIndex: -1; ToIndex: -1; ScrollX: -1; ScrollY: -1; MaxScrollX: -1; MaxScrollY: -1; AddedCount: -1; RemovedCount: -1; ParcelableData: null ]'
p1325
sS'MovementGranularity'
p1326
g6
sa(dp1327
S'EventTime'
p1328
S'66680355'
p1329
sg4
L1449974799317L
sS'recordCount'
p1330
g6
sS'EventType'
p1331
S'TYPE_VIEW_SCROLLED'
p1332
sS'PackageName'
p1333
S'com.xp.tugele'
p1334
sS'OutBounds'
p1335
S'Rect(0, 50 - 720, 1280)'
p1336
sS'Action'
p1337
S'[ ClassName: android.support.v4.view.ViewPager; Text: []; ContentDescription: null; ItemCount: -1; CurrentItemIndex: -1; IsEnabled: true; IsPassword: false; IsChecked: false; IsFullScreen: false; Scrollable: false; BeforeText: null; FromIndex: -1; ToIndex: -1; ScrollX: -1; ScrollY: -1; MaxScrollX: -1; MaxScrollY: -1; AddedCount: -1; RemovedCount: -1; ParcelableData: null ]'
p1338
sS'MovementGranularity'
p1339
g6
sa(dp1340
S'EventTime'
p1341
S'66680355'
p1342
sg4
L1449974799327L
sS'recordCount'
p1343
g6
sS'EventType'
p1344
S'TYPE_WINDOW_CONTENT_CHANGED'
p1345
sS'PackageName'
p1346
S'com.xp.tugele'
p1347
sS'OutBounds'
p1348
S'Rect(0, 0 - 720, 1280)'
p1349
sS'Action'
p1350
S'[ ClassName: android.widget.FrameLayout; Text: []; ContentDescription: null; ItemCount: -1; CurrentItemIndex: -1; IsEnabled: true; IsPassword: false; IsChecked: false; IsFullScreen: false; Scrollable: false; BeforeText: null; FromIndex: -1; ToIndex: -1; ScrollX: -1; ScrollY: -1; MaxScrollX: -1; MaxScrollY: -1; AddedCount: -1; RemovedCount: -1; ParcelableData: null ]'
p1351
sS'MovementGranularity'
p1352
g6
sa(dp1353
S'EventTime'
p1354
S'66680471'
p1355
sg4
L1449974799449L
sS'recordCount'
p1356
g6
sS'EventType'
p1357
S'TYPE_VIEW_SCROLLED'
p1358
sS'PackageName'
p1359
S'com.xp.tugele'
p1360
sS'OutBounds'
p1361
S'Rect(0, 50 - 720, 1280)'
p1362
sS'Action'
p1363
S'[ ClassName: android.support.v4.view.ViewPager; Text: []; ContentDescription: null; ItemCount: -1; CurrentItemIndex: -1; IsEnabled: true; IsPassword: false; IsChecked: false; IsFullScreen: false; Scrollable: false; BeforeText: null; FromIndex: -1; ToIndex: -1; ScrollX: -1; ScrollY: -1; MaxScrollX: -1; MaxScrollY: -1; AddedCount: -1; RemovedCount: -1; ParcelableData: null ]'
p1364
sS'MovementGranularity'
p1365
g6
sa(dp1366
S'EventTime'
p1367
S'66680519'
p1368
sg4
L1449974799486L
sS'recordCount'
p1369
g6
sS'EventType'
p1370
S'TYPE_WINDOW_CONTENT_CHANGED'
p1371
sS'PackageName'
p1372
S'com.xp.tugele'
p1373
sS'OutBounds'
p1374
S'Rect(0, 0 - 720, 1280)'
p1375
sS'Action'
p1376
S'[ ClassName: android.widget.FrameLayout; Text: []; ContentDescription: null; ItemCount: -1; CurrentItemIndex: -1; IsEnabled: true; IsPassword: false; IsChecked: false; IsFullScreen: false; Scrollable: false; BeforeText: null; FromIndex: -1; ToIndex: -1; ScrollX: -1; ScrollY: -1; MaxScrollX: -1; MaxScrollY: -1; AddedCount: -1; RemovedCount: -1; ParcelableData: null ]'
p1377
sS'MovementGranularity'
p1378
g6
sa(dp1379
S'EventTime'
p1380
S'66680592'
p1381
sg4
L1449974799560L
sS'recordCount'
p1382
g6
sS'EventType'
p1383
S'TYPE_VIEW_SCROLLED'
p1384
sS'PackageName'
p1385
S'com.xp.tugele'
p1386
sS'OutBounds'
p1387
S'Rect(0, 50 - 720, 1280)'
p1388
sS'Action'
p1389
S'[ ClassName: android.support.v4.view.ViewPager; Text: []; ContentDescription: null; ItemCount: -1; CurrentItemIndex: -1; IsEnabled: true; IsPassword: false; IsChecked: false; IsFullScreen: false; Scrollable: false; BeforeText: null; FromIndex: -1; ToIndex: -1; ScrollX: -1; ScrollY: -1; MaxScrollX: -1; MaxScrollY: -1; AddedCount: -1; RemovedCount: -1; ParcelableData: null ]'
p1390
sS'MovementGranularity'
p1391
g6
sa(dp1392
S'EventTime'
p1393
S'66680681'
p1394
sg4
L1449974799650L
sS'recordCount'
p1395
g6
sS'EventType'
p1396
S'TYPE_WINDOW_CONTENT_CHANGED'
p1397
sS'PackageName'
p1398
S'com.xp.tugele'
p1399
sS'OutBounds'
p1400
S'Rect(0, 0 - 720, 1280)'
p1401
sS'Action'
p1402
S'[ ClassName: android.widget.FrameLayout; Text: []; ContentDescription: null; ItemCount: -1; CurrentItemIndex: -1; IsEnabled: true; IsPassword: false; IsChecked: false; IsFullScreen: false; Scrollable: false; BeforeText: null; FromIndex: -1; ToIndex: -1; ScrollX: -1; ScrollY: -1; MaxScrollX: -1; MaxScrollY: -1; AddedCount: -1; RemovedCount: -1; ParcelableData: null ]'
p1403
sS'MovementGranularity'
p1404
g6
sa(dp1405
S'EventTime'
p1406
S'66680714'
p1407
sg4
L1449974799688L
sS'recordCount'
p1408
g6
sS'EventType'
p1409
S'TYPE_VIEW_SCROLLED'
p1410
sS'PackageName'
p1411
S'com.xp.tugele'
p1412
sS'OutBounds'
p1413
S'Rect(0, 50 - 720, 1280)'
p1414
sS'Action'
p1415
S'[ ClassName: android.support.v4.view.ViewPager; Text: []; ContentDescription: null; ItemCount: -1; CurrentItemIndex: -1; IsEnabled: true; IsPassword: false; IsChecked: false; IsFullScreen: false; Scrollable: false; BeforeText: null; FromIndex: -1; ToIndex: -1; ScrollX: -1; ScrollY: -1; MaxScrollX: -1; MaxScrollY: -1; AddedCount: -1; RemovedCount: -1; ParcelableData: null ]'
p1416
sS'MovementGranularity'
p1417
g6
sa(dp1418
S'EventTime'
p1419
S'66680876'
p1420
sg4
L1449974799843L
sS'recordCount'
p1421
g6
sS'EventType'
p1422
S'TYPE_WINDOW_CONTENT_CHANGED'
p1423
sS'PackageName'
p1424
S'com.xp.tugele'
p1425
sS'OutBounds'
p1426
S'Rect(0, 0 - 720, 1280)'
p1427
sS'Action'
p1428
S'[ ClassName: android.widget.FrameLayout; Text: []; ContentDescription: null; ItemCount: -1; CurrentItemIndex: -1; IsEnabled: true; IsPassword: false; IsChecked: false; IsFullScreen: false; Scrollable: false; BeforeText: null; FromIndex: -1; ToIndex: -1; ScrollX: -1; ScrollY: -1; MaxScrollX: -1; MaxScrollY: -1; AddedCount: -1; RemovedCount: -1; ParcelableData: null ]'
p1429
sS'MovementGranularity'
p1430
g6
sa(dp1431
S'EventTime'
p1432
S'66681031'
p1433
sg4
L1449974800009L
sS'recordCount'
p1434
g6
sS'EventType'
p1435
S'TYPE_WINDOW_CONTENT_CHANGED'
p1436
sS'PackageName'
p1437
S'com.xp.tugele'
p1438
sS'OutBounds'
p1439
S'Rect(0, 0 - 720, 1280)'
p1440
sS'Action'
p1441
S'[ ClassName: android.widget.FrameLayout; Text: []; ContentDescription: null; ItemCount: -1; CurrentItemIndex: -1; IsEnabled: true; IsPassword: false; IsChecked: false; IsFullScreen: false; Scrollable: false; BeforeText: null; FromIndex: -1; ToIndex: -1; ScrollX: -1; ScrollY: -1; MaxScrollX: -1; MaxScrollY: -1; AddedCount: -1; RemovedCount: -1; ParcelableData: null ]'
p1442
sS'MovementGranularity'
p1443
g6
sa(dp1444
S'EventTime'
p1445
S'66681075'
p1446
sg4
L1449974800042L
sS'recordCount'
p1447
g6
sS'EventType'
p1448
S'TYPE_VIEW_SCROLLED'
p1449
sS'PackageName'
p1450
S'com.xp.tugele'
p1451
sS'OutBounds'
p1452
S'Rect(0, 50 - 720, 1280)'
p1453
sS'Action'
p1454
S'[ ClassName: android.support.v4.view.ViewPager; Text: []; ContentDescription: null; ItemCount: -1; CurrentItemIndex: -1; IsEnabled: true; IsPassword: false; IsChecked: false; IsFullScreen: false; Scrollable: false; BeforeText: null; FromIndex: -1; ToIndex: -1; ScrollX: -1; ScrollY: -1; MaxScrollX: -1; MaxScrollY: -1; AddedCount: -1; RemovedCount: -1; ParcelableData: null ]'
p1455
sS'MovementGranularity'
p1456
g6
sa(dp1457
S'EventTime'
p1458
S'66681163'
p1459
sg4
L1449974800124L
sS'recordCount'
p1460
g6
sS'EventType'
p1461
S'TYPE_WINDOW_CONTENT_CHANGED'
p1462
sS'PackageName'
p1463
S'com.xp.tugele'
p1464
sS'OutBounds'
p1465
S'Rect(0, 0 - 720, 1280)'
p1466
sS'Action'
p1467
S'[ ClassName: android.widget.FrameLayout; Text: []; ContentDescription: null; ItemCount: -1; CurrentItemIndex: -1; IsEnabled: true; IsPassword: false; IsChecked: false; IsFullScreen: false; Scrollable: false; BeforeText: null; FromIndex: -1; ToIndex: -1; ScrollX: -1; ScrollY: -1; MaxScrollX: -1; MaxScrollY: -1; AddedCount: -1; RemovedCount: -1; ParcelableData: null ]'
p1468
sS'MovementGranularity'
p1469
g6
sa(dp1470
S'EventTime'
p1471
S'66681271'
p1472
sg4
L1449974800237L
sS'recordCount'
p1473
g6
sS'EventType'
p1474
S'TYPE_VIEW_SCROLLED'
p1475
sS'PackageName'
p1476
S'com.xp.tugele'
p1477
sS'OutBounds'
p1478
S'Rect(0, 50 - 720, 1280)'
p1479
sS'Action'
p1480
S'[ ClassName: android.support.v4.view.ViewPager; Text: []; ContentDescription: null; ItemCount: -1; CurrentItemIndex: -1; IsEnabled: true; IsPassword: false; IsChecked: false; IsFullScreen: false; Scrollable: false; BeforeText: null; FromIndex: -1; ToIndex: -1; ScrollX: -1; ScrollY: -1; MaxScrollX: -1; MaxScrollY: -1; AddedCount: -1; RemovedCount: -1; ParcelableData: null ]'
p1481
sS'MovementGranularity'
p1482
g6
sa(dp1483
S'EventTime'
p1484
S'66681437'
p1485
sg4
L1449974800404L
sS'recordCount'
p1486
g6
sS'EventType'
p1487
S'TYPE_WINDOW_CONTENT_CHANGED'
p1488
sS'PackageName'
p1489
S'com.xp.tugele'
p1490
sS'OutBounds'
p1491
S'Rect(0, 0 - 720, 1280)'
p1492
sS'Action'
p1493
S'[ ClassName: android.widget.FrameLayout; Text: []; ContentDescription: null; ItemCount: -1; CurrentItemIndex: -1; IsEnabled: true; IsPassword: false; IsChecked: false; IsFullScreen: false; Scrollable: false; BeforeText: null; FromIndex: -1; ToIndex: -1; ScrollX: -1; ScrollY: -1; MaxScrollX: -1; MaxScrollY: -1; AddedCount: -1; RemovedCount: -1; ParcelableData: null ]'
p1494
sS'MovementGranularity'
p1495
g6
sa(dp1496
S'EventTime'
p1497
S'66681470'
p1498
sg4
L1449974800454L
sS'recordCount'
p1499
g6
sS'EventType'
p1500
S'TYPE_VIEW_SCROLLED'
p1501
sS'PackageName'
p1502
S'com.xp.tugele'
p1503
sS'OutBounds'
p1504
S'Rect(0, 50 - 720, 1280)'
p1505
sS'Action'
p1506
S'[ ClassName: android.support.v4.view.ViewPager; Text: []; ContentDescription: null; ItemCount: -1; CurrentItemIndex: -1; IsEnabled: true; IsPassword: false; IsChecked: false; IsFullScreen: false; Scrollable: false; BeforeText: null; FromIndex: -1; ToIndex: -1; ScrollX: -1; ScrollY: -1; MaxScrollX: -1; MaxScrollY: -1; AddedCount: -1; RemovedCount: -1; ParcelableData: null ]'
p1507
sS'MovementGranularity'
p1508
g6
sa(dp1509
S'EventTime'
p1510
S'66681628'
p1511
sg4
L1449974800595L
sS'recordCount'
p1512
g6
sS'EventType'
p1513
S'TYPE_WINDOW_CONTENT_CHANGED'
p1514
sS'PackageName'
p1515
S'com.xp.tugele'
p1516
sS'OutBounds'
p1517
S'Rect(0, 0 - 720, 1280)'
p1518
sS'Action'
p1519
S'[ ClassName: android.widget.FrameLayout; Text: []; ContentDescription: null; ItemCount: -1; CurrentItemIndex: -1; IsEnabled: true; IsPassword: false; IsChecked: false; IsFullScreen: false; Scrollable: false; BeforeText: null; FromIndex: -1; ToIndex: -1; ScrollX: -1; ScrollY: -1; MaxScrollX: -1; MaxScrollY: -1; AddedCount: -1; RemovedCount: -1; ParcelableData: null ]'
p1520
sS'MovementGranularity'
p1521
g6
sa(dp1522
S'EventTime'
p1523
S'66681668'
p1524
sg4
L1449974800637L
sS'recordCount'
p1525
g6
sS'EventType'
p1526
S'TYPE_VIEW_SCROLLED'
p1527
sS'PackageName'
p1528
S'com.xp.tugele'
p1529
sS'OutBounds'
p1530
S'Rect(0, 50 - 720, 1280)'
p1531
sS'Action'
p1532
S'[ ClassName: android.support.v4.view.ViewPager; Text: []; ContentDescription: null; ItemCount: -1; CurrentItemIndex: -1; IsEnabled: true; IsPassword: false; IsChecked: false; IsFullScreen: false; Scrollable: false; BeforeText: null; FromIndex: -1; ToIndex: -1; ScrollX: -1; ScrollY: -1; MaxScrollX: -1; MaxScrollY: -1; AddedCount: -1; RemovedCount: -1; ParcelableData: null ]'
p1533
sS'MovementGranularity'
p1534
g6
sa(dp1535
S'EventTime'
p1536
S'66681826'
p1537
sg4
L1449974800797L
sS'recordCount'
p1538
g6
sS'EventType'
p1539
S'TYPE_WINDOW_CONTENT_CHANGED'
p1540
sS'PackageName'
p1541
S'com.xp.tugele'
p1542
sS'OutBounds'
p1543
S'Rect(0, 0 - 720, 1280)'
p1544
sS'Action'
p1545
S'[ ClassName: android.widget.FrameLayout; Text: []; ContentDescription: null; ItemCount: -1; CurrentItemIndex: -1; IsEnabled: true; IsPassword: false; IsChecked: false; IsFullScreen: false; Scrollable: false; BeforeText: null; FromIndex: -1; ToIndex: -1; ScrollX: -1; ScrollY: -1; MaxScrollX: -1; MaxScrollY: -1; AddedCount: -1; RemovedCount: -1; ParcelableData: null ]'
p1546
sS'MovementGranularity'
p1547
g6
sa(dp1548
S'EventTime'
p1549
S'66681865'
p1550
sg4
L1449974800831L
sS'recordCount'
p1551
g6
sS'EventType'
p1552
S'TYPE_VIEW_SCROLLED'
p1553
sS'PackageName'
p1554
S'com.xp.tugele'
p1555
sS'OutBounds'
p1556
S'Rect(0, 50 - 720, 1280)'
p1557
sS'Action'
p1558
S'[ ClassName: android.support.v4.view.ViewPager; Text: []; ContentDescription: null; ItemCount: -1; CurrentItemIndex: -1; IsEnabled: true; IsPassword: false; IsChecked: false; IsFullScreen: false; Scrollable: false; BeforeText: null; FromIndex: -1; ToIndex: -1; ScrollX: -1; ScrollY: -1; MaxScrollX: -1; MaxScrollY: -1; AddedCount: -1; RemovedCount: -1; ParcelableData: null ]'
p1559
sS'MovementGranularity'
p1560
g6
sa(dp1561
S'EventTime'
p1562
S'66682029'
p1563
sg4
L1449974800997L
sS'recordCount'
p1564
g6
sS'EventType'
p1565
S'TYPE_WINDOW_CONTENT_CHANGED'
p1566
sS'PackageName'
p1567
S'com.xp.tugele'
p1568
sS'OutBounds'
p1569
S'Rect(0, 0 - 720, 1280)'
p1570
sS'Action'
p1571
S'[ ClassName: android.widget.FrameLayout; Text: []; ContentDescription: null; ItemCount: -1; CurrentItemIndex: -1; IsEnabled: true; IsPassword: false; IsChecked: false; IsFullScreen: false; Scrollable: false; BeforeText: null; FromIndex: -1; ToIndex: -1; ScrollX: -1; ScrollY: -1; MaxScrollX: -1; MaxScrollY: -1; AddedCount: -1; RemovedCount: -1; ParcelableData: null ]'
p1572
sS'MovementGranularity'
p1573
g6
sa(dp1574
S'EventTime'
p1575
S'66682133'
p1576
sg4
L1449974801097L
sS'recordCount'
p1577
g6
sS'EventType'
p1578
S'TYPE_VIEW_SCROLLED'
p1579
sS'PackageName'
p1580
S'com.xp.tugele'
p1581
sS'OutBounds'
p1582
S'Rect(0, 50 - 720, 1280)'
p1583
sS'Action'
p1584
S'[ ClassName: android.support.v4.view.ViewPager; Text: []; ContentDescription: null; ItemCount: -1; CurrentItemIndex: -1; IsEnabled: true; IsPassword: false; IsChecked: false; IsFullScreen: false; Scrollable: false; BeforeText: null; FromIndex: -1; ToIndex: -1; ScrollX: -1; ScrollY: -1; MaxScrollX: -1; MaxScrollY: -1; AddedCount: -1; RemovedCount: -1; ParcelableData: null ]'
p1585
sS'MovementGranularity'
p1586
g6
sa(dp1587
S'EventTime'
p1588
S'66682229'
p1589
sg4
L1449974801195L
sS'recordCount'
p1590
g6
sS'EventType'
p1591
S'TYPE_WINDOW_CONTENT_CHANGED'
p1592
sS'PackageName'
p1593
S'com.xp.tugele'
p1594
sS'OutBounds'
p1595
S'Rect(0, 0 - 720, 1280)'
p1596
sS'Action'
p1597
S'[ ClassName: android.widget.FrameLayout; Text: []; ContentDescription: null; ItemCount: -1; CurrentItemIndex: -1; IsEnabled: true; IsPassword: false; IsChecked: false; IsFullScreen: false; Scrollable: false; BeforeText: null; FromIndex: -1; ToIndex: -1; ScrollX: -1; ScrollY: -1; MaxScrollX: -1; MaxScrollY: -1; AddedCount: -1; RemovedCount: -1; ParcelableData: null ]'
p1598
sS'MovementGranularity'
p1599
g6
sa(dp1600
S'EventTime'
p1601
S'66682260'
p1602
sg4
L1449974801228L
sS'recordCount'
p1603
g6
sS'EventType'
p1604
S'TYPE_VIEW_SCROLLED'
p1605
sS'PackageName'
p1606
S'com.xp.tugele'
p1607
sS'OutBounds'
p1608
S'Rect(0, 50 - 720, 1280)'
p1609
sS'Action'
p1610
S'[ ClassName: android.support.v4.view.ViewPager; Text: []; ContentDescription: null; ItemCount: -1; CurrentItemIndex: -1; IsEnabled: true; IsPassword: false; IsChecked: false; IsFullScreen: false; Scrollable: false; BeforeText: null; FromIndex: -1; ToIndex: -1; ScrollX: -1; ScrollY: -1; MaxScrollX: -1; MaxScrollY: -1; AddedCount: -1; RemovedCount: -1; ParcelableData: null ]'
p1611
sS'MovementGranularity'
p1612
g6
sa(dp1613
S'EventTime'
p1614
S'66682422'
p1615
sg4
L1449974801402L
sS'recordCount'
p1616
g6
sS'EventType'
p1617
S'TYPE_WINDOW_CONTENT_CHANGED'
p1618
sS'PackageName'
p1619
S'com.xp.tugele'
p1620
sS'OutBounds'
p1621
S'Rect(0, 0 - 720, 1280)'
p1622
sS'Action'
p1623
S'[ ClassName: android.widget.FrameLayout; Text: []; ContentDescription: null; ItemCount: -1; CurrentItemIndex: -1; IsEnabled: true; IsPassword: false; IsChecked: false; IsFullScreen: false; Scrollable: false; BeforeText: null; FromIndex: -1; ToIndex: -1; ScrollX: -1; ScrollY: -1; MaxScrollX: -1; MaxScrollY: -1; AddedCount: -1; RemovedCount: -1; ParcelableData: null ]'
p1624
sS'MovementGranularity'
p1625
g6
sa(dp1626
S'EventTime'
p1627
S'66682474'
p1628
sg4
L1449974801450L
sS'recordCount'
p1629
g6
sS'EventType'
p1630
S'TYPE_VIEW_SCROLLED'
p1631
sS'PackageName'
p1632
S'com.xp.tugele'
p1633
sS'OutBounds'
p1634
S'Rect(0, 50 - 720, 1280)'
p1635
sS'Action'
p1636
S'[ ClassName: android.support.v4.view.ViewPager; Text: []; ContentDescription: null; ItemCount: -1; CurrentItemIndex: -1; IsEnabled: true; IsPassword: false; IsChecked: false; IsFullScreen: false; Scrollable: false; BeforeText: null; FromIndex: -1; ToIndex: -1; ScrollX: -1; ScrollY: -1; MaxScrollX: -1; MaxScrollY: -1; AddedCount: -1; RemovedCount: -1; ParcelableData: null ]'
p1637
sS'MovementGranularity'
p1638
g6
sa(dp1639
S'EventTime'
p1640
S'66682593'
p1641
sg4
L1449974801557L
sS'recordCount'
p1642
g6
sS'EventType'
p1643
S'TYPE_VIEW_SCROLLED'
p1644
sS'PackageName'
p1645
S'com.xp.tugele'
p1646
sS'OutBounds'
p1647
S'Rect(0, 50 - 720, 1280)'
p1648
sS'Action'
p1649
S'[ ClassName: android.support.v4.view.ViewPager; Text: []; ContentDescription: null; ItemCount: -1; CurrentItemIndex: -1; IsEnabled: true; IsPassword: false; IsChecked: false; IsFullScreen: false; Scrollable: false; BeforeText: null; FromIndex: -1; ToIndex: -1; ScrollX: -1; ScrollY: -1; MaxScrollX: -1; MaxScrollY: -1; AddedCount: -1; RemovedCount: -1; ParcelableData: null ]'
p1650
sS'MovementGranularity'
p1651
g6
sa(dp1652
S'EventTime'
p1653
S'66682608'
p1654
sg4
L1449974801595L
sS'recordCount'
p1655
g6
sS'EventType'
p1656
S'TYPE_WINDOW_CONTENT_CHANGED'
p1657
sS'PackageName'
p1658
S'com.xp.tugele'
p1659
sS'OutBounds'
p1660
S'Rect(0, 0 - 720, 1280)'
p1661
sS'Action'
p1662
S'[ ClassName: android.widget.FrameLayout; Text: []; ContentDescription: null; ItemCount: -1; CurrentItemIndex: -1; IsEnabled: true; IsPassword: false; IsChecked: false; IsFullScreen: false; Scrollable: false; BeforeText: null; FromIndex: -1; ToIndex: -1; ScrollX: -1; ScrollY: -1; MaxScrollX: -1; MaxScrollY: -1; AddedCount: -1; RemovedCount: -1; ParcelableData: null ]'
p1663
sS'MovementGranularity'
p1664
g6
sa(dp1665
S'EventTime'
p1666
S'66682705'
p1667
sg4
L1449974801670L
sS'recordCount'
p1668
g6
sS'EventType'
p1669
S'TYPE_VIEW_SCROLLED'
p1670
sS'PackageName'
p1671
S'com.xp.tugele'
p1672
sS'OutBounds'
p1673
S'Rect(0, 50 - 720, 1280)'
p1674
sS'Action'
p1675
S'[ ClassName: android.support.v4.view.ViewPager; Text: []; ContentDescription: null; ItemCount: -1; CurrentItemIndex: -1; IsEnabled: true; IsPassword: false; IsChecked: false; IsFullScreen: false; Scrollable: false; BeforeText: null; FromIndex: -1; ToIndex: -1; ScrollX: -1; ScrollY: -1; MaxScrollX: -1; MaxScrollY: -1; AddedCount: -1; RemovedCount: -1; ParcelableData: null ]'
p1676
sS'MovementGranularity'
p1677
g6
sa(dp1678
S'EventTime'
p1679
S'66682827'
p1680
sg4
L1449974801789L
sS'recordCount'
p1681
g6
sS'EventType'
p1682
S'TYPE_WINDOW_CONTENT_CHANGED'
p1683
sS'PackageName'
p1684
S'com.xp.tugele'
p1685
sS'OutBounds'
p1686
S'Rect(0, 0 - 720, 1280)'
p1687
sS'Action'
p1688
S'[ ClassName: android.widget.FrameLayout; Text: []; ContentDescription: null; ItemCount: -1; CurrentItemIndex: -1; IsEnabled: true; IsPassword: false; IsChecked: false; IsFullScreen: false; Scrollable: false; BeforeText: null; FromIndex: -1; ToIndex: -1; ScrollX: -1; ScrollY: -1; MaxScrollX: -1; MaxScrollY: -1; AddedCount: -1; RemovedCount: -1; ParcelableData: null ]'
p1689
sS'MovementGranularity'
p1690
g6
sa(dp1691
S'EventTime'
p1692
S'66682837'
p1693
sg4
L1449974802181L
sS'recordCount'
p1694
g6
sS'EventType'
p1695
S'TYPE_VIEW_SCROLLED'
p1696
sS'PackageName'
p1697
S'com.xp.tugele'
p1698
sS'OutBounds'
p1699
S'Rect(0, 50 - 720, 1280)'
p1700
sS'Action'
p1701
S'[ ClassName: android.support.v4.view.ViewPager; Text: []; ContentDescription: null; ItemCount: -1; CurrentItemIndex: -1; IsEnabled: true; IsPassword: false; IsChecked: false; IsFullScreen: false; Scrollable: false; BeforeText: null; FromIndex: -1; ToIndex: -1; ScrollX: -1; ScrollY: -1; MaxScrollX: -1; MaxScrollY: -1; AddedCount: -1; RemovedCount: -1; ParcelableData: null ]'
p1702
sS'MovementGranularity'
p1703
g6
sa(dp1704
S'EventTime'
p1705
S'66682948'
p1706
sg4
L1449974802187L
sS'recordCount'
p1707
g6
sS'EventType'
p1708
S'TYPE_VIEW_SCROLLED'
p1709
sS'PackageName'
p1710
S'com.xp.tugele'
p1711
sS'OutBounds'
p1712
S'Rect(0, 50 - 720, 1280)'
p1713
sS'Action'
p1714
S'[ ClassName: android.support.v4.view.ViewPager; Text: []; ContentDescription: null; ItemCount: -1; CurrentItemIndex: -1; IsEnabled: true; IsPassword: false; IsChecked: false; IsFullScreen: false; Scrollable: false; BeforeText: null; FromIndex: -1; ToIndex: -1; ScrollX: -1; ScrollY: -1; MaxScrollX: -1; MaxScrollY: -1; AddedCount: -1; RemovedCount: -1; ParcelableData: null ]'
p1715
sS'MovementGranularity'
p1716
g6
sa(dp1717
S'EventTime'
p1718
S'66683024'
p1719
sg4
L1449974802192L
sS'recordCount'
p1720
g6
sS'EventType'
p1721
S'TYPE_WINDOW_CONTENT_CHANGED'
p1722
sS'PackageName'
p1723
S'com.xp.tugele'
p1724
sS'OutBounds'
p1725
S'Rect(0, 0 - 720, 1280)'
p1726
sS'Action'
p1727
S'[ ClassName: android.widget.FrameLayout; Text: []; ContentDescription: null; ItemCount: -1; CurrentItemIndex: -1; IsEnabled: true; IsPassword: false; IsChecked: false; IsFullScreen: false; Scrollable: false; BeforeText: null; FromIndex: -1; ToIndex: -1; ScrollX: -1; ScrollY: -1; MaxScrollX: -1; MaxScrollY: -1; AddedCount: -1; RemovedCount: -1; ParcelableData: null ]'
p1728
sS'MovementGranularity'
p1729
g6
sa(dp1730
S'EventTime'
p1731
S'66683256'
p1732
sg4
L1449974802222L
sS'recordCount'
p1733
g6
sS'EventType'
p1734
S'TYPE_VIEW_SCROLLED'
p1735
sS'PackageName'
p1736
S'com.xp.tugele'
p1737
sS'OutBounds'
p1738
S'Rect(0, 50 - 720, 1280)'
p1739
sS'Action'
p1740
S'[ ClassName: android.support.v4.view.ViewPager; Text: []; ContentDescription: null; ItemCount: -1; CurrentItemIndex: -1; IsEnabled: true; IsPassword: false; IsChecked: false; IsFullScreen: false; Scrollable: false; BeforeText: null; FromIndex: -1; ToIndex: -1; ScrollX: -1; ScrollY: -1; MaxScrollX: -1; MaxScrollY: -1; AddedCount: -1; RemovedCount: -1; ParcelableData: null ]'
p1741
sS'MovementGranularity'
p1742
g6
sa(dp1743
S'EventTime'
p1744
S'66683361'
p1745
sg4
L1449974802324L
sS'recordCount'
p1746
g6
sS'EventType'
p1747
S'TYPE_VIEW_SCROLLED'
p1748
sS'PackageName'
p1749
S'com.xp.tugele'
p1750
sS'OutBounds'
p1751
S'Rect(0, 50 - 720, 1280)'
p1752
sS'Action'
p1753
S'[ ClassName: android.support.v4.view.ViewPager; Text: []; ContentDescription: null; ItemCount: -1; CurrentItemIndex: -1; IsEnabled: true; IsPassword: false; IsChecked: false; IsFullScreen: false; Scrollable: false; BeforeText: null; FromIndex: -1; ToIndex: -1; ScrollX: -1; ScrollY: -1; MaxScrollX: -1; MaxScrollY: -1; AddedCount: -1; RemovedCount: -1; ParcelableData: null ]'
p1754
sS'MovementGranularity'
p1755
g6
sa(dp1756
S'EventTime'
p1757
S'66683382'
p1758
sg4
L1449974802350L
sS'recordCount'
p1759
g6
sS'EventType'
p1760
S'TYPE_WINDOW_CONTENT_CHANGED'
p1761
sS'PackageName'
p1762
S'com.xp.tugele'
p1763
sS'OutBounds'
p1764
S'Rect(0, 0 - 720, 1280)'
p1765
sS'Action'
p1766
S'[ ClassName: android.widget.FrameLayout; Text: []; ContentDescription: null; ItemCount: -1; CurrentItemIndex: -1; IsEnabled: true; IsPassword: false; IsChecked: false; IsFullScreen: false; Scrollable: false; BeforeText: null; FromIndex: -1; ToIndex: -1; ScrollX: -1; ScrollY: -1; MaxScrollX: -1; MaxScrollY: -1; AddedCount: -1; RemovedCount: -1; ParcelableData: null ]'
p1767
sS'MovementGranularity'
p1768
g6
sa(dp1769
S'EventTime'
p1770
S'66683475'
p1771
sg4
L1449974802437L
sS'recordCount'
p1772
g6
sS'EventType'
p1773
S'TYPE_VIEW_SCROLLED'
p1774
sS'PackageName'
p1775
S'com.xp.tugele'
p1776
sS'OutBounds'
p1777
S'Rect(0, 50 - 720, 1280)'
p1778
sS'Action'
p1779
S'[ ClassName: android.support.v4.view.ViewPager; Text: []; ContentDescription: null; ItemCount: -1; CurrentItemIndex: -1; IsEnabled: true; IsPassword: false; IsChecked: false; IsFullScreen: false; Scrollable: false; BeforeText: null; FromIndex: -1; ToIndex: -1; ScrollX: -1; ScrollY: -1; MaxScrollX: -1; MaxScrollY: -1; AddedCount: -1; RemovedCount: -1; ParcelableData: null ]'
p1780
sS'MovementGranularity'
p1781
g6
sa(dp1782
S'EventTime'
p1783
S'66683504'
p1784
sg4
L1449974802471L
sS'recordCount'
p1785
g6
sS'EventType'
p1786
S'TYPE_WINDOW_CONTENT_CHANGED'
p1787
sS'PackageName'
p1788
S'com.xp.tugele'
p1789
sS'OutBounds'
p1790
S'Rect(0, 0 - 720, 1280)'
p1791
sS'Action'
p1792
S'[ ClassName: android.widget.FrameLayout; Text: []; ContentDescription: null; ItemCount: -1; CurrentItemIndex: -1; IsEnabled: true; IsPassword: false; IsChecked: false; IsFullScreen: false; Scrollable: false; BeforeText: null; FromIndex: -1; ToIndex: -1; ScrollX: -1; ScrollY: -1; MaxScrollX: -1; MaxScrollY: -1; AddedCount: -1; RemovedCount: -1; ParcelableData: null ]'
p1793
sS'MovementGranularity'
p1794
g6
sa(dp1795
S'EventTime'
p1796
S'66683625'
p1797
sg4
L1449974802595L
sS'recordCount'
p1798
g6
sS'EventType'
p1799
S'TYPE_VIEW_SCROLLED'
p1800
sS'PackageName'
p1801
S'com.xp.tugele'
p1802
sS'OutBounds'
p1803
S'Rect(0, 50 - 720, 1280)'
p1804
sS'Action'
p1805
S'[ ClassName: android.support.v4.view.ViewPager; Text: []; ContentDescription: null; ItemCount: -1; CurrentItemIndex: -1; IsEnabled: true; IsPassword: false; IsChecked: false; IsFullScreen: false; Scrollable: false; BeforeText: null; FromIndex: -1; ToIndex: -1; ScrollX: -1; ScrollY: -1; MaxScrollX: -1; MaxScrollY: -1; AddedCount: -1; RemovedCount: -1; ParcelableData: null ]'
p1806
sS'MovementGranularity'
p1807
g6
sa(dp1808
S'EventTime'
p1809
S'66683626'
p1810
sg4
L1449974802611L
sS'recordCount'
p1811
g6
sS'EventType'
p1812
S'TYPE_WINDOW_CONTENT_CHANGED'
p1813
sS'PackageName'
p1814
S'com.xp.tugele'
p1815
sS'OutBounds'
p1816
S'Rect(0, 0 - 720, 1280)'
p1817
sS'Action'
p1818
S'[ ClassName: android.widget.FrameLayout; Text: []; ContentDescription: null; ItemCount: -1; CurrentItemIndex: -1; IsEnabled: true; IsPassword: false; IsChecked: false; IsFullScreen: false; Scrollable: false; BeforeText: null; FromIndex: -1; ToIndex: -1; ScrollX: -1; ScrollY: -1; MaxScrollX: -1; MaxScrollY: -1; AddedCount: -1; RemovedCount: -1; ParcelableData: null ]'
p1819
sS'MovementGranularity'
p1820
g6
sa(dp1821
S'EventTime'
p1822
S'66683745'
p1823
sg4
L1449974802712L
sS'recordCount'
p1824
g6
sS'EventType'
p1825
S'TYPE_VIEW_SCROLLED'
p1826
sS'PackageName'
p1827
S'com.xp.tugele'
p1828
sS'OutBounds'
p1829
S'Rect(0, 50 - 720, 1280)'
p1830
sS'Action'
p1831
S'[ ClassName: android.support.v4.view.ViewPager; Text: []; ContentDescription: null; ItemCount: -1; CurrentItemIndex: -1; IsEnabled: true; IsPassword: false; IsChecked: false; IsFullScreen: false; Scrollable: false; BeforeText: null; FromIndex: -1; ToIndex: -1; ScrollX: -1; ScrollY: -1; MaxScrollX: -1; MaxScrollY: -1; AddedCount: -1; RemovedCount: -1; ParcelableData: null ]'
p1832
sS'MovementGranularity'
p1833
g6
sa(dp1834
S'EventTime'
p1835
S'66683780'
p1836
sg4
L1449974802748L
sS'recordCount'
p1837
g6
sS'EventType'
p1838
S'TYPE_WINDOW_CONTENT_CHANGED'
p1839
sS'PackageName'
p1840
S'com.xp.tugele'
p1841
sS'OutBounds'
p1842
S'Rect(0, 0 - 720, 1280)'
p1843
sS'Action'
p1844
S'[ ClassName: android.widget.FrameLayout; Text: []; ContentDescription: null; ItemCount: -1; CurrentItemIndex: -1; IsEnabled: true; IsPassword: false; IsChecked: false; IsFullScreen: false; Scrollable: false; BeforeText: null; FromIndex: -1; ToIndex: -1; ScrollX: -1; ScrollY: -1; MaxScrollX: -1; MaxScrollY: -1; AddedCount: -1; RemovedCount: -1; ParcelableData: null ]'
p1845
sS'MovementGranularity'
p1846
g6
sa(dp1847
S'EventTime'
p1848
S'66683883'
p1849
sg4
L1449974802863L
sS'recordCount'
p1850
g6
sS'EventType'
p1851
S'TYPE_VIEW_SCROLLED'
p1852
sS'PackageName'
p1853
S'com.xp.tugele'
p1854
sS'OutBounds'
p1855
S'Rect(0, 50 - 720, 1280)'
p1856
sS'Action'
p1857
S'[ ClassName: android.support.v4.view.ViewPager; Text: []; ContentDescription: null; ItemCount: -1; CurrentItemIndex: -1; IsEnabled: true; IsPassword: false; IsChecked: false; IsFullScreen: false; Scrollable: false; BeforeText: null; FromIndex: -1; ToIndex: -1; ScrollX: -1; ScrollY: -1; MaxScrollX: -1; MaxScrollY: -1; AddedCount: -1; RemovedCount: -1; ParcelableData: null ]'
p1858
sS'MovementGranularity'
p1859
g6
sa(dp1860
S'EventTime'
p1861
S'66683977'
p1862
sg4
L1449974802944L
sS'recordCount'
p1863
g6
sS'EventType'
p1864
S'TYPE_WINDOW_CONTENT_CHANGED'
p1865
sS'PackageName'
p1866
S'com.xp.tugele'
p1867
sS'OutBounds'
p1868
S'Rect(0, 0 - 720, 1280)'
p1869
sS'Action'
p1870
S'[ ClassName: android.widget.FrameLayout; Text: []; ContentDescription: null; ItemCount: -1; CurrentItemIndex: -1; IsEnabled: true; IsPassword: false; IsChecked: false; IsFullScreen: false; Scrollable: false; BeforeText: null; FromIndex: -1; ToIndex: -1; ScrollX: -1; ScrollY: -1; MaxScrollX: -1; MaxScrollY: -1; AddedCount: -1; RemovedCount: -1; ParcelableData: null ]'
p1871
sS'MovementGranularity'
p1872
g6
sa(dp1873
S'EventTime'
p1874
S'66684018'
p1875
sg4
L1449974802985L
sS'recordCount'
p1876
g6
sS'EventType'
p1877
S'TYPE_VIEW_SCROLLED'
p1878
sS'PackageName'
p1879
S'com.xp.tugele'
p1880
sS'OutBounds'
p1881
S'Rect(0, 50 - 720, 1280)'
p1882
sS'Action'
p1883
S'[ ClassName: android.support.v4.view.ViewPager; Text: []; ContentDescription: null; ItemCount: -1; CurrentItemIndex: -1; IsEnabled: true; IsPassword: false; IsChecked: false; IsFullScreen: false; Scrollable: false; BeforeText: null; FromIndex: -1; ToIndex: -1; ScrollX: -1; ScrollY: -1; MaxScrollX: -1; MaxScrollY: -1; AddedCount: -1; RemovedCount: -1; ParcelableData: null ]'
p1884
sS'MovementGranularity'
p1885
g6
sa(dp1886
S'EventTime'
p1887
S'66684103'
p1888
sg4
L1449974803070L
sS'recordCount'
p1889
g6
sS'EventType'
p1890
S'TYPE_WINDOW_CONTENT_CHANGED'
p1891
sS'PackageName'
p1892
S'com.xp.tugele'
p1893
sS'OutBounds'
p1894
S'Rect(0, 0 - 720, 1280)'
p1895
sS'Action'
p1896
S'[ ClassName: android.widget.FrameLayout; Text: []; ContentDescription: null; ItemCount: -1; CurrentItemIndex: -1; IsEnabled: true; IsPassword: false; IsChecked: false; IsFullScreen: false; Scrollable: false; BeforeText: null; FromIndex: -1; ToIndex: -1; ScrollX: -1; ScrollY: -1; MaxScrollX: -1; MaxScrollY: -1; AddedCount: -1; RemovedCount: -1; ParcelableData: null ]'
p1897
sS'MovementGranularity'
p1898
g6
sa(dp1899
S'EventTime'
p1900
S'66684200'
p1901
sg4
L1449974803167L
sS'recordCount'
p1902
g6
sS'EventType'
p1903
S'TYPE_VIEW_SCROLLED'
p1904
sS'PackageName'
p1905
S'com.xp.tugele'
p1906
sS'OutBounds'
p1907
S'Rect(0, 50 - 720, 1280)'
p1908
sS'Action'
p1909
S'[ ClassName: android.support.v4.view.ViewPager; Text: []; ContentDescription: null; ItemCount: -1; CurrentItemIndex: -1; IsEnabled: true; IsPassword: false; IsChecked: false; IsFullScreen: false; Scrollable: false; BeforeText: null; FromIndex: -1; ToIndex: -1; ScrollX: -1; ScrollY: -1; MaxScrollX: -1; MaxScrollY: -1; AddedCount: -1; RemovedCount: -1; ParcelableData: null ]'
p1910
sS'MovementGranularity'
p1911
g6
sa(dp1912
S'EventTime'
p1913
S'66684316'
p1914
sg4
L1449974803345L
sS'recordCount'
p1915
g6
sS'EventType'
p1916
S'TYPE_VIEW_SCROLLED'
p1917
sS'PackageName'
p1918
S'com.xp.tugele'
p1919
sS'OutBounds'
p1920
S'Rect(0, 50 - 720, 1280)'
p1921
sS'Action'
p1922
S'[ ClassName: android.support.v4.view.ViewPager; Text: []; ContentDescription: null; ItemCount: -1; CurrentItemIndex: -1; IsEnabled: true; IsPassword: false; IsChecked: false; IsFullScreen: false; Scrollable: false; BeforeText: null; FromIndex: -1; ToIndex: -1; ScrollX: -1; ScrollY: -1; MaxScrollX: -1; MaxScrollY: -1; AddedCount: -1; RemovedCount: -1; ParcelableData: null ]'
p1923
sS'MovementGranularity'
p1924
g6
sa(dp1925
S'EventTime'
p1926
S'66684369'
p1927
sg4
L1449974803356L
sS'recordCount'
p1928
g6
sS'EventType'
p1929
S'TYPE_WINDOW_CONTENT_CHANGED'
p1930
sS'PackageName'
p1931
S'com.xp.tugele'
p1932
sS'OutBounds'
p1933
S'Rect(0, 0 - 720, 1280)'
p1934
sS'Action'
p1935
S'[ ClassName: android.widget.FrameLayout; Text: []; ContentDescription: null; ItemCount: -1; CurrentItemIndex: -1; IsEnabled: true; IsPassword: false; IsChecked: false; IsFullScreen: false; Scrollable: false; BeforeText: null; FromIndex: -1; ToIndex: -1; ScrollX: -1; ScrollY: -1; MaxScrollX: -1; MaxScrollY: -1; AddedCount: -1; RemovedCount: -1; ParcelableData: null ]'
p1936
sS'MovementGranularity'
p1937
g6
sa(dp1938
S'EventTime'
p1939
S'66684485'
p1940
sg4
L1449974803450L
sS'recordCount'
p1941
g6
sS'EventType'
p1942
S'TYPE_VIEW_SCROLLED'
p1943
sS'PackageName'
p1944
S'com.xp.tugele'
p1945
sS'OutBounds'
p1946
S'Rect(0, 50 - 720, 1280)'
p1947
sS'Action'
p1948
S'[ ClassName: android.support.v4.view.ViewPager; Text: []; ContentDescription: null; ItemCount: -1; CurrentItemIndex: -1; IsEnabled: true; IsPassword: false; IsChecked: false; IsFullScreen: false; Scrollable: false; BeforeText: null; FromIndex: -1; ToIndex: -1; ScrollX: -1; ScrollY: -1; MaxScrollX: -1; MaxScrollY: -1; AddedCount: -1; RemovedCount: -1; ParcelableData: null ]'
p1949
sS'MovementGranularity'
p1950
g6
sa(dp1951
S'EventTime'
p1952
S'66684579'
p1953
sg4
L1449974803547L
sS'recordCount'
p1954
g6
sS'EventType'
p1955
S'TYPE_WINDOW_CONTENT_CHANGED'
p1956
sS'PackageName'
p1957
S'com.xp.tugele'
p1958
sS'OutBounds'
p1959
S'Rect(0, 0 - 720, 1280)'
p1960
sS'Action'
p1961
S'[ ClassName: android.widget.FrameLayout; Text: []; ContentDescription: null; ItemCount: -1; CurrentItemIndex: -1; IsEnabled: true; IsPassword: false; IsChecked: false; IsFullScreen: false; Scrollable: false; BeforeText: null; FromIndex: -1; ToIndex: -1; ScrollX: -1; ScrollY: -1; MaxScrollX: -1; MaxScrollY: -1; AddedCount: -1; RemovedCount: -1; ParcelableData: null ]'
p1962
sS'MovementGranularity'
p1963
g6
sa(dp1964
S'EventTime'
p1965
S'66684730'
p1966
sg4
L1449974803695L
sS'recordCount'
p1967
g6
sS'EventType'
p1968
S'TYPE_WINDOW_CONTENT_CHANGED'
p1969
sS'PackageName'
p1970
S'com.xp.tugele'
p1971
sS'OutBounds'
p1972
S'Rect(0, 0 - 720, 1280)'
p1973
sS'Action'
p1974
S'[ ClassName: android.widget.FrameLayout; Text: []; ContentDescription: null; ItemCount: -1; CurrentItemIndex: -1; IsEnabled: true; IsPassword: false; IsChecked: false; IsFullScreen: false; Scrollable: false; BeforeText: null; FromIndex: -1; ToIndex: -1; ScrollX: -1; ScrollY: -1; MaxScrollX: -1; MaxScrollY: -1; AddedCount: -1; RemovedCount: -1; ParcelableData: null ]'
p1975
sS'MovementGranularity'
p1976
g6
sa(dp1977
S'EventTime'
p1978
S'66684775'
p1979
sg4
L1449974803754L
sS'recordCount'
p1980
g6
sS'EventType'
p1981
S'TYPE_VIEW_SCROLLED'
p1982
sS'PackageName'
p1983
S'com.xp.tugele'
p1984
sS'OutBounds'
p1985
S'Rect(0, 50 - 720, 1280)'
p1986
sS'Action'
p1987
S'[ ClassName: android.support.v4.view.ViewPager; Text: []; ContentDescription: null; ItemCount: -1; CurrentItemIndex: -1; IsEnabled: true; IsPassword: false; IsChecked: false; IsFullScreen: false; Scrollable: false; BeforeText: null; FromIndex: -1; ToIndex: -1; ScrollX: -1; ScrollY: -1; MaxScrollX: -1; MaxScrollY: -1; AddedCount: -1; RemovedCount: -1; ParcelableData: null ]'
p1988
sS'MovementGranularity'
p1989
g6
sa(dp1990
S'EventTime'
p1991
S'66684896'
p1992
sg4
L1449974803862L
sS'recordCount'
p1993
g6
sS'EventType'
p1994
S'TYPE_VIEW_SCROLLED'
p1995
sS'PackageName'
p1996
S'com.xp.tugele'
p1997
sS'OutBounds'
p1998
S'Rect(0, 50 - 720, 1280)'
p1999
sS'Action'
p2000
S'[ ClassName: android.support.v4.view.ViewPager; Text: []; ContentDescription: null; ItemCount: -1; CurrentItemIndex: -1; IsEnabled: true; IsPassword: false; IsChecked: false; IsFullScreen: false; Scrollable: false; BeforeText: null; FromIndex: -1; ToIndex: -1; ScrollX: -1; ScrollY: -1; MaxScrollX: -1; MaxScrollY: -1; AddedCount: -1; RemovedCount: -1; ParcelableData: null ]'
p2001
sS'MovementGranularity'
p2002
g6
sa(dp2003
S'EventTime'
p2004
S'66685018'
p2005
sg4
L1449974803984L
sS'recordCount'
p2006
g6
sS'EventType'
p2007
S'TYPE_VIEW_SCROLLED'
p2008
sS'PackageName'
p2009
S'com.xp.tugele'
p2010
sS'OutBounds'
p2011
S'Rect(0, 50 - 720, 1280)'
p2012
sS'Action'
p2013
S'[ ClassName: android.support.v4.view.ViewPager; Text: []; ContentDescription: null; ItemCount: -1; CurrentItemIndex: -1; IsEnabled: true; IsPassword: false; IsChecked: false; IsFullScreen: false; Scrollable: false; BeforeText: null; FromIndex: -1; ToIndex: -1; ScrollX: -1; ScrollY: -1; MaxScrollX: -1; MaxScrollY: -1; AddedCount: -1; RemovedCount: -1; ParcelableData: null ]'
p2014
sS'MovementGranularity'
p2015
g6
sa(dp2016
S'EventTime'
p2017
S'66685130'
p2018
sg4
L1449974804099L
sS'recordCount'
p2019
g6
sS'EventType'
p2020
S'TYPE_WINDOW_CONTENT_CHANGED'
p2021
sS'PackageName'
p2022
S'com.xp.tugele'
p2023
sS'OutBounds'
p2024
S'Rect(0, 0 - 720, 1280)'
p2025
sS'Action'
p2026
S'[ ClassName: android.widget.FrameLayout; Text: []; ContentDescription: null; ItemCount: -1; CurrentItemIndex: -1; IsEnabled: true; IsPassword: false; IsChecked: false; IsFullScreen: false; Scrollable: false; BeforeText: null; FromIndex: -1; ToIndex: -1; ScrollX: -1; ScrollY: -1; MaxScrollX: -1; MaxScrollY: -1; AddedCount: -1; RemovedCount: -1; ParcelableData: null ]'
p2027
sS'MovementGranularity'
p2028
g6
sa(dp2029
S'EventTime'
p2030
S'66685169'
p2031
sg4
L1449974804135L
sS'recordCount'
p2032
g6
sS'EventType'
p2033
S'TYPE_VIEW_SCROLLED'
p2034
sS'PackageName'
p2035
S'com.xp.tugele'
p2036
sS'OutBounds'
p2037
S'Rect(0, 50 - 720, 1280)'
p2038
sS'Action'
p2039
S'[ ClassName: android.support.v4.view.ViewPager; Text: []; ContentDescription: null; ItemCount: -1; CurrentItemIndex: -1; IsEnabled: true; IsPassword: false; IsChecked: false; IsFullScreen: false; Scrollable: false; BeforeText: null; FromIndex: -1; ToIndex: -1; ScrollX: -1; ScrollY: -1; MaxScrollX: -1; MaxScrollY: -1; AddedCount: -1; RemovedCount: -1; ParcelableData: null ]'
p2040
sS'MovementGranularity'
p2041
g6
sa(dp2042
S'EventTime'
p2043
S'66685361'
p2044
sg4
L1449974804332L
sS'recordCount'
p2045
g6
sS'EventType'
p2046
S'TYPE_VIEW_SCROLLED'
p2047
sS'PackageName'
p2048
S'com.xp.tugele'
p2049
sS'OutBounds'
p2050
S'Rect(0, 50 - 720, 1280)'
p2051
sS'Action'
p2052
S'[ ClassName: android.support.v4.view.ViewPager; Text: []; ContentDescription: null; ItemCount: -1; CurrentItemIndex: -1; IsEnabled: true; IsPassword: false; IsChecked: false; IsFullScreen: false; Scrollable: false; BeforeText: null; FromIndex: -1; ToIndex: -1; ScrollX: -1; ScrollY: -1; MaxScrollX: -1; MaxScrollY: -1; AddedCount: -1; RemovedCount: -1; ParcelableData: null ]'
p2053
sS'MovementGranularity'
p2054
g6
sa(dp2055
S'EventTime'
p2056
S'66685471'
p2057
sg4
L1449974804431L
sS'recordCount'
p2058
g6
sS'EventType'
p2059
S'TYPE_VIEW_SCROLLED'
p2060
sS'PackageName'
p2061
S'com.xp.tugele'
p2062
sS'OutBounds'
p2063
S'Rect(0, 50 - 720, 1280)'
p2064
sS'Action'
p2065
S'[ ClassName: android.support.v4.view.ViewPager; Text: []; ContentDescription: null; ItemCount: -1; CurrentItemIndex: -1; IsEnabled: true; IsPassword: false; IsChecked: false; IsFullScreen: false; Scrollable: false; BeforeText: null; FromIndex: -1; ToIndex: -1; ScrollX: -1; ScrollY: -1; MaxScrollX: -1; MaxScrollY: -1; AddedCount: -1; RemovedCount: -1; ParcelableData: null ]'
p2066
sS'MovementGranularity'
p2067
g6
sa(dp2068
S'EventTime'
p2069
S'66685514'
p2070
sg4
L1449974804494L
sS'recordCount'
p2071
g6
sS'EventType'
p2072
S'TYPE_WINDOW_CONTENT_CHANGED'
p2073
sS'PackageName'
p2074
S'com.xp.tugele'
p2075
sS'OutBounds'
p2076
S'Rect(0, 0 - 720, 1280)'
p2077
sS'Action'
p2078
S'[ ClassName: android.widget.FrameLayout; Text: []; ContentDescription: null; ItemCount: -1; CurrentItemIndex: -1; IsEnabled: true; IsPassword: false; IsChecked: false; IsFullScreen: false; Scrollable: false; BeforeText: null; FromIndex: -1; ToIndex: -1; ScrollX: -1; ScrollY: -1; MaxScrollX: -1; MaxScrollY: -1; AddedCount: -1; RemovedCount: -1; ParcelableData: null ]'
p2079
sS'MovementGranularity'
p2080
g6
sa(dp2081
S'EventTime'
p2082
S'66685579'
p2083
sg4
L1449974804544L
sS'recordCount'
p2084
g6
sS'EventType'
p2085
S'TYPE_VIEW_SCROLLED'
p2086
sS'PackageName'
p2087
S'com.xp.tugele'
p2088
sS'OutBounds'
p2089
S'Rect(0, 50 - 720, 1280)'
p2090
sS'Action'
p2091
S'[ ClassName: android.support.v4.view.ViewPager; Text: []; ContentDescription: null; ItemCount: -1; CurrentItemIndex: -1; IsEnabled: true; IsPassword: false; IsChecked: false; IsFullScreen: false; Scrollable: false; BeforeText: null; FromIndex: -1; ToIndex: -1; ScrollX: -1; ScrollY: -1; MaxScrollX: -1; MaxScrollY: -1; AddedCount: -1; RemovedCount: -1; ParcelableData: null ]'
p2092
sS'MovementGranularity'
p2093
g6
sa(dp2094
S'EventTime'
p2095
S'66685696'
p2096
sg4
L1449974804690L
sS'recordCount'
p2097
g6
sS'EventType'
p2098
S'TYPE_VIEW_SCROLLED'
p2099
sS'PackageName'
p2100
S'com.xp.tugele'
p2101
sS'OutBounds'
p2102
S'Rect(0, 50 - 720, 1280)'
p2103
sS'Action'
p2104
S'[ ClassName: android.support.v4.view.ViewPager; Text: []; ContentDescription: null; ItemCount: -1; CurrentItemIndex: -1; IsEnabled: true; IsPassword: false; IsChecked: false; IsFullScreen: false; Scrollable: false; BeforeText: null; FromIndex: -1; ToIndex: -1; ScrollX: -1; ScrollY: -1; MaxScrollX: -1; MaxScrollY: -1; AddedCount: -1; RemovedCount: -1; ParcelableData: null ]'
p2105
sS'MovementGranularity'
p2106
g6
sa(dp2107
S'EventTime'
p2108
S'66685729'
p2109
sg4
L1449974804774L
sS'recordCount'
p2110
g6
sS'EventType'
p2111
S'TYPE_WINDOW_CONTENT_CHANGED'
p2112
sS'PackageName'
p2113
S'com.xp.tugele'
p2114
sS'OutBounds'
p2115
S'Rect(0, 0 - 720, 1280)'
p2116
sS'Action'
p2117
S'[ ClassName: android.widget.FrameLayout; Text: []; ContentDescription: null; ItemCount: -1; CurrentItemIndex: -1; IsEnabled: true; IsPassword: false; IsChecked: false; IsFullScreen: false; Scrollable: false; BeforeText: null; FromIndex: -1; ToIndex: -1; ScrollX: -1; ScrollY: -1; MaxScrollX: -1; MaxScrollY: -1; AddedCount: -1; RemovedCount: -1; ParcelableData: null ]'
p2118
sS'MovementGranularity'
p2119
g6
sa(dp2120
S'EventTime'
p2121
S'66685833'
p2122
sg4
L1449974804795L
sS'recordCount'
p2123
g6
sS'EventType'
p2124
S'TYPE_VIEW_SCROLLED'
p2125
sS'PackageName'
p2126
S'com.xp.tugele'
p2127
sS'OutBounds'
p2128
S'Rect(0, 50 - 720, 1280)'
p2129
sS'Action'
p2130
S'[ ClassName: android.support.v4.view.ViewPager; Text: []; ContentDescription: null; ItemCount: -1; CurrentItemIndex: -1; IsEnabled: true; IsPassword: false; IsChecked: false; IsFullScreen: false; Scrollable: false; BeforeText: null; FromIndex: -1; ToIndex: -1; ScrollX: -1; ScrollY: -1; MaxScrollX: -1; MaxScrollY: -1; AddedCount: -1; RemovedCount: -1; ParcelableData: null ]'
p2131
sS'MovementGranularity'
p2132
g6
sa(dp2133
S'EventTime'
p2134
S'66685920'
p2135
sg4
L1449974804895L
sS'recordCount'
p2136
g6
sS'EventType'
p2137
S'TYPE_WINDOW_CONTENT_CHANGED'
p2138
sS'PackageName'
p2139
S'com.xp.tugele'
p2140
sS'OutBounds'
p2141
S'Rect(0, 0 - 720, 1280)'
p2142
sS'Action'
p2143
S'[ ClassName: android.widget.FrameLayout; Text: []; ContentDescription: null; ItemCount: -1; CurrentItemIndex: -1; IsEnabled: true; IsPassword: false; IsChecked: false; IsFullScreen: false; Scrollable: false; BeforeText: null; FromIndex: -1; ToIndex: -1; ScrollX: -1; ScrollY: -1; MaxScrollX: -1; MaxScrollY: -1; AddedCount: -1; RemovedCount: -1; ParcelableData: null ]'
p2144
sS'MovementGranularity'
p2145
g6
sa(dp2146
S'EventTime'
p2147
S'66685941'
p2148
sg4
L1449974804905L
sS'recordCount'
p2149
g6
sS'EventType'
p2150
S'TYPE_VIEW_SCROLLED'
p2151
sS'PackageName'
p2152
S'com.xp.tugele'
p2153
sS'OutBounds'
p2154
S'Rect(0, 50 - 720, 1280)'
p2155
sS'Action'
p2156
S'[ ClassName: android.support.v4.view.ViewPager; Text: []; ContentDescription: null; ItemCount: -1; CurrentItemIndex: -1; IsEnabled: true; IsPassword: false; IsChecked: false; IsFullScreen: false; Scrollable: false; BeforeText: null; FromIndex: -1; ToIndex: -1; ScrollX: -1; ScrollY: -1; MaxScrollX: -1; MaxScrollY: -1; AddedCount: -1; RemovedCount: -1; ParcelableData: null ]'
p2157
sS'MovementGranularity'
p2158
g6
sa(dp2159
S'EventTime'
p2160
S'66686114'
p2161
sg4
L1449974805081L
sS'recordCount'
p2162
g6
sS'EventType'
p2163
S'TYPE_WINDOW_CONTENT_CHANGED'
p2164
sS'PackageName'
p2165
S'com.xp.tugele'
p2166
sS'OutBounds'
p2167
S'Rect(0, 0 - 720, 1280)'
p2168
sS'Action'
p2169
S'[ ClassName: android.widget.FrameLayout; Text: []; ContentDescription: null; ItemCount: -1; CurrentItemIndex: -1; IsEnabled: true; IsPassword: false; IsChecked: false; IsFullScreen: false; Scrollable: false; BeforeText: null; FromIndex: -1; ToIndex: -1; ScrollX: -1; ScrollY: -1; MaxScrollX: -1; MaxScrollY: -1; AddedCount: -1; RemovedCount: -1; ParcelableData: null ]'
p2170
sS'MovementGranularity'
p2171
g6
sa(dp2172
S'EventTime'
p2173
S'66686331'
p2174
sg4
L1449974805303L
sS'recordCount'
p2175
g6
sS'EventType'
p2176
S'TYPE_VIEW_SCROLLED'
p2177
sS'PackageName'
p2178
S'com.xp.tugele'
p2179
sS'OutBounds'
p2180
S'Rect(0, 50 - 720, 1280)'
p2181
sS'Action'
p2182
S'[ ClassName: android.support.v4.view.ViewPager; Text: []; ContentDescription: null; ItemCount: -1; CurrentItemIndex: -1; IsEnabled: true; IsPassword: false; IsChecked: false; IsFullScreen: false; Scrollable: false; BeforeText: null; FromIndex: -1; ToIndex: -1; ScrollX: -1; ScrollY: -1; MaxScrollX: -1; MaxScrollY: -1; AddedCount: -1; RemovedCount: -1; ParcelableData: null ]'
p2183
sS'MovementGranularity'
p2184
g6
sa(dp2185
S'EventTime'
p2186
S'66686437'
p2187
sg4
L1449974805402L
sS'recordCount'
p2188
g6
sS'EventType'
p2189
S'TYPE_VIEW_SCROLLED'
p2190
sS'PackageName'
p2191
S'com.xp.tugele'
p2192
sS'OutBounds'
p2193
S'Rect(0, 50 - 720, 1280)'
p2194
sS'Action'
p2195
S'[ ClassName: android.support.v4.view.ViewPager; Text: []; ContentDescription: null; ItemCount: -1; CurrentItemIndex: -1; IsEnabled: true; IsPassword: false; IsChecked: false; IsFullScreen: false; Scrollable: false; BeforeText: null; FromIndex: -1; ToIndex: -1; ScrollX: -1; ScrollY: -1; MaxScrollX: -1; MaxScrollY: -1; AddedCount: -1; RemovedCount: -1; ParcelableData: null ]'
p2196
sS'MovementGranularity'
p2197
g6
sa(dp2198
S'EventTime'
p2199
S'66686534'
p2200
sg4
L1449974805513L
sS'recordCount'
p2201
g6
sS'EventType'
p2202
S'TYPE_WINDOW_CONTENT_CHANGED'
p2203
sS'PackageName'
p2204
S'com.xp.tugele'
p2205
sS'OutBounds'
p2206
S'Rect(0, 0 - 720, 1280)'
p2207
sS'Action'
p2208
S'[ ClassName: android.widget.FrameLayout; Text: []; ContentDescription: null; ItemCount: -1; CurrentItemIndex: -1; IsEnabled: true; IsPassword: false; IsChecked: false; IsFullScreen: false; Scrollable: false; BeforeText: null; FromIndex: -1; ToIndex: -1; ScrollX: -1; ScrollY: -1; MaxScrollX: -1; MaxScrollY: -1; AddedCount: -1; RemovedCount: -1; ParcelableData: null ]'
p2209
sS'MovementGranularity'
p2210
g6
sa(dp2211
S'EventTime'
p2212
S'66686573'
p2213
sg4
L1449974805547L
sS'recordCount'
p2214
g6
sS'EventType'
p2215
S'TYPE_VIEW_SCROLLED'
p2216
sS'PackageName'
p2217
S'com.xp.tugele'
p2218
sS'OutBounds'
p2219
S'Rect(0, 50 - 720, 1280)'
p2220
sS'Action'
p2221
S'[ ClassName: android.support.v4.view.ViewPager; Text: []; ContentDescription: null; ItemCount: -1; CurrentItemIndex: -1; IsEnabled: true; IsPassword: false; IsChecked: false; IsFullScreen: false; Scrollable: false; BeforeText: null; FromIndex: -1; ToIndex: -1; ScrollX: -1; ScrollY: -1; MaxScrollX: -1; MaxScrollY: -1; AddedCount: -1; RemovedCount: -1; ParcelableData: null ]'
p2222
sS'MovementGranularity'
p2223
g6
sa(dp2224
S'EventTime'
p2225
S'66686690'
p2226
sg4
L1449974805653L
sS'recordCount'
p2227
g6
sS'EventType'
p2228
S'TYPE_VIEW_SCROLLED'
p2229
sS'PackageName'
p2230
S'com.xp.tugele'
p2231
sS'OutBounds'
p2232
S'Rect(0, 50 - 720, 1280)'
p2233
sS'Action'
p2234
S'[ ClassName: android.support.v4.view.ViewPager; Text: []; ContentDescription: null; ItemCount: -1; CurrentItemIndex: -1; IsEnabled: true; IsPassword: false; IsChecked: false; IsFullScreen: false; Scrollable: false; BeforeText: null; FromIndex: -1; ToIndex: -1; ScrollX: -1; ScrollY: -1; MaxScrollX: -1; MaxScrollY: -1; AddedCount: -1; RemovedCount: -1; ParcelableData: null ]'
p2235
sS'MovementGranularity'
p2236
g6
sa(dp2237
S'EventTime'
p2238
S'66686745'
p2239
sg4
L1449974805711L
sS'recordCount'
p2240
g6
sS'EventType'
p2241
S'TYPE_WINDOW_CONTENT_CHANGED'
p2242
sS'PackageName'
p2243
S'com.xp.tugele'
p2244
sS'OutBounds'
p2245
S'Rect(0, 0 - 720, 1280)'
p2246
sS'Action'
p2247
S'[ ClassName: android.widget.FrameLayout; Text: []; ContentDescription: null; ItemCount: -1; CurrentItemIndex: -1; IsEnabled: true; IsPassword: false; IsChecked: false; IsFullScreen: false; Scrollable: false; BeforeText: null; FromIndex: -1; ToIndex: -1; ScrollX: -1; ScrollY: -1; MaxScrollX: -1; MaxScrollY: -1; AddedCount: -1; RemovedCount: -1; ParcelableData: null ]'
p2248
sS'MovementGranularity'
p2249
g6
sa(dp2250
S'EventTime'
p2251
S'66686962'
p2252
sg4
L1449974805927L
sS'recordCount'
p2253
g6
sS'EventType'
p2254
S'TYPE_VIEW_SCROLLED'
p2255
sS'PackageName'
p2256
S'com.xp.tugele'
p2257
sS'OutBounds'
p2258
S'Rect(0, 50 - 720, 1280)'
p2259
sS'Action'
p2260
S'[ ClassName: android.support.v4.view.ViewPager; Text: []; ContentDescription: null; ItemCount: -1; CurrentItemIndex: -1; IsEnabled: true; IsPassword: false; IsChecked: false; IsFullScreen: false; Scrollable: false; BeforeText: null; FromIndex: -1; ToIndex: -1; ScrollX: -1; ScrollY: -1; MaxScrollX: -1; MaxScrollY: -1; AddedCount: -1; RemovedCount: -1; ParcelableData: null ]'
p2261
sS'MovementGranularity'
p2262
g6
sa(dp2263
S'EventTime'
p2264
S'66687120'
p2265
sg4
L1449974806086L
sS'recordCount'
p2266
g6
sS'EventType'
p2267
S'TYPE_WINDOW_CONTENT_CHANGED'
p2268
sS'PackageName'
p2269
S'com.xp.tugele'
p2270
sS'OutBounds'
p2271
S'Rect(0, 0 - 720, 1280)'
p2272
sS'Action'
p2273
S'[ ClassName: android.widget.FrameLayout; Text: []; ContentDescription: null; ItemCount: -1; CurrentItemIndex: -1; IsEnabled: true; IsPassword: false; IsChecked: false; IsFullScreen: false; Scrollable: false; BeforeText: null; FromIndex: -1; ToIndex: -1; ScrollX: -1; ScrollY: -1; MaxScrollX: -1; MaxScrollY: -1; AddedCount: -1; RemovedCount: -1; ParcelableData: null ]'
p2274
sS'MovementGranularity'
p2275
g6
sa(dp2276
S'EventTime'
p2277
S'66687768'
p2278
sg4
L1449974806733L
sS'recordCount'
p2279
g6
sS'EventType'
p2280
S'TYPE_VIEW_SCROLLED'
p2281
sS'PackageName'
p2282
S'com.xp.tugele'
p2283
sS'OutBounds'
p2284
S'Rect(0, 50 - 720, 1280)'
p2285
sS'Action'
p2286
S'[ ClassName: android.support.v4.view.ViewPager; Text: []; ContentDescription: null; ItemCount: -1; CurrentItemIndex: -1; IsEnabled: true; IsPassword: false; IsChecked: false; IsFullScreen: false; Scrollable: false; BeforeText: null; FromIndex: -1; ToIndex: -1; ScrollX: -1; ScrollY: -1; MaxScrollX: -1; MaxScrollY: -1; AddedCount: -1; RemovedCount: -1; ParcelableData: null ]'
p2287
sS'MovementGranularity'
p2288
g6
sa(dp2289
S'EventTime'
p2290
S'66687887'
p2291
sg4
L1449974806852L
sS'recordCount'
p2292
g6
sS'EventType'
p2293
S'TYPE_VIEW_SCROLLED'
p2294
sS'PackageName'
p2295
S'com.xp.tugele'
p2296
sS'OutBounds'
p2297
S'Rect(0, 50 - 720, 1280)'
p2298
sS'Action'
p2299
S'[ ClassName: android.support.v4.view.ViewPager; Text: []; ContentDescription: null; ItemCount: -1; CurrentItemIndex: -1; IsEnabled: true; IsPassword: false; IsChecked: false; IsFullScreen: false; Scrollable: false; BeforeText: null; FromIndex: -1; ToIndex: -1; ScrollX: -1; ScrollY: -1; MaxScrollX: -1; MaxScrollY: -1; AddedCount: -1; RemovedCount: -1; ParcelableData: null ]'
p2300
sS'MovementGranularity'
p2301
g6
sa(dp2302
S'EventTime'
p2303
S'66688000'
p2304
sg4
L1449974806965L
sS'recordCount'
p2305
g6
sS'EventType'
p2306
S'TYPE_VIEW_SCROLLED'
p2307
sS'PackageName'
p2308
S'com.xp.tugele'
p2309
sS'OutBounds'
p2310
S'Rect(0, 50 - 720, 1280)'
p2311
sS'Action'
p2312
S'[ ClassName: android.support.v4.view.ViewPager; Text: []; ContentDescription: null; ItemCount: -1; CurrentItemIndex: -1; IsEnabled: true; IsPassword: false; IsChecked: false; IsFullScreen: false; Scrollable: false; BeforeText: null; FromIndex: -1; ToIndex: -1; ScrollX: -1; ScrollY: -1; MaxScrollX: -1; MaxScrollY: -1; AddedCount: -1; RemovedCount: -1; ParcelableData: null ]'
p2313
sS'MovementGranularity'
p2314
g6
sa(dp2315
S'EventTime'
p2316
S'66688114'
p2317
sg4
L1449974807079L
sS'recordCount'
p2318
g6
sS'EventType'
p2319
S'TYPE_VIEW_SCROLLED'
p2320
sS'PackageName'
p2321
S'com.xp.tugele'
p2322
sS'OutBounds'
p2323
S'Rect(0, 50 - 720, 1280)'
p2324
sS'Action'
p2325
S'[ ClassName: android.support.v4.view.ViewPager; Text: []; ContentDescription: null; ItemCount: -1; CurrentItemIndex: -1; IsEnabled: true; IsPassword: false; IsChecked: false; IsFullScreen: false; Scrollable: false; BeforeText: null; FromIndex: -1; ToIndex: -1; ScrollX: -1; ScrollY: -1; MaxScrollX: -1; MaxScrollY: -1; AddedCount: -1; RemovedCount: -1; ParcelableData: null ]'
p2326
sS'MovementGranularity'
p2327
g6
sa(dp2328
S'EventTime'
p2329
S'66688152'
p2330
sg4
L1449974807180L
sS'recordCount'
p2331
g6
sS'EventType'
p2332
S'TYPE_WINDOW_CONTENT_CHANGED'
p2333
sS'PackageName'
p2334
S'com.xp.tugele'
p2335
sS'OutBounds'
p2336
S'Rect(0, 0 - 720, 1280)'
p2337
sS'Action'
p2338
S'[ ClassName: android.widget.FrameLayout; Text: []; ContentDescription: null; ItemCount: -1; CurrentItemIndex: -1; IsEnabled: true; IsPassword: false; IsChecked: false; IsFullScreen: false; Scrollable: false; BeforeText: null; FromIndex: -1; ToIndex: -1; ScrollX: -1; ScrollY: -1; MaxScrollX: -1; MaxScrollY: -1; AddedCount: -1; RemovedCount: -1; ParcelableData: null ]'
p2339
sS'MovementGranularity'
p2340
g6
sa(dp2341
S'EventTime'
p2342
S'66688315'
p2343
sg4
L1449974807279L
sS'recordCount'
p2344
g6
sS'EventType'
p2345
S'TYPE_VIEW_SCROLLED'
p2346
sS'PackageName'
p2347
S'com.xp.tugele'
p2348
sS'OutBounds'
p2349
S'Rect(0, 50 - 720, 1280)'
p2350
sS'Action'
p2351
S'[ ClassName: android.support.v4.view.ViewPager; Text: []; ContentDescription: null; ItemCount: -1; CurrentItemIndex: -1; IsEnabled: true; IsPassword: false; IsChecked: false; IsFullScreen: false; Scrollable: false; BeforeText: null; FromIndex: -1; ToIndex: -1; ScrollX: -1; ScrollY: -1; MaxScrollX: -1; MaxScrollY: -1; AddedCount: -1; RemovedCount: -1; ParcelableData: null ]'
p2352
sS'MovementGranularity'
p2353
g6
sa(dp2354
S'EventTime'
p2355
S'66688407'
p2356
sg4
L1449974807374L
sS'recordCount'
p2357
g6
sS'EventType'
p2358
S'TYPE_WINDOW_CONTENT_CHANGED'
p2359
sS'PackageName'
p2360
S'com.xp.tugele'
p2361
sS'OutBounds'
p2362
S'Rect(0, 0 - 720, 1280)'
p2363
sS'Action'
p2364
S'[ ClassName: android.widget.FrameLayout; Text: []; ContentDescription: null; ItemCount: -1; CurrentItemIndex: -1; IsEnabled: true; IsPassword: false; IsChecked: false; IsFullScreen: false; Scrollable: false; BeforeText: null; FromIndex: -1; ToIndex: -1; ScrollX: -1; ScrollY: -1; MaxScrollX: -1; MaxScrollY: -1; AddedCount: -1; RemovedCount: -1; ParcelableData: null ]'
p2365
sS'MovementGranularity'
p2366
g6
sa(dp2367
S'EventTime'
p2368
S'66688590'
p2369
sg4
L1449974807555L
sS'recordCount'
p2370
g6
sS'EventType'
p2371
S'TYPE_VIEW_SCROLLED'
p2372
sS'PackageName'
p2373
S'com.xp.tugele'
p2374
sS'OutBounds'
p2375
S'Rect(0, 50 - 720, 1280)'
p2376
sS'Action'
p2377
S'[ ClassName: android.support.v4.view.ViewPager; Text: []; ContentDescription: null; ItemCount: -1; CurrentItemIndex: -1; IsEnabled: true; IsPassword: false; IsChecked: false; IsFullScreen: false; Scrollable: false; BeforeText: null; FromIndex: -1; ToIndex: -1; ScrollX: -1; ScrollY: -1; MaxScrollX: -1; MaxScrollY: -1; AddedCount: -1; RemovedCount: -1; ParcelableData: null ]'
p2378
sS'MovementGranularity'
p2379
g6
sa(dp2380
S'EventTime'
p2381
S'66688733'
p2382
sg4
L1449974807702L
sS'recordCount'
p2383
g6
sS'EventType'
p2384
S'TYPE_WINDOW_CONTENT_CHANGED'
p2385
sS'PackageName'
p2386
S'com.xp.tugele'
p2387
sS'OutBounds'
p2388
S'Rect(0, 0 - 720, 1280)'
p2389
sS'Action'
p2390
S'[ ClassName: android.widget.FrameLayout; Text: []; ContentDescription: null; ItemCount: -1; CurrentItemIndex: -1; IsEnabled: true; IsPassword: false; IsChecked: false; IsFullScreen: false; Scrollable: false; BeforeText: null; FromIndex: -1; ToIndex: -1; ScrollX: -1; ScrollY: -1; MaxScrollX: -1; MaxScrollY: -1; AddedCount: -1; RemovedCount: -1; ParcelableData: null ]'
p2391
sS'MovementGranularity'
p2392
g6
sa(dp2393
S'EventTime'
p2394
S'66688804'
p2395
sg4
L1449974807773L
sS'recordCount'
p2396
g6
sS'EventType'
p2397
S'TYPE_VIEW_SCROLLED'
p2398
sS'PackageName'
p2399
S'com.xp.tugele'
p2400
sS'OutBounds'
p2401
S'Rect(0, 50 - 720, 1280)'
p2402
sS'Action'
p2403
S'[ ClassName: android.support.v4.view.ViewPager; Text: []; ContentDescription: null; ItemCount: -1; CurrentItemIndex: -1; IsEnabled: true; IsPassword: false; IsChecked: false; IsFullScreen: false; Scrollable: false; BeforeText: null; FromIndex: -1; ToIndex: -1; ScrollX: -1; ScrollY: -1; MaxScrollX: -1; MaxScrollY: -1; AddedCount: -1; RemovedCount: -1; ParcelableData: null ]'
p2404
sS'MovementGranularity'
p2405
g6
sa(dp2406
S'EventTime'
p2407
S'66688921'
p2408
sg4
L1449974807888L
sS'recordCount'
p2409
g6
sS'EventType'
p2410
S'TYPE_VIEW_SCROLLED'
p2411
sS'PackageName'
p2412
S'com.xp.tugele'
p2413
sS'OutBounds'
p2414
S'Rect(0, 50 - 720, 1280)'
p2415
sS'Action'
p2416
S'[ ClassName: android.support.v4.view.ViewPager; Text: []; ContentDescription: null; ItemCount: -1; CurrentItemIndex: -1; IsEnabled: true; IsPassword: false; IsChecked: false; IsFullScreen: false; Scrollable: false; BeforeText: null; FromIndex: -1; ToIndex: -1; ScrollX: -1; ScrollY: -1; MaxScrollX: -1; MaxScrollY: -1; AddedCount: -1; RemovedCount: -1; ParcelableData: null ]'
p2417
sS'MovementGranularity'
p2418
g6
sa(dp2419
S'EventTime'
p2420
S'66689035'
p2421
sg4
L1449974808000L
sS'recordCount'
p2422
g6
sS'EventType'
p2423
S'TYPE_VIEW_SCROLLED'
p2424
sS'PackageName'
p2425
S'com.xp.tugele'
p2426
sS'OutBounds'
p2427
S'Rect(0, 50 - 720, 1280)'
p2428
sS'Action'
p2429
S'[ ClassName: android.support.v4.view.ViewPager; Text: []; ContentDescription: null; ItemCount: -1; CurrentItemIndex: -1; IsEnabled: true; IsPassword: false; IsChecked: false; IsFullScreen: false; Scrollable: false; BeforeText: null; FromIndex: -1; ToIndex: -1; ScrollX: -1; ScrollY: -1; MaxScrollX: -1; MaxScrollY: -1; AddedCount: -1; RemovedCount: -1; ParcelableData: null ]'
p2430
sS'MovementGranularity'
p2431
g6
sa(dp2432
S'EventTime'
p2433
S'66689165'
p2434
sg4
L1449974808158L
sS'recordCount'
p2435
g6
sS'EventType'
p2436
S'TYPE_VIEW_SCROLLED'
p2437
sS'PackageName'
p2438
S'com.xp.tugele'
p2439
sS'OutBounds'
p2440
S'Rect(0, 50 - 720, 1280)'
p2441
sS'Action'
p2442
S'[ ClassName: android.support.v4.view.ViewPager; Text: []; ContentDescription: null; ItemCount: -1; CurrentItemIndex: -1; IsEnabled: true; IsPassword: false; IsChecked: false; IsFullScreen: false; Scrollable: false; BeforeText: null; FromIndex: -1; ToIndex: -1; ScrollX: -1; ScrollY: -1; MaxScrollX: -1; MaxScrollY: -1; AddedCount: -1; RemovedCount: -1; ParcelableData: null ]'
p2443
sS'MovementGranularity'
p2444
g6
sa(dp2445
S'EventTime'
p2446
S'66689300'
p2447
sg4
L1449974808265L
sS'recordCount'
p2448
g6
sS'EventType'
p2449
S'TYPE_VIEW_SCROLLED'
p2450
sS'PackageName'
p2451
S'com.xp.tugele'
p2452
sS'OutBounds'
p2453
S'Rect(0, 50 - 720, 1280)'
p2454
sS'Action'
p2455
S'[ ClassName: android.support.v4.view.ViewPager; Text: []; ContentDescription: null; ItemCount: -1; CurrentItemIndex: -1; IsEnabled: true; IsPassword: false; IsChecked: false; IsFullScreen: false; Scrollable: false; BeforeText: null; FromIndex: -1; ToIndex: -1; ScrollX: -1; ScrollY: -1; MaxScrollX: -1; MaxScrollY: -1; AddedCount: -1; RemovedCount: -1; ParcelableData: null ]'
p2456
sS'MovementGranularity'
p2457
g6
sa(dp2458
S'EventTime'
p2459
S'66689353'
p2460
sg4
L1449974808327L
sS'recordCount'
p2461
g6
sS'EventType'
p2462
S'TYPE_WINDOW_CONTENT_CHANGED'
p2463
sS'PackageName'
p2464
S'com.xp.tugele'
p2465
sS'OutBounds'
p2466
S'Rect(0, 0 - 720, 1280)'
p2467
sS'Action'
p2468
S'[ ClassName: android.widget.FrameLayout; Text: []; ContentDescription: null; ItemCount: -1; CurrentItemIndex: -1; IsEnabled: true; IsPassword: false; IsChecked: false; IsFullScreen: false; Scrollable: false; BeforeText: null; FromIndex: -1; ToIndex: -1; ScrollX: -1; ScrollY: -1; MaxScrollX: -1; MaxScrollY: -1; AddedCount: -1; RemovedCount: -1; ParcelableData: null ]'
p2469
sS'MovementGranularity'
p2470
g6
sa(dp2471
S'EventTime'
p2472
S'66689408'
p2473
sg4
L1449974808373L
sS'recordCount'
p2474
g6
sS'EventType'
p2475
S'TYPE_VIEW_SCROLLED'
p2476
sS'PackageName'
p2477
S'com.xp.tugele'
p2478
sS'OutBounds'
p2479
S'Rect(0, 50 - 720, 1280)'
p2480
sS'Action'
p2481
S'[ ClassName: android.support.v4.view.ViewPager; Text: []; ContentDescription: null; ItemCount: -1; CurrentItemIndex: -1; IsEnabled: true; IsPassword: false; IsChecked: false; IsFullScreen: false; Scrollable: false; BeforeText: null; FromIndex: -1; ToIndex: -1; ScrollX: -1; ScrollY: -1; MaxScrollX: -1; MaxScrollY: -1; AddedCount: -1; RemovedCount: -1; ParcelableData: null ]'
p2482
sS'MovementGranularity'
p2483
g6
sa(dp2484
S'EventTime'
p2485
S'66689544'
p2486
sg4
L1449974808518L
sS'recordCount'
p2487
g6
sS'EventType'
p2488
S'TYPE_WINDOW_CONTENT_CHANGED'
p2489
sS'PackageName'
p2490
S'com.xp.tugele'
p2491
sS'OutBounds'
p2492
S'Rect(0, 0 - 720, 1280)'
p2493
sS'Action'
p2494
S'[ ClassName: android.widget.FrameLayout; Text: []; ContentDescription: null; ItemCount: -1; CurrentItemIndex: -1; IsEnabled: true; IsPassword: false; IsChecked: false; IsFullScreen: false; Scrollable: false; BeforeText: null; FromIndex: -1; ToIndex: -1; ScrollX: -1; ScrollY: -1; MaxScrollX: -1; MaxScrollY: -1; AddedCount: -1; RemovedCount: -1; ParcelableData: null ]'
p2495
sS'MovementGranularity'
p2496
g6
sa(dp2497
S'EventTime'
p2498
S'66689582'
p2499
sg4
L1449974808565L
sS'recordCount'
p2500
g6
sS'EventType'
p2501
S'TYPE_VIEW_SCROLLED'
p2502
sS'PackageName'
p2503
S'com.xp.tugele'
p2504
sS'OutBounds'
p2505
S'Rect(0, 50 - 720, 1280)'
p2506
sS'Action'
p2507
S'[ ClassName: android.support.v4.view.ViewPager; Text: []; ContentDescription: null; ItemCount: -1; CurrentItemIndex: -1; IsEnabled: true; IsPassword: false; IsChecked: false; IsFullScreen: false; Scrollable: false; BeforeText: null; FromIndex: -1; ToIndex: -1; ScrollX: -1; ScrollY: -1; MaxScrollX: -1; MaxScrollY: -1; AddedCount: -1; RemovedCount: -1; ParcelableData: null ]'
p2508
sS'MovementGranularity'
p2509
g6
sa(dp2510
S'EventTime'
p2511
S'66689707'
p2512
sg4
L1449974808671L
sS'recordCount'
p2513
g6
sS'EventType'
p2514
S'TYPE_VIEW_SCROLLED'
p2515
sS'PackageName'
p2516
S'com.xp.tugele'
p2517
sS'OutBounds'
p2518
S'Rect(0, 50 - 720, 1280)'
p2519
sS'Action'
p2520
S'[ ClassName: android.support.v4.view.ViewPager; Text: []; ContentDescription: null; ItemCount: -1; CurrentItemIndex: -1; IsEnabled: true; IsPassword: false; IsChecked: false; IsFullScreen: false; Scrollable: false; BeforeText: null; FromIndex: -1; ToIndex: -1; ScrollX: -1; ScrollY: -1; MaxScrollX: -1; MaxScrollY: -1; AddedCount: -1; RemovedCount: -1; ParcelableData: null ]'
p2521
sS'MovementGranularity'
p2522
g6
sa(dp2523
S'EventTime'
p2524
S'66689749'
p2525
sg4
L1449974808715L
sS'recordCount'
p2526
g6
sS'EventType'
p2527
S'TYPE_WINDOW_CONTENT_CHANGED'
p2528
sS'PackageName'
p2529
S'com.xp.tugele'
p2530
sS'OutBounds'
p2531
S'Rect(0, 0 - 720, 1280)'
p2532
sS'Action'
p2533
S'[ ClassName: android.widget.FrameLayout; Text: []; ContentDescription: null; ItemCount: -1; CurrentItemIndex: -1; IsEnabled: true; IsPassword: false; IsChecked: false; IsFullScreen: false; Scrollable: false; BeforeText: null; FromIndex: -1; ToIndex: -1; ScrollX: -1; ScrollY: -1; MaxScrollX: -1; MaxScrollY: -1; AddedCount: -1; RemovedCount: -1; ParcelableData: null ]'
p2534
sS'MovementGranularity'
p2535
g6
sa(dp2536
S'EventTime'
p2537
S'66689811'
p2538
sg4
L1449974808772L
sS'recordCount'
p2539
g6
sS'EventType'
p2540
S'TYPE_VIEW_SCROLLED'
p2541
sS'PackageName'
p2542
S'com.xp.tugele'
p2543
sS'OutBounds'
p2544
S'Rect(0, 50 - 720, 1280)'
p2545
sS'Action'
p2546
S'[ ClassName: android.support.v4.view.ViewPager; Text: []; ContentDescription: null; ItemCount: -1; CurrentItemIndex: -1; IsEnabled: true; IsPassword: false; IsChecked: false; IsFullScreen: false; Scrollable: false; BeforeText: null; FromIndex: -1; ToIndex: -1; ScrollX: -1; ScrollY: -1; MaxScrollX: -1; MaxScrollY: -1; AddedCount: -1; RemovedCount: -1; ParcelableData: null ]'
p2547
sS'MovementGranularity'
p2548
g6
sa(dp2549
S'EventTime'
p2550
S'66689930'
p2551
sg4
L1449974808901L
sS'recordCount'
p2552
g6
sS'EventType'
p2553
S'TYPE_WINDOW_CONTENT_CHANGED'
p2554
sS'PackageName'
p2555
S'com.xp.tugele'
p2556
sS'OutBounds'
p2557
S'Rect(0, 0 - 720, 1280)'
p2558
sS'Action'
p2559
S'[ ClassName: android.widget.FrameLayout; Text: []; ContentDescription: null; ItemCount: -1; CurrentItemIndex: -1; IsEnabled: true; IsPassword: false; IsChecked: false; IsFullScreen: false; Scrollable: false; BeforeText: null; FromIndex: -1; ToIndex: -1; ScrollX: -1; ScrollY: -1; MaxScrollX: -1; MaxScrollY: -1; AddedCount: -1; RemovedCount: -1; ParcelableData: null ]'
p2560
sS'MovementGranularity'
p2561
g6
sa(dp2562
S'EventTime'
p2563
S'66689969'
p2564
sg4
L1449974808935L
sS'recordCount'
p2565
g6
sS'EventType'
p2566
S'TYPE_VIEW_SCROLLED'
p2567
sS'PackageName'
p2568
S'com.xp.tugele'
p2569
sS'OutBounds'
p2570
S'Rect(0, 50 - 720, 1280)'
p2571
sS'Action'
p2572
S'[ ClassName: android.support.v4.view.ViewPager; Text: []; ContentDescription: null; ItemCount: -1; CurrentItemIndex: -1; IsEnabled: true; IsPassword: false; IsChecked: false; IsFullScreen: false; Scrollable: false; BeforeText: null; FromIndex: -1; ToIndex: -1; ScrollX: -1; ScrollY: -1; MaxScrollX: -1; MaxScrollY: -1; AddedCount: -1; RemovedCount: -1; ParcelableData: null ]'
p2573
sS'MovementGranularity'
p2574
g6
sa(dp2575
S'EventTime'
p2576
S'66690131'
p2577
sg4
L1449974809098L
sS'recordCount'
p2578
g6
sS'EventType'
p2579
S'TYPE_WINDOW_CONTENT_CHANGED'
p2580
sS'PackageName'
p2581
S'com.xp.tugele'
p2582
sS'OutBounds'
p2583
S'Rect(0, 0 - 720, 1280)'
p2584
sS'Action'
p2585
S'[ ClassName: android.widget.FrameLayout; Text: []; ContentDescription: null; ItemCount: -1; CurrentItemIndex: -1; IsEnabled: true; IsPassword: false; IsChecked: false; IsFullScreen: false; Scrollable: false; BeforeText: null; FromIndex: -1; ToIndex: -1; ScrollX: -1; ScrollY: -1; MaxScrollX: -1; MaxScrollY: -1; AddedCount: -1; RemovedCount: -1; ParcelableData: null ]'
p2586
sS'MovementGranularity'
p2587
g6
sa(dp2588
S'EventTime'
p2589
S'66690365'
p2590
sg4
L1449974809334L
sS'recordCount'
p2591
g6
sS'EventType'
p2592
S'TYPE_VIEW_SCROLLED'
p2593
sS'PackageName'
p2594
S'com.xp.tugele'
p2595
sS'OutBounds'
p2596
S'Rect(0, 50 - 720, 1280)'
p2597
sS'Action'
p2598
S'[ ClassName: android.support.v4.view.ViewPager; Text: []; ContentDescription: null; ItemCount: -1; CurrentItemIndex: -1; IsEnabled: true; IsPassword: false; IsChecked: false; IsFullScreen: false; Scrollable: false; BeforeText: null; FromIndex: -1; ToIndex: -1; ScrollX: -1; ScrollY: -1; MaxScrollX: -1; MaxScrollY: -1; AddedCount: -1; RemovedCount: -1; ParcelableData: null ]'
p2599
sS'MovementGranularity'
p2600
g6
sa(dp2601
S'EventTime'
p2602
S'66690530'
p2603
sg4
L1449974809520L
sS'recordCount'
p2604
g6
sS'EventType'
p2605
S'TYPE_WINDOW_CONTENT_CHANGED'
p2606
sS'PackageName'
p2607
S'com.xp.tugele'
p2608
sS'OutBounds'
p2609
S'Rect(0, 0 - 720, 1280)'
p2610
sS'Action'
p2611
S'[ ClassName: android.widget.FrameLayout; Text: []; ContentDescription: null; ItemCount: -1; CurrentItemIndex: -1; IsEnabled: true; IsPassword: false; IsChecked: false; IsFullScreen: false; Scrollable: false; BeforeText: null; FromIndex: -1; ToIndex: -1; ScrollX: -1; ScrollY: -1; MaxScrollX: -1; MaxScrollY: -1; AddedCount: -1; RemovedCount: -1; ParcelableData: null ]'
p2612
sS'MovementGranularity'
p2613
g6
sa(dp2614
S'EventTime'
p2615
S'66690563'
p2616
sg4
L1449974809535L
sS'recordCount'
p2617
g6
sS'EventType'
p2618
S'TYPE_VIEW_SCROLLED'
p2619
sS'PackageName'
p2620
S'com.xp.tugele'
p2621
sS'OutBounds'
p2622
S'Rect(0, 50 - 720, 1280)'
p2623
sS'Action'
p2624
S'[ ClassName: android.support.v4.view.ViewPager; Text: []; ContentDescription: null; ItemCount: -1; CurrentItemIndex: -1; IsEnabled: true; IsPassword: false; IsChecked: false; IsFullScreen: false; Scrollable: false; BeforeText: null; FromIndex: -1; ToIndex: -1; ScrollX: -1; ScrollY: -1; MaxScrollX: -1; MaxScrollY: -1; AddedCount: -1; RemovedCount: -1; ParcelableData: null ]'
p2625
sS'MovementGranularity'
p2626
g6
sa(dp2627
S'EventTime'
p2628
S'66690684'
p2629
sg4
L1449974809649L
sS'recordCount'
p2630
g6
sS'EventType'
p2631
S'TYPE_VIEW_SCROLLED'
p2632
sS'PackageName'
p2633
S'com.xp.tugele'
p2634
sS'OutBounds'
p2635
S'Rect(0, 50 - 720, 1280)'
p2636
sS'Action'
p2637
S'[ ClassName: android.support.v4.view.ViewPager; Text: []; ContentDescription: null; ItemCount: -1; CurrentItemIndex: -1; IsEnabled: true; IsPassword: false; IsChecked: false; IsFullScreen: false; Scrollable: false; BeforeText: null; FromIndex: -1; ToIndex: -1; ScrollX: -1; ScrollY: -1; MaxScrollX: -1; MaxScrollY: -1; AddedCount: -1; RemovedCount: -1; ParcelableData: null ]'
p2638
sS'MovementGranularity'
p2639
g6
sa(dp2640
S'EventTime'
p2641
S'66690720'
p2642
sg4
L1449974809693L
sS'recordCount'
p2643
g6
sS'EventType'
p2644
S'TYPE_WINDOW_CONTENT_CHANGED'
p2645
sS'PackageName'
p2646
S'com.xp.tugele'
p2647
sS'OutBounds'
p2648
S'Rect(0, 0 - 720, 1280)'
p2649
sS'Action'
p2650
S'[ ClassName: android.widget.FrameLayout; Text: []; ContentDescription: null; ItemCount: -1; CurrentItemIndex: -1; IsEnabled: true; IsPassword: false; IsChecked: false; IsFullScreen: false; Scrollable: false; BeforeText: null; FromIndex: -1; ToIndex: -1; ScrollX: -1; ScrollY: -1; MaxScrollX: -1; MaxScrollY: -1; AddedCount: -1; RemovedCount: -1; ParcelableData: null ]'
p2651
sS'MovementGranularity'
p2652
g6
sa(dp2653
S'EventTime'
p2654
S'66690796'
p2655
sg4
L1449974809760L
sS'recordCount'
p2656
g6
sS'EventType'
p2657
S'TYPE_VIEW_SCROLLED'
p2658
sS'PackageName'
p2659
S'com.xp.tugele'
p2660
sS'OutBounds'
p2661
S'Rect(0, 50 - 720, 1280)'
p2662
sS'Action'
p2663
S'[ ClassName: android.support.v4.view.ViewPager; Text: []; ContentDescription: null; ItemCount: -1; CurrentItemIndex: -1; IsEnabled: true; IsPassword: false; IsChecked: false; IsFullScreen: false; Scrollable: false; BeforeText: null; FromIndex: -1; ToIndex: -1; ScrollX: -1; ScrollY: -1; MaxScrollX: -1; MaxScrollY: -1; AddedCount: -1; RemovedCount: -1; ParcelableData: null ]'
p2664
sS'MovementGranularity'
p2665
g6
sa(dp2666
S'EventTime'
p2667
S'66690924'
p2668
sg4
L1449974809890L
sS'recordCount'
p2669
g6
sS'EventType'
p2670
S'TYPE_WINDOW_CONTENT_CHANGED'
p2671
sS'PackageName'
p2672
S'com.xp.tugele'
p2673
sS'OutBounds'
p2674
S'Rect(0, 0 - 720, 1280)'
p2675
sS'Action'
p2676
S'[ ClassName: android.widget.FrameLayout; Text: []; ContentDescription: null; ItemCount: -1; CurrentItemIndex: -1; IsEnabled: true; IsPassword: false; IsChecked: false; IsFullScreen: false; Scrollable: false; BeforeText: null; FromIndex: -1; ToIndex: -1; ScrollX: -1; ScrollY: -1; MaxScrollX: -1; MaxScrollY: -1; AddedCount: -1; RemovedCount: -1; ParcelableData: null ]'
p2677
sS'MovementGranularity'
p2678
g6
sa(dp2679
S'EventTime'
p2680
S'66691945'
p2681
sg4
L1449974810914L
sS'recordCount'
p2682
g6
sS'EventType'
p2683
S'TYPE_WINDOW_STATE_CHANGED'
p2684
sS'PackageName'
p2685
S'com.xp.tugele'
p2686
sS'OutBounds'
p2687
S'Rect(0, 0 - 720, 1280)'
p2688
sS'Action'
p2689
S'[ ClassName: com.xp.ui.activity.SearchResultActivity; Text: [SearchResultActivity]; ContentDescription: null; ItemCount: -1; CurrentItemIndex: -1; IsEnabled: true; IsPassword: false; IsChecked: false; IsFullScreen: true; Scrollable: false; BeforeText: null; FromIndex: -1; ToIndex: -1; ScrollX: -1; ScrollY: -1; MaxScrollX: -1; MaxScrollY: -1; AddedCount: -1; RemovedCount: -1; ParcelableData: null ]'
p2690
sS'MovementGranularity'
p2691
g6
sa(dp2692
S'EventTime'
p2693
S'66692605'
p2694
sg4
L1449974811563L
sS'recordCount'
p2695
g6
sS'EventType'
p2696
S'TYPE_VIEW_CLICKED'
p2697
sS'PackageName'
p2698
S'com.xp.tugele'
p2699
sS'OutBounds'
p2700
S'Rect(0, 50 - 58, 146)'
p2701
sS'Action'
p2702
S'[ ClassName: android.widget.FrameLayout; Text: []; ContentDescription: null; ItemCount: -1; CurrentItemIndex: -1; IsEnabled: true; IsPassword: false; IsChecked: false; IsFullScreen: false; Scrollable: false; BeforeText: null; FromIndex: -1; ToIndex: -1; ScrollX: -1; ScrollY: -1; MaxScrollX: -1; MaxScrollY: -1; AddedCount: -1; RemovedCount: -1; ParcelableData: null ]'
p2703
sS'MovementGranularity'
p2704
g6
sa(dp2705
S'EventTime'
p2706
S'66692733'
p2707
sg4
L1449974811702L
sS'recordCount'
p2708
g6
sS'EventType'
p2709
S'TYPE_WINDOW_STATE_CHANGED'
p2710
sS'PackageName'
p2711
S'com.xp.tugele'
p2712
sS'OutBounds'
p2713
S'Rect(0, 0 - 720, 1280)'
p2714
sS'Action'
p2715
S'[ ClassName: com.xp.ui.MainActivity; Text: [\xe5\x9b\xbe\xe4\xb8\xaa\xe4\xb9\x90]; ContentDescription: null; ItemCount: -1; CurrentItemIndex: -1; IsEnabled: true; IsPassword: false; IsChecked: false; IsFullScreen: true; Scrollable: false; BeforeText: null; FromIndex: -1; ToIndex: -1; ScrollX: -1; ScrollY: -1; MaxScrollX: -1; MaxScrollY: -1; AddedCount: -1; RemovedCount: -1; ParcelableData: null ]'
p2716
sS'MovementGranularity'
p2717
g6
sa(dp2718
S'EventTime'
p2719
S'66692790'
p2720
sg4
L1449974811758L
sS'recordCount'
p2721
g6
sS'EventType'
p2722
S'TYPE_WINDOW_CONTENT_CHANGED'
p2723
sS'PackageName'
p2724
S'com.xp.tugele'
p2725
sS'OutBounds'
p2726
S'Rect(0, 50 - 720, 1175)'
p2727
sS'Action'
p2728
S'[ ClassName: android.widget.LinearLayout; Text: []; ContentDescription: null; ItemCount: -1; CurrentItemIndex: -1; IsEnabled: true; IsPassword: false; IsChecked: false; IsFullScreen: false; Scrollable: false; BeforeText: null; FromIndex: -1; ToIndex: -1; ScrollX: -1; ScrollY: -1; MaxScrollX: -1; MaxScrollY: -1; AddedCount: -1; RemovedCount: -1; ParcelableData: null ]'
p2729
sS'MovementGranularity'
p2730
g6
sa(dp2731
S'EventTime'
p2732
S'66694111'
p2733
sg4
L1449974813070L
sS'recordCount'
p2734
g6
sS'EventType'
p2735
S'TYPE_VIEW_CLICKED'
p2736
sS'PackageName'
p2737
S'com.xp.tugele'
p2738
sS'OutBounds'
p2739
S'Rect(0, 368 - 720, 438)'
p2740
sS'Action'
p2741
S'[ ClassName: android.widget.TextView; Text: [12306]; ContentDescription: null; ItemCount: -1; CurrentItemIndex: -1; IsEnabled: true; IsPassword: false; IsChecked: false; IsFullScreen: false; Scrollable: false; BeforeText: null; FromIndex: -1; ToIndex: -1; ScrollX: -1; ScrollY: -1; MaxScrollX: -1; MaxScrollY: -1; AddedCount: -1; RemovedCount: -1; ParcelableData: null ]'
p2742
sS'MovementGranularity'
p2743
g6
sa(dp2744
S'EventTime'
p2745
S'66694966'
p2746
sg4
L1449974813927L
sS'recordCount'
p2747
g6
sS'EventType'
p2748
S'TYPE_WINDOW_STATE_CHANGED'
p2749
sS'PackageName'
p2750
S'com.xp.tugele'
p2751
sS'OutBounds'
p2752
S'Rect(0, 0 - 720, 1280)'
p2753
sS'Action'
p2754
S'[ ClassName: com.xp.ui.activity.SearchResultActivity; Text: [SearchResultActivity]; ContentDescription: null; ItemCount: -1; CurrentItemIndex: -1; IsEnabled: true; IsPassword: false; IsChecked: false; IsFullScreen: true; Scrollable: false; BeforeText: null; FromIndex: -1; ToIndex: -1; ScrollX: -1; ScrollY: -1; MaxScrollX: -1; MaxScrollY: -1; AddedCount: -1; RemovedCount: -1; ParcelableData: null ]'
p2755
sS'MovementGranularity'
p2756
g6
sa(dp2757
S'EventTime'
p2758
S'66695072'
p2759
sg4
L1449974814036L
sS'recordCount'
p2760
g6
sS'EventType'
p2761
S'TYPE_WINDOW_CONTENT_CHANGED'
p2762
sS'PackageName'
p2763
S'com.xp.tugele'
p2764
sS'OutBounds'
p2765
S'Rect(0, 0 - 720, 1280)'
p2766
sS'Action'
p2767
S'[ ClassName: android.widget.FrameLayout; Text: []; ContentDescription: null; ItemCount: -1; CurrentItemIndex: -1; IsEnabled: true; IsPassword: false; IsChecked: false; IsFullScreen: false; Scrollable: false; BeforeText: null; FromIndex: -1; ToIndex: -1; ScrollX: -1; ScrollY: -1; MaxScrollX: -1; MaxScrollY: -1; AddedCount: -1; RemovedCount: -1; ParcelableData: null ]'
p2768
sS'MovementGranularity'
p2769
g6
sa(dp2770
S'EventTime'
p2771
S'66696269'
p2772
sg4
L1449974815250L
sS'recordCount'
p2773
g6
sS'EventType'
p2774
S'TYPE_WINDOW_CONTENT_CHANGED'
p2775
sS'PackageName'
p2776
S'com.xp.tugele'
p2777
sS'OutBounds'
p2778
S'Rect(0, 0 - 720, 1280)'
p2779
sS'Action'
p2780
S'[ ClassName: android.widget.FrameLayout; Text: []; ContentDescription: null; ItemCount: -1; CurrentItemIndex: -1; IsEnabled: true; IsPassword: false; IsChecked: false; IsFullScreen: false; Scrollable: false; BeforeText: null; FromIndex: -1; ToIndex: -1; ScrollX: -1; ScrollY: -1; MaxScrollX: -1; MaxScrollY: -1; AddedCount: -1; RemovedCount: -1; ParcelableData: null ]'
p2781
sS'MovementGranularity'
p2782
g6
sa(dp2783
S'EventTime'
p2784
S'66696558'
p2785
sg4
L1449974815541L
sS'recordCount'
p2786
g6
sS'EventType'
p2787
S'TYPE_WINDOW_CONTENT_CHANGED'
p2788
sS'PackageName'
p2789
S'com.xp.tugele'
p2790
sS'OutBounds'
p2791
S'Rect(0, 0 - 720, 1280)'
p2792
sS'Action'
p2793
S'[ ClassName: android.widget.FrameLayout; Text: []; ContentDescription: null; ItemCount: -1; CurrentItemIndex: -1; IsEnabled: true; IsPassword: false; IsChecked: false; IsFullScreen: false; Scrollable: false; BeforeText: null; FromIndex: -1; ToIndex: -1; ScrollX: -1; ScrollY: -1; MaxScrollX: -1; MaxScrollY: -1; AddedCount: -1; RemovedCount: -1; ParcelableData: null ]'
p2794
sS'MovementGranularity'
p2795
g6
sa(dp2796
S'EventTime'
p2797
S'66696694'
p2798
sg4
L1449974815680L
sS'recordCount'
p2799
g6
sS'EventType'
p2800
S'TYPE_WINDOW_CONTENT_CHANGED'
p2801
sS'PackageName'
p2802
S'com.xp.tugele'
p2803
sS'OutBounds'
p2804
S'Rect(0, 0 - 720, 1280)'
p2805
sS'Action'
p2806
S'[ ClassName: android.widget.FrameLayout; Text: []; ContentDescription: null; ItemCount: -1; CurrentItemIndex: -1; IsEnabled: true; IsPassword: false; IsChecked: false; IsFullScreen: false; Scrollable: false; BeforeText: null; FromIndex: -1; ToIndex: -1; ScrollX: -1; ScrollY: -1; MaxScrollX: -1; MaxScrollY: -1; AddedCount: -1; RemovedCount: -1; ParcelableData: null ]'
p2807
sS'MovementGranularity'
p2808
g6
sa(dp2809
S'EventTime'
p2810
S'66696827'
p2811
sg4
L1449974815814L
sS'recordCount'
p2812
g6
sS'EventType'
p2813
S'TYPE_WINDOW_CONTENT_CHANGED'
p2814
sS'PackageName'
p2815
S'com.xp.tugele'
p2816
sS'OutBounds'
p2817
S'Rect(0, 0 - 720, 1280)'
p2818
sS'Action'
p2819
S'[ ClassName: android.widget.FrameLayout; Text: []; ContentDescription: null; ItemCount: -1; CurrentItemIndex: -1; IsEnabled: true; IsPassword: false; IsChecked: false; IsFullScreen: false; Scrollable: false; BeforeText: null; FromIndex: -1; ToIndex: -1; ScrollX: -1; ScrollY: -1; MaxScrollX: -1; MaxScrollY: -1; AddedCount: -1; RemovedCount: -1; ParcelableData: null ]'
p2820
sS'MovementGranularity'
p2821
g6
sa(dp2822
S'EventTime'
p2823
S'66696958'
p2824
sg4
L1449974815943L
sS'recordCount'
p2825
g6
sS'EventType'
p2826
S'TYPE_WINDOW_CONTENT_CHANGED'
p2827
sS'PackageName'
p2828
S'com.xp.tugele'
p2829
sS'OutBounds'
p2830
S'Rect(0, 0 - 720, 1280)'
p2831
sS'Action'
p2832
S'[ ClassName: android.widget.FrameLayout; Text: []; ContentDescription: null; ItemCount: -1; CurrentItemIndex: -1; IsEnabled: true; IsPassword: false; IsChecked: false; IsFullScreen: false; Scrollable: false; BeforeText: null; FromIndex: -1; ToIndex: -1; ScrollX: -1; ScrollY: -1; MaxScrollX: -1; MaxScrollY: -1; AddedCount: -1; RemovedCount: -1; ParcelableData: null ]'
p2833
sS'MovementGranularity'
p2834
g6
sa(dp2835
S'EventTime'
p2836
S'66696982'
p2837
sg4
L1449974815943L
sS'recordCount'
p2838
g6
sS'EventType'
p2839
S'TYPE_VIEW_CLICKED'
p2840
sS'PackageName'
p2841
S'com.xp.tugele'
p2842
sS'OutBounds'
p2843
S'Rect(364, 150 - 716, 656)'
p2844
sS'Action'
p2845
S'[ ClassName: android.widget.ImageView; Text: []; ContentDescription: null; ItemCount: -1; CurrentItemIndex: -1; IsEnabled: true; IsPassword: false; IsChecked: false; IsFullScreen: false; Scrollable: false; BeforeText: null; FromIndex: -1; ToIndex: -1; ScrollX: -1; ScrollY: -1; MaxScrollX: -1; MaxScrollY: -1; AddedCount: -1; RemovedCount: -1; ParcelableData: null ]'
p2846
sS'MovementGranularity'
p2847
g6
sa(dp2848
S'EventTime'
p2849
S'66697153'
p2850
sg4
L1449974816118L
sS'recordCount'
p2851
g6
sS'EventType'
p2852
S'TYPE_WINDOW_STATE_CHANGED'
p2853
sS'PackageName'
p2854
S'com.xp.tugele'
p2855
sS'OutBounds'
p2856
S'Rect(0, 0 - 720, 1280)'
p2857
sS'Action'
p2858
S'[ ClassName: com.xp.ui.activity.ImageScanningActivity; Text: [\xe5\x9b\xbe\xe4\xb8\xaa\xe4\xb9\x90]; ContentDescription: null; ItemCount: -1; CurrentItemIndex: -1; IsEnabled: true; IsPassword: false; IsChecked: false; IsFullScreen: true; Scrollable: false; BeforeText: null; FromIndex: -1; ToIndex: -1; ScrollX: -1; ScrollY: -1; MaxScrollX: -1; MaxScrollY: -1; AddedCount: -1; RemovedCount: -1; ParcelableData: null ]'
p2859
sS'MovementGranularity'
p2860
g6
sa(dp2861
S'EventTime'
p2862
S'66697193'
p2863
sg4
L1449974816159L
sS'recordCount'
p2864
g6
sS'EventType'
p2865
S'TYPE_WINDOW_CONTENT_CHANGED'
p2866
sS'PackageName'
p2867
S'com.xp.tugele'
p2868
sS'OutBounds'
p2869
S'Rect(0, 0 - 720, 1280)'
p2870
sS'Action'
p2871
S'[ ClassName: android.widget.FrameLayout; Text: []; ContentDescription: null; ItemCount: -1; CurrentItemIndex: -1; IsEnabled: true; IsPassword: false; IsChecked: false; IsFullScreen: false; Scrollable: false; BeforeText: null; FromIndex: -1; ToIndex: -1; ScrollX: -1; ScrollY: -1; MaxScrollX: -1; MaxScrollY: -1; AddedCount: -1; RemovedCount: -1; ParcelableData: null ]'
p2872
sS'MovementGranularity'
p2873
g6
sa(dp2874
S'EventTime'
p2875
S'66698736'
p2876
sg4
L1449974817702L
sS'recordCount'
p2877
g6
sS'EventType'
p2878
S'TYPE_VIEW_SCROLLED'
p2879
sS'PackageName'
p2880
S'com.xp.tugele'
p2881
sS'OutBounds'
p2882
S'Rect(0, 50 - 720, 1280)'
p2883
sS'Action'
p2884
S'[ ClassName: android.support.v4.view.ViewPager; Text: []; ContentDescription: null; ItemCount: -1; CurrentItemIndex: -1; IsEnabled: true; IsPassword: false; IsChecked: false; IsFullScreen: false; Scrollable: false; BeforeText: null; FromIndex: -1; ToIndex: -1; ScrollX: -1; ScrollY: -1; MaxScrollX: -1; MaxScrollY: -1; AddedCount: -1; RemovedCount: -1; ParcelableData: null ]'
p2885
sS'MovementGranularity'
p2886
g6
sa(dp2887
S'EventTime'
p2888
S'66698851'
p2889
sg4
L1449974817812L
sS'recordCount'
p2890
g6
sS'EventType'
p2891
S'TYPE_VIEW_SCROLLED'
p2892
sS'PackageName'
p2893
S'com.xp.tugele'
p2894
sS'OutBounds'
p2895
S'Rect(0, 50 - 720, 1280)'
p2896
sS'Action'
p2897
S'[ ClassName: android.support.v4.view.ViewPager; Text: []; ContentDescription: null; ItemCount: -1; CurrentItemIndex: -1; IsEnabled: true; IsPassword: false; IsChecked: false; IsFullScreen: false; Scrollable: false; BeforeText: null; FromIndex: -1; ToIndex: -1; ScrollX: -1; ScrollY: -1; MaxScrollX: -1; MaxScrollY: -1; AddedCount: -1; RemovedCount: -1; ParcelableData: null ]'
p2898
sS'MovementGranularity'
p2899
g6
sa(dp2900
S'EventTime'
p2901
S'66698965'
p2902
sg4
L1449974817930L
sS'recordCount'
p2903
g6
sS'EventType'
p2904
S'TYPE_VIEW_SCROLLED'
p2905
sS'PackageName'
p2906
S'com.xp.tugele'
p2907
sS'OutBounds'
p2908
S'Rect(0, 50 - 720, 1280)'
p2909
sS'Action'
p2910
S'[ ClassName: android.support.v4.view.ViewPager; Text: []; ContentDescription: null; ItemCount: -1; CurrentItemIndex: -1; IsEnabled: true; IsPassword: false; IsChecked: false; IsFullScreen: false; Scrollable: false; BeforeText: null; FromIndex: -1; ToIndex: -1; ScrollX: -1; ScrollY: -1; MaxScrollX: -1; MaxScrollY: -1; AddedCount: -1; RemovedCount: -1; ParcelableData: null ]'
p2911
sS'MovementGranularity'
p2912
g6
sa(dp2913
S'EventTime'
p2914
S'66699000'
p2915
sg4
L1449974817966L
sS'recordCount'
p2916
g6
sS'EventType'
p2917
S'TYPE_WINDOW_CONTENT_CHANGED'
p2918
sS'PackageName'
p2919
S'com.xp.tugele'
p2920
sS'OutBounds'
p2921
S'Rect(0, 0 - 720, 1280)'
p2922
sS'Action'
p2923
S'[ ClassName: android.widget.FrameLayout; Text: []; ContentDescription: null; ItemCount: -1; CurrentItemIndex: -1; IsEnabled: true; IsPassword: false; IsChecked: false; IsFullScreen: false; Scrollable: false; BeforeText: null; FromIndex: -1; ToIndex: -1; ScrollX: -1; ScrollY: -1; MaxScrollX: -1; MaxScrollY: -1; AddedCount: -1; RemovedCount: -1; ParcelableData: null ]'
p2924
sS'MovementGranularity'
p2925
g6
sa(dp2926
S'EventTime'
p2927
S'66699081'
p2928
sg4
L1449974818045L
sS'recordCount'
p2929
g6
sS'EventType'
p2930
S'TYPE_VIEW_SCROLLED'
p2931
sS'PackageName'
p2932
S'com.xp.tugele'
p2933
sS'OutBounds'
p2934
S'Rect(0, 50 - 720, 1280)'
p2935
sS'Action'
p2936
S'[ ClassName: android.support.v4.view.ViewPager; Text: []; ContentDescription: null; ItemCount: -1; CurrentItemIndex: -1; IsEnabled: true; IsPassword: false; IsChecked: false; IsFullScreen: false; Scrollable: false; BeforeText: null; FromIndex: -1; ToIndex: -1; ScrollX: -1; ScrollY: -1; MaxScrollX: -1; MaxScrollY: -1; AddedCount: -1; RemovedCount: -1; ParcelableData: null ]'
p2937
sS'MovementGranularity'
p2938
g6
sa(dp2939
S'EventTime'
p2940
S'66699195'
p2941
sg4
L1449974818159L
sS'recordCount'
p2942
g6
sS'EventType'
p2943
S'TYPE_VIEW_SCROLLED'
p2944
sS'PackageName'
p2945
S'com.xp.tugele'
p2946
sS'OutBounds'
p2947
S'Rect(0, 50 - 720, 1280)'
p2948
sS'Action'
p2949
S'[ ClassName: android.support.v4.view.ViewPager; Text: []; ContentDescription: null; ItemCount: -1; CurrentItemIndex: -1; IsEnabled: true; IsPassword: false; IsChecked: false; IsFullScreen: false; Scrollable: false; BeforeText: null; FromIndex: -1; ToIndex: -1; ScrollX: -1; ScrollY: -1; MaxScrollX: -1; MaxScrollY: -1; AddedCount: -1; RemovedCount: -1; ParcelableData: null ]'
p2950
sS'MovementGranularity'
p2951
g6
sa(dp2952
S'EventTime'
p2953
S'66699385'
p2954
sg4
L1449974818356L
sS'recordCount'
p2955
g6
sS'EventType'
p2956
S'TYPE_WINDOW_CONTENT_CHANGED'
p2957
sS'PackageName'
p2958
S'com.xp.tugele'
p2959
sS'OutBounds'
p2960
S'Rect(0, 0 - 720, 1280)'
p2961
sS'Action'
p2962
S'[ ClassName: android.widget.FrameLayout; Text: []; ContentDescription: null; ItemCount: -1; CurrentItemIndex: -1; IsEnabled: true; IsPassword: false; IsChecked: false; IsFullScreen: false; Scrollable: false; BeforeText: null; FromIndex: -1; ToIndex: -1; ScrollX: -1; ScrollY: -1; MaxScrollX: -1; MaxScrollY: -1; AddedCount: -1; RemovedCount: -1; ParcelableData: null ]'
p2963
sS'MovementGranularity'
p2964
g6
sa(dp2965
S'EventTime'
p2966
S'66699574'
p2967
sg4
L1449974818539L
sS'recordCount'
p2968
g6
sS'EventType'
p2969
S'TYPE_VIEW_SCROLLED'
p2970
sS'PackageName'
p2971
S'com.xp.tugele'
p2972
sS'OutBounds'
p2973
S'Rect(0, 50 - 720, 1280)'
p2974
sS'Action'
p2975
S'[ ClassName: android.support.v4.view.ViewPager; Text: []; ContentDescription: null; ItemCount: -1; CurrentItemIndex: -1; IsEnabled: true; IsPassword: false; IsChecked: false; IsFullScreen: false; Scrollable: false; BeforeText: null; FromIndex: -1; ToIndex: -1; ScrollX: -1; ScrollY: -1; MaxScrollX: -1; MaxScrollY: -1; AddedCount: -1; RemovedCount: -1; ParcelableData: null ]'
p2976
sS'MovementGranularity'
p2977
g6
sa(dp2978
S'EventTime'
p2979
S'66699688'
p2980
sg4
L1449974818656L
sS'recordCount'
p2981
g6
sS'EventType'
p2982
S'TYPE_VIEW_SCROLLED'
p2983
sS'PackageName'
p2984
S'com.xp.tugele'
p2985
sS'OutBounds'
p2986
S'Rect(0, 50 - 720, 1280)'
p2987
sS'Action'
p2988
S'[ ClassName: android.support.v4.view.ViewPager; Text: []; ContentDescription: null; ItemCount: -1; CurrentItemIndex: -1; IsEnabled: true; IsPassword: false; IsChecked: false; IsFullScreen: false; Scrollable: false; BeforeText: null; FromIndex: -1; ToIndex: -1; ScrollX: -1; ScrollY: -1; MaxScrollX: -1; MaxScrollY: -1; AddedCount: -1; RemovedCount: -1; ParcelableData: null ]'
p2989
sS'MovementGranularity'
p2990
g6
sa(dp2991
S'EventTime'
p2992
S'66699845'
p2993
sg4
L1449974818815L
sS'recordCount'
p2994
g6
sS'EventType'
p2995
S'TYPE_WINDOW_CONTENT_CHANGED'
p2996
sS'PackageName'
p2997
S'com.xp.tugele'
p2998
sS'OutBounds'
p2999
S'Rect(0, 0 - 720, 1280)'
p3000
sS'Action'
p3001
S'[ ClassName: android.widget.FrameLayout; Text: []; ContentDescription: null; ItemCount: -1; CurrentItemIndex: -1; IsEnabled: true; IsPassword: false; IsChecked: false; IsFullScreen: false; Scrollable: false; BeforeText: null; FromIndex: -1; ToIndex: -1; ScrollX: -1; ScrollY: -1; MaxScrollX: -1; MaxScrollY: -1; AddedCount: -1; RemovedCount: -1; ParcelableData: null ]'
p3002
sS'MovementGranularity'
p3003
g6
sa(dp3004
S'EventTime'
p3005
S'66699869'
p3006
sg4
L1449974818835L
sS'recordCount'
p3007
g6
sS'EventType'
p3008
S'TYPE_VIEW_SCROLLED'
p3009
sS'PackageName'
p3010
S'com.xp.tugele'
p3011
sS'OutBounds'
p3012
S'Rect(0, 50 - 720, 1280)'
p3013
sS'Action'
p3014
S'[ ClassName: android.support.v4.view.ViewPager; Text: []; ContentDescription: null; ItemCount: -1; CurrentItemIndex: -1; IsEnabled: true; IsPassword: false; IsChecked: false; IsFullScreen: false; Scrollable: false; BeforeText: null; FromIndex: -1; ToIndex: -1; ScrollX: -1; ScrollY: -1; MaxScrollX: -1; MaxScrollY: -1; AddedCount: -1; RemovedCount: -1; ParcelableData: null ]'
p3015
sS'MovementGranularity'
p3016
g6
sa(dp3017
S'EventTime'
p3018
S'66700005'
p3019
sg4
L1449974818971L
sS'recordCount'
p3020
g6
sS'EventType'
p3021
S'TYPE_VIEW_SCROLLED'
p3022
sS'PackageName'
p3023
S'com.xp.tugele'
p3024
sS'OutBounds'
p3025
S'Rect(0, 50 - 720, 1280)'
p3026
sS'Action'
p3027
S'[ ClassName: android.support.v4.view.ViewPager; Text: []; ContentDescription: null; ItemCount: -1; CurrentItemIndex: -1; IsEnabled: true; IsPassword: false; IsChecked: false; IsFullScreen: false; Scrollable: false; BeforeText: null; FromIndex: -1; ToIndex: -1; ScrollX: -1; ScrollY: -1; MaxScrollX: -1; MaxScrollY: -1; AddedCount: -1; RemovedCount: -1; ParcelableData: null ]'
p3028
sS'MovementGranularity'
p3029
g6
sa(dp3030
S'EventTime'
p3031
S'66700100'
p3032
sg4
L1449974819062L
sS'recordCount'
p3033
g6
sS'EventType'
p3034
S'TYPE_WINDOW_CONTENT_CHANGED'
p3035
sS'PackageName'
p3036
S'com.xp.tugele'
p3037
sS'OutBounds'
p3038
S'Rect(0, 0 - 720, 1280)'
p3039
sS'Action'
p3040
S'[ ClassName: android.widget.FrameLayout; Text: []; ContentDescription: null; ItemCount: -1; CurrentItemIndex: -1; IsEnabled: true; IsPassword: false; IsChecked: false; IsFullScreen: false; Scrollable: false; BeforeText: null; FromIndex: -1; ToIndex: -1; ScrollX: -1; ScrollY: -1; MaxScrollX: -1; MaxScrollY: -1; AddedCount: -1; RemovedCount: -1; ParcelableData: null ]'
p3041
sS'MovementGranularity'
p3042
g6
sa(dp3043
S'EventTime'
p3044
S'66700134'
p3045
sg4
L1449974819095L
sS'recordCount'
p3046
g6
sS'EventType'
p3047
S'TYPE_VIEW_SCROLLED'
p3048
sS'PackageName'
p3049
S'com.xp.tugele'
p3050
sS'OutBounds'
p3051
S'Rect(0, 50 - 720, 1280)'
p3052
sS'Action'
p3053
S'[ ClassName: android.support.v4.view.ViewPager; Text: []; ContentDescription: null; ItemCount: -1; CurrentItemIndex: -1; IsEnabled: true; IsPassword: false; IsChecked: false; IsFullScreen: false; Scrollable: false; BeforeText: null; FromIndex: -1; ToIndex: -1; ScrollX: -1; ScrollY: -1; MaxScrollX: -1; MaxScrollY: -1; AddedCount: -1; RemovedCount: -1; ParcelableData: null ]'
p3054
sS'MovementGranularity'
p3055
g6
sa(dp3056
S'EventTime'
p3057
S'66700248'
p3058
sg4
L1449974819227L
sS'recordCount'
p3059
g6
sS'EventType'
p3060
S'TYPE_VIEW_SCROLLED'
p3061
sS'PackageName'
p3062
S'com.xp.tugele'
p3063
sS'OutBounds'
p3064
S'Rect(0, 50 - 720, 1280)'
p3065
sS'Action'
p3066
S'[ ClassName: android.support.v4.view.ViewPager; Text: []; ContentDescription: null; ItemCount: -1; CurrentItemIndex: -1; IsEnabled: true; IsPassword: false; IsChecked: false; IsFullScreen: false; Scrollable: false; BeforeText: null; FromIndex: -1; ToIndex: -1; ScrollX: -1; ScrollY: -1; MaxScrollX: -1; MaxScrollY: -1; AddedCount: -1; RemovedCount: -1; ParcelableData: null ]'
p3067
sS'MovementGranularity'
p3068
g6
sa(dp3069
S'EventTime'
p3070
S'66700299'
p3071
sg4
L1449974819266L
sS'recordCount'
p3072
g6
sS'EventType'
p3073
S'TYPE_WINDOW_CONTENT_CHANGED'
p3074
sS'PackageName'
p3075
S'com.xp.tugele'
p3076
sS'OutBounds'
p3077
S'Rect(0, 0 - 720, 1280)'
p3078
sS'Action'
p3079
S'[ ClassName: android.widget.FrameLayout; Text: []; ContentDescription: null; ItemCount: -1; CurrentItemIndex: -1; IsEnabled: true; IsPassword: false; IsChecked: false; IsFullScreen: false; Scrollable: false; BeforeText: null; FromIndex: -1; ToIndex: -1; ScrollX: -1; ScrollY: -1; MaxScrollX: -1; MaxScrollY: -1; AddedCount: -1; RemovedCount: -1; ParcelableData: null ]'
p3080
sS'MovementGranularity'
p3081
g6
sa(dp3082
S'EventTime'
p3083
S'66700369'
p3084
sg4
L1449974819334L
sS'recordCount'
p3085
g6
sS'EventType'
p3086
S'TYPE_VIEW_SCROLLED'
p3087
sS'PackageName'
p3088
S'com.xp.tugele'
p3089
sS'OutBounds'
p3090
S'Rect(0, 50 - 720, 1280)'
p3091
sS'Action'
p3092
S'[ ClassName: android.support.v4.view.ViewPager; Text: []; ContentDescription: null; ItemCount: -1; CurrentItemIndex: -1; IsEnabled: true; IsPassword: false; IsChecked: false; IsFullScreen: false; Scrollable: false; BeforeText: null; FromIndex: -1; ToIndex: -1; ScrollX: -1; ScrollY: -1; MaxScrollX: -1; MaxScrollY: -1; AddedCount: -1; RemovedCount: -1; ParcelableData: null ]'
p3093
sS'MovementGranularity'
p3094
g6
sa(dp3095
S'EventTime'
p3096
S'66700481'
p3097
sg4
L1449974819447L
sS'recordCount'
p3098
g6
sS'EventType'
p3099
S'TYPE_VIEW_SCROLLED'
p3100
sS'PackageName'
p3101
S'com.xp.tugele'
p3102
sS'OutBounds'
p3103
S'Rect(0, 50 - 720, 1280)'
p3104
sS'Action'
p3105
S'[ ClassName: android.support.v4.view.ViewPager; Text: []; ContentDescription: null; ItemCount: -1; CurrentItemIndex: -1; IsEnabled: true; IsPassword: false; IsChecked: false; IsFullScreen: false; Scrollable: false; BeforeText: null; FromIndex: -1; ToIndex: -1; ScrollX: -1; ScrollY: -1; MaxScrollX: -1; MaxScrollY: -1; AddedCount: -1; RemovedCount: -1; ParcelableData: null ]'
p3106
sS'MovementGranularity'
p3107
g6
sa(dp3108
S'EventTime'
p3109
S'66700595'
p3110
sg4
L1449974819562L
sS'recordCount'
p3111
g6
sS'EventType'
p3112
S'TYPE_VIEW_SCROLLED'
p3113
sS'PackageName'
p3114
S'com.xp.tugele'
p3115
sS'OutBounds'
p3116
S'Rect(0, 50 - 720, 1280)'
p3117
sS'Action'
p3118
S'[ ClassName: android.support.v4.view.ViewPager; Text: []; ContentDescription: null; ItemCount: -1; CurrentItemIndex: -1; IsEnabled: true; IsPassword: false; IsChecked: false; IsFullScreen: false; Scrollable: false; BeforeText: null; FromIndex: -1; ToIndex: -1; ScrollX: -1; ScrollY: -1; MaxScrollX: -1; MaxScrollY: -1; AddedCount: -1; RemovedCount: -1; ParcelableData: null ]'
p3119
sS'MovementGranularity'
p3120
g6
sa(dp3121
S'EventTime'
p3122
S'66700661'
p3123
sg4
L1449974819626L
sS'recordCount'
p3124
g6
sS'EventType'
p3125
S'TYPE_WINDOW_CONTENT_CHANGED'
p3126
sS'PackageName'
p3127
S'com.xp.tugele'
p3128
sS'OutBounds'
p3129
S'Rect(0, 0 - 720, 1280)'
p3130
sS'Action'
p3131
S'[ ClassName: android.widget.FrameLayout; Text: []; ContentDescription: null; ItemCount: -1; CurrentItemIndex: -1; IsEnabled: true; IsPassword: false; IsChecked: false; IsFullScreen: false; Scrollable: false; BeforeText: null; FromIndex: -1; ToIndex: -1; ScrollX: -1; ScrollY: -1; MaxScrollX: -1; MaxScrollY: -1; AddedCount: -1; RemovedCount: -1; ParcelableData: null ]'
p3132
sS'MovementGranularity'
p3133
g6
sa(dp3134
S'EventTime'
p3135
S'66700793'
p3136
sg4
L1449974819760L
sS'recordCount'
p3137
g6
sS'EventType'
p3138
S'TYPE_WINDOW_CONTENT_CHANGED'
p3139
sS'PackageName'
p3140
S'com.xp.tugele'
p3141
sS'OutBounds'
p3142
S'Rect(0, 0 - 720, 1280)'
p3143
sS'Action'
p3144
S'[ ClassName: android.widget.FrameLayout; Text: []; ContentDescription: null; ItemCount: -1; CurrentItemIndex: -1; IsEnabled: true; IsPassword: false; IsChecked: false; IsFullScreen: false; Scrollable: false; BeforeText: null; FromIndex: -1; ToIndex: -1; ScrollX: -1; ScrollY: -1; MaxScrollX: -1; MaxScrollY: -1; AddedCount: -1; RemovedCount: -1; ParcelableData: null ]'
p3145
sS'MovementGranularity'
p3146
g6
sa(dp3147
S'EventTime'
p3148
S'66701629'
p3149
sg4
L1449974820593L
sS'recordCount'
p3150
g6
sS'EventType'
p3151
S'TYPE_VIEW_SCROLLED'
p3152
sS'PackageName'
p3153
S'com.xp.tugele'
p3154
sS'OutBounds'
p3155
S'Rect(0, 50 - 720, 1280)'
p3156
sS'Action'
p3157
S'[ ClassName: android.support.v4.view.ViewPager; Text: []; ContentDescription: null; ItemCount: -1; CurrentItemIndex: -1; IsEnabled: true; IsPassword: false; IsChecked: false; IsFullScreen: false; Scrollable: false; BeforeText: null; FromIndex: -1; ToIndex: -1; ScrollX: -1; ScrollY: -1; MaxScrollX: -1; MaxScrollY: -1; AddedCount: -1; RemovedCount: -1; ParcelableData: null ]'
p3158
sS'MovementGranularity'
p3159
g6
sa(dp3160
S'EventTime'
p3161
S'66701745'
p3162
sg4
L1449974820709L
sS'recordCount'
p3163
g6
sS'EventType'
p3164
S'TYPE_VIEW_SCROLLED'
p3165
sS'PackageName'
p3166
S'com.xp.tugele'
p3167
sS'OutBounds'
p3168
S'Rect(0, 50 - 720, 1280)'
p3169
sS'Action'
p3170
S'[ ClassName: android.support.v4.view.ViewPager; Text: []; ContentDescription: null; ItemCount: -1; CurrentItemIndex: -1; IsEnabled: true; IsPassword: false; IsChecked: false; IsFullScreen: false; Scrollable: false; BeforeText: null; FromIndex: -1; ToIndex: -1; ScrollX: -1; ScrollY: -1; MaxScrollX: -1; MaxScrollY: -1; AddedCount: -1; RemovedCount: -1; ParcelableData: null ]'
p3171
sS'MovementGranularity'
p3172
g6
sa(dp3173
S'EventTime'
p3174
S'66701901'
p3175
sg4
L1449974820881L
sS'recordCount'
p3176
g6
sS'EventType'
p3177
S'TYPE_VIEW_SCROLLED'
p3178
sS'PackageName'
p3179
S'com.xp.tugele'
p3180
sS'OutBounds'
p3181
S'Rect(0, 50 - 720, 1280)'
p3182
sS'Action'
p3183
S'[ ClassName: android.support.v4.view.ViewPager; Text: []; ContentDescription: null; ItemCount: -1; CurrentItemIndex: -1; IsEnabled: true; IsPassword: false; IsChecked: false; IsFullScreen: false; Scrollable: false; BeforeText: null; FromIndex: -1; ToIndex: -1; ScrollX: -1; ScrollY: -1; MaxScrollX: -1; MaxScrollY: -1; AddedCount: -1; RemovedCount: -1; ParcelableData: null ]'
p3184
sS'MovementGranularity'
p3185
g6
sa(dp3186
S'EventTime'
p3187
S'66702741'
p3188
sg4
L1449974821700L
sS'recordCount'
p3189
g6
sS'EventType'
p3190
S'TYPE_VIEW_CLICKED'
p3191
sS'PackageName'
p3192
S'com.xp.tugele'
p3193
sS'OutBounds'
p3194
S'Rect(0, 1190 - 359, 1280)'
p3195
sS'Action'
p3196
S'[ ClassName: android.widget.LinearLayout; Text: [\xe4\xb8\x8b\xe8\xbd\xbd]; ContentDescription: null; ItemCount: -1; CurrentItemIndex: -1; IsEnabled: true; IsPassword: false; IsChecked: false; IsFullScreen: false; Scrollable: false; BeforeText: null; FromIndex: -1; ToIndex: -1; ScrollX: -1; ScrollY: -1; MaxScrollX: -1; MaxScrollY: -1; AddedCount: -1; RemovedCount: -1; ParcelableData: null ]'
p3197
sS'MovementGranularity'
p3198
g6
sa(dp3199
S'EventTime'
p3200
S'66703218'
p3201
sg4
L1449974822176L
sS'recordCount'
p3202
g6
sS'EventType'
p3203
S'TYPE_NOTIFICATION_STATE_CHANGED'
p3204
sS'PackageName'
p3205
S'com.xp.tugele'
p3206
sS'Action'
p3207
S'[ ClassName: android.widget.Toast$TN; Text: [\xe4\xb8\x8b\xe8\xbd\xbd\xe6\x88\x90\xe5\x8a\x9f]; ContentDescription: null; ItemCount: -1; CurrentItemIndex: -1; IsEnabled: false; IsPassword: false; IsChecked: false; IsFullScreen: false; Scrollable: false; BeforeText: null; FromIndex: -1; ToIndex: -1; ScrollX: -1; ScrollY: -1; MaxScrollX: -1; MaxScrollY: -1; AddedCount: -1; RemovedCount: -1; ParcelableData: null ]'
p3208
sS'MovementGranularity'
p3209
g6
sa(dp3210
S'EventTime'
p3211
S'66703695'
p3212
sg4
L1449974822654L
sS'recordCount'
p3213
g6
sS'EventType'
p3214
S'TYPE_VIEW_CLICKED'
p3215
sS'PackageName'
p3216
S'com.xp.tugele'
p3217
sS'OutBounds'
p3218
S'Rect(0, 1190 - 359, 1280)'
p3219
sS'Action'
p3220
S'[ ClassName: android.widget.LinearLayout; Text: [\xe4\xb8\x8b\xe8\xbd\xbd]; ContentDescription: null; ItemCount: -1; CurrentItemIndex: -1; IsEnabled: true; IsPassword: false; IsChecked: false; IsFullScreen: false; Scrollable: false; BeforeText: null; FromIndex: -1; ToIndex: -1; ScrollX: -1; ScrollY: -1; MaxScrollX: -1; MaxScrollY: -1; AddedCount: -1; RemovedCount: -1; ParcelableData: null ]'
p3221
sS'MovementGranularity'
p3222
g6
sa(dp3223
S'EventTime'
p3224
S'66704147'
p3225
sg4
L1449974823106L
sS'recordCount'
p3226
g6
sS'EventType'
p3227
S'TYPE_VIEW_CLICKED'
p3228
sS'PackageName'
p3229
S'com.xp.tugele'
p3230
sS'OutBounds'
p3231
S'Rect(361, 1190 - 720, 1280)'
p3232
sS'Action'
p3233
S'[ ClassName: android.widget.LinearLayout; Text: [\xe5\x88\x86\xe4\xba\xab]; ContentDescription: null; ItemCount: -1; CurrentItemIndex: -1; IsEnabled: true; IsPassword: false; IsChecked: false; IsFullScreen: false; Scrollable: false; BeforeText: null; FromIndex: -1; ToIndex: -1; ScrollX: -1; ScrollY: -1; MaxScrollX: -1; MaxScrollY: -1; AddedCount: -1; RemovedCount: -1; ParcelableData: null ]'
p3234
sS'MovementGranularity'
p3235
g6
sa(dp3236
S'EventTime'
p3237
S'66704472'
p3238
sg4
L1449974823436L
sS'recordCount'
p3239
g6
sS'EventType'
p3240
S'TYPE_VIEW_SCROLLED'
p3241
sS'PackageName'
p3242
S'com.xp.tugele'
p3243
sS'OutBounds'
p3244
S'Rect(40, 481 - 680, 823)'
p3245
sS'Action'
p3246
S'[ ClassName: android.widget.GridView; Text: []; ContentDescription: null; ItemCount: 5; CurrentItemIndex: -1; IsEnabled: true; IsPassword: false; IsChecked: false; IsFullScreen: false; Scrollable: false; BeforeText: null; FromIndex: 0; ToIndex: 4; ScrollX: -1; ScrollY: -1; MaxScrollX: -1; MaxScrollY: -1; AddedCount: -1; RemovedCount: -1; ParcelableData: null ]'
p3247
sS'MovementGranularity'
p3248
g6
sa(dp3249
S'EventTime'
p3250
S'66705212'
p3251
sg4
L1449974824170L
sS'recordCount'
p3252
g6
sS'EventType'
p3253
S'TYPE_NOTIFICATION_STATE_CHANGED'
p3254
sS'PackageName'
p3255
S'com.xp.tugele'
p3256
sS'Action'
p3257
S'[ ClassName: android.widget.Toast$TN; Text: [\xe4\xb8\x8b\xe8\xbd\xbd\xe6\x88\x90\xe5\x8a\x9f]; ContentDescription: null; ItemCount: -1; CurrentItemIndex: -1; IsEnabled: false; IsPassword: false; IsChecked: false; IsFullScreen: false; Scrollable: false; BeforeText: null; FromIndex: -1; ToIndex: -1; ScrollX: -1; ScrollY: -1; MaxScrollX: -1; MaxScrollY: -1; AddedCount: -1; RemovedCount: -1; ParcelableData: null ]'
p3258
sS'MovementGranularity'
p3259
g6
sa(dp3260
S'EventTime'
p3261
S'66705252'
p3262
sg4
L1449974824210L
sS'recordCount'
p3263
g6
sS'EventType'
p3264
S'TYPE_VIEW_CLICKED'
p3265
sS'PackageName'
p3266
S'com.xp.tugele'
p3267
sS'OutBounds'
p3268
S'Rect(316, 823 - 404, 911)'
p3269
sS'Action'
p3270
S'[ ClassName: android.widget.ImageView; Text: []; ContentDescription: null; ItemCount: -1; CurrentItemIndex: -1; IsEnabled: true; IsPassword: false; IsChecked: false; IsFullScreen: false; Scrollable: false; BeforeText: null; FromIndex: -1; ToIndex: -1; ScrollX: -1; ScrollY: -1; MaxScrollX: -1; MaxScrollY: -1; AddedCount: -1; RemovedCount: -1; ParcelableData: null ]'
p3271
sS'MovementGranularity'
p3272
g6
sa(dp3273
S'EventTime'
p3274
S'66705281'
p3275
sg4
L1449974824245L
sS'recordCount'
p3276
g6
sS'EventType'
p3277
S'TYPE_WINDOW_STATE_CHANGED'
p3278
sS'PackageName'
p3279
S'com.xp.tugele'
p3280
sS'OutBounds'
p3281
S'Rect(0, 0 - 720, 1280)'
p3282
sS'Action'
p3283
S'[ ClassName: com.xp.ui.activity.ImageScanningActivity; Text: [\xe5\x9b\xbe\xe4\xb8\xaa\xe4\xb9\x90]; ContentDescription: null; ItemCount: -1; CurrentItemIndex: -1; IsEnabled: true; IsPassword: false; IsChecked: false; IsFullScreen: true; Scrollable: false; BeforeText: null; FromIndex: -1; ToIndex: -1; ScrollX: -1; ScrollY: -1; MaxScrollX: -1; MaxScrollY: -1; AddedCount: -1; RemovedCount: -1; ParcelableData: null ]'
p3284
sS'MovementGranularity'
p3285
g6
sa(dp3286
S'EventTime'
p3287
S'66705378'
p3288
sg4
L1449974824343L
sS'recordCount'
p3289
g6
sS'EventType'
p3290
S'TYPE_WINDOW_CONTENT_CHANGED'
p3291
sS'PackageName'
p3292
S'com.xp.tugele'
p3293
sS'OutBounds'
p3294
S'Rect(0, 0 - 720, 1280)'
p3295
sS'Action'
p3296
S'[ ClassName: android.widget.FrameLayout; Text: []; ContentDescription: null; ItemCount: -1; CurrentItemIndex: -1; IsEnabled: true; IsPassword: false; IsChecked: false; IsFullScreen: false; Scrollable: false; BeforeText: null; FromIndex: -1; ToIndex: -1; ScrollX: -1; ScrollY: -1; MaxScrollX: -1; MaxScrollY: -1; AddedCount: -1; RemovedCount: -1; ParcelableData: null ]'
p3297
sS'MovementGranularity'
p3298
g6
sa(dp3299
S'EventTime'
p3300
S'66708057'
p3301
sg4
L1449974827040L
sS'recordCount'
p3302
g6
sS'EventType'
p3303
S'TYPE_WINDOW_STATE_CHANGED'
p3304
sS'PackageName'
p3305
S'com.xp.tugele'
p3306
sS'OutBounds'
p3307
S'Rect(0, 0 - 720, 1280)'
p3308
sS'Action'
p3309
S'[ ClassName: com.xp.ui.activity.SearchResultActivity; Text: [SearchResultActivity]; ContentDescription: null; ItemCount: -1; CurrentItemIndex: -1; IsEnabled: true; IsPassword: false; IsChecked: false; IsFullScreen: true; Scrollable: false; BeforeText: null; FromIndex: -1; ToIndex: -1; ScrollX: -1; ScrollY: -1; MaxScrollX: -1; MaxScrollY: -1; AddedCount: -1; RemovedCount: -1; ParcelableData: null ]'
p3310
sS'MovementGranularity'
p3311
g6
sa(dp3312
S'EventTime'
p3313
S'66710749'
p3314
sg4
L1449974829706L
sS'recordCount'
p3315
g6
sS'EventType'
p3316
S'TYPE_VIEW_CLICKED'
p3317
sS'PackageName'
p3318
S'com.xp.tugele'
p3319
sS'OutBounds'
p3320
S'Rect(0, 50 - 58, 146)'
p3321
sS'Action'
p3322
S'[ ClassName: android.widget.FrameLayout; Text: []; ContentDescription: null; ItemCount: -1; CurrentItemIndex: -1; IsEnabled: true; IsPassword: false; IsChecked: false; IsFullScreen: false; Scrollable: false; BeforeText: null; FromIndex: -1; ToIndex: -1; ScrollX: -1; ScrollY: -1; MaxScrollX: -1; MaxScrollY: -1; AddedCount: -1; RemovedCount: -1; ParcelableData: null ]'
p3323
sS'MovementGranularity'
p3324
g6
sa(dp3325
S'EventTime'
p3326
S'66710857'
p3327
sg4
L1449974829826L
sS'recordCount'
p3328
g6
sS'EventType'
p3329
S'TYPE_WINDOW_STATE_CHANGED'
p3330
sS'PackageName'
p3331
S'com.xp.tugele'
p3332
sS'OutBounds'
p3333
S'Rect(0, 0 - 720, 1280)'
p3334
sS'Action'
p3335
S'[ ClassName: com.xp.ui.MainActivity; Text: [\xe5\x9b\xbe\xe4\xb8\xaa\xe4\xb9\x90]; ContentDescription: null; ItemCount: -1; CurrentItemIndex: -1; IsEnabled: true; IsPassword: false; IsChecked: false; IsFullScreen: true; Scrollable: false; BeforeText: null; FromIndex: -1; ToIndex: -1; ScrollX: -1; ScrollY: -1; MaxScrollX: -1; MaxScrollY: -1; AddedCount: -1; RemovedCount: -1; ParcelableData: null ]'
p3336
sS'MovementGranularity'
p3337
g6
sa(dp3338
S'EventTime'
p3339
S'66723958'
p3340
sg4
L1449974842916L
sS'recordCount'
p3341
g6
sS'EventType'
p3342
S'TYPE_VIEW_CLICKED'
p3343
sS'PackageName'
p3344
S'com.xp.tugele'
p3345
sS'OutBounds'
p3346
S'Rect(0, 508 - 720, 578)'
p3347
sS'Action'
p3348
S'[ ClassName: android.widget.TextView; Text: [\xe9\x9b\xbe\xe9\x9c\xbe]; ContentDescription: null; ItemCount: -1; CurrentItemIndex: -1; IsEnabled: true; IsPassword: false; IsChecked: false; IsFullScreen: false; Scrollable: false; BeforeText: null; FromIndex: -1; ToIndex: -1; ScrollX: -1; ScrollY: -1; MaxScrollX: -1; MaxScrollY: -1; AddedCount: -1; RemovedCount: -1; ParcelableData: null ]'
p3349
sS'MovementGranularity'
p3350
g6
sa.