(lp0
(dp1
S'EventTime'
p2
S'10333307'
p3
sS'SyscTime'
p4
L1449718086849L
sS'recordCount'
p5
S'0'
p6
sS'EventType'
p7
S'TYPE_WINDOW_STATE_CHANGED'
p8
sS'PackageName'
p9
S'com.example.myfristandroid'
p10
sS'OutBounds'
p11
S'Rect(0, 0 - 720, 1280)'
p12
sS'Action'
p13
S'[ ClassName: com.example.myfristandroid.SplashActivity; Text: [SE-1800\xe7\xa7\xbb\xe5\x8a\xa8APP]; ContentDescription: null; ItemCount: -1; CurrentItemIndex: -1; IsEnabled: true; IsPassword: false; IsChecked: false; IsFullScreen: true; Scrollable: false; BeforeText: null; FromIndex: -1; ToIndex: -1; ScrollX: -1; ScrollY: -1; MaxScrollX: -1; MaxScrollY: -1; AddedCount: -1; RemovedCount: -1; ParcelableData: null ]'
p14
sS'MovementGranularity'
p15
g6
sa(dp16
S'EventTime'
p17
S'10333371'
p18
sg4
L1449718086915L
sS'recordCount'
p19
g6
sS'EventType'
p20
S'TYPE_WINDOW_CONTENT_CHANGED'
p21
sS'PackageName'
p22
S'com.example.myfristandroid'
p23
sS'OutBounds'
p24
S'Rect(0, 0 - 720, 1280)'
p25
sS'Action'
p26
S'[ ClassName: android.widget.FrameLayout; Text: []; ContentDescription: null; ItemCount: -1; CurrentItemIndex: -1; IsEnabled: true; IsPassword: false; IsChecked: false; IsFullScreen: false; Scrollable: false; BeforeText: null; FromIndex: -1; ToIndex: -1; ScrollX: -1; ScrollY: -1; MaxScrollX: -1; MaxScrollY: -1; AddedCount: -1; RemovedCount: -1; ParcelableData: null ]'
p27
sS'MovementGranularity'
p28
g6
sa(dp29
S'EventTime'
p30
S'10335966'
p31
sg4
L1449718089566L
sS'recordCount'
p32
g6
sS'EventType'
p33
S'TYPE_WINDOW_STATE_CHANGED'
p34
sS'PackageName'
p35
S'com.example.myfristandroid'
p36
sS'OutBounds'
p37
S'Rect(0, 0 - 720, 1280)'
p38
sS'Action'
p39
S'[ ClassName: com.example.myfristandroid.MainActivity; Text: [SE-1800\xe7\xa7\xbb\xe5\x8a\xa8APP]; ContentDescription: null; ItemCount: -1; CurrentItemIndex: -1; IsEnabled: true; IsPassword: false; IsChecked: false; IsFullScreen: true; Scrollable: false; BeforeText: null; FromIndex: -1; ToIndex: -1; ScrollX: -1; ScrollY: -1; MaxScrollX: -1; MaxScrollY: -1; AddedCount: -1; RemovedCount: -1; ParcelableData: null ]'
p40
sS'MovementGranularity'
p41
g6
sa(dp42
S'EventTime'
p43
S'10336018'
p44
sg4
L1449718089616L
sS'recordCount'
p45
g6
sS'EventType'
p46
S'TYPE_VIEW_SCROLLED'
p47
sS'PackageName'
p48
S'com.example.myfristandroid'
p49
sS'OutBounds'
p50
S'Rect(732, 416 - 1428, 416)'
p51
sS'Action'
p52
S'[ ClassName: android.widget.ListView; Text: []; ContentDescription: null; ItemCount: 0; CurrentItemIndex: -1; IsEnabled: true; IsPassword: false; IsChecked: false; IsFullScreen: false; Scrollable: false; BeforeText: null; FromIndex: 0; ToIndex: -1; ScrollX: -1; ScrollY: -1; MaxScrollX: -1; MaxScrollY: -1; AddedCount: -1; RemovedCount: -1; ParcelableData: null ]'
p53
sS'MovementGranularity'
p54
g6
sa(dp55
S'EventTime'
p56
S'10336127'
p57
sg4
L1449718089708L
sS'recordCount'
p58
g6
sS'EventType'
p59
S'TYPE_WINDOW_CONTENT_CHANGED'
p60
sS'PackageName'
p61
S'com.example.myfristandroid'
p62
sS'OutBounds'
p63
S'Rect(0, 0 - 720, 1280)'
p64
sS'Action'
p65
S'[ ClassName: android.widget.FrameLayout; Text: []; ContentDescription: null; ItemCount: -1; CurrentItemIndex: -1; IsEnabled: true; IsPassword: false; IsChecked: false; IsFullScreen: false; Scrollable: false; BeforeText: null; FromIndex: -1; ToIndex: -1; ScrollX: -1; ScrollY: -1; MaxScrollX: -1; MaxScrollY: -1; AddedCount: -1; RemovedCount: -1; ParcelableData: null ]'
p66
sS'MovementGranularity'
p67
g6
sa(dp68
S'EventTime'
p69
S'10336432'
p70
sg4
L1449718089986L
sS'recordCount'
p71
g6
sS'EventType'
p72
S'TYPE_WINDOW_STATE_CHANGED'
p73
sS'PackageName'
p74
S'com.example.myfristandroid'
p75
sS'OutBounds'
p76
S'Rect(0, 0 - 720, 1280)'
p77
sS'Action'
p78
S'[ ClassName: com.example.myfristandroid.HuzAlertDialog; Text: [\xe6\x8f\x90\xe7\xa4\xba, \xe7\x89\x88\xe6\x9c\xac\xe6\x9c\x89\xe6\x9b\xb4\xe6\x96\xb0\xef\xbc\x8c\xe6\x98\xaf\xe5\x90\xa6\xe9\x9c\x80\xe8\xa6\x81\xe6\x9b\xb4\xe6\x96\xb0, \xe7\xab\x8b\xe5\x8d\xb3\xe6\x9b\xb4\xe6\x96\xb0, \xe7\xa8\x8d\xe5\x90\x8e\xe6\x9b\xb4\xe6\x96\xb0]; ContentDescription: null; ItemCount: -1; CurrentItemIndex: -1; IsEnabled: true; IsPassword: false; IsChecked: false; IsFullScreen: true; Scrollable: false; BeforeText: null; FromIndex: -1; ToIndex: -1; ScrollX: -1; ScrollY: -1; MaxScrollX: -1; MaxScrollY: -1; AddedCount: -1; RemovedCount: -1; ParcelableData: null ]'
p79
sS'MovementGranularity'
p80
g6
sa(dp81
S'EventTime'
p82
S'10336508'
p83
sg4
L1449718090054L
sS'recordCount'
p84
g6
sS'EventType'
p85
S'TYPE_WINDOW_CONTENT_CHANGED'
p86
sS'PackageName'
p87
S'com.example.myfristandroid'
p88
sS'OutBounds'
p89
S'Rect(0, 0 - 720, 1280)'
p90
sS'Action'
p91
S'[ ClassName: android.widget.FrameLayout; Text: []; ContentDescription: null; ItemCount: -1; CurrentItemIndex: -1; IsEnabled: true; IsPassword: false; IsChecked: false; IsFullScreen: false; Scrollable: false; BeforeText: null; FromIndex: -1; ToIndex: -1; ScrollX: -1; ScrollY: -1; MaxScrollX: -1; MaxScrollY: -1; AddedCount: -1; RemovedCount: -1; ParcelableData: null ]'
p92
sS'MovementGranularity'
p93
g6
sa(dp94
S'EventTime'
p95
S'10338943'
p96
sg4
L1449718092485L
sS'recordCount'
p97
g6
sS'EventType'
p98
S'TYPE_VIEW_CLICKED'
p99
sS'PackageName'
p100
S'com.example.myfristandroid'
p101
sS'OutBounds'
p102
S'Rect(372, 705 - 679, 801)'
p103
sS'Action'
p104
S'[ ClassName: android.widget.Button; Text: [\xe7\xa8\x8d\xe5\x90\x8e\xe6\x9b\xb4\xe6\x96\xb0]; ContentDescription: null; ItemCount: -1; CurrentItemIndex: -1; IsEnabled: true; IsPassword: false; IsChecked: false; IsFullScreen: false; Scrollable: false; BeforeText: null; FromIndex: -1; ToIndex: -1; ScrollX: -1; ScrollY: -1; MaxScrollX: -1; MaxScrollY: -1; AddedCount: -1; RemovedCount: -1; ParcelableData: null ]'
p105
sS'MovementGranularity'
p106
g6
sa(dp107
S'EventTime'
p108
S'10338986'
p109
sg4
L1449718092621L
sS'recordCount'
p110
g6
sS'EventType'
p111
S'TYPE_WINDOW_STATE_CHANGED'
p112
sS'PackageName'
p113
S'com.example.myfristandroid'
p114
sS'OutBounds'
p115
S'Rect(0, 0 - 720, 1280)'
p116
sS'Action'
p117
S'[ ClassName: com.example.myfristandroid.MainActivity; Text: [SE-1800\xe7\xa7\xbb\xe5\x8a\xa8APP]; ContentDescription: null; ItemCount: -1; CurrentItemIndex: -1; IsEnabled: true; IsPassword: false; IsChecked: false; IsFullScreen: true; Scrollable: false; BeforeText: null; FromIndex: -1; ToIndex: -1; ScrollX: -1; ScrollY: -1; MaxScrollX: -1; MaxScrollY: -1; AddedCount: -1; RemovedCount: -1; ParcelableData: null ]'
p118
sS'MovementGranularity'
p119
g6
sa(dp120
S'EventTime'
p121
S'10341327'
p122
sg4
L1449718094887L
sS'recordCount'
p123
S'1'
p124
sS'EventType'
p125
S'TYPE_VIEW_CLICKED'
p126
sS'PackageName'
p127
S'com.example.myfristandroid'
p128
sS'OutBounds'
p129
S'Rect(242, 382 - 476, 616)'
p130
sS'Action'
p131
S'[ ClassName: android.widget.RelativeLayout; Text: [\xe6\xb1\x87\xe6\xb5\x81\xe7\xae\xb1]; ContentDescription: null; ItemCount: -1; CurrentItemIndex: -1; IsEnabled: true; IsPassword: false; IsChecked: false; IsFullScreen: false; Scrollable: false; BeforeText: null; FromIndex: -1; ToIndex: -1; ScrollX: -1; ScrollY: -1; MaxScrollX: -1; MaxScrollY: -1; AddedCount: -1; RemovedCount: -1; ParcelableData: null ]'
p132
sS'MovementGranularity'
p133
g6
sa(dp134
S'EventTime'
p135
S'10341664'
p136
sg4
L1449718095209L
sS'recordCount'
p137
g6
sS'EventType'
p138
S'TYPE_WINDOW_STATE_CHANGED'
p139
sS'PackageName'
p140
S'com.example.myfristandroid'
p141
sS'OutBounds'
p142
S'Rect(0, 0 - 720, 1280)'
p143
sS'Action'
p144
S'[ ClassName: com.example.myfristandroid.graphWebShow; Text: [SE-1800\xe7\xa7\xbb\xe5\x8a\xa8APP]; ContentDescription: null; ItemCount: -1; CurrentItemIndex: -1; IsEnabled: true; IsPassword: false; IsChecked: false; IsFullScreen: true; Scrollable: false; BeforeText: null; FromIndex: -1; ToIndex: -1; ScrollX: -1; ScrollY: -1; MaxScrollX: -1; MaxScrollY: -1; AddedCount: -1; RemovedCount: -1; ParcelableData: null ]'
p145
sS'MovementGranularity'
p146
g6
sa(dp147
S'EventTime'
p148
S'10341699'
p149
sg4
L1449718095244L
sS'recordCount'
p150
g6
sS'EventType'
p151
S'TYPE_WINDOW_CONTENT_CHANGED'
p152
sS'PackageName'
p153
S'com.example.myfristandroid'
p154
sS'OutBounds'
p155
S'Rect(0, 0 - 720, 1280)'
p156
sS'Action'
p157
S'[ ClassName: android.widget.FrameLayout; Text: []; ContentDescription: null; ItemCount: -1; CurrentItemIndex: -1; IsEnabled: true; IsPassword: false; IsChecked: false; IsFullScreen: false; Scrollable: false; BeforeText: null; FromIndex: -1; ToIndex: -1; ScrollX: -1; ScrollY: -1; MaxScrollX: -1; MaxScrollY: -1; AddedCount: -1; RemovedCount: -1; ParcelableData: null ]'
p158
sS'MovementGranularity'
p159
g6
sa(dp160
S'EventTime'
p161
S'10342695'
p162
sg4
L1449718096248L
sS'recordCount'
p163
g6
sS'EventType'
p164
S'TYPE_WINDOW_CONTENT_CHANGED'
p165
sS'PackageName'
p166
S'com.example.myfristandroid'
p167
sS'OutBounds'
p168
S'Rect(0, 0 - 1280, 720)'
p169
sS'Action'
p170
S'[ ClassName: android.widget.FrameLayout; Text: []; ContentDescription: null; ItemCount: -1; CurrentItemIndex: -1; IsEnabled: true; IsPassword: false; IsChecked: false; IsFullScreen: false; Scrollable: false; BeforeText: null; FromIndex: -1; ToIndex: -1; ScrollX: -1; ScrollY: -1; MaxScrollX: -1; MaxScrollY: -1; AddedCount: -1; RemovedCount: -1; ParcelableData: null ]'
p171
sS'MovementGranularity'
p172
g6
sa(dp173
S'EventTime'
p174
S'10350863'
p175
sg4
L1449718104423L
sS'recordCount'
p176
g6
sS'EventType'
p177
S'TYPE_WINDOW_STATE_CHANGED'
p178
sS'PackageName'
p179
S'com.example.myfristandroid'
p180
sS'OutBounds'
p181
S'Rect(540, 285 - 740, 485)'
p182
sS'Action'
p183
S'[ ClassName: com.example.myfristandroid.CustomProgressDialog; Text: []; ContentDescription: null; ItemCount: -1; CurrentItemIndex: -1; IsEnabled: true; IsPassword: false; IsChecked: false; IsFullScreen: false; Scrollable: false; BeforeText: null; FromIndex: -1; ToIndex: -1; ScrollX: -1; ScrollY: -1; MaxScrollX: -1; MaxScrollY: -1; AddedCount: -1; RemovedCount: -1; ParcelableData: null ]'
p184
sS'MovementGranularity'
p185
g6
sa(dp186
S'EventTime'
p187
S'10350906'
p188
sg4
L1449718104452L
sS'recordCount'
p189
g6
sS'EventType'
p190
S'TYPE_WINDOW_CONTENT_CHANGED'
p191
sS'PackageName'
p192
S'com.example.myfristandroid'
p193
sS'OutBounds'
p194
S'Rect(540, 285 - 740, 485)'
p195
sS'Action'
p196
S'[ ClassName: android.widget.FrameLayout; Text: []; ContentDescription: null; ItemCount: -1; CurrentItemIndex: -1; IsEnabled: true; IsPassword: false; IsChecked: false; IsFullScreen: false; Scrollable: false; BeforeText: null; FromIndex: -1; ToIndex: -1; ScrollX: -1; ScrollY: -1; MaxScrollX: -1; MaxScrollY: -1; AddedCount: -1; RemovedCount: -1; ParcelableData: null ]'
p197
sS'MovementGranularity'
p198
g6
sa(dp199
S'EventTime'
p200
S'10355605'
p201
sg4
L1449718109149L
sS'recordCount'
p202
g6
sS'EventType'
p203
S'TYPE_WINDOW_STATE_CHANGED'
p204
sS'PackageName'
p205
S'com.example.myfristandroid'
p206
sS'OutBounds'
p207
S'Rect(0, 0 - 1280, 720)'
p208
sS'Action'
p209
S'[ ClassName: com.example.myfristandroid.graphWebShow; Text: [SE-1800\xe7\xa7\xbb\xe5\x8a\xa8APP]; ContentDescription: null; ItemCount: -1; CurrentItemIndex: -1; IsEnabled: true; IsPassword: false; IsChecked: false; IsFullScreen: true; Scrollable: false; BeforeText: null; FromIndex: -1; ToIndex: -1; ScrollX: -1; ScrollY: -1; MaxScrollX: -1; MaxScrollY: -1; AddedCount: -1; RemovedCount: -1; ParcelableData: null ]'
p210
sS'MovementGranularity'
p211
g6
sa(dp212
S'EventTime'
p213
S'10363155'
p214
sg4
L1449718116699L
sS'recordCount'
p215
g6
sS'EventType'
p216
S'TYPE_WINDOW_STATE_CHANGED'
p217
sS'PackageName'
p218
S'com.example.myfristandroid'
p219
sS'OutBounds'
p220
S'Rect(540, 285 - 740, 485)'
p221
sS'Action'
p222
S'[ ClassName: com.example.myfristandroid.CustomProgressDialog; Text: []; ContentDescription: null; ItemCount: -1; CurrentItemIndex: -1; IsEnabled: true; IsPassword: false; IsChecked: false; IsFullScreen: false; Scrollable: false; BeforeText: null; FromIndex: -1; ToIndex: -1; ScrollX: -1; ScrollY: -1; MaxScrollX: -1; MaxScrollY: -1; AddedCount: -1; RemovedCount: -1; ParcelableData: null ]'
p223
sS'MovementGranularity'
p224
g6
sa(dp225
S'EventTime'
p226
S'10363254'
p227
sg4
L1449718116801L
sS'recordCount'
p228
g6
sS'EventType'
p229
S'TYPE_WINDOW_CONTENT_CHANGED'
p230
sS'PackageName'
p231
S'com.example.myfristandroid'
p232
sS'OutBounds'
p233
S'Rect(540, 285 - 740, 485)'
p234
sS'Action'
p235
S'[ ClassName: android.widget.FrameLayout; Text: []; ContentDescription: null; ItemCount: -1; CurrentItemIndex: -1; IsEnabled: true; IsPassword: false; IsChecked: false; IsFullScreen: false; Scrollable: false; BeforeText: null; FromIndex: -1; ToIndex: -1; ScrollX: -1; ScrollY: -1; MaxScrollX: -1; MaxScrollY: -1; AddedCount: -1; RemovedCount: -1; ParcelableData: null ]'
p236
sS'MovementGranularity'
p237
g6
sa(dp238
S'EventTime'
p239
S'10365933'
p240
sg4
L1449718119477L
sS'recordCount'
p241
g6
sS'EventType'
p242
S'TYPE_WINDOW_STATE_CHANGED'
p243
sS'PackageName'
p244
S'com.example.myfristandroid'
p245
sS'OutBounds'
p246
S'Rect(0, 0 - 1280, 720)'
p247
sS'Action'
p248
S'[ ClassName: com.example.myfristandroid.graphWebShow; Text: [SE-1800\xe7\xa7\xbb\xe5\x8a\xa8APP]; ContentDescription: null; ItemCount: -1; CurrentItemIndex: -1; IsEnabled: true; IsPassword: false; IsChecked: false; IsFullScreen: true; Scrollable: false; BeforeText: null; FromIndex: -1; ToIndex: -1; ScrollX: -1; ScrollY: -1; MaxScrollX: -1; MaxScrollY: -1; AddedCount: -1; RemovedCount: -1; ParcelableData: null ]'
p249
sS'MovementGranularity'
p250
g6
sa(dp251
S'EventTime'
p252
S'10370953'
p253
sg4
L1449718124500L
sS'recordCount'
p254
g6
sS'EventType'
p255
S'TYPE_WINDOW_STATE_CHANGED'
p256
sS'PackageName'
p257
S'com.example.myfristandroid'
p258
sS'OutBounds'
p259
S'Rect(540, 285 - 740, 485)'
p260
sS'Action'
p261
S'[ ClassName: com.example.myfristandroid.CustomProgressDialog; Text: []; ContentDescription: null; ItemCount: -1; CurrentItemIndex: -1; IsEnabled: true; IsPassword: false; IsChecked: false; IsFullScreen: false; Scrollable: false; BeforeText: null; FromIndex: -1; ToIndex: -1; ScrollX: -1; ScrollY: -1; MaxScrollX: -1; MaxScrollY: -1; AddedCount: -1; RemovedCount: -1; ParcelableData: null ]'
p262
sS'MovementGranularity'
p263
g6
sa(dp264
S'EventTime'
p265
S'10371052'
p266
sg4
L1449718124594L
sS'recordCount'
p267
g6
sS'EventType'
p268
S'TYPE_WINDOW_CONTENT_CHANGED'
p269
sS'PackageName'
p270
S'com.example.myfristandroid'
p271
sS'OutBounds'
p272
S'Rect(540, 285 - 740, 485)'
p273
sS'Action'
p274
S'[ ClassName: android.widget.FrameLayout; Text: []; ContentDescription: null; ItemCount: -1; CurrentItemIndex: -1; IsEnabled: true; IsPassword: false; IsChecked: false; IsFullScreen: false; Scrollable: false; BeforeText: null; FromIndex: -1; ToIndex: -1; ScrollX: -1; ScrollY: -1; MaxScrollX: -1; MaxScrollY: -1; AddedCount: -1; RemovedCount: -1; ParcelableData: null ]'
p275
sS'MovementGranularity'
p276
g6
sa(dp277
S'EventTime'
p278
S'10373198'
p279
sg4
L1449718126743L
sS'recordCount'
p280
g6
sS'EventType'
p281
S'TYPE_WINDOW_STATE_CHANGED'
p282
sS'PackageName'
p283
S'com.example.myfristandroid'
p284
sS'OutBounds'
p285
S'Rect(0, 0 - 1280, 720)'
p286
sS'Action'
p287
S'[ ClassName: com.example.myfristandroid.graphWebShow; Text: [SE-1800\xe7\xa7\xbb\xe5\x8a\xa8APP]; ContentDescription: null; ItemCount: -1; CurrentItemIndex: -1; IsEnabled: true; IsPassword: false; IsChecked: false; IsFullScreen: true; Scrollable: false; BeforeText: null; FromIndex: -1; ToIndex: -1; ScrollX: -1; ScrollY: -1; MaxScrollX: -1; MaxScrollY: -1; AddedCount: -1; RemovedCount: -1; ParcelableData: null ]'
p288
sS'MovementGranularity'
p289
g6
sa(dp290
S'EventTime'
p291
S'10377401'
p292
sg4
L1449718130971L
sS'recordCount'
p293
g6
sS'EventType'
p294
S'TYPE_WINDOW_STATE_CHANGED'
p295
sS'PackageName'
p296
S'com.example.myfristandroid'
p297
sS'OutBounds'
p298
S'Rect(0, 0 - 720, 1280)'
p299
sS'Action'
p300
S'[ ClassName: com.example.myfristandroid.MainActivity; Text: [SE-1800\xe7\xa7\xbb\xe5\x8a\xa8APP]; ContentDescription: null; ItemCount: -1; CurrentItemIndex: -1; IsEnabled: true; IsPassword: false; IsChecked: false; IsFullScreen: true; Scrollable: false; BeforeText: null; FromIndex: -1; ToIndex: -1; ScrollX: -1; ScrollY: -1; MaxScrollX: -1; MaxScrollY: -1; AddedCount: -1; RemovedCount: -1; ParcelableData: null ]'
p301
sS'MovementGranularity'
p302
g6
sa(dp303
S'EventTime'
p304
S'10380888'
p305
sg4
L1449718134433L
sS'recordCount'
p306
g124
sS'EventType'
p307
S'TYPE_VIEW_CLICKED'
p308
sS'PackageName'
p309
S'com.example.myfristandroid'
p310
sS'OutBounds'
p311
S'Rect(242, 382 - 476, 616)'
p312
sS'Action'
p313
S'[ ClassName: android.widget.RelativeLayout; Text: [\xe6\xb1\x87\xe6\xb5\x81\xe7\xae\xb1]; ContentDescription: null; ItemCount: -1; CurrentItemIndex: -1; IsEnabled: true; IsPassword: false; IsChecked: false; IsFullScreen: false; Scrollable: false; BeforeText: null; FromIndex: -1; ToIndex: -1; ScrollX: -1; ScrollY: -1; MaxScrollX: -1; MaxScrollY: -1; AddedCount: -1; RemovedCount: -1; ParcelableData: null ]'
p314
sS'MovementGranularity'
p315
g6
sa(dp316
S'EventTime'
p317
S'10381169'
p318
sg4
L1449718134713L
sS'recordCount'
p319
g6
sS'EventType'
p320
S'TYPE_WINDOW_STATE_CHANGED'
p321
sS'PackageName'
p322
S'com.example.myfristandroid'
p323
sS'OutBounds'
p324
S'Rect(0, 0 - 720, 1280)'
p325
sS'Action'
p326
S'[ ClassName: com.example.myfristandroid.graphWebShow; Text: [SE-1800\xe7\xa7\xbb\xe5\x8a\xa8APP]; ContentDescription: null; ItemCount: -1; CurrentItemIndex: -1; IsEnabled: true; IsPassword: false; IsChecked: false; IsFullScreen: true; Scrollable: false; BeforeText: null; FromIndex: -1; ToIndex: -1; ScrollX: -1; ScrollY: -1; MaxScrollX: -1; MaxScrollY: -1; AddedCount: -1; RemovedCount: -1; ParcelableData: null ]'
p327
sS'MovementGranularity'
p328
g6
sa(dp329
S'EventTime'
p330
S'10381171'
p331
sg4
L1449718134720L
sS'recordCount'
p332
g6
sS'EventType'
p333
S'TYPE_WINDOW_CONTENT_CHANGED'
p334
sS'PackageName'
p335
S'com.example.myfristandroid'
p336
sS'OutBounds'
p337
S'Rect(0, 0 - 720, 1280)'
p338
sS'Action'
p339
S'[ ClassName: android.widget.FrameLayout; Text: []; ContentDescription: null; ItemCount: -1; CurrentItemIndex: -1; IsEnabled: true; IsPassword: false; IsChecked: false; IsFullScreen: false; Scrollable: false; BeforeText: null; FromIndex: -1; ToIndex: -1; ScrollX: -1; ScrollY: -1; MaxScrollX: -1; MaxScrollY: -1; AddedCount: -1; RemovedCount: -1; ParcelableData: null ]'
p340
sS'MovementGranularity'
p341
g6
sa(dp342
S'EventTime'
p343
S'10381276'
p344
sg4
L1449718134820L
sS'recordCount'
p345
g6
sS'EventType'
p346
S'TYPE_WINDOW_CONTENT_CHANGED'
p347
sS'PackageName'
p348
S'com.example.myfristandroid'
p349
sS'OutBounds'
p350
S'Rect(0, 0 - 720, 1280)'
p351
sS'Action'
p352
S'[ ClassName: android.widget.FrameLayout; Text: []; ContentDescription: null; ItemCount: -1; CurrentItemIndex: -1; IsEnabled: true; IsPassword: false; IsChecked: false; IsFullScreen: false; Scrollable: false; BeforeText: null; FromIndex: -1; ToIndex: -1; ScrollX: -1; ScrollY: -1; MaxScrollX: -1; MaxScrollY: -1; AddedCount: -1; RemovedCount: -1; ParcelableData: null ]'
p353
sS'MovementGranularity'
p354
g6
sa(dp355
S'EventTime'
p356
S'10381886'
p357
sg4
L1449718135429L
sS'recordCount'
p358
g6
sS'EventType'
p359
S'TYPE_WINDOW_CONTENT_CHANGED'
p360
sS'PackageName'
p361
S'com.example.myfristandroid'
p362
sS'OutBounds'
p363
S'Rect(0, 0 - 1280, 720)'
p364
sS'Action'
p365
S'[ ClassName: android.widget.FrameLayout; Text: []; ContentDescription: null; ItemCount: -1; CurrentItemIndex: -1; IsEnabled: true; IsPassword: false; IsChecked: false; IsFullScreen: false; Scrollable: false; BeforeText: null; FromIndex: -1; ToIndex: -1; ScrollX: -1; ScrollY: -1; MaxScrollX: -1; MaxScrollY: -1; AddedCount: -1; RemovedCount: -1; ParcelableData: null ]'
p366
sS'MovementGranularity'
p367
g6
sa(dp368
S'EventTime'
p369
S'10384452'
p370
sg4
L1449718138003L
sS'recordCount'
p371
g6
sS'EventType'
p372
S'TYPE_WINDOW_STATE_CHANGED'
p373
sS'PackageName'
p374
S'com.example.myfristandroid'
p375
sS'OutBounds'
p376
S'Rect(540, 285 - 740, 485)'
p377
sS'Action'
p378
S'[ ClassName: com.example.myfristandroid.CustomProgressDialog; Text: []; ContentDescription: null; ItemCount: -1; CurrentItemIndex: -1; IsEnabled: true; IsPassword: false; IsChecked: false; IsFullScreen: false; Scrollable: false; BeforeText: null; FromIndex: -1; ToIndex: -1; ScrollX: -1; ScrollY: -1; MaxScrollX: -1; MaxScrollY: -1; AddedCount: -1; RemovedCount: -1; ParcelableData: null ]'
p379
sS'MovementGranularity'
p380
g6
sa(dp381
S'EventTime'
p382
S'10384526'
p383
sg4
L1449718138069L
sS'recordCount'
p384
g6
sS'EventType'
p385
S'TYPE_WINDOW_CONTENT_CHANGED'
p386
sS'PackageName'
p387
S'com.example.myfristandroid'
p388
sS'OutBounds'
p389
S'Rect(540, 285 - 740, 485)'
p390
sS'Action'
p391
S'[ ClassName: android.widget.FrameLayout; Text: []; ContentDescription: null; ItemCount: -1; CurrentItemIndex: -1; IsEnabled: true; IsPassword: false; IsChecked: false; IsFullScreen: false; Scrollable: false; BeforeText: null; FromIndex: -1; ToIndex: -1; ScrollX: -1; ScrollY: -1; MaxScrollX: -1; MaxScrollY: -1; AddedCount: -1; RemovedCount: -1; ParcelableData: null ]'
p392
sS'MovementGranularity'
p393
g6
sa(dp394
S'EventTime'
p395
S'10390947'
p396
sg4
L1449718144505L
sS'recordCount'
p397
g6
sS'EventType'
p398
S'TYPE_WINDOW_STATE_CHANGED'
p399
sS'PackageName'
p400
S'com.example.myfristandroid'
p401
sS'OutBounds'
p402
S'Rect(0, 0 - 1280, 720)'
p403
sS'Action'
p404
S'[ ClassName: com.example.myfristandroid.graphWebShow; Text: [SE-1800\xe7\xa7\xbb\xe5\x8a\xa8APP]; ContentDescription: null; ItemCount: -1; CurrentItemIndex: -1; IsEnabled: true; IsPassword: false; IsChecked: false; IsFullScreen: true; Scrollable: false; BeforeText: null; FromIndex: -1; ToIndex: -1; ScrollX: -1; ScrollY: -1; MaxScrollX: -1; MaxScrollY: -1; AddedCount: -1; RemovedCount: -1; ParcelableData: null ]'
p405
sS'MovementGranularity'
p406
g6
sa(dp407
S'EventTime'
p408
S'10398702'
p409
sg4
L1449718152256L
sS'recordCount'
p410
g6
sS'EventType'
p411
S'TYPE_WINDOW_STATE_CHANGED'
p412
sS'PackageName'
p413
S'com.example.myfristandroid'
p414
sS'OutBounds'
p415
S'Rect(540, 285 - 740, 485)'
p416
sS'Action'
p417
S'[ ClassName: com.example.myfristandroid.CustomProgressDialog; Text: []; ContentDescription: null; ItemCount: -1; CurrentItemIndex: -1; IsEnabled: true; IsPassword: false; IsChecked: false; IsFullScreen: false; Scrollable: false; BeforeText: null; FromIndex: -1; ToIndex: -1; ScrollX: -1; ScrollY: -1; MaxScrollX: -1; MaxScrollY: -1; AddedCount: -1; RemovedCount: -1; ParcelableData: null ]'
p418
sS'MovementGranularity'
p419
g6
sa(dp420
S'EventTime'
p421
S'10398810'
p422
sg4
L1449718152354L
sS'recordCount'
p423
g6
sS'EventType'
p424
S'TYPE_WINDOW_CONTENT_CHANGED'
p425
sS'PackageName'
p426
S'com.example.myfristandroid'
p427
sS'OutBounds'
p428
S'Rect(540, 285 - 740, 485)'
p429
sS'Action'
p430
S'[ ClassName: android.widget.FrameLayout; Text: []; ContentDescription: null; ItemCount: -1; CurrentItemIndex: -1; IsEnabled: true; IsPassword: false; IsChecked: false; IsFullScreen: false; Scrollable: false; BeforeText: null; FromIndex: -1; ToIndex: -1; ScrollX: -1; ScrollY: -1; MaxScrollX: -1; MaxScrollY: -1; AddedCount: -1; RemovedCount: -1; ParcelableData: null ]'
p431
sS'MovementGranularity'
p432
g6
sa(dp433
S'EventTime'
p434
S'10400665'
p435
sg4
L1449718154221L
sS'recordCount'
p436
g6
sS'EventType'
p437
S'TYPE_WINDOW_STATE_CHANGED'
p438
sS'PackageName'
p439
S'com.example.myfristandroid'
p440
sS'OutBounds'
p441
S'Rect(0, 0 - 1280, 720)'
p442
sS'Action'
p443
S'[ ClassName: com.example.myfristandroid.graphWebShow; Text: [SE-1800\xe7\xa7\xbb\xe5\x8a\xa8APP]; ContentDescription: null; ItemCount: -1; CurrentItemIndex: -1; IsEnabled: true; IsPassword: false; IsChecked: false; IsFullScreen: true; Scrollable: false; BeforeText: null; FromIndex: -1; ToIndex: -1; ScrollX: -1; ScrollY: -1; MaxScrollX: -1; MaxScrollY: -1; AddedCount: -1; RemovedCount: -1; ParcelableData: null ]'
p444
sS'MovementGranularity'
p445
g6
sa(dp446
S'EventTime'
p447
S'10405969'
p448
sg4
L1449718159523L
sS'recordCount'
p449
g6
sS'EventType'
p450
S'TYPE_WINDOW_STATE_CHANGED'
p451
sS'PackageName'
p452
S'com.example.myfristandroid'
p453
sS'OutBounds'
p454
S'Rect(540, 285 - 740, 485)'
p455
sS'Action'
p456
S'[ ClassName: com.example.myfristandroid.CustomProgressDialog; Text: []; ContentDescription: null; ItemCount: -1; CurrentItemIndex: -1; IsEnabled: true; IsPassword: false; IsChecked: false; IsFullScreen: false; Scrollable: false; BeforeText: null; FromIndex: -1; ToIndex: -1; ScrollX: -1; ScrollY: -1; MaxScrollX: -1; MaxScrollY: -1; AddedCount: -1; RemovedCount: -1; ParcelableData: null ]'
p457
sS'MovementGranularity'
p458
g6
sa(dp459
S'EventTime'
p460
S'10406066'
p461
sg4
L1449718159619L
sS'recordCount'
p462
g6
sS'EventType'
p463
S'TYPE_WINDOW_CONTENT_CHANGED'
p464
sS'PackageName'
p465
S'com.example.myfristandroid'
p466
sS'OutBounds'
p467
S'Rect(540, 285 - 740, 485)'
p468
sS'Action'
p469
S'[ ClassName: android.widget.FrameLayout; Text: []; ContentDescription: null; ItemCount: -1; CurrentItemIndex: -1; IsEnabled: true; IsPassword: false; IsChecked: false; IsFullScreen: false; Scrollable: false; BeforeText: null; FromIndex: -1; ToIndex: -1; ScrollX: -1; ScrollY: -1; MaxScrollX: -1; MaxScrollY: -1; AddedCount: -1; RemovedCount: -1; ParcelableData: null ]'
p470
sS'MovementGranularity'
p471
g6
sa(dp472
S'EventTime'
p473
S'10408218'
p474
sg4
L1449718161761L
sS'recordCount'
p475
g6
sS'EventType'
p476
S'TYPE_WINDOW_STATE_CHANGED'
p477
sS'PackageName'
p478
S'com.example.myfristandroid'
p479
sS'OutBounds'
p480
S'Rect(0, 0 - 1280, 720)'
p481
sS'Action'
p482
S'[ ClassName: com.example.myfristandroid.graphWebShow; Text: [SE-1800\xe7\xa7\xbb\xe5\x8a\xa8APP]; ContentDescription: null; ItemCount: -1; CurrentItemIndex: -1; IsEnabled: true; IsPassword: false; IsChecked: false; IsFullScreen: true; Scrollable: false; BeforeText: null; FromIndex: -1; ToIndex: -1; ScrollX: -1; ScrollY: -1; MaxScrollX: -1; MaxScrollY: -1; AddedCount: -1; RemovedCount: -1; ParcelableData: null ]'
p483
sS'MovementGranularity'
p484
g6
sa(dp485
S'EventTime'
p486
S'10413179'
p487
sg4
L1449718166736L
sS'recordCount'
p488
g6
sS'EventType'
p489
S'TYPE_WINDOW_STATE_CHANGED'
p490
sS'PackageName'
p491
S'com.example.myfristandroid'
p492
sS'OutBounds'
p493
S'Rect(540, 285 - 740, 485)'
p494
sS'Action'
p495
S'[ ClassName: com.example.myfristandroid.CustomProgressDialog; Text: []; ContentDescription: null; ItemCount: -1; CurrentItemIndex: -1; IsEnabled: true; IsPassword: false; IsChecked: false; IsFullScreen: false; Scrollable: false; BeforeText: null; FromIndex: -1; ToIndex: -1; ScrollX: -1; ScrollY: -1; MaxScrollX: -1; MaxScrollY: -1; AddedCount: -1; RemovedCount: -1; ParcelableData: null ]'
p496
sS'MovementGranularity'
p497
g6
sa(dp498
S'EventTime'
p499
S'10413278'
p500
sg4
L1449718166821L
sS'recordCount'
p501
g6
sS'EventType'
p502
S'TYPE_WINDOW_CONTENT_CHANGED'
p503
sS'PackageName'
p504
S'com.example.myfristandroid'
p505
sS'OutBounds'
p506
S'Rect(540, 285 - 740, 485)'
p507
sS'Action'
p508
S'[ ClassName: android.widget.FrameLayout; Text: []; ContentDescription: null; ItemCount: -1; CurrentItemIndex: -1; IsEnabled: true; IsPassword: false; IsChecked: false; IsFullScreen: false; Scrollable: false; BeforeText: null; FromIndex: -1; ToIndex: -1; ScrollX: -1; ScrollY: -1; MaxScrollX: -1; MaxScrollY: -1; AddedCount: -1; RemovedCount: -1; ParcelableData: null ]'
p509
sS'MovementGranularity'
p510
g6
sa(dp511
S'EventTime'
p512
S'10414701'
p513
sg4
L1449718168263L
sS'recordCount'
p514
g6
sS'EventType'
p515
S'TYPE_WINDOW_STATE_CHANGED'
p516
sS'PackageName'
p517
S'com.example.myfristandroid'
p518
sS'OutBounds'
p519
S'Rect(0, 0 - 1280, 720)'
p520
sS'Action'
p521
S'[ ClassName: com.example.myfristandroid.graphWebShow; Text: [SE-1800\xe7\xa7\xbb\xe5\x8a\xa8APP]; ContentDescription: null; ItemCount: -1; CurrentItemIndex: -1; IsEnabled: true; IsPassword: false; IsChecked: false; IsFullScreen: true; Scrollable: false; BeforeText: null; FromIndex: -1; ToIndex: -1; ScrollX: -1; ScrollY: -1; MaxScrollX: -1; MaxScrollY: -1; AddedCount: -1; RemovedCount: -1; ParcelableData: null ]'
p522
sS'MovementGranularity'
p523
g6
sa(dp524
S'EventTime'
p525
S'10432986'
p526
sg4
L1449718186560L
sS'recordCount'
p527
g6
sS'EventType'
p528
S'TYPE_WINDOW_STATE_CHANGED'
p529
sS'PackageName'
p530
S'com.example.myfristandroid'
p531
sS'OutBounds'
p532
S'Rect(0, 0 - 720, 1280)'
p533
sS'Action'
p534
S'[ ClassName: com.example.myfristandroid.MainActivity; Text: [SE-1800\xe7\xa7\xbb\xe5\x8a\xa8APP]; ContentDescription: null; ItemCount: -1; CurrentItemIndex: -1; IsEnabled: true; IsPassword: false; IsChecked: false; IsFullScreen: true; Scrollable: false; BeforeText: null; FromIndex: -1; ToIndex: -1; ScrollX: -1; ScrollY: -1; MaxScrollX: -1; MaxScrollY: -1; AddedCount: -1; RemovedCount: -1; ParcelableData: null ]'
p535
sS'MovementGranularity'
p536
g6
sa(dp537
S'EventTime'
p538
S'10434464'
p539
sg4
L1449718188007L
sS'recordCount'
p540
g124
sS'EventType'
p541
S'TYPE_VIEW_CLICKED'
p542
sS'PackageName'
p543
S'com.example.myfristandroid'
p544
sS'OutBounds'
p545
S'Rect(478, 382 - 712, 616)'
p546
sS'Action'
p547
S'[ ClassName: android.widget.RelativeLayout; Text: [\xe7\x8e\xaf\xe5\xa2\x83\xe7\x9b\x91\xe6\xb5\x8b]; ContentDescription: null; ItemCount: -1; CurrentItemIndex: -1; IsEnabled: true; IsPassword: false; IsChecked: false; IsFullScreen: false; Scrollable: false; BeforeText: null; FromIndex: -1; ToIndex: -1; ScrollX: -1; ScrollY: -1; MaxScrollX: -1; MaxScrollY: -1; AddedCount: -1; RemovedCount: -1; ParcelableData: null ]'
p548
sS'MovementGranularity'
p549
g6
sa(dp550
S'EventTime'
p551
S'10434654'
p552
sg4
L1449718188200L
sS'recordCount'
p553
g6
sS'EventType'
p554
S'TYPE_WINDOW_STATE_CHANGED'
p555
sS'PackageName'
p556
S'com.example.myfristandroid'
p557
sS'OutBounds'
p558
S'Rect(0, 0 - 720, 1280)'
p559
sS'Action'
p560
S'[ ClassName: com.example.myfristandroid.graphWebShow; Text: [SE-1800\xe7\xa7\xbb\xe5\x8a\xa8APP]; ContentDescription: null; ItemCount: -1; CurrentItemIndex: -1; IsEnabled: true; IsPassword: false; IsChecked: false; IsFullScreen: true; Scrollable: false; BeforeText: null; FromIndex: -1; ToIndex: -1; ScrollX: -1; ScrollY: -1; MaxScrollX: -1; MaxScrollY: -1; AddedCount: -1; RemovedCount: -1; ParcelableData: null ]'
p561
sS'MovementGranularity'
p562
g6
sa(dp563
S'EventTime'
p564
S'10434707'
p565
sg4
L1449718188252L
sS'recordCount'
p566
g6
sS'EventType'
p567
S'TYPE_WINDOW_CONTENT_CHANGED'
p568
sS'PackageName'
p569
S'com.example.myfristandroid'
p570
sS'OutBounds'
p571
S'Rect(0, 0 - 720, 1280)'
p572
sS'Action'
p573
S'[ ClassName: android.widget.FrameLayout; Text: []; ContentDescription: null; ItemCount: -1; CurrentItemIndex: -1; IsEnabled: true; IsPassword: false; IsChecked: false; IsFullScreen: false; Scrollable: false; BeforeText: null; FromIndex: -1; ToIndex: -1; ScrollX: -1; ScrollY: -1; MaxScrollX: -1; MaxScrollY: -1; AddedCount: -1; RemovedCount: -1; ParcelableData: null ]'
p574
sS'MovementGranularity'
p575
g6
sa(dp576
S'EventTime'
p577
S'10435323'
p578
sg4
L1449718188866L
sS'recordCount'
p579
g6
sS'EventType'
p580
S'TYPE_WINDOW_CONTENT_CHANGED'
p581
sS'PackageName'
p582
S'com.example.myfristandroid'
p583
sS'OutBounds'
p584
S'Rect(0, 0 - 1280, 720)'
p585
sS'Action'
p586
S'[ ClassName: android.widget.FrameLayout; Text: []; ContentDescription: null; ItemCount: -1; CurrentItemIndex: -1; IsEnabled: true; IsPassword: false; IsChecked: false; IsFullScreen: false; Scrollable: false; BeforeText: null; FromIndex: -1; ToIndex: -1; ScrollX: -1; ScrollY: -1; MaxScrollX: -1; MaxScrollY: -1; AddedCount: -1; RemovedCount: -1; ParcelableData: null ]'
p587
sS'MovementGranularity'
p588
g6
sa(dp589
S'EventTime'
p590
S'10441318'
p591
sg4
L1449718194869L
sS'recordCount'
p592
g6
sS'EventType'
p593
S'TYPE_WINDOW_STATE_CHANGED'
p594
sS'PackageName'
p595
S'com.example.myfristandroid'
p596
sS'OutBounds'
p597
S'Rect(540, 285 - 740, 485)'
p598
sS'Action'
p599
S'[ ClassName: com.example.myfristandroid.CustomProgressDialog; Text: []; ContentDescription: null; ItemCount: -1; CurrentItemIndex: -1; IsEnabled: true; IsPassword: false; IsChecked: false; IsFullScreen: false; Scrollable: false; BeforeText: null; FromIndex: -1; ToIndex: -1; ScrollX: -1; ScrollY: -1; MaxScrollX: -1; MaxScrollY: -1; AddedCount: -1; RemovedCount: -1; ParcelableData: null ]'
p600
sS'MovementGranularity'
p601
g6
sa(dp602
S'EventTime'
p603
S'10441391'
p604
sg4
L1449718194935L
sS'recordCount'
p605
g6
sS'EventType'
p606
S'TYPE_WINDOW_CONTENT_CHANGED'
p607
sS'PackageName'
p608
S'com.example.myfristandroid'
p609
sS'OutBounds'
p610
S'Rect(540, 285 - 740, 485)'
p611
sS'Action'
p612
S'[ ClassName: android.widget.FrameLayout; Text: []; ContentDescription: null; ItemCount: -1; CurrentItemIndex: -1; IsEnabled: true; IsPassword: false; IsChecked: false; IsFullScreen: false; Scrollable: false; BeforeText: null; FromIndex: -1; ToIndex: -1; ScrollX: -1; ScrollY: -1; MaxScrollX: -1; MaxScrollY: -1; AddedCount: -1; RemovedCount: -1; ParcelableData: null ]'
p613
sS'MovementGranularity'
p614
g6
sa(dp615
S'EventTime'
p616
S'10442605'
p617
sg4
L1449718196150L
sS'recordCount'
p618
g6
sS'EventType'
p619
S'TYPE_WINDOW_STATE_CHANGED'
p620
sS'PackageName'
p621
S'com.example.myfristandroid'
p622
sS'OutBounds'
p623
S'Rect(0, 0 - 1280, 720)'
p624
sS'Action'
p625
S'[ ClassName: com.example.myfristandroid.graphWebShow; Text: [SE-1800\xe7\xa7\xbb\xe5\x8a\xa8APP]; ContentDescription: null; ItemCount: -1; CurrentItemIndex: -1; IsEnabled: true; IsPassword: false; IsChecked: false; IsFullScreen: true; Scrollable: false; BeforeText: null; FromIndex: -1; ToIndex: -1; ScrollX: -1; ScrollY: -1; MaxScrollX: -1; MaxScrollY: -1; AddedCount: -1; RemovedCount: -1; ParcelableData: null ]'
p626
sS'MovementGranularity'
p627
g6
sa(dp628
S'EventTime'
p629
S'10448989'
p630
sg4
L1449718202538L
sS'recordCount'
p631
g6
sS'EventType'
p632
S'TYPE_WINDOW_STATE_CHANGED'
p633
sS'PackageName'
p634
S'com.example.myfristandroid'
p635
sS'OutBounds'
p636
S'Rect(540, 285 - 740, 485)'
p637
sS'Action'
p638
S'[ ClassName: com.example.myfristandroid.CustomProgressDialog; Text: []; ContentDescription: null; ItemCount: -1; CurrentItemIndex: -1; IsEnabled: true; IsPassword: false; IsChecked: false; IsFullScreen: false; Scrollable: false; BeforeText: null; FromIndex: -1; ToIndex: -1; ScrollX: -1; ScrollY: -1; MaxScrollX: -1; MaxScrollY: -1; AddedCount: -1; RemovedCount: -1; ParcelableData: null ]'
p639
sS'MovementGranularity'
p640
g6
sa(dp641
S'EventTime'
p642
S'10449086'
p643
sg4
L1449718202629L
sS'recordCount'
p644
g6
sS'EventType'
p645
S'TYPE_WINDOW_CONTENT_CHANGED'
p646
sS'PackageName'
p647
S'com.example.myfristandroid'
p648
sS'OutBounds'
p649
S'Rect(540, 285 - 740, 485)'
p650
sS'Action'
p651
S'[ ClassName: android.widget.FrameLayout; Text: []; ContentDescription: null; ItemCount: -1; CurrentItemIndex: -1; IsEnabled: true; IsPassword: false; IsChecked: false; IsFullScreen: false; Scrollable: false; BeforeText: null; FromIndex: -1; ToIndex: -1; ScrollX: -1; ScrollY: -1; MaxScrollX: -1; MaxScrollY: -1; AddedCount: -1; RemovedCount: -1; ParcelableData: null ]'
p652
sS'MovementGranularity'
p653
g6
sa(dp654
S'EventTime'
p655
S'10449875'
p656
sg4
L1449718203422L
sS'recordCount'
p657
g6
sS'EventType'
p658
S'TYPE_WINDOW_STATE_CHANGED'
p659
sS'PackageName'
p660
S'com.example.myfristandroid'
p661
sS'OutBounds'
p662
S'Rect(0, 0 - 1280, 720)'
p663
sS'Action'
p664
S'[ ClassName: com.example.myfristandroid.graphWebShow; Text: [SE-1800\xe7\xa7\xbb\xe5\x8a\xa8APP]; ContentDescription: null; ItemCount: -1; CurrentItemIndex: -1; IsEnabled: true; IsPassword: false; IsChecked: false; IsFullScreen: true; Scrollable: false; BeforeText: null; FromIndex: -1; ToIndex: -1; ScrollX: -1; ScrollY: -1; MaxScrollX: -1; MaxScrollY: -1; AddedCount: -1; RemovedCount: -1; ParcelableData: null ]'
p665
sS'MovementGranularity'
p666
g6
sa(dp667
S'EventTime'
p668
S'10456556'
p669
sg4
L1449718210107L
sS'recordCount'
p670
g6
sS'EventType'
p671
S'TYPE_WINDOW_STATE_CHANGED'
p672
sS'PackageName'
p673
S'com.example.myfristandroid'
p674
sS'OutBounds'
p675
S'Rect(540, 285 - 740, 485)'
p676
sS'Action'
p677
S'[ ClassName: com.example.myfristandroid.CustomProgressDialog; Text: []; ContentDescription: null; ItemCount: -1; CurrentItemIndex: -1; IsEnabled: true; IsPassword: false; IsChecked: false; IsFullScreen: false; Scrollable: false; BeforeText: null; FromIndex: -1; ToIndex: -1; ScrollX: -1; ScrollY: -1; MaxScrollX: -1; MaxScrollY: -1; AddedCount: -1; RemovedCount: -1; ParcelableData: null ]'
p678
sS'MovementGranularity'
p679
g6
sa(dp680
S'EventTime'
p681
S'10456652'
p682
sg4
L1449718210206L
sS'recordCount'
p683
g6
sS'EventType'
p684
S'TYPE_WINDOW_CONTENT_CHANGED'
p685
sS'PackageName'
p686
S'com.example.myfristandroid'
p687
sS'OutBounds'
p688
S'Rect(540, 285 - 740, 485)'
p689
sS'Action'
p690
S'[ ClassName: android.widget.FrameLayout; Text: []; ContentDescription: null; ItemCount: -1; CurrentItemIndex: -1; IsEnabled: true; IsPassword: false; IsChecked: false; IsFullScreen: false; Scrollable: false; BeforeText: null; FromIndex: -1; ToIndex: -1; ScrollX: -1; ScrollY: -1; MaxScrollX: -1; MaxScrollY: -1; AddedCount: -1; RemovedCount: -1; ParcelableData: null ]'
p691
sS'MovementGranularity'
p692
g6
sa(dp693
S'EventTime'
p694
S'10457417'
p695
sg4
L1449718210960L
sS'recordCount'
p696
g6
sS'EventType'
p697
S'TYPE_WINDOW_STATE_CHANGED'
p698
sS'PackageName'
p699
S'com.example.myfristandroid'
p700
sS'OutBounds'
p701
S'Rect(0, 0 - 1280, 720)'
p702
sS'Action'
p703
S'[ ClassName: com.example.myfristandroid.graphWebShow; Text: [SE-1800\xe7\xa7\xbb\xe5\x8a\xa8APP]; ContentDescription: null; ItemCount: -1; CurrentItemIndex: -1; IsEnabled: true; IsPassword: false; IsChecked: false; IsFullScreen: true; Scrollable: false; BeforeText: null; FromIndex: -1; ToIndex: -1; ScrollX: -1; ScrollY: -1; MaxScrollX: -1; MaxScrollY: -1; AddedCount: -1; RemovedCount: -1; ParcelableData: null ]'
p704
sS'MovementGranularity'
p705
g6
sa(dp706
S'EventTime'
p707
S'10463432'
p708
sg4
L1449718216979L
sS'recordCount'
p709
g6
sS'EventType'
p710
S'TYPE_WINDOW_STATE_CHANGED'
p711
sS'PackageName'
p712
S'com.example.myfristandroid'
p713
sS'OutBounds'
p714
S'Rect(0, 0 - 1280, 720)'
p715
sS'Action'
p716
S'[ ClassName: com.example.myfristandroid.graphWebShow; Text: [SE-1800\xe7\xa7\xbb\xe5\x8a\xa8APP]; ContentDescription: null; ItemCount: -1; CurrentItemIndex: -1; IsEnabled: true; IsPassword: false; IsChecked: false; IsFullScreen: true; Scrollable: false; BeforeText: null; FromIndex: -1; ToIndex: -1; ScrollX: -1; ScrollY: -1; MaxScrollX: -1; MaxScrollY: -1; AddedCount: -1; RemovedCount: -1; ParcelableData: null ]'
p717
sS'MovementGranularity'
p718
g6
sa(dp719
S'EventTime'
p720
S'10470209'
p721
sg4
L1449718223767L
sS'recordCount'
p722
g6
sS'EventType'
p723
S'TYPE_WINDOW_STATE_CHANGED'
p724
sS'PackageName'
p725
S'com.example.myfristandroid'
p726
sS'OutBounds'
p727
S'Rect(540, 285 - 740, 485)'
p728
sS'Action'
p729
S'[ ClassName: com.example.myfristandroid.CustomProgressDialog; Text: []; ContentDescription: null; ItemCount: -1; CurrentItemIndex: -1; IsEnabled: true; IsPassword: false; IsChecked: false; IsFullScreen: false; Scrollable: false; BeforeText: null; FromIndex: -1; ToIndex: -1; ScrollX: -1; ScrollY: -1; MaxScrollX: -1; MaxScrollY: -1; AddedCount: -1; RemovedCount: -1; ParcelableData: null ]'
p730
sS'MovementGranularity'
p731
g6
sa(dp732
S'EventTime'
p733
S'10470295'
p734
sg4
L1449718223838L
sS'recordCount'
p735
g6
sS'EventType'
p736
S'TYPE_WINDOW_CONTENT_CHANGED'
p737
sS'PackageName'
p738
S'com.example.myfristandroid'
p739
sS'OutBounds'
p740
S'Rect(540, 285 - 740, 485)'
p741
sS'Action'
p742
S'[ ClassName: android.widget.FrameLayout; Text: []; ContentDescription: null; ItemCount: -1; CurrentItemIndex: -1; IsEnabled: true; IsPassword: false; IsChecked: false; IsFullScreen: false; Scrollable: false; BeforeText: null; FromIndex: -1; ToIndex: -1; ScrollX: -1; ScrollY: -1; MaxScrollX: -1; MaxScrollY: -1; AddedCount: -1; RemovedCount: -1; ParcelableData: null ]'
p743
sS'MovementGranularity'
p744
g6
sa(dp745
S'EventTime'
p746
S'10471199'
p747
sg4
L1449718224752L
sS'recordCount'
p748
g6
sS'EventType'
p749
S'TYPE_WINDOW_STATE_CHANGED'
p750
sS'PackageName'
p751
S'com.example.myfristandroid'
p752
sS'OutBounds'
p753
S'Rect(0, 0 - 1280, 720)'
p754
sS'Action'
p755
S'[ ClassName: com.example.myfristandroid.graphWebShow; Text: [SE-1800\xe7\xa7\xbb\xe5\x8a\xa8APP]; ContentDescription: null; ItemCount: -1; CurrentItemIndex: -1; IsEnabled: true; IsPassword: false; IsChecked: false; IsFullScreen: true; Scrollable: false; BeforeText: null; FromIndex: -1; ToIndex: -1; ScrollX: -1; ScrollY: -1; MaxScrollX: -1; MaxScrollY: -1; AddedCount: -1; RemovedCount: -1; ParcelableData: null ]'
p756
sS'MovementGranularity'
p757
g6
sa(dp758
S'EventTime'
p759
S'10477289'
p760
sg4
L1449718230841L
sS'recordCount'
p761
g6
sS'EventType'
p762
S'TYPE_WINDOW_STATE_CHANGED'
p763
sS'PackageName'
p764
S'com.example.myfristandroid'
p765
sS'OutBounds'
p766
S'Rect(540, 285 - 740, 485)'
p767
sS'Action'
p768
S'[ ClassName: com.example.myfristandroid.CustomProgressDialog; Text: []; ContentDescription: null; ItemCount: -1; CurrentItemIndex: -1; IsEnabled: true; IsPassword: false; IsChecked: false; IsFullScreen: false; Scrollable: false; BeforeText: null; FromIndex: -1; ToIndex: -1; ScrollX: -1; ScrollY: -1; MaxScrollX: -1; MaxScrollY: -1; AddedCount: -1; RemovedCount: -1; ParcelableData: null ]'
p769
sS'MovementGranularity'
p770
g6
sa(dp771
S'EventTime'
p772
S'10477398'
p773
sg4
L1449718230942L
sS'recordCount'
p774
g6
sS'EventType'
p775
S'TYPE_WINDOW_CONTENT_CHANGED'
p776
sS'PackageName'
p777
S'com.example.myfristandroid'
p778
sS'OutBounds'
p779
S'Rect(540, 285 - 740, 485)'
p780
sS'Action'
p781
S'[ ClassName: android.widget.FrameLayout; Text: []; ContentDescription: null; ItemCount: -1; CurrentItemIndex: -1; IsEnabled: true; IsPassword: false; IsChecked: false; IsFullScreen: false; Scrollable: false; BeforeText: null; FromIndex: -1; ToIndex: -1; ScrollX: -1; ScrollY: -1; MaxScrollX: -1; MaxScrollY: -1; AddedCount: -1; RemovedCount: -1; ParcelableData: null ]'
p782
sS'MovementGranularity'
p783
g6
sa(dp784
S'EventTime'
p785
S'10480544'
p786
sg4
L1449718234088L
sS'recordCount'
p787
g6
sS'EventType'
p788
S'TYPE_WINDOW_STATE_CHANGED'
p789
sS'PackageName'
p790
S'com.example.myfristandroid'
p791
sS'OutBounds'
p792
S'Rect(0, 0 - 1280, 720)'
p793
sS'Action'
p794
S'[ ClassName: com.example.myfristandroid.graphWebShow; Text: [SE-1800\xe7\xa7\xbb\xe5\x8a\xa8APP]; ContentDescription: null; ItemCount: -1; CurrentItemIndex: -1; IsEnabled: true; IsPassword: false; IsChecked: false; IsFullScreen: true; Scrollable: false; BeforeText: null; FromIndex: -1; ToIndex: -1; ScrollX: -1; ScrollY: -1; MaxScrollX: -1; MaxScrollY: -1; AddedCount: -1; RemovedCount: -1; ParcelableData: null ]'
p795
sS'MovementGranularity'
p796
g6
sa(dp797
S'EventTime'
p798
S'10484713'
p799
sg4
L1449718238270L
sS'recordCount'
p800
g6
sS'EventType'
p801
S'TYPE_WINDOW_STATE_CHANGED'
p802
sS'PackageName'
p803
S'com.example.myfristandroid'
p804
sS'OutBounds'
p805
S'Rect(540, 285 - 740, 485)'
p806
sS'Action'
p807
S'[ ClassName: com.example.myfristandroid.CustomProgressDialog; Text: []; ContentDescription: null; ItemCount: -1; CurrentItemIndex: -1; IsEnabled: true; IsPassword: false; IsChecked: false; IsFullScreen: false; Scrollable: false; BeforeText: null; FromIndex: -1; ToIndex: -1; ScrollX: -1; ScrollY: -1; MaxScrollX: -1; MaxScrollY: -1; AddedCount: -1; RemovedCount: -1; ParcelableData: null ]'
p808
sS'MovementGranularity'
p809
g6
sa(dp810
S'EventTime'
p811
S'10484812'
p812
sg4
L1449718238367L
sS'recordCount'
p813
g6
sS'EventType'
p814
S'TYPE_WINDOW_CONTENT_CHANGED'
p815
sS'PackageName'
p816
S'com.example.myfristandroid'
p817
sS'OutBounds'
p818
S'Rect(540, 285 - 740, 485)'
p819
sS'Action'
p820
S'[ ClassName: android.widget.FrameLayout; Text: []; ContentDescription: null; ItemCount: -1; CurrentItemIndex: -1; IsEnabled: true; IsPassword: false; IsChecked: false; IsFullScreen: false; Scrollable: false; BeforeText: null; FromIndex: -1; ToIndex: -1; ScrollX: -1; ScrollY: -1; MaxScrollX: -1; MaxScrollY: -1; AddedCount: -1; RemovedCount: -1; ParcelableData: null ]'
p821
sS'MovementGranularity'
p822
g6
sa(dp823
S'EventTime'
p824
S'10485535'
p825
sg4
L1449718239081L
sS'recordCount'
p826
g6
sS'EventType'
p827
S'TYPE_WINDOW_STATE_CHANGED'
p828
sS'PackageName'
p829
S'com.example.myfristandroid'
p830
sS'OutBounds'
p831
S'Rect(0, 0 - 1280, 720)'
p832
sS'Action'
p833
S'[ ClassName: com.example.myfristandroid.graphWebShow; Text: [SE-1800\xe7\xa7\xbb\xe5\x8a\xa8APP]; ContentDescription: null; ItemCount: -1; CurrentItemIndex: -1; IsEnabled: true; IsPassword: false; IsChecked: false; IsFullScreen: true; Scrollable: false; BeforeText: null; FromIndex: -1; ToIndex: -1; ScrollX: -1; ScrollY: -1; MaxScrollX: -1; MaxScrollY: -1; AddedCount: -1; RemovedCount: -1; ParcelableData: null ]'
p834
sS'MovementGranularity'
p835
g6
sa(dp836
S'EventTime'
p837
S'10500073'
p838
sg4
L1449718253642L
sS'recordCount'
p839
g6
sS'EventType'
p840
S'TYPE_WINDOW_STATE_CHANGED'
p841
sS'PackageName'
p842
S'com.example.myfristandroid'
p843
sS'OutBounds'
p844
S'Rect(0, 0 - 720, 1280)'
p845
sS'Action'
p846
S'[ ClassName: com.example.myfristandroid.MainActivity; Text: [SE-1800\xe7\xa7\xbb\xe5\x8a\xa8APP]; ContentDescription: null; ItemCount: -1; CurrentItemIndex: -1; IsEnabled: true; IsPassword: false; IsChecked: false; IsFullScreen: true; Scrollable: false; BeforeText: null; FromIndex: -1; ToIndex: -1; ScrollX: -1; ScrollY: -1; MaxScrollX: -1; MaxScrollY: -1; AddedCount: -1; RemovedCount: -1; ParcelableData: null ]'
p847
sS'MovementGranularity'
p848
g6
sa(dp849
S'EventTime'
p850
S'10501013'
p851
sg4
L1449718254560L
sS'recordCount'
p852
g124
sS'EventType'
p853
S'TYPE_VIEW_CLICKED'
p854
sS'PackageName'
p855
S'com.example.myfristandroid'
p856
sS'OutBounds'
p857
S'Rect(6, 618 - 240, 852)'
p858
sS'Action'
p859
S'[ ClassName: android.widget.RelativeLayout; Text: [\xe7\xb3\xbb\xe7\xbb\x9f\xe6\x8b\x93\xe6\x89\x91\xe5\x9b\xbe]; ContentDescription: null; ItemCount: -1; CurrentItemIndex: -1; IsEnabled: true; IsPassword: false; IsChecked: false; IsFullScreen: false; Scrollable: false; BeforeText: null; FromIndex: -1; ToIndex: -1; ScrollX: -1; ScrollY: -1; MaxScrollX: -1; MaxScrollY: -1; AddedCount: -1; RemovedCount: -1; ParcelableData: null ]'
p860
sS'MovementGranularity'
p861
g6
sa(dp862
S'EventTime'
p863
S'10501154'
p864
sg4
L1449718254701L
sS'recordCount'
p865
g6
sS'EventType'
p866
S'TYPE_WINDOW_STATE_CHANGED'
p867
sS'PackageName'
p868
S'com.example.myfristandroid'
p869
sS'OutBounds'
p870
S'Rect(0, 0 - 720, 1280)'
p871
sS'Action'
p872
S'[ ClassName: com.example.myfristandroid.graphWebShow; Text: [SE-1800\xe7\xa7\xbb\xe5\x8a\xa8APP]; ContentDescription: null; ItemCount: -1; CurrentItemIndex: -1; IsEnabled: true; IsPassword: false; IsChecked: false; IsFullScreen: true; Scrollable: false; BeforeText: null; FromIndex: -1; ToIndex: -1; ScrollX: -1; ScrollY: -1; MaxScrollX: -1; MaxScrollY: -1; AddedCount: -1; RemovedCount: -1; ParcelableData: null ]'
p873
sS'MovementGranularity'
p874
g6
sa(dp875
S'EventTime'
p876
S'10501217'
p877
sg4
L1449718254760L
sS'recordCount'
p878
g6
sS'EventType'
p879
S'TYPE_WINDOW_CONTENT_CHANGED'
p880
sS'PackageName'
p881
S'com.example.myfristandroid'
p882
sS'OutBounds'
p883
S'Rect(0, 0 - 720, 1280)'
p884
sS'Action'
p885
S'[ ClassName: android.widget.FrameLayout; Text: []; ContentDescription: null; ItemCount: -1; CurrentItemIndex: -1; IsEnabled: true; IsPassword: false; IsChecked: false; IsFullScreen: false; Scrollable: false; BeforeText: null; FromIndex: -1; ToIndex: -1; ScrollX: -1; ScrollY: -1; MaxScrollX: -1; MaxScrollY: -1; AddedCount: -1; RemovedCount: -1; ParcelableData: null ]'
p886
sS'MovementGranularity'
p887
g6
sa(dp888
S'EventTime'
p889
S'10502083'
p890
sg4
L1449718255710L
sS'recordCount'
p891
g6
sS'EventType'
p892
S'TYPE_WINDOW_CONTENT_CHANGED'
p893
sS'PackageName'
p894
S'com.example.myfristandroid'
p895
sS'OutBounds'
p896
S'Rect(0, 0 - 1280, 720)'
p897
sS'Action'
p898
S'[ ClassName: android.widget.FrameLayout; Text: []; ContentDescription: null; ItemCount: -1; CurrentItemIndex: -1; IsEnabled: true; IsPassword: false; IsChecked: false; IsFullScreen: false; Scrollable: false; BeforeText: null; FromIndex: -1; ToIndex: -1; ScrollX: -1; ScrollY: -1; MaxScrollX: -1; MaxScrollY: -1; AddedCount: -1; RemovedCount: -1; ParcelableData: null ]'
p899
sS'MovementGranularity'
p900
g6
sa(dp901
S'EventTime'
p902
S'10503311'
p903
sg4
L1449718256896L
sS'recordCount'
p904
g6
sS'EventType'
p905
S'TYPE_WINDOW_STATE_CHANGED'
p906
sS'PackageName'
p907
S'com.example.myfristandroid'
p908
sS'OutBounds'
p909
S'Rect(0, 0 - 720, 1280)'
p910
sS'Action'
p911
S'[ ClassName: com.example.myfristandroid.MainActivity; Text: [SE-1800\xe7\xa7\xbb\xe5\x8a\xa8APP]; ContentDescription: null; ItemCount: -1; CurrentItemIndex: -1; IsEnabled: true; IsPassword: false; IsChecked: false; IsFullScreen: true; Scrollable: false; BeforeText: null; FromIndex: -1; ToIndex: -1; ScrollX: -1; ScrollY: -1; MaxScrollX: -1; MaxScrollY: -1; AddedCount: -1; RemovedCount: -1; ParcelableData: null ]'
p912
sS'MovementGranularity'
p913
g6
sa(dp914
S'EventTime'
p915
S'10503373'
p916
sg4
L1449718256952L
sS'recordCount'
p917
g6
sS'EventType'
p918
S'TYPE_VIEW_SCROLLED'
p919
sS'PackageName'
p920
S'com.example.myfristandroid'
p921
sS'OutBounds'
p922
S'Rect(732, 416 - 1428, 416)'
p923
sS'Action'
p924
S'[ ClassName: android.widget.ListView; Text: []; ContentDescription: null; ItemCount: 0; CurrentItemIndex: -1; IsEnabled: true; IsPassword: false; IsChecked: false; IsFullScreen: false; Scrollable: false; BeforeText: null; FromIndex: 0; ToIndex: -1; ScrollX: -1; ScrollY: -1; MaxScrollX: -1; MaxScrollY: -1; AddedCount: -1; RemovedCount: -1; ParcelableData: null ]'
p925
sS'MovementGranularity'
p926
g6
sa(dp927
S'EventTime'
p928
S'10503481'
p929
sg4
L1449718257054L
sS'recordCount'
p930
g6
sS'EventType'
p931
S'TYPE_WINDOW_CONTENT_CHANGED'
p932
sS'PackageName'
p933
S'com.example.myfristandroid'
p934
sS'OutBounds'
p935
S'Rect(0, 0 - 720, 1280)'
p936
sS'Action'
p937
S'[ ClassName: android.widget.FrameLayout; Text: []; ContentDescription: null; ItemCount: -1; CurrentItemIndex: -1; IsEnabled: true; IsPassword: false; IsChecked: false; IsFullScreen: false; Scrollable: false; BeforeText: null; FromIndex: -1; ToIndex: -1; ScrollX: -1; ScrollY: -1; MaxScrollX: -1; MaxScrollY: -1; AddedCount: -1; RemovedCount: -1; ParcelableData: null ]'
p938
sS'MovementGranularity'
p939
g6
sa(dp940
S'EventTime'
p941
S'10504948'
p942
sg4
L1449718258490L
sS'recordCount'
p943
g124
sS'EventType'
p944
S'TYPE_VIEW_CLICKED'
p945
sS'PackageName'
p946
S'com.example.myfristandroid'
p947
sS'OutBounds'
p948
S'Rect(6, 618 - 240, 852)'
p949
sS'Action'
p950
S'[ ClassName: android.widget.RelativeLayout; Text: [\xe7\xb3\xbb\xe7\xbb\x9f\xe6\x8b\x93\xe6\x89\x91\xe5\x9b\xbe]; ContentDescription: null; ItemCount: -1; CurrentItemIndex: -1; IsEnabled: true; IsPassword: false; IsChecked: false; IsFullScreen: false; Scrollable: false; BeforeText: null; FromIndex: -1; ToIndex: -1; ScrollX: -1; ScrollY: -1; MaxScrollX: -1; MaxScrollY: -1; AddedCount: -1; RemovedCount: -1; ParcelableData: null ]'
p951
sS'MovementGranularity'
p952
g6
sa(dp953
S'EventTime'
p954
S'10505080'
p955
sg4
L1449718258625L
sS'recordCount'
p956
g6
sS'EventType'
p957
S'TYPE_WINDOW_STATE_CHANGED'
p958
sS'PackageName'
p959
S'com.example.myfristandroid'
p960
sS'OutBounds'
p961
S'Rect(0, 0 - 720, 1280)'
p962
sS'Action'
p963
S'[ ClassName: com.example.myfristandroid.graphWebShow; Text: [SE-1800\xe7\xa7\xbb\xe5\x8a\xa8APP]; ContentDescription: null; ItemCount: -1; CurrentItemIndex: -1; IsEnabled: true; IsPassword: false; IsChecked: false; IsFullScreen: true; Scrollable: false; BeforeText: null; FromIndex: -1; ToIndex: -1; ScrollX: -1; ScrollY: -1; MaxScrollX: -1; MaxScrollY: -1; AddedCount: -1; RemovedCount: -1; ParcelableData: null ]'
p964
sS'MovementGranularity'
p965
g6
sa(dp966
S'EventTime'
p967
S'10505148'
p968
sg4
L1449718258694L
sS'recordCount'
p969
g6
sS'EventType'
p970
S'TYPE_WINDOW_CONTENT_CHANGED'
p971
sS'PackageName'
p972
S'com.example.myfristandroid'
p973
sS'OutBounds'
p974
S'Rect(0, 0 - 720, 1280)'
p975
sS'Action'
p976
S'[ ClassName: android.widget.FrameLayout; Text: []; ContentDescription: null; ItemCount: -1; CurrentItemIndex: -1; IsEnabled: true; IsPassword: false; IsChecked: false; IsFullScreen: false; Scrollable: false; BeforeText: null; FromIndex: -1; ToIndex: -1; ScrollX: -1; ScrollY: -1; MaxScrollX: -1; MaxScrollY: -1; AddedCount: -1; RemovedCount: -1; ParcelableData: null ]'
p977
sS'MovementGranularity'
p978
g6
sa(dp979
S'EventTime'
p980
S'10506811'
p981
sg4
L1449718260357L
sS'recordCount'
p982
g6
sS'EventType'
p983
S'TYPE_WINDOW_CONTENT_CHANGED'
p984
sS'PackageName'
p985
S'com.example.myfristandroid'
p986
sS'OutBounds'
p987
S'Rect(0, 0 - 1280, 720)'
p988
sS'Action'
p989
S'[ ClassName: android.widget.FrameLayout; Text: []; ContentDescription: null; ItemCount: -1; CurrentItemIndex: -1; IsEnabled: true; IsPassword: false; IsChecked: false; IsFullScreen: false; Scrollable: false; BeforeText: null; FromIndex: -1; ToIndex: -1; ScrollX: -1; ScrollY: -1; MaxScrollX: -1; MaxScrollY: -1; AddedCount: -1; RemovedCount: -1; ParcelableData: null ]'
p990
sS'MovementGranularity'
p991
g6
sa(dp992
S'EventTime'
p993
S'10510846'
p994
sg4
L1449718264424L
sS'recordCount'
p995
g6
sS'EventType'
p996
S'TYPE_WINDOW_STATE_CHANGED'
p997
sS'PackageName'
p998
S'com.example.myfristandroid'
p999
sS'OutBounds'
p1000
S'Rect(0, 0 - 720, 1280)'
p1001
sS'Action'
p1002
S'[ ClassName: com.example.myfristandroid.MainActivity; Text: [SE-1800\xe7\xa7\xbb\xe5\x8a\xa8APP]; ContentDescription: null; ItemCount: -1; CurrentItemIndex: -1; IsEnabled: true; IsPassword: false; IsChecked: false; IsFullScreen: true; Scrollable: false; BeforeText: null; FromIndex: -1; ToIndex: -1; ScrollX: -1; ScrollY: -1; MaxScrollX: -1; MaxScrollY: -1; AddedCount: -1; RemovedCount: -1; ParcelableData: null ]'
p1003
sS'MovementGranularity'
p1004
g6
sa(dp1005
S'EventTime'
p1006
S'10511785'
p1007
sg4
L1449718265329L
sS'recordCount'
p1008
g124
sS'EventType'
p1009
S'TYPE_VIEW_CLICKED'
p1010
sS'PackageName'
p1011
S'com.example.myfristandroid'
p1012
sS'OutBounds'
p1013
S'Rect(242, 618 - 476, 852)'
p1014
sS'Action'
p1015
S'[ ClassName: android.widget.RelativeLayout; Text: [\xe5\x87\x8f\xe6\x8e\x92\xe9\x87\x8f\xe4\xbf\xa1\xe6\x81\xaf]; ContentDescription: null; ItemCount: -1; CurrentItemIndex: -1; IsEnabled: true; IsPassword: false; IsChecked: false; IsFullScreen: false; Scrollable: false; BeforeText: null; FromIndex: -1; ToIndex: -1; ScrollX: -1; ScrollY: -1; MaxScrollX: -1; MaxScrollY: -1; AddedCount: -1; RemovedCount: -1; ParcelableData: null ]'
p1016
sS'MovementGranularity'
p1017
g6
sa(dp1018
S'EventTime'
p1019
S'10512046'
p1020
sg4
L1449718265590L
sS'recordCount'
p1021
g6
sS'EventType'
p1022
S'TYPE_WINDOW_STATE_CHANGED'
p1023
sS'PackageName'
p1024
S'com.example.myfristandroid'
p1025
sS'OutBounds'
p1026
S'Rect(0, 0 - 720, 1280)'
p1027
sS'Action'
p1028
S'[ ClassName: com.example.myfristandroid.graphWebShow; Text: [SE-1800\xe7\xa7\xbb\xe5\x8a\xa8APP]; ContentDescription: null; ItemCount: -1; CurrentItemIndex: -1; IsEnabled: true; IsPassword: false; IsChecked: false; IsFullScreen: true; Scrollable: false; BeforeText: null; FromIndex: -1; ToIndex: -1; ScrollX: -1; ScrollY: -1; MaxScrollX: -1; MaxScrollY: -1; AddedCount: -1; RemovedCount: -1; ParcelableData: null ]'
p1029
sS'MovementGranularity'
p1030
g6
sa(dp1031
S'EventTime'
p1032
S'10512169'
p1033
sg4
L1449718265712L
sS'recordCount'
p1034
g6
sS'EventType'
p1035
S'TYPE_WINDOW_CONTENT_CHANGED'
p1036
sS'PackageName'
p1037
S'com.example.myfristandroid'
p1038
sS'OutBounds'
p1039
S'Rect(0, 0 - 720, 1280)'
p1040
sS'Action'
p1041
S'[ ClassName: android.widget.FrameLayout; Text: []; ContentDescription: null; ItemCount: -1; CurrentItemIndex: -1; IsEnabled: true; IsPassword: false; IsChecked: false; IsFullScreen: false; Scrollable: false; BeforeText: null; FromIndex: -1; ToIndex: -1; ScrollX: -1; ScrollY: -1; MaxScrollX: -1; MaxScrollY: -1; AddedCount: -1; RemovedCount: -1; ParcelableData: null ]'
p1042
sS'MovementGranularity'
p1043
g6
sa(dp1044
S'EventTime'
p1045
S'10522085'
p1046
sg4
L1449718275671L
sS'recordCount'
p1047
g6
sS'EventType'
p1048
S'TYPE_WINDOW_STATE_CHANGED'
p1049
sS'PackageName'
p1050
S'com.example.myfristandroid'
p1051
sS'OutBounds'
p1052
S'Rect(0, 0 - 720, 1280)'
p1053
sS'Action'
p1054
S'[ ClassName: com.example.myfristandroid.MainActivity; Text: [SE-1800\xe7\xa7\xbb\xe5\x8a\xa8APP]; ContentDescription: null; ItemCount: -1; CurrentItemIndex: -1; IsEnabled: true; IsPassword: false; IsChecked: false; IsFullScreen: true; Scrollable: false; BeforeText: null; FromIndex: -1; ToIndex: -1; ScrollX: -1; ScrollY: -1; MaxScrollX: -1; MaxScrollY: -1; AddedCount: -1; RemovedCount: -1; ParcelableData: null ]'
p1055
sS'MovementGranularity'
p1056
g6
sa(dp1057
S'EventTime'
p1058
S'10523174'
p1059
sg4
L1449718276717L
sS'recordCount'
p1060
g124
sS'EventType'
p1061
S'TYPE_VIEW_CLICKED'
p1062
sS'PackageName'
p1063
S'com.example.myfristandroid'
p1064
sS'OutBounds'
p1065
S'Rect(478, 618 - 712, 852)'
p1066
sS'Action'
p1067
S'[ ClassName: android.widget.RelativeLayout; Text: [\xe5\x85\xb6\xe4\xbb\x96\xe6\xbc\x94\xe7\xa4\xba\xe7\xb3\xbb\xe7\xbb\x9f]; ContentDescription: null; ItemCount: -1; CurrentItemIndex: -1; IsEnabled: true; IsPassword: false; IsChecked: false; IsFullScreen: false; Scrollable: false; BeforeText: null; FromIndex: -1; ToIndex: -1; ScrollX: -1; ScrollY: -1; MaxScrollX: -1; MaxScrollY: -1; AddedCount: -1; RemovedCount: -1; ParcelableData: null ]'
p1068
sS'MovementGranularity'
p1069
g6
sa(dp1070
S'EventTime'
p1071
S'10523314'
p1072
sg4
L1449718276858L
sS'recordCount'
p1073
g6
sS'EventType'
p1074
S'TYPE_WINDOW_STATE_CHANGED'
p1075
sS'PackageName'
p1076
S'com.example.myfristandroid'
p1077
sS'OutBounds'
p1078
S'Rect(0, 0 - 720, 1280)'
p1079
sS'Action'
p1080
S'[ ClassName: com.example.myfristandroid.graphWebShow; Text: [SE-1800\xe7\xa7\xbb\xe5\x8a\xa8APP]; ContentDescription: null; ItemCount: -1; CurrentItemIndex: -1; IsEnabled: true; IsPassword: false; IsChecked: false; IsFullScreen: true; Scrollable: false; BeforeText: null; FromIndex: -1; ToIndex: -1; ScrollX: -1; ScrollY: -1; MaxScrollX: -1; MaxScrollY: -1; AddedCount: -1; RemovedCount: -1; ParcelableData: null ]'
p1081
sS'MovementGranularity'
p1082
g6
sa(dp1083
S'EventTime'
p1084
S'10523357'
p1085
sg4
L1449718276905L
sS'recordCount'
p1086
g6
sS'EventType'
p1087
S'TYPE_WINDOW_CONTENT_CHANGED'
p1088
sS'PackageName'
p1089
S'com.example.myfristandroid'
p1090
sS'OutBounds'
p1091
S'Rect(0, 0 - 720, 1280)'
p1092
sS'Action'
p1093
S'[ ClassName: android.widget.FrameLayout; Text: []; ContentDescription: null; ItemCount: -1; CurrentItemIndex: -1; IsEnabled: true; IsPassword: false; IsChecked: false; IsFullScreen: false; Scrollable: false; BeforeText: null; FromIndex: -1; ToIndex: -1; ScrollX: -1; ScrollY: -1; MaxScrollX: -1; MaxScrollY: -1; AddedCount: -1; RemovedCount: -1; ParcelableData: null ]'
p1094
sS'MovementGranularity'
p1095
g6
sa(dp1096
S'EventTime'
p1097
S'10527675'
p1098
sg4
L1449718281251L
sS'recordCount'
p1099
g6
sS'EventType'
p1100
S'TYPE_VIEW_CLICKED'
p1101
sS'PackageName'
p1102
S'com.example.myfristandroid'
p1103
sS'OutBounds'
p1104
S'Rect(0, 50 - 80, 140)'
p1105
sS'Action'
p1106
S'[ ClassName: android.widget.ImageButton; Text: []; ContentDescription: null; ItemCount: -1; CurrentItemIndex: -1; IsEnabled: true; IsPassword: false; IsChecked: false; IsFullScreen: false; Scrollable: false; BeforeText: null; FromIndex: -1; ToIndex: -1; ScrollX: -1; ScrollY: -1; MaxScrollX: -1; MaxScrollY: -1; AddedCount: -1; RemovedCount: -1; ParcelableData: null ]'
p1107
sS'MovementGranularity'
p1108
g6
sa(dp1109
S'EventTime'
p1110
S'10527870'
p1111
sg4
L1449718281436L
sS'recordCount'
p1112
g6
sS'EventType'
p1113
S'TYPE_WINDOW_STATE_CHANGED'
p1114
sS'PackageName'
p1115
S'com.example.myfristandroid'
p1116
sS'OutBounds'
p1117
S'Rect(0, 0 - 720, 1280)'
p1118
sS'Action'
p1119
S'[ ClassName: com.example.myfristandroid.MainActivity; Text: [SE-1800\xe7\xa7\xbb\xe5\x8a\xa8APP]; ContentDescription: null; ItemCount: -1; CurrentItemIndex: -1; IsEnabled: true; IsPassword: false; IsChecked: false; IsFullScreen: true; Scrollable: false; BeforeText: null; FromIndex: -1; ToIndex: -1; ScrollX: -1; ScrollY: -1; MaxScrollX: -1; MaxScrollY: -1; AddedCount: -1; RemovedCount: -1; ParcelableData: null ]'
p1120
sS'MovementGranularity'
p1121
g6
sa(dp1122
S'EventTime'
p1123
S'10528696'
p1124
sg4
L1449718282238L
sS'recordCount'
p1125
g124
sS'EventType'
p1126
S'TYPE_VIEW_CLICKED'
p1127
sS'PackageName'
p1128
S'com.example.myfristandroid'
p1129
sS'OutBounds'
p1130
S'Rect(6, 618 - 240, 852)'
p1131
sS'Action'
p1132
S'[ ClassName: android.widget.RelativeLayout; Text: [\xe7\xb3\xbb\xe7\xbb\x9f\xe6\x8b\x93\xe6\x89\x91\xe5\x9b\xbe]; ContentDescription: null; ItemCount: -1; CurrentItemIndex: -1; IsEnabled: true; IsPassword: false; IsChecked: false; IsFullScreen: false; Scrollable: false; BeforeText: null; FromIndex: -1; ToIndex: -1; ScrollX: -1; ScrollY: -1; MaxScrollX: -1; MaxScrollY: -1; AddedCount: -1; RemovedCount: -1; ParcelableData: null ]'
p1133
sS'MovementGranularity'
p1134
g6
sa(dp1135
S'EventTime'
p1136
S'10528822'
p1137
sg4
L1449718282372L
sS'recordCount'
p1138
g6
sS'EventType'
p1139
S'TYPE_WINDOW_STATE_CHANGED'
p1140
sS'PackageName'
p1141
S'com.example.myfristandroid'
p1142
sS'OutBounds'
p1143
S'Rect(0, 0 - 720, 1280)'
p1144
sS'Action'
p1145
S'[ ClassName: com.example.myfristandroid.graphWebShow; Text: [SE-1800\xe7\xa7\xbb\xe5\x8a\xa8APP]; ContentDescription: null; ItemCount: -1; CurrentItemIndex: -1; IsEnabled: true; IsPassword: false; IsChecked: false; IsFullScreen: true; Scrollable: false; BeforeText: null; FromIndex: -1; ToIndex: -1; ScrollX: -1; ScrollY: -1; MaxScrollX: -1; MaxScrollY: -1; AddedCount: -1; RemovedCount: -1; ParcelableData: null ]'
p1146
sS'MovementGranularity'
p1147
g6
sa(dp1148
S'EventTime'
p1149
S'10528902'
p1150
sg4
L1449718282451L
sS'recordCount'
p1151
g6
sS'EventType'
p1152
S'TYPE_WINDOW_CONTENT_CHANGED'
p1153
sS'PackageName'
p1154
S'com.example.myfristandroid'
p1155
sS'OutBounds'
p1156
S'Rect(0, 0 - 720, 1280)'
p1157
sS'Action'
p1158
S'[ ClassName: android.widget.FrameLayout; Text: []; ContentDescription: null; ItemCount: -1; CurrentItemIndex: -1; IsEnabled: true; IsPassword: false; IsChecked: false; IsFullScreen: false; Scrollable: false; BeforeText: null; FromIndex: -1; ToIndex: -1; ScrollX: -1; ScrollY: -1; MaxScrollX: -1; MaxScrollY: -1; AddedCount: -1; RemovedCount: -1; ParcelableData: null ]'
p1159
sS'MovementGranularity'
p1160
g6
sa(dp1161
S'EventTime'
p1162
S'10534797'
p1163
sg4
L1449718288346L
sS'recordCount'
p1164
g6
sS'EventType'
p1165
S'TYPE_WINDOW_STATE_CHANGED'
p1166
sS'PackageName'
p1167
S'com.example.myfristandroid'
p1168
sS'OutBounds'
p1169
S'Rect(0, 0 - 720, 1280)'
p1170
sS'Action'
p1171
S'[ ClassName: com.example.myfristandroid.graphWebShow; Text: [SE-1800\xe7\xa7\xbb\xe5\x8a\xa8APP]; ContentDescription: null; ItemCount: -1; CurrentItemIndex: -1; IsEnabled: true; IsPassword: false; IsChecked: false; IsFullScreen: true; Scrollable: false; BeforeText: null; FromIndex: -1; ToIndex: -1; ScrollX: -1; ScrollY: -1; MaxScrollX: -1; MaxScrollY: -1; AddedCount: -1; RemovedCount: -1; ParcelableData: null ]'
p1172
sS'MovementGranularity'
p1173
g6
sa(dp1174
S'EventTime'
p1175
S'10536539'
p1176
sg4
L1449718290108L
sS'recordCount'
p1177
g6
sS'EventType'
p1178
S'TYPE_WINDOW_STATE_CHANGED'
p1179
sS'PackageName'
p1180
S'com.example.myfristandroid'
p1181
sS'OutBounds'
p1182
S'Rect(0, 0 - 720, 1280)'
p1183
sS'Action'
p1184
S'[ ClassName: com.example.myfristandroid.MainActivity; Text: [SE-1800\xe7\xa7\xbb\xe5\x8a\xa8APP]; ContentDescription: null; ItemCount: -1; CurrentItemIndex: -1; IsEnabled: true; IsPassword: false; IsChecked: false; IsFullScreen: true; Scrollable: false; BeforeText: null; FromIndex: -1; ToIndex: -1; ScrollX: -1; ScrollY: -1; MaxScrollX: -1; MaxScrollY: -1; AddedCount: -1; RemovedCount: -1; ParcelableData: null ]'
p1185
sS'MovementGranularity'
p1186
g6
sa(dp1187
S'EventTime'
p1188
S'10543022'
p1189
sg4
L1449718296597L
sS'recordCount'
p1190
g124
sS'EventType'
p1191
S'TYPE_VIEW_CLICKED'
p1192
sS'PackageName'
p1193
S'com.example.myfristandroid'
p1194
sS'OutBounds'
p1195
S'Rect(242, 618 - 476, 852)'
p1196
sS'Action'
p1197
S'[ ClassName: android.widget.RelativeLayout; Text: [\xe5\x87\x8f\xe6\x8e\x92\xe9\x87\x8f\xe4\xbf\xa1\xe6\x81\xaf]; ContentDescription: null; ItemCount: -1; CurrentItemIndex: -1; IsEnabled: true; IsPassword: false; IsChecked: false; IsFullScreen: false; Scrollable: false; BeforeText: null; FromIndex: -1; ToIndex: -1; ScrollX: -1; ScrollY: -1; MaxScrollX: -1; MaxScrollY: -1; AddedCount: -1; RemovedCount: -1; ParcelableData: null ]'
p1198
sS'MovementGranularity'
p1199
g6
sa(dp1200
S'EventTime'
p1201
S'10543268'
p1202
sg4
L1449718296811L
sS'recordCount'
p1203
g6
sS'EventType'
p1204
S'TYPE_WINDOW_STATE_CHANGED'
p1205
sS'PackageName'
p1206
S'com.example.myfristandroid'
p1207
sS'OutBounds'
p1208
S'Rect(0, 0 - 720, 1280)'
p1209
sS'Action'
p1210
S'[ ClassName: com.example.myfristandroid.graphWebShow; Text: [SE-1800\xe7\xa7\xbb\xe5\x8a\xa8APP]; ContentDescription: null; ItemCount: -1; CurrentItemIndex: -1; IsEnabled: true; IsPassword: false; IsChecked: false; IsFullScreen: true; Scrollable: false; BeforeText: null; FromIndex: -1; ToIndex: -1; ScrollX: -1; ScrollY: -1; MaxScrollX: -1; MaxScrollY: -1; AddedCount: -1; RemovedCount: -1; ParcelableData: null ]'
p1211
sS'MovementGranularity'
p1212
g6
sa(dp1213
S'EventTime'
p1214
S'10543320'
p1215
sg4
L1449718296862L
sS'recordCount'
p1216
g6
sS'EventType'
p1217
S'TYPE_WINDOW_CONTENT_CHANGED'
p1218
sS'PackageName'
p1219
S'com.example.myfristandroid'
p1220
sS'OutBounds'
p1221
S'Rect(0, 0 - 720, 1280)'
p1222
sS'Action'
p1223
S'[ ClassName: android.widget.FrameLayout; Text: []; ContentDescription: null; ItemCount: -1; CurrentItemIndex: -1; IsEnabled: true; IsPassword: false; IsChecked: false; IsFullScreen: false; Scrollable: false; BeforeText: null; FromIndex: -1; ToIndex: -1; ScrollX: -1; ScrollY: -1; MaxScrollX: -1; MaxScrollY: -1; AddedCount: -1; RemovedCount: -1; ParcelableData: null ]'
p1224
sS'MovementGranularity'
p1225
g6
sa(dp1226
S'EventTime'
p1227
S'10560723'
p1228
sg4
L1449718314297L
sS'recordCount'
p1229
g6
sS'EventType'
p1230
S'TYPE_WINDOW_STATE_CHANGED'
p1231
sS'PackageName'
p1232
S'com.example.myfristandroid'
p1233
sS'OutBounds'
p1234
S'Rect(0, 0 - 720, 1280)'
p1235
sS'Action'
p1236
S'[ ClassName: com.example.myfristandroid.MainActivity; Text: [SE-1800\xe7\xa7\xbb\xe5\x8a\xa8APP]; ContentDescription: null; ItemCount: -1; CurrentItemIndex: -1; IsEnabled: true; IsPassword: false; IsChecked: false; IsFullScreen: true; Scrollable: false; BeforeText: null; FromIndex: -1; ToIndex: -1; ScrollX: -1; ScrollY: -1; MaxScrollX: -1; MaxScrollY: -1; AddedCount: -1; RemovedCount: -1; ParcelableData: null ]'
p1237
sS'MovementGranularity'
p1238
g6
sa(dp1239
S'EventTime'
p1240
S'10571669'
p1241
sg4
L1449718325210L
sS'recordCount'
p1242
g6
sS'EventType'
p1243
S'TYPE_VIEW_CLICKED'
p1244
sS'PackageName'
p1245
S'com.example.myfristandroid'
p1246
sS'OutBounds'
p1247
S'Rect(540, 1170 - 720, 1280)'
p1248
sS'Action'
p1249
S'[ ClassName: android.widget.LinearLayout; Text: [\xe8\xae\xbe\xe7\xbd\xae\xe7\xb3\xbb\xe7\xbb\x9f\xe8\xbf\x90\xe8\xa1\x8c\xe5\x8f\x82\xe6\x95\xb0, \xe8\xae\xbe\xe7\xbd\xae]; ContentDescription: null; ItemCount: -1; CurrentItemIndex: -1; IsEnabled: true; IsPassword: false; IsChecked: false; IsFullScreen: false; Scrollable: false; BeforeText: null; FromIndex: -1; ToIndex: -1; ScrollX: -1; ScrollY: -1; MaxScrollX: -1; MaxScrollY: -1; AddedCount: -1; RemovedCount: -1; ParcelableData: null ]'
p1250
sS'MovementGranularity'
p1251
g6
sa(dp1252
S'EventTime'
p1253
S'10571694'
p1254
sg4
L1449718325371L
sS'recordCount'
p1255
g6
sS'EventType'
p1256
S'TYPE_VIEW_FOCUSED'
p1257
sS'PackageName'
p1258
S'com.example.myfristandroid'
p1259
sS'OutBounds'
p1260
S'Rect(263, 150 - 773, 210)'
p1261
sS'Action'
p1262
S'[ ClassName: android.widget.EditText; Text: [\xe6\x9c\x8d\xe5\x8a\xa1\xe5\x99\xa8\xe5\x9c\xb0\xe5\x9d\x80]; ContentDescription: null; ItemCount: 10; CurrentItemIndex: 0; IsEnabled: true; IsPassword: false; IsChecked: false; IsFullScreen: false; Scrollable: false; BeforeText: null; FromIndex: -1; ToIndex: -1; ScrollX: -1; ScrollY: -1; MaxScrollX: -1; MaxScrollY: -1; AddedCount: -1; RemovedCount: -1; ParcelableData: null ]'
p1263
sS'MovementGranularity'
p1264
g6
sa(dp1265
S'EventTime'
p1266
S'10571717'
p1267
sg4
L1449718325425L
sS'recordCount'
p1268
g6
sS'EventType'
p1269
S'TYPE_VIEW_TEXT_SELECTION_CHANGED'
p1270
sS'PackageName'
p1271
S'com.example.myfristandroid'
p1272
sS'OutBounds'
p1273
S'Rect(210, 220 - 720, 280)'
p1274
sS'Action'
p1275
S'[ ClassName: android.widget.EditText; Text: [143]; ContentDescription: null; ItemCount: 3; CurrentItemIndex: -1; IsEnabled: true; IsPassword: false; IsChecked: false; IsFullScreen: false; Scrollable: false; BeforeText: null; FromIndex: 0; ToIndex: 0; ScrollX: -1; ScrollY: -1; MaxScrollX: -1; MaxScrollY: -1; AddedCount: -1; RemovedCount: -1; ParcelableData: null ]'
p1276
sS'MovementGranularity'
p1277
g6
sa(dp1278
S'EventTime'
p1279
S'10571880'
p1280
sg4
L1449718325502L
sS'recordCount'
p1281
g6
sS'EventType'
p1282
S'TYPE_WINDOW_CONTENT_CHANGED'
p1283
sS'PackageName'
p1284
S'com.example.myfristandroid'
p1285
sS'OutBounds'
p1286
S'Rect(0, 0 - 720, 1280)'
p1287
sS'Action'
p1288
S'[ ClassName: android.widget.FrameLayout; Text: []; ContentDescription: null; ItemCount: -1; CurrentItemIndex: -1; IsEnabled: true; IsPassword: false; IsChecked: false; IsFullScreen: false; Scrollable: false; BeforeText: null; FromIndex: -1; ToIndex: -1; ScrollX: -1; ScrollY: -1; MaxScrollX: -1; MaxScrollY: -1; AddedCount: -1; RemovedCount: -1; ParcelableData: null ]'
p1289
sS'MovementGranularity'
p1290
g6
sa(dp1291
S'EventTime'
p1292
S'10571912'
p1293
sg4
L1449718325567L
sS'recordCount'
p1294
g6
sS'EventType'
p1295
S'TYPE_VIEW_SCROLLED'
p1296
sS'PackageName'
p1297
S'com.example.myfristandroid'
p1298
sS'OutBounds'
p1299
S'Rect(0, 140 - 720, 1170)'
p1300
sS'Action'
p1301
S'[ ClassName: android.support.v4.view.ViewPager; Text: []; ContentDescription: null; ItemCount: -1; CurrentItemIndex: -1; IsEnabled: true; IsPassword: false; IsChecked: false; IsFullScreen: false; Scrollable: false; BeforeText: null; FromIndex: -1; ToIndex: -1; ScrollX: -1; ScrollY: -1; MaxScrollX: -1; MaxScrollY: -1; AddedCount: -1; RemovedCount: -1; ParcelableData: null ]'
p1302
sS'MovementGranularity'
p1303
g6
sa(dp1304
S'EventTime'
p1305
S'10572019'
p1306
sg4
L1449718325625L
sS'recordCount'
p1307
g6
sS'EventType'
p1308
S'TYPE_WINDOW_CONTENT_CHANGED'
p1309
sS'PackageName'
p1310
S'com.example.myfristandroid'
p1311
sS'OutBounds'
p1312
S'Rect(0, 0 - 720, 1280)'
p1313
sS'Action'
p1314
S'[ ClassName: android.widget.FrameLayout; Text: []; ContentDescription: null; ItemCount: -1; CurrentItemIndex: -1; IsEnabled: true; IsPassword: false; IsChecked: false; IsFullScreen: false; Scrollable: false; BeforeText: null; FromIndex: -1; ToIndex: -1; ScrollX: -1; ScrollY: -1; MaxScrollX: -1; MaxScrollY: -1; AddedCount: -1; RemovedCount: -1; ParcelableData: null ]'
p1315
sS'MovementGranularity'
p1316
g6
sa(dp1317
S'EventTime'
p1318
S'10572064'
p1319
sg4
L1449718325657L
sS'recordCount'
p1320
g6
sS'EventType'
p1321
S'TYPE_VIEW_SCROLLED'
p1322
sS'PackageName'
p1323
S'com.example.myfristandroid'
p1324
sS'OutBounds'
p1325
S'Rect(0, 140 - 720, 1170)'
p1326
sS'Action'
p1327
S'[ ClassName: android.support.v4.view.ViewPager; Text: []; ContentDescription: null; ItemCount: -1; CurrentItemIndex: -1; IsEnabled: true; IsPassword: false; IsChecked: false; IsFullScreen: false; Scrollable: false; BeforeText: null; FromIndex: -1; ToIndex: -1; ScrollX: -1; ScrollY: -1; MaxScrollX: -1; MaxScrollY: -1; AddedCount: -1; RemovedCount: -1; ParcelableData: null ]'
p1328
sS'MovementGranularity'
p1329
g6
sa(dp1330
S'EventTime'
p1331
S'10572264'
p1332
sg4
L1449718325846L
sS'recordCount'
p1333
g6
sS'EventType'
p1334
S'TYPE_WINDOW_CONTENT_CHANGED'
p1335
sS'PackageName'
p1336
S'com.example.myfristandroid'
p1337
sS'OutBounds'
p1338
S'Rect(0, 0 - 720, 1280)'
p1339
sS'Action'
p1340
S'[ ClassName: android.widget.FrameLayout; Text: []; ContentDescription: null; ItemCount: -1; CurrentItemIndex: -1; IsEnabled: true; IsPassword: false; IsChecked: false; IsFullScreen: false; Scrollable: false; BeforeText: null; FromIndex: -1; ToIndex: -1; ScrollX: -1; ScrollY: -1; MaxScrollX: -1; MaxScrollY: -1; AddedCount: -1; RemovedCount: -1; ParcelableData: null ]'
p1341
sS'MovementGranularity'
p1342
g6
sa.