(lp0
(dp1
S'processID'
p2
S'9010'
p3
sS'SyscTime'
p4
L1449718086085L
sS'priority'
p5
S'D'
p6
sS'tag'
p7
S'dalvikvm'
p8
sS'threadID'
p9
S' 9010'
p10
sS'message'
p11
S'Late-enabling CheckJNI\n'
p12
sa(dp13
g2
S'9010'
p14
sg4
L1449718086105L
sg5
g6
sg7
S'ActivityThread'
p15
sg9
S' 9010'
p16
sg11
S'setTargetHeapUtilization:0.75\n'
p17
sa(dp18
g2
S'9010'
p19
sg4
L1449718086105L
sg5
g6
sg7
S'ActivityThread'
p20
sg9
S' 9010'
p21
sg11
S'setTargetHeapConcurrentStart:2097152\n'
p22
sa(dp23
g2
S'9010'
p24
sg4
L1449718086345L
sg5
g6
sg7
S'dalvikvm'
p25
sg9
S' 9010'
p26
sg11
S'GC_FOR_ALLOC freed 51K, 18% free 6659K/8024K, paused 10ms, total 10ms\n'
p27
sa(dp28
g2
S'9010'
p29
sg4
L1449718086375L
sg5
S'I'
p30
sg7
S'dalvikvm-heap'
p31
sg9
S' 9010'
p32
sg11
S'Grow heap (frag case) to 23.382MB for 15504848-byte allocation\n'
p33
sa(dp34
g2
S'9010'
p35
sg4
L1449718086395L
sg5
g6
sg7
S'dalvikvm'
p36
sg9
S' 9014'
p37
sg11
S'GC_CONCURRENT freed <1K, 6% free 21800K/23168K, paused 1ms+1ms, total 15ms\n'
p38
sa(dp39
g2
S'9031'
p40
sg4
L1449718086635L
sg5
g6
sg7
S'dalvikvm'
p41
sg9
S' 9031'
p42
sg11
S'Late-enabling CheckJNI\n'
p43
sa(dp44
g2
S'9031'
p45
sg4
L1449718086675L
sg5
g6
sg7
S'ActivityThread'
p46
sg9
S' 9031'
p47
sg11
S'setTargetHeapUtilization:0.75\n'
p48
sa(dp49
g2
S'9031'
p50
sg4
L1449718086675L
sg5
g6
sg7
S'ActivityThread'
p51
sg9
S' 9031'
p52
sg11
S'setTargetHeapConcurrentStart:2097152\n'
p53
sa(dp54
g2
S'9010'
p55
sg4
L1449718086695L
sg5
g6
sg7
S'libEGL  '
p56
sg9
S' 9010'
p57
sg11
S'loaded /vendor/lib/egl/libEGL_adreno.so\n'
p58
sa(dp59
g2
S'9010'
p60
sg4
L1449718086695L
sg5
g6
sg7
S'libEGL  '
p61
sg9
S' 9010'
p62
sg11
S'loaded /vendor/lib/egl/libGLESv1_CM_adreno.so\n'
p63
sa(dp64
g2
S'9010'
p65
sg4
L1449718086695L
sg5
g6
sg7
S'libEGL  '
p66
sg9
S' 9010'
p67
sg11
S'loaded /vendor/lib/egl/libGLESv2_adreno.so\n'
p68
sa(dp69
g2
S'9010'
p70
sg4
L1449718086705L
sg5
g30
sg7
S'Adreno-EGL'
p71
sg9
S' 9010'
p72
sg11
S'<qeglDrvAPI_eglInitialize:316>: EGL 1.4 QUALCOMM build: AU_LINUX_ANDROID_JB_3.2_RB2.04.03.00.129.073_msm8226_JB_3.2_RB2__release_AU ()\nOpenGL ES Shader Compiler Version: 20.00.02\nBuild Date: 11/15/13 Fri\nLocal Branch: \nRemote Branch: quic/jb_3.2_rb2.22\nLocal Patches: NONE\nReconstruct Branch: AU_LINUX_ANDROID_JB_3.2_RB2.04.03.00.129.073 +  NOTHING\n'
p73
sa(dp74
g2
S'9031'
p75
sg4
L1449718086705L
sg5
g6
sg7
S'SocketService'
p76
sg9
S' 9031'
p77
sg11
S'onStartCommand : bLogin:false\n'
p78
sa(dp79
g2
S'9031'
p80
sg4
L1449718086715L
sg5
g6
sg7
S'SocketService'
p81
sg9
S' 9031'
p82
sg11
S'pid:9031 myPid:9031\n'
p83
sa(dp84
g2
S'9031'
p85
sg4
L1449718086715L
sg5
g6
sg7
S'SocketService'
p86
sg9
S' 9031'
p87
sg11
S'start to run current thread!id:1706\n'
p88
sa(dp89
g2
S'9031'
p90
sg4
L1449718086725L
sg5
g6
sg7
S'SocketService'
p91
sg9
S' 9053'
p92
sg11
S'ip/172.18.198.2 lport:55402 p:143\n'
p93
sa(dp94
g2
S'9031'
p95
sg4
L1449718086725L
sg5
g6
sg7
S'ForegroundActivity'
p96
sg9
S' 9053'
p97
sg11
S'\xe6\x9c\xac\xe6\xac\xa1\xe5\x8f\x91\xe9\x80\x81\xe5\xb8\xa7\xe9\x95\xbf:34\t\xe6\x80\xbb\xe5\xb8\xa7\xe9\x95\xbf:34\n'
p98
sa(dp99
g2
S'9031'
p100
sg4
L1449718086725L
sg5
g6
sg7
S'SocketService'
p101
sg9
S' 9053'
p102
sg11
S'success to connect server!id:1706 bLogin:false\n'
p103
sa(dp104
g2
S'9010'
p105
sg4
L1449718086735L
sg5
g6
sg7
S'OpenGLRenderer'
p106
sg9
S' 9010'
p107
sg11
S'Enabling debug mode 0\n'
p108
sa(dp109
g2
S'9031'
p110
sg4
L1449718086755L
sg5
g6
sg7
S'ForegroundActivity'
p111
sg9
S' 9054'
p112
sg11
S'\xe6\x9c\xac\xe6\xac\xa1\xe6\x94\xb6\xe5\x88\xb0\xe5\xb8\xa7\xe9\x95\xbf:13\t\xe6\x80\xbb\xe5\xb8\xa7\xe9\x95\xbf:13\n'
p113
sa(dp114
g2
S'9031'
p115
sg4
L1449718087715L
sg5
g6
sg7
S'SocketService1'
p116
sg9
S' 9047'
p117
sg11
S'\xe6\x9c\xac\xe6\xac\xa1\xe6\x8f\x90\xe5\x8f\x961:LoadPtr:13 HeadIndex:0 GetSize:13 13 0 \xe5\xa4\xb4\xe4\xbf\xa1\xe6\x81\xaf:EB 90 EB 90 EB 90 0D 00 0E 01 \n'
p118
sa(dp119
g2
S'9031'
p120
sg4
L1449718087725L
sg5
g6
sg7
S'ForegroundActivity'
p121
sg9
S' 9053'
p122
sg11
S'\xe6\x9c\xac\xe6\xac\xa1\xe5\x8f\x91\xe9\x80\x81\xe5\xb8\xa7\xe9\x95\xbf:11\t\xe6\x80\xbb\xe5\xb8\xa7\xe9\x95\xbf:45\n'
p123
sa(dp124
g2
S'9031'
p125
sg4
L1449718087855L
sg5
g6
sg7
S'ForegroundActivity'
p126
sg9
S' 9054'
p127
sg11
S'\xe6\x9c\xac\xe6\xac\xa1\xe6\x94\xb6\xe5\x88\xb0\xe5\xb8\xa7\xe9\x95\xbf:642\t\xe6\x80\xbb\xe5\xb8\xa7\xe9\x95\xbf:655\n'
p128
sa(dp129
g2
S'9031'
p130
sg4
L1449718088735L
sg5
g6
sg7
S'SocketService1'
p131
sg9
S' 9047'
p132
sg11
S'\xe6\x9c\xac\xe6\xac\xa1\xe6\x8f\x90\xe5\x8f\x961:LoadPtr:655 HeadIndex:13 GetSize:642 130 512 \xe5\xa4\xb4\xe4\xbf\xa1\xe6\x81\xaf:EB 90 EB 90 EB 90 82 02 14 0A \n'
p133
sa(dp134
g2
S'9031'
p135
sg4
L1449718088735L
sg5
g6
sg7
S'ForegroundActivity'
p136
sg9
S' 9053'
p137
sg11
S'\xe6\x9c\xac\xe6\xac\xa1\xe5\x8f\x91\xe9\x80\x81\xe5\xb8\xa7\xe9\x95\xbf:11\t\xe6\x80\xbb\xe5\xb8\xa7\xe9\x95\xbf:56\n'
p138
sa(dp139
g2
S'9031'
p140
sg4
L1449718088835L
sg5
g6
sg7
S'ForegroundActivity'
p141
sg9
S' 9054'
p142
sg11
S'\xe6\x9c\xac\xe6\xac\xa1\xe6\x94\xb6\xe5\x88\xb0\xe5\xb8\xa7\xe9\x95\xbf:67\t\xe6\x80\xbb\xe5\xb8\xa7\xe9\x95\xbf:722\n'
p143
sa(dp144
g2
S'9010'
p145
sg4
L1449718088965L
sg5
g6
sg7
S'MainActivity'
p146
sg9
S' 9010'
p147
sg11
S'Start One Client\n'
p148
sa(dp149
g2
S'9010'
p150
sg4
L1449718088975L
sg5
g6
sg7
S'StrictMode'
p151
sg9
S' 9010'
p152
sg11
S'StrictMode policy violation; ~duration=29 ms: android.os.StrictMode$StrictModeDiskReadViolation: policy=23 violation=2\n\tat android.os.StrictMode$AndroidBlockGuardPolicy.onReadFromDisk(StrictMode.java:1126)\n\tat android.app.SharedPreferencesImpl.awaitLoadedLocked(SharedPreferencesImpl.java:203)\n\tat android.app.SharedPreferencesImpl.edit(SharedPreferencesImpl.java:282)\n\tat com.example.myfristandroid.MainActivity.initCfg(MainActivity.java:454)\n\tat com.example.myfristandroid.MainActivity.onCreate(MainActivity.java:295)\n\tat android.app.Activity.performCreate(Activity.java:5234)\n\tat android.app.Instrumentation.callActivityOnCreate(Instrumentation.java:1087)\n\tat android.app.ActivityThread.performLaunchActivity(ActivityThread.java:2302)\n\tat android.app.ActivityThread.handleLaunchActivity(ActivityThread.java:2388)\n\tat android.app.ActivityThread.access$900(ActivityThread.java:148)\n\tat android.app.ActivityThread$H.handleMessage(ActivityThread.java:1319)\n\tat android.os.Handler.dispatchMessage(Handler.java:99)\n\tat android.os.Looper.loop(Looper.java:137)\n\tat android.app.ActivityThread.main(ActivityThread.java:5473)\n\tat java.lang.reflect.Method.invokeNative(Native Method)\n\tat java.lang.reflect.Method.invoke(Method.java:525)\n\tat com.android.internal.os.ZygoteInit$MethodAndArgsCaller.run(ZygoteInit.java:804)\n\tat com.android.internal.os.ZygoteInit.main(ZygoteInit.java:620)\n\tat dalvik.system.NativeStart.main(Native Method)\n'
p153
sa(dp154
g2
S'9010'
p155
sg4
L1449718089225L
sg5
g6
sg7
S'dalvikvm'
p156
sg9
S' 9014'
p157
sg11
S'GC_CONCURRENT freed 4606K, 18% free 21740K/26440K, paused 2ms+2ms, total 53ms\n'
p158
sa(dp159
g2
S'9031'
p160
sg4
L1449718089775L
sg5
g6
sg7
S'SocketService1'
p161
sg9
S' 9047'
p162
sg11
S'\xe6\x9c\xac\xe6\xac\xa1\xe6\x8f\x90\xe5\x8f\x961:LoadPtr:722 HeadIndex:655 GetSize:67 67 0 \xe5\xa4\xb4\xe4\xbf\xa1\xe6\x81\xaf:EB 90 EB 90 EB 90 43 00 15 02 \n'
p163
sa(dp164
g2
S'9010'
p165
sg4
L1449718089795L
sg5
g6
sg7
S'MainActivity'
p166
sg9
S' 9010'
p167
sg11
S'ServerVersion:23 LocalVersion:12\n'
p168
sa(dp169
g2
S'9010'
p170
sg4
L1449718095005L
sg5
g6
sg7
S'JSENGINE'
p171
sg9
S' 9148'
p172
sg11
S'qualcomm.jsengine.version:C.2-patch35-git:7b7ad6f\n'
p173
sa(dp174
g2
S'9010'
p175
sg4
L1449718095135L
sg5
S'V'
p176
sg7
S'chromium_net'
p177
sg9
S' 9148'
p178
sg11
S'external/chromium/net/host_resolver_helper/host_resolver_helper.cc:66: [1210/112815:INFO:host_resolver_helper.cc(66)] DNSPreResolver::Init got hostprovider:0x00000000\n'
p179
sa(dp180
g2
S'9010'
p181
sg4
L1449718095135L
sg5
g176
sg7
S'chromium_net'
p182
sg9
S' 9148'
p183
sg11
S'external/chromium/net/base/host_resolver_impl.cc:1510: [1210/112815:INFO:host_resolver_impl.cc(1510)] HostResolverImpl::SetPreresolver preresolver:0x60ef0660\n'
p184
sa(dp185
g2
S'9010'
p186
sg4
L1449718095155L
sg5
g6
sg7
S'netstack'
p187
sg9
S' 9148'
p188
sg11
S'netstack: Request Priority is ON\n'
p189
sa(dp190
g2
S'9010'
p191
sg4
L1449718095225L
sg5
g6
sg7
S'WebKit  '
p192
sg9
S' 9148'
p193
sg11
S'ERROR: \n'
p194
sa(dp195
g2
S'9010'
p196
sg4
L1449718095225L
sg5
g6
sg7
S'WebKit  '
p197
sg9
S' 9148'
p198
sg11
S'alias gb18030 maps to GB18030 already, but someone is trying to make it map to GBK\n'
p199
sa(dp200
g2
S'9010'
p201
sg4
L1449718095225L
sg5
g6
sg7
S'WebKit  '
p202
sg9
S' 9148'
p203
sg11
S''
p204
sa(dp205
g2
S'9010'
p206
sg4
L1449718095235L
sg5
g6
sg7
S'WebKit  '
p207
sg9
S' 9148'
p208
sg11
S'external/webkit/Source/WebCore/platform/text/TextEncodingRegistry.cpp(152) : void WebCore::checkExistingName(const char*, const char*)\n'
p209
sa(dp210
g2
S'9010'
p211
sg4
L1449718095875L
sg5
g6
sg7
S'MainActivity'
p212
sg9
S' 9148'
p213
sg11
S'h:910.5,w:1687.5\n'
p214
sa(dp215
g2
S'9010'
p216
sg4
L1449718096235L
sg5
S'E'
p217
sg7
S'cutils-trace'
p218
sg9
S' 9148'
p219
sg11
S'Error opening trace file: No such file or directory (2)\n'
p220
sa(dp221
g2
S'9010'
p222
sg4
L1449718096255L
sg5
g6
sg7
S'TilesManager'
p223
sg9
S' 9010'
p224
sg11
S'Starting TG #0, 0x6114c048\n'
p225
sa(dp226
g2
S'9010'
p227
sg4
L1449718096255L
sg5
g6
sg7
S'TilesManager'
p228
sg9
S' 9010'
p229
sg11
S'new EGLContext from framework: 5f12a578 \n'
p230
sa(dp231
g2
S'9010'
p232
sg4
L1449718096255L
sg5
g6
sg7
S'GLWebViewState'
p233
sg9
S' 9010'
p234
sg11
S'Reinit shader\n'
p235
sa(dp236
g2
S'9010'
p237
sg4
L1449718096315L
sg5
g6
sg7
S'GLWebViewState'
p238
sg9
S' 9010'
p239
sg11
S'Reinit transferQueue\n'
p240
sa(dp241
g2
S'9010'
p242
sg4
L1449718102755L
sg5
g6
sg7
S'dalvikvm'
p243
sg9
S' 9010'
p244
sg11
S'GC_FOR_ALLOC freed 1583K, 15% free 22481K/26432K, paused 32ms, total 34ms\n'
p245
sa(dp246
g2
S'9010'
p247
sg4
L1449718102785L
sg5
g30
sg7
S'dalvikvm-heap'
p248
sg9
S' 9010'
p249
sg11
S'Grow heap (frag case) to 27.563MB for 3686416-byte allocation\n'
p250
sa(dp251
g2
S'9010'
p252
sg4
L1449718102855L
sg5
g6
sg7
S'dalvikvm'
p253
sg9
S' 9010'
p254
sg11
S'GC_FOR_ALLOC freed 30K, 14% free 26051K/30036K, paused 18ms, total 18ms\n'
p255
sa(dp256
g2
S'9010'
p257
sg4
L1449718103265L
sg5
g6
sg7
S'cn.edu.nju.ise.kikandroid'
p258
sg9
S' 9058'
p259
sg11
S'Screenshot:1449718102710\n'
p260
sa(dp261
g2
S'9010'
p262
sg4
L1449718103735L
sg5
g217
sg7
S'webcoreglue'
p263
sg9
S' 9148'
p264
sg11
S'getAbsoluteBoundingBox failed for node 0x611d3290, name RenderSVGContainer\n'
p265
sa(dp266
g2
S'9010'
p267
sg4
L1449718103735L
sg5
g217
sg7
S'webcoreglue'
p268
sg9
S' 9148'
p269
sg11
S'getAbsoluteBoundingBox failed for node 0x611d63d8, name RenderSVGContainer\n'
p270
sa(dp271
g2
S'9010'
p272
sg4
L1449718103735L
sg5
g217
sg7
S'webcoreglue'
p273
sg9
S' 9148'
p274
sg11
S'getAbsoluteBoundingBox failed for node 0x611dcb28, name RenderSVGContainer\n'
p275
sa(dp276
g2
S'9010'
p277
sg4
L1449718103745L
sg5
g217
sg7
S'webcoreglue'
p278
sg9
S' 9148'
p279
sg11
S'getAbsoluteBoundingBox failed for node 0x611dcc40, name RenderSVGPath\n'
p280
sa(dp281
g2
S'9010'
p282
sg4
L1449718105465L
sg5
g6
sg7
S'MainActivity'
p283
sg9
S' 9148'
p284
sg11
S'h:844.958,w:1720.73\n'
p285
sa(dp286
g2
S'9010'
p287
sg4
L1449718111985L
sg5
g6
sg7
S'dalvikvm'
p288
sg9
S' 9010'
p289
sg11
S'GC_FOR_ALLOC freed 7282K, 15% free 22473K/26432K, paused 19ms, total 19ms\n'
p290
sa(dp291
g2
S'9010'
p292
sg4
L1449718112005L
sg5
g30
sg7
S'dalvikvm-heap'
p293
sg9
S' 9010'
p294
sg11
S'Grow heap (frag case) to 27.555MB for 3686416-byte allocation\n'
p295
sa(dp296
g2
S'9010'
p297
sg4
L1449718112115L
sg5
g6
sg7
S'dalvikvm'
p298
sg9
S' 9010'
p299
sg11
S'GC_FOR_ALLOC freed 7K, 14% free 26066K/30036K, paused 16ms, total 16ms\n'
p300
sa(dp301
g2
S'9010'
p302
sg4
L1449718112435L
sg5
g6
sg7
S'cn.edu.nju.ise.kikandroid'
p303
sg9
S' 9058'
p304
sg11
S'Screenshot:1449718111972\n'
p305
sa(dp306
g2
S'9010'
p307
sg4
L1449718115255L
sg5
g6
sg7
S'MainActivity'
p308
sg9
S' 9148'
p309
sg11
S'h:910.5,w:1687.5\n'
p310
sa(dp311
g2
S'9010'
p312
sg4
L1449718116145L
sg5
g217
sg7
S'webcoreglue'
p313
sg9
S' 9148'
p314
sg11
S'getAbsoluteBoundingBox failed for node 0x60778820, name RenderSVGContainer\n'
p315
sa(dp316
g2
S'9010'
p317
sg4
L1449718116145L
sg5
g217
sg7
S'webcoreglue'
p318
sg9
S' 9148'
p319
sg11
S'getAbsoluteBoundingBox failed for node 0x60778a90, name RenderSVGContainer\n'
p320
sa(dp321
g2
S'9010'
p322
sg4
L1449718116145L
sg5
g217
sg7
S'webcoreglue'
p323
sg9
S' 9148'
p324
sg11
S'getAbsoluteBoundingBox failed for node 0x607778a0, name RenderSVGContainer\n'
p325
sa(dp326
g2
S'9010'
p327
sg4
L1449718116145L
sg5
g217
sg7
S'webcoreglue'
p328
sg9
S' 9148'
p329
sg11
S'getAbsoluteBoundingBox failed for node 0x607784b0, name RenderSVGPath\n'
p330
sa(dp331
g2
S'9010'
p332
sg4
L1449718117455L
sg5
g6
sg7
S'MainActivity'
p333
sg9
S' 9148'
p334
sg11
S'h:761.443,w:1717.5\n'
p335
sa(dp336
g2
S'9010'
p337
sg4
L1449718121675L
sg5
g6
sg7
S'dalvikvm'
p338
sg9
S' 9010'
p339
sg11
S'GC_FOR_ALLOC freed 7292K, 15% free 22476K/26432K, paused 22ms, total 23ms\n'
p340
sa(dp341
g2
S'9010'
p342
sg4
L1449718121695L
sg5
g30
sg7
S'dalvikvm-heap'
p343
sg9
S' 9010'
p344
sg11
S'Grow heap (frag case) to 27.558MB for 3686416-byte allocation\n'
p345
sa(dp346
g2
S'9010'
p347
sg4
L1449718121825L
sg5
g6
sg7
S'dalvikvm'
p348
sg9
S' 9010'
p349
sg11
S'GC_FOR_ALLOC freed 7K, 14% free 26069K/30036K, paused 17ms, total 17ms\n'
p350
sa(dp351
g2
S'9010'
p352
sg4
L1449718122255L
sg5
g6
sg7
S'cn.edu.nju.ise.kikandroid'
p353
sg9
S' 9058'
p354
sg11
S'Screenshot:1449718121661\n'
p355
sa(dp356
g2
S'9010'
p357
sg4
L1449718122745L
sg5
g30
sg7
S'Web Console'
p358
sg9
S' 9010'
p359
sg11
S'No data received from server at http://oa.paneng.cn:1143/se9200/dwr/engine.js:599\n'
p360
sa(dp361
g2
S'9010'
p362
sg4
L1449718123195L
sg5
g6
sg7
S'MainActivity'
p363
sg9
S' 9148'
p364
sg11
S'h:910.5,w:1687.5\n'
p365
sa(dp366
g2
S'9010'
p367
sg4
L1449718123945L
sg5
g217
sg7
S'webcoreglue'
p368
sg9
S' 9148'
p369
sg11
S'getAbsoluteBoundingBox failed for node 0x65dd3bb8, name RenderSVGContainer\n'
p370
sa(dp371
g2
S'9010'
p372
sg4
L1449718123945L
sg5
g217
sg7
S'webcoreglue'
p373
sg9
S' 9148'
p374
sg11
S'getAbsoluteBoundingBox failed for node 0x65dd3e90, name RenderSVGContainer\n'
p375
sa(dp376
g2
S'9010'
p377
sg4
L1449718123945L
sg5
g217
sg7
S'webcoreglue'
p378
sg9
S' 9148'
p379
sg11
S'getAbsoluteBoundingBox failed for node 0x665441b0, name RenderSVGContainer\n'
p380
sa(dp381
g2
S'9010'
p382
sg4
L1449718123945L
sg5
g217
sg7
S'webcoreglue'
p383
sg9
S' 9148'
p384
sg11
S'getAbsoluteBoundingBox failed for node 0x6120e128, name RenderSVGPath\n'
p385
sa(dp386
g2
S'9010'
p387
sg4
L1449718125545L
sg5
g6
sg7
S'MainActivity'
p388
sg9
S' 9148'
p389
sg11
S'h:845.75,w:1717.5\n'
p390
sa(dp391
g2
S'9031'
p392
sg4
L1449718126705L
sg5
g6
sg7
S'ForegroundActivity'
p393
sg9
S' 9045'
p394
sg11
S'\xe6\x9c\xac\xe6\xac\xa1\xe5\x8f\x91\xe9\x80\x81\xe5\xb8\xa7\xe9\x95\xbf:13\t\xe6\x80\xbb\xe5\xb8\xa7\xe9\x95\xbf:69\n'
p395
sa(dp396
g2
S'9031'
p397
sg4
L1449718126805L
sg5
g6
sg7
S'ForegroundActivity'
p398
sg9
S' 9054'
p399
sg11
S'\xe6\x9c\xac\xe6\xac\xa1\xe6\x94\xb6\xe5\x88\xb0\xe5\xb8\xa7\xe9\x95\xbf:13\t\xe6\x80\xbb\xe5\xb8\xa7\xe9\x95\xbf:735\n'
p400
sa(dp401
g2
S'9031'
p402
sg4
L1449718126885L
sg5
g6
sg7
S'SocketService1'
p403
sg9
S' 9047'
p404
sg11
S'\xe6\x9c\xac\xe6\xac\xa1\xe6\x8f\x90\xe5\x8f\x961:LoadPtr:735 HeadIndex:722 GetSize:13 13 0 \xe5\xa4\xb4\xe4\xbf\xa1\xe6\x81\xaf:EB 90 EB 90 EB 90 0D 00 10 01 \n'
p405
sa(dp406
g2
S'9010'
p407
sg4
L1449718129745L
sg5
g6
sg7
S'dalvikvm'
p408
sg9
S' 9010'
p409
sg11
S'GC_FOR_ALLOC freed 7294K, 15% free 22478K/26432K, paused 22ms, total 22ms\n'
p410
sa(dp411
g2
S'9010'
p412
sg4
L1449718129765L
sg5
g30
sg7
S'dalvikvm-heap'
p413
sg9
S' 9010'
p414
sg11
S'Grow heap (frag case) to 27.560MB for 3686416-byte allocation\n'
p415
sa(dp416
g2
S'9010'
p417
sg4
L1449718129965L
sg5
g6
sg7
S'dalvikvm'
p418
sg9
S' 9010'
p419
sg11
S'GC_FOR_ALLOC freed 7K, 14% free 26071K/30036K, paused 16ms, total 16ms\n'
p420
sa(dp421
g2
S'9010'
p422
sg4
L1449718130265L
sg5
g6
sg7
S'cn.edu.nju.ise.kikandroid'
p423
sg9
S' 9058'
p424
sg11
S'Screenshot:1449718129723\n'
p425
sa(dp426
g2
S'9010'
p427
sg4
L1449718130475L
sg5
g30
sg7
S'Web Console'
p428
sg9
S' 9010'
p429
sg11
S'No data received from server at http://oa.paneng.cn:1143/se9200/dwr/engine.js:599\n'
p430
sa(dp431
g2
S'9010'
p432
sg4
L1449718131095L
sg5
g6
sg7
S'MainActivity'
p433
sg9
S' 9148'
p434
sg11
S'h:910.5,w:1687.5\n'
p435
sa(dp436
g2
S'9010'
p437
sg4
L1449718135155L
sg5
g6
sg7
S'MainActivity'
p438
sg9
S' 9148'
p439
sg11
S'h:910.5,w:1687.5\n'
p440
sa(dp441
g2
S'9010'
p442
sg4
L1449718137415L
sg5
g217
sg7
S'webcoreglue'
p443
sg9
S' 9148'
p444
sg11
S'getAbsoluteBoundingBox failed for node 0x65f5eab0, name RenderSVGContainer\n'
p445
sa(dp446
g2
S'9010'
p447
sg4
L1449718137425L
sg5
g217
sg7
S'webcoreglue'
p448
sg9
S' 9148'
p449
sg11
S'getAbsoluteBoundingBox failed for node 0x65f5ed20, name RenderSVGContainer\n'
p450
sa(dp451
g2
S'9010'
p452
sg4
L1449718137425L
sg5
g217
sg7
S'webcoreglue'
p453
sg9
S' 9148'
p454
sg11
S'getAbsoluteBoundingBox failed for node 0x65f5ef10, name RenderSVGContainer\n'
p455
sa(dp456
g2
S'9010'
p457
sg4
L1449718137435L
sg5
g217
sg7
S'webcoreglue'
p458
sg9
S' 9148'
p459
sg11
S'getAbsoluteBoundingBox failed for node 0x660ed248, name RenderSVGPath\n'
p460
sa(dp461
g2
S'9010'
p462
sg4
L1449718138925L
sg5
g6
sg7
S'MainActivity'
p463
sg9
S' 9148'
p464
sg11
S'h:846.25,w:1721.73\n'
p465
sa(dp466
g2
S'9010'
p467
sg4
L1449718147995L
sg5
g6
sg7
S'dalvikvm'
p468
sg9
S' 9010'
p469
sg11
S'GC_FOR_ALLOC freed 7441K, 10% free 23922K/26432K, paused 27ms, total 38ms\n'
p470
sa(dp471
g2
S'9010'
p472
sg4
L1449718148165L
sg5
g6
sg7
S'dalvikvm'
p473
sg9
S' 9010'
p474
sg11
S'GC_FOR_ALLOC freed 19K, 9% free 27502K/30036K, paused 19ms, total 19ms\n'
p475
sa(dp476
g2
S'9010'
p477
sg4
L1449718148465L
sg5
g6
sg7
S'cn.edu.nju.ise.kikandroid'
p478
sg9
S' 9058'
p479
sg11
S'Screenshot:1449718147960\n'
p480
sa(dp481
g2
S'9010'
p482
sg4
L1449718148815L
sg5
g30
sg7
S'Web Console'
p483
sg9
S' 9010'
p484
sg11
S'No data received from server at http://oa.paneng.cn:1143/se9200/dwr/engine.js:599\n'
p485
sa(dp486
g2
S'9010'
p487
sg4
L1449718149255L
sg5
g6
sg7
S'MainActivity'
p488
sg9
S' 9148'
p489
sg11
S'h:910.5,w:1687.5\n'
p490
sa(dp491
g2
S'9010'
p492
sg4
L1449718151675L
sg5
g217
sg7
S'webcoreglue'
p493
sg9
S' 9148'
p494
sg11
S'getAbsoluteBoundingBox failed for node 0x625fb460, name RenderSVGContainer\n'
p495
sa(dp496
g2
S'9010'
p497
sg4
L1449718151675L
sg5
g217
sg7
S'webcoreglue'
p498
sg9
S' 9148'
p499
sg11
S'getAbsoluteBoundingBox failed for node 0x625fb618, name RenderSVGContainer\n'
p500
sa(dp501
g2
S'9010'
p502
sg4
L1449718151685L
sg5
g217
sg7
S'webcoreglue'
p503
sg9
S' 9148'
p504
sg11
S'getAbsoluteBoundingBox failed for node 0x625fb830, name RenderSVGContainer\n'
p505
sa(dp506
g2
S'9010'
p507
sg4
L1449718151685L
sg5
g217
sg7
S'webcoreglue'
p508
sg9
S' 9148'
p509
sg11
S'getAbsoluteBoundingBox failed for node 0x660ee378, name RenderSVGPath\n'
p510
sa(dp511
g2
S'9010'
p512
sg4
L1449718153195L
sg5
g6
sg7
S'MainActivity'
p513
sg9
S' 9148'
p514
sg11
S'h:847.943,w:1722.73\n'
p515
sa(dp516
g2
S'9010'
p517
sg4
L1449718156855L
sg5
g6
sg7
S'dalvikvm'
p518
sg9
S' 9010'
p519
sg11
S'GC_FOR_ALLOC freed 7291K, 10% free 23912K/26432K, paused 65ms, total 65ms\n'
p520
sa(dp521
g2
S'9010'
p522
sg4
L1449718156965L
sg5
g6
sg7
S'dalvikvm'
p523
sg9
S' 9010'
p524
sg11
S'GC_FOR_ALLOC freed 7K, 9% free 27504K/30036K, paused 16ms, total 16ms\n'
p525
sa(dp526
g2
S'9010'
p527
sg4
L1449718157405L
sg5
g6
sg7
S'cn.edu.nju.ise.kikandroid'
p528
sg9
S' 9058'
p529
sg11
S'Screenshot:1449718156790\n'
p530
sa(dp531
g2
S'9010'
p532
sg4
L1449718157545L
sg5
g30
sg7
S'Web Console'
p533
sg9
S' 9010'
p534
sg11
S'No data received from server at http://oa.paneng.cn:1143/se9200/dwr/engine.js:599\n'
p535
sa(dp536
g2
S'9010'
p537
sg4
L1449718158035L
sg5
g6
sg7
S'MainActivity'
p538
sg9
S' 9148'
p539
sg11
S'h:910.5,w:1687.5\n'
p540
sa(dp541
g2
S'9010'
p542
sg4
L1449718158945L
sg5
g217
sg7
S'webcoreglue'
p543
sg9
S' 9148'
p544
sg11
S'getAbsoluteBoundingBox failed for node 0x6141e068, name RenderSVGContainer\n'
p545
sa(dp546
g2
S'9010'
p547
sg4
L1449718158945L
sg5
g217
sg7
S'webcoreglue'
p548
sg9
S' 9148'
p549
sg11
S'getAbsoluteBoundingBox failed for node 0x6141e238, name RenderSVGContainer\n'
p550
sa(dp551
g2
S'9010'
p552
sg4
L1449718158955L
sg5
g217
sg7
S'webcoreglue'
p553
sg9
S' 9148'
p554
sg11
S'getAbsoluteBoundingBox failed for node 0x6141e450, name RenderSVGContainer\n'
p555
sa(dp556
g2
S'9010'
p557
sg4
L1449718158955L
sg5
g217
sg7
S'webcoreglue'
p558
sg9
S' 9148'
p559
sg11
S'getAbsoluteBoundingBox failed for node 0x611ba240, name RenderSVGPath\n'
p560
sa(dp561
g2
S'9010'
p562
sg4
L1449718160615L
sg5
g6
sg7
S'MainActivity'
p563
sg9
S' 9148'
p564
sg11
S'h:845.835,w:1722.73\n'
p565
sa(dp566
g2
S'9010'
p567
sg4
L1449718164185L
sg5
g6
sg7
S'dalvikvm'
p568
sg9
S' 9010'
p569
sg11
S'GC_FOR_ALLOC freed 7291K, 10% free 23912K/26432K, paused 63ms, total 64ms\n'
p570
sa(dp571
g2
S'9010'
p572
sg4
L1449718164345L
sg5
g6
sg7
S'dalvikvm'
p573
sg9
S' 9010'
p574
sg11
S'GC_FOR_ALLOC freed 7K, 9% free 27504K/30036K, paused 18ms, total 18ms\n'
p575
sa(dp576
g2
S'9010'
p577
sg4
L1449718164785L
sg5
g6
sg7
S'cn.edu.nju.ise.kikandroid'
p578
sg9
S' 9058'
p579
sg11
S'Screenshot:1449718164122\n'
p580
sa(dp581
g2
S'9010'
p582
sg4
L1449718164975L
sg5
g30
sg7
S'Web Console'
p583
sg9
S' 9010'
p584
sg11
S'No data received from server at http://oa.paneng.cn:1143/se9200/dwr/engine.js:599\n'
p585
sa(dp586
g2
S'9010'
p587
sg4
L1449718165405L
sg5
g6
sg7
S'MainActivity'
p588
sg9
S' 9148'
p589
sg11
S'h:910.5,w:1687.5\n'
p590
sa(dp591
g2
S'9010'
p592
sg4
L1449718166145L
sg5
g217
sg7
S'webcoreglue'
p593
sg9
S' 9148'
p594
sg11
S'getAbsoluteBoundingBox failed for node 0x661b2770, name RenderSVGContainer\n'
p595
sa(dp596
g2
S'9010'
p597
sg4
L1449718166165L
sg5
g217
sg7
S'webcoreglue'
p598
sg9
S' 9148'
p599
sg11
S'getAbsoluteBoundingBox failed for node 0x661b2940, name RenderSVGContainer\n'
p600
sa(dp601
g2
S'9010'
p602
sg4
L1449718166165L
sg5
g217
sg7
S'webcoreglue'
p603
sg9
S' 9148'
p604
sg11
S'getAbsoluteBoundingBox failed for node 0x661b2b58, name RenderSVGContainer\n'
p605
sa(dp606
g2
S'9010'
p607
sg4
L1449718166175L
sg5
g217
sg7
S'webcoreglue'
p608
sg9
S' 9148'
p609
sg11
S'getAbsoluteBoundingBox failed for node 0x611b6918, name RenderSVGPath\n'
p610
sa(dp611
g2
S'9031'
p612
sg4
L1449718166715L
sg5
g6
sg7
S'ForegroundActivity'
p613
sg9
S' 9045'
p614
sg11
S'\xe6\x9c\xac\xe6\xac\xa1\xe5\x8f\x91\xe9\x80\x81\xe5\xb8\xa7\xe9\x95\xbf:13\t\xe6\x80\xbb\xe5\xb8\xa7\xe9\x95\xbf:82\n'
p615
sa(dp616
g2
S'9031'
p617
sg4
L1449718166745L
sg5
g6
sg7
S'ForegroundActivity'
p618
sg9
S' 9054'
p619
sg11
S'\xe6\x9c\xac\xe6\xac\xa1\xe6\x94\xb6\xe5\x88\xb0\xe5\xb8\xa7\xe9\x95\xbf:13\t\xe6\x80\xbb\xe5\xb8\xa7\xe9\x95\xbf:748\n'
p620
sa(dp621
g2
S'9031'
p622
sg4
L1449718167145L
sg5
g6
sg7
S'SocketService1'
p623
sg9
S' 9047'
p624
sg11
S'\xe6\x9c\xac\xe6\xac\xa1\xe6\x8f\x90\xe5\x8f\x961:LoadPtr:748 HeadIndex:735 GetSize:13 13 0 \xe5\xa4\xb4\xe4\xbf\xa1\xe6\x81\xaf:EB 90 EB 90 EB 90 0D 00 10 01 \n'
p625
sa(dp626
g2
S'9010'
p627
sg4
L1449718167315L
sg5
g6
sg7
S'MainActivity'
p628
sg9
S' 9148'
p629
sg11
S'h:761.443,w:1717.5\n'
p630
sa(dp631
g2
S'9010'
p632
sg4
L1449718172055L
sg5
g6
sg7
S'dalvikvm'
p633
sg9
S' 9010'
p634
sg11
S'GC_FOR_ALLOC freed 7293K, 10% free 23912K/26432K, paused 82ms, total 83ms\n'
p635
sa(dp636
g2
S'9010'
p637
sg4
L1449718172155L
sg5
g6
sg7
S'dalvikvm'
p638
sg9
S' 9010'
p639
sg11
S'GC_FOR_ALLOC freed 8K, 9% free 27504K/30036K, paused 16ms, total 16ms\n'
p640
sa(dp641
g2
S'9010'
p642
sg4
L1449718172435L
sg5
g6
sg7
S'cn.edu.nju.ise.kikandroid'
p643
sg9
S' 9058'
p644
sg11
S'Screenshot:1449718171974\n'
p645
sa(dp646
g2
S'9010'
p647
sg4
L1449718173045L
sg5
g6
sg7
S'MainActivity'
p648
sg9
S' 9148'
p649
sg11
S'h:910.5,w:1687.5\n'
p650
sa(dp651
g2
S'9010'
p652
sg4
L1449718178515L
sg5
g6
sg7
S'dalvikvm'
p653
sg9
S' 9010'
p654
sg11
S'GC_FOR_ALLOC freed 7273K, 10% free 23907K/26432K, paused 39ms, total 40ms\n'
p655
sa(dp656
g2
S'9010'
p657
sg4
L1449718178635L
sg5
g6
sg7
S'dalvikvm'
p658
sg9
S' 9010'
p659
sg11
S'GC_FOR_ALLOC freed 1K, 9% free 27505K/30036K, paused 18ms, total 18ms\n'
p660
sa(dp661
g2
S'9010'
p662
sg4
L1449718178955L
sg5
g6
sg7
S'cn.edu.nju.ise.kikandroid'
p663
sg9
S' 9058'
p664
sg11
S'Screenshot:1449718178479\n'
p665
sa(dp666
g2
S'9010'
p667
sg4
L1449718179445L
sg5
S'W'
p668
sg7
S'webview '
p669
sg9
S' 9010'
p670
sg11
S'mInputDispatcher rejected the event!\n'
p671
sa(dp672
g2
S'9010'
p673
sg4
L1449718179555L
sg5
g668
sg7
S'webview '
p674
sg9
S' 9010'
p675
sg11
S'mInputDispatcher rejected the event!\n'
p676
sa(dp677
g2
S'9010'
p678
sg4
L1449718179585L
sg5
g668
sg7
S'webview '
p679
sg9
S' 9010'
p680
sg11
S'mInputDispatcher rejected the event!\n'
p681
sa(dp682
g2
S'9010'
p683
sg4
L1449718179595L
sg5
g668
sg7
S'webview '
p684
sg9
S' 9010'
p685
sg11
S'mInputDispatcher rejected the event!\n'
p686
sa(dp687
g2
S'9010'
p688
sg4
L1449718181665L
sg5
g668
sg7
S'webview '
p689
sg9
S' 9010'
p690
sg11
S'mInputDispatcher rejected the event!\n'
p691
sa(dp692
g2
S'9010'
p693
sg4
L1449718182055L
sg5
g6
sg7
S'dalvikvm'
p694
sg9
S' 9010'
p695
sg11
S'GC_FOR_ALLOC freed 7265K, 10% free 23906K/26432K, paused 71ms, total 71ms\n'
p696
sa(dp697
g2
S'9010'
p698
sg4
L1449718182145L
sg5
g6
sg7
S'dalvikvm'
p699
sg9
S' 9010'
p700
sg11
S'GC_FOR_ALLOC freed 1K, 9% free 27505K/30036K, paused 30ms, total 30ms\n'
p701
sa(dp702
g2
S'9010'
p703
sg4
L1449718182435L
sg5
g6
sg7
S'cn.edu.nju.ise.kikandroid'
p704
sg9
S' 9058'
p705
sg11
S'Screenshot:1449718181991\n'
p706
sa(dp707
g2
S'9010'
p708
sg4
L1449718183095L
sg5
g668
sg7
S'webview '
p709
sg9
S' 9010'
p710
sg11
S'mInputDispatcher rejected the event!\n'
p711
sa(dp712
g2
S'9010'
p713
sg4
L1449718183115L
sg5
g668
sg7
S'webview '
p714
sg9
S' 9010'
p715
sg11
S'mInputDispatcher rejected the event!\n'
p716
sa(dp717
g2
S'9010'
p718
sg4
L1449718184655L
sg5
g668
sg7
S'webview '
p719
sg9
S' 9010'
p720
sg11
S'mInputDispatcher rejected the event!\n'
p721
sa(dp722
g2
S'9010'
p723
sg4
L1449718185585L
sg5
g6
sg7
S'dalvikvm'
p724
sg9
S' 9010'
p725
sg11
S'GC_FOR_ALLOC freed 7266K, 10% free 23906K/26432K, paused 80ms, total 80ms\n'
p726
sa(dp727
g2
S'9010'
p728
sg4
L1449718185665L
sg5
g6
sg7
S'dalvikvm'
p729
sg9
S' 9010'
p730
sg11
S'GC_FOR_ALLOC freed <1K, 9% free 27506K/30036K, paused 17ms, total 17ms\n'
p731
sa(dp732
g2
S'9010'
p733
sg4
L1449718185925L
sg5
g6
sg7
S'cn.edu.nju.ise.kikandroid'
p734
sg9
S' 9058'
p735
sg11
S'Screenshot:1449718185509\n'
p736
sa(dp737
g2
S'9010'
p738
sg4
L1449718188575L
sg5
g6
sg7
S'MainActivity'
p739
sg9
S' 9148'
p740
sg11
S'h:910.5,w:1687.5\n'
p741
sa(dp742
g2
S'9010'
p743
sg4
L1449718191465L
sg5
g217
sg7
S'webcoreglue'
p744
sg9
S' 9148'
p745
sg11
S'getAbsoluteBoundingBox failed for node 0x66118f00, name RenderSVGContainer\n'
p746
sa(dp747
g2
S'9010'
p748
sg4
L1449718191465L
sg5
g217
sg7
S'webcoreglue'
p749
sg9
S' 9148'
p750
sg11
S'getAbsoluteBoundingBox failed for node 0x66118d30, name RenderSVGContainer\n'
p751
sa(dp752
g2
S'9010'
p753
sg4
L1449718191465L
sg5
g217
sg7
S'webcoreglue'
p754
sg9
S' 9148'
p755
sg11
S'getAbsoluteBoundingBox failed for node 0x60ebbd78, name RenderSVGContainer\n'
p756
sa(dp757
g2
S'9010'
p758
sg4
L1449718191465L
sg5
g217
sg7
S'webcoreglue'
p759
sg9
S' 9148'
p760
sg11
S'getAbsoluteBoundingBox failed for node 0x662b09e0, name RenderSVGPath\n'
p761
sa(dp762
g2
S'9010'
p763
sg4
L1449718193525L
sg5
g6
sg7
S'dalvikvm'
p764
sg9
S' 9010'
p765
sg11
S'GC_FOR_ALLOC freed 7409K, 28% free 25349K/34744K, paused 25ms, total 25ms\n'
p766
sa(dp767
g2
S'9010'
p768
sg4
L1449718193615L
sg5
g6
sg7
S'dalvikvm'
p769
sg9
S' 9014'
p770
sg11
S'GC_CONCURRENT freed 3615K, 17% free 28940K/34744K, paused 2ms+8ms, total 27ms\n'
p771
sa(dp772
g2
S'9010'
p773
sg4
L1449718193785L
sg5
g6
sg7
S'cn.edu.nju.ise.kikandroid'
p774
sg9
S' 9058'
p775
sg11
S'Screenshot:1449718193504\n'
p776
sa(dp777
g2
S'9010'
p778
sg4
L1449718194335L
sg5
g217
sg7
S'webcoreglue'
p779
sg9
S' 9148'
p780
sg11
S'getAbsoluteBoundingBox failed for node 0x66116498, name RenderSVGContainer\n'
p781
sa(dp782
g2
S'9010'
p783
sg4
L1449718194335L
sg5
g217
sg7
S'webcoreglue'
p784
sg9
S' 9148'
p785
sg11
S'getAbsoluteBoundingBox failed for node 0x661162e0, name RenderSVGContainer\n'
p786
sa(dp787
g2
S'9010'
p788
sg4
L1449718194355L
sg5
g217
sg7
S'webcoreglue'
p789
sg9
S' 9148'
p790
sg11
S'getAbsoluteBoundingBox failed for node 0x658f7050, name RenderSVGContainer\n'
p791
sa(dp792
g2
S'9010'
p793
sg4
L1449718194355L
sg5
g217
sg7
S'webcoreglue'
p794
sg9
S' 9148'
p795
sg11
S'getAbsoluteBoundingBox failed for node 0x66093558, name RenderSVGPath\n'
p796
sa(dp797
g2
S'9010'
p798
sg4
L1449718195365L
sg5
g6
sg7
S'MainActivity'
p799
sg9
S' 9148'
p800
sg11
S'h:692.605,w:1476.39\n'
p801
sa(dp802
g2
S'9010'
p803
sg4
L1449718200155L
sg5
g6
sg7
S'dalvikvm'
p804
sg9
S' 9010'
p805
sg11
S'GC_FOR_ALLOC freed 3680K, 17% free 28945K/34736K, paused 18ms, total 19ms\n'
p806
sa(dp807
g2
S'9010'
p808
sg4
L1449718200445L
sg5
g6
sg7
S'cn.edu.nju.ise.kikandroid'
p809
sg9
S' 9058'
p810
sg11
S'Screenshot:1449718200027\n'
p811
sa(dp812
g2
S'9010'
p813
sg4
L1449718201345L
sg5
g6
sg7
S'MainActivity'
p814
sg9
S' 9148'
p815
sg11
S'h:910.5,w:1687.5\n'
p816
sa(dp817
g2
S'9010'
p818
sg4
L1449718202045L
sg5
g217
sg7
S'webcoreglue'
p819
sg9
S' 9148'
p820
sg11
S'getAbsoluteBoundingBox failed for node 0x61bcdde8, name RenderSVGContainer\n'
p821
sa(dp822
g2
S'9010'
p823
sg4
L1449718202045L
sg5
g217
sg7
S'webcoreglue'
p824
sg9
S' 9148'
p825
sg11
S'getAbsoluteBoundingBox failed for node 0x61bce090, name RenderSVGContainer\n'
p826
sa(dp827
g2
S'9010'
p828
sg4
L1449718202085L
sg5
g217
sg7
S'webcoreglue'
p829
sg9
S' 9148'
p830
sg11
S'getAbsoluteBoundingBox failed for node 0x661b4d78, name RenderSVGContainer\n'
p831
sa(dp832
g2
S'9010'
p833
sg4
L1449718202085L
sg5
g217
sg7
S'webcoreglue'
p834
sg9
S' 9148'
p835
sg11
S'getAbsoluteBoundingBox failed for node 0x6267c6b8, name RenderSVGPath\n'
p836
sa(dp837
g2
S'9010'
p838
sg4
L1449718203125L
sg5
g6
sg7
S'MainActivity'
p839
sg9
S' 9148'
p840
sg11
S'h:686.605,w:1476.39\n'
p841
sa(dp842
g2
S'9031'
p843
sg4
L1449718206715L
sg5
g6
sg7
S'ForegroundActivity'
p844
sg9
S' 9045'
p845
sg11
S'\xe6\x9c\xac\xe6\xac\xa1\xe5\x8f\x91\xe9\x80\x81\xe5\xb8\xa7\xe9\x95\xbf:13\t\xe6\x80\xbb\xe5\xb8\xa7\xe9\x95\xbf:95\n'
p846
sa(dp847
g2
S'9031'
p848
sg4
L1449718206825L
sg5
g6
sg7
S'ForegroundActivity'
p849
sg9
S' 9054'
p850
sg11
S'\xe6\x9c\xac\xe6\xac\xa1\xe6\x94\xb6\xe5\x88\xb0\xe5\xb8\xa7\xe9\x95\xbf:13\t\xe6\x80\xbb\xe5\xb8\xa7\xe9\x95\xbf:761\n'
p851
sa(dp852
g2
S'9031'
p853
sg4
L1449718207185L
sg5
g6
sg7
S'SocketService1'
p854
sg9
S' 9047'
p855
sg11
S'\xe6\x9c\xac\xe6\xac\xa1\xe6\x8f\x90\xe5\x8f\x961:LoadPtr:761 HeadIndex:748 GetSize:13 13 0 \xe5\xa4\xb4\xe4\xbf\xa1\xe6\x81\xaf:EB 90 EB 90 EB 90 0D 00 10 01 \n'
p856
sa(dp857
g2
S'9010'
p858
sg4
L1449718208035L
sg5
g6
sg7
S'dalvikvm'
p859
sg9
S' 9010'
p860
sg11
S'GC_FOR_ALLOC freed 7295K, 28% free 25347K/34736K, paused 28ms, total 28ms\n'
p861
sa(dp862
g2
S'9010'
p863
sg4
L1449718208185L
sg5
g6
sg7
S'dalvikvm'
p864
sg9
S' 9014'
p865
sg11
S'GC_CONCURRENT freed 3610K, 17% free 28944K/34736K, paused 2ms+4ms, total 54ms\n'
p866
sa(dp867
g2
S'9010'
p868
sg4
L1449718208425L
sg5
g6
sg7
S'cn.edu.nju.ise.kikandroid'
p869
sg9
S' 9058'
p870
sg11
S'Screenshot:1449718208008\n'
p871
sa(dp872
g2
S'9010'
p873
sg4
L1449718208955L
sg5
g6
sg7
S'MainActivity'
p874
sg9
S' 9148'
p875
sg11
S'h:910.5,w:1687.5\n'
p876
sa(dp877
g2
S'9010'
p878
sg4
L1449718209525L
sg5
g217
sg7
S'webcoreglue'
p879
sg9
S' 9148'
p880
sg11
S'getAbsoluteBoundingBox failed for node 0x65397078, name RenderSVGContainer\n'
p881
sa(dp882
g2
S'9010'
p883
sg4
L1449718209545L
sg5
g217
sg7
S'webcoreglue'
p884
sg9
S' 9148'
p885
sg11
S'getAbsoluteBoundingBox failed for node 0x65acf538, name RenderSVGContainer\n'
p886
sa(dp887
g2
S'9010'
p888
sg4
L1449718209545L
sg5
g217
sg7
S'webcoreglue'
p889
sg9
S' 9148'
p890
sg11
S'getAbsoluteBoundingBox failed for node 0x65acf728, name RenderSVGContainer\n'
p891
sa(dp892
g2
S'9010'
p893
sg4
L1449718209555L
sg5
g217
sg7
S'webcoreglue'
p894
sg9
S' 9148'
p895
sg11
S'getAbsoluteBoundingBox failed for node 0x651f73f0, name RenderSVGPath\n'
p896
sa(dp897
g2
S'9010'
p898
sg4
L1449718210615L
sg5
g6
sg7
S'MainActivity'
p899
sg9
S' 9148'
p900
sg11
S'h:688.979,w:1476.39\n'
p901
sa(dp902
g2
S'9010'
p903
sg4
L1449718214985L
sg5
g6
sg7
S'dalvikvm'
p904
sg9
S' 9010'
p905
sg11
S'GC_FOR_ALLOC freed 3684K, 17% free 28947K/34736K, paused 22ms, total 22ms\n'
p906
sa(dp907
g2
S'9010'
p908
sg4
L1449718215325L
sg5
g6
sg7
S'cn.edu.nju.ise.kikandroid'
p909
sg9
S' 9058'
p910
sg11
S'Screenshot:1449718214855\n'
p911
sa(dp912
g2
S'9010'
p913
sg4
L1449718215775L
sg5
g6
sg7
S'MainActivity'
p914
sg9
S' 9148'
p915
sg11
S'h:910.5,w:1687.5\n'
p916
sa(dp917
g2
S'9010'
p918
sg4
L1449718216335L
sg5
g217
sg7
S'webcoreglue'
p919
sg9
S' 9148'
p920
sg11
S'getAbsoluteBoundingBox failed for node 0x65ef9270, name RenderSVGContainer\n'
p921
sa(dp922
g2
S'9010'
p923
sg4
L1449718216335L
sg5
g217
sg7
S'webcoreglue'
p924
sg9
S' 9148'
p925
sg11
S'getAbsoluteBoundingBox failed for node 0x634ac908, name RenderSVGContainer\n'
p926
sa(dp927
g2
S'9010'
p928
sg4
L1449718216345L
sg5
g217
sg7
S'webcoreglue'
p929
sg9
S' 9148'
p930
sg11
S'getAbsoluteBoundingBox failed for node 0x634acaf8, name RenderSVGContainer\n'
p931
sa(dp932
g2
S'9010'
p933
sg4
L1449718216345L
sg5
g217
sg7
S'webcoreglue'
p934
sg9
S' 9148'
p935
sg11
S'getAbsoluteBoundingBox failed for node 0x61a80be0, name RenderSVGPath\n'
p936
sa(dp937
g2
S'9010'
p938
sg4
L1449718216815L
sg5
g30
sg7
S'Web Console'
p939
sg9
S' 9010'
p940
sg11
S'No data received from server at http://oa.paneng.cn:1143/se9200/dwr/engine.js:599\n'
p941
sa(dp942
g2
S'9010'
p943
sg4
L1449718218905L
sg5
g217
sg7
S'webcoreglue'
p944
sg9
S' 9148'
p945
sg11
S'getAbsoluteBoundingBox failed for node 0x65ef9270, name RenderSVGContainer\n'
p946
sa(dp947
g2
S'9010'
p948
sg4
L1449718218905L
sg5
g217
sg7
S'webcoreglue'
p949
sg9
S' 9148'
p950
sg11
S'getAbsoluteBoundingBox failed for node 0x634ac908, name RenderSVGContainer\n'
p951
sa(dp952
g2
S'9010'
p953
sg4
L1449718218905L
sg5
g217
sg7
S'webcoreglue'
p954
sg9
S' 9148'
p955
sg11
S'getAbsoluteBoundingBox failed for node 0x634acaf8, name RenderSVGContainer\n'
p956
sa(dp957
g2
S'9010'
p958
sg4
L1449718218905L
sg5
g217
sg7
S'webcoreglue'
p959
sg9
S' 9148'
p960
sg11
S'getAbsoluteBoundingBox failed for node 0x61a80be0, name RenderSVGPath\n'
p961
sa(dp962
g2
S'9010'
p963
sg4
L1449718219485L
sg5
g6
sg7
S'MainActivity'
p964
sg9
S' 9148'
p965
sg11
S'h:684.605,w:1476.39\n'
p966
sa(dp967
g2
S'9010'
p968
sg4
L1449718221475L
sg5
g6
sg7
S'dalvikvm'
p969
sg9
S' 9010'
p970
sg11
S'GC_FOR_ALLOC freed 7292K, 28% free 25350K/34736K, paused 77ms, total 77ms\n'
p971
sa(dp972
g2
S'9010'
p973
sg4
L1449718221665L
sg5
g6
sg7
S'dalvikvm'
p974
sg9
S' 9014'
p975
sg11
S'GC_CONCURRENT freed 3609K, 17% free 28948K/34736K, paused 2ms+3ms, total 24ms\n'
p976
sa(dp977
g2
S'9010'
p978
sg4
L1449718222005L
sg5
g6
sg7
S'cn.edu.nju.ise.kikandroid'
p979
sg9
S' 9058'
p980
sg11
S'Screenshot:1449718221407\n'
p981
sa(dp982
g2
S'9010'
p983
sg4
L1449718222375L
sg5
g6
sg7
S'MainActivity'
p984
sg9
S' 9148'
p985
sg11
S'h:910.5,w:1687.5\n'
p986
sa(dp987
g2
S'9010'
p988
sg4
L1449718223105L
sg5
g217
sg7
S'webcoreglue'
p989
sg9
S' 9148'
p990
sg11
S'getAbsoluteBoundingBox failed for node 0x66260148, name RenderSVGContainer\n'
p991
sa(dp992
g2
S'9010'
p993
sg4
L1449718223105L
sg5
g217
sg7
S'webcoreglue'
p994
sg9
S' 9148'
p995
sg11
S'getAbsoluteBoundingBox failed for node 0x60eb2bb0, name RenderSVGContainer\n'
p996
sa(dp997
g2
S'9010'
p998
sg4
L1449718223115L
sg5
g217
sg7
S'webcoreglue'
p999
sg9
S' 9148'
p1000
sg11
S'getAbsoluteBoundingBox failed for node 0x60eb2d88, name RenderSVGContainer\n'
p1001
sa(dp1002
g2
S'9010'
p1003
sg4
L1449718223115L
sg5
g217
sg7
S'webcoreglue'
p1004
sg9
S' 9148'
p1005
sg11
S'getAbsoluteBoundingBox failed for node 0x65fed898, name RenderSVGPath\n'
p1006
sa(dp1007
g2
S'9010'
p1008
sg4
L1449718224245L
sg5
g6
sg7
S'MainActivity'
p1009
sg9
S' 9148'
p1010
sg11
S'h:688.995,w:1444.27\n'
p1011
sa(dp1012
g2
S'9010'
p1013
sg4
L1449718227995L
sg5
g6
sg7
S'dalvikvm'
p1014
sg9
S' 9010'
p1015
sg11
S'GC_FOR_ALLOC freed 3688K, 17% free 28948K/34736K, paused 27ms, total 27ms\n'
p1016
sa(dp1017
g2
S'9010'
p1018
sg4
L1449718228215L
sg5
g6
sg7
S'cn.edu.nju.ise.kikandroid'
p1019
sg9
S' 9058'
p1020
sg11
S'Screenshot:1449718227908\n'
p1021
sa(dp1022
g2
S'9010'
p1023
sg4
L1449718228835L
sg5
g6
sg7
S'MainActivity'
p1024
sg9
S' 9148'
p1025
sg11
S'h:910.5,w:1687.5\n'
p1026
sa(dp1027
g2
S'9010'
p1028
sg4
L1449718230225L
sg5
g217
sg7
S'webcoreglue'
p1029
sg9
S' 9148'
p1030
sg11
S'getAbsoluteBoundingBox failed for node 0x64d02ba0, name RenderSVGContainer\n'
p1031
sa(dp1032
g2
S'9010'
p1033
sg4
L1449718230225L
sg5
g217
sg7
S'webcoreglue'
p1034
sg9
S' 9148'
p1035
sg11
S'getAbsoluteBoundingBox failed for node 0x64d02e78, name RenderSVGContainer\n'
p1036
sa(dp1037
g2
S'9010'
p1038
sg4
L1449718230225L
sg5
g217
sg7
S'webcoreglue'
p1039
sg9
S' 9148'
p1040
sg11
S'getAbsoluteBoundingBox failed for node 0x65dfcff8, name RenderSVGContainer\n'
p1041
sa(dp1042
g2
S'9010'
p1043
sg4
L1449718230225L
sg5
g217
sg7
S'webcoreglue'
p1044
sg9
S' 9148'
p1045
sg11
S'getAbsoluteBoundingBox failed for node 0x65dfd110, name RenderSVGPath\n'
p1046
sa(dp1047
g2
S'9010'
p1048
sg4
L1449718233535L
sg5
g6
sg7
S'MainActivity'
p1049
sg9
S' 9148'
p1050
sg11
S'h:696.14,w:1476.39\n'
p1051
sa(dp1052
g2
S'9010'
p1053
sg4
L1449718236105L
sg5
g6
sg7
S'dalvikvm'
p1054
sg9
S' 9010'
p1055
sg11
S'GC_FOR_ALLOC freed 7299K, 28% free 25349K/34736K, paused 19ms, total 19ms\n'
p1056
sa(dp1057
g2
S'9010'
p1058
sg4
L1449718236195L
sg5
g6
sg7
S'dalvikvm'
p1059
sg9
S' 9014'
p1060
sg11
S'GC_CONCURRENT freed 3610K, 17% free 28946K/34736K, paused 4ms+3ms, total 42ms\n'
p1061
sa(dp1062
g2
S'9010'
p1063
sg4
L1449718236385L
sg5
g6
sg7
S'cn.edu.nju.ise.kikandroid'
p1064
sg9
S' 9058'
p1065
sg11
S'Screenshot:1449718236088\n'
p1066
sa(dp1067
g2
S'9010'
p1068
sg4
L1449718237255L
sg5
g6
sg7
S'MainActivity'
p1069
sg9
S' 9148'
p1070
sg11
S'h:910.5,w:1687.5\n'
p1071
sa(dp1072
g2
S'9010'
p1073
sg4
L1449718237695L
sg5
g217
sg7
S'webcoreglue'
p1074
sg9
S' 9148'
p1075
sg11
S'getAbsoluteBoundingBox failed for node 0x65e83d00, name RenderSVGContainer\n'
p1076
sa(dp1077
g2
S'9010'
p1078
sg4
L1449718237695L
sg5
g217
sg7
S'webcoreglue'
p1079
sg9
S' 9148'
p1080
sg11
S'getAbsoluteBoundingBox failed for node 0x65e83f90, name RenderSVGContainer\n'
p1081
sa(dp1082
g2
S'9010'
p1083
sg4
L1449718237695L
sg5
g217
sg7
S'webcoreglue'
p1084
sg9
S' 9148'
p1085
sg11
S'getAbsoluteBoundingBox failed for node 0x65e3bbb8, name RenderSVGContainer\n'
p1086
sa(dp1087
g2
S'9010'
p1088
sg4
L1449718237705L
sg5
g217
sg7
S'webcoreglue'
p1089
sg9
S' 9148'
p1090
sg11
S'getAbsoluteBoundingBox failed for node 0x65e872b8, name RenderSVGPath\n'
p1091
sa(dp1092
g2
S'9010'
p1093
sg4
L1449718238805L
sg5
g6
sg7
S'MainActivity'
p1094
sg9
S' 9148'
p1095
sg11
S'h:694.294,w:1444.27\n'
p1096
sa(dp1097
g2
S'9010'
p1098
sg4
L1449718243495L
sg5
g6
sg7
S'dalvikvm'
p1099
sg9
S' 9010'
p1100
sg11
S'GC_FOR_ALLOC freed 3684K, 17% free 28949K/34736K, paused 17ms, total 18ms\n'
p1101
sa(dp1102
g2
S'9010'
p1103
sg4
L1449718243755L
sg5
g6
sg7
S'cn.edu.nju.ise.kikandroid'
p1104
sg9
S' 9058'
p1105
sg11
S'Screenshot:1449718243422\n'
p1106
sa(dp1107
g2
S'9010'
p1108
sg4
L1449718245105L
sg5
g6
sg7
S'MainActivity'
p1109
sg9
S' 9148'
p1110
sg11
S'h:910.5,w:1687.5\n'
p1111
sa(dp1112
g2
S'9031'
p1113
sg4
L1449718246725L
sg5
g6
sg7
S'ForegroundActivity'
p1114
sg9
S' 9045'
p1115
sg11
S'\xe6\x9c\xac\xe6\xac\xa1\xe5\x8f\x91\xe9\x80\x81\xe5\xb8\xa7\xe9\x95\xbf:13\t\xe6\x80\xbb\xe5\xb8\xa7\xe9\x95\xbf:108\n'
p1116
sa(dp1117
g2
S'9031'
p1118
sg4
L1449718246785L
sg5
g6
sg7
S'ForegroundActivity'
p1119
sg9
S' 9054'
p1120
sg11
S'\xe6\x9c\xac\xe6\xac\xa1\xe6\x94\xb6\xe5\x88\xb0\xe5\xb8\xa7\xe9\x95\xbf:13\t\xe6\x80\xbb\xe5\xb8\xa7\xe9\x95\xbf:774\n'
p1121
sa(dp1122
g2
S'9031'
p1123
sg4
L1449718247275L
sg5
g6
sg7
S'SocketService1'
p1124
sg9
S' 9047'
p1125
sg11
S'\xe6\x9c\xac\xe6\xac\xa1\xe6\x8f\x90\xe5\x8f\x961:LoadPtr:774 HeadIndex:761 GetSize:13 13 0 \xe5\xa4\xb4\xe4\xbf\xa1\xe6\x81\xaf:EB 90 EB 90 EB 90 0D 00 10 01 \n'
p1126
sa(dp1127
g2
S'9010'
p1128
sg4
L1449718247455L
sg5
g6
sg7
S'dalvikvm'
p1129
sg9
S' 9010'
p1130
sg11
S'GC_FOR_ALLOC freed 7278K, 28% free 25343K/34736K, paused 20ms, total 20ms\n'
p1131
sa(dp1132
g2
S'9010'
p1133
sg4
L1449718247535L
sg5
g6
sg7
S'dalvikvm'
p1134
sg9
S' 9014'
p1135
sg11
S'GC_CONCURRENT freed 3603K, 17% free 28947K/34736K, paused 1ms+3ms, total 42ms\n'
p1136
sa(dp1137
g2
S'9010'
p1138
sg4
L1449718247745L
sg5
g6
sg7
S'cn.edu.nju.ise.kikandroid'
p1139
sg9
S' 9058'
p1140
sg11
S'Screenshot:1449718247442\n'
p1141
sa(dp1142
g2
S'9010'
p1143
sg4
L1449718252745L
sg5
g6
sg7
S'dalvikvm'
p1144
sg9
S' 9010'
p1145
sg11
S'GC_FOR_ALLOC freed 3663K, 17% free 28943K/34736K, paused 17ms, total 18ms\n'
p1146
sa(dp1147
g2
S'9010'
p1148
sg4
L1449718253755L
sg5
g6
sg7
S'cn.edu.nju.ise.kikandroid'
p1149
sg9
S' 9058'
p1150
sg11
S'Screenshot:1449718252646\n'
p1151
sa(dp1152
g2
S'9010'
p1153
sg4
L1449718255345L
sg5
g6
sg7
S'MainActivity'
p1154
sg9
S' 9148'
p1155
sg11
S'h:766.083,w:1687.5\n'
p1156
sa(dp1157
g2
S'9010'
p1158
sg4
L1449718255715L
sg5
g6
sg7
S'MainActivity'
p1159
sg9
S' 9010'
p1160
sg11
S'MainActivity onDestroy\n'
p1161
sa(dp1162
g2
S'9031'
p1163
sg4
L1449718255715L
sg5
g6
sg7
S'SocketService'
p1164
sg9
S' 9031'
p1165
sg11
S'onStartCommand : bLogin:false\n'
p1166
sa(dp1167
g2
S'9010'
p1168
sg4
L1449718255775L
sg5
g6
sg7
S'dalvikvm'
p1169
sg9
S' 9014'
p1170
sg11
S'GC_CONCURRENT freed 7624K, 25% free 28001K/36944K, paused 1ms+5ms, total 27ms\n'
p1171
sa(dp1172
g2
S'9010'
p1173
sg4
L1449718255925L
sg5
g6
sg7
S'MainActivity'
p1174
sg9
S' 9010'
p1175
sg11
S'Start One Client\n'
p1176
sa(dp1177
g2
S'9010'
p1178
sg4
L1449718255925L
sg5
g668
sg7
S'PhoneWindow'
p1179
sg9
S' 9010'
p1180
sg11
S"Previously focused view reported id 2131230785 during save, but can't be found during restore.\n"
p1181
sa(dp1182
g2
S'9010'
p1183
sg4
L1449718255965L
sg5
g6
sg7
S'StrictMode'
p1184
sg9
S' 9010'
p1185
sg11
S'StrictMode policy violation; ~duration=46 ms: android.os.StrictMode$StrictModeDiskReadViolation: policy=23 violation=2\n\tat android.os.StrictMode$AndroidBlockGuardPolicy.onReadFromDisk(StrictMode.java:1126)\n\tat android.app.SharedPreferencesImpl.hasFileChangedUnexpectedly(SharedPreferencesImpl.java:175)\n\tat android.app.SharedPreferencesImpl.startReloadIfChangedUnexpectedly(SharedPreferencesImpl.java:151)\n\tat android.app.ContextImpl.getSharedPreferences(ContextImpl.java:745)\n\tat android.content.ContextWrapper.getSharedPreferences(ContextWrapper.java:167)\n\tat com.example.myfristandroid.MainActivity.initCfg(MainActivity.java:453)\n\tat com.example.myfristandroid.MainActivity.onCreate(MainActivity.java:295)\n\tat android.app.Activity.performCreate(Activity.java:5234)\n\tat android.app.Instrumentation.callActivityOnCreate(Instrumentation.java:1087)\n\tat android.app.ActivityThread.performLaunchActivity(ActivityThread.java:2302)\n\tat android.app.ActivityThread.handleLaunchActivity(ActivityThread.java:2388)\n\tat android.app.ActivityThread.handleRelaunchActivity(ActivityThread.java:3987)\n\tat android.app.ActivityThread.access$1000(ActivityThread.java:148)\n\tat android.app.ActivityThread$H.handleMessage(ActivityThread.java:1325)\n\tat android.os.Handler.dispatchMessage(Handler.java:99)\n\tat android.os.Looper.loop(Looper.java:137)\n\tat android.app.ActivityThread.main(ActivityThread.java:5473)\n\tat java.lang.reflect.Method.invokeNative(Native Method)\n\tat java.lang.reflect.Method.invoke(Method.java:525)\n\tat com.android.internal.os.ZygoteInit$MethodAndArgsCaller.run(ZygoteInit.java:804)\n\tat com.android.internal.os.ZygoteInit.main(ZygoteInit.java:620)\n\tat dalvik.system.NativeStart.main(Native Method)\n'
p1186
sa(dp1187
g2
S'9010'
p1188
sg4
L1449718256315L
sg5
g217
sg7
S'ActivityThread'
p1189
sg9
S' 9010'
p1190
sg11
S'Activity com.example.myfristandroid.MainActivity has leaked IntentReceiver com.example.myfristandroid.MainActivity$CmdReceiver@41d35ca0 that was originally registered here. Are you missing a call to unregisterReceiver()?\nandroid.app.IntentReceiverLeaked: Activity com.example.myfristandroid.MainActivity has leaked IntentReceiver com.example.myfristandroid.MainActivity$CmdReceiver@41d35ca0 that was originally registered here. Are you missing a call to unregisterReceiver()?\n\tat android.app.LoadedApk$ReceiverDispatcher.<init>(LoadedApk.java:850)\n\tat android.app.LoadedApk.getReceiverDispatcher(LoadedApk.java:616)\n\tat android.app.ContextImpl.registerReceiverInternal(ContextImpl.java:1430)\n\tat android.app.ContextImpl.registerReceiver(ContextImpl.java:1410)\n\tat android.app.ContextImpl.registerReceiver(ContextImpl.java:1404)\n\tat android.content.ContextWrapper.registerReceiver(ContextWrapper.java:446)\n\tat com.example.myfristandroid.MainActivity.onCreate(MainActivity.java:311)\n\tat android.app.Activity.performCreate(Activity.java:5234)\n\tat android.app.Instrumentation.callActivityOnCreate(Instrumentation.java:1087)\n\tat android.app.ActivityThread.performLaunchActivity(ActivityThread.java:2302)\n\tat android.app.ActivityThread.handleLaunchActivity(ActivityThread.java:2388)\n\tat android.app.ActivityThread.access$900(ActivityThread.java:148)\n\tat android.app.ActivityThread$H.handleMessage(ActivityThread.java:1319)\n\tat android.os.Handler.dispatchMessage(Handler.java:99)\n\tat android.os.Looper.loop(Looper.java:137)\n\tat android.app.ActivityThread.main(ActivityThread.java:5473)\n\tat java.lang.reflect.Method.invokeNative(Native Method)\n\tat java.lang.reflect.Method.invoke(Method.java:525)\n\tat com.android.internal.os.ZygoteInit$MethodAndArgsCaller.run(ZygoteInit.java:804)\n\tat com.android.internal.os.ZygoteInit.main(ZygoteInit.java:620)\n\tat dalvik.system.NativeStart.main(Native Method)\n'
p1191
sa(dp1192
g2
S'9010'
p1193
sg4
L1449718256335L
sg5
g6
sg7
S'MainActivity'
p1194
sg9
S' 9010'
p1195
sg11
S'MainActivity onDestroy\n'
p1196
sa(dp1197
g2
S'9031'
p1198
sg4
L1449718256335L
sg5
g6
sg7
S'SocketService'
p1199
sg9
S' 9031'
p1200
sg11
S'onStartCommand : bLogin:false\n'
p1201
sa(dp1202
g2
S'9010'
p1203
sg4
L1449718256395L
sg5
g6
sg7
S'dalvikvm'
p1204
sg9
S' 9014'
p1205
sg11
S'GC_CONCURRENT freed 2572K, 14% free 31829K/36944K, paused 1ms+4ms, total 25ms\n'
p1206
sa(dp1207
g2
S'9010'
p1208
sg4
L1449718256515L
sg5
g6
sg7
S'MainActivity'
p1209
sg9
S' 9010'
p1210
sg11
S'Start One Client\n'
p1211
sa(dp1212
g2
S'9010'
p1213
sg4
L1449718256515L
sg5
g668
sg7
S'PhoneWindow'
p1214
sg9
S' 9010'
p1215
sg11
S"Previously focused view reported id 2131230785 during save, but can't be found during restore.\n"
p1216
sa(dp1217
g2
S'9010'
p1218
sg4
L1449718256685L
sg5
g217
sg7
S'ActivityThread'
p1219
sg9
S' 9010'
p1220
sg11
S'Activity com.example.myfristandroid.MainActivity has leaked IntentReceiver com.example.myfristandroid.MainActivity$CmdReceiver@419e5918 that was originally registered here. Are you missing a call to unregisterReceiver()?\nandroid.app.IntentReceiverLeaked: Activity com.example.myfristandroid.MainActivity has leaked IntentReceiver com.example.myfristandroid.MainActivity$CmdReceiver@419e5918 that was originally registered here. Are you missing a call to unregisterReceiver()?\n\tat android.app.LoadedApk$ReceiverDispatcher.<init>(LoadedApk.java:850)\n\tat android.app.LoadedApk.getReceiverDispatcher(LoadedApk.java:616)\n\tat android.app.ContextImpl.registerReceiverInternal(ContextImpl.java:1430)\n\tat android.app.ContextImpl.registerReceiver(ContextImpl.java:1410)\n\tat android.app.ContextImpl.registerReceiver(ContextImpl.java:1404)\n\tat android.content.ContextWrapper.registerReceiver(ContextWrapper.java:446)\n\tat com.example.myfristandroid.MainActivity.onCreate(MainActivity.java:311)\n\tat android.app.Activity.performCreate(Activity.java:5234)\n\tat android.app.Instrumentation.callActivityOnCreate(Instrumentation.java:1087)\n\tat android.app.ActivityThread.performLaunchActivity(ActivityThread.java:2302)\n\tat android.app.ActivityThread.handleLaunchActivity(ActivityThread.java:2388)\n\tat android.app.ActivityThread.handleRelaunchActivity(ActivityThread.java:3987)\n\tat android.app.ActivityThread.access$1000(ActivityThread.java:148)\n\tat android.app.ActivityThread$H.handleMessage(ActivityThread.java:1325)\n\tat android.os.Handler.dispatchMessage(Handler.java:99)\n\tat android.os.Looper.loop(Looper.java:137)\n\tat android.app.ActivityThread.main(ActivityThread.java:5473)\n\tat java.lang.reflect.Method.invokeNative(Native Method)\n\tat java.lang.reflect.Method.invoke(Method.java:525)\n\tat com.android.internal.os.ZygoteInit$MethodAndArgsCaller.run(ZygoteInit.java:804)\n\tat com.android.internal.os.ZygoteInit.main(ZygoteInit.java:620)\n\tat dalvik.system.NativeStart.main(Native Method)\n'
p1221
sa(dp1222
g2
S'9010'
p1223
sg4
L1449718260035L
sg5
g6
sg7
S'MainActivity'
p1224
sg9
S' 9148'
p1225
sg11
S'h:766.083,w:1687.5\n'
p1226
sa(dp1227
g2
S'9010'
p1228
sg4
L1449718262815L
sg5
g6
sg7
S'dalvikvm'
p1229
sg9
S' 9010'
p1230
sg11
S'GC_FOR_ALLOC freed 1643K, 12% free 32650K/36936K, paused 79ms, total 79ms\n'
p1231
sa(dp1232
g2
S'9010'
p1233
sg4
L1449718262885L
sg5
g6
sg7
S'dalvikvm'
p1234
sg9
S' 9010'
p1235
sg11
S'GC_FOR_ALLOC freed 47K, 11% free 36203K/40540K, paused 25ms, total 25ms\n'
p1236
sa(dp1237
g2
S'9010'
p1238
sg4
L1449718263105L
sg5
g6
sg7
S'cn.edu.nju.ise.kikandroid'
p1239
sg9
S' 9058'
p1240
sg11
S'Screenshot:1449718262743\n'
p1241
sa(dp1242
g2
S'9010'
p1243
sg4
L1449718268545L
sg5
g6
sg7
S'MyWebView'
p1244
sg9
S' 9010'
p1245
sg11
S'xspeed1:-5642 distanceX1:-224\n'
p1246
sa(dp1247
g2
S'9010'
p1248
sg4
L1449718268545L
sg5
g30
sg7
S'dalvikvm'
p1249
sg9
S' 9017'
p1250
sg11
S'Jit: resizing JitTable from 4096 to 8192\n'
p1251
sa(dp1252
g2
S'9010'
p1253
sg4
L1449718273675L
sg5
g6
sg7
S'dalvikvm'
p1254
sg9
S' 9010'
p1255
sg11
S'GC_FOR_ALLOC freed 7423K, 7% free 34612K/36936K, paused 78ms, total 80ms\n'
p1256
sa(dp1257
g2
S'9010'
p1258
sg4
L1449718273715L
sg5
g6
sg7
S'dalvikvm'
p1259
sg9
S' 9010'
p1260
sg11
S'GC_FOR_ALLOC freed 19K, 6% free 38192K/40540K, paused 25ms, total 25ms\n'
p1261
sa(dp1262
g2
S'9010'
p1263
sg4
L1449718273885L
sg5
g6
sg7
S'cn.edu.nju.ise.kikandroid'
p1264
sg9
S' 9058'
p1265
sg11
S'Screenshot:1449718273603\n'
p1266
sa(dp1267
g2
S'9010'
p1268
sg4
L1449718279165L
sg5
g6
sg7
S'dalvikvm'
p1269
sg9
S' 9010'
p1270
sg11
S'GC_FOR_ALLOC freed 7350K, 7% free 34643K/36936K, paused 52ms, total 62ms\n'
p1271
sa(dp1272
g2
S'9010'
p1273
sg4
L1449718279225L
sg5
g6
sg7
S'dalvikvm'
p1274
sg9
S' 9010'
p1275
sg11
S'GC_FOR_ALLOC freed 9K, 6% free 38234K/40540K, paused 39ms, total 40ms\n'
p1276
sa(dp1277
g2
S'9010'
p1278
sg4
L1449718279405L
sg5
g6
sg7
S'cn.edu.nju.ise.kikandroid'
p1279
sg9
S' 9058'
p1280
sg11
S'Screenshot:1449718279107\n'
p1281
sa(dp1282
g2
S'9031'
p1283
sg4
L1449718286745L
sg5
g6
sg7
S'ForegroundActivity'
p1284
sg9
S' 9045'
p1285
sg11
S'\xe6\x9c\xac\xe6\xac\xa1\xe5\x8f\x91\xe9\x80\x81\xe5\xb8\xa7\xe9\x95\xbf:13\t\xe6\x80\xbb\xe5\xb8\xa7\xe9\x95\xbf:121\n'
p1286
sa(dp1287
g2
S'9031'
p1288
sg4
L1449718286875L
sg5
g6
sg7
S'ForegroundActivity'
p1289
sg9
S' 9054'
p1290
sg11
S'\xe6\x9c\xac\xe6\xac\xa1\xe6\x94\xb6\xe5\x88\xb0\xe5\xb8\xa7\xe9\x95\xbf:13\t\xe6\x80\xbb\xe5\xb8\xa7\xe9\x95\xbf:787\n'
p1291
sa(dp1292
g2
S'9031'
p1293
sg4
L1449718287325L
sg5
g6
sg7
S'SocketService1'
p1294
sg9
S' 9047'
p1295
sg11
S'\xe6\x9c\xac\xe6\xac\xa1\xe6\x8f\x90\xe5\x8f\x961:LoadPtr:787 HeadIndex:774 GetSize:13 13 0 \xe5\xa4\xb4\xe4\xbf\xa1\xe6\x81\xaf:EB 90 EB 90 EB 90 0D 00 10 01 \n'
p1296
sa(dp1297
g2
S'9031'
p1298
sg4
L1449718292095L
sg5
g6
sg7
S'dalvikvm'
p1299
sg9
S' 9033'
p1300
sg11
S'GC_CONCURRENT freed 3928K, 52% free 3879K/8024K, paused 5ms+1ms, total 49ms\n'
p1301
sa(dp1302
g2
S'9010'
p1303
sg4
L1449718293515L
sg5
g6
sg7
S'dalvikvm'
p1304
sg9
S' 9010'
p1305
sg11
S'GC_FOR_ALLOC freed 7431K, 7% free 34682K/36936K, paused 44ms, total 44ms\n'
p1306
sa(dp1307
g2
S'9010'
p1308
sg4
L1449718293625L
sg5
g6
sg7
S'dalvikvm'
p1309
sg9
S' 9010'
p1310
sg11
S'GC_FOR_ALLOC freed 16K, 6% free 38266K/40540K, paused 27ms, total 27ms\n'
p1311
sa(dp1312
g2
S'9010'
p1313
sg4
L1449718293845L
sg5
g6
sg7
S'cn.edu.nju.ise.kikandroid'
p1314
sg9
S' 9058'
p1315
sg11
S'Screenshot:1449718293441\n'
p1316
sa(dp1317
g2
S'9010'
p1318
sg4
L1449718312955L
sg5
g6
sg7
S'dalvikvm'
p1319
sg9
S' 9010'
p1320
sg11
S'GC_FOR_ALLOC freed 7317K, 6% free 34720K/36936K, paused 69ms, total 70ms\n'
p1321
sa(dp1322
g2
S'9010'
p1323
sg4
L1449718313025L
sg5
g6
sg7
S'dalvikvm'
p1324
sg9
S' 9010'
p1325
sg11
S'GC_FOR_ALLOC freed 1K, 6% free 38319K/40540K, paused 39ms, total 40ms\n'
p1326
sa(dp1327
g2
S'9010'
p1328
sg4
L1449718313185L
sg5
g6
sg7
S'cn.edu.nju.ise.kikandroid'
p1329
sg9
S' 9058'
p1330
sg11
S'Screenshot:1449718312889\n'
p1331
sa(dp1332
g2
S'9010'
p1333
sg4
L1449718325105L
sg5
g6
sg7
S'MainActivity'
p1334
sg9
S' 9010'
p1335
sg11
S'V.getTag:null v.id:2131230740\n'
p1336
sa(dp1337
g2
S'9010'
p1338
sg4
L1449718325205L
sg5
g176
sg7
S'RenderScript'
p1339
sg9
S' 9010'
p1340
sg11
S'0x65eb71b8 Launching thread(s), CPUs 4\n'
p1341
sa(dp1342
g2
S'9031'
p1343
sg4
L1449718326725L
sg5
g6
sg7
S'ForegroundActivity'
p1344
sg9
S' 9045'
p1345
sg11
S'\xe6\x9c\xac\xe6\xac\xa1\xe5\x8f\x91\xe9\x80\x81\xe5\xb8\xa7\xe9\x95\xbf:13\t\xe6\x80\xbb\xe5\xb8\xa7\xe9\x95\xbf:134\n'
p1346
sa(dp1347
g2
S'9031'
p1348
sg4
L1449718326845L
sg5
g6
sg7
S'ForegroundActivity'
p1349
sg9
S' 9054'
p1350
sg11
S'\xe6\x9c\xac\xe6\xac\xa1\xe6\x94\xb6\xe5\x88\xb0\xe5\xb8\xa7\xe9\x95\xbf:13\t\xe6\x80\xbb\xe5\xb8\xa7\xe9\x95\xbf:800\n'
p1351
sa(dp1352
g2
S'9010'
p1353
sg4
L1449718327365L
sg5
g6
sg7
S'cn.edu.nju.ise.kikandroid'
p1354
sg9
S' 9058'
p1355
sg11
S'Log:1449718327377\n'
p1356
sa(dp1357
g2
S'9010'
p1358
sg4
L1449718327505L
sg5
g6
sg7
S'dalvikvm'
p1359
sg9
S' 9010'
p1360
sg11
S'GC_FOR_ALLOC freed 7702K, 6% free 34763K/36936K, paused 38ms, total 39ms\n'
p1361
sa(dp1362
g2
S'9010'
p1363
sg4
L1449718327585L
sg5
g6
sg7
S'dalvikvm'
p1364
sg9
S' 9010'
p1365
sg11
S'GC_FOR_ALLOC freed 17K, 6% free 38346K/40540K, paused 27ms, total 27ms\n'
p1366
sa(dp1367
g2
S'9031'
p1368
sg4
L1449718327615L
sg5
g6
sg7
S'SocketService1'
p1369
sg9
S' 9047'
p1370
sg11
S'\xe6\x9c\xac\xe6\xac\xa1\xe6\x8f\x90\xe5\x8f\x961:LoadPtr:800 HeadIndex:787 GetSize:13 13 0 \xe5\xa4\xb4\xe4\xbf\xa1\xe6\x81\xaf:EB 90 EB 90 EB 90 0D 00 10 01 \n'
p1371
sa(dp1372
g2
S'9010'
p1373
sg4
L1449718327705L
sg5
g217
sg7
S'WebUrlLoaderClient'
p1374
sg9
S' 9148'
p1375
sg11
S'Synchronous request timed out after 10 seconds for the 0th try, URL: http://oa.paneng.cn:1143/graph/1130000005.svg\n'
p1376
sa(dp1377
g2
S'9010'
p1378
sg4
L1449718327915L
sg5
g6
sg7
S'cn.edu.nju.ise.kikandroid'
p1379
sg9
S' 9058'
p1380
sg11
S'Screenshot:1449718327435\n'
p1381
sa(dp1382
g2
S'9010'
p1383
sg4
L1449718327915L
sg5
g668
sg7
S'dalvikvm'
p1384
sg9
S' 9058'
p1385
sg11
S'threadid=14: thread exiting with uncaught exception (group=0x415ae808)\n'
p1386
sa(dp1387
g2
S'9010'
p1388
sg4
L1449718327915L
sg5
g217
sg7
S'AndroidRuntime'
p1389
sg9
S' 9058'
p1390
sg11
S'FATAL EXCEPTION: Thread-1701\njava.lang.NullPointerException\n\tat android.app.Instrumentation.finish(Instrumentation.java:190)\n\tat cn.edu.nju.ise.kikandroid.AUTInstrument.quitInstr(AUTInstrument.java:195)\n\tat cn.edu.nju.ise.kikandroid.AUTInstrument.startServer(AUTInstrument.java:161)\n\tat cn.edu.nju.ise.kikandroid.AUTInstrument$1.run(AUTInstrument.java:107)\n\tat java.lang.Thread.run(Thread.java:841)\n'
p1391
sa.