(lp0
(dp1
S'processID'
p2
S'16258'
p3
sS'SyscTime'
p4
L1449729126736L
sS'priority'
p5
S'D'
p6
sS'tag'
p7
S'dalvikvm'
p8
sS'threadID'
p9
S'16262'
p10
sS'message'
p11
S'GC_CONCURRENT freed 655K, 24% free 7644K/9992K, paused 3ms+7ms, total 33ms\n'
p12
sa(dp13
g2
S'16258'
p14
sg4
L1449729126766L
sg5
g6
sg7
S'PullToRefresh'
p15
sg9
S'16258'
p16
sg11
S'First Visible: 0. Visible Count: 3. Total Items:3\n'
p17
sa(dp18
g2
S'16258'
p19
sg4
L1449729135946L
sg5
S'V'
p20
sg7
S'AsyncHttpRH'
p21
sg9
S'16258'
p22
sg11
S'Progress 1194 from 7840 (15%)\n'
p23
sa(dp24
g2
S'16258'
p25
sg4
L1449729135956L
sg5
g20
sg7
S'AsyncHttpRH'
p26
sg9
S'16258'
p27
sg11
S'Progress 2642 from 7840 (34%)\n'
p28
sa(dp29
g2
S'16258'
p30
sg4
L1449729135976L
sg5
g20
sg7
S'AsyncHttpRH'
p31
sg9
S'16258'
p32
sg11
S'Progress 5538 from 7840 (71%)\n'
p33
sa(dp34
g2
S'16258'
p35
sg4
L1449729135976L
sg5
g20
sg7
S'AsyncHttpRH'
p36
sg9
S'16258'
p37
sg11
S'Progress 7840 from 7840 (100%)\n'
p38
sa(dp39
g2
S'16258'
p40
sg4
L1449729135976L
sg5
g6
sg7
S'http    '
p41
sg9
S'16258'
p42
sg11
S'\xe8\xbf\x94\xe5\x9b\x9e\xe7\x9a\x84\xe7\xbb\x93\xe6\x9e\x9c\xef\xbc\x9a{\n  "State": 1,\n  "Data": [\n    {\n      "Id": 1,\n      "FileName": "SPOC\xe5\xb0\x8f\xe6\xbc\xab\xe7\x94\xbb",\n      "SystemName": "7dcd9c43e03b43ba90f76766ef91b74e",\n      "FileId": 55610,\n      "FileType": 1,\n      "ExtenName": "pdf",\n      "FilePath": "/0/DYH00004/",\n      "FileUrl": "http://xue.xdf.cn/Resources/files/0/DYH00004/7dcd9c43e03b43ba90f76766ef91b74e.pdf",\n      "SubScriberFileId": 811,\n      "IsView": 0,\n      "KeyWord": "\xe5\x88\x9d\xe6\x95\xb0",\n      "KeyColor": 3,\n      "ShareTime": "2015-10-30 12:42:36",\n      "BeginDate": null,\n      "EndDate": null,\n      "ViewCount": 732,\n      "LimitViewCount": null,\n      "MyViewCount": null,\n      "DownLoadCount": 18,\n      "SubscribCode": "DYH00004",\n      "Name": "\xe5\x88\x9d\xe4\xb8\xad\xe6\x95\xb0\xe5\xad\xa6",\n      "ResourcePreviewUrl": "http://student.xue.xdf.cn/resource/iframepreviewUrl/55610",\n      "StoredCount": 10,\n      "CommentedCount": 2,\n      "PraisedCount": 18,\n      "HasStored": 0,\n      "HasPraised": 0,\n      "Subject": "\xe6\x95\xb0\xe5\xad\xa6"\n    },\n    {\n      "Id": 2,\n      "FileName": "\xe7\xa8\x8b\xe8\xaf\x9a\xe8\x80\x81\xe5\xb8\x88spoc\xe7\xae\x80\xe4\xbb\x8b",\n      "SystemName": "e06e97e6f88c4acbb7a69584112103ad",\n      "FileId": 51694,\n      "FileType": 1,\n      "ExtenName": "jpg",\n      "FilePath": "/0/DYH00004/",\n      "FileUrl": "http://xue.xdf.cn/Resources/files/0/DYH00004/e06e97e6f88c4acbb7a69584112103ad.jpg",\n      "SubScriberFileId": 710,\n      "IsView": 1,\n      "KeyWord": "\xe5\x88\x9d\xe6\x95\xb0",\n      "KeyColor": 3,\n      "ShareTime": "2015-10-10 13:24:45",\n      "BeginDate": null,\n      "EndDate": null,\n      "ViewCount": 355,\n      "LimitViewCount": null,\n      "MyViewCount": null,\n      "DownLoadCount": 15,\n      "SubscribCode": "DYH00004",\n      "Name": "\xe5\x88\x9d\xe4\xb8\xad\xe6\x95\xb0\xe5\xad\xa6",\n      "ResourcePreviewUrl": "http://student.xue.xdf.cn/resource/iframepreviewUrl/51694",\n      "StoredCount": 6,\n      "CommentedCount": 2,\n      "PraisedCount": 6,\n      "HasStored": 0,\n      "HasPraised": 0,\n      "Subject": "\xe6\x95\xb0\xe5\xad\xa6"\n    },\n    {\n      "Id": 3,\n      "FileName": "\xe6\x89\xab\xe4\xb8\x80\xe6\x89\xab\xe5\x85\xb3\xe6\xb3\xa8\xe7\x94\xb0\xe4\xba\x9a\xe6\xa5\xa0\xe8\x80\x81\xe5\xb8\x88\xe7\xa7\x81\xe6\x92\xad\xe8\xaf\xbe",\n      "SystemName": "c5657fadb929416587a4245a534ab039",\n      "FileId": 49041,\n      "FileType": 1,\n      "ExtenName": "png",\n      "FilePath": "/0/DYH00004/",\n      "FileUrl": "http://xue.xdf.cn/Resources/files/0/DYH00004/c5657fadb929416587a4245a534ab039.png",\n      "SubScriberFileId": 649,\n      "IsView": 0,\n      "KeyWord": "\xe5\x88\x9d\xe6\x95\xb0",\n      "KeyColor": 3,\n      "ShareTime": "2015-09-23 21:27:15",\n      "BeginDate": null,\n      "EndDate": null,\n      "ViewCount": 382,\n      "LimitViewCount": null,\n      "MyViewCount": null,\n      "DownLoadCount": 3,\n      "SubscribCode": "DYH00004",\n      "Name": "\xe5\x88\x9d\xe4\xb8\xad\xe6\x95\xb0\xe5\xad\xa6",\n      "ResourcePreviewUrl": "http://student.xue.xdf.cn/resource/iframepreviewUrl/49041",\n      "StoredCount": 4,\n      "CommentedCount": 4,\n      "PraisedCount": 10,\n      "HasStored": 0,\n      "HasPraised": 0,\n      "Subject": "\xe6\x95\xb0\xe5\xad\xa6"\n    },\n    {\n      "Id": 4,\n      "FileName": "\xe3\x80\x90\xe8\xb6\xa3\xe5\x91\xb3\xe6\x95\xb0\xe5\xad\xa6NO.2\xe3\x80\x91\xe7\xad\x94\xe6\xa1\x88",\n      "SystemName": "e98310a5b37249758496c5b5012b258b",\n      "FileId": 45006,\n      "FileType": 1,\n      "ExtenName": "pdf",\n      "FilePath": "/0/DYH00004/",\n      "FileUrl": "http://xue.xdf.cn/Resources/files/0/DYH00004/e98310a5b37249758496c5b5012b258b.pdf",\n      "SubScriberFileId": 446,\n      "IsView": 0,\n      "KeyWord": "\xe5\x88\x9d\xe6\x95\xb0",\n      "KeyColor": 3,\n      "ShareTime": "2015-07-19 15:08:54",\n      "BeginDate": null,\n      "EndDate": null,\n      "ViewCount": 225,\n      "LimitViewCount": null,\n      "MyViewCount": null,\n      "DownLoadCount": 18,\n      "SubscribCode": "DYH00004",\n      "Name": "\xe5\x88\x9d\xe4\xb8\xad\xe6\x95\xb0\xe5\xad\xa6",\n      "ResourcePreviewUrl": "http://student.xue.xdf.cn/resource/iframepreviewUrl/45006",\n      "StoredCount": 1,\n      "CommentedCount": 1,\n      "PraisedCount": 4,\n      "HasStored": 0,\n      "HasPraised": 0,\n      "Subject": "\xe6\x95\xb0\xe5\xad\xa6"\n    },\n    {\n      "Id": 5,\n      "FileName": "\xe3\x80\x90\xe8\xb6\xa3\xe5\x91\xb3\xe6\x95\xb0\xe5\xad\xa6NO.2\xe3\x80\x91\xe8\x9c\x9c\xe8\x9c\x82\xe4\xb8\x8e\xe7\x81\xab\xe8\xbd\xa6",\n      "SystemName": "8a3c2fb99423490d94b7ffea78f70243",\n      "FileId": 45005,\n'
p43
sa(dp44
g2
S'16258'
p45
sg4
L1449729136176L
sg5
g6
sg7
S'dalvikvm'
p46
sg9
S'16262'
p47
sg11
S'GC_CONCURRENT freed 1141K, 25% free 7523K/9988K, paused 3ms+3ms, total 50ms\n'
p48
sa(dp49
g2
S'16258'
p50
sg4
L1449729136216L
sg5
g6
sg7
S'dalvikvm'
p51
sg9
S'16258'
p52
sg11
S'GC_FOR_ALLOC freed 258K, 28% free 7268K/9988K, paused 29ms, total 30ms\n'
p53
sa(dp54
g2
S'16258'
p55
sg4
L1449729136326L
sg5
g6
sg7
S'dalvikvm'
p56
sg9
S'16262'
p57
sg11
S'GC_CONCURRENT freed 575K, 25% free 7530K/9988K, paused 3ms+3ms, total 36ms\n'
p58
sa(dp59
g2
S'16258'
p60
sg4
L1449729136466L
sg5
g6
sg7
S'dalvikvm'
p61
sg9
S'16262'
p62
sg11
S'GC_CONCURRENT freed 643K, 23% free 7751K/9988K, paused 1ms+3ms, total 23ms\n'
p63
sa(dp64
g2
S'16258'
p65
sg4
L1449729136526L
sg5
g6
sg7
S'PullToRefresh'
p66
sg9
S'16258'
p67
sg11
S'First Visible: 0. Visible Count: 6. Total Items:11\n'
p68
sa(dp69
g2
S'16258'
p70
sg4
L1449729136836L
sg5
g6
sg7
S'dalvikvm'
p71
sg9
S'16262'
p72
sg11
S'GC_CONCURRENT freed 752K, 24% free 7674K/9988K, paused 3ms+4ms, total 28ms\n'
p73
sa(dp74
g2
S'16258'
p75
sg4
L1449729136836L
sg5
g6
sg7
S'PullToRefresh'
p76
sg9
S'16258'
p77
sg11
S'First Visible: 0. Visible Count: 6. Total Items:11\n'
p78
sa(dp79
g2
S'16258'
p80
sg4
L1449729137136L
sg5
g6
sg7
S'dalvikvm'
p81
sg9
S'16262'
p82
sg11
S'GC_CONCURRENT freed 664K, 24% free 7687K/9988K, paused 3ms+3ms, total 27ms\n'
p83
sa(dp84
g2
S'16258'
p85
sg4
L1449729142536L
sg5
g6
sg7
S'PullToRefresh'
p86
sg9
S'16258'
p87
sg11
S'isLastItemVisible. Last Item Position: 10 Last Visible Pos: 5\n'
p88
sa(dp89
g2
S'16258'
p90
sg4
L1449729142576L
sg5
g6
sg7
S'PullToRefresh'
p91
sg9
S'16258'
p92
sg11
S'isLastItemVisible. Last Item Position: 10 Last Visible Pos: 5\n'
p93
sa(dp94
g2
S'16258'
p95
sg4
L1449729142596L
sg5
g6
sg7
S'PullToRefresh'
p96
sg9
S'16258'
p97
sg11
S'isLastItemVisible. Last Item Position: 10 Last Visible Pos: 5\n'
p98
sa(dp99
g2
S'16258'
p100
sg4
L1449729142626L
sg5
g6
sg7
S'PullToRefresh'
p101
sg9
S'16258'
p102
sg11
S'isLastItemVisible. Last Item Position: 10 Last Visible Pos: 5\n'
p103
sa(dp104
g2
S'16258'
p105
sg4
L1449729142656L
sg5
g6
sg7
S'dalvikvm'
p106
sg9
S'16262'
p107
sg11
S'GC_CONCURRENT freed 713K, 23% free 7706K/9988K, paused 2ms+15ms, total 57ms\n'
p108
sa(dp109
g2
S'16258'
p110
sg4
L1449729142726L
sg5
g6
sg7
S'PullToRefresh'
p111
sg9
S'16258'
p112
sg11
S'First Visible: 0. Visible Count: 6. Total Items:11\n'
p113
sa(dp114
g2
S'16258'
p115
sg4
L1449729142816L
sg5
g6
sg7
S'dalvikvm'
p116
sg9
S'16258'
p117
sg11
S'GC_FOR_ALLOC freed 391K, 23% free 7717K/9988K, paused 22ms, total 23ms\n'
p118
sa(dp119
g2
S'16258'
p120
sg4
L1449729142826L
sg5
S'I'
p121
sg7
S'dalvikvm-heap'
p122
sg9
S'16258'
p123
sg11
S'Grow heap (frag case) to 13.645MB for 3686424-byte allocation\n'
p124
sa(dp125
g2
S'16258'
p126
sg4
L1449729142846L
sg5
g6
sg7
S'dalvikvm'
p127
sg9
S'16262'
p128
sg11
S'GC_CONCURRENT freed 21K, 17% free 11296K/13592K, paused 3ms+4ms, total 26ms\n'
p129
sa(dp130
g2
S'16258'
p131
sg4
L1449729142996L
sg5
g6
sg7
S'dalvikvm'
p132
sg9
S'16258'
p133
sg11
S'GC_FOR_ALLOC freed <1K, 17% free 11296K/13592K, paused 25ms, total 25ms\n'
p134
sa(dp135
g2
S'16258'
p136
sg4
L1449729142996L
sg5
g121
sg7
S'dalvikvm-heap'
p137
sg9
S'16258'
p138
sg11
S'Grow heap (frag case) to 15.602MB for 2073624-byte allocation\n'
p139
sa(dp140
g2
S'16258'
p141
sg4
L1449729143026L
sg5
g6
sg7
S'dalvikvm'
p142
sg9
S'16262'
p143
sg11
S'GC_CONCURRENT freed 0K, 15% free 13321K/15620K, paused 4ms+3ms, total 28ms\n'
p144
sa(dp145
g2
S'16258'
p146
sg4
L1449729143126L
sg5
g6
sg7
S'dalvikvm'
p147
sg9
S'16262'
p148
sg11
S'GC_CONCURRENT freed 4424K, 39% free 10661K/17380K, paused 2ms+4ms, total 25ms\n'
p149
sa(dp150
g2
S'16258'
p151
sg4
L1449729143126L
sg5
g6
sg7
S'dalvikvm'
p152
sg9
S'16258'
p153
sg11
S'WAIT_FOR_CONCURRENT_GC blocked 23ms\n'
p154
sa(dp155
g2
S'16258'
p156
sg4
L1449729143176L
sg5
g6
sg7
S'dalvikvm'
p157
sg9
S'16262'
p158
sg11
S'GC_CONCURRENT freed 722K, 37% free 11011K/17380K, paused 2ms+3ms, total 28ms\n'
p159
sa(dp160
g2
S'16258'
p161
sg4
L1449729143186L
sg5
g6
sg7
S'long    '
p162
sg9
S'16258'
p163
sg11
S'className:\xe5\x88\x9d\xe4\xb8\xad\xe6\x95\xb0\xe5\xad\xa6\n'
p164
sa(dp165
g2
S'16258'
p166
sg4
L1449729143206L
sg5
S'E'
p167
sg7
S'MaterialActivity.initView(L:527)'
p168
sg9
S'16258'
p169
sg11
S'http://xue.xdf.cn/Resources/files/0/DYH00004/7dcd9c43e03b43ba90f76766ef91b74e.pdf\n'
p170
sa(dp171
g2
S'16258'
p172
sg4
L1449729143206L
sg5
g6
sg7
S'long    '
p173
sg9
S'16258'
p174
sg11
S'download url:http://xue.xdf.cn/Resources/files/0/DYH00004/7dcd9c43e03b43ba90f76766ef91b74e.pdf\n'
p175
sa(dp176
g2
S'16258'
p177
sg4
L1449729143206L
sg5
g6
sg7
S'long    '
p178
sg9
S'16258'
p179
sg11
S'mPath.getPath():/storage/sdcard0/UPOC/download/SPOC\xe5\xb0\x8f\xe6\xbc\xab\xe7\x94\xbb55610.pdf\n'
p180
sa(dp181
g2
S'16258'
p182
sg4
L1449729143216L
sg5
g6
sg7
S'long    '
p183
sg9
S'16258'
p184
sg11
S'prestr\xef\xbc\x9aappid=5004&method=AddSubScriberFileViewHistory&subfileid=811&userid=xdf004483186&usertype=5&AppKey=v5key_my$cj_cnQcm\n'
p185
sa(dp186
g2
S'16258'
p187
sg4
L1449729143216L
sg5
g6
sg7
S'http    '
p188
sg9
S'16258'
p189
sg11
S'\xe8\xaf\xb7\xe6\xb1\x82\xe7\x9a\x84\xe5\x9c\xb0\xe5\x9d\x80\xef\xbc\x9ahttp://upoc.xdf.cn/Subscrib\n'
p190
sa(dp191
g2
S'16258'
p192
sg4
L1449729143216L
sg5
g6
sg7
S'http    '
p193
sg9
S'16258'
p194
sg11
S'\xe8\xaf\xb7\xe6\xb1\x82\xe7\x9a\x84\xe5\x8f\x82\xe6\x95\xb0\xef\xbc\x9amethod=AddSubScriberFileViewHistory&appid=5004&userid=xdf004483186&usertype=5&subfileid=811&sign=1A0E6CB9F08B881B92E9E906D0A3B5D4\n'
p195
sa(dp196
g2
S'16258'
p197
sg4
L1449729143216L
sg5
g6
sg7
S'long    '
p198
sg9
S'16258'
p199
sg11
S'context.getClass().getName():com.xdf.ucan.ui.material.MaterialActivity\n'
p200
sa(dp201
g2
S'16258'
p202
sg4
L1449729143356L
sg5
g20
sg7
S'AsyncHttpRH'
p203
sg9
S'16258'
p204
sg11
S'Progress 70 from 70 (100%)\n'
p205
sa(dp206
g2
S'16258'
p207
sg4
L1449729143356L
sg5
g6
sg7
S'http    '
p208
sg9
S'16258'
p209
sg11
S'\xe8\xbf\x94\xe5\x9b\x9e\xe7\x9a\x84\xe7\xbb\x93\xe6\x9e\x9c\xef\xbc\x9a{\n  "State": 1,\n  "Data": true,\n  "Error": "",\n  "DataCount": 1\n'
p210
sa(dp211
g2
S'16258'
p212
sg4
L1449729153526L
sg5
g167
sg7
S'RetryHandler.retryRequest(L:91)'
p213
sg9
S'16824'
p214
sg11
S'retry error, curr request is null\n'
p215
sa(dp216
g2
S'16258'
p217
sg4
L1449729156726L
sg5
g6
sg7
S'##IPC_io.rong.imlib.ConnectChangeReceiver:onReceive'
p218
sg9
S'16258'
p219
sg11
S'network:null, intent:Intent { act=android.net.conn.CONNECTIVITY_CHANGE flg=0x8000010 (has extras) }\n'
p220
sa(dp221
g2
S'16367'
p222
sg4
L1449729159306L
sg5
g121
sg7
S'##COMMON_io.rong.push.PushReceiver:Action'
p223
sg9
S'16367'
p224
sg11
S'android.net.conn.CONNECTIVITY_CHANGE\n'
p225
sa(dp226
g2
S'16367'
p227
sg4
L1449729159306L
sg5
g6
sg7
S'##COMMON_io.rong.push.PushReceiver:CONNECTIVITY_ACTION'
p228
sg9
S'16367'
p229
sg11
S'Receive the network change message start \n'
p230
sa(dp231
g2
S'16367'
p232
sg4
L1449729159306L
sg5
g6
sg7
S'##COMMON_io.rong.push.PushReceiver:CONNECTIVITY_ACTION'
p233
sg9
S'16367'
p234
sg11
S'Receive the network change message end\n'
p235
sa(dp236
g2
S'16367'
p237
sg4
L1449729159316L
sg5
g121
sg7
S'##COMMON_io.rong.push.PushReceiver:STATUS_ERROR'
p238
sg9
S'16367'
p239
sg11
S'mStatus is 2,the network has changed to be ERROR\n'
p240
sa(dp241
g2
S'16367'
p242
sg4
L1449729159316L
sg5
g121
sg7
S'##COMMON_io.rong.push.PushReceiver:STATUS_ERROR'
p243
sg9
S'16367'
p244
sg11
S'No network! Stop the heart beat!!\n'
p245
sa(dp246
g2
S'16367'
p247
sg4
L1449729159316L
sg5
g121
sg7
S'##COMMON_io.rong.push.PushContext:Heartbeat'
p248
sg9
S'16367'
p249
sg11
S'cancel\n'
p250
sa(dp251
g2
S'16367'
p252
sg4
L1449729159316L
sg5
g121
sg7
S'##COMMON_io.rong.push.PushReceiver:The network type has been changed.'
p253
sg9
S'16367'
p254
sg11
S'Notify the service to re-connect\n'
p255
sa(dp256
g2
S'16258'
p257
sg4
L1449729159336L
sg5
g6
sg7
S'##IPC_io.rong.imlib.ConnectChangeReceiver:onReceive'
p258
sg9
S'16258'
p259
sg11
S'network:null, intent:Intent { act=action_reconnect flg=0x14 pkg=com.xdf.ucan cmp=com.xdf.ucan/io.rong.imlib.ConnectChangeReceiver (has extras) }\n'
p260
sa(dp261
g2
S'16258'
p262
sg4
L1449729162036L
sg5
g6
sg7
S'dalvikvm'
p263
sg9
S'16262'
p264
sg11
S'GC_CONCURRENT freed 751K, 35% free 10998K/16888K, paused 4ms+3ms, total 67ms\n'
p265
sa(dp266
g2
S'16258'
p267
sg4
L1449729162126L
sg5
g121
sg7
S'System.out'
p268
sg9
S'17408'
p269
sg11
S'type: value, col: 2\n'
p270
sa(dp271
g2
S'16258'
p272
sg4
L1449729162126L
sg5
g121
sg7
S'System.out'
p273
sg9
S'17408'
p274
sg11
S'type: value, col: 1\n'
p275
sa(dp276
g2
S'16258'
p277
sg4
L1449729162186L
sg5
g121
sg7
S'System.out'
p278
sg9
S'17408'
p279
sg11
S'type: value, col: 2\n'
p280
sa(dp281
g2
S'16258'
p282
sg4
L1449729162186L
sg5
g121
sg7
S'System.out'
p283
sg9
S'17408'
p284
sg11
S'type: value, col: 1\n'
p285
sa(dp286
g2
S'16258'
p287
sg4
L1449729162216L
sg5
g121
sg7
S'System.out'
p288
sg9
S'17408'
p289
sg11
S'type: value, col: 2\n'
p290
sa(dp291
g2
S'16258'
p292
sg4
L1449729162216L
sg5
g121
sg7
S'System.out'
p293
sg9
S'17408'
p294
sg11
S'type: value, col: 1\n'
p295
sa(dp296
g2
S'16258'
p297
sg4
L1449729162226L
sg5
g6
sg7
S'dalvikvm'
p298
sg9
S'16262'
p299
sg11
S'GC_CONCURRENT freed 931K, 34% free 11168K/16888K, paused 3ms+4ms, total 43ms\n'
p300
sa(dp301
g2
S'16258'
p302
sg4
L1449729162266L
sg5
g121
sg7
S'System.out'
p303
sg9
S'17408'
p304
sg11
S'type: value, col: 2\n'
p305
sa(dp306
g2
S'16258'
p307
sg4
L1449729162266L
sg5
g121
sg7
S'System.out'
p308
sg9
S'17408'
p309
sg11
S'type: value, col: 1\n'
p310
sa(dp311
g2
S'16258'
p312
sg4
L1449729162276L
sg5
g121
sg7
S'System.out'
p313
sg9
S'17408'
p314
sg11
S'type: value, col: 2\n'
p315
sa(dp316
g2
S'16258'
p317
sg4
L1449729162276L
sg5
g121
sg7
S'System.out'
p318
sg9
S'17408'
p319
sg11
S'type: value, col: 1\n'
p320
sa(dp321
g2
S'16258'
p322
sg4
L1449729162326L
sg5
g121
sg7
S'System.out'
p323
sg9
S'17408'
p324
sg11
S'type: value, col: 2\n'
p325
sa(dp326
g2
S'16258'
p327
sg4
L1449729162326L
sg5
g121
sg7
S'System.out'
p328
sg9
S'17408'
p329
sg11
S'type: value, col: 1\n'
p330
sa(dp331
g2
S'16258'
p332
sg4
L1449729162346L
sg5
g6
sg7
S'dalvikvm'
p333
sg9
S'16262'
p334
sg11
S'GC_CONCURRENT freed 991K, 35% free 11090K/16888K, paused 3ms+5ms, total 45ms\n'
p335
sa(dp336
g2
S'16258'
p337
sg4
L1449729162516L
sg5
g121
sg7
S'System.out'
p338
sg9
S'17408'
p339
sg11
S'type: value, col: 2\n'
p340
sa(dp341
g2
S'16258'
p342
sg4
L1449729162516L
sg5
g121
sg7
S'System.out'
p343
sg9
S'17408'
p344
sg11
S'type: value, col: 1\n'
p345
sa(dp346
g2
S'16258'
p347
sg4
L1449729162546L
sg5
g121
sg7
S'System.out'
p348
sg9
S'17408'
p349
sg11
S'type: value, col: 2\n'
p350
sa(dp351
g2
S'16258'
p352
sg4
L1449729162546L
sg5
g121
sg7
S'System.out'
p353
sg9
S'17408'
p354
sg11
S'type: value, col: 1\n'
p355
sa(dp356
g2
S'16258'
p357
sg4
L1449729162586L
sg5
g121
sg7
S'System.out'
p358
sg9
S'17408'
p359
sg11
S'type: value, col: 2\n'
p360
sa(dp361
g2
S'16258'
p362
sg4
L1449729162586L
sg5
g121
sg7
S'System.out'
p363
sg9
S'17408'
p364
sg11
S'type: value, col: 1\n'
p365
sa(dp366
g2
S'16258'
p367
sg4
L1449729162636L
sg5
g121
sg7
S'System.out'
p368
sg9
S'17408'
p369
sg11
S'type: value, col: 2\n'
p370
sa(dp371
g2
S'16258'
p372
sg4
L1449729162636L
sg5
g121
sg7
S'System.out'
p373
sg9
S'17408'
p374
sg11
S'type: value, col: 1\n'
p375
sa(dp376
g2
S'16258'
p377
sg4
L1449729162666L
sg5
g121
sg7
S'System.out'
p378
sg9
S'17408'
p379
sg11
S'type: value, col: 2\n'
p380
sa(dp381
g2
S'16258'
p382
sg4
L1449729162666L
sg5
g121
sg7
S'System.out'
p383
sg9
S'17408'
p384
sg11
S'type: value, col: 1\n'
p385
sa(dp386
g2
S'16258'
p387
sg4
L1449729162686L
sg5
g121
sg7
S'System.out'
p388
sg9
S'17408'
p389
sg11
S'type: value, col: 2\n'
p390
sa(dp391
g2
S'16258'
p392
sg4
L1449729162686L
sg5
g121
sg7
S'System.out'
p393
sg9
S'17408'
p394
sg11
S'type: value, col: 1\n'
p395
sa(dp396
g2
S'16258'
p397
sg4
L1449729162726L
sg5
g121
sg7
S'System.out'
p398
sg9
S'17408'
p399
sg11
S'type: value, col: 2\n'
p400
sa(dp401
g2
S'16258'
p402
sg4
L1449729162726L
sg5
g121
sg7
S'System.out'
p403
sg9
S'17408'
p404
sg11
S'type: value, col: 1\n'
p405
sa(dp406
g2
S'16258'
p407
sg4
L1449729162746L
sg5
g121
sg7
S'System.out'
p408
sg9
S'17408'
p409
sg11
S'type: value, col: 2\n'
p410
sa(dp411
g2
S'16258'
p412
sg4
L1449729162746L
sg5
g121
sg7
S'System.out'
p413
sg9
S'17408'
p414
sg11
S'type: value, col: 1\n'
p415
sa(dp416
g2
S'16258'
p417
sg4
L1449729162776L
sg5
g121
sg7
S'System.out'
p418
sg9
S'17408'
p419
sg11
S'type: value, col: 2\n'
p420
sa(dp421
g2
S'16258'
p422
sg4
L1449729162776L
sg5
g121
sg7
S'System.out'
p423
sg9
S'17408'
p424
sg11
S'type: value, col: 1\n'
p425
sa(dp426
g2
S'16258'
p427
sg4
L1449729162806L
sg5
g121
sg7
S'System.out'
p428
sg9
S'17408'
p429
sg11
S'type: value, col: 2\n'
p430
sa(dp431
g2
S'16258'
p432
sg4
L1449729162806L
sg5
g121
sg7
S'System.out'
p433
sg9
S'17408'
p434
sg11
S'type: value, col: 1\n'
p435
sa(dp436
g2
S'16258'
p437
sg4
L1449729162836L
sg5
g121
sg7
S'System.out'
p438
sg9
S'17408'
p439
sg11
S'type: value, col: 2\n'
p440
sa(dp441
g2
S'16258'
p442
sg4
L1449729162836L
sg5
g121
sg7
S'System.out'
p443
sg9
S'17408'
p444
sg11
S'type: value, col: 1\n'
p445
sa(dp446
g2
S'16258'
p447
sg4
L1449729162846L
sg5
g6
sg7
S'dalvikvm'
p448
sg9
S'16262'
p449
sg11
S'GC_CONCURRENT freed 675K, 34% free 11217K/16888K, paused 2ms+3ms, total 36ms\n'
p450
sa(dp451
g2
S'16258'
p452
sg4
L1449729162856L
sg5
g121
sg7
S'System.out'
p453
sg9
S'17408'
p454
sg11
S'type: value, col: 2\n'
p455
sa(dp456
g2
S'16258'
p457
sg4
L1449729162856L
sg5
g121
sg7
S'System.out'
p458
sg9
S'17408'
p459
sg11
S'type: value, col: 1\n'
p460
sa(dp461
g2
S'16258'
p462
sg4
L1449729162876L
sg5
g121
sg7
S'System.out'
p463
sg9
S'17408'
p464
sg11
S'type: value, col: 2\n'
p465
sa(dp466
g2
S'16258'
p467
sg4
L1449729162876L
sg5
g121
sg7
S'System.out'
p468
sg9
S'17408'
p469
sg11
S'type: value, col: 1\n'
p470
sa(dp471
g2
S'16258'
p472
sg4
L1449729162886L
sg5
g121
sg7
S'System.out'
p473
sg9
S'17408'
p474
sg11
S'type: value, col: 2\n'
p475
sa(dp476
g2
S'16258'
p477
sg4
L1449729162886L
sg5
g121
sg7
S'System.out'
p478
sg9
S'17408'
p479
sg11
S'type: value, col: 1\n'
p480
sa(dp481
g2
S'16258'
p482
sg4
L1449729162916L
sg5
g121
sg7
S'System.out'
p483
sg9
S'17408'
p484
sg11
S'type: value, col: 2\n'
p485
sa(dp486
g2
S'16258'
p487
sg4
L1449729162916L
sg5
g121
sg7
S'System.out'
p488
sg9
S'17408'
p489
sg11
S'type: value, col: 1\n'
p490
sa(dp491
g2
S'16258'
p492
sg4
L1449729162946L
sg5
g121
sg7
S'System.out'
p493
sg9
S'17408'
p494
sg11
S'type: value, col: 2\n'
p495
sa(dp496
g2
S'16258'
p497
sg4
L1449729162946L
sg5
g121
sg7
S'System.out'
p498
sg9
S'17408'
p499
sg11
S'type: value, col: 1\n'
p500
sa(dp501
g2
S'16258'
p502
sg4
L1449729162966L
sg5
g121
sg7
S'System.out'
p503
sg9
S'17408'
p504
sg11
S'type: value, col: 2\n'
p505
sa(dp506
g2
S'16258'
p507
sg4
L1449729162966L
sg5
g121
sg7
S'System.out'
p508
sg9
S'17408'
p509
sg11
S'type: value, col: 1\n'
p510
sa(dp511
g2
S'16258'
p512
sg4
L1449729162976L
sg5
g121
sg7
S'System.out'
p513
sg9
S'17408'
p514
sg11
S'type: value, col: 2\n'
p515
sa(dp516
g2
S'16258'
p517
sg4
L1449729162976L
sg5
g121
sg7
S'System.out'
p518
sg9
S'17408'
p519
sg11
S'type: value, col: 1\n'
p520
sa(dp521
g2
S'16258'
p522
sg4
L1449729163006L
sg5
g121
sg7
S'System.out'
p523
sg9
S'17408'
p524
sg11
S'type: value, col: 2\n'
p525
sa(dp526
g2
S'16258'
p527
sg4
L1449729163006L
sg5
g121
sg7
S'System.out'
p528
sg9
S'17408'
p529
sg11
S'type: value, col: 1\n'
p530
sa(dp531
g2
S'16258'
p532
sg4
L1449729163026L
sg5
g121
sg7
S'System.out'
p533
sg9
S'17408'
p534
sg11
S'type: value, col: 2\n'
p535
sa(dp536
g2
S'16258'
p537
sg4
L1449729163026L
sg5
g121
sg7
S'System.out'
p538
sg9
S'17408'
p539
sg11
S'type: value, col: 1\n'
p540
sa(dp541
g2
S'16258'
p542
sg4
L1449729163076L
sg5
g121
sg7
S'System.out'
p543
sg9
S'17408'
p544
sg11
S'type: value, col: 2\n'
p545
sa(dp546
g2
S'16258'
p547
sg4
L1449729163076L
sg5
g121
sg7
S'System.out'
p548
sg9
S'17408'
p549
sg11
S'type: value, col: 1\n'
p550
sa(dp551
g2
S'16258'
p552
sg4
L1449729163096L
sg5
g121
sg7
S'System.out'
p553
sg9
S'17408'
p554
sg11
S'type: value, col: 2\n'
p555
sa(dp556
g2
S'16258'
p557
sg4
L1449729163096L
sg5
g121
sg7
S'System.out'
p558
sg9
S'17408'
p559
sg11
S'type: value, col: 1\n'
p560
sa(dp561
g2
S'16258'
p562
sg4
L1449729163116L
sg5
g121
sg7
S'System.out'
p563
sg9
S'17408'
p564
sg11
S'type: value, col: 2\n'
p565
sa(dp566
g2
S'16258'
p567
sg4
L1449729163116L
sg5
g121
sg7
S'System.out'
p568
sg9
S'17408'
p569
sg11
S'type: value, col: 1\n'
p570
sa(dp571
g2
S'16258'
p572
sg4
L1449729163126L
sg5
g121
sg7
S'System.out'
p573
sg9
S'17408'
p574
sg11
S'type: value, col: 2\n'
p575
sa(dp576
g2
S'16258'
p577
sg4
L1449729163136L
sg5
g121
sg7
S'System.out'
p578
sg9
S'17408'
p579
sg11
S'type: value, col: 1\n'
p580
sa(dp581
g2
S'16258'
p582
sg4
L1449729163156L
sg5
g121
sg7
S'System.out'
p583
sg9
S'17408'
p584
sg11
S'type: value, col: 2\n'
p585
sa(dp586
g2
S'16258'
p587
sg4
L1449729163156L
sg5
g121
sg7
S'System.out'
p588
sg9
S'17408'
p589
sg11
S'type: value, col: 1\n'
p590
sa(dp591
g2
S'16258'
p592
sg4
L1449729163176L
sg5
g121
sg7
S'System.out'
p593
sg9
S'17408'
p594
sg11
S'type: value, col: 2\n'
p595
sa(dp596
g2
S'16258'
p597
sg4
L1449729163176L
sg5
g121
sg7
S'System.out'
p598
sg9
S'17408'
p599
sg11
S'type: value, col: 1\n'
p600
sa(dp601
g2
S'16258'
p602
sg4
L1449729163186L
sg5
g121
sg7
S'System.out'
p603
sg9
S'17408'
p604
sg11
S'type: value, col: 2\n'
p605
sa(dp606
g2
S'16258'
p607
sg4
L1449729163186L
sg5
g121
sg7
S'System.out'
p608
sg9
S'17408'
p609
sg11
S'type: value, col: 1\n'
p610
sa(dp611
g2
S'16258'
p612
sg4
L1449729163226L
sg5
g121
sg7
S'System.out'
p613
sg9
S'17408'
p614
sg11
S'type: value, col: 2\n'
p615
sa(dp616
g2
S'16258'
p617
sg4
L1449729163226L
sg5
g121
sg7
S'System.out'
p618
sg9
S'17408'
p619
sg11
S'type: value, col: 1\n'
p620
sa(dp621
g2
S'16258'
p622
sg4
L1449729163246L
sg5
g121
sg7
S'System.out'
p623
sg9
S'17408'
p624
sg11
S'type: value, col: 2\n'
p625
sa(dp626
g2
S'16258'
p627
sg4
L1449729163246L
sg5
g121
sg7
S'System.out'
p628
sg9
S'17408'
p629
sg11
S'type: value, col: 1\n'
p630
sa(dp631
g2
S'16258'
p632
sg4
L1449729163256L
sg5
g121
sg7
S'System.out'
p633
sg9
S'17408'
p634
sg11
S'type: value, col: 2\n'
p635
sa(dp636
g2
S'16258'
p637
sg4
L1449729163256L
sg5
g121
sg7
S'System.out'
p638
sg9
S'17408'
p639
sg11
S'type: value, col: 1\n'
p640
sa(dp641
g2
S'16258'
p642
sg4
L1449729163306L
sg5
g121
sg7
S'System.out'
p643
sg9
S'17408'
p644
sg11
S'type: value, col: 2\n'
p645
sa(dp646
g2
S'16258'
p647
sg4
L1449729163306L
sg5
g121
sg7
S'System.out'
p648
sg9
S'17408'
p649
sg11
S'type: value, col: 1\n'
p650
sa(dp651
g2
S'16258'
p652
sg4
L1449729163396L
sg5
g121
sg7
S'dalvikvm'
p653
sg9
S'16264'
p654
sg11
S'Total arena pages for JIT: 11\n'
p655
sa(dp656
g2
S'16258'
p657
sg4
L1449729163396L
sg5
g121
sg7
S'dalvikvm'
p658
sg9
S'16264'
p659
sg11
S'Total arena pages for JIT: 12\n'
p660
sa(dp661
g2
S'16258'
p662
sg4
L1449729163396L
sg5
g121
sg7
S'dalvikvm'
p663
sg9
S'16264'
p664
sg11
S'Total arena pages for JIT: 13\n'
p665
sa(dp666
g2
S'16258'
p667
sg4
L1449729163416L
sg5
g6
sg7
S'dalvikvm'
p668
sg9
S'16262'
p669
sg11
S'GC_CONCURRENT freed 809K, 34% free 11204K/16888K, paused 1ms+3ms, total 31ms\n'
p670
sa(dp671
g2
S'16258'
p672
sg4
L1449729163886L
sg5
g121
sg7
S'System.out'
p673
sg9
S'16258'
p674
sg11
S'openPath.getPath():/storage/sdcard0/UPOC/download/SPOC\xe5\xb0\x8f\xe6\xbc\xab\xe7\x94\xbb55610.pdf\n'
p675
sa(dp676
g2
S'16258'
p677
sg4
L1449729163886L
sg5
g121
sg7
S'System.out'
p678
sg9
S'16258'
p679
sg11
S'resourceExtension:pdf\n'
p680
sa(dp681
g2
S'16258'
p682
sg4
L1449729163886L
sg5
g121
sg7
S'System.out'
p683
sg9
S'16258'
p684
sg11
S'resourceUrl:http://xue.xdf.cn/Resources/files/0/DYH00004/7dcd9c43e03b43ba90f76766ef91b74e.pdf\n'
p685
sa(dp686
g2
S'16258'
p687
sg4
L1449729163886L
sg5
g6
sg7
S'long    '
p688
sg9
S'16258'
p689
sg11
S'platform.getName():WechatMoments\n'
p690
sa(dp691
g2
S'16258'
p692
sg4
L1449729163886L
sg5
g6
sg7
S'long    '
p693
sg9
S'16258'
p694
sg11
S'ResourcePreviewUrl:http://student.xue.xdf.cn/resource/iframepreviewUrl/55610\n'
p695
sa(dp696
g2
S'16258'
p697
sg4
L1449729164826L
sg5
S'W'
p698
sg7
S'System.err'
p699
sg9
S'16258'
p700
sg11
S'java.lang.Throwable: {"req":"e","errCode":-6,"transaction":"webpage1449729164034"}\n'
p701
sa(dp702
g2
S'16258'
p703
sg4
L1449729164826L
sg5
g698
sg7
S'System.err'
p704
sg9
S'16258'
p705
sg11
S'\tat cn.sharesdk.wechat.utils.k.a(Unknown Source)\n'
p706
sa(dp707
g2
S'16258'
p708
sg4
L1449729164836L
sg5
g698
sg7
S'System.err'
p709
sg9
S'16258'
p710
sg11
S'\tat cn.sharesdk.wechat.utils.j.a(Unknown Source)\n'
p711
sa(dp712
g2
S'16258'
p713
sg4
L1449729164836L
sg5
g698
sg7
S'System.err'
p714
sg9
S'16258'
p715
sg11
S'\tat cn.sharesdk.wechat.utils.WechatHelper.a(Unknown Source)\n'
p716
sa(dp717
g2
S'16258'
p718
sg4
L1449729164836L
sg5
g698
sg7
S'System.err'
p719
sg9
S'16258'
p720
sg11
S'\tat cn.sharesdk.wechat.utils.WechatHandlerActivity.onCreate(Unknown Source)\n'
p721
sa(dp722
g2
S'16258'
p723
sg4
L1449729164836L
sg5
g698
sg7
S'System.err'
p724
sg9
S'16258'
p725
sg11
S'\tat android.app.Activity.performCreate(Activity.java:5234)\n'
p726
sa(dp727
g2
S'16258'
p728
sg4
L1449729164836L
sg5
g698
sg7
S'System.err'
p729
sg9
S'16258'
p730
sg11
S'\tat android.app.Instrumentation.callActivityOnCreate(Instrumentation.java:1087)\n'
p731
sa(dp732
g2
S'16258'
p733
sg4
L1449729164836L
sg5
g698
sg7
S'System.err'
p734
sg9
S'16258'
p735
sg11
S'\tat android.app.ActivityThread.performLaunchActivity(ActivityThread.java:2302)\n'
p736
sa(dp737
g2
S'16258'
p738
sg4
L1449729164836L
sg5
g698
sg7
S'System.err'
p739
sg9
S'16258'
p740
sg11
S'\tat android.app.ActivityThread.handleLaunchActivity(ActivityThread.java:2388)\n'
p741
sa(dp742
g2
S'16258'
p743
sg4
L1449729164836L
sg5
g698
sg7
S'System.err'
p744
sg9
S'16258'
p745
sg11
S'\tat android.app.ActivityThread.access$900(ActivityThread.java:148)\n'
p746
sa(dp747
g2
S'16258'
p748
sg4
L1449729164836L
sg5
g698
sg7
S'System.err'
p749
sg9
S'16258'
p750
sg11
S'\tat android.app.ActivityThread$H.handleMessage(ActivityThread.java:1319)\n'
p751
sa(dp752
g2
S'16258'
p753
sg4
L1449729164836L
sg5
g698
sg7
S'System.err'
p754
sg9
S'16258'
p755
sg11
S'\tat android.os.Handler.dispatchMessage(Handler.java:99)\n'
p756
sa(dp757
g2
S'16258'
p758
sg4
L1449729164836L
sg5
g698
sg7
S'System.err'
p759
sg9
S'16258'
p760
sg11
S'\tat android.os.Looper.loop(Looper.java:137)\n'
p761
sa(dp762
g2
S'16258'
p763
sg4
L1449729164836L
sg5
g698
sg7
S'System.err'
p764
sg9
S'16258'
p765
sg11
S'\tat android.app.ActivityThread.main(ActivityThread.java:5457)\n'
p766
sa(dp767
g2
S'16258'
p768
sg4
L1449729164836L
sg5
g698
sg7
S'System.err'
p769
sg9
S'16258'
p770
sg11
S'\tat java.lang.reflect.Method.invokeNative(Native Method)\n'
p771
sa(dp772
g2
S'16258'
p773
sg4
L1449729164836L
sg5
g698
sg7
S'System.err'
p774
sg9
S'16258'
p775
sg11
S'\tat java.lang.reflect.Method.invoke(Method.java:525)\n'
p776
sa(dp777
g2
S'16258'
p778
sg4
L1449729164836L
sg5
g698
sg7
S'System.err'
p779
sg9
S'16258'
p780
sg11
S'\tat com.android.internal.os.ZygoteInit$MethodAndArgsCaller.run(ZygoteInit.java:875)\n'
p781
sa(dp782
g2
S'16258'
p783
sg4
L1449729164836L
sg5
g698
sg7
S'System.err'
p784
sg9
S'16258'
p785
sg11
S'\tat com.android.internal.os.ZygoteInit.main(ZygoteInit.java:691)\n'
p786
sa(dp787
g2
S'16258'
p788
sg4
L1449729164836L
sg5
g698
sg7
S'System.err'
p789
sg9
S'16258'
p790
sg11
S'\tat dalvik.system.NativeStart.main(Native Method)\n'
p791
sa(dp792
g2
S'16258'
p793
sg4
L1449729165756L
sg5
g6
sg7
S'##IPC_io.rong.imlib.ConnectChangeReceiver:onReceive'
p794
sg9
S'16258'
p795
sg11
S'network:true, intent:Intent { act=android.net.conn.CONNECTIVITY_CHANGE flg=0x8000010 (has extras) }\n'
p796
sa(dp797
g2
S'16367'
p798
sg4
L1449729167936L
sg5
g121
sg7
S'##COMMON_io.rong.push.PushReceiver:Action'
p799
sg9
S'16367'
p800
sg11
S'android.net.conn.CONNECTIVITY_CHANGE\n'
p801
sa(dp802
g2
S'16367'
p803
sg4
L1449729167936L
sg5
g6
sg7
S'##COMMON_io.rong.push.PushReceiver:CONNECTIVITY_ACTION'
p804
sg9
S'16367'
p805
sg11
S'Receive the network change message start \n'
p806
sa(dp807
g2
S'16367'
p808
sg4
L1449729167936L
sg5
g6
sg7
S'##COMMON_io.rong.push.PushReceiver:CONNECTIVITY_ACTION'
p809
sg9
S'16367'
p810
sg11
S'Receive the network change message end\n'
p811
sa(dp812
g2
S'16367'
p813
sg4
L1449729167936L
sg5
g121
sg7
S'##COMMON_io.rong.push.PushReceiver:STATUS_MOBILE'
p814
sg9
S'16367'
p815
sg11
S'mStatus is 0,the network has changed to be MOBILE\n'
p816
sa(dp817
g2
S'16367'
p818
sg4
L1449729167946L
sg5
g121
sg7
S'##COMMON_io.rong.push.PushContext:sendConnectCommand'
p819
sg9
S'16367'
p820
sg11
S'2100\n'
p821
sa(dp822
g2
S'16367'
p823
sg4
L1449729167946L
sg5
g121
sg7
S'##COMMON_io.rong.push.PushReceiver:The network type has been changed.'
p824
sg9
S'16367'
p825
sg11
S'Notify the service to re-connect\n'
p826
sa(dp827
g2
S'16258'
p828
sg4
L1449729167956L
sg5
g6
sg7
S'##IPC_io.rong.imlib.ConnectChangeReceiver:onReceive'
p829
sg9
S'16258'
p830
sg11
S'network:true, intent:Intent { act=action_reconnect flg=0x14 pkg=com.xdf.ucan cmp=com.xdf.ucan/io.rong.imlib.ConnectChangeReceiver (has extras) }\n'
p831
sa(dp832
g2
S'16258'
p833
sg4
L1449729168066L
sg5
g6
sg7
S'##IPC_io.rong.imlib.ReConnectService:RECONNECT'
p834
sg9
S'17961'
p835
sg11
S'Intent { cmp=com.xdf.ucan/io.rong.imlib.ReConnectService (has extras) }\n'
p836
sa(dp837
g2
S'16258'
p838
sg4
L1449729168066L
sg5
g6
sg7
S'##IPC_io.rong.imlib.RongIMClient:reconnect'
p839
sg9
S'17961'
p840
sg11
S'mConnectionStatus :DISCONNECTED\n'
p841
sa(dp842
g2
S'16258'
p843
sg4
L1449729173286L
sg5
g6
sg7
S'dalvikvm'
p844
sg9
S'16262'
p845
sg11
S'GC_CONCURRENT freed 662K, 34% free 11308K/16888K, paused 2ms+4ms, total 26ms\n'
p846
sa(dp847
g2
S'16367'
p848
sg4
L1449729173796L
sg5
g121
sg7
S'##COMMON_io.rong.push.PushReceiver:Action'
p849
sg9
S'16367'
p850
sg11
S'io.rong.push.Connect\n'
p851
sa(dp852
g2
S'16367'
p853
sg4
L1449729173806L
sg5
g121
sg7
S'##COMMON_io.rong.push.PushReceiver:ACTION_CONNECT'
p854
sg9
S'16367'
p855
sg11
S'version is null, run connect\n'
p856
sa(dp857
g2
S'16367'
p858
sg4
L1449729173816L
sg5
g121
sg7
S'##COMMON_io.rong.push.PushService:CONNECT_CHECK'
p859
sg9
S'16395'
p860
sg11
S'getRunningPushServiceVersion null\n'
p861
sa(dp862
g2
S'16367'
p863
sg4
L1449729173816L
sg5
g121
sg7
S'##COMMON_io.rong.push.PushService.PushHandler:PushHandler'
p864
sg9
S'16395'
p865
sg11
S'ConnectToServer,isClientConnected = false\n'
p866
sa(dp867
g2
S'16367'
p868
sg4
L1449729173816L
sg5
g121
sg7
S'##COMMON_io.rong.push.PushService:DeviceId'
p869
sg9
S'16395'
p870
sg11
S'357485036466649\n'
p871
sa(dp872
g2
S'16367'
p873
sg4
L1449729173816L
sg5
g121
sg7
S'##COMMON_io.rong.push.PushService.PushHandler:PushHandler'
p874
sg9
S'16395'
p875
sg11
S'the saved IP = 119.254.110.62:8605\n'
p876
sa(dp877
g2
S'16367'
p878
sg4
L1449729173816L
sg5
g121
sg7
S'PushHandler'
p879
sg9
S'16395'
p880
sg11
S'the saved time = 1449726836252current time = 1449729173824\n'
p881
sa(dp882
g2
S'16367'
p883
sg4
L1449729173816L
sg5
g121
sg7
S'##COMMON_io.rong.push.PushService.PushHandler:PushHandler'
p884
sg9
S'16395'
p885
sg11
S'ConnectToServer,use the saved IP, IP = 119.254.110.62:8605\n'
p886
sa(dp887
g2
S'16367'
p888
sg4
L1449729173826L
sg5
g121
sg7
S'##COMMON_io.rong.push.PushService:getPhoneInformation.'
p889
sg9
S'16395'
p890
sg11
S'the phone information is:HUAWEI|HUAWEI G6-U00|18|mobile|46001\n'
p891
sa(dp892
g2
S'16367'
p893
sg4
L1449729173826L
sg5
g121
sg7
S'##COMMON_io.rong.push.PushClient:connect'
p894
sg9
S'16395'
p895
sg11
S'phone info:HUAWEI|HUAWEI G6-U00|18|mobile|46001 push version:2.6\n'
p896
sa(dp897
g2
S'16367'
p898
sg4
L1449729173826L
sg5
g121
sg7
S'##COMMON_io.rong.push.PushClient:connect'
p899
sg9
S'16395'
p900
sg11
S'the socket is established\n'
p901
sa(dp902
g2
S'16258'
p903
sg4
L1449729176476L
sg5
g121
sg7
S'System.out'
p904
sg9
S'16258'
p905
sg11
S'openPath.getPath():/storage/sdcard0/UPOC/download/SPOC\xe5\xb0\x8f\xe6\xbc\xab\xe7\x94\xbb55610.pdf\n'
p906
sa(dp907
g2
S'16258'
p908
sg4
L1449729176476L
sg5
g121
sg7
S'System.out'
p909
sg9
S'16258'
p910
sg11
S'resourceExtension:pdf\n'
p911
sa(dp912
g2
S'16258'
p913
sg4
L1449729176486L
sg5
g121
sg7
S'System.out'
p914
sg9
S'16258'
p915
sg11
S'resourceUrl:http://xue.xdf.cn/Resources/files/0/DYH00004/7dcd9c43e03b43ba90f76766ef91b74e.pdf\n'
p916
sa(dp917
g2
S'16258'
p918
sg4
L1449729176486L
sg5
g6
sg7
S'long    '
p919
sg9
S'16258'
p920
sg11
S'platform.getName():WechatMoments\n'
p921
sa(dp922
g2
S'16258'
p923
sg4
L1449729176486L
sg5
g6
sg7
S'long    '
p924
sg9
S'16258'
p925
sg11
S'ResourcePreviewUrl:http://student.xue.xdf.cn/resource/iframepreviewUrl/55610\n'
p926
sa(dp927
g2
S'16258'
p928
sg4
L1449729176556L
sg5
g6
sg7
S'dalvikvm'
p929
sg9
S'16262'
p930
sg11
S'GC_CONCURRENT freed 593K, 32% free 11523K/16888K, paused 5ms+9ms, total 53ms\n'
p931
sa(dp932
g2
S'16367'
p933
sg4
L1449729177476L
sg5
g121
sg7
S'##COMMON_io.rong.push.PushClient:Handler'
p934
sg9
S'18158'
p935
sg11
S'CONNACK\n'
p936
sa(dp937
g2
S'16367'
p938
sg4
L1449729177476L
sg5
g121
sg7
S'PushService'
p939
sg9
S'18158'
p940
sg11
S'The client connect status is:CONNACK\n'
p941
sa(dp942
g2
S'16367'
p943
sg4
L1449729177476L
sg5
g121
sg7
S'##COMMON_io.rong.push.PushService:Connect'
p944
sg9
S'18158'
p945
sg11
S'Client connect successfully.So start the heart beat.\n'
p946
sa(dp947
g2
S'16367'
p948
sg4
L1449729177476L
sg5
g121
sg7
S'##COMMON_io.rong.push.PushContext:Heartbeat'
p949
sg9
S'18158'
p950
sg11
S'start_next\n'
p951
sa(dp952
g2
S'16258'
p953
sg4
L1449729178606L
sg5
g698
sg7
S'System.err'
p954
sg9
S'16258'
p955
sg11
S'java.lang.Throwable: {"req":"e","errCode":-6,"transaction":"webpage1449729176640"}\n'
p956
sa(dp957
g2
S'16258'
p958
sg4
L1449729178606L
sg5
g698
sg7
S'System.err'
p959
sg9
S'16258'
p960
sg11
S'\tat cn.sharesdk.wechat.utils.k.a(Unknown Source)\n'
p961
sa(dp962
g2
S'16258'
p963
sg4
L1449729178606L
sg5
g698
sg7
S'System.err'
p964
sg9
S'16258'
p965
sg11
S'\tat cn.sharesdk.wechat.utils.j.a(Unknown Source)\n'
p966
sa(dp967
g2
S'16258'
p968
sg4
L1449729178606L
sg5
g698
sg7
S'System.err'
p969
sg9
S'16258'
p970
sg11
S'\tat cn.sharesdk.wechat.utils.WechatHelper.a(Unknown Source)\n'
p971
sa(dp972
g2
S'16258'
p973
sg4
L1449729178606L
sg5
g698
sg7
S'System.err'
p974
sg9
S'16258'
p975
sg11
S'\tat cn.sharesdk.wechat.utils.WechatHandlerActivity.onCreate(Unknown Source)\n'
p976
sa(dp977
g2
S'16258'
p978
sg4
L1449729178606L
sg5
g698
sg7
S'System.err'
p979
sg9
S'16258'
p980
sg11
S'\tat android.app.Activity.performCreate(Activity.java:5234)\n'
p981
sa(dp982
g2
S'16258'
p983
sg4
L1449729178606L
sg5
g698
sg7
S'System.err'
p984
sg9
S'16258'
p985
sg11
S'\tat android.app.Instrumentation.callActivityOnCreate(Instrumentation.java:1087)\n'
p986
sa(dp987
g2
S'16258'
p988
sg4
L1449729178606L
sg5
g698
sg7
S'System.err'
p989
sg9
S'16258'
p990
sg11
S'\tat android.app.ActivityThread.performLaunchActivity(ActivityThread.java:2302)\n'
p991
sa(dp992
g2
S'16258'
p993
sg4
L1449729178606L
sg5
g698
sg7
S'System.err'
p994
sg9
S'16258'
p995
sg11
S'\tat android.app.ActivityThread.handleLaunchActivity(ActivityThread.java:2388)\n'
p996
sa(dp997
g2
S'16258'
p998
sg4
L1449729178606L
sg5
g698
sg7
S'System.err'
p999
sg9
S'16258'
p1000
sg11
S'\tat android.app.ActivityThread.access$900(ActivityThread.java:148)\n'
p1001
sa(dp1002
g2
S'16258'
p1003
sg4
L1449729178616L
sg5
g698
sg7
S'System.err'
p1004
sg9
S'16258'
p1005
sg11
S'\tat android.app.ActivityThread$H.handleMessage(ActivityThread.java:1319)\n'
p1006
sa(dp1007
g2
S'16258'
p1008
sg4
L1449729178616L
sg5
g698
sg7
S'System.err'
p1009
sg9
S'16258'
p1010
sg11
S'\tat android.os.Handler.dispatchMessage(Handler.java:99)\n'
p1011
sa(dp1012
g2
S'16258'
p1013
sg4
L1449729178616L
sg5
g698
sg7
S'System.err'
p1014
sg9
S'16258'
p1015
sg11
S'\tat android.os.Looper.loop(Looper.java:137)\n'
p1016
sa(dp1017
g2
S'16258'
p1018
sg4
L1449729178616L
sg5
g698
sg7
S'System.err'
p1019
sg9
S'16258'
p1020
sg11
S'\tat android.app.ActivityThread.main(ActivityThread.java:5457)\n'
p1021
sa(dp1022
g2
S'16258'
p1023
sg4
L1449729178616L
sg5
g698
sg7
S'System.err'
p1024
sg9
S'16258'
p1025
sg11
S'\tat java.lang.reflect.Method.invokeNative(Native Method)\n'
p1026
sa(dp1027
g2
S'16258'
p1028
sg4
L1449729178616L
sg5
g698
sg7
S'System.err'
p1029
sg9
S'16258'
p1030
sg11
S'\tat java.lang.reflect.Method.invoke(Method.java:525)\n'
p1031
sa(dp1032
g2
S'16258'
p1033
sg4
L1449729178616L
sg5
g698
sg7
S'System.err'
p1034
sg9
S'16258'
p1035
sg11
S'\tat com.android.internal.os.ZygoteInit$MethodAndArgsCaller.run(ZygoteInit.java:875)\n'
p1036
sa(dp1037
g2
S'16258'
p1038
sg4
L1449729178616L
sg5
g698
sg7
S'System.err'
p1039
sg9
S'16258'
p1040
sg11
S'\tat com.android.internal.os.ZygoteInit.main(ZygoteInit.java:691)\n'
p1041
sa(dp1042
g2
S'16258'
p1043
sg4
L1449729178616L
sg5
g698
sg7
S'System.err'
p1044
sg9
S'16258'
p1045
sg11
S'\tat dalvik.system.NativeStart.main(Native Method)\n'
p1046
sa(dp1047
g2
S'16258'
p1048
sg4
L1449729187936L
sg5
g6
sg7
S'dalvikvm'
p1049
sg9
S'16262'
p1050
sg11
S'GC_CONCURRENT freed 1110K, 33% free 11319K/16888K, paused 6ms+4ms, total 49ms\n'
p1051
sa(dp1052
g2
S'16258'
p1053
sg4
L1449729190446L
sg5
g121
sg7
S'System.out'
p1054
sg9
S'16258'
p1055
sg11
S'openPath.getPath():/storage/sdcard0/UPOC/download/SPOC\xe5\xb0\x8f\xe6\xbc\xab\xe7\x94\xbb55610.pdf\n'
p1056
sa(dp1057
g2
S'16258'
p1058
sg4
L1449729190446L
sg5
g121
sg7
S'System.out'
p1059
sg9
S'16258'
p1060
sg11
S'resourceExtension:pdf\n'
p1061
sa(dp1062
g2
S'16258'
p1063
sg4
L1449729190446L
sg5
g121
sg7
S'System.out'
p1064
sg9
S'16258'
p1065
sg11
S'resourceUrl:http://xue.xdf.cn/Resources/files/0/DYH00004/7dcd9c43e03b43ba90f76766ef91b74e.pdf\n'
p1066
sa(dp1067
g2
S'16258'
p1068
sg4
L1449729190446L
sg5
g6
sg7
S'long    '
p1069
sg9
S'16258'
p1070
sg11
S'platform.getName():WechatMoments\n'
p1071
sa(dp1072
g2
S'16258'
p1073
sg4
L1449729190446L
sg5
g6
sg7
S'long    '
p1074
sg9
S'16258'
p1075
sg11
S'ResourcePreviewUrl:http://student.xue.xdf.cn/resource/iframepreviewUrl/55610\n'
p1076
sa(dp1077
g2
S'16258'
p1078
sg4
L1449729190586L
sg5
g6
sg7
S'dalvikvm'
p1079
sg9
S'16262'
p1080
sg11
S'GC_CONCURRENT freed 640K, 32% free 11497K/16888K, paused 3ms+4ms, total 61ms\n'
p1081
sa(dp1082
g2
S'16258'
p1083
sg4
L1449729191476L
sg5
g698
sg7
S'System.err'
p1084
sg9
S'16258'
p1085
sg11
S'java.lang.Throwable: {"req":"e","errCode":-6,"transaction":"webpage1449729190633"}\n'
p1086
sa(dp1087
g2
S'16258'
p1088
sg4
L1449729191476L
sg5
g698
sg7
S'System.err'
p1089
sg9
S'16258'
p1090
sg11
S'\tat cn.sharesdk.wechat.utils.k.a(Unknown Source)\n'
p1091
sa(dp1092
g2
S'16258'
p1093
sg4
L1449729191476L
sg5
g698
sg7
S'System.err'
p1094
sg9
S'16258'
p1095
sg11
S'\tat cn.sharesdk.wechat.utils.j.a(Unknown Source)\n'
p1096
sa(dp1097
g2
S'16258'
p1098
sg4
L1449729191476L
sg5
g698
sg7
S'System.err'
p1099
sg9
S'16258'
p1100
sg11
S'\tat cn.sharesdk.wechat.utils.WechatHelper.a(Unknown Source)\n'
p1101
sa(dp1102
g2
S'16258'
p1103
sg4
L1449729191476L
sg5
g698
sg7
S'System.err'
p1104
sg9
S'16258'
p1105
sg11
S'\tat cn.sharesdk.wechat.utils.WechatHandlerActivity.onCreate(Unknown Source)\n'
p1106
sa(dp1107
g2
S'16258'
p1108
sg4
L1449729191476L
sg5
g698
sg7
S'System.err'
p1109
sg9
S'16258'
p1110
sg11
S'\tat android.app.Activity.performCreate(Activity.java:5234)\n'
p1111
sa(dp1112
g2
S'16258'
p1113
sg4
L1449729191476L
sg5
g698
sg7
S'System.err'
p1114
sg9
S'16258'
p1115
sg11
S'\tat android.app.Instrumentation.callActivityOnCreate(Instrumentation.java:1087)\n'
p1116
sa(dp1117
g2
S'16258'
p1118
sg4
L1449729191476L
sg5
g698
sg7
S'System.err'
p1119
sg9
S'16258'
p1120
sg11
S'\tat android.app.ActivityThread.performLaunchActivity(ActivityThread.java:2302)\n'
p1121
sa(dp1122
g2
S'16258'
p1123
sg4
L1449729191476L
sg5
g698
sg7
S'System.err'
p1124
sg9
S'16258'
p1125
sg11
S'\tat android.app.ActivityThread.handleLaunchActivity(ActivityThread.java:2388)\n'
p1126
sa(dp1127
g2
S'16258'
p1128
sg4
L1449729191476L
sg5
g698
sg7
S'System.err'
p1129
sg9
S'16258'
p1130
sg11
S'\tat android.app.ActivityThread.access$900(ActivityThread.java:148)\n'
p1131
sa(dp1132
g2
S'16258'
p1133
sg4
L1449729191476L
sg5
g698
sg7
S'System.err'
p1134
sg9
S'16258'
p1135
sg11
S'\tat android.app.ActivityThread$H.handleMessage(ActivityThread.java:1319)\n'
p1136
sa(dp1137
g2
S'16258'
p1138
sg4
L1449729191476L
sg5
g698
sg7
S'System.err'
p1139
sg9
S'16258'
p1140
sg11
S'\tat android.os.Handler.dispatchMessage(Handler.java:99)\n'
p1141
sa(dp1142
g2
S'16258'
p1143
sg4
L1449729191476L
sg5
g698
sg7
S'System.err'
p1144
sg9
S'16258'
p1145
sg11
S'\tat android.os.Looper.loop(Looper.java:137)\n'
p1146
sa(dp1147
g2
S'16258'
p1148
sg4
L1449729191476L
sg5
g698
sg7
S'System.err'
p1149
sg9
S'16258'
p1150
sg11
S'\tat android.app.ActivityThread.main(ActivityThread.java:5457)\n'
p1151
sa(dp1152
g2
S'16258'
p1153
sg4
L1449729191476L
sg5
g698
sg7
S'System.err'
p1154
sg9
S'16258'
p1155
sg11
S'\tat java.lang.reflect.Method.invokeNative(Native Method)\n'
p1156
sa(dp1157
g2
S'16258'
p1158
sg4
L1449729191476L
sg5
g698
sg7
S'System.err'
p1159
sg9
S'16258'
p1160
sg11
S'\tat java.lang.reflect.Method.invoke(Method.java:525)\n'
p1161
sa(dp1162
g2
S'16258'
p1163
sg4
L1449729191476L
sg5
g698
sg7
S'System.err'
p1164
sg9
S'16258'
p1165
sg11
S'\tat com.android.internal.os.ZygoteInit$MethodAndArgsCaller.run(ZygoteInit.java:875)\n'
p1166
sa(dp1167
g2
S'16258'
p1168
sg4
L1449729191476L
sg5
g698
sg7
S'System.err'
p1169
sg9
S'16258'
p1170
sg11
S'\tat com.android.internal.os.ZygoteInit.main(ZygoteInit.java:691)\n'
p1171
sa(dp1172
g2
S'16258'
p1173
sg4
L1449729191476L
sg5
g698
sg7
S'System.err'
p1174
sg9
S'16258'
p1175
sg11
S'\tat dalvik.system.NativeStart.main(Native Method)\n'
p1176
sa(dp1177
g2
S'16258'
p1178
sg4
L1449729197106L
sg5
g6
sg7
S'dalvikvm'
p1179
sg9
S'16262'
p1180
sg11
S'GC_CONCURRENT freed 922K, 33% free 11477K/16888K, paused 11ms+20ms, total 92ms\n'
p1181
sa(dp1182
g2
S'16258'
p1183
sg4
L1449729198896L
sg5
g6
sg7
S'dalvikvm'
p1184
sg9
S'16262'
p1185
sg11
S'GC_CONCURRENT freed 250K, 21% free 13498K/16888K, paused 3ms+4ms, total 85ms\n'
p1186
sa(dp1187
g2
S'16258'
p1188
sg4
L1449729198896L
sg5
g6
sg7
S'dalvikvm'
p1189
sg9
S'16258'
p1190
sg11
S'WAIT_FOR_CONCURRENT_GC blocked 32ms\n'
p1191
sa(dp1192
g2
S'16258'
p1193
sg4
L1449729198896L
sg5
g121
sg7
S'dalvikvm-heap'
p1194
sg9
S'16258'
p1195
sg11
S'Grow heap (frag case) to 17.751MB for 2073624-byte allocation\n'
p1196
sa(dp1197
g2
S'16258'
p1198
sg4
L1449729198966L
sg5
g6
sg7
S'dalvikvm'
p1199
sg9
S'16262'
p1200
sg11
S'GC_CONCURRENT freed 2196K, 30% free 13367K/18916K, paused 24ms+3ms, total 66ms\n'
p1201
sa(dp1202
g2
S'16258'
p1203
sg4
L1449729199036L
sg5
g6
sg7
S'cn.edu.nju.ise.kikandroid'
p1204
sg9
S'16314'
p1205
sg11
S'Screenshot:1449729198740\n'
p1206
sa(dp1207
g2
S'16258'
p1208
sg4
L1449729202326L
sg5
g6
sg7
S'long    '
p1209
sg9
S'16258'
p1210
sg11
S'cancle request\xef\xbc\x9acom.xdf.ucan.ui.material.MaterialActivity\n'
p1211
sa(dp1212
g2
S'16258'
p1213
sg4
L1449729209376L
sg5
g6
sg7
S'cn.edu.nju.ise.kikandroid'
p1214
sg9
S'16314'
p1215
sg11
S'Log:1449729209377\n'
p1216
sa(dp1217
g2
S'16258'
p1218
sg4
L1449729209526L
sg5
g6
sg7
S'dalvikvm'
p1219
sg9
S'16262'
p1220
sg11
S'GC_CONCURRENT freed 2779K, 30% free 13366K/18916K, paused 4ms+11ms, total 55ms\n'
p1221
sa(dp1222
g2
S'16258'
p1223
sg4
L1449729209576L
sg5
g6
sg7
S'dalvikvm'
p1224
sg9
S'16262'
p1225
sg11
S'GC_CONCURRENT freed 2063K, 30% free 13335K/18916K, paused 3ms+4ms, total 29ms\n'
p1226
sa(dp1227
g2
S'16258'
p1228
sg4
L1449729209656L
sg5
g6
sg7
S'cn.edu.nju.ise.kikandroid'
p1229
sg9
S'16314'
p1230
sg11
S'Screenshot:1449729209418\n'
p1231
sa(dp1232
g2
S'16258'
p1233
sg4
L1449729209656L
sg5
g698
sg7
S'dalvikvm'
p1234
sg9
S'16314'
p1235
sg11
S'threadid=24: thread exiting with uncaught exception (group=0x4164f8e0)\n'
p1236
sa(dp1237
g2
S'16258'
p1238
sg4
L1449729209656L
sg5
S'F'
p1239
sg7
S'MobUncaughtExceptionHandler'
p1240
sg9
S'16314'
p1241
sg11
S'null\njava.lang.NullPointerException\n\tat android.app.Instrumentation.finish(Instrumentation.java:190)\n\tat cn.edu.nju.ise.kikandroid.AUTInstrument.quitInstr(AUTInstrument.java:195)\n\tat cn.edu.nju.ise.kikandroid.AUTInstrument.startServer(AUTInstrument.java:161)\n\tat cn.edu.nju.ise.kikandroid.AUTInstrument$1.run(AUTInstrument.java:107)\n\tat java.lang.Thread.run(Thread.java:841)\n'
p1242
sa(dp1243
g2
S'16258'
p1244
sg4
L1449729209666L
sg5
g121
sg7
S'System.out'
p1245
sg9
S'17408'
p1246
sg11
S'type: value, col: 2\n'
p1247
sa(dp1248
g2
S'16258'
p1249
sg4
L1449729209666L
sg5
g121
sg7
S'System.out'
p1250
sg9
S'17408'
p1251
sg11
S'type: value, col: 1\n'
p1252
sa(dp1253
g2
S'16258'
p1254
sg4
L1449729209716L
sg5
g121
sg7
S'Process '
p1255
sg9
S'17408'
p1256
sg11
S'Sending signal. PID: 16258 SIG: 9\n'
p1257
sa(dp1258
g2
S'16285'
p1259
sg4
L1449729209736L
sg5
g6
sg7
S'RongService'
p1260
sg9
S'16285'
p1261
sg11
S'onUnbind, pid=16285\n'
p1262
sa(dp1263
g2
S'16285'
p1264
sg4
L1449729209736L
sg5
g6
sg7
S'RongService'
p1265
sg9
S'16285'
p1266
sg11
S'onDestroy, pid=16285\n'
p1267
sa(dp1268
g2
S'16285'
p1269
sg4
L1449729209736L
sg5
g121
sg7
S'Process '
p1270
sg9
S'16285'
p1271
sg11
S'Sending signal. PID: 16285 SIG: 9\n'
p1272
sa(dp1273
g2
S'19671'
p1274
sg4
L1449729357546L
sg5
g6
sg7
S'ActivityThread'
p1275
sg9
S'19671'
p1276
sg11
S'setTargetHeapUtilization:0.75\n'
p1277
sa(dp1278
g2
S'19671'
p1279
sg4
L1449729357546L
sg5
g6
sg7
S'ActivityThread'
p1280
sg9
S'19671'
p1281
sg11
S'setTargetHeapConcurrentStart:2097152\n'
p1282
sa(dp1283
g2
S'19671'
p1284
sg4
L1449729357576L
sg5
g6
sg7
S'long    '
p1285
sg9
S'19671'
p1286
sg11
S'\xe8\xbf\x9e\xe6\x8e\xa5\xe7\x9a\x84\xe6\x95\xb0\xe6\x8d\xae\xe5\xba\x93\xe6\x98\xaf\xef\xbc\x9axdf004483186.db\n'
p1287
sa(dp1288
g2
S'19671'
p1289
sg4
L1449729357596L
sg5
g6
sg7
S'ImageLoader'
p1290
sg9
S'19671'
p1291
sg11
S'Initialize ImageLoader with configuration\n'
p1292
sa(dp1293
g2
S'19671'
p1294
sg4
L1449729357606L
sg5
g6
sg7
S'long    '
p1295
sg9
S'19671'
p1296
sg11
S'getCurProcessName:io.rong.push\n'
p1297
sa(dp1298
g2
S'19671'
p1299
sg4
L1449729357636L
sg5
g6
sg7
S'##IPC_com.xdf.ucan.BaseApplication:RongIMClient : init'
p1300
sg9
S'19671'
p1301
sg11
S'process = io.rong.push\n'
p1302
sa(dp1303
g2
S'19671'
p1304
sg4
L1449729357646L
sg5
g6
sg7
S'##COMMON_io.rong.push.PushContext:PushContext'
p1305
sg9
S'19671'
p1306
sg11
S'init\n'
p1307
sa(dp1308
g2
S'19671'
p1309
sg4
L1449729357786L
sg5
g121
sg7
S'##COMMON_io.rong.push.PushContext:sendConnectCommand'
p1310
sg9
S'19671'
p1311
sg11
S'4900\n'
p1312
sa(dp1313
g2
S'19671'
p1314
sg4
L1449729357806L
sg5
g121
sg7
S'##COMMON_io.rong.push.PushReceiver:Action'
p1315
sg9
S'19671'
p1316
sg11
S'io.rong.push.HeartBeat\n'
p1317
sa(dp1318
g2
S'19671'
p1319
sg4
L1449729357806L
sg5
g121
sg7
S'##COMMON_io.rong.push.PushReceiver:ACTION_HEARTBEAT'
p1320
sg9
S'19671'
p1321
sg11
S'Receive heartbeat action.\n'
p1322
sa(dp1323
g2
S'19671'
p1324
sg4
L1449729357816L
sg5
g121
sg7
S'##COMMON_java.lang.Class:PushService'
p1325
sg9
S'19671'
p1326
sg11
S'PushService OnCreate\n'
p1327
sa(dp1328
g2
S'19671'
p1329
sg4
L1449729357816L
sg5
g121
sg7
S'PushService'
p1330
sg9
S'19671'
p1331
sg11
S'PushService OnCreate\n'
p1332
sa(dp1333
g2
S'19671'
p1334
sg4
L1449729357826L
sg5
g6
sg7
S'dalvikvm'
p1335
sg9
S'19677'
p1336
sg11
S'dvmCompilerArchVariantInit: gDvmJit.codeCacheSize pre-set -1.\n'
p1337
sa(dp1338
g2
S'19671'
p1339
sg4
L1449729357826L
sg5
g6
sg7
S'dalvikvm'
p1340
sg9
S'19677'
p1341
sg11
S'dvmCompilerArchVariantInit: gDvmJit.codeCacheSize post-set 1048576.\n'
p1342
sa(dp1343
g2
S'19671'
p1344
sg4
L1449729357836L
sg5
g121
sg7
S'##COMMON_io.rong.push.PushService.PushHandler:PushHandler'
p1345
sg9
S'19686'
p1346
sg11
S'ConnectToServer,isClientConnected = false\n'
p1347
sa(dp1348
g2
S'19671'
p1349
sg4
L1449729357836L
sg5
g121
sg7
S'##COMMON_io.rong.push.PushService:DeviceId'
p1350
sg9
S'19686'
p1351
sg11
S'357485036466649\n'
p1352
sa(dp1353
g2
S'19671'
p1354
sg4
L1449729357846L
sg5
g121
sg7
S'##COMMON_io.rong.push.PushService.PushHandler:PushHandler'
p1355
sg9
S'19686'
p1356
sg11
S'the saved IP = 119.254.110.62:8605\n'
p1357
sa(dp1358
g2
S'19671'
p1359
sg4
L1449729357846L
sg5
g121
sg7
S'PushHandler'
p1360
sg9
S'19686'
p1361
sg11
S'the saved time = 1449726836252current time = 1449729357852\n'
p1362
sa(dp1363
g2
S'19671'
p1364
sg4
L1449729357846L
sg5
g121
sg7
S'##COMMON_io.rong.push.PushService.PushHandler:PushHandler'
p1365
sg9
S'19686'
p1366
sg11
S'ConnectToServer,use the saved IP, IP = 119.254.110.62:8605\n'
p1367
sa(dp1368
g2
S'19671'
p1369
sg4
L1449729357856L
sg5
g121
sg7
S'##COMMON_io.rong.push.PushService:getPhoneInformation.'
p1370
sg9
S'19686'
p1371
sg11
S'the phone information is:HUAWEI|HUAWEI G6-U00|18|mobile|46001\n'
p1372
sa(dp1373
g2
S'19671'
p1374
sg4
L1449729357856L
sg5
g121
sg7
S'##COMMON_io.rong.push.PushClient:connect'
p1375
sg9
S'19686'
p1376
sg11
S'phone info:HUAWEI|HUAWEI G6-U00|18|mobile|46001 push version:2.6\n'
p1377
sa(dp1378
g2
S'19671'
p1379
sg4
L1449729358016L
sg5
g121
sg7
S'##COMMON_io.rong.push.PushClient:connect'
p1380
sg9
S'19686'
p1381
sg11
S'the socket is established\n'
p1382
sa(dp1383
g2
S'19671'
p1384
sg4
L1449729358576L
sg5
g121
sg7
S'##COMMON_io.rong.push.PushClient:Handler'
p1385
sg9
S'19688'
p1386
sg11
S'CONNACK\n'
p1387
sa(dp1388
g2
S'19671'
p1389
sg4
L1449729358576L
sg5
g121
sg7
S'PushService'
p1390
sg9
S'19688'
p1391
sg11
S'The client connect status is:CONNACK\n'
p1392
sa(dp1393
g2
S'19671'
p1394
sg4
L1449729358586L
sg5
g121
sg7
S'##COMMON_io.rong.push.PushService:Connect'
p1395
sg9
S'19688'
p1396
sg11
S'Client connect successfully.So start the heart beat.\n'
p1397
sa(dp1398
g2
S'19671'
p1399
sg4
L1449729358586L
sg5
g121
sg7
S'##COMMON_io.rong.push.PushContext:Heartbeat'
p1400
sg9
S'19688'
p1401
sg11
S'start_next\n'
p1402
sa(dp1403
g2
S'19671'
p1404
sg4
L1449729362706L
sg5
g121
sg7
S'##COMMON_io.rong.push.PushReceiver:Action'
p1405
sg9
S'19671'
p1406
sg11
S'io.rong.push.Connect\n'
p1407
sa(dp1408
g2
S'19671'
p1409
sg4
L1449729362786L
sg5
g121
sg7
S'##COMMON_io.rong.push.PushReceiver:ACTION_CONNECT'
p1410
sg9
S'19671'
p1411
sg11
S'version is null, run connect\n'
p1412
sa(dp1413
g2
S'19671'
p1414
sg4
L1449729362836L
sg5
g121
sg7
S'##COMMON_io.rong.push.PushService:CONNECT_CHECK'
p1415
sg9
S'19686'
p1416
sg11
S'getRunningPushServiceVersion null\n'
p1417
sa(dp1418
g2
S'19671'
p1419
sg4
L1449729362836L
sg5
g121
sg7
S'##COMMON_io.rong.push.PushService.PushHandler:PushHandler'
p1420
sg9
S'19686'
p1421
sg11
S'ConnectToServer,isClientConnected = true\n'
p1422
sa.