(lp0
(dp1
S'EventTime'
p2
S'31677129'
p3
sS'SyscTime'
p4
L1449659390105L
sS'recordCount'
p5
S'0'
p6
sS'EventType'
p7
S'TYPE_WINDOW_STATE_CHANGED'
p8
sS'PackageName'
p9
S'com.example.myfristandroid'
p10
sS'OutBounds'
p11
S'Rect(0, 0 - 1080, 1920)'
p12
sS'Action'
p13
S'[ ClassName: com.example.myfristandroid.SplashActivity; Text: [SE-1800\xe7\xa7\xbb\xe5\x8a\xa8APP]; ContentDescription: null; ItemCount: -1; CurrentItemIndex: -1; IsEnabled: true; IsPassword: false; IsChecked: false; IsFullScreen: true; Scrollable: false; BeforeText: null; FromIndex: -1; ToIndex: -1; ScrollX: -1; ScrollY: -1; MaxScrollX: -1; MaxScrollY: -1; AddedCount: -1; RemovedCount: -1; ParcelableData: null ]'
p14
sS'MovementGranularity'
p15
g6
sa(dp16
S'EventTime'
p17
S'31678122'
p18
sg4
L1449659391143L
sS'recordCount'
p19
g6
sS'EventType'
p20
S'TYPE_WINDOW_STATE_CHANGED'
p21
sS'PackageName'
p22
S'com.example.myfristandroid'
p23
sS'OutBounds'
p24
S'Rect(0, 0 - 1080, 1920)'
p25
sS'Action'
p26
S'[ ClassName: com.example.myfristandroid.MainActivity; Text: [SE-1800\xe7\xa7\xbb\xe5\x8a\xa8APP]; ContentDescription: null; ItemCount: -1; CurrentItemIndex: -1; IsEnabled: true; IsPassword: false; IsChecked: false; IsFullScreen: true; Scrollable: false; BeforeText: null; FromIndex: -1; ToIndex: -1; ScrollX: -1; ScrollY: -1; MaxScrollX: -1; MaxScrollY: -1; AddedCount: -1; RemovedCount: -1; ParcelableData: null ]'
p27
sS'MovementGranularity'
p28
g6
sa(dp29
S'EventTime'
p30
S'31678141'
p31
sg4
L1449659391171L
sS'recordCount'
p32
g6
sS'EventType'
p33
S'TYPE_VIEW_SCROLLED'
p34
sS'PackageName'
p35
S'com.example.myfristandroid'
p36
sS'OutBounds'
p37
S'Rect(1098, 609 - 2142, 609)'
p38
sS'Action'
p39
S'[ ClassName: android.widget.ListView; Text: []; ContentDescription: null; ItemCount: 0; CurrentItemIndex: -1; IsEnabled: true; IsPassword: false; IsChecked: false; IsFullScreen: false; Scrollable: false; BeforeText: null; FromIndex: 0; ToIndex: -1; ScrollX: -1; ScrollY: -1; MaxScrollX: -1; MaxScrollY: -1; AddedCount: -1; RemovedCount: -1; ParcelableData: null ]'
p40
sS'MovementGranularity'
p41
g6
sa(dp42
S'EventTime'
p43
S'31678277'
p44
sg4
L1449659391263L
sS'recordCount'
p45
g6
sS'EventType'
p46
S'TYPE_WINDOW_CONTENT_CHANGED'
p47
sS'PackageName'
p48
S'com.example.myfristandroid'
p49
sS'OutBounds'
p50
S'Rect(0, 195 - 1080, 1755)'
p51
sS'Action'
p52
S'[ ClassName: android.widget.GridView; Text: []; ContentDescription: null; ItemCount: 9; CurrentItemIndex: -1; IsEnabled: true; IsPassword: false; IsChecked: false; IsFullScreen: false; Scrollable: false; BeforeText: null; FromIndex: 0; ToIndex: 8; ScrollX: -1; ScrollY: -1; MaxScrollX: -1; MaxScrollY: -1; AddedCount: -1; RemovedCount: -1; ParcelableData: null ]'
p53
sS'MovementGranularity'
p54
g6
sa(dp55
S'EventTime'
p56
S'31678990'
p57
sg4
L1449659391990L
sS'recordCount'
p58
g6
sS'EventType'
p59
S'TYPE_WINDOW_STATE_CHANGED'
p60
sS'PackageName'
p61
S'com.example.myfristandroid'
p62
sS'OutBounds'
p63
S'Rect(0, 0 - 1080, 1920)'
p64
sS'Action'
p65
S'[ ClassName: com.example.myfristandroid.HuzAlertDialog; Text: [\xe6\x8f\x90\xe7\xa4\xba, \xe7\x89\x88\xe6\x9c\xac\xe6\x9c\x89\xe6\x9b\xb4\xe6\x96\xb0\xef\xbc\x8c\xe6\x98\xaf\xe5\x90\xa6\xe9\x9c\x80\xe8\xa6\x81\xe6\x9b\xb4\xe6\x96\xb0, \xe7\xab\x8b\xe5\x8d\xb3\xe6\x9b\xb4\xe6\x96\xb0, \xe7\xa8\x8d\xe5\x90\x8e\xe6\x9b\xb4\xe6\x96\xb0]; ContentDescription: null; ItemCount: -1; CurrentItemIndex: -1; IsEnabled: true; IsPassword: false; IsChecked: false; IsFullScreen: true; Scrollable: false; BeforeText: null; FromIndex: -1; ToIndex: -1; ScrollX: -1; ScrollY: -1; MaxScrollX: -1; MaxScrollY: -1; AddedCount: -1; RemovedCount: -1; ParcelableData: null ]'
p66
sS'MovementGranularity'
p67
g6
sa(dp68
S'EventTime'
p69
S'31679056'
p70
sg4
L1449659392044L
sS'recordCount'
p71
g6
sS'EventType'
p72
S'TYPE_WINDOW_CONTENT_CHANGED'
p73
sS'PackageName'
p74
S'com.example.myfristandroid'
p75
sS'OutBounds'
p76
S'Rect(558, 1060 - 1018, 1204)'
p77
sS'Action'
p78
S'[ ClassName: android.widget.Button; Text: []; ContentDescription: null; ItemCount: -1; CurrentItemIndex: -1; IsEnabled: true; IsPassword: false; IsChecked: false; IsFullScreen: false; Scrollable: false; BeforeText: null; FromIndex: -1; ToIndex: -1; ScrollX: -1; ScrollY: -1; MaxScrollX: -1; MaxScrollY: -1; AddedCount: -1; RemovedCount: -1; ParcelableData: null ]'
p79
sS'MovementGranularity'
p80
g6
sa(dp81
S'EventTime'
p82
S'31679172'
p83
sg4
L1449659392159L
sS'recordCount'
p84
g6
sS'EventType'
p85
S'TYPE_WINDOW_CONTENT_CHANGED'
p86
sS'PackageName'
p87
S'com.example.myfristandroid'
p88
sS'OutBounds'
p89
S'Rect(558, 1060 - 1018, 1204)'
p90
sS'Action'
p91
S'[ ClassName: android.widget.Button; Text: []; ContentDescription: null; ItemCount: -1; CurrentItemIndex: -1; IsEnabled: true; IsPassword: false; IsChecked: false; IsFullScreen: false; Scrollable: false; BeforeText: null; FromIndex: -1; ToIndex: -1; ScrollX: -1; ScrollY: -1; MaxScrollX: -1; MaxScrollY: -1; AddedCount: -1; RemovedCount: -1; ParcelableData: null ]'
p92
sS'MovementGranularity'
p93
g6
sa(dp94
S'EventTime'
p95
S'31680155'
p96
sg4
L1449659393127L
sS'recordCount'
p97
g6
sS'EventType'
p98
S'TYPE_VIEW_CLICKED'
p99
sS'PackageName'
p100
S'com.example.myfristandroid'
p101
sS'OutBounds'
p102
S'Rect(558, 1060 - 1018, 1204)'
p103
sS'Action'
p104
S'[ ClassName: android.widget.Button; Text: [\xe7\xa8\x8d\xe5\x90\x8e\xe6\x9b\xb4\xe6\x96\xb0]; ContentDescription: null; ItemCount: -1; CurrentItemIndex: -1; IsEnabled: true; IsPassword: false; IsChecked: false; IsFullScreen: false; Scrollable: false; BeforeText: null; FromIndex: -1; ToIndex: -1; ScrollX: -1; ScrollY: -1; MaxScrollX: -1; MaxScrollY: -1; AddedCount: -1; RemovedCount: -1; ParcelableData: null ]'
p105
sS'MovementGranularity'
p106
g6
sa(dp107
S'EventTime'
p108
S'31680219'
p109
sg4
L1449659393218L
sS'recordCount'
p110
g6
sS'EventType'
p111
S'TYPE_WINDOW_STATE_CHANGED'
p112
sS'PackageName'
p113
S'com.example.myfristandroid'
p114
sS'OutBounds'
p115
S'Rect(0, 0 - 1080, 1920)'
p116
sS'Action'
p117
S'[ ClassName: com.example.myfristandroid.MainActivity; Text: [SE-1800\xe7\xa7\xbb\xe5\x8a\xa8APP]; ContentDescription: null; ItemCount: -1; CurrentItemIndex: -1; IsEnabled: true; IsPassword: false; IsChecked: false; IsFullScreen: true; Scrollable: false; BeforeText: null; FromIndex: -1; ToIndex: -1; ScrollX: -1; ScrollY: -1; MaxScrollX: -1; MaxScrollY: -1; AddedCount: -1; RemovedCount: -1; ParcelableData: null ]'
p118
sS'MovementGranularity'
p119
g6
sa(dp120
S'EventTime'
p121
S'31680751'
p122
sg4
L1449659393725L
sS'recordCount'
p123
g6
sS'EventType'
p124
S'TYPE_VIEW_CLICKED'
p125
sS'PackageName'
p126
S'com.example.myfristandroid'
p127
sS'OutBounds'
p128
S'Rect(810, 1755 - 1080, 1920)'
p129
sS'Action'
p130
S'[ ClassName: android.widget.LinearLayout; Text: [\xe8\xae\xbe\xe7\xbd\xae\xe7\xb3\xbb\xe7\xbb\x9f\xe8\xbf\x90\xe8\xa1\x8c\xe5\x8f\x82\xe6\x95\xb0, \xe8\xae\xbe\xe7\xbd\xae]; ContentDescription: null; ItemCount: -1; CurrentItemIndex: -1; IsEnabled: true; IsPassword: false; IsChecked: false; IsFullScreen: false; Scrollable: false; BeforeText: null; FromIndex: -1; ToIndex: -1; ScrollX: -1; ScrollY: -1; MaxScrollX: -1; MaxScrollY: -1; AddedCount: -1; RemovedCount: -1; ParcelableData: null ]'
p131
sS'MovementGranularity'
p132
g6
sa(dp133
S'EventTime'
p134
S'31680767'
p135
sg4
L1449659393910L
sS'recordCount'
p136
g6
sS'EventType'
p137
S'TYPE_VIEW_FOCUSED'
p138
sS'PackageName'
p139
S'com.example.myfristandroid'
p140
sS'OutBounds'
p141
S'Rect(349, 210 - 1114, 300)'
p142
sS'Action'
p143
S'[ ClassName: android.widget.EditText; Text: [\xe6\x9c\x8d\xe5\x8a\xa1\xe5\x99\xa8\xe5\x9c\xb0\xe5\x9d\x80]; ContentDescription: null; ItemCount: 10; CurrentItemIndex: 0; IsEnabled: true; IsPassword: false; IsChecked: false; IsFullScreen: false; Scrollable: false; BeforeText: null; FromIndex: -1; ToIndex: -1; ScrollX: -1; ScrollY: -1; MaxScrollX: -1; MaxScrollY: -1; AddedCount: -1; RemovedCount: -1; ParcelableData: null ]'
p144
sS'MovementGranularity'
p145
g6
sa(dp146
S'EventTime'
p147
S'31680790'
p148
sg4
L1449659393956L
sS'recordCount'
p149
g6
sS'EventType'
p150
S'TYPE_VIEW_TEXT_SELECTION_CHANGED'
p151
sS'PackageName'
p152
S'com.example.myfristandroid'
p153
sS'OutBounds'
p154
S'Rect(302, 315 - 1067, 405)'
p155
sS'Action'
p156
S'[ ClassName: android.widget.EditText; Text: [143]; ContentDescription: null; ItemCount: 3; CurrentItemIndex: -1; IsEnabled: true; IsPassword: false; IsChecked: false; IsFullScreen: false; Scrollable: false; BeforeText: null; FromIndex: 0; ToIndex: 0; ScrollX: -1; ScrollY: -1; MaxScrollX: -1; MaxScrollY: -1; AddedCount: -1; RemovedCount: -1; ParcelableData: null ]'
p157
sS'MovementGranularity'
p158
g6
sa(dp159
S'EventTime'
p160
S'31680792'
p161
sg4
L1449659394011L
sS'recordCount'
p162
g6
sS'EventType'
p163
S'TYPE_WINDOW_CONTENT_CHANGED'
p164
sS'PackageName'
p165
S'com.example.myfristandroid'
p166
sS'OutBounds'
p167
S'Rect(330, 735 - 750, 825)'
p168
sS'Action'
p169
S'[ ClassName: android.widget.Button; Text: []; ContentDescription: null; ItemCount: -1; CurrentItemIndex: -1; IsEnabled: true; IsPassword: false; IsChecked: false; IsFullScreen: false; Scrollable: false; BeforeText: null; FromIndex: -1; ToIndex: -1; ScrollX: -1; ScrollY: -1; MaxScrollX: -1; MaxScrollY: -1; AddedCount: -1; RemovedCount: -1; ParcelableData: null ]'
p170
sS'MovementGranularity'
p171
g6
sa(dp172
S'EventTime'
p173
S'31681009'
p174
sg4
L1449659394079L
sS'recordCount'
p175
g6
sS'EventType'
p176
S'TYPE_WINDOW_CONTENT_CHANGED'
p177
sS'PackageName'
p178
S'com.example.myfristandroid'
p179
sS'OutBounds'
p180
S'Rect(0, 195 - 1080, 1755)'
p181
sS'Action'
p182
S'[ ClassName: android.support.v4.view.ViewPager; Text: []; ContentDescription: null; ItemCount: -1; CurrentItemIndex: -1; IsEnabled: true; IsPassword: false; IsChecked: false; IsFullScreen: false; Scrollable: false; BeforeText: null; FromIndex: -1; ToIndex: -1; ScrollX: -1; ScrollY: -1; MaxScrollX: -1; MaxScrollY: -1; AddedCount: -1; RemovedCount: -1; ParcelableData: null ]'
p183
sS'MovementGranularity'
p184
g6
sa(dp185
S'EventTime'
p186
S'31681010'
p187
sg4
L1449659394142L
sS'recordCount'
p188
g6
sS'EventType'
p189
S'TYPE_VIEW_SCROLLED'
p190
sS'PackageName'
p191
S'com.example.myfristandroid'
p192
sS'OutBounds'
p193
S'Rect(0, 195 - 1080, 1755)'
p194
sS'Action'
p195
S'[ ClassName: android.support.v4.view.ViewPager; Text: []; ContentDescription: null; ItemCount: -1; CurrentItemIndex: -1; IsEnabled: true; IsPassword: false; IsChecked: false; IsFullScreen: false; Scrollable: false; BeforeText: null; FromIndex: -1; ToIndex: -1; ScrollX: -1; ScrollY: -1; MaxScrollX: -1; MaxScrollY: -1; AddedCount: -1; RemovedCount: -1; ParcelableData: null ]'
p196
sS'MovementGranularity'
p197
g6
sa(dp198
S'EventTime'
p199
S'31681139'
p200
sg4
L1449659394206L
sS'recordCount'
p201
g6
sS'EventType'
p202
S'TYPE_VIEW_SCROLLED'
p203
sS'PackageName'
p204
S'com.example.myfristandroid'
p205
sS'OutBounds'
p206
S'Rect(0, 195 - 1080, 1755)'
p207
sS'Action'
p208
S'[ ClassName: android.support.v4.view.ViewPager; Text: []; ContentDescription: null; ItemCount: -1; CurrentItemIndex: -1; IsEnabled: true; IsPassword: false; IsChecked: false; IsFullScreen: false; Scrollable: false; BeforeText: null; FromIndex: -1; ToIndex: -1; ScrollX: -1; ScrollY: -1; MaxScrollX: -1; MaxScrollY: -1; AddedCount: -1; RemovedCount: -1; ParcelableData: null ]'
p209
sS'MovementGranularity'
p210
g6
sa(dp211
S'EventTime'
p212
S'31681977'
p213
sg4
L1449659395022L
sS'recordCount'
p214
g6
sS'EventType'
p215
S'TYPE_WINDOW_CONTENT_CHANGED'
p216
sS'PackageName'
p217
S'com.example.myfristandroid'
p218
sS'OutBounds'
p219
S'Rect(300, 210 - 1065, 300)'
p220
sS'Action'
p221
S'[ ClassName: android.widget.EditText; Text: []; ContentDescription: null; ItemCount: -1; CurrentItemIndex: -1; IsEnabled: true; IsPassword: false; IsChecked: false; IsFullScreen: false; Scrollable: false; BeforeText: null; FromIndex: -1; ToIndex: -1; ScrollX: -1; ScrollY: -1; MaxScrollX: -1; MaxScrollY: -1; AddedCount: -1; RemovedCount: -1; ParcelableData: null ]'
p222
sS'MovementGranularity'
p223
g6
sa(dp224
S'EventTime'
p225
S'31681979'
p226
sg4
L1449659395095L
sS'recordCount'
p227
g6
sS'EventType'
p228
S'TYPE_VIEW_TEXT_SELECTION_CHANGED'
p229
sS'PackageName'
p230
S'com.example.myfristandroid'
p231
sS'OutBounds'
p232
S'Rect(300, 630 - 1065, 720)'
p233
sS'Action'
p234
S'[ ClassName: android.widget.EditText; Text: []; ContentDescription: null; ItemCount: 4; CurrentItemIndex: -1; IsEnabled: true; IsPassword: true; IsChecked: false; IsFullScreen: false; Scrollable: false; BeforeText: null; FromIndex: 4; ToIndex: 4; ScrollX: -1; ScrollY: -1; MaxScrollX: -1; MaxScrollY: -1; AddedCount: -1; RemovedCount: -1; ParcelableData: null ]'
p235
sS'MovementGranularity'
p236
g6
sa(dp237
S'EventTime'
p238
S'31681981'
p239
sg4
L1449659395140L
sS'recordCount'
p240
g6
sS'EventType'
p241
S'TYPE_VIEW_FOCUSED'
p242
sS'PackageName'
p243
S'com.example.myfristandroid'
p244
sS'OutBounds'
p245
S'Rect(300, 630 - 1065, 720)'
p246
sS'Action'
p247
S'[ ClassName: android.widget.EditText; Text: []; ContentDescription: null; ItemCount: 10; CurrentItemIndex: 4; IsEnabled: true; IsPassword: true; IsChecked: false; IsFullScreen: false; Scrollable: false; BeforeText: null; FromIndex: -1; ToIndex: -1; ScrollX: -1; ScrollY: -1; MaxScrollX: -1; MaxScrollY: -1; AddedCount: -1; RemovedCount: -1; ParcelableData: null ]'
p248
sS'MovementGranularity'
p249
g6
sa(dp250
S'EventTime'
p251
S'31683241'
p252
sg4
L1449659396233L
sS'recordCount'
p253
g6
sS'EventType'
p254
S'TYPE_VIEW_TEXT_CHANGED'
p255
sS'PackageName'
p256
S'com.example.myfristandroid'
p257
sS'OutBounds'
p258
S'Rect(300, 630 - 1065, 720)'
p259
sS'Action'
p260
S'[ ClassName: android.widget.EditText; Text: []; ContentDescription: null; ItemCount: -1; CurrentItemIndex: -1; IsEnabled: true; IsPassword: true; IsChecked: false; IsFullScreen: false; Scrollable: false; BeforeText: null; FromIndex: 0; ToIndex: -1; ScrollX: -1; ScrollY: -1; MaxScrollX: -1; MaxScrollY: -1; AddedCount: 0; RemovedCount: 1; ParcelableData: null ]'
p261
sS'MovementGranularity'
p262
g6
sa(dp263
S'EventTime'
p264
S'31683242'
p265
sg4
L1449659396298L
sS'recordCount'
p266
g6
sS'EventType'
p267
S'TYPE_VIEW_TEXT_SELECTION_CHANGED'
p268
sS'PackageName'
p269
S'com.example.myfristandroid'
p270
sS'OutBounds'
p271
S'Rect(300, 630 - 1065, 720)'
p272
sS'Action'
p273
S'[ ClassName: android.widget.EditText; Text: []; ContentDescription: null; ItemCount: 0; CurrentItemIndex: -1; IsEnabled: true; IsPassword: true; IsChecked: false; IsFullScreen: false; Scrollable: false; BeforeText: null; FromIndex: 0; ToIndex: 0; ScrollX: -1; ScrollY: -1; MaxScrollX: -1; MaxScrollY: -1; AddedCount: -1; RemovedCount: -1; ParcelableData: null ]'
p274
sS'MovementGranularity'
p275
g6
sa(dp276
S'EventTime'
p277
S'31684030'
p278
sg4
L1449659397002L
sS'recordCount'
p279
g6
sS'EventType'
p280
S'TYPE_VIEW_CLICKED'
p281
sS'PackageName'
p282
S'com.example.myfristandroid'
p283
sS'OutBounds'
p284
S'Rect(330, 735 - 750, 825)'
p285
sS'Action'
p286
S'[ ClassName: android.widget.Button; Text: [\xe7\x99\xbb\xe5\xbd\x95]; ContentDescription: null; ItemCount: -1; CurrentItemIndex: -1; IsEnabled: true; IsPassword: false; IsChecked: false; IsFullScreen: false; Scrollable: false; BeforeText: null; FromIndex: -1; ToIndex: -1; ScrollX: -1; ScrollY: -1; MaxScrollX: -1; MaxScrollY: -1; AddedCount: -1; RemovedCount: -1; ParcelableData: null ]'
p287
sS'MovementGranularity'
p288
g6
sa(dp289
S'EventTime'
p290
S'31684958'
p291
sg4
L1449659397983L
sS'recordCount'
p292
g6
sS'EventType'
p293
S'TYPE_WINDOW_CONTENT_CHANGED'
p294
sS'PackageName'
p295
S'com.example.myfristandroid'
p296
sS'OutBounds'
p297
S'Rect(300, 630 - 1065, 720)'
p298
sS'Action'
p299
S'[ ClassName: android.widget.EditText; Text: []; ContentDescription: null; ItemCount: -1; CurrentItemIndex: -1; IsEnabled: false; IsPassword: true; IsChecked: false; IsFullScreen: false; Scrollable: false; BeforeText: null; FromIndex: -1; ToIndex: -1; ScrollX: -1; ScrollY: -1; MaxScrollX: -1; MaxScrollY: -1; AddedCount: -1; RemovedCount: -1; ParcelableData: null ]'
p300
sS'MovementGranularity'
p301
g6
sa(dp302
S'EventTime'
p303
S'31685992'
p304
sg4
L1449659398976L
sS'recordCount'
p305
g6
sS'EventType'
p306
S'TYPE_WINDOW_STATE_CHANGED'
p307
sS'PackageName'
p308
S'com.example.myfristandroid'
p309
sS'OutBounds'
p310
S'Rect(0, 0 - 1080, 1920)'
p311
sS'Action'
p312
S'[ ClassName: com.example.myfristandroid.HuzAlertDialog; Text: [\xe9\x80\x80\xe5\x87\xba, \xe7\xa1\xae\xe5\xae\x9a\xe9\x80\x80\xe5\x87\xba\xe7\xb3\xbb\xe7\xbb\x9f\xe5\x90\x97\xef\xbc\x9f, \xe5\x90\x8e\xe5\x8f\xb0\xe8\xbf\x90\xe8\xa1\x8c, \xe9\x80\x80\xe5\x87\xba]; ContentDescription: null; ItemCount: -1; CurrentItemIndex: -1; IsEnabled: true; IsPassword: false; IsChecked: false; IsFullScreen: true; Scrollable: false; BeforeText: null; FromIndex: -1; ToIndex: -1; ScrollX: -1; ScrollY: -1; MaxScrollX: -1; MaxScrollY: -1; AddedCount: -1; RemovedCount: -1; ParcelableData: null ]'
p313
sS'MovementGranularity'
p314
g6
sa(dp315
S'EventTime'
p316
S'31686154'
p317
sg4
L1449659399128L
sS'recordCount'
p318
g6
sS'EventType'
p319
S'TYPE_WINDOW_CONTENT_CHANGED'
p320
sS'PackageName'
p321
S'com.example.myfristandroid'
p322
sS'OutBounds'
p323
S'Rect(65, 772 - 1039, 878)'
p324
sS'Action'
p325
S'[ ClassName: android.widget.TextView; Text: []; ContentDescription: null; ItemCount: -1; CurrentItemIndex: -1; IsEnabled: true; IsPassword: false; IsChecked: false; IsFullScreen: false; Scrollable: false; BeforeText: null; FromIndex: -1; ToIndex: -1; ScrollX: -1; ScrollY: -1; MaxScrollX: -1; MaxScrollY: -1; AddedCount: -1; RemovedCount: -1; ParcelableData: null ]'
p326
sS'MovementGranularity'
p327
g6
sa(dp328
S'EventTime'
p329
S'31687860'
p330
sg4
L1449659400883L
sS'recordCount'
p331
g6
sS'EventType'
p332
S'TYPE_WINDOW_STATE_CHANGED'
p333
sS'PackageName'
p334
S'com.example.myfristandroid'
p335
sS'OutBounds'
p336
S'Rect(0, 0 - 1080, 1920)'
p337
sS'Action'
p338
S'[ ClassName: com.example.myfristandroid.MainActivity; Text: [SE-1800\xe7\xa7\xbb\xe5\x8a\xa8APP]; ContentDescription: null; ItemCount: -1; CurrentItemIndex: -1; IsEnabled: true; IsPassword: false; IsChecked: false; IsFullScreen: true; Scrollable: false; BeforeText: null; FromIndex: -1; ToIndex: -1; ScrollX: -1; ScrollY: -1; MaxScrollX: -1; MaxScrollY: -1; AddedCount: -1; RemovedCount: -1; ParcelableData: null ]'
p339
sS'MovementGranularity'
p340
g6
sa(dp341
S'EventTime'
p342
S'31692164'
p343
sg4
L1449659405137L
sS'recordCount'
p344
g6
sS'EventType'
p345
S'TYPE_VIEW_CLICKED'
p346
sS'PackageName'
p347
S'com.example.myfristandroid'
p348
sS'OutBounds'
p349
S'Rect(540, 1755 - 810, 1920)'
p350
sS'Action'
p351
S'[ ClassName: android.widget.LinearLayout; Text: [\xe6\x9f\xa5\xe7\x9c\x8b\xe5\xae\x9e\xe6\x97\xb6\xe5\x91\x8a\xe8\xad\xa6\xe4\xbf\xa1\xe6\x81\xaf, \xe5\x91\x8a\xe8\xad\xa6]; ContentDescription: null; ItemCount: -1; CurrentItemIndex: -1; IsEnabled: true; IsPassword: false; IsChecked: false; IsFullScreen: false; Scrollable: false; BeforeText: null; FromIndex: -1; ToIndex: -1; ScrollX: -1; ScrollY: -1; MaxScrollX: -1; MaxScrollY: -1; AddedCount: -1; RemovedCount: -1; ParcelableData: null ]'
p352
sS'MovementGranularity'
p353
g6
sa(dp354
S'EventTime'
p355
S'31692175'
p356
sg4
L1449659405168L
sS'recordCount'
p357
g6
sS'EventType'
p358
S'TYPE_WINDOW_CONTENT_CHANGED'
p359
sS'PackageName'
p360
S'com.example.myfristandroid'
p361
sS'OutBounds'
p362
S'Rect(1367, 630 - 2132, 720)'
p363
sS'Action'
p364
S'[ ClassName: android.widget.EditText; Text: []; ContentDescription: null; ItemCount: -1; CurrentItemIndex: -1; IsEnabled: false; IsPassword: true; IsChecked: false; IsFullScreen: false; Scrollable: false; BeforeText: null; FromIndex: -1; ToIndex: -1; ScrollX: -1; ScrollY: -1; MaxScrollX: -1; MaxScrollY: -1; AddedCount: -1; RemovedCount: -1; ParcelableData: null ]'
p365
sS'MovementGranularity'
p366
g6
sa(dp367
S'EventTime'
p368
S'31692175'
p369
sg4
L1449659405229L
sS'recordCount'
p370
g6
sS'EventType'
p371
S'TYPE_VIEW_FOCUSED'
p372
sS'PackageName'
p373
S'com.example.myfristandroid'
p374
sS'OutBounds'
p375
S'Rect(9, 360 - 1071, 450)'
p376
sS'Action'
p377
S'[ ClassName: android.widget.EditText; Text: [\xe6\x90\x9c\xe7\xb4\xa2]; ContentDescription: null; ItemCount: 8; CurrentItemIndex: 2; IsEnabled: true; IsPassword: false; IsChecked: false; IsFullScreen: false; Scrollable: false; BeforeText: null; FromIndex: -1; ToIndex: -1; ScrollX: -1; ScrollY: -1; MaxScrollX: -1; MaxScrollY: -1; AddedCount: -1; RemovedCount: -1; ParcelableData: null ]'
p378
sS'MovementGranularity'
p379
g6
sa(dp380
S'EventTime'
p381
S'31692297'
p382
sg4
L1449659405298L
sS'recordCount'
p383
g6
sS'EventType'
p384
S'TYPE_VIEW_SCROLLED'
p385
sS'PackageName'
p386
S'com.example.myfristandroid'
p387
sS'OutBounds'
p388
S'Rect(0, 195 - 1080, 1755)'
p389
sS'Action'
p390
S'[ ClassName: android.support.v4.view.ViewPager; Text: []; ContentDescription: null; ItemCount: -1; CurrentItemIndex: -1; IsEnabled: true; IsPassword: false; IsChecked: false; IsFullScreen: false; Scrollable: false; BeforeText: null; FromIndex: -1; ToIndex: -1; ScrollX: -1; ScrollY: -1; MaxScrollX: -1; MaxScrollY: -1; AddedCount: -1; RemovedCount: -1; ParcelableData: null ]'
p391
sS'MovementGranularity'
p392
g6
sa(dp393
S'EventTime'
p394
S'31692461'
p395
sg4
L1449659405454L
sS'recordCount'
p396
g6
sS'EventType'
p397
S'TYPE_VIEW_SCROLLED'
p398
sS'PackageName'
p399
S'com.example.myfristandroid'
p400
sS'OutBounds'
p401
S'Rect(0, 195 - 1080, 1755)'
p402
sS'Action'
p403
S'[ ClassName: android.support.v4.view.ViewPager; Text: []; ContentDescription: null; ItemCount: -1; CurrentItemIndex: -1; IsEnabled: true; IsPassword: false; IsChecked: false; IsFullScreen: false; Scrollable: false; BeforeText: null; FromIndex: -1; ToIndex: -1; ScrollX: -1; ScrollY: -1; MaxScrollX: -1; MaxScrollY: -1; AddedCount: -1; RemovedCount: -1; ParcelableData: null ]'
p404
sS'MovementGranularity'
p405
g6
sa(dp406
S'EventTime'
p407
S'31692815'
p408
sg4
L1449659405785L
sS'recordCount'
p409
g6
sS'EventType'
p410
S'TYPE_VIEW_CLICKED'
p411
sS'PackageName'
p412
S'com.example.myfristandroid'
p413
sS'OutBounds'
p414
S'Rect(270, 1755 - 540, 1920)'
p415
sS'Action'
p416
S'[ ClassName: android.widget.LinearLayout; Text: [\xe6\x9f\xa5\xe7\x9c\x8b\xe5\xae\x9e\xe6\x97\xb6\xe6\x95\xb0\xe6\x8d\xae\xe4\xbf\xa1\xe6\x81\xaf, \xe6\x95\xb0\xe6\x8d\xae]; ContentDescription: null; ItemCount: -1; CurrentItemIndex: -1; IsEnabled: true; IsPassword: false; IsChecked: false; IsFullScreen: false; Scrollable: false; BeforeText: null; FromIndex: -1; ToIndex: -1; ScrollX: -1; ScrollY: -1; MaxScrollX: -1; MaxScrollY: -1; AddedCount: -1; RemovedCount: -1; ParcelableData: null ]'
p417
sS'MovementGranularity'
p418
g6
sa(dp419
S'EventTime'
p420
S'31692819'
p421
sg4
L1449659405812L
sS'recordCount'
p422
g6
sS'EventType'
p423
S'TYPE_WINDOW_CONTENT_CHANGED'
p424
sS'PackageName'
p425
S'com.example.myfristandroid'
p426
sS'OutBounds'
p427
S'Rect(1075, 360 - 2137, 450)'
p428
sS'Action'
p429
S'[ ClassName: android.widget.EditText; Text: []; ContentDescription: null; ItemCount: -1; CurrentItemIndex: -1; IsEnabled: true; IsPassword: false; IsChecked: false; IsFullScreen: false; Scrollable: false; BeforeText: null; FromIndex: -1; ToIndex: -1; ScrollX: -1; ScrollY: -1; MaxScrollX: -1; MaxScrollY: -1; AddedCount: -1; RemovedCount: -1; ParcelableData: null ]'
p430
sS'MovementGranularity'
p431
g6
sa(dp432
S'EventTime'
p433
S'31692820'
p434
sg4
L1449659405858L
sS'recordCount'
p435
g6
sS'EventType'
p436
S'TYPE_VIEW_FOCUSED'
p437
sS'PackageName'
p438
S'com.example.myfristandroid'
p439
sS'OutBounds'
p440
S'Rect(8, 435 - 1070, 525)'
p441
sS'Action'
p442
S'[ ClassName: android.widget.EditText; Text: [\xe6\x90\x9c\xe7\xb4\xa2]; ContentDescription: null; ItemCount: 10; CurrentItemIndex: 4; IsEnabled: true; IsPassword: false; IsChecked: false; IsFullScreen: false; Scrollable: false; BeforeText: null; FromIndex: -1; ToIndex: -1; ScrollX: -1; ScrollY: -1; MaxScrollX: -1; MaxScrollY: -1; AddedCount: -1; RemovedCount: -1; ParcelableData: null ]'
p443
sS'MovementGranularity'
p444
g6
sa(dp445
S'EventTime'
p446
S'31692939'
p447
sg4
L1449659405940L
sS'recordCount'
p448
g6
sS'EventType'
p449
S'TYPE_VIEW_SCROLLED'
p450
sS'PackageName'
p451
S'com.example.myfristandroid'
p452
sS'OutBounds'
p453
S'Rect(0, 195 - 1080, 1755)'
p454
sS'Action'
p455
S'[ ClassName: android.support.v4.view.ViewPager; Text: []; ContentDescription: null; ItemCount: -1; CurrentItemIndex: -1; IsEnabled: true; IsPassword: false; IsChecked: false; IsFullScreen: false; Scrollable: false; BeforeText: null; FromIndex: -1; ToIndex: -1; ScrollX: -1; ScrollY: -1; MaxScrollX: -1; MaxScrollY: -1; AddedCount: -1; RemovedCount: -1; ParcelableData: null ]'
p456
sS'MovementGranularity'
p457
g6
sa(dp458
S'EventTime'
p459
S'31693093'
p460
sg4
L1449659406092L
sS'recordCount'
p461
g6
sS'EventType'
p462
S'TYPE_VIEW_SCROLLED'
p463
sS'PackageName'
p464
S'com.example.myfristandroid'
p465
sS'OutBounds'
p466
S'Rect(0, 195 - 1080, 1755)'
p467
sS'Action'
p468
S'[ ClassName: android.support.v4.view.ViewPager; Text: []; ContentDescription: null; ItemCount: -1; CurrentItemIndex: -1; IsEnabled: true; IsPassword: false; IsChecked: false; IsFullScreen: false; Scrollable: false; BeforeText: null; FromIndex: -1; ToIndex: -1; ScrollX: -1; ScrollY: -1; MaxScrollX: -1; MaxScrollY: -1; AddedCount: -1; RemovedCount: -1; ParcelableData: null ]'
p469
sS'MovementGranularity'
p470
g6
sa(dp471
S'EventTime'
p472
S'31694264'
p473
sg4
L1449659407235L
sS'recordCount'
p474
g6
sS'EventType'
p475
S'TYPE_VIEW_CLICKED'
p476
sS'PackageName'
p477
S'com.example.myfristandroid'
p478
sS'OutBounds'
p479
S'Rect(390, 225 - 1005, 315)'
p480
sS'Action'
p481
S'[ ClassName: android.widget.Button; Text: [\xe7\x82\xb9\xe5\x87\xbb\xe9\x80\x89\xe6\x8b\xa9\xe5\x8e\x82\xe7\xab\x99]; ContentDescription: null; ItemCount: -1; CurrentItemIndex: -1; IsEnabled: true; IsPassword: false; IsChecked: false; IsFullScreen: false; Scrollable: false; BeforeText: null; FromIndex: -1; ToIndex: -1; ScrollX: -1; ScrollY: -1; MaxScrollX: -1; MaxScrollY: -1; AddedCount: -1; RemovedCount: -1; ParcelableData: null ]'
p482
sS'MovementGranularity'
p483
g6
sa(dp484
S'EventTime'
p485
S'31694310'
p486
sg4
L1449659407282L
sS'recordCount'
p487
g6
sS'EventType'
p488
S'TYPE_WINDOW_STATE_CHANGED'
p489
sS'PackageName'
p490
S'com.example.myfristandroid'
p491
sS'OutBounds'
p492
S'Rect(390, 840 - 690, 1140)'
p493
sS'Action'
p494
S'[ ClassName: com.example.myfristandroid.CustomProgressDialog; Text: []; ContentDescription: null; ItemCount: -1; CurrentItemIndex: -1; IsEnabled: true; IsPassword: false; IsChecked: false; IsFullScreen: false; Scrollable: false; BeforeText: null; FromIndex: -1; ToIndex: -1; ScrollX: -1; ScrollY: -1; MaxScrollX: -1; MaxScrollY: -1; AddedCount: -1; RemovedCount: -1; ParcelableData: null ]'
p495
sS'MovementGranularity'
p496
g6
sa(dp497
S'EventTime'
p498
S'31695069'
p499
sg4
L1449659408048L
sS'recordCount'
p500
g6
sS'EventType'
p501
S'TYPE_WINDOW_STATE_CHANGED'
p502
sS'PackageName'
p503
S'com.example.myfristandroid'
p504
sS'OutBounds'
p505
S'Rect(0, 0 - 1080, 1920)'
p506
sS'Action'
p507
S'[ ClassName: com.example.myfristandroid.HuzAlertDialog; Text: [\xe8\xaf\xb7\xe9\x80\x89\xe6\x8b\xa9\xe5\x8e\x82\xe7\xab\x99, \xe5\x8f\x96\xe6\xb6\x88]; ContentDescription: null; ItemCount: -1; CurrentItemIndex: -1; IsEnabled: true; IsPassword: false; IsChecked: false; IsFullScreen: true; Scrollable: false; BeforeText: null; FromIndex: -1; ToIndex: -1; ScrollX: -1; ScrollY: -1; MaxScrollX: -1; MaxScrollY: -1; AddedCount: -1; RemovedCount: -1; ParcelableData: null ]'
p508
sS'MovementGranularity'
p509
g6
sa(dp510
S'EventTime'
p511
S'31695162'
p512
sg4
L1449659408136L
sS'recordCount'
p513
g6
sS'EventType'
p514
S'TYPE_VIEW_SCROLLED'
p515
sS'PackageName'
p516
S'com.example.myfristandroid'
p517
sS'OutBounds'
p518
S'Rect(47, 602 - 1039, 1349)'
p519
sS'Action'
p520
S'[ ClassName: android.widget.ListView; Text: []; ContentDescription: null; ItemCount: 12; CurrentItemIndex: -1; IsEnabled: true; IsPassword: false; IsChecked: false; IsFullScreen: false; Scrollable: true; BeforeText: null; FromIndex: 0; ToIndex: 3; ScrollX: -1; ScrollY: -1; MaxScrollX: -1; MaxScrollY: -1; AddedCount: -1; RemovedCount: -1; ParcelableData: null ]'
p521
sS'MovementGranularity'
p522
g6
sa(dp523
S'EventTime'
p524
S'31695275'
p525
sg4
L1449659408248L
sS'recordCount'
p526
S'1'
p527
sS'EventType'
p528
S'TYPE_WINDOW_CONTENT_CHANGED'
p529
sS'PackageName'
p530
S'com.example.myfristandroid'
p531
sS'OutBounds'
p532
S'Rect(47, 1184 - 1039, 1376)'
p533
sS'Action'
p534
S'[ ClassName: android.widget.CheckedTextView; Text: []; ContentDescription: null; ItemCount: -1; CurrentItemIndex: -1; IsEnabled: true; IsPassword: false; IsChecked: false; IsFullScreen: false; Scrollable: false; BeforeText: null; FromIndex: -1; ToIndex: -1; ScrollX: -1; ScrollY: -1; MaxScrollX: -1; MaxScrollY: -1; AddedCount: -1; RemovedCount: -1; ParcelableData: null ]'
p535
sS'MovementGranularity'
p536
g6
sa(dp537
S'EventTime'
p538
S'31697277'
p539
sg4
L1449659410249L
sS'recordCount'
p540
g527
sS'EventType'
p541
S'TYPE_VIEW_CLICKED'
p542
sS'PackageName'
p543
S'com.example.myfristandroid'
p544
sS'OutBounds'
p545
S'Rect(47, 602 - 1039, 794)'
p546
sS'Action'
p547
S'[ ClassName: android.widget.CheckedTextView; Text: [\xe4\xb8\x96\xe6\x8d\xb7]; ContentDescription: null; ItemCount: -1; CurrentItemIndex: -1; IsEnabled: true; IsPassword: false; IsChecked: true; IsFullScreen: false; Scrollable: false; BeforeText: null; FromIndex: -1; ToIndex: -1; ScrollX: -1; ScrollY: -1; MaxScrollX: -1; MaxScrollY: -1; AddedCount: -1; RemovedCount: -1; ParcelableData: null ]'
p548
sS'MovementGranularity'
p549
g6
sa(dp550
S'EventTime'
p551
S'31697326'
p552
sg4
L1449659410328L
sS'recordCount'
p553
g6
sS'EventType'
p554
S'TYPE_WINDOW_STATE_CHANGED'
p555
sS'PackageName'
p556
S'com.example.myfristandroid'
p557
sS'OutBounds'
p558
S'Rect(0, 0 - 1080, 1920)'
p559
sS'Action'
p560
S'[ ClassName: com.example.myfristandroid.MainActivity; Text: [SE-1800\xe7\xa7\xbb\xe5\x8a\xa8APP]; ContentDescription: null; ItemCount: -1; CurrentItemIndex: -1; IsEnabled: true; IsPassword: false; IsChecked: false; IsFullScreen: true; Scrollable: false; BeforeText: null; FromIndex: -1; ToIndex: -1; ScrollX: -1; ScrollY: -1; MaxScrollX: -1; MaxScrollY: -1; AddedCount: -1; RemovedCount: -1; ParcelableData: null ]'
p561
sS'MovementGranularity'
p562
g6
sa(dp563
S'EventTime'
p564
S'31698659'
p565
sg4
L1449659411630L
sS'recordCount'
p566
g6
sS'EventType'
p567
S'TYPE_VIEW_CLICKED'
p568
sS'PackageName'
p569
S'com.example.myfristandroid'
p570
sS'OutBounds'
p571
S'Rect(0, 1755 - 270, 1920)'
p572
sS'Action'
p573
S'[ ClassName: android.widget.LinearLayout; Text: [\xe7\x94\xbb\xe9\x9d\xa2\xe6\xb5\x8f\xe8\xa7\x88, \xe7\x94\xbb\xe9\x9d\xa2]; ContentDescription: null; ItemCount: -1; CurrentItemIndex: -1; IsEnabled: true; IsPassword: false; IsChecked: false; IsFullScreen: false; Scrollable: false; BeforeText: null; FromIndex: -1; ToIndex: -1; ScrollX: -1; ScrollY: -1; MaxScrollX: -1; MaxScrollY: -1; AddedCount: -1; RemovedCount: -1; ParcelableData: null ]'
p574
sS'MovementGranularity'
p575
g6
sa(dp576
S'EventTime'
p577
S'31698662'
p578
sg4
L1449659411660L
sS'recordCount'
p579
g6
sS'EventType'
p580
S'TYPE_VIEW_FOCUSED'
p581
sS'PackageName'
p582
S'com.example.myfristandroid'
p583
sS'OutBounds'
p584
S'Rect(-8, 195 - 1071, 1755)'
p585
sS'Action'
p586
S'[ ClassName: android.widget.GridView; Text: []; ContentDescription: null; ItemCount: 9; CurrentItemIndex: -1; IsEnabled: true; IsPassword: false; IsChecked: false; IsFullScreen: false; Scrollable: false; BeforeText: null; FromIndex: 0; ToIndex: 8; ScrollX: -1; ScrollY: -1; MaxScrollX: -1; MaxScrollY: -1; AddedCount: -1; RemovedCount: -1; ParcelableData: null ]'
p587
sS'MovementGranularity'
p588
g6
sa(dp589
S'EventTime'
p590
S'31698793'
p591
sg4
L1449659411792L
sS'recordCount'
p592
g6
sS'EventType'
p593
S'TYPE_WINDOW_CONTENT_CHANGED'
p594
sS'PackageName'
p595
S'com.example.myfristandroid'
p596
sS'OutBounds'
p597
S'Rect(0, 195 - 1080, 1755)'
p598
sS'Action'
p599
S'[ ClassName: android.widget.GridView; Text: []; ContentDescription: null; ItemCount: 9; CurrentItemIndex: -1; IsEnabled: true; IsPassword: false; IsChecked: false; IsFullScreen: false; Scrollable: false; BeforeText: null; FromIndex: 0; ToIndex: 8; ScrollX: -1; ScrollY: -1; MaxScrollX: -1; MaxScrollY: -1; AddedCount: -1; RemovedCount: -1; ParcelableData: null ]'
p600
sS'MovementGranularity'
p601
g6
sa(dp602
S'EventTime'
p603
S'31698815'
p604
sg4
L1449659411842L
sS'recordCount'
p605
g6
sS'EventType'
p606
S'TYPE_VIEW_SCROLLED'
p607
sS'PackageName'
p608
S'com.example.myfristandroid'
p609
sS'OutBounds'
p610
S'Rect(0, 195 - 1080, 1755)'
p611
sS'Action'
p612
S'[ ClassName: android.support.v4.view.ViewPager; Text: []; ContentDescription: null; ItemCount: -1; CurrentItemIndex: -1; IsEnabled: true; IsPassword: false; IsChecked: false; IsFullScreen: false; Scrollable: false; BeforeText: null; FromIndex: -1; ToIndex: -1; ScrollX: -1; ScrollY: -1; MaxScrollX: -1; MaxScrollY: -1; AddedCount: -1; RemovedCount: -1; ParcelableData: null ]'
p613
sS'MovementGranularity'
p614
g6
sa(dp615
S'EventTime'
p616
S'31698949'
p617
sg4
L1449659411947L
sS'recordCount'
p618
g6
sS'EventType'
p619
S'TYPE_VIEW_SCROLLED'
p620
sS'PackageName'
p621
S'com.example.myfristandroid'
p622
sS'OutBounds'
p623
S'Rect(0, 195 - 1080, 1755)'
p624
sS'Action'
p625
S'[ ClassName: android.support.v4.view.ViewPager; Text: []; ContentDescription: null; ItemCount: -1; CurrentItemIndex: -1; IsEnabled: true; IsPassword: false; IsChecked: false; IsFullScreen: false; Scrollable: false; BeforeText: null; FromIndex: -1; ToIndex: -1; ScrollX: -1; ScrollY: -1; MaxScrollX: -1; MaxScrollY: -1; AddedCount: -1; RemovedCount: -1; ParcelableData: null ]'
p626
sS'MovementGranularity'
p627
g6
sa(dp628
S'EventTime'
p629
S'31699604'
p630
sg4
L1449659412576L
sS'recordCount'
p631
g527
sS'EventType'
p632
S'TYPE_VIEW_CLICKED'
p633
sS'PackageName'
p634
S'com.example.myfristandroid'
p635
sS'OutBounds'
p636
S'Rect(364, 559 - 716, 911)'
p637
sS'Action'
p638
S'[ ClassName: android.widget.RelativeLayout; Text: [\xe6\xb1\x87\xe6\xb5\x81\xe7\xae\xb1]; ContentDescription: null; ItemCount: -1; CurrentItemIndex: -1; IsEnabled: true; IsPassword: false; IsChecked: false; IsFullScreen: false; Scrollable: false; BeforeText: null; FromIndex: -1; ToIndex: -1; ScrollX: -1; ScrollY: -1; MaxScrollX: -1; MaxScrollY: -1; AddedCount: -1; RemovedCount: -1; ParcelableData: null ]'
p639
sS'MovementGranularity'
p640
g6
sa(dp641
S'EventTime'
p642
S'31699893'
p643
sg4
L1449659412866L
sS'recordCount'
p644
g6
sS'EventType'
p645
S'TYPE_WINDOW_STATE_CHANGED'
p646
sS'PackageName'
p647
S'com.example.myfristandroid'
p648
sS'OutBounds'
p649
S'Rect(0, 0 - 1080, 1920)'
p650
sS'Action'
p651
S'[ ClassName: com.example.myfristandroid.graphWebShow; Text: [SE-1800\xe7\xa7\xbb\xe5\x8a\xa8APP]; ContentDescription: null; ItemCount: -1; CurrentItemIndex: -1; IsEnabled: true; IsPassword: false; IsChecked: false; IsFullScreen: true; Scrollable: false; BeforeText: null; FromIndex: -1; ToIndex: -1; ScrollX: -1; ScrollY: -1; MaxScrollX: -1; MaxScrollY: -1; AddedCount: -1; RemovedCount: -1; ParcelableData: null ]'
p652
sS'MovementGranularity'
p653
g6
sa(dp654
S'EventTime'
p655
S'31700062'
p656
sg4
L1449659413038L
sS'recordCount'
p657
g6
sS'EventType'
p658
S'TYPE_WINDOW_CONTENT_CHANGED'
p659
sS'PackageName'
p660
S'com.example.myfristandroid'
p661
sS'OutBounds'
p662
S'Rect(0, 195 - 1080, 1920)'
p663
sS'Action'
p664
S'[ ClassName: com.android.org.chromium.content.browser.ContentViewCore; Text: []; ContentDescription: \xe7\xbd\x91\xe9\xa1\xb5\xe8\xa7\x86\xe5\x9b\xbe; ItemCount: -1; CurrentItemIndex: -1; IsEnabled: true; IsPassword: false; IsChecked: false; IsFullScreen: false; Scrollable: false; BeforeText: null; FromIndex: -1; ToIndex: -1; ScrollX: 0; ScrollY: 0; MaxScrollX: 0; MaxScrollY: 0; AddedCount: -1; RemovedCount: -1; ParcelableData: null ]'
p665
sS'MovementGranularity'
p666
g6
sa(dp667
S'EventTime'
p668
S'31705427'
p669
sg4
L1449659418401L
sS'recordCount'
p670
g6
sS'EventType'
p671
S'TYPE_WINDOW_CONTENT_CHANGED'
p672
sS'PackageName'
p673
S'com.example.myfristandroid'
p674
sS'OutBounds'
p675
S'Rect(0, 0 - 1920, 1080)'
p676
sS'Action'
p677
S'[ ClassName: android.widget.FrameLayout; Text: []; ContentDescription: null; ItemCount: -1; CurrentItemIndex: -1; IsEnabled: true; IsPassword: false; IsChecked: false; IsFullScreen: false; Scrollable: false; BeforeText: null; FromIndex: -1; ToIndex: -1; ScrollX: -1; ScrollY: -1; MaxScrollX: -1; MaxScrollY: -1; AddedCount: -1; RemovedCount: -1; ParcelableData: null ]'
p678
sS'MovementGranularity'
p679
g6
sa(dp680
S'EventTime'
p681
S'31705581'
p682
sg4
L1449659418554L
sS'recordCount'
p683
g6
sS'EventType'
p684
S'TYPE_WINDOW_CONTENT_CHANGED'
p685
sS'PackageName'
p686
S'com.example.myfristandroid'
p687
sS'OutBounds'
p688
S'Rect(0, 60 - 1920, 1080)'
p689
sS'Action'
p690
S'[ ClassName: com.android.org.chromium.content.browser.ContentViewCore; Text: []; ContentDescription: \xe7\xbd\x91\xe9\xa1\xb5\xe8\xa7\x86\xe5\x9b\xbe; ItemCount: -1; CurrentItemIndex: -1; IsEnabled: true; IsPassword: false; IsChecked: false; IsFullScreen: false; Scrollable: true; BeforeText: null; FromIndex: -1; ToIndex: -1; ScrollX: 0; ScrollY: 0; MaxScrollX: 840; MaxScrollY: 0; AddedCount: -1; RemovedCount: -1; ParcelableData: null ]'
p691
sS'MovementGranularity'
p692
g6
sa(dp693
S'EventTime'
p694
S'31705704'
p695
sg4
L1449659418708L
sS'recordCount'
p696
g6
sS'EventType'
p697
S'TYPE_WINDOW_CONTENT_CHANGED'
p698
sS'PackageName'
p699
S'com.example.myfristandroid'
p700
sS'OutBounds'
p701
S'Rect(0, 60 - 1920, 1080)'
p702
sS'Action'
p703
S'[ ClassName: com.android.org.chromium.content.browser.ContentViewCore; Text: []; ContentDescription: \xe7\xbd\x91\xe9\xa1\xb5\xe8\xa7\x86\xe5\x9b\xbe; ItemCount: -1; CurrentItemIndex: -1; IsEnabled: true; IsPassword: false; IsChecked: false; IsFullScreen: false; Scrollable: true; BeforeText: null; FromIndex: -1; ToIndex: -1; ScrollX: 0; ScrollY: 0; MaxScrollX: 840; MaxScrollY: 0; AddedCount: -1; RemovedCount: -1; ParcelableData: null ]'
p704
sS'MovementGranularity'
p705
g6
sa(dp706
S'EventTime'
p707
S'31706120'
p708
sg4
L1449659419093L
sS'recordCount'
p709
g6
sS'EventType'
p710
S'TYPE_WINDOW_CONTENT_CHANGED'
p711
sS'PackageName'
p712
S'com.example.myfristandroid'
p713
sS'OutBounds'
p714
S'Rect(0, 60 - 1920, 1080)'
p715
sS'Action'
p716
S'[ ClassName: android.view.View; Text: []; ContentDescription: null; ItemCount: 0; CurrentItemIndex: 0; IsEnabled: true; IsPassword: false; IsChecked: false; IsFullScreen: false; Scrollable: true; BeforeText: null; FromIndex: -1; ToIndex: -1; ScrollX: 0; ScrollY: 0; MaxScrollX: 0; MaxScrollY: 0; AddedCount: -1; RemovedCount: -1; ParcelableData: null ]'
p717
sS'MovementGranularity'
p718
g6
sa(dp719
S'EventTime'
p720
S'31708267'
p721
sg4
L1449659421243L
sS'recordCount'
p722
g6
sS'EventType'
p723
S'TYPE_WINDOW_CONTENT_CHANGED'
p724
sS'PackageName'
p725
S'com.example.myfristandroid'
p726
sS'OutBounds'
p727
S'Rect(1788, 1032 - 1896, 1068)'
p728
sS'Action'
p729
S'[ ClassName: android.view.View; Text: []; ContentDescription: null; ItemCount: 0; CurrentItemIndex: 0; IsEnabled: true; IsPassword: false; IsChecked: false; IsFullScreen: false; Scrollable: false; BeforeText: null; FromIndex: -1; ToIndex: -1; ScrollX: 0; ScrollY: 0; MaxScrollX: 0; MaxScrollY: 0; AddedCount: -1; RemovedCount: -1; ParcelableData: null ]'
p730
sS'MovementGranularity'
p731
g6
sa(dp732
S'EventTime'
p733
S'31710550'
p734
sg4
L1449659423523L
sS'recordCount'
p735
g6
sS'EventType'
p736
S'TYPE_WINDOW_CONTENT_CHANGED'
p737
sS'PackageName'
p738
S'com.example.myfristandroid'
p739
sS'OutBounds'
p740
S'Rect(0, 60 - 1920, 1080)'
p741
sS'Action'
p742
S'[ ClassName: android.view.View; Text: []; ContentDescription: null; ItemCount: 0; CurrentItemIndex: 0; IsEnabled: true; IsPassword: false; IsChecked: false; IsFullScreen: false; Scrollable: true; BeforeText: null; FromIndex: -1; ToIndex: -1; ScrollX: 0; ScrollY: 0; MaxScrollX: 0; MaxScrollY: 0; AddedCount: -1; RemovedCount: -1; ParcelableData: null ]'
p743
sS'MovementGranularity'
p744
g6
sa(dp745
S'EventTime'
p746
S'31710550'
p747
sg4
L1449659423537L
sS'recordCount'
p748
g6
sS'EventType'
p749
S'TYPE_VIEW_TEXT_SELECTION_CHANGED'
p750
sS'PackageName'
p751
S'com.example.myfristandroid'
p752
sS'OutBounds'
p753
S'Rect(0, 60 - 1920, 1080)'
p754
sS'Action'
p755
S'[ ClassName: android.view.View; Text: [\xe7\x94\xbb\xe9\x9d\xa2\xe6\xb5\x8f\xe8\xa7\x88]; ContentDescription: null; ItemCount: 0; CurrentItemIndex: 0; IsEnabled: true; IsPassword: false; IsChecked: false; IsFullScreen: false; Scrollable: true; BeforeText: null; FromIndex: 0; ToIndex: -1; ScrollX: 0; ScrollY: 0; MaxScrollX: 0; MaxScrollY: 0; AddedCount: 0; RemovedCount: -1; ParcelableData: null ]'
p756
sS'MovementGranularity'
p757
g6
sa(dp758
S'EventTime'
p759
S'31711272'
p760
sg4
L1449659424245L
sS'recordCount'
p761
g6
sS'EventType'
p762
S'TYPE_WINDOW_CONTENT_CHANGED'
p763
sS'PackageName'
p764
S'com.example.myfristandroid'
p765
sS'OutBounds'
p766
S'Rect(1788, 1032 - 1896, 1068)'
p767
sS'Action'
p768
S'[ ClassName: android.view.View; Text: []; ContentDescription: null; ItemCount: 0; CurrentItemIndex: 0; IsEnabled: true; IsPassword: false; IsChecked: false; IsFullScreen: false; Scrollable: false; BeforeText: null; FromIndex: -1; ToIndex: -1; ScrollX: 0; ScrollY: 0; MaxScrollX: 0; MaxScrollY: 0; AddedCount: -1; RemovedCount: -1; ParcelableData: null ]'
p769
sS'MovementGranularity'
p770
g6
sa(dp771
S'EventTime'
p772
S'31714282'
p773
sg4
L1449659427255L
sS'recordCount'
p774
g6
sS'EventType'
p775
S'TYPE_WINDOW_CONTENT_CHANGED'
p776
sS'PackageName'
p777
S'com.example.myfristandroid'
p778
sS'OutBounds'
p779
S'Rect(1788, 1032 - 1896, 1068)'
p780
sS'Action'
p781
S'[ ClassName: android.view.View; Text: []; ContentDescription: null; ItemCount: 0; CurrentItemIndex: 0; IsEnabled: true; IsPassword: false; IsChecked: false; IsFullScreen: false; Scrollable: false; BeforeText: null; FromIndex: -1; ToIndex: -1; ScrollX: 0; ScrollY: 0; MaxScrollX: 0; MaxScrollY: 0; AddedCount: -1; RemovedCount: -1; ParcelableData: null ]'
p782
sS'MovementGranularity'
p783
g6
sa(dp784
S'EventTime'
p785
S'31716220'
p786
sg4
L1449659429213L
sS'recordCount'
p787
g6
sS'EventType'
p788
S'TYPE_WINDOW_STATE_CHANGED'
p789
sS'PackageName'
p790
S'com.example.myfristandroid'
p791
sS'OutBounds'
p792
S'Rect(0, 0 - 1080, 1920)'
p793
sS'Action'
p794
S'[ ClassName: com.example.myfristandroid.MainActivity; Text: [SE-1800\xe7\xa7\xbb\xe5\x8a\xa8APP]; ContentDescription: null; ItemCount: -1; CurrentItemIndex: -1; IsEnabled: true; IsPassword: false; IsChecked: false; IsFullScreen: true; Scrollable: false; BeforeText: null; FromIndex: -1; ToIndex: -1; ScrollX: -1; ScrollY: -1; MaxScrollX: -1; MaxScrollY: -1; AddedCount: -1; RemovedCount: -1; ParcelableData: null ]'
p795
sS'MovementGranularity'
p796
g6
sa(dp797
S'EventTime'
p798
S'31716288'
p799
sg4
L1449659429271L
sS'recordCount'
p800
g6
sS'EventType'
p801
S'TYPE_WINDOW_CONTENT_CHANGED'
p802
sS'PackageName'
p803
S'com.example.myfristandroid'
p804
sS'OutBounds'
p805
S'Rect(0, 195 - 1080, 1755)'
p806
sS'Action'
p807
S'[ ClassName: android.widget.GridView; Text: []; ContentDescription: null; ItemCount: 9; CurrentItemIndex: -1; IsEnabled: true; IsPassword: false; IsChecked: false; IsFullScreen: false; Scrollable: false; BeforeText: null; FromIndex: 0; ToIndex: 8; ScrollX: -1; ScrollY: -1; MaxScrollX: -1; MaxScrollY: -1; AddedCount: -1; RemovedCount: -1; ParcelableData: null ]'
p808
sS'MovementGranularity'
p809
g6
sa(dp810
S'EventTime'
p811
S'31718074'
p812
sg4
L1449659431045L
sS'recordCount'
p813
g527
sS'EventType'
p814
S'TYPE_VIEW_CLICKED'
p815
sS'PackageName'
p816
S'com.example.myfristandroid'
p817
sS'OutBounds'
p818
S'Rect(719, 559 - 1071, 911)'
p819
sS'Action'
p820
S'[ ClassName: android.widget.RelativeLayout; Text: [\xe7\x8e\xaf\xe5\xa2\x83\xe7\x9b\x91\xe6\xb5\x8b]; ContentDescription: null; ItemCount: -1; CurrentItemIndex: -1; IsEnabled: true; IsPassword: false; IsChecked: false; IsFullScreen: false; Scrollable: false; BeforeText: null; FromIndex: -1; ToIndex: -1; ScrollX: -1; ScrollY: -1; MaxScrollX: -1; MaxScrollY: -1; AddedCount: -1; RemovedCount: -1; ParcelableData: null ]'
p821
sS'MovementGranularity'
p822
g6
sa(dp823
S'EventTime'
p824
S'31718178'
p825
sg4
L1449659431151L
sS'recordCount'
p826
g6
sS'EventType'
p827
S'TYPE_WINDOW_STATE_CHANGED'
p828
sS'PackageName'
p829
S'com.example.myfristandroid'
p830
sS'OutBounds'
p831
S'Rect(0, 0 - 1080, 1920)'
p832
sS'Action'
p833
S'[ ClassName: com.example.myfristandroid.graphWebShow; Text: [SE-1800\xe7\xa7\xbb\xe5\x8a\xa8APP]; ContentDescription: null; ItemCount: -1; CurrentItemIndex: -1; IsEnabled: true; IsPassword: false; IsChecked: false; IsFullScreen: true; Scrollable: false; BeforeText: null; FromIndex: -1; ToIndex: -1; ScrollX: -1; ScrollY: -1; MaxScrollX: -1; MaxScrollY: -1; AddedCount: -1; RemovedCount: -1; ParcelableData: null ]'
p834
sS'MovementGranularity'
p835
g6
sa(dp836
S'EventTime'
p837
S'31718244'
p838
sg4
L1449659431217L
sS'recordCount'
p839
g6
sS'EventType'
p840
S'TYPE_WINDOW_CONTENT_CHANGED'
p841
sS'PackageName'
p842
S'com.example.myfristandroid'
p843
sS'OutBounds'
p844
S'Rect(0, 195 - 1080, 1920)'
p845
sS'Action'
p846
S'[ ClassName: com.android.org.chromium.content.browser.ContentViewCore; Text: []; ContentDescription: \xe7\xbd\x91\xe9\xa1\xb5\xe8\xa7\x86\xe5\x9b\xbe; ItemCount: -1; CurrentItemIndex: -1; IsEnabled: true; IsPassword: false; IsChecked: false; IsFullScreen: false; Scrollable: false; BeforeText: null; FromIndex: -1; ToIndex: -1; ScrollX: 0; ScrollY: 0; MaxScrollX: 0; MaxScrollY: 0; AddedCount: -1; RemovedCount: -1; ParcelableData: null ]'
p847
sS'MovementGranularity'
p848
g6
sa(dp849
S'EventTime'
p850
S'31719396'
p851
sg4
L1449659432401L
sS'recordCount'
p852
g6
sS'EventType'
p853
S'TYPE_WINDOW_CONTENT_CHANGED'
p854
sS'PackageName'
p855
S'com.example.myfristandroid'
p856
sS'OutBounds'
p857
S'Rect(0, 60 - 1920, 1080)'
p858
sS'Action'
p859
S'[ ClassName: com.android.org.chromium.content.browser.ContentViewCore; Text: []; ContentDescription: \xe7\xbd\x91\xe9\xa1\xb5\xe8\xa7\x86\xe5\x9b\xbe; ItemCount: -1; CurrentItemIndex: -1; IsEnabled: true; IsPassword: false; IsChecked: false; IsFullScreen: false; Scrollable: false; BeforeText: null; FromIndex: -1; ToIndex: -1; ScrollX: 0; ScrollY: 0; MaxScrollX: 0; MaxScrollY: 0; AddedCount: -1; RemovedCount: -1; ParcelableData: null ]'
p860
sS'MovementGranularity'
p861
g6
sa(dp862
S'EventTime'
p863
S'31719567'
p864
sg4
L1449659432546L
sS'recordCount'
p865
g6
sS'EventType'
p866
S'TYPE_WINDOW_CONTENT_CHANGED'
p867
sS'PackageName'
p868
S'com.example.myfristandroid'
p869
sS'OutBounds'
p870
S'Rect(0, 60 - 1920, 1080)'
p871
sS'Action'
p872
S'[ ClassName: android.view.View; Text: []; ContentDescription: null; ItemCount: 0; CurrentItemIndex: 0; IsEnabled: true; IsPassword: false; IsChecked: false; IsFullScreen: false; Scrollable: true; BeforeText: null; FromIndex: -1; ToIndex: -1; ScrollX: 0; ScrollY: 0; MaxScrollX: 0; MaxScrollY: 0; AddedCount: -1; RemovedCount: -1; ParcelableData: null ]'
p873
sS'MovementGranularity'
p874
g6
sa(dp875
S'EventTime'
p876
S'31722322'
p877
sg4
L1449659435325L
sS'recordCount'
p878
g6
sS'EventType'
p879
S'TYPE_WINDOW_CONTENT_CHANGED'
p880
sS'PackageName'
p881
S'com.example.myfristandroid'
p882
sS'OutBounds'
p883
S'Rect(1788, 1032 - 1896, 1068)'
p884
sS'Action'
p885
S'[ ClassName: android.view.View; Text: []; ContentDescription: null; ItemCount: 0; CurrentItemIndex: 0; IsEnabled: true; IsPassword: false; IsChecked: false; IsFullScreen: false; Scrollable: false; BeforeText: null; FromIndex: -1; ToIndex: -1; ScrollX: 0; ScrollY: 0; MaxScrollX: 0; MaxScrollY: 0; AddedCount: -1; RemovedCount: -1; ParcelableData: null ]'
p886
sS'MovementGranularity'
p887
g6
sa(dp888
S'EventTime'
p889
S'31722449'
p890
sg4
L1449659435433L
sS'recordCount'
p891
g6
sS'EventType'
p892
S'TYPE_WINDOW_STATE_CHANGED'
p893
sS'PackageName'
p894
S'com.example.myfristandroid'
p895
sS'OutBounds'
p896
S'Rect(810, 420 - 1110, 720)'
p897
sS'Action'
p898
S'[ ClassName: com.example.myfristandroid.CustomProgressDialog; Text: []; ContentDescription: null; ItemCount: -1; CurrentItemIndex: -1; IsEnabled: true; IsPassword: false; IsChecked: false; IsFullScreen: false; Scrollable: false; BeforeText: null; FromIndex: -1; ToIndex: -1; ScrollX: -1; ScrollY: -1; MaxScrollX: -1; MaxScrollY: -1; AddedCount: -1; RemovedCount: -1; ParcelableData: null ]'
p899
sS'MovementGranularity'
p900
g6
sa(dp901
S'EventTime'
p902
S'31723837'
p903
sg4
L1449659436819L
sS'recordCount'
p904
g6
sS'EventType'
p905
S'TYPE_WINDOW_STATE_CHANGED'
p906
sS'PackageName'
p907
S'com.example.myfristandroid'
p908
sS'OutBounds'
p909
S'Rect(0, 0 - 1920, 1080)'
p910
sS'Action'
p911
S'[ ClassName: com.example.myfristandroid.graphWebShow; Text: [SE-1800\xe7\xa7\xbb\xe5\x8a\xa8APP]; ContentDescription: null; ItemCount: -1; CurrentItemIndex: -1; IsEnabled: true; IsPassword: false; IsChecked: false; IsFullScreen: true; Scrollable: false; BeforeText: null; FromIndex: -1; ToIndex: -1; ScrollX: -1; ScrollY: -1; MaxScrollX: -1; MaxScrollY: -1; AddedCount: -1; RemovedCount: -1; ParcelableData: null ]'
p912
sS'MovementGranularity'
p913
g6
sa(dp914
S'EventTime'
p915
S'31724088'
p916
sg4
L1449659437061L
sS'recordCount'
p917
g6
sS'EventType'
p918
S'TYPE_WINDOW_CONTENT_CHANGED'
p919
sS'PackageName'
p920
S'com.example.myfristandroid'
p921
sS'OutBounds'
p922
S'Rect(0, 60 - 1920, 1080)'
p923
sS'Action'
p924
S'[ ClassName: com.android.org.chromium.content.browser.ContentViewCore; Text: []; ContentDescription: \xe7\xbd\x91\xe9\xa1\xb5\xe8\xa7\x86\xe5\x9b\xbe; ItemCount: -1; CurrentItemIndex: -1; IsEnabled: true; IsPassword: false; IsChecked: false; IsFullScreen: false; Scrollable: false; BeforeText: null; FromIndex: -1; ToIndex: -1; ScrollX: 0; ScrollY: 0; MaxScrollX: 0; MaxScrollY: 0; AddedCount: -1; RemovedCount: -1; ParcelableData: null ]'
p925
sS'MovementGranularity'
p926
g6
sa(dp927
S'EventTime'
p928
S'31724961'
p929
sg4
L1449659437933L
sS'recordCount'
p930
g6
sS'EventType'
p931
S'TYPE_WINDOW_CONTENT_CHANGED'
p932
sS'PackageName'
p933
S'com.example.myfristandroid'
p934
sS'OutBounds'
p935
S'Rect(0, 60 - 1920, 1080)'
p936
sS'Action'
p937
S'[ ClassName: android.view.View; Text: []; ContentDescription: null; ItemCount: 0; CurrentItemIndex: 0; IsEnabled: true; IsPassword: false; IsChecked: false; IsFullScreen: false; Scrollable: true; BeforeText: null; FromIndex: -1; ToIndex: -1; ScrollX: 0; ScrollY: 0; MaxScrollX: 0; MaxScrollY: 0; AddedCount: -1; RemovedCount: -1; ParcelableData: null ]'
p938
sS'MovementGranularity'
p939
g6
sa(dp940
S'EventTime'
p941
S'31728670'
p942
sg4
L1449659441644L
sS'recordCount'
p943
g6
sS'EventType'
p944
S'TYPE_WINDOW_CONTENT_CHANGED'
p945
sS'PackageName'
p946
S'com.example.myfristandroid'
p947
sS'OutBounds'
p948
S'Rect(0, 60 - 1920, 1080)'
p949
sS'Action'
p950
S'[ ClassName: com.android.org.chromium.content.browser.ContentViewCore; Text: []; ContentDescription: \xe7\xbd\x91\xe9\xa1\xb5\xe8\xa7\x86\xe5\x9b\xbe; ItemCount: -1; CurrentItemIndex: -1; IsEnabled: true; IsPassword: false; IsChecked: false; IsFullScreen: false; Scrollable: false; BeforeText: null; FromIndex: -1; ToIndex: -1; ScrollX: 0; ScrollY: 0; MaxScrollX: 0; MaxScrollY: 0; AddedCount: -1; RemovedCount: -1; ParcelableData: null ]'
p951
sS'MovementGranularity'
p952
g6
sa(dp953
S'EventTime'
p954
S'31729617'
p955
sg4
L1449659442603L
sS'recordCount'
p956
g6
sS'EventType'
p957
S'TYPE_WINDOW_STATE_CHANGED'
p958
sS'PackageName'
p959
S'com.example.myfristandroid'
p960
sS'OutBounds'
p961
S'Rect(0, 0 - 1080, 1920)'
p962
sS'Action'
p963
S'[ ClassName: com.example.myfristandroid.MainActivity; Text: [SE-1800\xe7\xa7\xbb\xe5\x8a\xa8APP]; ContentDescription: null; ItemCount: -1; CurrentItemIndex: -1; IsEnabled: true; IsPassword: false; IsChecked: false; IsFullScreen: true; Scrollable: false; BeforeText: null; FromIndex: -1; ToIndex: -1; ScrollX: -1; ScrollY: -1; MaxScrollX: -1; MaxScrollY: -1; AddedCount: -1; RemovedCount: -1; ParcelableData: null ]'
p964
sS'MovementGranularity'
p965
g6
sa(dp966
S'EventTime'
p967
S'31729679'
p968
sg4
L1449659442667L
sS'recordCount'
p969
g6
sS'EventType'
p970
S'TYPE_WINDOW_CONTENT_CHANGED'
p971
sS'PackageName'
p972
S'com.example.myfristandroid'
p973
sS'OutBounds'
p974
S'Rect(0, 195 - 1080, 1755)'
p975
sS'Action'
p976
S'[ ClassName: android.widget.GridView; Text: []; ContentDescription: null; ItemCount: 9; CurrentItemIndex: -1; IsEnabled: true; IsPassword: false; IsChecked: false; IsFullScreen: false; Scrollable: false; BeforeText: null; FromIndex: 0; ToIndex: 8; ScrollX: -1; ScrollY: -1; MaxScrollX: -1; MaxScrollY: -1; AddedCount: -1; RemovedCount: -1; ParcelableData: null ]'
p977
sS'MovementGranularity'
p978
g6
sa(dp979
S'EventTime'
p980
S'31731057'
p981
sg4
L1449659444029L
sS'recordCount'
p982
g527
sS'EventType'
p983
S'TYPE_VIEW_CLICKED'
p984
sS'PackageName'
p985
S'com.example.myfristandroid'
p986
sS'OutBounds'
p987
S'Rect(9, 914 - 361, 1266)'
p988
sS'Action'
p989
S'[ ClassName: android.widget.RelativeLayout; Text: [\xe7\xb3\xbb\xe7\xbb\x9f\xe6\x8b\x93\xe6\x89\x91\xe5\x9b\xbe]; ContentDescription: null; ItemCount: -1; CurrentItemIndex: -1; IsEnabled: true; IsPassword: false; IsChecked: false; IsFullScreen: false; Scrollable: false; BeforeText: null; FromIndex: -1; ToIndex: -1; ScrollX: -1; ScrollY: -1; MaxScrollX: -1; MaxScrollY: -1; AddedCount: -1; RemovedCount: -1; ParcelableData: null ]'
p990
sS'MovementGranularity'
p991
g6
sa(dp992
S'EventTime'
p993
S'31731162'
p994
sg4
L1449659444135L
sS'recordCount'
p995
g6
sS'EventType'
p996
S'TYPE_WINDOW_STATE_CHANGED'
p997
sS'PackageName'
p998
S'com.example.myfristandroid'
p999
sS'OutBounds'
p1000
S'Rect(0, 0 - 1080, 1920)'
p1001
sS'Action'
p1002
S'[ ClassName: com.example.myfristandroid.graphWebShow; Text: [SE-1800\xe7\xa7\xbb\xe5\x8a\xa8APP]; ContentDescription: null; ItemCount: -1; CurrentItemIndex: -1; IsEnabled: true; IsPassword: false; IsChecked: false; IsFullScreen: true; Scrollable: false; BeforeText: null; FromIndex: -1; ToIndex: -1; ScrollX: -1; ScrollY: -1; MaxScrollX: -1; MaxScrollY: -1; AddedCount: -1; RemovedCount: -1; ParcelableData: null ]'
p1003
sS'MovementGranularity'
p1004
g6
sa(dp1005
S'EventTime'
p1006
S'31731237'
p1007
sg4
L1449659444209L
sS'recordCount'
p1008
g6
sS'EventType'
p1009
S'TYPE_WINDOW_CONTENT_CHANGED'
p1010
sS'PackageName'
p1011
S'com.example.myfristandroid'
p1012
sS'OutBounds'
p1013
S'Rect(0, 195 - 1080, 1920)'
p1014
sS'Action'
p1015
S'[ ClassName: com.android.org.chromium.content.browser.ContentViewCore; Text: []; ContentDescription: \xe7\xbd\x91\xe9\xa1\xb5\xe8\xa7\x86\xe5\x9b\xbe; ItemCount: -1; CurrentItemIndex: -1; IsEnabled: true; IsPassword: false; IsChecked: false; IsFullScreen: false; Scrollable: false; BeforeText: null; FromIndex: -1; ToIndex: -1; ScrollX: 0; ScrollY: 0; MaxScrollX: 0; MaxScrollY: 0; AddedCount: -1; RemovedCount: -1; ParcelableData: null ]'
p1016
sS'MovementGranularity'
p1017
g6
sa(dp1018
S'EventTime'
p1019
S'31732785'
p1020
sg4
L1449659445770L
sS'recordCount'
p1021
g6
sS'EventType'
p1022
S'TYPE_WINDOW_CONTENT_CHANGED'
p1023
sS'PackageName'
p1024
S'com.example.myfristandroid'
p1025
sS'OutBounds'
p1026
S'Rect(0, 60 - 1920, 1080)'
p1027
sS'Action'
p1028
S'[ ClassName: com.android.org.chromium.content.browser.ContentViewCore; Text: []; ContentDescription: \xe7\xbd\x91\xe9\xa1\xb5\xe8\xa7\x86\xe5\x9b\xbe; ItemCount: -1; CurrentItemIndex: -1; IsEnabled: true; IsPassword: false; IsChecked: false; IsFullScreen: false; Scrollable: false; BeforeText: null; FromIndex: -1; ToIndex: -1; ScrollX: 0; ScrollY: 0; MaxScrollX: 0; MaxScrollY: 0; AddedCount: -1; RemovedCount: -1; ParcelableData: null ]'
p1029
sS'MovementGranularity'
p1030
g6
sa(dp1031
S'EventTime'
p1032
S'31732897'
p1033
sg4
L1449659445870L
sS'recordCount'
p1034
g6
sS'EventType'
p1035
S'TYPE_WINDOW_CONTENT_CHANGED'
p1036
sS'PackageName'
p1037
S'com.example.myfristandroid'
p1038
sS'OutBounds'
p1039
S'Rect(0, 0 - 1920, 1080)'
p1040
sS'Action'
p1041
S'[ ClassName: android.widget.FrameLayout; Text: []; ContentDescription: null; ItemCount: -1; CurrentItemIndex: -1; IsEnabled: true; IsPassword: false; IsChecked: false; IsFullScreen: false; Scrollable: false; BeforeText: null; FromIndex: -1; ToIndex: -1; ScrollX: -1; ScrollY: -1; MaxScrollX: -1; MaxScrollY: -1; AddedCount: -1; RemovedCount: -1; ParcelableData: null ]'
p1042
sS'MovementGranularity'
p1043
g6
sa(dp1044
S'EventTime'
p1045
S'31733023'
p1046
sg4
L1449659445998L
sS'recordCount'
p1047
g6
sS'EventType'
p1048
S'TYPE_WINDOW_CONTENT_CHANGED'
p1049
sS'PackageName'
p1050
S'com.example.myfristandroid'
p1051
sS'OutBounds'
p1052
S'Rect(0, 60 - 1920, 1080)'
p1053
sS'Action'
p1054
S'[ ClassName: com.android.org.chromium.content.browser.ContentViewCore; Text: []; ContentDescription: \xe7\xbd\x91\xe9\xa1\xb5\xe8\xa7\x86\xe5\x9b\xbe; ItemCount: -1; CurrentItemIndex: -1; IsEnabled: true; IsPassword: false; IsChecked: false; IsFullScreen: false; Scrollable: true; BeforeText: null; FromIndex: -1; ToIndex: -1; ScrollX: 0; ScrollY: 0; MaxScrollX: 840; MaxScrollY: 0; AddedCount: -1; RemovedCount: -1; ParcelableData: null ]'
p1055
sS'MovementGranularity'
p1056
g6
sa(dp1057
S'EventTime'
p1058
S'31733125'
p1059
sg4
L1449659446103L
sS'recordCount'
p1060
g6
sS'EventType'
p1061
S'TYPE_WINDOW_CONTENT_CHANGED'
p1062
sS'PackageName'
p1063
S'com.example.myfristandroid'
p1064
sS'OutBounds'
p1065
S'Rect(0, 60 - 1920, 1080)'
p1066
sS'Action'
p1067
S'[ ClassName: com.android.org.chromium.content.browser.ContentViewCore; Text: []; ContentDescription: \xe7\xbd\x91\xe9\xa1\xb5\xe8\xa7\x86\xe5\x9b\xbe; ItemCount: -1; CurrentItemIndex: -1; IsEnabled: true; IsPassword: false; IsChecked: false; IsFullScreen: false; Scrollable: true; BeforeText: null; FromIndex: -1; ToIndex: -1; ScrollX: 0; ScrollY: 0; MaxScrollX: 840; MaxScrollY: 0; AddedCount: -1; RemovedCount: -1; ParcelableData: null ]'
p1068
sS'MovementGranularity'
p1069
g6
sa(dp1070
S'EventTime'
p1071
S'31733333'
p1072
sg4
L1449659446307L
sS'recordCount'
p1073
g6
sS'EventType'
p1074
S'TYPE_WINDOW_CONTENT_CHANGED'
p1075
sS'PackageName'
p1076
S'com.example.myfristandroid'
p1077
sS'OutBounds'
p1078
S'Rect(0, 60 - 1920, 1080)'
p1079
sS'Action'
p1080
S'[ ClassName: android.view.View; Text: []; ContentDescription: null; ItemCount: 0; CurrentItemIndex: 0; IsEnabled: true; IsPassword: false; IsChecked: false; IsFullScreen: false; Scrollable: true; BeforeText: null; FromIndex: -1; ToIndex: -1; ScrollX: 0; ScrollY: 0; MaxScrollX: 0; MaxScrollY: 0; AddedCount: -1; RemovedCount: -1; ParcelableData: null ]'
p1081
sS'MovementGranularity'
p1082
g6
sa(dp1083
S'EventTime'
p1084
S'31736785'
p1085
sg4
L1449659449762L
sS'recordCount'
p1086
g6
sS'EventType'
p1087
S'TYPE_WINDOW_CONTENT_CHANGED'
p1088
sS'PackageName'
p1089
S'com.example.myfristandroid'
p1090
sS'OutBounds'
p1091
S'Rect(0, 60 - 1920, 1080)'
p1092
sS'Action'
p1093
S'[ ClassName: android.view.View; Text: []; ContentDescription: null; ItemCount: 0; CurrentItemIndex: 0; IsEnabled: true; IsPassword: false; IsChecked: false; IsFullScreen: false; Scrollable: true; BeforeText: null; FromIndex: -1; ToIndex: -1; ScrollX: 0; ScrollY: 0; MaxScrollX: 0; MaxScrollY: 0; AddedCount: -1; RemovedCount: -1; ParcelableData: null ]'
p1094
sS'MovementGranularity'
p1095
g6
sa(dp1096
S'EventTime'
p1097
S'31736787'
p1098
sg4
L1449659449797L
sS'recordCount'
p1099
g6
sS'EventType'
p1100
S'TYPE_VIEW_TEXT_SELECTION_CHANGED'
p1101
sS'PackageName'
p1102
S'com.example.myfristandroid'
p1103
sS'OutBounds'
p1104
S'Rect(0, 60 - 1920, 1080)'
p1105
sS'Action'
p1106
S'[ ClassName: android.view.View; Text: [\xe7\x94\xbb\xe9\x9d\xa2\xe6\xb5\x8f\xe8\xa7\x88]; ContentDescription: null; ItemCount: 0; CurrentItemIndex: 0; IsEnabled: true; IsPassword: false; IsChecked: false; IsFullScreen: false; Scrollable: true; BeforeText: null; FromIndex: 0; ToIndex: -1; ScrollX: 0; ScrollY: 0; MaxScrollX: 0; MaxScrollY: 0; AddedCount: 0; RemovedCount: -1; ParcelableData: null ]'
p1107
sS'MovementGranularity'
p1108
g6
sa(dp1109
S'EventTime'
p1110
S'31737672'
p1111
sg4
L1449659450646L
sS'recordCount'
p1112
g6
sS'EventType'
p1113
S'TYPE_WINDOW_CONTENT_CHANGED'
p1114
sS'PackageName'
p1115
S'com.example.myfristandroid'
p1116
sS'OutBounds'
p1117
S'Rect(0, 60 - 1920, 1080)'
p1118
sS'Action'
p1119
S'[ ClassName: android.view.View; Text: []; ContentDescription: null; ItemCount: 0; CurrentItemIndex: 0; IsEnabled: true; IsPassword: false; IsChecked: false; IsFullScreen: false; Scrollable: true; BeforeText: null; FromIndex: -1; ToIndex: -1; ScrollX: 0; ScrollY: 0; MaxScrollX: 0; MaxScrollY: 0; AddedCount: -1; RemovedCount: -1; ParcelableData: null ]'
p1120
sS'MovementGranularity'
p1121
g6
sa(dp1122
S'EventTime'
p1123
S'31738588'
p1124
sg4
L1449659451561L
sS'recordCount'
p1125
g6
sS'EventType'
p1126
S'TYPE_WINDOW_CONTENT_CHANGED'
p1127
sS'PackageName'
p1128
S'com.example.myfristandroid'
p1129
sS'OutBounds'
p1130
S'Rect(0, 60 - 1920, 1080)'
p1131
sS'Action'
p1132
S'[ ClassName: android.view.View; Text: []; ContentDescription: null; ItemCount: 0; CurrentItemIndex: 0; IsEnabled: true; IsPassword: false; IsChecked: false; IsFullScreen: false; Scrollable: true; BeforeText: null; FromIndex: -1; ToIndex: -1; ScrollX: 0; ScrollY: 0; MaxScrollX: 0; MaxScrollY: 0; AddedCount: -1; RemovedCount: -1; ParcelableData: null ]'
p1133
sS'MovementGranularity'
p1134
g6
sa(dp1135
S'EventTime'
p1136
S'31739979'
p1137
sg4
L1449659452965L
sS'recordCount'
p1138
g6
sS'EventType'
p1139
S'TYPE_WINDOW_STATE_CHANGED'
p1140
sS'PackageName'
p1141
S'com.example.myfristandroid'
p1142
sS'OutBounds'
p1143
S'Rect(0, 0 - 1080, 1920)'
p1144
sS'Action'
p1145
S'[ ClassName: com.example.myfristandroid.MainActivity; Text: [SE-1800\xe7\xa7\xbb\xe5\x8a\xa8APP]; ContentDescription: null; ItemCount: -1; CurrentItemIndex: -1; IsEnabled: true; IsPassword: false; IsChecked: false; IsFullScreen: true; Scrollable: false; BeforeText: null; FromIndex: -1; ToIndex: -1; ScrollX: -1; ScrollY: -1; MaxScrollX: -1; MaxScrollY: -1; AddedCount: -1; RemovedCount: -1; ParcelableData: null ]'
p1146
sS'MovementGranularity'
p1147
g6
sa(dp1148
S'EventTime'
p1149
S'31740024'
p1150
sg4
L1449659453014L
sS'recordCount'
p1151
g6
sS'EventType'
p1152
S'TYPE_WINDOW_CONTENT_CHANGED'
p1153
sS'PackageName'
p1154
S'com.example.myfristandroid'
p1155
sS'OutBounds'
p1156
S'Rect(0, 195 - 1080, 1755)'
p1157
sS'Action'
p1158
S'[ ClassName: android.widget.GridView; Text: []; ContentDescription: null; ItemCount: 9; CurrentItemIndex: -1; IsEnabled: true; IsPassword: false; IsChecked: false; IsFullScreen: false; Scrollable: false; BeforeText: null; FromIndex: 0; ToIndex: 8; ScrollX: -1; ScrollY: -1; MaxScrollX: -1; MaxScrollY: -1; AddedCount: -1; RemovedCount: -1; ParcelableData: null ]'
p1159
sS'MovementGranularity'
p1160
g6
sa(dp1161
S'EventTime'
p1162
S'31741122'
p1163
sg4
L1449659454092L
sS'recordCount'
p1164
g527
sS'EventType'
p1165
S'TYPE_VIEW_CLICKED'
p1166
sS'PackageName'
p1167
S'com.example.myfristandroid'
p1168
sS'OutBounds'
p1169
S'Rect(364, 914 - 716, 1266)'
p1170
sS'Action'
p1171
S'[ ClassName: android.widget.RelativeLayout; Text: [\xe5\x87\x8f\xe6\x8e\x92\xe9\x87\x8f\xe4\xbf\xa1\xe6\x81\xaf]; ContentDescription: null; ItemCount: -1; CurrentItemIndex: -1; IsEnabled: true; IsPassword: false; IsChecked: false; IsFullScreen: false; Scrollable: false; BeforeText: null; FromIndex: -1; ToIndex: -1; ScrollX: -1; ScrollY: -1; MaxScrollX: -1; MaxScrollY: -1; AddedCount: -1; RemovedCount: -1; ParcelableData: null ]'
p1172
sS'MovementGranularity'
p1173
g6
sa(dp1174
S'EventTime'
p1175
S'31741233'
p1176
sg4
L1449659454206L
sS'recordCount'
p1177
g6
sS'EventType'
p1178
S'TYPE_WINDOW_STATE_CHANGED'
p1179
sS'PackageName'
p1180
S'com.example.myfristandroid'
p1181
sS'OutBounds'
p1182
S'Rect(0, 0 - 1080, 1920)'
p1183
sS'Action'
p1184
S'[ ClassName: com.example.myfristandroid.graphWebShow; Text: [SE-1800\xe7\xa7\xbb\xe5\x8a\xa8APP]; ContentDescription: null; ItemCount: -1; CurrentItemIndex: -1; IsEnabled: true; IsPassword: false; IsChecked: false; IsFullScreen: true; Scrollable: false; BeforeText: null; FromIndex: -1; ToIndex: -1; ScrollX: -1; ScrollY: -1; MaxScrollX: -1; MaxScrollY: -1; AddedCount: -1; RemovedCount: -1; ParcelableData: null ]'
p1185
sS'MovementGranularity'
p1186
g6
sa(dp1187
S'EventTime'
p1188
S'31741300'
p1189
sg4
L1449659454273L
sS'recordCount'
p1190
g6
sS'EventType'
p1191
S'TYPE_WINDOW_CONTENT_CHANGED'
p1192
sS'PackageName'
p1193
S'com.example.myfristandroid'
p1194
sS'OutBounds'
p1195
S'Rect(0, 195 - 1080, 1920)'
p1196
sS'Action'
p1197
S'[ ClassName: com.android.org.chromium.content.browser.ContentViewCore; Text: []; ContentDescription: \xe7\xbd\x91\xe9\xa1\xb5\xe8\xa7\x86\xe5\x9b\xbe; ItemCount: -1; CurrentItemIndex: -1; IsEnabled: true; IsPassword: false; IsChecked: false; IsFullScreen: false; Scrollable: false; BeforeText: null; FromIndex: -1; ToIndex: -1; ScrollX: 0; ScrollY: 0; MaxScrollX: 0; MaxScrollY: 0; AddedCount: -1; RemovedCount: -1; ParcelableData: null ]'
p1198
sS'MovementGranularity'
p1199
g6
sa(dp1200
S'EventTime'
p1201
S'31779031'
p1202
sg4
L1449659492030L
sS'recordCount'
p1203
g6
sS'EventType'
p1204
S'TYPE_WINDOW_STATE_CHANGED'
p1205
sS'PackageName'
p1206
S'com.example.myfristandroid'
p1207
sS'OutBounds'
p1208
S'Rect(0, 0 - 1080, 1920)'
p1209
sS'Action'
p1210
S'[ ClassName: com.example.myfristandroid.MainActivity; Text: [SE-1800\xe7\xa7\xbb\xe5\x8a\xa8APP]; ContentDescription: null; ItemCount: -1; CurrentItemIndex: -1; IsEnabled: true; IsPassword: false; IsChecked: false; IsFullScreen: true; Scrollable: false; BeforeText: null; FromIndex: -1; ToIndex: -1; ScrollX: -1; ScrollY: -1; MaxScrollX: -1; MaxScrollY: -1; AddedCount: -1; RemovedCount: -1; ParcelableData: null ]'
p1211
sS'MovementGranularity'
p1212
g6
sa(dp1213
S'EventTime'
p1214
S'31780134'
p1215
sg4
L1449659493105L
sS'recordCount'
p1216
g527
sS'EventType'
p1217
S'TYPE_VIEW_CLICKED'
p1218
sS'PackageName'
p1219
S'com.example.myfristandroid'
p1220
sS'OutBounds'
p1221
S'Rect(364, 914 - 716, 1266)'
p1222
sS'Action'
p1223
S'[ ClassName: android.widget.RelativeLayout; Text: [\xe5\x87\x8f\xe6\x8e\x92\xe9\x87\x8f\xe4\xbf\xa1\xe6\x81\xaf]; ContentDescription: null; ItemCount: -1; CurrentItemIndex: -1; IsEnabled: true; IsPassword: false; IsChecked: false; IsFullScreen: false; Scrollable: false; BeforeText: null; FromIndex: -1; ToIndex: -1; ScrollX: -1; ScrollY: -1; MaxScrollX: -1; MaxScrollY: -1; AddedCount: -1; RemovedCount: -1; ParcelableData: null ]'
p1224
sS'MovementGranularity'
p1225
g6
sa(dp1226
S'EventTime'
p1227
S'31780227'
p1228
sg4
L1449659493200L
sS'recordCount'
p1229
g6
sS'EventType'
p1230
S'TYPE_WINDOW_STATE_CHANGED'
p1231
sS'PackageName'
p1232
S'com.example.myfristandroid'
p1233
sS'OutBounds'
p1234
S'Rect(0, 0 - 1080, 1920)'
p1235
sS'Action'
p1236
S'[ ClassName: com.example.myfristandroid.graphWebShow; Text: [SE-1800\xe7\xa7\xbb\xe5\x8a\xa8APP]; ContentDescription: null; ItemCount: -1; CurrentItemIndex: -1; IsEnabled: true; IsPassword: false; IsChecked: false; IsFullScreen: true; Scrollable: false; BeforeText: null; FromIndex: -1; ToIndex: -1; ScrollX: -1; ScrollY: -1; MaxScrollX: -1; MaxScrollY: -1; AddedCount: -1; RemovedCount: -1; ParcelableData: null ]'
p1237
sS'MovementGranularity'
p1238
g6
sa(dp1239
S'EventTime'
p1240
S'31780287'
p1241
sg4
L1449659493259L
sS'recordCount'
p1242
g6
sS'EventType'
p1243
S'TYPE_WINDOW_CONTENT_CHANGED'
p1244
sS'PackageName'
p1245
S'com.example.myfristandroid'
p1246
sS'OutBounds'
p1247
S'Rect(0, 195 - 1080, 1920)'
p1248
sS'Action'
p1249
S'[ ClassName: com.android.org.chromium.content.browser.ContentViewCore; Text: []; ContentDescription: \xe7\xbd\x91\xe9\xa1\xb5\xe8\xa7\x86\xe5\x9b\xbe; ItemCount: -1; CurrentItemIndex: -1; IsEnabled: true; IsPassword: false; IsChecked: false; IsFullScreen: false; Scrollable: false; BeforeText: null; FromIndex: -1; ToIndex: -1; ScrollX: 0; ScrollY: 0; MaxScrollX: 0; MaxScrollY: 0; AddedCount: -1; RemovedCount: -1; ParcelableData: null ]'
p1250
sS'MovementGranularity'
p1251
g6
sa(dp1252
S'EventTime'
p1253
S'31783709'
p1254
sg4
L1449659496682L
sS'recordCount'
p1255
g6
sS'EventType'
p1256
S'TYPE_WINDOW_CONTENT_CHANGED'
p1257
sS'PackageName'
p1258
S'com.example.myfristandroid'
p1259
sS'OutBounds'
p1260
S'Rect(0, 195 - 1080, 1920)'
p1261
sS'Action'
p1262
S'[ ClassName: com.android.org.chromium.content.browser.ContentViewCore; Text: []; ContentDescription: \xe7\xbd\x91\xe9\xa1\xb5\xe8\xa7\x86\xe5\x9b\xbe; ItemCount: -1; CurrentItemIndex: -1; IsEnabled: true; IsPassword: false; IsChecked: false; IsFullScreen: false; Scrollable: false; BeforeText: null; FromIndex: -1; ToIndex: -1; ScrollX: 0; ScrollY: 0; MaxScrollX: 0; MaxScrollY: 0; AddedCount: -1; RemovedCount: -1; ParcelableData: null ]'
p1263
sS'MovementGranularity'
p1264
g6
sa(dp1265
S'EventTime'
p1266
S'31785891'
p1267
sg4
L1449659498862L
sS'recordCount'
p1268
g6
sS'EventType'
p1269
S'TYPE_WINDOW_STATE_CHANGED'
p1270
sS'PackageName'
p1271
S'com.example.myfristandroid'
p1272
sS'OutBounds'
p1273
S'Rect(0, 0 - 1080, 1920)'
p1274
sS'Action'
p1275
S'[ ClassName: com.example.myfristandroid.graphWebShow; Text: [SE-1800\xe7\xa7\xbb\xe5\x8a\xa8APP]; ContentDescription: null; ItemCount: -1; CurrentItemIndex: -1; IsEnabled: true; IsPassword: false; IsChecked: false; IsFullScreen: true; Scrollable: false; BeforeText: null; FromIndex: -1; ToIndex: -1; ScrollX: -1; ScrollY: -1; MaxScrollX: -1; MaxScrollY: -1; AddedCount: -1; RemovedCount: -1; ParcelableData: null ]'
p1276
sS'MovementGranularity'
p1277
g6
sa(dp1278
S'EventTime'
p1279
S'31799328'
p1280
sg4
L1449659512301L
sS'recordCount'
p1281
g6
sS'EventType'
p1282
S'TYPE_VIEW_CLICKED'
p1283
sS'PackageName'
p1284
S'com.example.myfristandroid'
p1285
sS'OutBounds'
p1286
S'Rect(0, 60 - 120, 195)'
p1287
sS'Action'
p1288
S'[ ClassName: android.widget.ImageButton; Text: []; ContentDescription: null; ItemCount: -1; CurrentItemIndex: -1; IsEnabled: true; IsPassword: false; IsChecked: false; IsFullScreen: false; Scrollable: false; BeforeText: null; FromIndex: -1; ToIndex: -1; ScrollX: -1; ScrollY: -1; MaxScrollX: -1; MaxScrollY: -1; AddedCount: -1; RemovedCount: -1; ParcelableData: null ]'
p1289
sS'MovementGranularity'
p1290
g6
sa(dp1291
S'EventTime'
p1292
S'31799376'
p1293
sg4
L1449659512364L
sS'recordCount'
p1294
g6
sS'EventType'
p1295
S'TYPE_WINDOW_STATE_CHANGED'
p1296
sS'PackageName'
p1297
S'com.example.myfristandroid'
p1298
sS'OutBounds'
p1299
S'Rect(0, 0 - 1080, 1920)'
p1300
sS'Action'
p1301
S'[ ClassName: com.example.myfristandroid.MainActivity; Text: [SE-1800\xe7\xa7\xbb\xe5\x8a\xa8APP]; ContentDescription: null; ItemCount: -1; CurrentItemIndex: -1; IsEnabled: true; IsPassword: false; IsChecked: false; IsFullScreen: true; Scrollable: false; BeforeText: null; FromIndex: -1; ToIndex: -1; ScrollX: -1; ScrollY: -1; MaxScrollX: -1; MaxScrollY: -1; AddedCount: -1; RemovedCount: -1; ParcelableData: null ]'
p1302
sS'MovementGranularity'
p1303
g6
sa(dp1304
S'EventTime'
p1305
S'31800534'
p1306
sg4
L1449659513505L
sS'recordCount'
p1307
g527
sS'EventType'
p1308
S'TYPE_VIEW_CLICKED'
p1309
sS'PackageName'
p1310
S'com.example.myfristandroid'
p1311
sS'OutBounds'
p1312
S'Rect(719, 914 - 1071, 1266)'
p1313
sS'Action'
p1314
S'[ ClassName: android.widget.RelativeLayout; Text: [\xe5\x85\xb6\xe4\xbb\x96\xe6\xbc\x94\xe7\xa4\xba\xe7\xb3\xbb\xe7\xbb\x9f]; ContentDescription: null; ItemCount: -1; CurrentItemIndex: -1; IsEnabled: true; IsPassword: false; IsChecked: false; IsFullScreen: false; Scrollable: false; BeforeText: null; FromIndex: -1; ToIndex: -1; ScrollX: -1; ScrollY: -1; MaxScrollX: -1; MaxScrollY: -1; AddedCount: -1; RemovedCount: -1; ParcelableData: null ]'
p1315
sS'MovementGranularity'
p1316
g6
sa(dp1317
S'EventTime'
p1318
S'31800628'
p1319
sg4
L1449659513602L
sS'recordCount'
p1320
g6
sS'EventType'
p1321
S'TYPE_WINDOW_STATE_CHANGED'
p1322
sS'PackageName'
p1323
S'com.example.myfristandroid'
p1324
sS'OutBounds'
p1325
S'Rect(0, 0 - 1080, 1920)'
p1326
sS'Action'
p1327
S'[ ClassName: com.example.myfristandroid.graphWebShow; Text: [SE-1800\xe7\xa7\xbb\xe5\x8a\xa8APP]; ContentDescription: null; ItemCount: -1; CurrentItemIndex: -1; IsEnabled: true; IsPassword: false; IsChecked: false; IsFullScreen: true; Scrollable: false; BeforeText: null; FromIndex: -1; ToIndex: -1; ScrollX: -1; ScrollY: -1; MaxScrollX: -1; MaxScrollY: -1; AddedCount: -1; RemovedCount: -1; ParcelableData: null ]'
p1328
sS'MovementGranularity'
p1329
g6
sa(dp1330
S'EventTime'
p1331
S'31800691'
p1332
sg4
L1449659513664L
sS'recordCount'
p1333
g6
sS'EventType'
p1334
S'TYPE_WINDOW_CONTENT_CHANGED'
p1335
sS'PackageName'
p1336
S'com.example.myfristandroid'
p1337
sS'OutBounds'
p1338
S'Rect(0, 195 - 1080, 1920)'
p1339
sS'Action'
p1340
S'[ ClassName: com.android.org.chromium.content.browser.ContentViewCore; Text: []; ContentDescription: \xe7\xbd\x91\xe9\xa1\xb5\xe8\xa7\x86\xe5\x9b\xbe; ItemCount: -1; CurrentItemIndex: -1; IsEnabled: true; IsPassword: false; IsChecked: false; IsFullScreen: false; Scrollable: false; BeforeText: null; FromIndex: -1; ToIndex: -1; ScrollX: 0; ScrollY: 0; MaxScrollX: 0; MaxScrollY: 0; AddedCount: -1; RemovedCount: -1; ParcelableData: null ]'
p1341
sS'MovementGranularity'
p1342
g6
sa(dp1343
S'EventTime'
p1344
S'31810551'
p1345
sg4
L1449659523544L
sS'recordCount'
p1346
g6
sS'EventType'
p1347
S'TYPE_WINDOW_STATE_CHANGED'
p1348
sS'PackageName'
p1349
S'com.example.myfristandroid'
p1350
sS'OutBounds'
p1351
S'Rect(0, 0 - 1080, 1920)'
p1352
sS'Action'
p1353
S'[ ClassName: com.example.myfristandroid.MainActivity; Text: [SE-1800\xe7\xa7\xbb\xe5\x8a\xa8APP]; ContentDescription: null; ItemCount: -1; CurrentItemIndex: -1; IsEnabled: true; IsPassword: false; IsChecked: false; IsFullScreen: true; Scrollable: false; BeforeText: null; FromIndex: -1; ToIndex: -1; ScrollX: -1; ScrollY: -1; MaxScrollX: -1; MaxScrollY: -1; AddedCount: -1; RemovedCount: -1; ParcelableData: null ]'
p1354
sS'MovementGranularity'
p1355
g6
sa(dp1356
S'EventTime'
p1357
S'31811760'
p1358
sg4
L1449659524732L
sS'recordCount'
p1359
g527
sS'EventType'
p1360
S'TYPE_VIEW_CLICKED'
p1361
sS'PackageName'
p1362
S'com.example.myfristandroid'
p1363
sS'OutBounds'
p1364
S'Rect(9, 914 - 361, 1266)'
p1365
sS'Action'
p1366
S'[ ClassName: android.widget.RelativeLayout; Text: [\xe7\xb3\xbb\xe7\xbb\x9f\xe6\x8b\x93\xe6\x89\x91\xe5\x9b\xbe]; ContentDescription: null; ItemCount: -1; CurrentItemIndex: -1; IsEnabled: true; IsPassword: false; IsChecked: false; IsFullScreen: false; Scrollable: false; BeforeText: null; FromIndex: -1; ToIndex: -1; ScrollX: -1; ScrollY: -1; MaxScrollX: -1; MaxScrollY: -1; AddedCount: -1; RemovedCount: -1; ParcelableData: null ]'
p1367
sS'MovementGranularity'
p1368
g6
sa(dp1369
S'EventTime'
p1370
S'31811860'
p1371
sg4
L1449659524835L
sS'recordCount'
p1372
g6
sS'EventType'
p1373
S'TYPE_WINDOW_STATE_CHANGED'
p1374
sS'PackageName'
p1375
S'com.example.myfristandroid'
p1376
sS'OutBounds'
p1377
S'Rect(0, 0 - 1080, 1920)'
p1378
sS'Action'
p1379
S'[ ClassName: com.example.myfristandroid.graphWebShow; Text: [SE-1800\xe7\xa7\xbb\xe5\x8a\xa8APP]; ContentDescription: null; ItemCount: -1; CurrentItemIndex: -1; IsEnabled: true; IsPassword: false; IsChecked: false; IsFullScreen: true; Scrollable: false; BeforeText: null; FromIndex: -1; ToIndex: -1; ScrollX: -1; ScrollY: -1; MaxScrollX: -1; MaxScrollY: -1; AddedCount: -1; RemovedCount: -1; ParcelableData: null ]'
p1380
sS'MovementGranularity'
p1381
g6
sa(dp1382
S'EventTime'
p1383
S'31811914'
p1384
sg4
L1449659524887L
sS'recordCount'
p1385
g6
sS'EventType'
p1386
S'TYPE_WINDOW_CONTENT_CHANGED'
p1387
sS'PackageName'
p1388
S'com.example.myfristandroid'
p1389
sS'OutBounds'
p1390
S'Rect(0, 195 - 1080, 1920)'
p1391
sS'Action'
p1392
S'[ ClassName: com.android.org.chromium.content.browser.ContentViewCore; Text: []; ContentDescription: \xe7\xbd\x91\xe9\xa1\xb5\xe8\xa7\x86\xe5\x9b\xbe; ItemCount: -1; CurrentItemIndex: -1; IsEnabled: true; IsPassword: false; IsChecked: false; IsFullScreen: false; Scrollable: false; BeforeText: null; FromIndex: -1; ToIndex: -1; ScrollX: 0; ScrollY: 0; MaxScrollX: 0; MaxScrollY: 0; AddedCount: -1; RemovedCount: -1; ParcelableData: null ]'
p1393
sS'MovementGranularity'
p1394
g6
sa(dp1395
S'EventTime'
p1396
S'31814352'
p1397
sg4
L1449659527339L
sS'recordCount'
p1398
g6
sS'EventType'
p1399
S'TYPE_WINDOW_STATE_CHANGED'
p1400
sS'PackageName'
p1401
S'com.example.myfristandroid'
p1402
sS'OutBounds'
p1403
S'Rect(0, 0 - 1080, 1920)'
p1404
sS'Action'
p1405
S'[ ClassName: com.example.myfristandroid.MainActivity; Text: [SE-1800\xe7\xa7\xbb\xe5\x8a\xa8APP]; ContentDescription: null; ItemCount: -1; CurrentItemIndex: -1; IsEnabled: true; IsPassword: false; IsChecked: false; IsFullScreen: true; Scrollable: false; BeforeText: null; FromIndex: -1; ToIndex: -1; ScrollX: -1; ScrollY: -1; MaxScrollX: -1; MaxScrollY: -1; AddedCount: -1; RemovedCount: -1; ParcelableData: null ]'
p1406
sS'MovementGranularity'
p1407
g6
sa(dp1408
S'EventTime'
p1409
S'31815484'
p1410
sg4
L1449659528457L
sS'recordCount'
p1411
g527
sS'EventType'
p1412
S'TYPE_VIEW_CLICKED'
p1413
sS'PackageName'
p1414
S'com.example.myfristandroid'
p1415
sS'OutBounds'
p1416
S'Rect(364, 559 - 716, 911)'
p1417
sS'Action'
p1418
S'[ ClassName: android.widget.RelativeLayout; Text: [\xe6\xb1\x87\xe6\xb5\x81\xe7\xae\xb1]; ContentDescription: null; ItemCount: -1; CurrentItemIndex: -1; IsEnabled: true; IsPassword: false; IsChecked: false; IsFullScreen: false; Scrollable: false; BeforeText: null; FromIndex: -1; ToIndex: -1; ScrollX: -1; ScrollY: -1; MaxScrollX: -1; MaxScrollY: -1; AddedCount: -1; RemovedCount: -1; ParcelableData: null ]'
p1419
sS'MovementGranularity'
p1420
g6
sa(dp1421
S'EventTime'
p1422
S'31815579'
p1423
sg4
L1449659528552L
sS'recordCount'
p1424
g6
sS'EventType'
p1425
S'TYPE_WINDOW_STATE_CHANGED'
p1426
sS'PackageName'
p1427
S'com.example.myfristandroid'
p1428
sS'OutBounds'
p1429
S'Rect(0, 0 - 1080, 1920)'
p1430
sS'Action'
p1431
S'[ ClassName: com.example.myfristandroid.graphWebShow; Text: [SE-1800\xe7\xa7\xbb\xe5\x8a\xa8APP]; ContentDescription: null; ItemCount: -1; CurrentItemIndex: -1; IsEnabled: true; IsPassword: false; IsChecked: false; IsFullScreen: true; Scrollable: false; BeforeText: null; FromIndex: -1; ToIndex: -1; ScrollX: -1; ScrollY: -1; MaxScrollX: -1; MaxScrollY: -1; AddedCount: -1; RemovedCount: -1; ParcelableData: null ]'
p1432
sS'MovementGranularity'
p1433
g6
sa(dp1434
S'EventTime'
p1435
S'31815639'
p1436
sg4
L1449659528612L
sS'recordCount'
p1437
g6
sS'EventType'
p1438
S'TYPE_WINDOW_CONTENT_CHANGED'
p1439
sS'PackageName'
p1440
S'com.example.myfristandroid'
p1441
sS'OutBounds'
p1442
S'Rect(0, 195 - 1080, 1920)'
p1443
sS'Action'
p1444
S'[ ClassName: com.android.org.chromium.content.browser.ContentViewCore; Text: []; ContentDescription: \xe7\xbd\x91\xe9\xa1\xb5\xe8\xa7\x86\xe5\x9b\xbe; ItemCount: -1; CurrentItemIndex: -1; IsEnabled: true; IsPassword: false; IsChecked: false; IsFullScreen: false; Scrollable: false; BeforeText: null; FromIndex: -1; ToIndex: -1; ScrollX: 0; ScrollY: 0; MaxScrollX: 0; MaxScrollY: 0; AddedCount: -1; RemovedCount: -1; ParcelableData: null ]'
p1445
sS'MovementGranularity'
p1446
g6
sa(dp1447
S'EventTime'
p1448
S'31818151'
p1449
sg4
L1449659531140L
sS'recordCount'
p1450
g6
sS'EventType'
p1451
S'TYPE_WINDOW_STATE_CHANGED'
p1452
sS'PackageName'
p1453
S'com.example.myfristandroid'
p1454
sS'OutBounds'
p1455
S'Rect(0, 0 - 1080, 1920)'
p1456
sS'Action'
p1457
S'[ ClassName: com.example.myfristandroid.MainActivity; Text: [SE-1800\xe7\xa7\xbb\xe5\x8a\xa8APP]; ContentDescription: null; ItemCount: -1; CurrentItemIndex: -1; IsEnabled: true; IsPassword: false; IsChecked: false; IsFullScreen: true; Scrollable: false; BeforeText: null; FromIndex: -1; ToIndex: -1; ScrollX: -1; ScrollY: -1; MaxScrollX: -1; MaxScrollY: -1; AddedCount: -1; RemovedCount: -1; ParcelableData: null ]'
p1458
sS'MovementGranularity'
p1459
g6
sa(dp1460
S'EventTime'
p1461
S'31829076'
p1462
sg4
L1449659542051L
sS'recordCount'
p1463
g527
sS'EventType'
p1464
S'TYPE_VIEW_CLICKED'
p1465
sS'PackageName'
p1466
S'com.example.myfristandroid'
p1467
sS'OutBounds'
p1468
S'Rect(364, 914 - 716, 1266)'
p1469
sS'Action'
p1470
S'[ ClassName: android.widget.RelativeLayout; Text: [\xe5\x87\x8f\xe6\x8e\x92\xe9\x87\x8f\xe4\xbf\xa1\xe6\x81\xaf]; ContentDescription: null; ItemCount: -1; CurrentItemIndex: -1; IsEnabled: true; IsPassword: false; IsChecked: false; IsFullScreen: false; Scrollable: false; BeforeText: null; FromIndex: -1; ToIndex: -1; ScrollX: -1; ScrollY: -1; MaxScrollX: -1; MaxScrollY: -1; AddedCount: -1; RemovedCount: -1; ParcelableData: null ]'
p1471
sS'MovementGranularity'
p1472
g6
sa(dp1473
S'EventTime'
p1474
S'31829175'
p1475
sg4
L1449659542148L
sS'recordCount'
p1476
g6
sS'EventType'
p1477
S'TYPE_WINDOW_STATE_CHANGED'
p1478
sS'PackageName'
p1479
S'com.example.myfristandroid'
p1480
sS'OutBounds'
p1481
S'Rect(0, 0 - 1080, 1920)'
p1482
sS'Action'
p1483
S'[ ClassName: com.example.myfristandroid.graphWebShow; Text: [SE-1800\xe7\xa7\xbb\xe5\x8a\xa8APP]; ContentDescription: null; ItemCount: -1; CurrentItemIndex: -1; IsEnabled: true; IsPassword: false; IsChecked: false; IsFullScreen: true; Scrollable: false; BeforeText: null; FromIndex: -1; ToIndex: -1; ScrollX: -1; ScrollY: -1; MaxScrollX: -1; MaxScrollY: -1; AddedCount: -1; RemovedCount: -1; ParcelableData: null ]'
p1484
sS'MovementGranularity'
p1485
g6
sa(dp1486
S'EventTime'
p1487
S'31829245'
p1488
sg4
L1449659542218L
sS'recordCount'
p1489
g6
sS'EventType'
p1490
S'TYPE_WINDOW_CONTENT_CHANGED'
p1491
sS'PackageName'
p1492
S'com.example.myfristandroid'
p1493
sS'OutBounds'
p1494
S'Rect(0, 195 - 1080, 1920)'
p1495
sS'Action'
p1496
S'[ ClassName: com.android.org.chromium.content.browser.ContentViewCore; Text: []; ContentDescription: \xe7\xbd\x91\xe9\xa1\xb5\xe8\xa7\x86\xe5\x9b\xbe; ItemCount: -1; CurrentItemIndex: -1; IsEnabled: true; IsPassword: false; IsChecked: false; IsFullScreen: false; Scrollable: false; BeforeText: null; FromIndex: -1; ToIndex: -1; ScrollX: 0; ScrollY: 0; MaxScrollX: 0; MaxScrollY: 0; AddedCount: -1; RemovedCount: -1; ParcelableData: null ]'
p1497
sS'MovementGranularity'
p1498
g6
sa(dp1499
S'EventTime'
p1500
S'31856167'
p1501
sg4
L1449659569154L
sS'recordCount'
p1502
g6
sS'EventType'
p1503
S'TYPE_WINDOW_STATE_CHANGED'
p1504
sS'PackageName'
p1505
S'com.example.myfristandroid'
p1506
sS'OutBounds'
p1507
S'Rect(0, 0 - 1080, 1920)'
p1508
sS'Action'
p1509
S'[ ClassName: com.example.myfristandroid.MainActivity; Text: [SE-1800\xe7\xa7\xbb\xe5\x8a\xa8APP]; ContentDescription: null; ItemCount: -1; CurrentItemIndex: -1; IsEnabled: true; IsPassword: false; IsChecked: false; IsFullScreen: true; Scrollable: false; BeforeText: null; FromIndex: -1; ToIndex: -1; ScrollX: -1; ScrollY: -1; MaxScrollX: -1; MaxScrollY: -1; AddedCount: -1; RemovedCount: -1; ParcelableData: null ]'
p1510
sS'MovementGranularity'
p1511
g6
sa(dp1512
S'EventTime'
p1513
S'31861252'
p1514
sg4
L1449659574224L
sS'recordCount'
p1515
g527
sS'EventType'
p1516
S'TYPE_VIEW_CLICKED'
p1517
sS'PackageName'
p1518
S'com.example.myfristandroid'
p1519
sS'OutBounds'
p1520
S'Rect(719, 914 - 1071, 1266)'
p1521
sS'Action'
p1522
S'[ ClassName: android.widget.RelativeLayout; Text: [\xe5\x85\xb6\xe4\xbb\x96\xe6\xbc\x94\xe7\xa4\xba\xe7\xb3\xbb\xe7\xbb\x9f]; ContentDescription: null; ItemCount: -1; CurrentItemIndex: -1; IsEnabled: true; IsPassword: false; IsChecked: false; IsFullScreen: false; Scrollable: false; BeforeText: null; FromIndex: -1; ToIndex: -1; ScrollX: -1; ScrollY: -1; MaxScrollX: -1; MaxScrollY: -1; AddedCount: -1; RemovedCount: -1; ParcelableData: null ]'
p1523
sS'MovementGranularity'
p1524
g6
sa(dp1525
S'EventTime'
p1526
S'31861343'
p1527
sg4
L1449659574315L
sS'recordCount'
p1528
g6
sS'EventType'
p1529
S'TYPE_WINDOW_STATE_CHANGED'
p1530
sS'PackageName'
p1531
S'com.example.myfristandroid'
p1532
sS'OutBounds'
p1533
S'Rect(0, 0 - 1080, 1920)'
p1534
sS'Action'
p1535
S'[ ClassName: com.example.myfristandroid.graphWebShow; Text: [SE-1800\xe7\xa7\xbb\xe5\x8a\xa8APP]; ContentDescription: null; ItemCount: -1; CurrentItemIndex: -1; IsEnabled: true; IsPassword: false; IsChecked: false; IsFullScreen: true; Scrollable: false; BeforeText: null; FromIndex: -1; ToIndex: -1; ScrollX: -1; ScrollY: -1; MaxScrollX: -1; MaxScrollY: -1; AddedCount: -1; RemovedCount: -1; ParcelableData: null ]'
p1536
sS'MovementGranularity'
p1537
g6
sa(dp1538
S'EventTime'
p1539
S'31861405'
p1540
sg4
L1449659574380L
sS'recordCount'
p1541
g6
sS'EventType'
p1542
S'TYPE_WINDOW_CONTENT_CHANGED'
p1543
sS'PackageName'
p1544
S'com.example.myfristandroid'
p1545
sS'OutBounds'
p1546
S'Rect(0, 0 - 1080, 1920)'
p1547
sS'Action'
p1548
S'[ ClassName: android.widget.FrameLayout; Text: []; ContentDescription: null; ItemCount: -1; CurrentItemIndex: -1; IsEnabled: true; IsPassword: false; IsChecked: false; IsFullScreen: false; Scrollable: false; BeforeText: null; FromIndex: -1; ToIndex: -1; ScrollX: -1; ScrollY: -1; MaxScrollX: -1; MaxScrollY: -1; AddedCount: -1; RemovedCount: -1; ParcelableData: null ]'
p1549
sS'MovementGranularity'
p1550
g6
sa(dp1551
S'EventTime'
p1552
S'31869849'
p1553
sg4
L1449659582820L
sS'recordCount'
p1554
g6
sS'EventType'
p1555
S'TYPE_WINDOW_CONTENT_CHANGED'
p1556
sS'PackageName'
p1557
S'com.example.myfristandroid'
p1558
sS'OutBounds'
p1559
S'Rect(0, 195 - 1080, 1920)'
p1560
sS'Action'
p1561
S'[ ClassName: com.android.org.chromium.content.browser.ContentViewCore; Text: []; ContentDescription: \xe7\xbd\x91\xe9\xa1\xb5\xe8\xa7\x86\xe5\x9b\xbe; ItemCount: -1; CurrentItemIndex: -1; IsEnabled: true; IsPassword: false; IsChecked: false; IsFullScreen: false; Scrollable: false; BeforeText: null; FromIndex: -1; ToIndex: -1; ScrollX: 0; ScrollY: 0; MaxScrollX: 0; MaxScrollY: 0; AddedCount: -1; RemovedCount: -1; ParcelableData: null ]'
p1562
sS'MovementGranularity'
p1563
g6
sa(dp1564
S'EventTime'
p1565
S'31870637'
p1566
sg4
L1449659583628L
sS'recordCount'
p1567
g6
sS'EventType'
p1568
S'TYPE_WINDOW_CONTENT_CHANGED'
p1569
sS'PackageName'
p1570
S'com.example.myfristandroid'
p1571
sS'OutBounds'
p1572
S'Rect(0, 60 - 1920, 1080)'
p1573
sS'Action'
p1574
S'[ ClassName: com.android.org.chromium.content.browser.ContentViewCore; Text: []; ContentDescription: \xe7\xbd\x91\xe9\xa1\xb5\xe8\xa7\x86\xe5\x9b\xbe; ItemCount: -1; CurrentItemIndex: -1; IsEnabled: true; IsPassword: false; IsChecked: false; IsFullScreen: false; Scrollable: false; BeforeText: null; FromIndex: -1; ToIndex: -1; ScrollX: 0; ScrollY: 0; MaxScrollX: 0; MaxScrollY: 0; AddedCount: -1; RemovedCount: -1; ParcelableData: null ]'
p1575
sS'MovementGranularity'
p1576
g6
sa(dp1577
S'EventTime'
p1578
S'31870756'
p1579
sg4
L1449659583729L
sS'recordCount'
p1580
g6
sS'EventType'
p1581
S'TYPE_WINDOW_CONTENT_CHANGED'
p1582
sS'PackageName'
p1583
S'com.example.myfristandroid'
p1584
sS'OutBounds'
p1585
S'Rect(0, 0 - 1920, 1080)'
p1586
sS'Action'
p1587
S'[ ClassName: android.widget.FrameLayout; Text: []; ContentDescription: null; ItemCount: -1; CurrentItemIndex: -1; IsEnabled: true; IsPassword: false; IsChecked: false; IsFullScreen: false; Scrollable: false; BeforeText: null; FromIndex: -1; ToIndex: -1; ScrollX: -1; ScrollY: -1; MaxScrollX: -1; MaxScrollY: -1; AddedCount: -1; RemovedCount: -1; ParcelableData: null ]'
p1588
sS'MovementGranularity'
p1589
g6
sa(dp1590
S'EventTime'
p1591
S'31871028'
p1592
sg4
L1449659584014L
sS'recordCount'
p1593
g6
sS'EventType'
p1594
S'TYPE_WINDOW_CONTENT_CHANGED'
p1595
sS'PackageName'
p1596
S'com.example.myfristandroid'
p1597
sS'OutBounds'
p1598
S'Rect(0, 60 - 1920, 1080)'
p1599
sS'Action'
p1600
S'[ ClassName: com.android.org.chromium.content.browser.ContentViewCore; Text: []; ContentDescription: \xe7\xbd\x91\xe9\xa1\xb5\xe8\xa7\x86\xe5\x9b\xbe; ItemCount: -1; CurrentItemIndex: -1; IsEnabled: true; IsPassword: false; IsChecked: false; IsFullScreen: false; Scrollable: true; BeforeText: null; FromIndex: -1; ToIndex: -1; ScrollX: 0; ScrollY: 0; MaxScrollX: 840; MaxScrollY: 0; AddedCount: -1; RemovedCount: -1; ParcelableData: null ]'
p1601
sS'MovementGranularity'
p1602
g6
sa(dp1603
S'EventTime'
p1604
S'31872398'
p1605
sg4
L1449659585370L
sS'recordCount'
p1606
g6
sS'EventType'
p1607
S'TYPE_WINDOW_CONTENT_CHANGED'
p1608
sS'PackageName'
p1609
S'com.example.myfristandroid'
p1610
sS'OutBounds'
p1611
S'Rect(0, 60 - 1920, 1080)'
p1612
sS'Action'
p1613
S'[ ClassName: android.view.View; Text: []; ContentDescription: null; ItemCount: 0; CurrentItemIndex: 0; IsEnabled: true; IsPassword: false; IsChecked: false; IsFullScreen: false; Scrollable: true; BeforeText: null; FromIndex: -1; ToIndex: -1; ScrollX: 0; ScrollY: 0; MaxScrollX: 0; MaxScrollY: 0; AddedCount: -1; RemovedCount: -1; ParcelableData: null ]'
p1614
sS'MovementGranularity'
p1615
g6
sa(dp1616
S'EventTime'
p1617
S'31877037'
p1618
sg4
L1449659590009L
sS'recordCount'
p1619
g6
sS'EventType'
p1620
S'TYPE_WINDOW_CONTENT_CHANGED'
p1621
sS'PackageName'
p1622
S'com.example.myfristandroid'
p1623
sS'OutBounds'
p1624
S'Rect(0, 60 - 1920, 1080)'
p1625
sS'Action'
p1626
S'[ ClassName: android.view.View; Text: []; ContentDescription: null; ItemCount: 0; CurrentItemIndex: 0; IsEnabled: true; IsPassword: false; IsChecked: false; IsFullScreen: false; Scrollable: true; BeforeText: null; FromIndex: -1; ToIndex: -1; ScrollX: 0; ScrollY: 0; MaxScrollX: 0; MaxScrollY: 0; AddedCount: -1; RemovedCount: -1; ParcelableData: null ]'
p1627
sS'MovementGranularity'
p1628
g6
sa(dp1629
S'EventTime'
p1630
S'31877997'
p1631
sg4
L1449659590969L
sS'recordCount'
p1632
g6
sS'EventType'
p1633
S'TYPE_WINDOW_CONTENT_CHANGED'
p1634
sS'PackageName'
p1635
S'com.example.myfristandroid'
p1636
sS'OutBounds'
p1637
S'Rect(0, 60 - 1920, 1080)'
p1638
sS'Action'
p1639
S'[ ClassName: android.view.View; Text: []; ContentDescription: null; ItemCount: 0; CurrentItemIndex: 0; IsEnabled: true; IsPassword: false; IsChecked: false; IsFullScreen: false; Scrollable: true; BeforeText: null; FromIndex: -1; ToIndex: -1; ScrollX: 0; ScrollY: 0; MaxScrollX: 0; MaxScrollY: 0; AddedCount: -1; RemovedCount: -1; ParcelableData: null ]'
p1640
sS'MovementGranularity'
p1641
g6
sa(dp1642
S'EventTime'
p1643
S'31878224'
p1644
sg4
L1449659591198L
sS'recordCount'
p1645
g6
sS'EventType'
p1646
S'TYPE_WINDOW_CONTENT_CHANGED'
p1647
sS'PackageName'
p1648
S'com.example.myfristandroid'
p1649
sS'OutBounds'
p1650
S'Rect(0, 60 - 1920, 1080)'
p1651
sS'Action'
p1652
S'[ ClassName: android.view.View; Text: []; ContentDescription: null; ItemCount: 0; CurrentItemIndex: 0; IsEnabled: true; IsPassword: false; IsChecked: false; IsFullScreen: false; Scrollable: true; BeforeText: null; FromIndex: -1; ToIndex: -1; ScrollX: 0; ScrollY: 0; MaxScrollX: 0; MaxScrollY: 0; AddedCount: -1; RemovedCount: -1; ParcelableData: null ]'
p1653
sS'MovementGranularity'
p1654
g6
sa(dp1655
S'EventTime'
p1656
S'31878992'
p1657
sg4
L1449659591965L
sS'recordCount'
p1658
g6
sS'EventType'
p1659
S'TYPE_WINDOW_CONTENT_CHANGED'
p1660
sS'PackageName'
p1661
S'com.example.myfristandroid'
p1662
sS'OutBounds'
p1663
S'Rect(0, 60 - 1920, 1080)'
p1664
sS'Action'
p1665
S'[ ClassName: android.view.View; Text: []; ContentDescription: null; ItemCount: 0; CurrentItemIndex: 0; IsEnabled: true; IsPassword: false; IsChecked: false; IsFullScreen: false; Scrollable: true; BeforeText: null; FromIndex: -1; ToIndex: -1; ScrollX: 0; ScrollY: 0; MaxScrollX: 0; MaxScrollY: 0; AddedCount: -1; RemovedCount: -1; ParcelableData: null ]'
p1666
sS'MovementGranularity'
p1667
g6
sa(dp1668
S'EventTime'
p1669
S'31878993'
p1670
sg4
L1449659591980L
sS'recordCount'
p1671
g6
sS'EventType'
p1672
S'TYPE_VIEW_TEXT_SELECTION_CHANGED'
p1673
sS'PackageName'
p1674
S'com.example.myfristandroid'
p1675
sS'OutBounds'
p1676
S'Rect(0, 60 - 1920, 1080)'
p1677
sS'Action'
p1678
S'[ ClassName: android.view.View; Text: [\xe7\x94\xbb\xe9\x9d\xa2\xe6\xb5\x8f\xe8\xa7\x88]; ContentDescription: null; ItemCount: 0; CurrentItemIndex: 0; IsEnabled: true; IsPassword: false; IsChecked: false; IsFullScreen: false; Scrollable: true; BeforeText: null; FromIndex: 0; ToIndex: -1; ScrollX: 0; ScrollY: 0; MaxScrollX: 0; MaxScrollY: 0; AddedCount: 0; RemovedCount: -1; ParcelableData: null ]'
p1679
sS'MovementGranularity'
p1680
g6
sa(dp1681
S'EventTime'
p1682
S'31881836'
p1683
sg4
L1449659594829L
sS'recordCount'
p1684
g6
sS'EventType'
p1685
S'TYPE_WINDOW_STATE_CHANGED'
p1686
sS'PackageName'
p1687
S'com.example.myfristandroid'
p1688
sS'OutBounds'
p1689
S'Rect(0, 0 - 1080, 1920)'
p1690
sS'Action'
p1691
S'[ ClassName: com.example.myfristandroid.MainActivity; Text: [SE-1800\xe7\xa7\xbb\xe5\x8a\xa8APP]; ContentDescription: null; ItemCount: -1; CurrentItemIndex: -1; IsEnabled: true; IsPassword: false; IsChecked: false; IsFullScreen: true; Scrollable: false; BeforeText: null; FromIndex: -1; ToIndex: -1; ScrollX: -1; ScrollY: -1; MaxScrollX: -1; MaxScrollY: -1; AddedCount: -1; RemovedCount: -1; ParcelableData: null ]'
p1692
sS'MovementGranularity'
p1693
g6
sa(dp1694
S'EventTime'
p1695
S'31881908'
p1696
sg4
L1449659594902L
sS'recordCount'
p1697
g6
sS'EventType'
p1698
S'TYPE_WINDOW_CONTENT_CHANGED'
p1699
sS'PackageName'
p1700
S'com.example.myfristandroid'
p1701
sS'OutBounds'
p1702
S'Rect(0, 195 - 1080, 1755)'
p1703
sS'Action'
p1704
S'[ ClassName: android.widget.GridView; Text: []; ContentDescription: null; ItemCount: 9; CurrentItemIndex: -1; IsEnabled: true; IsPassword: false; IsChecked: false; IsFullScreen: false; Scrollable: false; BeforeText: null; FromIndex: 0; ToIndex: 8; ScrollX: -1; ScrollY: -1; MaxScrollX: -1; MaxScrollY: -1; AddedCount: -1; RemovedCount: -1; ParcelableData: null ]'
p1705
sS'MovementGranularity'
p1706
g6
sa(dp1707
S'EventTime'
p1708
S'31884941'
p1709
sg4
L1449659597915L
sS'recordCount'
p1710
g527
sS'EventType'
p1711
S'TYPE_VIEW_CLICKED'
p1712
sS'PackageName'
p1713
S'com.example.myfristandroid'
p1714
sS'OutBounds'
p1715
S'Rect(9, 914 - 361, 1266)'
p1716
sS'Action'
p1717
S'[ ClassName: android.widget.RelativeLayout; Text: [\xe7\xb3\xbb\xe7\xbb\x9f\xe6\x8b\x93\xe6\x89\x91\xe5\x9b\xbe]; ContentDescription: null; ItemCount: -1; CurrentItemIndex: -1; IsEnabled: true; IsPassword: false; IsChecked: false; IsFullScreen: false; Scrollable: false; BeforeText: null; FromIndex: -1; ToIndex: -1; ScrollX: -1; ScrollY: -1; MaxScrollX: -1; MaxScrollY: -1; AddedCount: -1; RemovedCount: -1; ParcelableData: null ]'
p1718
sS'MovementGranularity'
p1719
g6
sa(dp1720
S'EventTime'
p1721
S'31885047'
p1722
sg4
L1449659598019L
sS'recordCount'
p1723
g6
sS'EventType'
p1724
S'TYPE_WINDOW_STATE_CHANGED'
p1725
sS'PackageName'
p1726
S'com.example.myfristandroid'
p1727
sS'OutBounds'
p1728
S'Rect(0, 0 - 1080, 1920)'
p1729
sS'Action'
p1730
S'[ ClassName: com.example.myfristandroid.graphWebShow; Text: [SE-1800\xe7\xa7\xbb\xe5\x8a\xa8APP]; ContentDescription: null; ItemCount: -1; CurrentItemIndex: -1; IsEnabled: true; IsPassword: false; IsChecked: false; IsFullScreen: true; Scrollable: false; BeforeText: null; FromIndex: -1; ToIndex: -1; ScrollX: -1; ScrollY: -1; MaxScrollX: -1; MaxScrollY: -1; AddedCount: -1; RemovedCount: -1; ParcelableData: null ]'
p1731
sS'MovementGranularity'
p1732
g6
sa(dp1733
S'EventTime'
p1734
S'31885109'
p1735
sg4
L1449659598081L
sS'recordCount'
p1736
g6
sS'EventType'
p1737
S'TYPE_WINDOW_CONTENT_CHANGED'
p1738
sS'PackageName'
p1739
S'com.example.myfristandroid'
p1740
sS'OutBounds'
p1741
S'Rect(0, 195 - 1080, 1920)'
p1742
sS'Action'
p1743
S'[ ClassName: com.android.org.chromium.content.browser.ContentViewCore; Text: []; ContentDescription: \xe7\xbd\x91\xe9\xa1\xb5\xe8\xa7\x86\xe5\x9b\xbe; ItemCount: -1; CurrentItemIndex: -1; IsEnabled: true; IsPassword: false; IsChecked: false; IsFullScreen: false; Scrollable: false; BeforeText: null; FromIndex: -1; ToIndex: -1; ScrollX: 0; ScrollY: 0; MaxScrollX: 0; MaxScrollY: 0; AddedCount: -1; RemovedCount: -1; ParcelableData: null ]'
p1744
sS'MovementGranularity'
p1745
g6
sa(dp1746
S'EventTime'
p1747
S'31886359'
p1748
sg4
L1449659599350L
sS'recordCount'
p1749
g6
sS'EventType'
p1750
S'TYPE_WINDOW_CONTENT_CHANGED'
p1751
sS'PackageName'
p1752
S'com.example.myfristandroid'
p1753
sS'OutBounds'
p1754
S'Rect(0, 60 - 1920, 1080)'
p1755
sS'Action'
p1756
S'[ ClassName: com.android.org.chromium.content.browser.ContentViewCore; Text: []; ContentDescription: \xe7\xbd\x91\xe9\xa1\xb5\xe8\xa7\x86\xe5\x9b\xbe; ItemCount: -1; CurrentItemIndex: -1; IsEnabled: true; IsPassword: false; IsChecked: false; IsFullScreen: false; Scrollable: false; BeforeText: null; FromIndex: -1; ToIndex: -1; ScrollX: 0; ScrollY: 0; MaxScrollX: 0; MaxScrollY: 0; AddedCount: -1; RemovedCount: -1; ParcelableData: null ]'
p1757
sS'MovementGranularity'
p1758
g6
sa(dp1759
S'EventTime'
p1760
S'31886478'
p1761
sg4
L1449659599452L
sS'recordCount'
p1762
g6
sS'EventType'
p1763
S'TYPE_WINDOW_CONTENT_CHANGED'
p1764
sS'PackageName'
p1765
S'com.example.myfristandroid'
p1766
sS'OutBounds'
p1767
S'Rect(0, 0 - 1920, 1080)'
p1768
sS'Action'
p1769
S'[ ClassName: android.widget.FrameLayout; Text: []; ContentDescription: null; ItemCount: -1; CurrentItemIndex: -1; IsEnabled: true; IsPassword: false; IsChecked: false; IsFullScreen: false; Scrollable: false; BeforeText: null; FromIndex: -1; ToIndex: -1; ScrollX: -1; ScrollY: -1; MaxScrollX: -1; MaxScrollY: -1; AddedCount: -1; RemovedCount: -1; ParcelableData: null ]'
p1770
sS'MovementGranularity'
p1771
g6
sa(dp1772
S'EventTime'
p1773
S'31886665'
p1774
sg4
L1449659599637L
sS'recordCount'
p1775
g6
sS'EventType'
p1776
S'TYPE_WINDOW_CONTENT_CHANGED'
p1777
sS'PackageName'
p1778
S'com.example.myfristandroid'
p1779
sS'OutBounds'
p1780
S'Rect(0, 60 - 1920, 1080)'
p1781
sS'Action'
p1782
S'[ ClassName: com.android.org.chromium.content.browser.ContentViewCore; Text: []; ContentDescription: \xe7\xbd\x91\xe9\xa1\xb5\xe8\xa7\x86\xe5\x9b\xbe; ItemCount: -1; CurrentItemIndex: -1; IsEnabled: true; IsPassword: false; IsChecked: false; IsFullScreen: false; Scrollable: true; BeforeText: null; FromIndex: -1; ToIndex: -1; ScrollX: 0; ScrollY: 0; MaxScrollX: 840; MaxScrollY: 0; AddedCount: -1; RemovedCount: -1; ParcelableData: null ]'
p1783
sS'MovementGranularity'
p1784
g6
sa(dp1785
S'EventTime'
p1786
S'31887622'
p1787
sg4
L1449659600601L
sS'recordCount'
p1788
g6
sS'EventType'
p1789
S'TYPE_WINDOW_CONTENT_CHANGED'
p1790
sS'PackageName'
p1791
S'com.example.myfristandroid'
p1792
sS'OutBounds'
p1793
S'Rect(0, 60 - 1920, 1080)'
p1794
sS'Action'
p1795
S'[ ClassName: android.view.View; Text: []; ContentDescription: null; ItemCount: 0; CurrentItemIndex: 0; IsEnabled: true; IsPassword: false; IsChecked: false; IsFullScreen: false; Scrollable: true; BeforeText: null; FromIndex: -1; ToIndex: -1; ScrollX: 0; ScrollY: 0; MaxScrollX: 0; MaxScrollY: 0; AddedCount: -1; RemovedCount: -1; ParcelableData: null ]'
p1796
sS'MovementGranularity'
p1797
g6
sa(dp1798
S'EventTime'
p1799
S'31890968'
p1800
sg4
L1449659603941L
sS'recordCount'
p1801
g6
sS'EventType'
p1802
S'TYPE_WINDOW_CONTENT_CHANGED'
p1803
sS'PackageName'
p1804
S'com.example.myfristandroid'
p1805
sS'OutBounds'
p1806
S'Rect(0, 60 - 1920, 1080)'
p1807
sS'Action'
p1808
S'[ ClassName: android.view.View; Text: []; ContentDescription: null; ItemCount: 0; CurrentItemIndex: 0; IsEnabled: true; IsPassword: false; IsChecked: false; IsFullScreen: false; Scrollable: true; BeforeText: null; FromIndex: -1; ToIndex: -1; ScrollX: 0; ScrollY: 0; MaxScrollX: 0; MaxScrollY: 0; AddedCount: -1; RemovedCount: -1; ParcelableData: null ]'
p1809
sS'MovementGranularity'
p1810
g6
sa(dp1811
S'EventTime'
p1812
S'31891862'
p1813
sg4
L1449659604853L
sS'recordCount'
p1814
g6
sS'EventType'
p1815
S'TYPE_WINDOW_CONTENT_CHANGED'
p1816
sS'PackageName'
p1817
S'com.example.myfristandroid'
p1818
sS'OutBounds'
p1819
S'Rect(1431, 1041 - 1479, 1077)'
p1820
sS'Action'
p1821
S'[ ClassName: android.view.View; Text: []; ContentDescription: null; ItemCount: 0; CurrentItemIndex: 0; IsEnabled: true; IsPassword: false; IsChecked: false; IsFullScreen: false; Scrollable: false; BeforeText: null; FromIndex: -1; ToIndex: -1; ScrollX: 0; ScrollY: 0; MaxScrollX: 0; MaxScrollY: 0; AddedCount: -1; RemovedCount: -1; ParcelableData: null ]'
p1822
sS'MovementGranularity'
p1823
g6
sa(dp1824
S'EventTime'
p1825
S'31892930'
p1826
sg4
L1449659605918L
sS'recordCount'
p1827
g6
sS'EventType'
p1828
S'TYPE_WINDOW_STATE_CHANGED'
p1829
sS'PackageName'
p1830
S'com.example.myfristandroid'
p1831
sS'OutBounds'
p1832
S'Rect(0, 0 - 1080, 1920)'
p1833
sS'Action'
p1834
S'[ ClassName: com.example.myfristandroid.MainActivity; Text: [SE-1800\xe7\xa7\xbb\xe5\x8a\xa8APP]; ContentDescription: null; ItemCount: -1; CurrentItemIndex: -1; IsEnabled: true; IsPassword: false; IsChecked: false; IsFullScreen: true; Scrollable: false; BeforeText: null; FromIndex: -1; ToIndex: -1; ScrollX: -1; ScrollY: -1; MaxScrollX: -1; MaxScrollY: -1; AddedCount: -1; RemovedCount: -1; ParcelableData: null ]'
p1835
sS'MovementGranularity'
p1836
g6
sa(dp1837
S'EventTime'
p1838
S'31893000'
p1839
sg4
L1449659605986L
sS'recordCount'
p1840
g6
sS'EventType'
p1841
S'TYPE_WINDOW_CONTENT_CHANGED'
p1842
sS'PackageName'
p1843
S'com.example.myfristandroid'
p1844
sS'OutBounds'
p1845
S'Rect(0, 195 - 1080, 1755)'
p1846
sS'Action'
p1847
S'[ ClassName: android.widget.GridView; Text: []; ContentDescription: null; ItemCount: 9; CurrentItemIndex: -1; IsEnabled: true; IsPassword: false; IsChecked: false; IsFullScreen: false; Scrollable: false; BeforeText: null; FromIndex: 0; ToIndex: 8; ScrollX: -1; ScrollY: -1; MaxScrollX: -1; MaxScrollY: -1; AddedCount: -1; RemovedCount: -1; ParcelableData: null ]'
p1848
sS'MovementGranularity'
p1849
g6
sa(dp1850
S'EventTime'
p1851
S'31894935'
p1852
sg4
L1449659607907L
sS'recordCount'
p1853
g527
sS'EventType'
p1854
S'TYPE_VIEW_CLICKED'
p1855
sS'PackageName'
p1856
S'com.example.myfristandroid'
p1857
sS'OutBounds'
p1858
S'Rect(719, 914 - 1071, 1266)'
p1859
sS'Action'
p1860
S'[ ClassName: android.widget.RelativeLayout; Text: [\xe5\x85\xb6\xe4\xbb\x96\xe6\xbc\x94\xe7\xa4\xba\xe7\xb3\xbb\xe7\xbb\x9f]; ContentDescription: null; ItemCount: -1; CurrentItemIndex: -1; IsEnabled: true; IsPassword: false; IsChecked: false; IsFullScreen: false; Scrollable: false; BeforeText: null; FromIndex: -1; ToIndex: -1; ScrollX: -1; ScrollY: -1; MaxScrollX: -1; MaxScrollY: -1; AddedCount: -1; RemovedCount: -1; ParcelableData: null ]'
p1861
sS'MovementGranularity'
p1862
g6
sa(dp1863
S'EventTime'
p1864
S'31895025'
p1865
sg4
L1449659607997L
sS'recordCount'
p1866
g6
sS'EventType'
p1867
S'TYPE_WINDOW_STATE_CHANGED'
p1868
sS'PackageName'
p1869
S'com.example.myfristandroid'
p1870
sS'OutBounds'
p1871
S'Rect(0, 0 - 1080, 1920)'
p1872
sS'Action'
p1873
S'[ ClassName: com.example.myfristandroid.graphWebShow; Text: [SE-1800\xe7\xa7\xbb\xe5\x8a\xa8APP]; ContentDescription: null; ItemCount: -1; CurrentItemIndex: -1; IsEnabled: true; IsPassword: false; IsChecked: false; IsFullScreen: true; Scrollable: false; BeforeText: null; FromIndex: -1; ToIndex: -1; ScrollX: -1; ScrollY: -1; MaxScrollX: -1; MaxScrollY: -1; AddedCount: -1; RemovedCount: -1; ParcelableData: null ]'
p1874
sS'MovementGranularity'
p1875
g6
sa(dp1876
S'EventTime'
p1877
S'31895095'
p1878
sg4
L1449659608068L
sS'recordCount'
p1879
g6
sS'EventType'
p1880
S'TYPE_WINDOW_CONTENT_CHANGED'
p1881
sS'PackageName'
p1882
S'com.example.myfristandroid'
p1883
sS'OutBounds'
p1884
S'Rect(0, 195 - 1080, 1920)'
p1885
sS'Action'
p1886
S'[ ClassName: com.android.org.chromium.content.browser.ContentViewCore; Text: []; ContentDescription: \xe7\xbd\x91\xe9\xa1\xb5\xe8\xa7\x86\xe5\x9b\xbe; ItemCount: -1; CurrentItemIndex: -1; IsEnabled: true; IsPassword: false; IsChecked: false; IsFullScreen: false; Scrollable: false; BeforeText: null; FromIndex: -1; ToIndex: -1; ScrollX: 0; ScrollY: 0; MaxScrollX: 0; MaxScrollY: 0; AddedCount: -1; RemovedCount: -1; ParcelableData: null ]'
p1887
sS'MovementGranularity'
p1888
g6
sa(dp1889
S'EventTime'
p1890
S'31896638'
p1891
sg4
L1449659609631L
sS'recordCount'
p1892
g6
sS'EventType'
p1893
S'TYPE_WINDOW_CONTENT_CHANGED'
p1894
sS'PackageName'
p1895
S'com.example.myfristandroid'
p1896
sS'OutBounds'
p1897
S'Rect(0, 60 - 1920, 1080)'
p1898
sS'Action'
p1899
S'[ ClassName: com.android.org.chromium.content.browser.ContentViewCore; Text: []; ContentDescription: \xe7\xbd\x91\xe9\xa1\xb5\xe8\xa7\x86\xe5\x9b\xbe; ItemCount: -1; CurrentItemIndex: -1; IsEnabled: true; IsPassword: false; IsChecked: false; IsFullScreen: false; Scrollable: false; BeforeText: null; FromIndex: -1; ToIndex: -1; ScrollX: 0; ScrollY: 0; MaxScrollX: 0; MaxScrollY: 0; AddedCount: -1; RemovedCount: -1; ParcelableData: null ]'
p1900
sS'MovementGranularity'
p1901
g6
sa(dp1902
S'EventTime'
p1903
S'31896759'
p1904
sg4
L1449659609733L
sS'recordCount'
p1905
g6
sS'EventType'
p1906
S'TYPE_WINDOW_CONTENT_CHANGED'
p1907
sS'PackageName'
p1908
S'com.example.myfristandroid'
p1909
sS'OutBounds'
p1910
S'Rect(0, 0 - 1920, 1080)'
p1911
sS'Action'
p1912
S'[ ClassName: android.widget.FrameLayout; Text: []; ContentDescription: null; ItemCount: -1; CurrentItemIndex: -1; IsEnabled: true; IsPassword: false; IsChecked: false; IsFullScreen: false; Scrollable: false; BeforeText: null; FromIndex: -1; ToIndex: -1; ScrollX: -1; ScrollY: -1; MaxScrollX: -1; MaxScrollY: -1; AddedCount: -1; RemovedCount: -1; ParcelableData: null ]'
p1913
sS'MovementGranularity'
p1914
g6
sa(dp1915
S'EventTime'
p1916
S'31897069'
p1917
sg4
L1449659610073L
sS'recordCount'
p1918
g6
sS'EventType'
p1919
S'TYPE_WINDOW_CONTENT_CHANGED'
p1920
sS'PackageName'
p1921
S'com.example.myfristandroid'
p1922
sS'OutBounds'
p1923
S'Rect(0, 60 - 1920, 1080)'
p1924
sS'Action'
p1925
S'[ ClassName: android.view.View; Text: []; ContentDescription: null; ItemCount: 0; CurrentItemIndex: 0; IsEnabled: true; IsPassword: false; IsChecked: false; IsFullScreen: false; Scrollable: true; BeforeText: null; FromIndex: -1; ToIndex: -1; ScrollX: 0; ScrollY: 0; MaxScrollX: 0; MaxScrollY: 0; AddedCount: -1; RemovedCount: -1; ParcelableData: null ]'
p1926
sS'MovementGranularity'
p1927
g6
sa(dp1928
S'EventTime'
p1929
S'31898791'
p1930
sg4
L1449659611762L
sS'recordCount'
p1931
g6
sS'EventType'
p1932
S'TYPE_WINDOW_CONTENT_CHANGED'
p1933
sS'PackageName'
p1934
S'com.example.myfristandroid'
p1935
sS'OutBounds'
p1936
S'Rect(0, 60 - 1920, 1080)'
p1937
sS'Action'
p1938
S'[ ClassName: android.view.View; Text: []; ContentDescription: null; ItemCount: 0; CurrentItemIndex: 0; IsEnabled: true; IsPassword: false; IsChecked: false; IsFullScreen: false; Scrollable: true; BeforeText: null; FromIndex: -1; ToIndex: -1; ScrollX: 0; ScrollY: 0; MaxScrollX: 0; MaxScrollY: 0; AddedCount: -1; RemovedCount: -1; ParcelableData: null ]'
p1939
sS'MovementGranularity'
p1940
g6
sa(dp1941
S'EventTime'
p1942
S'31899474'
p1943
sg4
L1449659612454L
sS'recordCount'
p1944
g6
sS'EventType'
p1945
S'TYPE_WINDOW_CONTENT_CHANGED'
p1946
sS'PackageName'
p1947
S'com.example.myfristandroid'
p1948
sS'OutBounds'
p1949
S'Rect(0, 60 - 1920, 1080)'
p1950
sS'Action'
p1951
S'[ ClassName: android.view.View; Text: []; ContentDescription: null; ItemCount: 0; CurrentItemIndex: 0; IsEnabled: true; IsPassword: false; IsChecked: false; IsFullScreen: false; Scrollable: true; BeforeText: null; FromIndex: -1; ToIndex: -1; ScrollX: 0; ScrollY: 0; MaxScrollX: 0; MaxScrollY: 0; AddedCount: -1; RemovedCount: -1; ParcelableData: null ]'
p1952
sS'MovementGranularity'
p1953
g6
sa(dp1954
S'EventTime'
p1955
S'31899475'
p1956
sg4
L1449659612473L
sS'recordCount'
p1957
g6
sS'EventType'
p1958
S'TYPE_VIEW_TEXT_SELECTION_CHANGED'
p1959
sS'PackageName'
p1960
S'com.example.myfristandroid'
p1961
sS'OutBounds'
p1962
S'Rect(0, 60 - 1920, 1080)'
p1963
sS'Action'
p1964
S'[ ClassName: android.view.View; Text: [\xe7\x94\xbb\xe9\x9d\xa2\xe6\xb5\x8f\xe8\xa7\x88]; ContentDescription: null; ItemCount: 0; CurrentItemIndex: 0; IsEnabled: true; IsPassword: false; IsChecked: false; IsFullScreen: false; Scrollable: true; BeforeText: null; FromIndex: 0; ToIndex: -1; ScrollX: 0; ScrollY: 0; MaxScrollX: 0; MaxScrollY: 0; AddedCount: 0; RemovedCount: -1; ParcelableData: null ]'
p1965
sS'MovementGranularity'
p1966
g6
sa(dp1967
S'EventTime'
p1968
S'31899970'
p1969
sg4
L1449659612952L
sS'recordCount'
p1970
g6
sS'EventType'
p1971
S'TYPE_WINDOW_STATE_CHANGED'
p1972
sS'PackageName'
p1973
S'com.example.myfristandroid'
p1974
sS'OutBounds'
p1975
S'Rect(810, 420 - 1110, 720)'
p1976
sS'Action'
p1977
S'[ ClassName: com.example.myfristandroid.CustomProgressDialog; Text: []; ContentDescription: null; ItemCount: -1; CurrentItemIndex: -1; IsEnabled: true; IsPassword: false; IsChecked: false; IsFullScreen: false; Scrollable: false; BeforeText: null; FromIndex: -1; ToIndex: -1; ScrollX: -1; ScrollY: -1; MaxScrollX: -1; MaxScrollY: -1; AddedCount: -1; RemovedCount: -1; ParcelableData: null ]'
p1978
sS'MovementGranularity'
p1979
g6
sa(dp1980
S'EventTime'
p1981
S'31901212'
p1982
sg4
L1449659614209L
sS'recordCount'
p1983
g6
sS'EventType'
p1984
S'TYPE_WINDOW_STATE_CHANGED'
p1985
sS'PackageName'
p1986
S'com.example.myfristandroid'
p1987
sS'OutBounds'
p1988
S'Rect(0, 0 - 1920, 1080)'
p1989
sS'Action'
p1990
S'[ ClassName: com.example.myfristandroid.graphWebShow; Text: [SE-1800\xe7\xa7\xbb\xe5\x8a\xa8APP]; ContentDescription: null; ItemCount: -1; CurrentItemIndex: -1; IsEnabled: true; IsPassword: false; IsChecked: false; IsFullScreen: true; Scrollable: false; BeforeText: null; FromIndex: -1; ToIndex: -1; ScrollX: -1; ScrollY: -1; MaxScrollX: -1; MaxScrollY: -1; AddedCount: -1; RemovedCount: -1; ParcelableData: null ]'
p1991
sS'MovementGranularity'
p1992
g6
sa(dp1993
S'EventTime'
p1994
S'31901458'
p1995
sg4
L1449659614434L
sS'recordCount'
p1996
g6
sS'EventType'
p1997
S'TYPE_WINDOW_CONTENT_CHANGED'
p1998
sS'PackageName'
p1999
S'com.example.myfristandroid'
p2000
sS'OutBounds'
p2001
S'Rect(0, 60 - 1920, 1080)'
p2002
sS'Action'
p2003
S'[ ClassName: com.android.org.chromium.content.browser.ContentViewCore; Text: []; ContentDescription: \xe7\xbd\x91\xe9\xa1\xb5\xe8\xa7\x86\xe5\x9b\xbe; ItemCount: -1; CurrentItemIndex: -1; IsEnabled: true; IsPassword: false; IsChecked: false; IsFullScreen: false; Scrollable: false; BeforeText: null; FromIndex: -1; ToIndex: -1; ScrollX: 0; ScrollY: 0; MaxScrollX: 0; MaxScrollY: 0; AddedCount: -1; RemovedCount: -1; ParcelableData: null ]'
p2004
sS'MovementGranularity'
p2005
g6
sa(dp2006
S'EventTime'
p2007
S'31901708'
p2008
sg4
L1449659614680L
sS'recordCount'
p2009
g6
sS'EventType'
p2010
S'TYPE_WINDOW_CONTENT_CHANGED'
p2011
sS'PackageName'
p2012
S'com.example.myfristandroid'
p2013
sS'OutBounds'
p2014
S'Rect(0, 60 - 1920, 1080)'
p2015
sS'Action'
p2016
S'[ ClassName: android.view.View; Text: []; ContentDescription: null; ItemCount: 0; CurrentItemIndex: 0; IsEnabled: true; IsPassword: false; IsChecked: false; IsFullScreen: false; Scrollable: true; BeforeText: null; FromIndex: -1; ToIndex: -1; ScrollX: 0; ScrollY: 0; MaxScrollX: 0; MaxScrollY: 0; AddedCount: -1; RemovedCount: -1; ParcelableData: null ]'
p2017
sS'MovementGranularity'
p2018
g6
sa(dp2019
S'EventTime'
p2020
S'31905142'
p2021
sg4
L1449659618133L
sS'recordCount'
p2022
g6
sS'EventType'
p2023
S'TYPE_WINDOW_CONTENT_CHANGED'
p2024
sS'PackageName'
p2025
S'com.example.myfristandroid'
p2026
sS'OutBounds'
p2027
S'Rect(390, 684 - 447, 729)'
p2028
sS'Action'
p2029
S'[ ClassName: android.view.View; Text: []; ContentDescription: null; ItemCount: 0; CurrentItemIndex: 0; IsEnabled: true; IsPassword: false; IsChecked: false; IsFullScreen: false; Scrollable: false; BeforeText: null; FromIndex: -1; ToIndex: -1; ScrollX: 0; ScrollY: 0; MaxScrollX: 0; MaxScrollY: 0; AddedCount: -1; RemovedCount: -1; ParcelableData: null ]'
p2030
sS'MovementGranularity'
p2031
g6
sa(dp2032
S'EventTime'
p2033
S'31905686'
p2034
sg4
L1449659618679L
sS'recordCount'
p2035
g6
sS'EventType'
p2036
S'TYPE_WINDOW_STATE_CHANGED'
p2037
sS'PackageName'
p2038
S'com.example.myfristandroid'
p2039
sS'OutBounds'
p2040
S'Rect(810, 420 - 1110, 720)'
p2041
sS'Action'
p2042
S'[ ClassName: com.example.myfristandroid.CustomProgressDialog; Text: []; ContentDescription: null; ItemCount: -1; CurrentItemIndex: -1; IsEnabled: true; IsPassword: false; IsChecked: false; IsFullScreen: false; Scrollable: false; BeforeText: null; FromIndex: -1; ToIndex: -1; ScrollX: -1; ScrollY: -1; MaxScrollX: -1; MaxScrollY: -1; AddedCount: -1; RemovedCount: -1; ParcelableData: null ]'
p2043
sS'MovementGranularity'
p2044
g6
sa(dp2045
S'EventTime'
p2046
S'31907340'
p2047
sg4
L1449659620320L
sS'recordCount'
p2048
g6
sS'EventType'
p2049
S'TYPE_WINDOW_STATE_CHANGED'
p2050
sS'PackageName'
p2051
S'com.example.myfristandroid'
p2052
sS'OutBounds'
p2053
S'Rect(0, 0 - 1920, 1080)'
p2054
sS'Action'
p2055
S'[ ClassName: com.example.myfristandroid.graphWebShow; Text: [SE-1800\xe7\xa7\xbb\xe5\x8a\xa8APP]; ContentDescription: null; ItemCount: -1; CurrentItemIndex: -1; IsEnabled: true; IsPassword: false; IsChecked: false; IsFullScreen: true; Scrollable: false; BeforeText: null; FromIndex: -1; ToIndex: -1; ScrollX: -1; ScrollY: -1; MaxScrollX: -1; MaxScrollY: -1; AddedCount: -1; RemovedCount: -1; ParcelableData: null ]'
p2056
sS'MovementGranularity'
p2057
g6
sa(dp2058
S'EventTime'
p2059
S'31907658'
p2060
sg4
L1449659620637L
sS'recordCount'
p2061
g6
sS'EventType'
p2062
S'TYPE_WINDOW_CONTENT_CHANGED'
p2063
sS'PackageName'
p2064
S'com.example.myfristandroid'
p2065
sS'OutBounds'
p2066
S'Rect(0, 60 - 1920, 1080)'
p2067
sS'Action'
p2068
S'[ ClassName: android.view.View; Text: []; ContentDescription: null; ItemCount: 0; CurrentItemIndex: 0; IsEnabled: true; IsPassword: false; IsChecked: false; IsFullScreen: false; Scrollable: true; BeforeText: null; FromIndex: -1; ToIndex: -1; ScrollX: 0; ScrollY: 0; MaxScrollX: 0; MaxScrollY: 0; AddedCount: -1; RemovedCount: -1; ParcelableData: null ]'
p2069
sS'MovementGranularity'
p2070
g6
sa(dp2071
S'EventTime'
p2072
S'31909328'
p2073
sg4
L1449659622299L
sS'recordCount'
p2074
g6
sS'EventType'
p2075
S'TYPE_WINDOW_CONTENT_CHANGED'
p2076
sS'PackageName'
p2077
S'com.example.myfristandroid'
p2078
sS'OutBounds'
p2079
S'Rect(0, 60 - 1920, 1080)'
p2080
sS'Action'
p2081
S'[ ClassName: android.view.View; Text: []; ContentDescription: null; ItemCount: 0; CurrentItemIndex: 0; IsEnabled: true; IsPassword: false; IsChecked: false; IsFullScreen: false; Scrollable: true; BeforeText: null; FromIndex: -1; ToIndex: -1; ScrollX: 0; ScrollY: 0; MaxScrollX: 0; MaxScrollY: 0; AddedCount: -1; RemovedCount: -1; ParcelableData: null ]'
p2082
sS'MovementGranularity'
p2083
g6
sa(dp2084
S'EventTime'
p2085
S'31911855'
p2086
sg4
L1449659624839L
sS'recordCount'
p2087
g6
sS'EventType'
p2088
S'TYPE_WINDOW_STATE_CHANGED'
p2089
sS'PackageName'
p2090
S'com.example.myfristandroid'
p2091
sS'OutBounds'
p2092
S'Rect(810, 420 - 1110, 720)'
p2093
sS'Action'
p2094
S'[ ClassName: com.example.myfristandroid.CustomProgressDialog; Text: []; ContentDescription: null; ItemCount: -1; CurrentItemIndex: -1; IsEnabled: true; IsPassword: false; IsChecked: false; IsFullScreen: false; Scrollable: false; BeforeText: null; FromIndex: -1; ToIndex: -1; ScrollX: -1; ScrollY: -1; MaxScrollX: -1; MaxScrollY: -1; AddedCount: -1; RemovedCount: -1; ParcelableData: null ]'
p2095
sS'MovementGranularity'
p2096
g6
sa(dp2097
S'EventTime'
p2098
S'31912848'
p2099
sg4
L1449659625821L
sS'recordCount'
p2100
g6
sS'EventType'
p2101
S'TYPE_WINDOW_STATE_CHANGED'
p2102
sS'PackageName'
p2103
S'com.example.myfristandroid'
p2104
sS'OutBounds'
p2105
S'Rect(0, 0 - 1920, 1080)'
p2106
sS'Action'
p2107
S'[ ClassName: com.example.myfristandroid.graphWebShow; Text: [SE-1800\xe7\xa7\xbb\xe5\x8a\xa8APP]; ContentDescription: null; ItemCount: -1; CurrentItemIndex: -1; IsEnabled: true; IsPassword: false; IsChecked: false; IsFullScreen: true; Scrollable: false; BeforeText: null; FromIndex: -1; ToIndex: -1; ScrollX: -1; ScrollY: -1; MaxScrollX: -1; MaxScrollY: -1; AddedCount: -1; RemovedCount: -1; ParcelableData: null ]'
p2108
sS'MovementGranularity'
p2109
g6
sa(dp2110
S'EventTime'
p2111
S'31912930'
p2112
sg4
L1449659625909L
sS'recordCount'
p2113
g6
sS'EventType'
p2114
S'TYPE_WINDOW_CONTENT_CHANGED'
p2115
sS'PackageName'
p2116
S'com.example.myfristandroid'
p2117
sS'OutBounds'
p2118
S'Rect(0, 60 - 1920, 1080)'
p2119
sS'Action'
p2120
S'[ ClassName: com.android.org.chromium.content.browser.ContentViewCore; Text: []; ContentDescription: \xe7\xbd\x91\xe9\xa1\xb5\xe8\xa7\x86\xe5\x9b\xbe; ItemCount: -1; CurrentItemIndex: -1; IsEnabled: true; IsPassword: false; IsChecked: false; IsFullScreen: false; Scrollable: false; BeforeText: null; FromIndex: -1; ToIndex: -1; ScrollX: 0; ScrollY: 0; MaxScrollX: 0; MaxScrollY: 0; AddedCount: -1; RemovedCount: -1; ParcelableData: null ]'
p2121
sS'MovementGranularity'
p2122
g6
sa(dp2123
S'EventTime'
p2124
S'31913060'
p2125
sg4
L1449659626033L
sS'recordCount'
p2126
g6
sS'EventType'
p2127
S'TYPE_WINDOW_CONTENT_CHANGED'
p2128
sS'PackageName'
p2129
S'com.example.myfristandroid'
p2130
sS'OutBounds'
p2131
S'Rect(0, 60 - 1920, 1080)'
p2132
sS'Action'
p2133
S'[ ClassName: com.android.org.chromium.content.browser.ContentViewCore; Text: []; ContentDescription: \xe7\xbd\x91\xe9\xa1\xb5\xe8\xa7\x86\xe5\x9b\xbe; ItemCount: -1; CurrentItemIndex: -1; IsEnabled: true; IsPassword: false; IsChecked: false; IsFullScreen: false; Scrollable: false; BeforeText: null; FromIndex: -1; ToIndex: -1; ScrollX: 0; ScrollY: 0; MaxScrollX: 0; MaxScrollY: 0; AddedCount: -1; RemovedCount: -1; ParcelableData: null ]'
p2134
sS'MovementGranularity'
p2135
g6
sa(dp2136
S'EventTime'
p2137
S'31915153'
p2138
sg4
L1449659628123L
sS'recordCount'
p2139
g6
sS'EventType'
p2140
S'TYPE_WINDOW_CONTENT_CHANGED'
p2141
sS'PackageName'
p2142
S'com.example.myfristandroid'
p2143
sS'OutBounds'
p2144
S'Rect(0, 60 - 1920, 1080)'
p2145
sS'Action'
p2146
S'[ ClassName: android.view.View; Text: []; ContentDescription: null; ItemCount: 0; CurrentItemIndex: 0; IsEnabled: true; IsPassword: false; IsChecked: false; IsFullScreen: false; Scrollable: true; BeforeText: null; FromIndex: -1; ToIndex: -1; ScrollX: 0; ScrollY: 0; MaxScrollX: 0; MaxScrollY: 0; AddedCount: -1; RemovedCount: -1; ParcelableData: null ]'
p2147
sS'MovementGranularity'
p2148
g6
sa(dp2149
S'EventTime'
p2150
S'31917090'
p2151
sg4
L1449659630070L
sS'recordCount'
p2152
g6
sS'EventType'
p2153
S'TYPE_WINDOW_STATE_CHANGED'
p2154
sS'PackageName'
p2155
S'com.example.myfristandroid'
p2156
sS'OutBounds'
p2157
S'Rect(810, 420 - 1110, 720)'
p2158
sS'Action'
p2159
S'[ ClassName: com.example.myfristandroid.CustomProgressDialog; Text: []; ContentDescription: null; ItemCount: -1; CurrentItemIndex: -1; IsEnabled: true; IsPassword: false; IsChecked: false; IsFullScreen: false; Scrollable: false; BeforeText: null; FromIndex: -1; ToIndex: -1; ScrollX: -1; ScrollY: -1; MaxScrollX: -1; MaxScrollY: -1; AddedCount: -1; RemovedCount: -1; ParcelableData: null ]'
p2160
sS'MovementGranularity'
p2161
g6
sa(dp2162
S'EventTime'
p2163
S'31918821'
p2164
sg4
L1449659631794L
sS'recordCount'
p2165
g6
sS'EventType'
p2166
S'TYPE_WINDOW_STATE_CHANGED'
p2167
sS'PackageName'
p2168
S'com.example.myfristandroid'
p2169
sS'OutBounds'
p2170
S'Rect(0, 0 - 1920, 1080)'
p2171
sS'Action'
p2172
S'[ ClassName: com.example.myfristandroid.graphWebShow; Text: [SE-1800\xe7\xa7\xbb\xe5\x8a\xa8APP]; ContentDescription: null; ItemCount: -1; CurrentItemIndex: -1; IsEnabled: true; IsPassword: false; IsChecked: false; IsFullScreen: true; Scrollable: false; BeforeText: null; FromIndex: -1; ToIndex: -1; ScrollX: -1; ScrollY: -1; MaxScrollX: -1; MaxScrollY: -1; AddedCount: -1; RemovedCount: -1; ParcelableData: null ]'
p2173
sS'MovementGranularity'
p2174
g6
sa(dp2175
S'EventTime'
p2176
S'31919053'
p2177
sg4
L1449659632040L
sS'recordCount'
p2178
g6
sS'EventType'
p2179
S'TYPE_WINDOW_CONTENT_CHANGED'
p2180
sS'PackageName'
p2181
S'com.example.myfristandroid'
p2182
sS'OutBounds'
p2183
S'Rect(0, 60 - 1920, 1080)'
p2184
sS'Action'
p2185
S'[ ClassName: android.view.View; Text: []; ContentDescription: null; ItemCount: 0; CurrentItemIndex: 0; IsEnabled: true; IsPassword: false; IsChecked: false; IsFullScreen: false; Scrollable: true; BeforeText: null; FromIndex: -1; ToIndex: -1; ScrollX: 0; ScrollY: 0; MaxScrollX: 0; MaxScrollY: 0; AddedCount: -1; RemovedCount: -1; ParcelableData: null ]'
p2186
sS'MovementGranularity'
p2187
g6
sa(dp2188
S'EventTime'
p2189
S'31920403'
p2190
sg4
L1449659633377L
sS'recordCount'
p2191
g6
sS'EventType'
p2192
S'TYPE_WINDOW_CONTENT_CHANGED'
p2193
sS'PackageName'
p2194
S'com.example.myfristandroid'
p2195
sS'OutBounds'
p2196
S'Rect(0, 60 - 1920, 1080)'
p2197
sS'Action'
p2198
S'[ ClassName: android.view.View; Text: []; ContentDescription: null; ItemCount: 0; CurrentItemIndex: 0; IsEnabled: true; IsPassword: false; IsChecked: false; IsFullScreen: false; Scrollable: true; BeforeText: null; FromIndex: -1; ToIndex: -1; ScrollX: 0; ScrollY: 0; MaxScrollX: 0; MaxScrollY: 0; AddedCount: -1; RemovedCount: -1; ParcelableData: null ]'
p2199
sS'MovementGranularity'
p2200
g6
sa(dp2201
S'EventTime'
p2202
S'31922100'
p2203
sg4
L1449659635074L
sS'recordCount'
p2204
g6
sS'EventType'
p2205
S'TYPE_WINDOW_CONTENT_CHANGED'
p2206
sS'PackageName'
p2207
S'com.example.myfristandroid'
p2208
sS'OutBounds'
p2209
S'Rect(0, 60 - 1920, 1080)'
p2210
sS'Action'
p2211
S'[ ClassName: android.view.View; Text: []; ContentDescription: null; ItemCount: 0; CurrentItemIndex: 0; IsEnabled: true; IsPassword: false; IsChecked: false; IsFullScreen: false; Scrollable: true; BeforeText: null; FromIndex: -1; ToIndex: -1; ScrollX: 0; ScrollY: 0; MaxScrollX: 0; MaxScrollY: 0; AddedCount: -1; RemovedCount: -1; ParcelableData: null ]'
p2212
sS'MovementGranularity'
p2213
g6
sa(dp2214
S'EventTime'
p2215
S'31922101'
p2216
sg4
L1449659635093L
sS'recordCount'
p2217
g6
sS'EventType'
p2218
S'TYPE_VIEW_TEXT_SELECTION_CHANGED'
p2219
sS'PackageName'
p2220
S'com.example.myfristandroid'
p2221
sS'OutBounds'
p2222
S'Rect(0, 60 - 1920, 1080)'
p2223
sS'Action'
p2224
S'[ ClassName: android.view.View; Text: [\xe7\x94\xbb\xe9\x9d\xa2\xe6\xb5\x8f\xe8\xa7\x88]; ContentDescription: null; ItemCount: 0; CurrentItemIndex: 0; IsEnabled: true; IsPassword: false; IsChecked: false; IsFullScreen: false; Scrollable: true; BeforeText: null; FromIndex: 0; ToIndex: -1; ScrollX: 0; ScrollY: 0; MaxScrollX: 0; MaxScrollY: 0; AddedCount: 0; RemovedCount: -1; ParcelableData: null ]'
p2225
sS'MovementGranularity'
p2226
g6
sa(dp2227
S'EventTime'
p2228
S'31922961'
p2229
sg4
L1449659635938L
sS'recordCount'
p2230
g6
sS'EventType'
p2231
S'TYPE_WINDOW_STATE_CHANGED'
p2232
sS'PackageName'
p2233
S'com.example.myfristandroid'
p2234
sS'OutBounds'
p2235
S'Rect(810, 420 - 1110, 720)'
p2236
sS'Action'
p2237
S'[ ClassName: com.example.myfristandroid.CustomProgressDialog; Text: []; ContentDescription: null; ItemCount: -1; CurrentItemIndex: -1; IsEnabled: true; IsPassword: false; IsChecked: false; IsFullScreen: false; Scrollable: false; BeforeText: null; FromIndex: -1; ToIndex: -1; ScrollX: -1; ScrollY: -1; MaxScrollX: -1; MaxScrollY: -1; AddedCount: -1; RemovedCount: -1; ParcelableData: null ]'
p2238
sS'MovementGranularity'
p2239
g6
sa(dp2240
S'EventTime'
p2241
S'31924057'
p2242
sg4
L1449659637031L
sS'recordCount'
p2243
g6
sS'EventType'
p2244
S'TYPE_WINDOW_STATE_CHANGED'
p2245
sS'PackageName'
p2246
S'com.example.myfristandroid'
p2247
sS'OutBounds'
p2248
S'Rect(0, 0 - 1920, 1080)'
p2249
sS'Action'
p2250
S'[ ClassName: com.example.myfristandroid.graphWebShow; Text: [SE-1800\xe7\xa7\xbb\xe5\x8a\xa8APP]; ContentDescription: null; ItemCount: -1; CurrentItemIndex: -1; IsEnabled: true; IsPassword: false; IsChecked: false; IsFullScreen: true; Scrollable: false; BeforeText: null; FromIndex: -1; ToIndex: -1; ScrollX: -1; ScrollY: -1; MaxScrollX: -1; MaxScrollY: -1; AddedCount: -1; RemovedCount: -1; ParcelableData: null ]'
p2251
sS'MovementGranularity'
p2252
g6
sa(dp2253
S'EventTime'
p2254
S'31924174'
p2255
sg4
L1449659637146L
sS'recordCount'
p2256
g6
sS'EventType'
p2257
S'TYPE_WINDOW_CONTENT_CHANGED'
p2258
sS'PackageName'
p2259
S'com.example.myfristandroid'
p2260
sS'OutBounds'
p2261
S'Rect(0, 60 - 1920, 1080)'
p2262
sS'Action'
p2263
S'[ ClassName: com.android.org.chromium.content.browser.ContentViewCore; Text: []; ContentDescription: \xe7\xbd\x91\xe9\xa1\xb5\xe8\xa7\x86\xe5\x9b\xbe; ItemCount: -1; CurrentItemIndex: -1; IsEnabled: true; IsPassword: false; IsChecked: false; IsFullScreen: false; Scrollable: false; BeforeText: null; FromIndex: -1; ToIndex: -1; ScrollX: 0; ScrollY: 0; MaxScrollX: 0; MaxScrollY: 0; AddedCount: -1; RemovedCount: -1; ParcelableData: null ]'
p2264
sS'MovementGranularity'
p2265
g6
sa(dp2266
S'EventTime'
p2267
S'31927586'
p2268
sg4
L1449659640561L
sS'recordCount'
p2269
g6
sS'EventType'
p2270
S'TYPE_WINDOW_CONTENT_CHANGED'
p2271
sS'PackageName'
p2272
S'com.example.myfristandroid'
p2273
sS'Action'
p2274
S'[ ClassName: android.view.View; Text: []; ContentDescription: null; ItemCount: 0; CurrentItemIndex: 0; IsEnabled: true; IsPassword: false; IsChecked: false; IsFullScreen: false; Scrollable: true; BeforeText: null; FromIndex: -1; ToIndex: -1; ScrollX: 0; ScrollY: 0; MaxScrollX: 0; MaxScrollY: 0; AddedCount: -1; RemovedCount: -1; ParcelableData: null ]'
p2275
sS'MovementGranularity'
p2276
g6
sa(dp2277
S'EventTime'
p2278
S'31927665'
p2279
sg4
L1449659640654L
sS'recordCount'
p2280
g6
sS'EventType'
p2281
S'TYPE_WINDOW_STATE_CHANGED'
p2282
sS'PackageName'
p2283
S'com.example.myfristandroid'
p2284
sS'OutBounds'
p2285
S'Rect(810, 420 - 1110, 720)'
p2286
sS'Action'
p2287
S'[ ClassName: com.example.myfristandroid.CustomProgressDialog; Text: []; ContentDescription: null; ItemCount: -1; CurrentItemIndex: -1; IsEnabled: true; IsPassword: false; IsChecked: false; IsFullScreen: false; Scrollable: false; BeforeText: null; FromIndex: -1; ToIndex: -1; ScrollX: -1; ScrollY: -1; MaxScrollX: -1; MaxScrollY: -1; AddedCount: -1; RemovedCount: -1; ParcelableData: null ]'
p2288
sS'MovementGranularity'
p2289
g6
sa(dp2290
S'EventTime'
p2291
S'31928836'
p2292
sg4
L1449659641815L
sS'recordCount'
p2293
g6
sS'EventType'
p2294
S'TYPE_WINDOW_STATE_CHANGED'
p2295
sS'PackageName'
p2296
S'com.example.myfristandroid'
p2297
sS'OutBounds'
p2298
S'Rect(0, 0 - 1920, 1080)'
p2299
sS'Action'
p2300
S'[ ClassName: com.example.myfristandroid.graphWebShow; Text: [SE-1800\xe7\xa7\xbb\xe5\x8a\xa8APP]; ContentDescription: null; ItemCount: -1; CurrentItemIndex: -1; IsEnabled: true; IsPassword: false; IsChecked: false; IsFullScreen: true; Scrollable: false; BeforeText: null; FromIndex: -1; ToIndex: -1; ScrollX: -1; ScrollY: -1; MaxScrollX: -1; MaxScrollY: -1; AddedCount: -1; RemovedCount: -1; ParcelableData: null ]'
p2301
sS'MovementGranularity'
p2302
g6
sa(dp2303
S'EventTime'
p2304
S'31929025'
p2305
sg4
L1449659641998L
sS'recordCount'
p2306
g6
sS'EventType'
p2307
S'TYPE_WINDOW_CONTENT_CHANGED'
p2308
sS'PackageName'
p2309
S'com.example.myfristandroid'
p2310
sS'OutBounds'
p2311
S'Rect(0, 60 - 1920, 1080)'
p2312
sS'Action'
p2313
S'[ ClassName: com.android.org.chromium.content.browser.ContentViewCore; Text: []; ContentDescription: \xe7\xbd\x91\xe9\xa1\xb5\xe8\xa7\x86\xe5\x9b\xbe; ItemCount: -1; CurrentItemIndex: -1; IsEnabled: true; IsPassword: false; IsChecked: false; IsFullScreen: false; Scrollable: false; BeforeText: null; FromIndex: -1; ToIndex: -1; ScrollX: 0; ScrollY: 0; MaxScrollX: 0; MaxScrollY: 0; AddedCount: -1; RemovedCount: -1; ParcelableData: null ]'
p2314
sS'MovementGranularity'
p2315
g6
sa(dp2316
S'EventTime'
p2317
S'31929363'
p2318
sg4
L1449659642338L
sS'recordCount'
p2319
g6
sS'EventType'
p2320
S'TYPE_WINDOW_CONTENT_CHANGED'
p2321
sS'PackageName'
p2322
S'com.example.myfristandroid'
p2323
sS'OutBounds'
p2324
S'Rect(0, 60 - 1920, 1080)'
p2325
sS'Action'
p2326
S'[ ClassName: android.view.View; Text: []; ContentDescription: null; ItemCount: 0; CurrentItemIndex: 0; IsEnabled: true; IsPassword: false; IsChecked: false; IsFullScreen: false; Scrollable: true; BeforeText: null; FromIndex: -1; ToIndex: -1; ScrollX: 0; ScrollY: 0; MaxScrollX: 0; MaxScrollY: 0; AddedCount: -1; RemovedCount: -1; ParcelableData: null ]'
p2327
sS'MovementGranularity'
p2328
g6
sa(dp2329
S'EventTime'
p2330
S'31932842'
p2331
sg4
L1449659645834L
sS'recordCount'
p2332
g6
sS'EventType'
p2333
S'TYPE_WINDOW_CONTENT_CHANGED'
p2334
sS'PackageName'
p2335
S'com.example.myfristandroid'
p2336
sS'OutBounds'
p2337
S'Rect(393, 609 - 471, 651)'
p2338
sS'Action'
p2339
S'[ ClassName: android.view.View; Text: []; ContentDescription: null; ItemCount: 0; CurrentItemIndex: 0; IsEnabled: true; IsPassword: false; IsChecked: false; IsFullScreen: false; Scrollable: false; BeforeText: null; FromIndex: -1; ToIndex: -1; ScrollX: 0; ScrollY: 0; MaxScrollX: 0; MaxScrollY: 0; AddedCount: -1; RemovedCount: -1; ParcelableData: null ]'
p2340
sS'MovementGranularity'
p2341
g6
sa(dp2342
S'EventTime'
p2343
S'31938190'
p2344
sg4
L1449659651161L
sS'recordCount'
p2345
g6
sS'EventType'
p2346
S'TYPE_WINDOW_CONTENT_CHANGED'
p2347
sS'PackageName'
p2348
S'com.example.myfristandroid'
p2349
sS'OutBounds'
p2350
S'Rect(0, 60 - 1920, 1080)'
p2351
sS'Action'
p2352
S'[ ClassName: com.android.org.chromium.content.browser.ContentViewCore; Text: []; ContentDescription: \xe7\xbd\x91\xe9\xa1\xb5\xe8\xa7\x86\xe5\x9b\xbe; ItemCount: -1; CurrentItemIndex: -1; IsEnabled: true; IsPassword: false; IsChecked: false; IsFullScreen: false; Scrollable: false; BeforeText: null; FromIndex: -1; ToIndex: -1; ScrollX: 0; ScrollY: 0; MaxScrollX: 0; MaxScrollY: 0; AddedCount: -1; RemovedCount: -1; ParcelableData: null ]'
p2353
sS'MovementGranularity'
p2354
g6
sa(dp2355
S'EventTime'
p2356
S'31938807'
p2357
sg4
L1449659651781L
sS'recordCount'
p2358
g6
sS'EventType'
p2359
S'TYPE_WINDOW_CONTENT_CHANGED'
p2360
sS'PackageName'
p2361
S'com.example.myfristandroid'
p2362
sS'OutBounds'
p2363
S'Rect(0, 60 - 1920, 1080)'
p2364
sS'Action'
p2365
S'[ ClassName: com.android.org.chromium.content.browser.ContentViewCore; Text: []; ContentDescription: \xe7\xbd\x91\xe9\xa1\xb5\xe8\xa7\x86\xe5\x9b\xbe; ItemCount: -1; CurrentItemIndex: -1; IsEnabled: true; IsPassword: false; IsChecked: false; IsFullScreen: false; Scrollable: false; BeforeText: null; FromIndex: -1; ToIndex: -1; ScrollX: 0; ScrollY: 0; MaxScrollX: 0; MaxScrollY: 0; AddedCount: -1; RemovedCount: -1; ParcelableData: null ]'
p2366
sS'MovementGranularity'
p2367
g6
sa(dp2368
S'EventTime'
p2369
S'31939541'
p2370
sg4
L1449659652515L
sS'recordCount'
p2371
g6
sS'EventType'
p2372
S'TYPE_WINDOW_CONTENT_CHANGED'
p2373
sS'PackageName'
p2374
S'com.example.myfristandroid'
p2375
sS'OutBounds'
p2376
S'Rect(0, 60 - 1920, 1080)'
p2377
sS'Action'
p2378
S'[ ClassName: com.android.org.chromium.content.browser.ContentViewCore; Text: []; ContentDescription: \xe7\xbd\x91\xe9\xa1\xb5\xe8\xa7\x86\xe5\x9b\xbe; ItemCount: -1; CurrentItemIndex: -1; IsEnabled: true; IsPassword: false; IsChecked: false; IsFullScreen: false; Scrollable: false; BeforeText: null; FromIndex: -1; ToIndex: -1; ScrollX: 0; ScrollY: 0; MaxScrollX: 0; MaxScrollY: 0; AddedCount: -1; RemovedCount: -1; ParcelableData: null ]'
p2379
sS'MovementGranularity'
p2380
g6
sa(dp2381
S'EventTime'
p2382
S'31939789'
p2383
sg4
L1449659652762L
sS'recordCount'
p2384
g6
sS'EventType'
p2385
S'TYPE_WINDOW_CONTENT_CHANGED'
p2386
sS'PackageName'
p2387
S'com.example.myfristandroid'
p2388
sS'OutBounds'
p2389
S'Rect(0, 60 - 1920, 1080)'
p2390
sS'Action'
p2391
S'[ ClassName: android.view.View; Text: []; ContentDescription: null; ItemCount: 0; CurrentItemIndex: 0; IsEnabled: true; IsPassword: false; IsChecked: false; IsFullScreen: false; Scrollable: true; BeforeText: null; FromIndex: -1; ToIndex: -1; ScrollX: 0; ScrollY: 0; MaxScrollX: 0; MaxScrollY: 0; AddedCount: -1; RemovedCount: -1; ParcelableData: null ]'
p2392
sS'MovementGranularity'
p2393
g6
sa(dp2394
S'EventTime'
p2395
S'31942926'
p2396
sg4
L1449659655897L
sS'recordCount'
p2397
g6
sS'EventType'
p2398
S'TYPE_WINDOW_CONTENT_CHANGED'
p2399
sS'PackageName'
p2400
S'com.example.myfristandroid'
p2401
sS'OutBounds'
p2402
S'Rect(0, 60 - 1920, 1080)'
p2403
sS'Action'
p2404
S'[ ClassName: com.android.org.chromium.content.browser.ContentViewCore; Text: []; ContentDescription: \xe7\xbd\x91\xe9\xa1\xb5\xe8\xa7\x86\xe5\x9b\xbe; ItemCount: -1; CurrentItemIndex: -1; IsEnabled: true; IsPassword: false; IsChecked: false; IsFullScreen: false; Scrollable: false; BeforeText: null; FromIndex: -1; ToIndex: -1; ScrollX: 0; ScrollY: 0; MaxScrollX: 0; MaxScrollY: 0; AddedCount: -1; RemovedCount: -1; ParcelableData: null ]'
p2405
sS'MovementGranularity'
p2406
g6
sa(dp2407
S'EventTime'
p2408
S'31943057'
p2409
sg4
L1449659656029L
sS'recordCount'
p2410
g6
sS'EventType'
p2411
S'TYPE_WINDOW_CONTENT_CHANGED'
p2412
sS'PackageName'
p2413
S'com.example.myfristandroid'
p2414
sS'OutBounds'
p2415
S'Rect(0, 60 - 1920, 1080)'
p2416
sS'Action'
p2417
S'[ ClassName: com.android.org.chromium.content.browser.ContentViewCore; Text: []; ContentDescription: \xe7\xbd\x91\xe9\xa1\xb5\xe8\xa7\x86\xe5\x9b\xbe; ItemCount: -1; CurrentItemIndex: -1; IsEnabled: true; IsPassword: false; IsChecked: false; IsFullScreen: false; Scrollable: false; BeforeText: null; FromIndex: -1; ToIndex: -1; ScrollX: 0; ScrollY: 0; MaxScrollX: 0; MaxScrollY: 0; AddedCount: -1; RemovedCount: -1; ParcelableData: null ]'
p2418
sS'MovementGranularity'
p2419
g6
sa(dp2420
S'EventTime'
p2421
S'31943673'
p2422
sg4
L1449659656645L
sS'recordCount'
p2423
g6
sS'EventType'
p2424
S'TYPE_WINDOW_CONTENT_CHANGED'
p2425
sS'PackageName'
p2426
S'com.example.myfristandroid'
p2427
sS'OutBounds'
p2428
S'Rect(0, 60 - 1920, 1080)'
p2429
sS'Action'
p2430
S'[ ClassName: com.android.org.chromium.content.browser.ContentViewCore; Text: []; ContentDescription: \xe7\xbd\x91\xe9\xa1\xb5\xe8\xa7\x86\xe5\x9b\xbe; ItemCount: -1; CurrentItemIndex: -1; IsEnabled: true; IsPassword: false; IsChecked: false; IsFullScreen: false; Scrollable: false; BeforeText: null; FromIndex: -1; ToIndex: -1; ScrollX: 0; ScrollY: 0; MaxScrollX: 0; MaxScrollY: 0; AddedCount: -1; RemovedCount: -1; ParcelableData: null ]'
p2431
sS'MovementGranularity'
p2432
g6
sa(dp2433
S'EventTime'
p2434
S'31944062'
p2435
sg4
L1449659657048L
sS'recordCount'
p2436
g6
sS'EventType'
p2437
S'TYPE_WINDOW_STATE_CHANGED'
p2438
sS'PackageName'
p2439
S'com.example.myfristandroid'
p2440
sS'OutBounds'
p2441
S'Rect(0, 0 - 1080, 1920)'
p2442
sS'Action'
p2443
S'[ ClassName: com.example.myfristandroid.MainActivity; Text: [SE-1800\xe7\xa7\xbb\xe5\x8a\xa8APP]; ContentDescription: null; ItemCount: -1; CurrentItemIndex: -1; IsEnabled: true; IsPassword: false; IsChecked: false; IsFullScreen: true; Scrollable: false; BeforeText: null; FromIndex: -1; ToIndex: -1; ScrollX: -1; ScrollY: -1; MaxScrollX: -1; MaxScrollY: -1; AddedCount: -1; RemovedCount: -1; ParcelableData: null ]'
p2444
sS'MovementGranularity'
p2445
g6
sa(dp2446
S'EventTime'
p2447
S'31944114'
p2448
sg4
L1449659657098L
sS'recordCount'
p2449
g6
sS'EventType'
p2450
S'TYPE_WINDOW_CONTENT_CHANGED'
p2451
sS'PackageName'
p2452
S'com.example.myfristandroid'
p2453
sS'OutBounds'
p2454
S'Rect(0, 195 - 1080, 1755)'
p2455
sS'Action'
p2456
S'[ ClassName: android.widget.GridView; Text: []; ContentDescription: null; ItemCount: 9; CurrentItemIndex: -1; IsEnabled: true; IsPassword: false; IsChecked: false; IsFullScreen: false; Scrollable: false; BeforeText: null; FromIndex: 0; ToIndex: 8; ScrollX: -1; ScrollY: -1; MaxScrollX: -1; MaxScrollY: -1; AddedCount: -1; RemovedCount: -1; ParcelableData: null ]'
p2457
sS'MovementGranularity'
p2458
g6
sa.