(lp0
(dp1
S'processID'
p2
S'20795'
p3
sS'SyscTime'
p4
L1449732378859L
sS'priority'
p5
S'D'
p6
sS'tag'
p7
S'PullToRefresh'
p8
sS'threadID'
p9
S'20795'
p10
sS'message'
p11
S'isLastItemVisible. Last Item Position: 12 Last Visible Pos: 5\n'
p12
sa(dp13
g2
S'20795'
p14
sg4
L1449732378879L
sg5
g6
sg7
S'PullToRefresh'
p15
sg9
S'20795'
p16
sg11
S'isLastItemVisible. Last Item Position: 12 Last Visible Pos: 5\n'
p17
sa(dp18
g2
S'20795'
p19
sg4
L1449732378889L
sg5
g6
sg7
S'PullToRefresh'
p20
sg9
S'20795'
p21
sg11
S'isLastItemVisible. Last Item Position: 12 Last Visible Pos: 5\n'
p22
sa(dp23
g2
S'20795'
p24
sg4
L1449732378959L
sg5
S'V'
p25
sg7
S'Activity'
p26
sg9
S'20795'
p27
sg11
S'onPause com.xdf.ucan.ui.material.MaterialListActivity@41c78de0\n'
p28
sa(dp29
g2
S'20795'
p30
sg4
L1449732378989L
sg5
g25
sg7
S'Activity'
p31
sg9
S'20795'
p32
sg11
S'onCreate com.xdf.ucan.ui.material.MaterialActivity@41c9ad70: null\n'
p33
sa(dp34
g2
S'20795'
p35
sg4
L1449732379069L
sg5
g6
sg7
S'dalvikvm'
p36
sg9
S'20795'
p37
sg11
S'GC_FOR_ALLOC freed 4316K, 45% free 14594K/26183K, paused 43ms, total 44ms\n'
p38
sa(dp39
g2
S'20795'
p40
sg4
L1449732379079L
sg5
S'I'
p41
sg7
S'dalvikvm-heap'
p42
sg9
S'20795'
p43
sg11
S'Grow heap (frag case) to 20.161MB for 3686416-byte allocation\n'
p44
sa(dp45
g2
S'20795'
p46
sg4
L1449732379119L
sg5
g6
sg7
S'dalvikvm'
p47
sg9
S'20797'
p48
sg11
S'GC_CONCURRENT freed 15K, 31% free 18179K/26183K, paused 12ms+5ms, total 46ms\n'
p49
sa(dp50
g2
S'20795'
p51
sg4
L1449732379319L
sg5
g6
sg7
S'dalvikvm'
p52
sg9
S'20797'
p53
sg11
S'GC_CONCURRENT freed 1K, 23% free 20207K/26183K, paused 13ms+5ms, total 64ms\n'
p54
sa(dp55
g2
S'20795'
p56
sg4
L1449732379319L
sg5
g6
sg7
S'dalvikvm'
p57
sg9
S'20795'
p58
sg11
S'WAIT_FOR_CONCURRENT_GC blocked 18ms\n'
p59
sa(dp60
g2
S'20795'
p61
sg4
L1449732379399L
sg5
g6
sg7
S'dalvikvm'
p62
sg9
S'20797'
p63
sg11
S'GC_CONCURRENT freed 4431K, 32% free 17821K/26183K, paused 3ms+4ms, total 37ms\n'
p64
sa(dp65
g2
S'20795'
p66
sg4
L1449732379399L
sg5
g6
sg7
S'dalvikvm'
p67
sg9
S'20795'
p68
sg11
S'WAIT_FOR_CONCURRENT_GC blocked 29ms\n'
p69
sa(dp70
g2
S'20795'
p71
sg4
L1449732379429L
sg5
g6
sg7
S'long    '
p72
sg9
S'20795'
p73
sg11
S'className:\xe9\xab\x98\xe4\xb8\xad\xe7\x89\xa9\xe7\x90\x86\n'
p74
sa(dp75
g2
S'20795'
p76
sg4
L1449732379449L
sg5
g41
sg7
S'Environment'
p77
sg9
S'20795'
p78
sg11
S'GetExternalStorageDirectory info:ApplicationInfo{4235cd68 com.xdf.ucan},packagename:com.xdf.ucan,UID:0\n'
p79
sa(dp80
g2
S'20795'
p81
sg4
L1449732379449L
sg5
g6
sg7
S'Environment'
p82
sg9
S'20795'
p83
sg11
S'Enviroment getExternalStorageState :/mnt/sdcard\n'
p84
sa(dp85
g2
S'20795'
p86
sg4
L1449732379449L
sg5
g41
sg7
S'Environment'
p87
sg9
S'20795'
p88
sg11
S'GetExternalStorageDirectory info:ApplicationInfo{4231d708 com.xdf.ucan},packagename:com.xdf.ucan,UID:0\n'
p89
sa(dp90
g2
S'20795'
p91
sg4
L1449732379479L
sg5
g6
sg7
S'long    '
p92
sg9
S'20795'
p93
sg11
S'prestr\xef\xbc\x9aappid=5004&method=AddSubScriberFileViewHistory&subfileid=949&userid=xdf004483206&usertype=5&AppKey=v5key_my$cj_cnQcm\n'
p94
sa(dp95
g2
S'20795'
p96
sg4
L1449732379479L
sg5
g6
sg7
S'http    '
p97
sg9
S'20795'
p98
sg11
S'\xe8\xaf\xb7\xe6\xb1\x82\xe7\x9a\x84\xe5\x9c\xb0\xe5\x9d\x80\xef\xbc\x9ahttp://upoc.xdf.cn/Subscrib\n'
p99
sa(dp100
g2
S'20795'
p101
sg4
L1449732379479L
sg5
g6
sg7
S'http    '
p102
sg9
S'20795'
p103
sg11
S'\xe8\xaf\xb7\xe6\xb1\x82\xe7\x9a\x84\xe5\x8f\x82\xe6\x95\xb0\xef\xbc\x9amethod=AddSubScriberFileViewHistory&appid=5004&userid=xdf004483206&usertype=5&subfileid=949&sign=11C12FF346888EE54F2AF688066CACA9\n'
p104
sa(dp105
g2
S'20795'
p106
sg4
L1449732379479L
sg5
g6
sg7
S'long    '
p107
sg9
S'20795'
p108
sg11
S'context.getClass().getName():com.xdf.ucan.ui.material.MaterialActivity\n'
p109
sa(dp110
g2
S'20795'
p111
sg4
L1449732379479L
sg5
g25
sg7
S'Activity'
p112
sg9
S'20795'
p113
sg11
S'onStart com.xdf.ucan.ui.material.MaterialActivity@41c9ad70\n'
p114
sa(dp115
g2
S'20795'
p116
sg4
L1449732379479L
sg5
g25
sg7
S'Activity'
p117
sg9
S'20795'
p118
sg11
S'onResume com.xdf.ucan.ui.material.MaterialActivity@41c9ad70\n'
p119
sa(dp120
g2
S'20795'
p121
sg4
L1449732379559L
sg5
g25
sg7
S'Activity'
p122
sg9
S'20795'
p123
sg11
S'onPause com.xdf.ucan.ui.material.MaterialActivity@41c9ad70\n'
p124
sa(dp125
g2
S'20795'
p126
sg4
L1449732379709L
sg5
g25
sg7
S'AsyncHttpRH'
p127
sg9
S'20795'
p128
sg11
S'Progress 70 from 70 (100%)\n'
p129
sa(dp130
g2
S'20795'
p131
sg4
L1449732379709L
sg5
g6
sg7
S'http    '
p132
sg9
S'20795'
p133
sg11
S'\xe8\xbf\x94\xe5\x9b\x9e\xe7\x9a\x84\xe7\xbb\x93\xe6\x9e\x9c\xef\xbc\x9a{\n  "State": 1,\n  "Data": true,\n  "Error": "",\n  "DataCount": 1\n'
p134
sa(dp135
g2
S'20795'
p136
sg4
L1449732379979L
sg5
g25
sg7
S'Activity'
p137
sg9
S'20795'
p138
sg11
S'onStop com.xdf.ucan.ui.material.MaterialListActivity@41c78de0\n'
p139
sa(dp140
g2
S'20795'
p141
sg4
L1449732379989L
sg5
g25
sg7
S'Activity'
p142
sg9
S'20795'
p143
sg11
S'onStop com.xdf.ucan.ui.material.MaterialActivity@41c9ad70\n'
p144
sa(dp145
g2
S'20795'
p146
sg4
L1449732381109L
sg5
g25
sg7
S'Activity'
p147
sg9
S'20795'
p148
sg11
S'onStart com.xdf.ucan.ui.material.MaterialActivity@41c9ad70\n'
p149
sa(dp150
g2
S'20795'
p151
sg4
L1449732381109L
sg5
g25
sg7
S'Activity'
p152
sg9
S'20795'
p153
sg11
S'onResume com.xdf.ucan.ui.material.MaterialActivity@41c9ad70\n'
p154
sa(dp155
g2
S'20795'
p156
sg4
L1449732388829L
sg5
g25
sg7
S'AudioManager'
p157
sg9
S'20795'
p158
sg11
S'AudioManager ctor mUseMasterVolume:false\n'
p159
sa(dp160
g2
S'20795'
p161
sg4
L1449732388839L
sg5
g41
sg7
S'Environment'
p162
sg9
S'20795'
p163
sg11
S'GetExternalStorageDirectory info:ApplicationInfo{4232e8b0 com.xdf.ucan},packagename:com.xdf.ucan,UID:0\n'
p164
sa(dp165
g2
S'20795'
p166
sg4
L1449732388839L
sg5
g6
sg7
S'Environment'
p167
sg9
S'20795'
p168
sg11
S'Enviroment getExternalStorageState :/mnt/sdcard\n'
p169
sa(dp170
g2
S'20795'
p171
sg4
L1449732388849L
sg5
g41
sg7
S'Environment'
p172
sg9
S'20795'
p173
sg11
S'GetExternalStorageDirectory info:ApplicationInfo{41e445a8 com.xdf.ucan},packagename:com.xdf.ucan,UID:0\n'
p174
sa(dp175
g2
S'20795'
p176
sg4
L1449732388889L
sg5
g41
sg7
S'Environment'
p177
sg9
S'20795'
p178
sg11
S'GetExternalStorageDirectory info:ApplicationInfo{41e63a70 com.xdf.ucan},packagename:com.xdf.ucan,UID:0\n'
p179
sa(dp180
g2
S'20795'
p181
sg4
L1449732388889L
sg5
g6
sg7
S'Environment'
p182
sg9
S'20795'
p183
sg11
S'Enviroment getExternalStorageState :/mnt/sdcard\n'
p184
sa(dp185
g2
S'20795'
p186
sg4
L1449732388899L
sg5
g41
sg7
S'Environment'
p187
sg9
S'20795'
p188
sg11
S'GetExternalStorageDirectory info:ApplicationInfo{42288bc8 com.xdf.ucan},packagename:com.xdf.ucan,UID:0\n'
p189
sa(dp190
g2
S'20795'
p191
sg4
L1449732389149L
sg5
g25
sg7
S'Activity'
p192
sg9
S'20795'
p193
sg11
S'onPause com.xdf.ucan.ui.material.MaterialActivity@41c9ad70\n'
p194
sa(dp195
g2
S'20795'
p196
sg4
L1449732389179L
sg5
g25
sg7
S'Activity'
p197
sg9
S'20795'
p198
sg11
S'onCreate com.mob.tools.MobUIShell@41de1760: null\n'
p199
sa(dp200
g2
S'20795'
p201
sg4
L1449732389189L
sg5
g41
sg7
S'System.out'
p202
sg9
S'22242'
p203
sg11
S'type: value, col: 2\n'
p204
sa(dp205
g2
S'20795'
p206
sg4
L1449732389189L
sg5
g41
sg7
S'System.out'
p207
sg9
S'22242'
p208
sg11
S'type: value, col: 1\n'
p209
sa(dp210
g2
S'20795'
p211
sg4
L1449732389249L
sg5
g41
sg7
S'System.out'
p212
sg9
S'22242'
p213
sg11
S'type: value, col: 2\n'
p214
sa(dp215
g2
S'20795'
p216
sg4
L1449732389249L
sg5
g6
sg7
S'dalvikvm'
p217
sg9
S'20797'
p218
sg11
S'GC_CONCURRENT freed 1973K, 32% free 17897K/26183K, paused 13ms+5ms, total 60ms\n'
p219
sa(dp220
g2
S'20795'
p221
sg4
L1449732389249L
sg5
g6
sg7
S'dalvikvm'
p222
sg9
S'22241'
p223
sg11
S'WAIT_FOR_CONCURRENT_GC blocked 30ms\n'
p224
sa(dp225
g2
S'20795'
p226
sg4
L1449732389249L
sg5
g41
sg7
S'System.out'
p227
sg9
S'22242'
p228
sg11
S'type: value, col: 1\n'
p229
sa(dp230
g2
S'20795'
p231
sg4
L1449732389249L
sg5
g6
sg7
S'dalvikvm'
p232
sg9
S'20795'
p233
sg11
S'WAIT_FOR_CONCURRENT_GC blocked 30ms\n'
p234
sa(dp235
g2
S'20795'
p236
sg4
L1449732389269L
sg5
g25
sg7
S'Activity'
p237
sg9
S'20795'
p238
sg11
S'onStart com.mob.tools.MobUIShell@41de1760\n'
p239
sa(dp240
g2
S'20795'
p241
sg4
L1449732389269L
sg5
g25
sg7
S'Activity'
p242
sg9
S'20795'
p243
sg11
S'onResume com.mob.tools.MobUIShell@41de1760\n'
p244
sa(dp245
g2
S'20795'
p246
sg4
L1449732389279L
sg5
g41
sg7
S'System.out'
p247
sg9
S'22242'
p248
sg11
S'type: value, col: 2\n'
p249
sa(dp250
g2
S'20795'
p251
sg4
L1449732389279L
sg5
g41
sg7
S'System.out'
p252
sg9
S'22242'
p253
sg11
S'type: value, col: 1\n'
p254
sa(dp255
g2
S'20795'
p256
sg4
L1449732389319L
sg5
g41
sg7
S'System.out'
p257
sg9
S'22242'
p258
sg11
S'type: value, col: 2\n'
p259
sa(dp260
g2
S'20795'
p261
sg4
L1449732389319L
sg5
g41
sg7
S'System.out'
p262
sg9
S'22242'
p263
sg11
S'type: value, col: 1\n'
p264
sa(dp265
g2
S'20795'
p266
sg4
L1449732389349L
sg5
g41
sg7
S'System.out'
p267
sg9
S'22242'
p268
sg11
S'type: value, col: 2\n'
p269
sa(dp270
g2
S'20795'
p271
sg4
L1449732389349L
sg5
g41
sg7
S'System.out'
p272
sg9
S'22242'
p273
sg11
S'type: value, col: 1\n'
p274
sa(dp275
g2
S'20795'
p276
sg4
L1449732389399L
sg5
g41
sg7
S'System.out'
p277
sg9
S'22242'
p278
sg11
S'type: value, col: 2\n'
p279
sa(dp280
g2
S'20795'
p281
sg4
L1449732389399L
sg5
g41
sg7
S'System.out'
p282
sg9
S'22242'
p283
sg11
S'type: value, col: 1\n'
p284
sa(dp285
g2
S'20795'
p286
sg4
L1449732389439L
sg5
g41
sg7
S'System.out'
p287
sg9
S'22242'
p288
sg11
S'type: value, col: 2\n'
p289
sa(dp290
g2
S'20795'
p291
sg4
L1449732389439L
sg5
g41
sg7
S'System.out'
p292
sg9
S'22242'
p293
sg11
S'type: value, col: 1\n'
p294
sa(dp295
g2
S'20795'
p296
sg4
L1449732389459L
sg5
g41
sg7
S'System.out'
p297
sg9
S'22242'
p298
sg11
S'type: value, col: 2\n'
p299
sa(dp300
g2
S'20795'
p301
sg4
L1449732389459L
sg5
g41
sg7
S'System.out'
p302
sg9
S'22242'
p303
sg11
S'type: value, col: 1\n'
p304
sa(dp305
g2
S'20795'
p306
sg4
L1449732389479L
sg5
g41
sg7
S'Environment'
p307
sg9
S'22266'
p308
sg11
S'GetExternalStorageDirectory info:ApplicationInfo{41dd8010 com.xdf.ucan},packagename:com.xdf.ucan,UID:0\n'
p309
sa(dp310
g2
S'20795'
p311
sg4
L1449732389479L
sg5
g6
sg7
S'Environment'
p312
sg9
S'22266'
p313
sg11
S'Enviroment getExternalStorageState :/mnt/sdcard\n'
p314
sa(dp315
g2
S'20795'
p316
sg4
L1449732389479L
sg5
g41
sg7
S'Environment'
p317
sg9
S'22266'
p318
sg11
S'GetExternalStorageDirectory info:ApplicationInfo{41dc29d8 com.xdf.ucan},packagename:com.xdf.ucan,UID:0\n'
p319
sa(dp320
g2
S'20795'
p321
sg4
L1449732389499L
sg5
g41
sg7
S'Environment'
p322
sg9
S'22272'
p323
sg11
S'GetExternalStorageDirectory info:ApplicationInfo{41dedbb0 com.xdf.ucan},packagename:com.xdf.ucan,UID:0\n'
p324
sa(dp325
g2
S'20795'
p326
sg4
L1449732389499L
sg5
g6
sg7
S'Environment'
p327
sg9
S'22272'
p328
sg11
S'Enviroment getExternalStorageState :/mnt/sdcard\n'
p329
sa(dp330
g2
S'20795'
p331
sg4
L1449732389499L
sg5
g41
sg7
S'Environment'
p332
sg9
S'22264'
p333
sg11
S'GetExternalStorageDirectory info:ApplicationInfo{42233848 com.xdf.ucan},packagename:com.xdf.ucan,UID:0\n'
p334
sa(dp335
g2
S'20795'
p336
sg4
L1449732389499L
sg5
g6
sg7
S'Environment'
p337
sg9
S'22264'
p338
sg11
S'Enviroment getExternalStorageState :/mnt/sdcard\n'
p339
sa(dp340
g2
S'20795'
p341
sg4
L1449732389499L
sg5
g41
sg7
S'Environment'
p342
sg9
S'22272'
p343
sg11
S'GetExternalStorageDirectory info:ApplicationInfo{41e6f910 com.xdf.ucan},packagename:com.xdf.ucan,UID:0\n'
p344
sa(dp345
g2
S'20795'
p346
sg4
L1449732389509L
sg5
g41
sg7
S'Environment'
p347
sg9
S'22264'
p348
sg11
S'GetExternalStorageDirectory info:ApplicationInfo{41db8b40 com.xdf.ucan},packagename:com.xdf.ucan,UID:0\n'
p349
sa(dp350
g2
S'20795'
p351
sg4
L1449732389509L
sg5
g41
sg7
S'System.out'
p352
sg9
S'22242'
p353
sg11
S'type: value, col: 2\n'
p354
sa(dp355
g2
S'20795'
p356
sg4
L1449732389509L
sg5
g41
sg7
S'System.out'
p357
sg9
S'22242'
p358
sg11
S'type: value, col: 1\n'
p359
sa(dp360
g2
S'20795'
p361
sg4
L1449732389559L
sg5
g41
sg7
S'System.out'
p362
sg9
S'22242'
p363
sg11
S'type: value, col: 2\n'
p364
sa(dp365
g2
S'20795'
p366
sg4
L1449732389559L
sg5
g41
sg7
S'System.out'
p367
sg9
S'22242'
p368
sg11
S'type: value, col: 1\n'
p369
sa(dp370
g2
S'20795'
p371
sg4
L1449732389579L
sg5
g41
sg7
S'System.out'
p372
sg9
S'22242'
p373
sg11
S'type: value, col: 2\n'
p374
sa(dp375
g2
S'20795'
p376
sg4
L1449732389579L
sg5
g41
sg7
S'System.out'
p377
sg9
S'22242'
p378
sg11
S'type: value, col: 1\n'
p379
sa(dp380
g2
S'20795'
p381
sg4
L1449732389599L
sg5
g41
sg7
S'System.out'
p382
sg9
S'22242'
p383
sg11
S'type: value, col: 2\n'
p384
sa(dp385
g2
S'20795'
p386
sg4
L1449732389599L
sg5
g41
sg7
S'System.out'
p387
sg9
S'22242'
p388
sg11
S'type: value, col: 1\n'
p389
sa(dp390
g2
S'20795'
p391
sg4
L1449732389639L
sg5
g41
sg7
S'System.out'
p392
sg9
S'22242'
p393
sg11
S'type: value, col: 2\n'
p394
sa(dp395
g2
S'20795'
p396
sg4
L1449732389639L
sg5
g41
sg7
S'System.out'
p397
sg9
S'22242'
p398
sg11
S'type: value, col: 1\n'
p399
sa(dp400
g2
S'20795'
p401
sg4
L1449732389659L
sg5
g41
sg7
S'Environment'
p402
sg9
S'22272'
p403
sg11
S'GetExternalStorageDirectory info:ApplicationInfo{41ef2cd8 com.xdf.ucan},packagename:com.xdf.ucan,UID:0\n'
p404
sa(dp405
g2
S'20795'
p406
sg4
L1449732389659L
sg5
g6
sg7
S'Environment'
p407
sg9
S'22272'
p408
sg11
S'Enviroment getExternalStorageState :/mnt/sdcard\n'
p409
sa(dp410
g2
S'20795'
p411
sg4
L1449732389659L
sg5
g41
sg7
S'Environment'
p412
sg9
S'22272'
p413
sg11
S'GetExternalStorageDirectory info:ApplicationInfo{41da7568 com.xdf.ucan},packagename:com.xdf.ucan,UID:0\n'
p414
sa(dp415
g2
S'20795'
p416
sg4
L1449732389669L
sg5
g41
sg7
S'System.out'
p417
sg9
S'22242'
p418
sg11
S'type: value, col: 2\n'
p419
sa(dp420
g2
S'20795'
p421
sg4
L1449732389669L
sg5
g41
sg7
S'System.out'
p422
sg9
S'22242'
p423
sg11
S'type: value, col: 1\n'
p424
sa(dp425
g2
S'20795'
p426
sg4
L1449732389719L
sg5
g41
sg7
S'System.out'
p427
sg9
S'22242'
p428
sg11
S'type: value, col: 2\n'
p429
sa(dp430
g2
S'20795'
p431
sg4
L1449732389719L
sg5
g41
sg7
S'System.out'
p432
sg9
S'22242'
p433
sg11
S'type: value, col: 1\n'
p434
sa(dp435
g2
S'20795'
p436
sg4
L1449732389759L
sg5
g41
sg7
S'System.out'
p437
sg9
S'22242'
p438
sg11
S'type: value, col: 2\n'
p439
sa(dp440
g2
S'20795'
p441
sg4
L1449732389759L
sg5
g41
sg7
S'System.out'
p442
sg9
S'22242'
p443
sg11
S'type: value, col: 1\n'
p444
sa(dp445
g2
S'20795'
p446
sg4
L1449732389779L
sg5
g41
sg7
S'System.out'
p447
sg9
S'22242'
p448
sg11
S'type: value, col: 2\n'
p449
sa(dp450
g2
S'20795'
p451
sg4
L1449732389779L
sg5
g41
sg7
S'System.out'
p452
sg9
S'22242'
p453
sg11
S'type: value, col: 1\n'
p454
sa(dp455
g2
S'20795'
p456
sg4
L1449732389799L
sg5
g41
sg7
S'System.out'
p457
sg9
S'22242'
p458
sg11
S'type: value, col: 2\n'
p459
sa(dp460
g2
S'20795'
p461
sg4
L1449732389799L
sg5
g41
sg7
S'System.out'
p462
sg9
S'22242'
p463
sg11
S'type: value, col: 1\n'
p464
sa(dp465
g2
S'20795'
p466
sg4
L1449732389829L
sg5
g41
sg7
S'System.out'
p467
sg9
S'22242'
p468
sg11
S'type: value, col: 2\n'
p469
sa(dp470
g2
S'20795'
p471
sg4
L1449732389829L
sg5
g41
sg7
S'System.out'
p472
sg9
S'22242'
p473
sg11
S'type: value, col: 1\n'
p474
sa(dp475
g2
S'20795'
p476
sg4
L1449732389849L
sg5
g41
sg7
S'System.out'
p477
sg9
S'22242'
p478
sg11
S'type: value, col: 2\n'
p479
sa(dp480
g2
S'20795'
p481
sg4
L1449732389849L
sg5
g41
sg7
S'System.out'
p482
sg9
S'22242'
p483
sg11
S'type: value, col: 1\n'
p484
sa(dp485
g2
S'20795'
p486
sg4
L1449732389869L
sg5
g41
sg7
S'System.out'
p487
sg9
S'22242'
p488
sg11
S'type: value, col: 2\n'
p489
sa(dp490
g2
S'20795'
p491
sg4
L1449732389869L
sg5
g41
sg7
S'System.out'
p492
sg9
S'22242'
p493
sg11
S'type: value, col: 1\n'
p494
sa(dp495
g2
S'20795'
p496
sg4
L1449732389899L
sg5
g41
sg7
S'System.out'
p497
sg9
S'22242'
p498
sg11
S'type: value, col: 2\n'
p499
sa(dp500
g2
S'20795'
p501
sg4
L1449732389899L
sg5
g41
sg7
S'System.out'
p502
sg9
S'22242'
p503
sg11
S'type: value, col: 1\n'
p504
sa(dp505
g2
S'20795'
p506
sg4
L1449732389919L
sg5
g41
sg7
S'System.out'
p507
sg9
S'22242'
p508
sg11
S'type: value, col: 2\n'
p509
sa(dp510
g2
S'20795'
p511
sg4
L1449732389919L
sg5
g41
sg7
S'System.out'
p512
sg9
S'22242'
p513
sg11
S'type: value, col: 1\n'
p514
sa(dp515
g2
S'20795'
p516
sg4
L1449732389939L
sg5
g41
sg7
S'System.out'
p517
sg9
S'22242'
p518
sg11
S'type: value, col: 2\n'
p519
sa(dp520
g2
S'20795'
p521
sg4
L1449732389939L
sg5
g41
sg7
S'System.out'
p522
sg9
S'22242'
p523
sg11
S'type: value, col: 1\n'
p524
sa(dp525
g2
S'20795'
p526
sg4
L1449732389979L
sg5
g41
sg7
S'System.out'
p527
sg9
S'22242'
p528
sg11
S'type: value, col: 2\n'
p529
sa(dp530
g2
S'20795'
p531
sg4
L1449732389979L
sg5
g41
sg7
S'System.out'
p532
sg9
S'22242'
p533
sg11
S'type: value, col: 1\n'
p534
sa(dp535
g2
S'20795'
p536
sg4
L1449732389999L
sg5
g41
sg7
S'System.out'
p537
sg9
S'22242'
p538
sg11
S'type: value, col: 2\n'
p539
sa(dp540
g2
S'20795'
p541
sg4
L1449732389999L
sg5
g41
sg7
S'System.out'
p542
sg9
S'22242'
p543
sg11
S'type: value, col: 1\n'
p544
sa(dp545
g2
S'20795'
p546
sg4
L1449732390019L
sg5
g41
sg7
S'System.out'
p547
sg9
S'22242'
p548
sg11
S'type: value, col: 2\n'
p549
sa(dp550
g2
S'20795'
p551
sg4
L1449732390019L
sg5
g41
sg7
S'System.out'
p552
sg9
S'22242'
p553
sg11
S'type: value, col: 1\n'
p554
sa(dp555
g2
S'20795'
p556
sg4
L1449732390039L
sg5
g41
sg7
S'System.out'
p557
sg9
S'22242'
p558
sg11
S'type: value, col: 2\n'
p559
sa(dp560
g2
S'20795'
p561
sg4
L1449732390049L
sg5
g41
sg7
S'System.out'
p562
sg9
S'22242'
p563
sg11
S'type: value, col: 1\n'
p564
sa(dp565
g2
S'20795'
p566
sg4
L1449732390059L
sg5
g41
sg7
S'System.out'
p567
sg9
S'22242'
p568
sg11
S'type: value, col: 2\n'
p569
sa(dp570
g2
S'20795'
p571
sg4
L1449732390059L
sg5
g41
sg7
S'System.out'
p572
sg9
S'22242'
p573
sg11
S'type: value, col: 1\n'
p574
sa(dp575
g2
S'20795'
p576
sg4
L1449732390079L
sg5
g41
sg7
S'System.out'
p577
sg9
S'22242'
p578
sg11
S'type: value, col: 2\n'
p579
sa(dp580
g2
S'20795'
p581
sg4
L1449732390079L
sg5
g41
sg7
S'System.out'
p582
sg9
S'22242'
p583
sg11
S'type: value, col: 1\n'
p584
sa(dp585
g2
S'20795'
p586
sg4
L1449732390109L
sg5
g41
sg7
S'System.out'
p587
sg9
S'22242'
p588
sg11
S'type: value, col: 2\n'
p589
sa(dp590
g2
S'20795'
p591
sg4
L1449732390109L
sg5
g41
sg7
S'System.out'
p592
sg9
S'22242'
p593
sg11
S'type: value, col: 1\n'
p594
sa(dp595
g2
S'20795'
p596
sg4
L1449732390139L
sg5
g41
sg7
S'System.out'
p597
sg9
S'22242'
p598
sg11
S'type: value, col: 2\n'
p599
sa(dp600
g2
S'20795'
p601
sg4
L1449732390139L
sg5
g41
sg7
S'System.out'
p602
sg9
S'22242'
p603
sg11
S'type: value, col: 1\n'
p604
sa(dp605
g2
S'20795'
p606
sg4
L1449732390169L
sg5
g41
sg7
S'System.out'
p607
sg9
S'22242'
p608
sg11
S'type: value, col: 2\n'
p609
sa(dp610
g2
S'20795'
p611
sg4
L1449732390169L
sg5
g6
sg7
S'dalvikvm'
p612
sg9
S'20797'
p613
sg11
S'GC_CONCURRENT freed 1858K, 32% free 17983K/26183K, paused 13ms+4ms, total 60ms\n'
p614
sa(dp615
g2
S'20795'
p616
sg4
L1449732390169L
sg5
g41
sg7
S'System.out'
p617
sg9
S'22242'
p618
sg11
S'type: value, col: 1\n'
p619
sa(dp620
g2
S'20795'
p621
sg4
L1449732391259L
sg5
g41
sg7
S'Environment'
p622
sg9
S'22264'
p623
sg11
S'GetExternalStorageDirectory info:ApplicationInfo{4235d2c8 com.xdf.ucan},packagename:com.xdf.ucan,UID:0\n'
p624
sa(dp625
g2
S'20795'
p626
sg4
L1449732391259L
sg5
g6
sg7
S'Environment'
p627
sg9
S'22264'
p628
sg11
S'Enviroment getExternalStorageState :/mnt/sdcard\n'
p629
sa(dp630
g2
S'20795'
p631
sg4
L1449732391269L
sg5
g41
sg7
S'Environment'
p632
sg9
S'22264'
p633
sg11
S'GetExternalStorageDirectory info:ApplicationInfo{4235bc58 com.xdf.ucan},packagename:com.xdf.ucan,UID:0\n'
p634
sa(dp635
g2
S'20795'
p636
sg4
L1449732391299L
sg5
g41
sg7
S'System.out'
p637
sg9
S'22242'
p638
sg11
S'type: value, col: 2\n'
p639
sa(dp640
g2
S'20795'
p641
sg4
L1449732391309L
sg5
g41
sg7
S'System.out'
p642
sg9
S'22242'
p643
sg11
S'type: value, col: 1\n'
p644
sa(dp645
g2
S'20795'
p646
sg4
L1449732391719L
sg5
g41
sg7
S'Environment'
p647
sg9
S'22264'
p648
sg11
S'GetExternalStorageDirectory info:ApplicationInfo{423339e8 com.xdf.ucan},packagename:com.xdf.ucan,UID:0\n'
p649
sa(dp650
g2
S'20795'
p651
sg4
L1449732391719L
sg5
g6
sg7
S'Environment'
p652
sg9
S'22264'
p653
sg11
S'Enviroment getExternalStorageState :/mnt/sdcard\n'
p654
sa(dp655
g2
S'20795'
p656
sg4
L1449732391729L
sg5
g41
sg7
S'Environment'
p657
sg9
S'22264'
p658
sg11
S'GetExternalStorageDirectory info:ApplicationInfo{4223d4c8 com.xdf.ucan},packagename:com.xdf.ucan,UID:0\n'
p659
sa(dp660
g2
S'20795'
p661
sg4
L1449732391729L
sg5
g25
sg7
S'AudioManager'
p662
sg9
S'20795'
p663
sg11
S'AudioManager ctor mUseMasterVolume:false\n'
p664
sa(dp665
g2
S'20795'
p666
sg4
L1449732391729L
sg5
g41
sg7
S'Toast   '
p667
sg9
S'20795'
p668
sg11
S'the toast owner is: com.xdf.ucan\n'
p669
sa(dp670
g2
S'20795'
p671
sg4
L1449732391739L
sg5
g41
sg7
S'System.out'
p672
sg9
S'20795'
p673
sg11
S'openPath.getPath():/mnt/sdcard/UPOC/download/\xe3\x80\x90\xe9\xab\x98\xe4\xba\x8c\xe4\xb8\x93\xe6\xa0\x8f\xe3\x80\x91\xe5\xae\x89\xe5\x9f\xb9\xe5\x8a\x9b\xe4\xb9\x8b\xe7\xa3\x81\xe5\x9c\xba\xe5\xaf\xb9\xe7\x94\xb5\xe6\xb5\x81\xe7\x9a\x84\xe4\xbd\x9c\xe7\x94\xa859040.pdf\n'
p674
sa(dp675
g2
S'20795'
p676
sg4
L1449732391739L
sg5
g41
sg7
S'System.out'
p677
sg9
S'20795'
p678
sg11
S'resourceExtension:pdf\n'
p679
sa(dp680
g2
S'20795'
p681
sg4
L1449732391739L
sg5
g41
sg7
S'System.out'
p682
sg9
S'20795'
p683
sg11
S'resourceUrl:http://xue.xdf.cn/Resources/files/0/DYH000013/3301e09ec3fe4a0992208405d98c3b14.pdf\n'
p684
sa(dp685
g2
S'20795'
p686
sg4
L1449732391739L
sg5
g6
sg7
S'long    '
p687
sg9
S'20795'
p688
sg11
S'platform.getName():Wechat\n'
p689
sa(dp690
g2
S'20795'
p691
sg4
L1449732391739L
sg5
g6
sg7
S'long    '
p692
sg9
S'20795'
p693
sg11
S'ResourcePreviewUrl:http://student.xue.xdf.cn/resource/iframepreviewUrl/59040\n'
p694
sa(dp695
g2
S'20795'
p696
sg4
L1449732391749L
sg5
g41
sg7
S'Environment'
p697
sg9
S'22264'
p698
sg11
S'GetExternalStorageDirectory info:ApplicationInfo{4234c0f8 com.xdf.ucan},packagename:com.xdf.ucan,UID:0\n'
p699
sa(dp700
g2
S'20795'
p701
sg4
L1449732391749L
sg5
g6
sg7
S'Environment'
p702
sg9
S'22264'
p703
sg11
S'Enviroment getExternalStorageState :/mnt/sdcard\n'
p704
sa(dp705
g2
S'20795'
p706
sg4
L1449732391759L
sg5
g41
sg7
S'Environment'
p707
sg9
S'22264'
p708
sg11
S'GetExternalStorageDirectory info:ApplicationInfo{41ddd6a0 com.xdf.ucan},packagename:com.xdf.ucan,UID:0\n'
p709
sa(dp710
g2
S'20795'
p711
sg4
L1449732391839L
sg5
g41
sg7
S'Environment'
p712
sg9
S'22264'
p713
sg11
S'GetExternalStorageDirectory info:ApplicationInfo{422a9248 com.xdf.ucan},packagename:com.xdf.ucan,UID:0\n'
p714
sa(dp715
g2
S'20795'
p716
sg4
L1449732391839L
sg5
g6
sg7
S'Environment'
p717
sg9
S'22264'
p718
sg11
S'Enviroment getExternalStorageState :/mnt/sdcard\n'
p719
sa(dp720
g2
S'20795'
p721
sg4
L1449732391839L
sg5
g41
sg7
S'Environment'
p722
sg9
S'22264'
p723
sg11
S'GetExternalStorageDirectory info:ApplicationInfo{41e202f8 com.xdf.ucan},packagename:com.xdf.ucan,UID:0\n'
p724
sa(dp725
g2
S'20795'
p726
sg4
L1449732391839L
sg5
g41
sg7
S'Environment'
p727
sg9
S'22264'
p728
sg11
S'GetExternalStorageDirectory info:ApplicationInfo{41ddf840 com.xdf.ucan},packagename:com.xdf.ucan,UID:0\n'
p729
sa(dp730
g2
S'20795'
p731
sg4
L1449732391849L
sg5
g41
sg7
S'Environment'
p732
sg9
S'22264'
p733
sg11
S'GetExternalStorageDirectory info:ApplicationInfo{41ea8398 com.xdf.ucan},packagename:com.xdf.ucan,UID:0\n'
p734
sa(dp735
g2
S'20795'
p736
sg4
L1449732392069L
sg5
g6
sg7
S'dalvikvm'
p737
sg9
S'22307'
p738
sg11
S'WAIT_FOR_CONCURRENT_GC blocked 0ms\n'
p739
sa(dp740
g2
S'20795'
p741
sg4
L1449732392149L
sg5
g6
sg7
S'dalvikvm'
p742
sg9
S'22307'
p743
sg11
S'GC_EXPLICIT freed 577K, 31% free 18294K/26183K, paused 10ms+12ms, total 78ms\n'
p744
sa(dp745
g2
S'20795'
p746
sg4
L1449732392149L
sg5
S'W'
p747
sg7
S'SQLiteConnectionPool'
p748
sg9
S'20803'
p749
sg11
S"A SQLiteConnection object for database '/data/data/com.xdf.ucan/databases/rong_version' was leaked!  Please fix your application to end transactions in progress properly and to close the database when it is no longer needed.\n"
p750
sa(dp751
g2
S'20795'
p752
sg4
L1449732392149L
sg5
g25
sg7
S'Activity'
p753
sg9
S'20795'
p754
sg11
S'onPause com.mob.tools.MobUIShell@41de1760\n'
p755
sa(dp756
g2
S'20795'
p757
sg4
L1449732392179L
sg5
g25
sg7
S'Activity'
p758
sg9
S'20795'
p759
sg11
S'onResume com.xdf.ucan.ui.material.MaterialActivity@41c9ad70\n'
p760
sa(dp761
g2
S'20795'
p762
sg4
L1449732392209L
sg5
g25
sg7
S'Activity'
p763
sg9
S'20795'
p764
sg11
S'onStop com.mob.tools.MobUIShell@41de1760\n'
p765
sa(dp766
g2
S'20795'
p767
sg4
L1449732392209L
sg5
g25
sg7
S'Activity'
p768
sg9
S'20795'
p769
sg11
S'onDestroy com.mob.tools.MobUIShell@41de1760\n'
p770
sa(dp771
g2
S'20795'
p772
sg4
L1449732392929L
sg5
g25
sg7
S'Activity'
p773
sg9
S'20795'
p774
sg11
S'onPause com.xdf.ucan.ui.material.MaterialActivity@41c9ad70\n'
p775
sa(dp776
g2
S'20795'
p777
sg4
L1449732393789L
sg5
g41
sg7
S'Environment'
p778
sg9
S'22264'
p779
sg11
S'GetExternalStorageDirectory info:ApplicationInfo{42257340 com.xdf.ucan},packagename:com.xdf.ucan,UID:0\n'
p780
sa(dp781
g2
S'20795'
p782
sg4
L1449732393789L
sg5
g6
sg7
S'Environment'
p783
sg9
S'22264'
p784
sg11
S'Enviroment getExternalStorageState :/mnt/sdcard\n'
p785
sa(dp786
g2
S'20795'
p787
sg4
L1449732393789L
sg5
g41
sg7
S'Environment'
p788
sg9
S'22264'
p789
sg11
S'GetExternalStorageDirectory info:ApplicationInfo{422d3298 com.xdf.ucan},packagename:com.xdf.ucan,UID:0\n'
p790
sa(dp791
g2
S'20795'
p792
sg4
L1449732393799L
sg5
g41
sg7
S'Environment'
p793
sg9
S'22264'
p794
sg11
S'GetExternalStorageDirectory info:ApplicationInfo{41da8aa0 com.xdf.ucan},packagename:com.xdf.ucan,UID:0\n'
p795
sa(dp796
g2
S'20795'
p797
sg4
L1449732393799L
sg5
g6
sg7
S'Environment'
p798
sg9
S'22264'
p799
sg11
S'Enviroment getExternalStorageState :/mnt/sdcard\n'
p800
sa(dp801
g2
S'20795'
p802
sg4
L1449732393799L
sg5
g41
sg7
S'Environment'
p803
sg9
S'22264'
p804
sg11
S'GetExternalStorageDirectory info:ApplicationInfo{423ce418 com.xdf.ucan},packagename:com.xdf.ucan,UID:0\n'
p805
sa(dp806
g2
S'20795'
p807
sg4
L1449732404109L
sg5
g25
sg7
S'Activity'
p808
sg9
S'20795'
p809
sg11
S'onStop com.xdf.ucan.ui.material.MaterialActivity@41c9ad70\n'
p810
sa(dp811
g2
S'20795'
p812
sg4
L1449732405279L
sg5
g747
sg7
S'System.err'
p813
sg9
S'20795'
p814
sg11
S'java.lang.Throwable: {"req":"e","errCode":-6,"transaction":"filedata1449732392899"}\n'
p815
sa(dp816
g2
S'20795'
p817
sg4
L1449732405279L
sg5
g747
sg7
S'System.err'
p818
sg9
S'20795'
p819
sg11
S'\tat cn.sharesdk.wechat.utils.k.a(Unknown Source)\n'
p820
sa(dp821
g2
S'20795'
p822
sg4
L1449732405279L
sg5
g747
sg7
S'System.err'
p823
sg9
S'20795'
p824
sg11
S'\tat cn.sharesdk.wechat.utils.j.a(Unknown Source)\n'
p825
sa(dp826
g2
S'20795'
p827
sg4
L1449732405279L
sg5
g747
sg7
S'System.err'
p828
sg9
S'20795'
p829
sg11
S'\tat cn.sharesdk.wechat.utils.WechatHelper.a(Unknown Source)\n'
p830
sa(dp831
g2
S'20795'
p832
sg4
L1449732405279L
sg5
g747
sg7
S'System.err'
p833
sg9
S'20795'
p834
sg11
S'\tat cn.sharesdk.wechat.utils.WechatHandlerActivity.onCreate(Unknown Source)\n'
p835
sa(dp836
g2
S'20795'
p837
sg4
L1449732405279L
sg5
g747
sg7
S'System.err'
p838
sg9
S'20795'
p839
sg11
S'\tat android.app.Activity.performCreate(Activity.java:5051)\n'
p840
sa(dp841
g2
S'20795'
p842
sg4
L1449732405279L
sg5
g25
sg7
S'Activity'
p843
sg9
S'20795'
p844
sg11
S'onCreate com.xdf.ucan.wxapi.WXEntryActivity@41e7c760: null\n'
p845
sa(dp846
g2
S'20795'
p847
sg4
L1449732405289L
sg5
g747
sg7
S'System.err'
p848
sg9
S'20795'
p849
sg11
S'\tat android.app.Instrumentation.callActivityOnCreate(Instrumentation.java:1101)\n'
p850
sa(dp851
g2
S'20795'
p852
sg4
L1449732405289L
sg5
g747
sg7
S'System.err'
p853
sg9
S'20795'
p854
sg11
S'\tat android.app.ActivityThread.performLaunchActivity(ActivityThread.java:2031)\n'
p855
sa(dp856
g2
S'20795'
p857
sg4
L1449732405289L
sg5
g747
sg7
S'System.err'
p858
sg9
S'20795'
p859
sg11
S'\tat android.app.ActivityThread.handleLaunchActivity(ActivityThread.java:2092)\n'
p860
sa(dp861
g2
S'20795'
p862
sg4
L1449732405289L
sg5
g747
sg7
S'System.err'
p863
sg9
S'20795'
p864
sg11
S'\tat android.app.ActivityThread.access$600(ActivityThread.java:133)\n'
p865
sa(dp866
g2
S'20795'
p867
sg4
L1449732405289L
sg5
g747
sg7
S'System.err'
p868
sg9
S'20795'
p869
sg11
S'\tat android.app.ActivityThread$H.handleMessage(ActivityThread.java:1203)\n'
p870
sa(dp871
g2
S'20795'
p872
sg4
L1449732405289L
sg5
g747
sg7
S'System.err'
p873
sg9
S'20795'
p874
sg11
S'\tat android.os.Handler.dispatchMessage(Handler.java:99)\n'
p875
sa(dp876
g2
S'20795'
p877
sg4
L1449732405289L
sg5
g747
sg7
S'System.err'
p878
sg9
S'20795'
p879
sg11
S'\tat android.os.Looper.loop(Looper.java:137)\n'
p880
sa(dp881
g2
S'20795'
p882
sg4
L1449732405289L
sg5
g747
sg7
S'System.err'
p883
sg9
S'20795'
p884
sg11
S'\tat android.app.ActivityThread.main(ActivityThread.java:4802)\n'
p885
sa(dp886
g2
S'20795'
p887
sg4
L1449732405289L
sg5
g747
sg7
S'System.err'
p888
sg9
S'20795'
p889
sg11
S'\tat java.lang.reflect.Method.invokeNative(Native Method)\n'
p890
sa(dp891
g2
S'20795'
p892
sg4
L1449732405289L
sg5
g747
sg7
S'System.err'
p893
sg9
S'20795'
p894
sg11
S'\tat java.lang.reflect.Method.invoke(Method.java:511)\n'
p895
sa(dp896
g2
S'20795'
p897
sg4
L1449732405289L
sg5
g747
sg7
S'System.err'
p898
sg9
S'20795'
p899
sg11
S'\tat com.android.internal.os.ZygoteInit$MethodAndArgsCaller.run(ZygoteInit.java:809)\n'
p900
sa(dp901
g2
S'20795'
p902
sg4
L1449732405299L
sg5
g747
sg7
S'System.err'
p903
sg9
S'20795'
p904
sg11
S'\tat com.android.internal.os.ZygoteInit.main(ZygoteInit.java:576)\n'
p905
sa(dp906
g2
S'20795'
p907
sg4
L1449732405299L
sg5
g747
sg7
S'System.err'
p908
sg9
S'20795'
p909
sg11
S'\tat dalvik.system.NativeStart.main(Native Method)\n'
p910
sa(dp911
g2
S'20795'
p912
sg4
L1449732405589L
sg5
g25
sg7
S'Activity'
p913
sg9
S'20795'
p914
sg11
S'onDestroy com.xdf.ucan.wxapi.WXEntryActivity@41e7c760\n'
p915
sa(dp916
g2
S'20795'
p917
sg4
L1449732410639L
sg5
g25
sg7
S'Activity'
p918
sg9
S'20795'
p919
sg11
S'onStart com.xdf.ucan.ui.material.MaterialActivity@41c9ad70\n'
p920
sa(dp921
g2
S'20795'
p922
sg4
L1449732410639L
sg5
g25
sg7
S'Activity'
p923
sg9
S'20795'
p924
sg11
S'onResume com.xdf.ucan.ui.material.MaterialActivity@41c9ad70\n'
p925
sa(dp926
g2
S'20795'
p927
sg4
L1449732410989L
sg5
g41
sg7
S'Environment'
p928
sg9
S'22264'
p929
sg11
S'GetExternalStorageDirectory info:ApplicationInfo{42302a18 com.xdf.ucan},packagename:com.xdf.ucan,UID:0\n'
p930
sa(dp931
g2
S'20795'
p932
sg4
L1449732410989L
sg5
g6
sg7
S'Environment'
p933
sg9
S'22264'
p934
sg11
S'Enviroment getExternalStorageState :/mnt/sdcard\n'
p935
sa(dp936
g2
S'20795'
p937
sg4
L1449732410989L
sg5
g41
sg7
S'Environment'
p938
sg9
S'22264'
p939
sg11
S'GetExternalStorageDirectory info:ApplicationInfo{41c662f8 com.xdf.ucan},packagename:com.xdf.ucan,UID:0\n'
p940
sa(dp941
g2
S'20795'
p942
sg4
L1449732410999L
sg5
g41
sg7
S'Environment'
p943
sg9
S'22264'
p944
sg11
S'GetExternalStorageDirectory info:ApplicationInfo{41e12698 com.xdf.ucan},packagename:com.xdf.ucan,UID:0\n'
p945
sa(dp946
g2
S'20795'
p947
sg4
L1449732410999L
sg5
g6
sg7
S'Environment'
p948
sg9
S'22264'
p949
sg11
S'Enviroment getExternalStorageState :/mnt/sdcard\n'
p950
sa(dp951
g2
S'20795'
p952
sg4
L1449732411009L
sg5
g41
sg7
S'Environment'
p953
sg9
S'22264'
p954
sg11
S'GetExternalStorageDirectory info:ApplicationInfo{422a2b00 com.xdf.ucan},packagename:com.xdf.ucan,UID:0\n'
p955
sa(dp956
g2
S'20795'
p957
sg4
L1449732411599L
sg5
g25
sg7
S'Activity'
p958
sg9
S'20795'
p959
sg11
S'onPause com.xdf.ucan.ui.material.MaterialActivity@41c9ad70\n'
p960
sa(dp961
g2
S'20795'
p962
sg4
L1449732411639L
sg5
g25
sg7
S'Activity'
p963
sg9
S'20795'
p964
sg11
S'onResume com.xdf.ucan.ui.material.MaterialActivity@41c9ad70\n'
p965
sa(dp966
g2
S'20795'
p967
sg4
L1449732413069L
sg5
g41
sg7
S'Environment'
p968
sg9
S'20795'
p969
sg11
S'GetExternalStorageDirectory info:ApplicationInfo{42347970 com.xdf.ucan},packagename:com.xdf.ucan,UID:0\n'
p970
sa(dp971
g2
S'20795'
p972
sg4
L1449732413069L
sg5
g6
sg7
S'Environment'
p973
sg9
S'20795'
p974
sg11
S'Enviroment getExternalStorageState :/mnt/sdcard\n'
p975
sa(dp976
g2
S'20795'
p977
sg4
L1449732413079L
sg5
g41
sg7
S'Environment'
p978
sg9
S'20795'
p979
sg11
S'GetExternalStorageDirectory info:ApplicationInfo{42380ff0 com.xdf.ucan},packagename:com.xdf.ucan,UID:0\n'
p980
sa(dp981
g2
S'20795'
p982
sg4
L1449732413079L
sg5
g41
sg7
S'Environment'
p983
sg9
S'20795'
p984
sg11
S'GetExternalStorageDirectory info:ApplicationInfo{42279a30 com.xdf.ucan},packagename:com.xdf.ucan,UID:0\n'
p985
sa(dp986
g2
S'20795'
p987
sg4
L1449732413079L
sg5
g6
sg7
S'Environment'
p988
sg9
S'20795'
p989
sg11
S'Enviroment getExternalStorageState :/mnt/sdcard\n'
p990
sa(dp991
g2
S'20795'
p992
sg4
L1449732413079L
sg5
g41
sg7
S'Environment'
p993
sg9
S'20795'
p994
sg11
S'GetExternalStorageDirectory info:ApplicationInfo{42307160 com.xdf.ucan},packagename:com.xdf.ucan,UID:0\n'
p995
sa(dp996
g2
S'20795'
p997
sg4
L1449732413179L
sg5
g25
sg7
S'Activity'
p998
sg9
S'20795'
p999
sg11
S'onPause com.xdf.ucan.ui.material.MaterialActivity@41c9ad70\n'
p1000
sa(dp1001
g2
S'20795'
p1002
sg4
L1449732413209L
sg5
g25
sg7
S'Activity'
p1003
sg9
S'20795'
p1004
sg11
S'onCreate com.mob.tools.MobUIShell@4234e420: null\n'
p1005
sa(dp1006
g2
S'20795'
p1007
sg4
L1449732413239L
sg5
g25
sg7
S'Activity'
p1008
sg9
S'20795'
p1009
sg11
S'onStart com.mob.tools.MobUIShell@4234e420\n'
p1010
sa(dp1011
g2
S'20795'
p1012
sg4
L1449732413239L
sg5
g25
sg7
S'Activity'
p1013
sg9
S'20795'
p1014
sg11
S'onResume com.mob.tools.MobUIShell@4234e420\n'
p1015
sa(dp1016
g2
S'20795'
p1017
sg4
L1449732414889L
sg5
g25
sg7
S'AudioManager'
p1018
sg9
S'20795'
p1019
sg11
S'AudioManager ctor mUseMasterVolume:false\n'
p1020
sa(dp1021
g2
S'20795'
p1022
sg4
L1449732414889L
sg5
g41
sg7
S'Toast   '
p1023
sg9
S'20795'
p1024
sg11
S'the toast owner is: com.xdf.ucan\n'
p1025
sa(dp1026
g2
S'20795'
p1027
sg4
L1449732414899L
sg5
g41
sg7
S'System.out'
p1028
sg9
S'20795'
p1029
sg11
S'openPath.getPath():/mnt/sdcard/UPOC/download/\xe3\x80\x90\xe9\xab\x98\xe4\xba\x8c\xe4\xb8\x93\xe6\xa0\x8f\xe3\x80\x91\xe5\xae\x89\xe5\x9f\xb9\xe5\x8a\x9b\xe4\xb9\x8b\xe7\xa3\x81\xe5\x9c\xba\xe5\xaf\xb9\xe7\x94\xb5\xe6\xb5\x81\xe7\x9a\x84\xe4\xbd\x9c\xe7\x94\xa859040.pdf\n'
p1030
sa(dp1031
g2
S'20795'
p1032
sg4
L1449732414899L
sg5
g41
sg7
S'System.out'
p1033
sg9
S'20795'
p1034
sg11
S'resourceExtension:pdf\n'
p1035
sa(dp1036
g2
S'20795'
p1037
sg4
L1449732414919L
sg5
g41
sg7
S'System.out'
p1038
sg9
S'20795'
p1039
sg11
S'resourceUrl:http://xue.xdf.cn/Resources/files/0/DYH000013/3301e09ec3fe4a0992208405d98c3b14.pdf\n'
p1040
sa(dp1041
g2
S'20795'
p1042
sg4
L1449732414919L
sg5
g6
sg7
S'long    '
p1043
sg9
S'20795'
p1044
sg11
S'platform.getName():Wechat\n'
p1045
sa(dp1046
g2
S'20795'
p1047
sg4
L1449732414919L
sg5
g6
sg7
S'long    '
p1048
sg9
S'20795'
p1049
sg11
S'ResourcePreviewUrl:http://student.xue.xdf.cn/resource/iframepreviewUrl/59040\n'
p1050
sa(dp1051
g2
S'20795'
p1052
sg4
L1449732415279L
sg5
g6
sg7
S'dalvikvm'
p1053
sg9
S'20797'
p1054
sg11
S'GC_CONCURRENT freed 1955K, 31% free 18262K/26183K, paused 23ms+6ms, total 110ms\n'
p1055
sa(dp1056
g2
S'20795'
p1057
sg4
L1449732415319L
sg5
g25
sg7
S'Activity'
p1058
sg9
S'20795'
p1059
sg11
S'onPause com.mob.tools.MobUIShell@4234e420\n'
p1060
sa(dp1061
g2
S'20795'
p1062
sg4
L1449732416109L
sg5
g747
sg7
S'System.err'
p1063
sg9
S'20795'
p1064
sg11
S'java.lang.Throwable: {"req":"e","errCode":-6,"transaction":"filedata1449732415113"}\n'
p1065
sa(dp1066
g2
S'20795'
p1067
sg4
L1449732416109L
sg5
g747
sg7
S'System.err'
p1068
sg9
S'20795'
p1069
sg11
S'\tat cn.sharesdk.wechat.utils.k.a(Unknown Source)\n'
p1070
sa(dp1071
g2
S'20795'
p1072
sg4
L1449732416109L
sg5
g747
sg7
S'System.err'
p1073
sg9
S'20795'
p1074
sg11
S'\tat cn.sharesdk.wechat.utils.j.a(Unknown Source)\n'
p1075
sa(dp1076
g2
S'20795'
p1077
sg4
L1449732416109L
sg5
g747
sg7
S'System.err'
p1078
sg9
S'20795'
p1079
sg11
S'\tat cn.sharesdk.wechat.utils.WechatHelper.a(Unknown Source)\n'
p1080
sa(dp1081
g2
S'20795'
p1082
sg4
L1449732416109L
sg5
g747
sg7
S'System.err'
p1083
sg9
S'20795'
p1084
sg11
S'\tat cn.sharesdk.wechat.utils.WechatHandlerActivity.onCreate(Unknown Source)\n'
p1085
sa(dp1086
g2
S'20795'
p1087
sg4
L1449732416109L
sg5
g747
sg7
S'System.err'
p1088
sg9
S'20795'
p1089
sg11
S'\tat android.app.Activity.performCreate(Activity.java:5051)\n'
p1090
sa(dp1091
g2
S'20795'
p1092
sg4
L1449732416109L
sg5
g747
sg7
S'System.err'
p1093
sg9
S'20795'
p1094
sg11
S'\tat android.app.Instrumentation.callActivityOnCreate(Instrumentation.java:1101)\n'
p1095
sa(dp1096
g2
S'20795'
p1097
sg4
L1449732416109L
sg5
g747
sg7
S'System.err'
p1098
sg9
S'20795'
p1099
sg11
S'\tat android.app.ActivityThread.performLaunchActivity(ActivityThread.java:2031)\n'
p1100
sa(dp1101
g2
S'20795'
p1102
sg4
L1449732416109L
sg5
g747
sg7
S'System.err'
p1103
sg9
S'20795'
p1104
sg11
S'\tat android.app.ActivityThread.handleLaunchActivity(ActivityThread.java:2092)\n'
p1105
sa(dp1106
g2
S'20795'
p1107
sg4
L1449732416109L
sg5
g747
sg7
S'System.err'
p1108
sg9
S'20795'
p1109
sg11
S'\tat android.app.ActivityThread.access$600(ActivityThread.java:133)\n'
p1110
sa(dp1111
g2
S'20795'
p1112
sg4
L1449732416109L
sg5
g747
sg7
S'System.err'
p1113
sg9
S'20795'
p1114
sg11
S'\tat android.app.ActivityThread$H.handleMessage(ActivityThread.java:1203)\n'
p1115
sa(dp1116
g2
S'20795'
p1117
sg4
L1449732416109L
sg5
g747
sg7
S'System.err'
p1118
sg9
S'20795'
p1119
sg11
S'\tat android.os.Handler.dispatchMessage(Handler.java:99)\n'
p1120
sa(dp1121
g2
S'20795'
p1122
sg4
L1449732416109L
sg5
g747
sg7
S'System.err'
p1123
sg9
S'20795'
p1124
sg11
S'\tat android.os.Looper.loop(Looper.java:137)\n'
p1125
sa(dp1126
g2
S'20795'
p1127
sg4
L1449732416109L
sg5
g747
sg7
S'System.err'
p1128
sg9
S'20795'
p1129
sg11
S'\tat android.app.ActivityThread.main(ActivityThread.java:4802)\n'
p1130
sa(dp1131
g2
S'20795'
p1132
sg4
L1449732416109L
sg5
g747
sg7
S'System.err'
p1133
sg9
S'20795'
p1134
sg11
S'\tat java.lang.reflect.Method.invokeNative(Native Method)\n'
p1135
sa(dp1136
g2
S'20795'
p1137
sg4
L1449732416109L
sg5
g25
sg7
S'Activity'
p1138
sg9
S'20795'
p1139
sg11
S'onCreate com.xdf.ucan.wxapi.WXEntryActivity@423b1530: null\n'
p1140
sa(dp1141
g2
S'20795'
p1142
sg4
L1449732416119L
sg5
g747
sg7
S'System.err'
p1143
sg9
S'20795'
p1144
sg11
S'\tat java.lang.reflect.Method.invoke(Method.java:511)\n'
p1145
sa(dp1146
g2
S'20795'
p1147
sg4
L1449732416119L
sg5
g747
sg7
S'System.err'
p1148
sg9
S'20795'
p1149
sg11
S'\tat com.android.internal.os.ZygoteInit$MethodAndArgsCaller.run(ZygoteInit.java:809)\n'
p1150
sa(dp1151
g2
S'20795'
p1152
sg4
L1449732416119L
sg5
g747
sg7
S'System.err'
p1153
sg9
S'20795'
p1154
sg11
S'\tat com.android.internal.os.ZygoteInit.main(ZygoteInit.java:576)\n'
p1155
sa(dp1156
g2
S'20795'
p1157
sg4
L1449732416119L
sg5
g747
sg7
S'System.err'
p1158
sg9
S'20795'
p1159
sg11
S'\tat dalvik.system.NativeStart.main(Native Method)\n'
p1160
sa(dp1161
g2
S'20795'
p1162
sg4
L1449732416159L
sg5
g25
sg7
S'Activity'
p1163
sg9
S'20795'
p1164
sg11
S'onResume com.xdf.ucan.ui.material.MaterialActivity@41c9ad70\n'
p1165
sa(dp1166
g2
S'20795'
p1167
sg4
L1449732416249L
sg5
g25
sg7
S'Activity'
p1168
sg9
S'20795'
p1169
sg11
S'onStop com.mob.tools.MobUIShell@4234e420\n'
p1170
sa(dp1171
g2
S'20795'
p1172
sg4
L1449732416249L
sg5
g25
sg7
S'Activity'
p1173
sg9
S'20795'
p1174
sg11
S'onDestroy com.mob.tools.MobUIShell@4234e420\n'
p1175
sa(dp1176
g2
S'20795'
p1177
sg4
L1449732416289L
sg5
g25
sg7
S'Activity'
p1178
sg9
S'20795'
p1179
sg11
S'onDestroy com.xdf.ucan.wxapi.WXEntryActivity@423b1530\n'
p1180
sa(dp1181
g2
S'20795'
p1182
sg4
L1449732424479L
sg5
g41
sg7
S'Environment'
p1183
sg9
S'20795'
p1184
sg11
S'GetExternalStorageDirectory info:ApplicationInfo{41e9a020 com.xdf.ucan},packagename:com.xdf.ucan,UID:0\n'
p1185
sa(dp1186
g2
S'20795'
p1187
sg4
L1449732424479L
sg5
g6
sg7
S'Environment'
p1188
sg9
S'20795'
p1189
sg11
S'Enviroment getExternalStorageState :/mnt/sdcard\n'
p1190
sa(dp1191
g2
S'20795'
p1192
sg4
L1449732424479L
sg5
g41
sg7
S'Environment'
p1193
sg9
S'20795'
p1194
sg11
S'GetExternalStorageDirectory info:ApplicationInfo{41cd4f58 com.xdf.ucan},packagename:com.xdf.ucan,UID:0\n'
p1195
sa(dp1196
g2
S'20795'
p1197
sg4
L1449732424489L
sg5
g41
sg7
S'Environment'
p1198
sg9
S'20795'
p1199
sg11
S'GetExternalStorageDirectory info:ApplicationInfo{41cde238 com.xdf.ucan},packagename:com.xdf.ucan,UID:0\n'
p1200
sa(dp1201
g2
S'20795'
p1202
sg4
L1449732424489L
sg5
g6
sg7
S'Environment'
p1203
sg9
S'20795'
p1204
sg11
S'Enviroment getExternalStorageState :/mnt/sdcard\n'
p1205
sa(dp1206
g2
S'20795'
p1207
sg4
L1449732424499L
sg5
g41
sg7
S'Environment'
p1208
sg9
S'20795'
p1209
sg11
S'GetExternalStorageDirectory info:ApplicationInfo{423339e8 com.xdf.ucan},packagename:com.xdf.ucan,UID:0\n'
p1210
sa(dp1211
g2
S'20795'
p1212
sg4
L1449732424559L
sg5
g25
sg7
S'Activity'
p1213
sg9
S'20795'
p1214
sg11
S'onPause com.xdf.ucan.ui.material.MaterialActivity@41c9ad70\n'
p1215
sa(dp1216
g2
S'20795'
p1217
sg4
L1449732424589L
sg5
g25
sg7
S'Activity'
p1218
sg9
S'20795'
p1219
sg11
S'onCreate com.mob.tools.MobUIShell@41d86890: null\n'
p1220
sa(dp1221
g2
S'20795'
p1222
sg4
L1449732424599L
sg5
g25
sg7
S'Activity'
p1223
sg9
S'20795'
p1224
sg11
S'onStart com.mob.tools.MobUIShell@41d86890\n'
p1225
sa(dp1226
g2
S'20795'
p1227
sg4
L1449732424609L
sg5
g25
sg7
S'Activity'
p1228
sg9
S'20795'
p1229
sg11
S'onResume com.mob.tools.MobUIShell@41d86890\n'
p1230
sa(dp1231
g2
S'20795'
p1232
sg4
L1449732425709L
sg5
g25
sg7
S'AudioManager'
p1233
sg9
S'20795'
p1234
sg11
S'AudioManager ctor mUseMasterVolume:false\n'
p1235
sa(dp1236
g2
S'20795'
p1237
sg4
L1449732425719L
sg5
g41
sg7
S'System.out'
p1238
sg9
S'20795'
p1239
sg11
S'openPath.getPath():/mnt/sdcard/UPOC/download/\xe3\x80\x90\xe9\xab\x98\xe4\xba\x8c\xe4\xb8\x93\xe6\xa0\x8f\xe3\x80\x91\xe5\xae\x89\xe5\x9f\xb9\xe5\x8a\x9b\xe4\xb9\x8b\xe7\xa3\x81\xe5\x9c\xba\xe5\xaf\xb9\xe7\x94\xb5\xe6\xb5\x81\xe7\x9a\x84\xe4\xbd\x9c\xe7\x94\xa859040.pdf\n'
p1240
sa(dp1241
g2
S'20795'
p1242
sg4
L1449732425719L
sg5
g41
sg7
S'System.out'
p1243
sg9
S'20795'
p1244
sg11
S'resourceExtension:pdf\n'
p1245
sa(dp1246
g2
S'20795'
p1247
sg4
L1449732425719L
sg5
g41
sg7
S'System.out'
p1248
sg9
S'20795'
p1249
sg11
S'resourceUrl:http://xue.xdf.cn/Resources/files/0/DYH000013/3301e09ec3fe4a0992208405d98c3b14.pdf\n'
p1250
sa(dp1251
g2
S'20795'
p1252
sg4
L1449732425719L
sg5
g6
sg7
S'long    '
p1253
sg9
S'20795'
p1254
sg11
S'platform.getName():Wechat\n'
p1255
sa(dp1256
g2
S'20795'
p1257
sg4
L1449732425719L
sg5
g6
sg7
S'long    '
p1258
sg9
S'20795'
p1259
sg11
S'ResourcePreviewUrl:http://student.xue.xdf.cn/resource/iframepreviewUrl/59040\n'
p1260
sa(dp1261
g2
S'20795'
p1262
sg4
L1449732425719L
sg5
g41
sg7
S'Toast   '
p1263
sg9
S'20795'
p1264
sg11
S'the toast owner is: com.xdf.ucan\n'
p1265
sa(dp1266
g2
S'20795'
p1267
sg4
L1449732426049L
sg5
g25
sg7
S'Activity'
p1268
sg9
S'20795'
p1269
sg11
S'onPause com.mob.tools.MobUIShell@41d86890\n'
p1270
sa(dp1271
g2
S'20795'
p1272
sg4
L1449732426099L
sg5
g41
sg7
S'Environment'
p1273
sg9
S'22264'
p1274
sg11
S'GetExternalStorageDirectory info:ApplicationInfo{41f0e5d0 com.xdf.ucan},packagename:com.xdf.ucan,UID:0\n'
p1275
sa(dp1276
g2
S'20795'
p1277
sg4
L1449732426099L
sg5
g6
sg7
S'Environment'
p1278
sg9
S'22264'
p1279
sg11
S'Enviroment getExternalStorageState :/mnt/sdcard\n'
p1280
sa(dp1281
g2
S'20795'
p1282
sg4
L1449732426099L
sg5
g41
sg7
S'Environment'
p1283
sg9
S'22264'
p1284
sg11
S'GetExternalStorageDirectory info:ApplicationInfo{423403b8 com.xdf.ucan},packagename:com.xdf.ucan,UID:0\n'
p1285
sa(dp1286
g2
S'20795'
p1287
sg4
L1449732426109L
sg5
g41
sg7
S'Environment'
p1288
sg9
S'22264'
p1289
sg11
S'GetExternalStorageDirectory info:ApplicationInfo{42349d68 com.xdf.ucan},packagename:com.xdf.ucan,UID:0\n'
p1290
sa(dp1291
g2
S'20795'
p1292
sg4
L1449732426109L
sg5
g6
sg7
S'Environment'
p1293
sg9
S'22264'
p1294
sg11
S'Enviroment getExternalStorageState :/mnt/sdcard\n'
p1295
sa(dp1296
g2
S'20795'
p1297
sg4
L1449732426109L
sg5
g41
sg7
S'Environment'
p1298
sg9
S'22264'
p1299
sg11
S'GetExternalStorageDirectory info:ApplicationInfo{41e771f8 com.xdf.ucan},packagename:com.xdf.ucan,UID:0\n'
p1300
sa(dp1301
g2
S'20795'
p1302
sg4
L1449732426809L
sg5
g747
sg7
S'System.err'
p1303
sg9
S'20795'
p1304
sg11
S'java.lang.Throwable: {"req":"e","errCode":-6,"transaction":"filedata1449732425897"}\n'
p1305
sa(dp1306
g2
S'20795'
p1307
sg4
L1449732426809L
sg5
g747
sg7
S'System.err'
p1308
sg9
S'20795'
p1309
sg11
S'\tat cn.sharesdk.wechat.utils.k.a(Unknown Source)\n'
p1310
sa(dp1311
g2
S'20795'
p1312
sg4
L1449732426809L
sg5
g25
sg7
S'Activity'
p1313
sg9
S'20795'
p1314
sg11
S'onCreate com.xdf.ucan.wxapi.WXEntryActivity@41e99990: null\n'
p1315
sa(dp1316
g2
S'20795'
p1317
sg4
L1449732426819L
sg5
g747
sg7
S'System.err'
p1318
sg9
S'20795'
p1319
sg11
S'\tat cn.sharesdk.wechat.utils.j.a(Unknown Source)\n'
p1320
sa(dp1321
g2
S'20795'
p1322
sg4
L1449732426819L
sg5
g747
sg7
S'System.err'
p1323
sg9
S'20795'
p1324
sg11
S'\tat cn.sharesdk.wechat.utils.WechatHelper.a(Unknown Source)\n'
p1325
sa(dp1326
g2
S'20795'
p1327
sg4
L1449732426819L
sg5
g747
sg7
S'System.err'
p1328
sg9
S'20795'
p1329
sg11
S'\tat cn.sharesdk.wechat.utils.WechatHandlerActivity.onCreate(Unknown Source)\n'
p1330
sa(dp1331
g2
S'20795'
p1332
sg4
L1449732426819L
sg5
g747
sg7
S'System.err'
p1333
sg9
S'20795'
p1334
sg11
S'\tat android.app.Activity.performCreate(Activity.java:5051)\n'
p1335
sa(dp1336
g2
S'20795'
p1337
sg4
L1449732426819L
sg5
g747
sg7
S'System.err'
p1338
sg9
S'20795'
p1339
sg11
S'\tat android.app.Instrumentation.callActivityOnCreate(Instrumentation.java:1101)\n'
p1340
sa(dp1341
g2
S'20795'
p1342
sg4
L1449732426819L
sg5
g747
sg7
S'System.err'
p1343
sg9
S'20795'
p1344
sg11
S'\tat android.app.ActivityThread.performLaunchActivity(ActivityThread.java:2031)\n'
p1345
sa(dp1346
g2
S'20795'
p1347
sg4
L1449732426819L
sg5
g747
sg7
S'System.err'
p1348
sg9
S'20795'
p1349
sg11
S'\tat android.app.ActivityThread.handleLaunchActivity(ActivityThread.java:2092)\n'
p1350
sa(dp1351
g2
S'20795'
p1352
sg4
L1449732426819L
sg5
g747
sg7
S'System.err'
p1353
sg9
S'20795'
p1354
sg11
S'\tat android.app.ActivityThread.access$600(ActivityThread.java:133)\n'
p1355
sa(dp1356
g2
S'20795'
p1357
sg4
L1449732426819L
sg5
g747
sg7
S'System.err'
p1358
sg9
S'20795'
p1359
sg11
S'\tat android.app.ActivityThread$H.handleMessage(ActivityThread.java:1203)\n'
p1360
sa(dp1361
g2
S'20795'
p1362
sg4
L1449732426829L
sg5
g747
sg7
S'System.err'
p1363
sg9
S'20795'
p1364
sg11
S'\tat android.os.Handler.dispatchMessage(Handler.java:99)\n'
p1365
sa(dp1366
g2
S'20795'
p1367
sg4
L1449732426829L
sg5
g747
sg7
S'System.err'
p1368
sg9
S'20795'
p1369
sg11
S'\tat android.os.Looper.loop(Looper.java:137)\n'
p1370
sa(dp1371
g2
S'20795'
p1372
sg4
L1449732426829L
sg5
g747
sg7
S'System.err'
p1373
sg9
S'20795'
p1374
sg11
S'\tat android.app.ActivityThread.main(ActivityThread.java:4802)\n'
p1375
sa(dp1376
g2
S'20795'
p1377
sg4
L1449732426829L
sg5
g747
sg7
S'System.err'
p1378
sg9
S'20795'
p1379
sg11
S'\tat java.lang.reflect.Method.invokeNative(Native Method)\n'
p1380
sa(dp1381
g2
S'20795'
p1382
sg4
L1449732426829L
sg5
g747
sg7
S'System.err'
p1383
sg9
S'20795'
p1384
sg11
S'\tat java.lang.reflect.Method.invoke(Method.java:511)\n'
p1385
sa(dp1386
g2
S'20795'
p1387
sg4
L1449732426829L
sg5
g747
sg7
S'System.err'
p1388
sg9
S'20795'
p1389
sg11
S'\tat com.android.internal.os.ZygoteInit$MethodAndArgsCaller.run(ZygoteInit.java:809)\n'
p1390
sa(dp1391
g2
S'20795'
p1392
sg4
L1449732426839L
sg5
g747
sg7
S'System.err'
p1393
sg9
S'20795'
p1394
sg11
S'\tat com.android.internal.os.ZygoteInit.main(ZygoteInit.java:576)\n'
p1395
sa(dp1396
g2
S'20795'
p1397
sg4
L1449732426839L
sg5
g747
sg7
S'System.err'
p1398
sg9
S'20795'
p1399
sg11
S'\tat dalvik.system.NativeStart.main(Native Method)\n'
p1400
sa(dp1401
g2
S'20795'
p1402
sg4
L1449732426939L
sg5
g25
sg7
S'Activity'
p1403
sg9
S'20795'
p1404
sg11
S'onResume com.xdf.ucan.ui.material.MaterialActivity@41c9ad70\n'
p1405
sa(dp1406
g2
S'20795'
p1407
sg4
L1449732426959L
sg5
g6
sg7
S'cn.edu.nju.ise.kikandroid'
p1408
sg9
S'20863'
p1409
sg11
S'Screenshot:1449732426973\n'
p1410
sa(dp1411
g2
S'20795'
p1412
sg4
L1449732427049L
sg5
g25
sg7
S'Activity'
p1413
sg9
S'20795'
p1414
sg11
S'onStop com.mob.tools.MobUIShell@41d86890\n'
p1415
sa(dp1416
g2
S'20795'
p1417
sg4
L1449732427059L
sg5
g25
sg7
S'Activity'
p1418
sg9
S'20795'
p1419
sg11
S'onDestroy com.mob.tools.MobUIShell@41d86890\n'
p1420
sa(dp1421
g2
S'20795'
p1422
sg4
L1449732427129L
sg5
g41
sg7
S'Environment'
p1423
sg9
S'22264'
p1424
sg11
S'GetExternalStorageDirectory info:ApplicationInfo{422633f0 com.xdf.ucan},packagename:com.xdf.ucan,UID:0\n'
p1425
sa(dp1426
g2
S'20795'
p1427
sg4
L1449732427129L
sg5
g6
sg7
S'Environment'
p1428
sg9
S'22264'
p1429
sg11
S'Enviroment getExternalStorageState :/mnt/sdcard\n'
p1430
sa(dp1431
g2
S'20795'
p1432
sg4
L1449732427129L
sg5
g41
sg7
S'Environment'
p1433
sg9
S'22264'
p1434
sg11
S'GetExternalStorageDirectory info:ApplicationInfo{41cd27f8 com.xdf.ucan},packagename:com.xdf.ucan,UID:0\n'
p1435
sa(dp1436
g2
S'20795'
p1437
sg4
L1449732427129L
sg5
g25
sg7
S'Activity'
p1438
sg9
S'20795'
p1439
sg11
S'onDestroy com.xdf.ucan.wxapi.WXEntryActivity@41e99990\n'
p1440
sa(dp1441
g2
S'20795'
p1442
sg4
L1449732427189L
sg5
g6
sg7
S'dalvikvm'
p1443
sg9
S'20795'
p1444
sg11
S'GC_FOR_ALLOC freed 1436K, 31% free 18297K/26183K, paused 60ms, total 60ms\n'
p1445
sa(dp1446
g2
S'20795'
p1447
sg4
L1449732427219L
sg5
g41
sg7
S'Environment'
p1448
sg9
S'22264'
p1449
sg11
S'GetExternalStorageDirectory info:ApplicationInfo{423977b8 com.xdf.ucan},packagename:com.xdf.ucan,UID:0\n'
p1450
sa(dp1451
g2
S'20795'
p1452
sg4
L1449732427219L
sg5
g6
sg7
S'Environment'
p1453
sg9
S'22264'
p1454
sg11
S'Enviroment getExternalStorageState :/mnt/sdcard\n'
p1455
sa(dp1456
g2
S'20795'
p1457
sg4
L1449732427219L
sg5
g41
sg7
S'Environment'
p1458
sg9
S'22264'
p1459
sg11
S'GetExternalStorageDirectory info:ApplicationInfo{4235d2c8 com.xdf.ucan},packagename:com.xdf.ucan,UID:0\n'
p1460
sa(dp1461
g2
S'20795'
p1462
sg4
L1449732427259L
sg5
g6
sg7
S'dalvikvm'
p1463
sg9
S'20797'
p1464
sg11
S'GC_CONCURRENT freed 176K, 23% free 20168K/26183K, paused 12ms+6ms, total 55ms\n'
p1465
sa(dp1466
g2
S'20795'
p1467
sg4
L1449732427259L
sg5
g6
sg7
S'dalvikvm'
p1468
sg9
S'22264'
p1469
sg11
S'WAIT_FOR_CONCURRENT_GC blocked 31ms\n'
p1470
sa(dp1471
g2
S'20795'
p1472
sg4
L1449732427259L
sg5
g6
sg7
S'dalvikvm'
p1473
sg9
S'20997'
p1474
sg11
S'WAIT_FOR_CONCURRENT_GC blocked 22ms\n'
p1475
sa(dp1476
g2
S'20795'
p1477
sg4
L1449732427259L
sg5
g6
sg7
S'dalvikvm'
p1478
sg9
S'20795'
p1479
sg11
S'WAIT_FOR_CONCURRENT_GC blocked 24ms\n'
p1480
sa(dp1481
g2
S'20795'
p1482
sg4
L1449732427299L
sg5
g6
sg7
S'dalvikvm'
p1483
sg9
S'20795'
p1484
sg11
S'GC_FOR_ALLOC freed 1K, 23% free 20167K/26183K, paused 31ms, total 31ms\n'
p1485
sa(dp1486
g2
S'20795'
p1487
sg4
L1449732427299L
sg5
g41
sg7
S'dalvikvm-heap'
p1488
sg9
S'20795'
p1489
sg11
S'Grow heap (frag case) to 24.067MB for 2073616-byte allocation\n'
p1490
sa(dp1491
g2
S'20795'
p1492
sg4
L1449732427359L
sg5
g6
sg7
S'dalvikvm'
p1493
sg9
S'20797'
p1494
sg11
S'GC_CONCURRENT freed 2082K, 29% free 20172K/28231K, paused 13ms+9ms, total 62ms\n'
p1495
sa(dp1496
g2
S'20795'
p1497
sg4
L1449732433059L
sg5
g41
sg7
S'Environment'
p1498
sg9
S'20795'
p1499
sg11
S'GetExternalStorageDirectory info:ApplicationInfo{42388a30 com.xdf.ucan},packagename:com.xdf.ucan,UID:0\n'
p1500
sa(dp1501
g2
S'20795'
p1502
sg4
L1449732433059L
sg5
g6
sg7
S'Environment'
p1503
sg9
S'20795'
p1504
sg11
S'Enviroment getExternalStorageState :/mnt/sdcard\n'
p1505
sa(dp1506
g2
S'20795'
p1507
sg4
L1449732433059L
sg5
g41
sg7
S'Environment'
p1508
sg9
S'20795'
p1509
sg11
S'GetExternalStorageDirectory info:ApplicationInfo{4235d2c8 com.xdf.ucan},packagename:com.xdf.ucan,UID:0\n'
p1510
sa(dp1511
g2
S'20795'
p1512
sg4
L1449732433069L
sg5
g41
sg7
S'Environment'
p1513
sg9
S'20795'
p1514
sg11
S'GetExternalStorageDirectory info:ApplicationInfo{4235cd68 com.xdf.ucan},packagename:com.xdf.ucan,UID:0\n'
p1515
sa(dp1516
g2
S'20795'
p1517
sg4
L1449732433069L
sg5
g6
sg7
S'Environment'
p1518
sg9
S'20795'
p1519
sg11
S'Enviroment getExternalStorageState :/mnt/sdcard\n'
p1520
sa(dp1521
g2
S'20795'
p1522
sg4
L1449732433069L
sg5
g41
sg7
S'Environment'
p1523
sg9
S'20795'
p1524
sg11
S'GetExternalStorageDirectory info:ApplicationInfo{4235b338 com.xdf.ucan},packagename:com.xdf.ucan,UID:0\n'
p1525
sa(dp1526
g2
S'20795'
p1527
sg4
L1449732433129L
sg5
g25
sg7
S'Activity'
p1528
sg9
S'20795'
p1529
sg11
S'onPause com.xdf.ucan.ui.material.MaterialActivity@41c9ad70\n'
p1530
sa(dp1531
g2
S'20795'
p1532
sg4
L1449732433159L
sg5
g25
sg7
S'Activity'
p1533
sg9
S'20795'
p1534
sg11
S'onCreate com.mob.tools.MobUIShell@4223f978: null\n'
p1535
sa(dp1536
g2
S'20795'
p1537
sg4
L1449732433189L
sg5
g25
sg7
S'Activity'
p1538
sg9
S'20795'
p1539
sg11
S'onStart com.mob.tools.MobUIShell@4223f978\n'
p1540
sa(dp1541
g2
S'20795'
p1542
sg4
L1449732433189L
sg5
g25
sg7
S'Activity'
p1543
sg9
S'20795'
p1544
sg11
S'onResume com.mob.tools.MobUIShell@4223f978\n'
p1545
sa(dp1546
g2
S'20795'
p1547
sg4
L1449732435259L
sg5
g25
sg7
S'AudioManager'
p1548
sg9
S'20795'
p1549
sg11
S'AudioManager ctor mUseMasterVolume:false\n'
p1550
sa(dp1551
g2
S'20795'
p1552
sg4
L1449732435269L
sg5
g41
sg7
S'Toast   '
p1553
sg9
S'20795'
p1554
sg11
S'the toast owner is: com.xdf.ucan\n'
p1555
sa(dp1556
g2
S'20795'
p1557
sg4
L1449732435279L
sg5
g41
sg7
S'System.out'
p1558
sg9
S'20795'
p1559
sg11
S'openPath.getPath():/mnt/sdcard/UPOC/download/\xe3\x80\x90\xe9\xab\x98\xe4\xba\x8c\xe4\xb8\x93\xe6\xa0\x8f\xe3\x80\x91\xe5\xae\x89\xe5\x9f\xb9\xe5\x8a\x9b\xe4\xb9\x8b\xe7\xa3\x81\xe5\x9c\xba\xe5\xaf\xb9\xe7\x94\xb5\xe6\xb5\x81\xe7\x9a\x84\xe4\xbd\x9c\xe7\x94\xa859040.pdf\n'
p1560
sa(dp1561
g2
S'20795'
p1562
sg4
L1449732435279L
sg5
g41
sg7
S'System.out'
p1563
sg9
S'20795'
p1564
sg11
S'resourceExtension:pdf\n'
p1565
sa(dp1566
g2
S'20795'
p1567
sg4
L1449732435279L
sg5
g41
sg7
S'System.out'
p1568
sg9
S'20795'
p1569
sg11
S'resourceUrl:http://xue.xdf.cn/Resources/files/0/DYH000013/3301e09ec3fe4a0992208405d98c3b14.pdf\n'
p1570
sa(dp1571
g2
S'20795'
p1572
sg4
L1449732435279L
sg5
g6
sg7
S'long    '
p1573
sg9
S'20795'
p1574
sg11
S'platform.getName():WechatMoments\n'
p1575
sa(dp1576
g2
S'20795'
p1577
sg4
L1449732435279L
sg5
g6
sg7
S'long    '
p1578
sg9
S'20795'
p1579
sg11
S'ResourcePreviewUrl:http://student.xue.xdf.cn/resource/iframepreviewUrl/59040\n'
p1580
sa(dp1581
g2
S'20795'
p1582
sg4
L1449732435369L
sg5
g6
sg7
S'dalvikvm'
p1583
sg9
S'22776'
p1584
sg11
S'WAIT_FOR_CONCURRENT_GC blocked 0ms\n'
p1585
sa(dp1586
g2
S'20795'
p1587
sg4
L1449732435479L
sg5
g6
sg7
S'dalvikvm'
p1588
sg9
S'22776'
p1589
sg11
S'GC_EXPLICIT freed 2898K, 36% free 18159K/28231K, paused 3ms+21ms, total 108ms\n'
p1590
sa(dp1591
g2
S'20795'
p1592
sg4
L1449732435699L
sg5
g25
sg7
S'Activity'
p1593
sg9
S'20795'
p1594
sg11
S'onPause com.mob.tools.MobUIShell@4223f978\n'
p1595
sa(dp1596
g2
S'20795'
p1597
sg4
L1449732435769L
sg5
g25
sg7
S'Activity'
p1598
sg9
S'20795'
p1599
sg11
S'onResume com.xdf.ucan.ui.material.MaterialActivity@41c9ad70\n'
p1600
sa(dp1601
g2
S'20795'
p1602
sg4
L1449732435779L
sg5
g25
sg7
S'Activity'
p1603
sg9
S'20795'
p1604
sg11
S'onPause com.xdf.ucan.ui.material.MaterialActivity@41c9ad70\n'
p1605
sa(dp1606
g2
S'20795'
p1607
sg4
L1449732435839L
sg5
g25
sg7
S'Activity'
p1608
sg9
S'20795'
p1609
sg11
S'onStop com.mob.tools.MobUIShell@4223f978\n'
p1610
sa(dp1611
g2
S'20795'
p1612
sg4
L1449732435839L
sg5
g25
sg7
S'Activity'
p1613
sg9
S'20795'
p1614
sg11
S'onDestroy com.mob.tools.MobUIShell@4223f978\n'
p1615
sa(dp1616
g2
S'20795'
p1617
sg4
L1449732436019L
sg5
g41
sg7
S'dalvikvm'
p1618
sg9
S'20801'
p1619
sg11
S'Jit: resizing JitTable from 8192 to 16384\n'
p1620
sa(dp1621
g2
S'20795'
p1622
sg4
L1449732436279L
sg5
g41
sg7
S'Environment'
p1623
sg9
S'22264'
p1624
sg11
S'GetExternalStorageDirectory info:ApplicationInfo{4230c4a8 com.xdf.ucan},packagename:com.xdf.ucan,UID:0\n'
p1625
sa(dp1626
g2
S'20795'
p1627
sg4
L1449732436279L
sg5
g6
sg7
S'Environment'
p1628
sg9
S'22264'
p1629
sg11
S'Enviroment getExternalStorageState :/mnt/sdcard\n'
p1630
sa(dp1631
g2
S'20795'
p1632
sg4
L1449732436289L
sg5
g41
sg7
S'Environment'
p1633
sg9
S'22264'
p1634
sg11
S'GetExternalStorageDirectory info:ApplicationInfo{422f9e78 com.xdf.ucan},packagename:com.xdf.ucan,UID:0\n'
p1635
sa(dp1636
g2
S'20795'
p1637
sg4
L1449732436299L
sg5
g41
sg7
S'Environment'
p1638
sg9
S'22264'
p1639
sg11
S'GetExternalStorageDirectory info:ApplicationInfo{422f26f0 com.xdf.ucan},packagename:com.xdf.ucan,UID:0\n'
p1640
sa(dp1641
g2
S'20795'
p1642
sg4
L1449732436299L
sg5
g6
sg7
S'Environment'
p1643
sg9
S'22264'
p1644
sg11
S'Enviroment getExternalStorageState :/mnt/sdcard\n'
p1645
sa(dp1646
g2
S'20795'
p1647
sg4
L1449732436309L
sg5
g41
sg7
S'Environment'
p1648
sg9
S'22264'
p1649
sg11
S'GetExternalStorageDirectory info:ApplicationInfo{422da680 com.xdf.ucan},packagename:com.xdf.ucan,UID:0\n'
p1650
sa(dp1651
g2
S'20795'
p1652
sg4
L1449732436479L
sg5
g747
sg7
S'System.err'
p1653
sg9
S'20795'
p1654
sg11
S'java.lang.Throwable: {"req":"e","errCode":-6,"transaction":"webpage1449732435571"}\n'
p1655
sa(dp1656
g2
S'20795'
p1657
sg4
L1449732436479L
sg5
g747
sg7
S'System.err'
p1658
sg9
S'20795'
p1659
sg11
S'\tat cn.sharesdk.wechat.utils.k.a(Unknown Source)\n'
p1660
sa(dp1661
g2
S'20795'
p1662
sg4
L1449732436479L
sg5
g747
sg7
S'System.err'
p1663
sg9
S'20795'
p1664
sg11
S'\tat cn.sharesdk.wechat.utils.j.a(Unknown Source)\n'
p1665
sa(dp1666
g2
S'20795'
p1667
sg4
L1449732436479L
sg5
g747
sg7
S'System.err'
p1668
sg9
S'20795'
p1669
sg11
S'\tat cn.sharesdk.wechat.utils.WechatHelper.a(Unknown Source)\n'
p1670
sa(dp1671
g2
S'20795'
p1672
sg4
L1449732436479L
sg5
g747
sg7
S'System.err'
p1673
sg9
S'20795'
p1674
sg11
S'\tat cn.sharesdk.wechat.utils.WechatHandlerActivity.onCreate(Unknown Source)\n'
p1675
sa(dp1676
g2
S'20795'
p1677
sg4
L1449732436479L
sg5
g747
sg7
S'System.err'
p1678
sg9
S'20795'
p1679
sg11
S'\tat android.app.Activity.performCreate(Activity.java:5051)\n'
p1680
sa(dp1681
g2
S'20795'
p1682
sg4
L1449732436479L
sg5
g747
sg7
S'System.err'
p1683
sg9
S'20795'
p1684
sg11
S'\tat android.app.Instrumentation.callActivityOnCreate(Instrumentation.java:1101)\n'
p1685
sa(dp1686
g2
S'20795'
p1687
sg4
L1449732436479L
sg5
g25
sg7
S'Activity'
p1688
sg9
S'20795'
p1689
sg11
S'onCreate com.xdf.ucan.wxapi.WXEntryActivity@423b1530: null\n'
p1690
sa(dp1691
g2
S'20795'
p1692
sg4
L1449732436489L
sg5
g747
sg7
S'System.err'
p1693
sg9
S'20795'
p1694
sg11
S'\tat android.app.ActivityThread.performLaunchActivity(ActivityThread.java:2031)\n'
p1695
sa(dp1696
g2
S'20795'
p1697
sg4
L1449732436489L
sg5
g747
sg7
S'System.err'
p1698
sg9
S'20795'
p1699
sg11
S'\tat android.app.ActivityThread.handleLaunchActivity(ActivityThread.java:2092)\n'
p1700
sa(dp1701
g2
S'20795'
p1702
sg4
L1449732436489L
sg5
g747
sg7
S'System.err'
p1703
sg9
S'20795'
p1704
sg11
S'\tat android.app.ActivityThread.access$600(ActivityThread.java:133)\n'
p1705
sa(dp1706
g2
S'20795'
p1707
sg4
L1449732436489L
sg5
g747
sg7
S'System.err'
p1708
sg9
S'20795'
p1709
sg11
S'\tat android.app.ActivityThread$H.handleMessage(ActivityThread.java:1203)\n'
p1710
sa(dp1711
g2
S'20795'
p1712
sg4
L1449732436489L
sg5
g747
sg7
S'System.err'
p1713
sg9
S'20795'
p1714
sg11
S'\tat android.os.Handler.dispatchMessage(Handler.java:99)\n'
p1715
sa(dp1716
g2
S'20795'
p1717
sg4
L1449732436489L
sg5
g747
sg7
S'System.err'
p1718
sg9
S'20795'
p1719
sg11
S'\tat android.os.Looper.loop(Looper.java:137)\n'
p1720
sa(dp1721
g2
S'20795'
p1722
sg4
L1449732436489L
sg5
g747
sg7
S'System.err'
p1723
sg9
S'20795'
p1724
sg11
S'\tat android.app.ActivityThread.main(ActivityThread.java:4802)\n'
p1725
sa(dp1726
g2
S'20795'
p1727
sg4
L1449732436489L
sg5
g747
sg7
S'System.err'
p1728
sg9
S'20795'
p1729
sg11
S'\tat java.lang.reflect.Method.invokeNative(Native Method)\n'
p1730
sa(dp1731
g2
S'20795'
p1732
sg4
L1449732436489L
sg5
g747
sg7
S'System.err'
p1733
sg9
S'20795'
p1734
sg11
S'\tat java.lang.reflect.Method.invoke(Method.java:511)\n'
p1735
sa(dp1736
g2
S'20795'
p1737
sg4
L1449732436489L
sg5
g747
sg7
S'System.err'
p1738
sg9
S'20795'
p1739
sg11
S'\tat com.android.internal.os.ZygoteInit$MethodAndArgsCaller.run(ZygoteInit.java:809)\n'
p1740
sa(dp1741
g2
S'20795'
p1742
sg4
L1449732436489L
sg5
g747
sg7
S'System.err'
p1743
sg9
S'20795'
p1744
sg11
S'\tat com.android.internal.os.ZygoteInit.main(ZygoteInit.java:576)\n'
p1745
sa(dp1746
g2
S'20795'
p1747
sg4
L1449732436489L
sg5
g747
sg7
S'System.err'
p1748
sg9
S'20795'
p1749
sg11
S'\tat dalvik.system.NativeStart.main(Native Method)\n'
p1750
sa(dp1751
g2
S'20795'
p1752
sg4
L1449732436539L
sg5
g25
sg7
S'Activity'
p1753
sg9
S'20795'
p1754
sg11
S'onResume com.xdf.ucan.ui.material.MaterialActivity@41c9ad70\n'
p1755
sa(dp1756
g2
S'20795'
p1757
sg4
L1449732436569L
sg5
g25
sg7
S'Activity'
p1758
sg9
S'20795'
p1759
sg11
S'onDestroy com.xdf.ucan.wxapi.WXEntryActivity@423b1530\n'
p1760
sa(dp1761
g2
S'20795'
p1762
sg4
L1449732437019L
sg5
g6
sg7
S'cn.edu.nju.ise.kikandroid'
p1763
sg9
S'20863'
p1764
sg11
S'Screenshot:1449732437034\n'
p1765
sa(dp1766
g2
S'20795'
p1767
sg4
L1449732437109L
sg5
g6
sg7
S'dalvikvm'
p1768
sg9
S'20795'
p1769
sg11
S'GC_FOR_ALLOC freed 543K, 36% free 18199K/28231K, paused 41ms, total 41ms\n'
p1770
sa(dp1771
g2
S'20795'
p1772
sg4
L1449732437159L
sg5
g6
sg7
S'dalvikvm'
p1773
sg9
S'20797'
p1774
sg11
S'GC_CONCURRENT freed 137K, 29% free 20087K/28231K, paused 2ms+5ms, total 40ms\n'
p1775
sa(dp1776
g2
S'20795'
p1777
sg4
L1449732437159L
sg5
g6
sg7
S'dalvikvm'
p1778
sg9
S'20795'
p1779
sg11
S'WAIT_FOR_CONCURRENT_GC blocked 8ms\n'
p1780
sa(dp1781
g2
S'20795'
p1782
sg4
L1449732437209L
sg5
g6
sg7
S'dalvikvm'
p1783
sg9
S'20797'
p1784
sg11
S'GC_CONCURRENT freed 2026K, 29% free 20092K/28231K, paused 3ms+6ms, total 40ms\n'
p1785
sa(dp1786
g2
S'20795'
p1787
sg4
L1449732437329L
sg5
g41
sg7
S'Environment'
p1788
sg9
S'22264'
p1789
sg11
S'GetExternalStorageDirectory info:ApplicationInfo{41d61ed8 com.xdf.ucan},packagename:com.xdf.ucan,UID:0\n'
p1790
sa(dp1791
g2
S'20795'
p1792
sg4
L1449732437329L
sg5
g6
sg7
S'Environment'
p1793
sg9
S'22264'
p1794
sg11
S'Enviroment getExternalStorageState :/mnt/sdcard\n'
p1795
sa(dp1796
g2
S'20795'
p1797
sg4
L1449732437339L
sg5
g41
sg7
S'Environment'
p1798
sg9
S'22264'
p1799
sg11
S'GetExternalStorageDirectory info:ApplicationInfo{41ccb1c0 com.xdf.ucan},packagename:com.xdf.ucan,UID:0\n'
p1800
sa(dp1801
g2
S'20795'
p1802
sg4
L1449732437349L
sg5
g41
sg7
S'Environment'
p1803
sg9
S'22264'
p1804
sg11
S'GetExternalStorageDirectory info:ApplicationInfo{423977b8 com.xdf.ucan},packagename:com.xdf.ucan,UID:0\n'
p1805
sa(dp1806
g2
S'20795'
p1807
sg4
L1449732437359L
sg5
g6
sg7
S'Environment'
p1808
sg9
S'22264'
p1809
sg11
S'Enviroment getExternalStorageState :/mnt/sdcard\n'
p1810
sa(dp1811
g2
S'20795'
p1812
sg4
L1449732437359L
sg5
g41
sg7
S'Environment'
p1813
sg9
S'22264'
p1814
sg11
S'GetExternalStorageDirectory info:ApplicationInfo{4235cd68 com.xdf.ucan},packagename:com.xdf.ucan,UID:0\n'
p1815
sa(dp1816
g2
S'20795'
p1817
sg4
L1449732438349L
sg5
g41
sg7
S'Environment'
p1818
sg9
S'20795'
p1819
sg11
S'GetExternalStorageDirectory info:ApplicationInfo{4235bc58 com.xdf.ucan},packagename:com.xdf.ucan,UID:0\n'
p1820
sa(dp1821
g2
S'20795'
p1822
sg4
L1449732438349L
sg5
g6
sg7
S'Environment'
p1823
sg9
S'20795'
p1824
sg11
S'Enviroment getExternalStorageState :/mnt/sdcard\n'
p1825
sa(dp1826
g2
S'20795'
p1827
sg4
L1449732438359L
sg5
g41
sg7
S'Environment'
p1828
sg9
S'20795'
p1829
sg11
S'GetExternalStorageDirectory info:ApplicationInfo{4232bdb0 com.xdf.ucan},packagename:com.xdf.ucan,UID:0\n'
p1830
sa(dp1831
g2
S'20795'
p1832
sg4
L1449732438359L
sg5
g41
sg7
S'Environment'
p1833
sg9
S'20795'
p1834
sg11
S'GetExternalStorageDirectory info:ApplicationInfo{4230c4a8 com.xdf.ucan},packagename:com.xdf.ucan,UID:0\n'
p1835
sa(dp1836
g2
S'20795'
p1837
sg4
L1449732438359L
sg5
g6
sg7
S'Environment'
p1838
sg9
S'20795'
p1839
sg11
S'Enviroment getExternalStorageState :/mnt/sdcard\n'
p1840
sa(dp1841
g2
S'20795'
p1842
sg4
L1449732438369L
sg5
g41
sg7
S'Environment'
p1843
sg9
S'20795'
p1844
sg11
S'GetExternalStorageDirectory info:ApplicationInfo{422f9e78 com.xdf.ucan},packagename:com.xdf.ucan,UID:0\n'
p1845
sa(dp1846
g2
S'20795'
p1847
sg4
L1449732438569L
sg5
g25
sg7
S'Activity'
p1848
sg9
S'20795'
p1849
sg11
S'onPause com.xdf.ucan.ui.material.MaterialActivity@41c9ad70\n'
p1850
sa(dp1851
g2
S'20795'
p1852
sg4
L1449732438589L
sg5
g25
sg7
S'Activity'
p1853
sg9
S'20795'
p1854
sg11
S'onCreate com.mob.tools.MobUIShell@4232ddf0: null\n'
p1855
sa(dp1856
g2
S'20795'
p1857
sg4
L1449732438609L
sg5
g25
sg7
S'Activity'
p1858
sg9
S'20795'
p1859
sg11
S'onStart com.mob.tools.MobUIShell@4232ddf0\n'
p1860
sa(dp1861
g2
S'20795'
p1862
sg4
L1449732438609L
sg5
g25
sg7
S'Activity'
p1863
sg9
S'20795'
p1864
sg11
S'onResume com.mob.tools.MobUIShell@4232ddf0\n'
p1865
sa(dp1866
g2
S'20795'
p1867
sg4
L1449732439399L
sg5
g25
sg7
S'AudioManager'
p1868
sg9
S'20795'
p1869
sg11
S'AudioManager ctor mUseMasterVolume:false\n'
p1870
sa(dp1871
g2
S'20795'
p1872
sg4
L1449732439399L
sg5
g41
sg7
S'Toast   '
p1873
sg9
S'20795'
p1874
sg11
S'the toast owner is: com.xdf.ucan\n'
p1875
sa(dp1876
g2
S'20795'
p1877
sg4
L1449732439409L
sg5
g41
sg7
S'System.out'
p1878
sg9
S'20795'
p1879
sg11
S'openPath.getPath():/mnt/sdcard/UPOC/download/\xe3\x80\x90\xe9\xab\x98\xe4\xba\x8c\xe4\xb8\x93\xe6\xa0\x8f\xe3\x80\x91\xe5\xae\x89\xe5\x9f\xb9\xe5\x8a\x9b\xe4\xb9\x8b\xe7\xa3\x81\xe5\x9c\xba\xe5\xaf\xb9\xe7\x94\xb5\xe6\xb5\x81\xe7\x9a\x84\xe4\xbd\x9c\xe7\x94\xa859040.pdf\n'
p1880
sa(dp1881
g2
S'20795'
p1882
sg4
L1449732439409L
sg5
g41
sg7
S'System.out'
p1883
sg9
S'20795'
p1884
sg11
S'resourceExtension:pdf\n'
p1885
sa(dp1886
g2
S'20795'
p1887
sg4
L1449732439409L
sg5
g41
sg7
S'System.out'
p1888
sg9
S'20795'
p1889
sg11
S'resourceUrl:http://xue.xdf.cn/Resources/files/0/DYH000013/3301e09ec3fe4a0992208405d98c3b14.pdf\n'
p1890
sa(dp1891
g2
S'20795'
p1892
sg4
L1449732439409L
sg5
g6
sg7
S'long    '
p1893
sg9
S'20795'
p1894
sg11
S'platform.getName():QQ\n'
p1895
sa(dp1896
g2
S'20795'
p1897
sg4
L1449732439409L
sg5
g6
sg7
S'long    '
p1898
sg9
S'20795'
p1899
sg11
S'ResourcePreviewUrl:http://student.xue.xdf.cn/resource/iframepreviewUrl/59040\n'
p1900
sa(dp1901
g2
S'20795'
p1902
sg4
L1449732439639L
sg5
g25
sg7
S'Activity'
p1903
sg9
S'20795'
p1904
sg11
S'onPause com.mob.tools.MobUIShell@4232ddf0\n'
p1905
sa(dp1906
g2
S'20795'
p1907
sg4
L1449732439689L
sg5
g25
sg7
S'Activity'
p1908
sg9
S'20795'
p1909
sg11
S'onCreate com.mob.tools.MobUIShell@41e1d310: null\n'
p1910
sa(dp1911
g2
S'20795'
p1912
sg4
L1449732439719L
sg5
g25
sg7
S'Activity'
p1913
sg9
S'20795'
p1914
sg11
S'onStart com.mob.tools.MobUIShell@41e1d310\n'
p1915
sa(dp1916
g2
S'20795'
p1917
sg4
L1449732439719L
sg5
g25
sg7
S'Activity'
p1918
sg9
S'20795'
p1919
sg11
S'onResume com.mob.tools.MobUIShell@41e1d310\n'
p1920
sa(dp1921
g2
S'20795'
p1922
sg4
L1449732439759L
sg5
g25
sg7
S'Activity'
p1923
sg9
S'20795'
p1924
sg11
S'onPause com.mob.tools.MobUIShell@41e1d310\n'
p1925
sa(dp1926
g2
S'20795'
p1927
sg4
L1449732439839L
sg5
g25
sg7
S'Activity'
p1928
sg9
S'20795'
p1929
sg11
S'onStop com.mob.tools.MobUIShell@4232ddf0\n'
p1930
sa(dp1931
g2
S'20795'
p1932
sg4
L1449732439849L
sg5
g25
sg7
S'Activity'
p1933
sg9
S'20795'
p1934
sg11
S'onDestroy com.mob.tools.MobUIShell@4232ddf0\n'
p1935
sa(dp1936
g2
S'20795'
p1937
sg4
L1449732440369L
sg5
g41
sg7
S'Environment'
p1938
sg9
S'22264'
p1939
sg11
S'GetExternalStorageDirectory info:ApplicationInfo{41dd4510 com.xdf.ucan},packagename:com.xdf.ucan,UID:0\n'
p1940
sa(dp1941
g2
S'20795'
p1942
sg4
L1449732440369L
sg5
g6
sg7
S'Environment'
p1943
sg9
S'22264'
p1944
sg11
S'Enviroment getExternalStorageState :/mnt/sdcard\n'
p1945
sa(dp1946
g2
S'20795'
p1947
sg4
L1449732440379L
sg5
g41
sg7
S'Environment'
p1948
sg9
S'22264'
p1949
sg11
S'GetExternalStorageDirectory info:ApplicationInfo{41e7c790 com.xdf.ucan},packagename:com.xdf.ucan,UID:0\n'
p1950
sa(dp1951
g2
S'20795'
p1952
sg4
L1449732440389L
sg5
g41
sg7
S'Environment'
p1953
sg9
S'22264'
p1954
sg11
S'GetExternalStorageDirectory info:ApplicationInfo{41ebfa78 com.xdf.ucan},packagename:com.xdf.ucan,UID:0\n'
p1955
sa(dp1956
g2
S'20795'
p1957
sg4
L1449732440389L
sg5
g6
sg7
S'Environment'
p1958
sg9
S'22264'
p1959
sg11
S'Enviroment getExternalStorageState :/mnt/sdcard\n'
p1960
sa(dp1961
g2
S'20795'
p1962
sg4
L1449732440389L
sg5
g41
sg7
S'Environment'
p1963
sg9
S'22264'
p1964
sg11
S'GetExternalStorageDirectory info:ApplicationInfo{423815a0 com.xdf.ucan},packagename:com.xdf.ucan,UID:0\n'
p1965
sa(dp1966
g2
S'20795'
p1967
sg4
L1449732441319L
sg5
g25
sg7
S'Activity'
p1968
sg9
S'20795'
p1969
sg11
S'onStop com.mob.tools.MobUIShell@41e1d310\n'
p1970
sa(dp1971
g2
S'20795'
p1972
sg4
L1449732441319L
sg5
g25
sg7
S'Activity'
p1973
sg9
S'20795'
p1974
sg11
S'onStop com.xdf.ucan.ui.material.MaterialActivity@41c9ad70\n'
p1975
sa(dp1976
g2
S'20795'
p1977
sg4
L1449732470669L
sg5
g6
sg7
S'cn.edu.nju.ise.kikandroid'
p1978
sg9
S'20863'
p1979
sg11
S'Screenshot:1449732470686\n'
p1980
sa(dp1981
g2
S'20795'
p1982
sg4
L1449732471569L
sg5
g25
sg7
S'Activity'
p1983
sg9
S'20795'
p1984
sg11
S'onStart com.xdf.ucan.ui.material.MaterialActivity@41c9ad70\n'
p1985
sa(dp1986
g2
S'20795'
p1987
sg4
L1449732471599L
sg5
g25
sg7
S'Activity'
p1988
sg9
S'20795'
p1989
sg11
S'onResume com.xdf.ucan.ui.material.MaterialActivity@41c9ad70\n'
p1990
sa(dp1991
g2
S'20795'
p1992
sg4
L1449732471699L
sg5
g25
sg7
S'Activity'
p1993
sg9
S'20795'
p1994
sg11
S'onDestroy com.mob.tools.MobUIShell@41e1d310\n'
p1995
sa(dp1996
g2
S'20795'
p1997
sg4
L1449732471999L
sg5
g6
sg7
S'dalvikvm'
p1998
sg9
S'20795'
p1999
sg11
S'GC_FOR_ALLOC freed 3661K, 36% free 18304K/28231K, paused 48ms, total 48ms\n'
p2000
sa(dp2001
g2
S'20795'
p2002
sg4
L1449732472089L
sg5
g6
sg7
S'dalvikvm'
p2003
sg9
S'20797'
p2004
sg11
S'GC_CONCURRENT freed 193K, 29% free 20135K/28231K, paused 22ms+8ms, total 82ms\n'
p2005
sa(dp2006
g2
S'20795'
p2007
sg4
L1449732472089L
sg5
g6
sg7
S'dalvikvm'
p2008
sg9
S'20795'
p2009
sg11
S'WAIT_FOR_CONCURRENT_GC blocked 20ms\n'
p2010
sa(dp2011
g2
S'20795'
p2012
sg4
L1449732472149L
sg5
g6
sg7
S'dalvikvm'
p2013
sg9
S'20797'
p2014
sg11
S'GC_CONCURRENT freed 2026K, 29% free 20140K/28231K, paused 12ms+5ms, total 58ms\n'
p2015
sa(dp2016
g2
S'20795'
p2017
sg4
L1449732472569L
sg5
g41
sg7
S'Environment'
p2018
sg9
S'22264'
p2019
sg11
S'GetExternalStorageDirectory info:ApplicationInfo{4227c250 com.xdf.ucan},packagename:com.xdf.ucan,UID:0\n'
p2020
sa(dp2021
g2
S'20795'
p2022
sg4
L1449732472569L
sg5
g6
sg7
S'Environment'
p2023
sg9
S'22264'
p2024
sg11
S'Enviroment getExternalStorageState :/mnt/sdcard\n'
p2025
sa(dp2026
g2
S'20795'
p2027
sg4
L1449732472569L
sg5
g41
sg7
S'Environment'
p2028
sg9
S'22264'
p2029
sg11
S'GetExternalStorageDirectory info:ApplicationInfo{4235d2c8 com.xdf.ucan},packagename:com.xdf.ucan,UID:0\n'
p2030
sa(dp2031
g2
S'20795'
p2032
sg4
L1449732472579L
sg5
g41
sg7
S'Environment'
p2033
sg9
S'22264'
p2034
sg11
S'GetExternalStorageDirectory info:ApplicationInfo{4235bc58 com.xdf.ucan},packagename:com.xdf.ucan,UID:0\n'
p2035
sa(dp2036
g2
S'20795'
p2037
sg4
L1449732472579L
sg5
g6
sg7
S'Environment'
p2038
sg9
S'22264'
p2039
sg11
S'Enviroment getExternalStorageState :/mnt/sdcard\n'
p2040
sa(dp2041
g2
S'20795'
p2042
sg4
L1449732472579L
sg5
g41
sg7
S'Environment'
p2043
sg9
S'22264'
p2044
sg11
S'GetExternalStorageDirectory info:ApplicationInfo{42344800 com.xdf.ucan},packagename:com.xdf.ucan,UID:0\n'
p2045
sa(dp2046
g2
S'20795'
p2047
sg4
L1449732475819L
sg5
g25
sg7
S'Activity'
p2048
sg9
S'20795'
p2049
sg11
S'onPause com.xdf.ucan.ui.material.MaterialActivity@41c9ad70\n'
p2050
sa(dp2051
g2
S'20795'
p2052
sg4
L1449732475839L
sg5
g25
sg7
S'Activity'
p2053
sg9
S'20795'
p2054
sg11
S'onStart com.xdf.ucan.ui.material.MaterialListActivity@41c78de0\n'
p2055
sa(dp2056
g2
S'20795'
p2057
sg4
L1449732475839L
sg5
g25
sg7
S'Activity'
p2058
sg9
S'20795'
p2059
sg11
S'onResume com.xdf.ucan.ui.material.MaterialListActivity@41c78de0\n'
p2060
sa(dp2061
g2
S'20795'
p2062
sg4
L1449732476259L
sg5
g25
sg7
S'Activity'
p2063
sg9
S'20795'
p2064
sg11
S'onStop com.xdf.ucan.ui.material.MaterialActivity@41c9ad70\n'
p2065
sa(dp2066
g2
S'20795'
p2067
sg4
L1449732476269L
sg5
g6
sg7
S'long    '
p2068
sg9
S'20795'
p2069
sg11
S'cancle request\xef\xbc\x9acom.xdf.ucan.ui.material.MaterialActivity\n'
p2070
sa(dp2071
g2
S'20795'
p2072
sg4
L1449732476269L
sg5
g25
sg7
S'Activity'
p2073
sg9
S'20795'
p2074
sg11
S'onDestroy com.xdf.ucan.ui.material.MaterialActivity@41c9ad70\n'
p2075
sa(dp2076
g2
S'20795'
p2077
sg4
L1449732478889L
sg5
g6
sg7
S'cn.edu.nju.ise.kikandroid'
p2078
sg9
S'20863'
p2079
sg11
S'Log:1449732478898\n'
p2080
sa(dp2081
g2
S'20795'
p2082
sg4
L1449732478909L
sg5
g6
sg7
S'cn.edu.nju.ise.kikandroid'
p2083
sg9
S'20863'
p2084
sg11
S'Screenshot:1449732478925\n'
p2085
sa(dp2086
g2
S'20795'
p2087
sg4
L1449732478989L
sg5
g6
sg7
S'dalvikvm'
p2088
sg9
S'20795'
p2089
sg11
S'GC_FOR_ALLOC freed 2614K, 36% free 18094K/28231K, paused 35ms, total 38ms\n'
p2090
sa(dp2091
g2
S'20795'
p2092
sg4
L1449732479059L
sg5
g6
sg7
S'dalvikvm'
p2093
sg9
S'20797'
p2094
sg11
S'GC_CONCURRENT freed 22K, 29% free 20096K/28231K, paused 14ms+16ms, total 67ms\n'
p2095
sa(dp2096
g2
S'20795'
p2097
sg4
L1449732479139L
sg5
g6
sg7
S'dalvikvm'
p2098
sg9
S'20797'
p2099
sg11
S'GC_CONCURRENT freed 2026K, 29% free 20101K/28231K, paused 6ms+5ms, total 53ms\n'
p2100
sa(dp2101
g2
S'20795'
p2102
sg4
L1449732479189L
sg5
g747
sg7
S'dalvikvm'
p2103
sg9
S'20863'
p2104
sg11
S'threadid=25: thread exiting with uncaught exception (group=0x4121b588)\n'
p2105
sa(dp2106
g2
S'20795'
p2107
sg4
L1449732479189L
sg5
S'F'
p2108
sg7
S'MobUncaughtExceptionHandler'
p2109
sg9
S'20863'
p2110
sg11
S'null\njava.lang.NullPointerException\n\tat android.app.Instrumentation.finish(Instrumentation.java:191)\n\tat cn.edu.nju.ise.kikandroid.AUTInstrument.quitInstr(AUTInstrument.java:195)\n\tat cn.edu.nju.ise.kikandroid.AUTInstrument.startServer(AUTInstrument.java:161)\n\tat cn.edu.nju.ise.kikandroid.AUTInstrument$1.run(AUTInstrument.java:107)\n\tat java.lang.Thread.run(Thread.java:856)\n'
p2111
sa(dp2112
g2
S'20795'
p2113
sg4
L1449732479199L
sg5
g41
sg7
S'System.out'
p2114
sg9
S'22242'
p2115
sg11
S'type: value, col: 2\n'
p2116
sa(dp2117
g2
S'20795'
p2118
sg4
L1449732479199L
sg5
g41
sg7
S'System.out'
p2119
sg9
S'22242'
p2120
sg11
S'type: value, col: 1\n'
p2121
sa(dp2122
g2
S'20795'
p2123
sg4
L1449732479229L
sg5
g41
sg7
S'Process '
p2124
sg9
S'22242'
p2125
sg11
S'Sending signal. PID: 20795 SIG: 9\n'
p2126
sa(dp2127
g2
S'20824'
p2128
sg4
L1449732479259L
sg5
g6
sg7
S'RongService'
p2129
sg9
S'20824'
p2130
sg11
S'onUnbind, pid=20824\n'
p2131
sa(dp2132
g2
S'20824'
p2133
sg4
L1449732479269L
sg5
g6
sg7
S'RongService'
p2134
sg9
S'20824'
p2135
sg11
S'onDestroy, pid=20824\n'
p2136
sa(dp2137
g2
S'20824'
p2138
sg4
L1449732479269L
sg5
g41
sg7
S'Process '
p2139
sg9
S'20824'
p2140
sg11
S'Sending signal. PID: 20824 SIG: 9\n'
p2141
sa(dp2142
g2
S'23636'
p2143
sg4
L1449732529289L
sg5
S'E'
p2144
sg7
S'Trace   '
p2145
sg9
S'23636'
p2146
sg11
S'error opening trace file: No such file or directory (2)\n'
p2147
sa(dp2148
g2
S'23636'
p2149
sg4
L1449732529389L
sg5
g6
sg7
S'dalvikvm'
p2150
sg9
S'23637'
p2151
sg11
S'GC_CONCURRENT freed 169K, 6% free 9867K/10439K, paused 12ms+2ms, total 38ms\n'
p2152
sa(dp2153
g2
S'23636'
p2154
sg4
L1449732529389L
sg5
g6
sg7
S'dalvikvm'
p2155
sg9
S'23636'
p2156
sg11
S'WAIT_FOR_CONCURRENT_GC blocked 9ms\n'
p2157
sa(dp2158
g2
S'23636'
p2159
sg4
L1449732529419L
sg5
g6
sg7
S'long    '
p2160
sg9
S'23636'
p2161
sg11
S'\xe8\xbf\x9e\xe6\x8e\xa5\xe7\x9a\x84\xe6\x95\xb0\xe6\x8d\xae\xe5\xba\x93\xe6\x98\xaf\xef\xbc\x9axdf004483206.db\n'
p2162
sa(dp2163
g2
S'23636'
p2164
sg4
L1449732529419L
sg5
g41
sg7
S'Environment'
p2165
sg9
S'23636'
p2166
sg11
S'GetExternalStorageDirectory info:ApplicationInfo{41c51008 com.xdf.ucan},packagename:com.xdf.ucan,UID:0\n'
p2167
sa(dp2168
g2
S'23636'
p2169
sg4
L1449732529429L
sg5
g6
sg7
S'Environment'
p2170
sg9
S'23636'
p2171
sg11
S'Enviroment getExternalStorageState :/mnt/sdcard\n'
p2172
sa(dp2173
g2
S'23636'
p2174
sg4
L1449732529429L
sg5
g41
sg7
S'Environment'
p2175
sg9
S'23636'
p2176
sg11
S'GetExternalStorageDirectory info:ApplicationInfo{41c51e70 com.xdf.ucan},packagename:com.xdf.ucan,UID:0\n'
p2177
sa(dp2178
g2
S'23636'
p2179
sg4
L1449732529429L
sg5
g41
sg7
S'Environment'
p2180
sg9
S'23636'
p2181
sg11
S'GetExternalStorageDirectory info:ApplicationInfo{41c527d8 com.xdf.ucan},packagename:com.xdf.ucan,UID:0\n'
p2182
sa(dp2183
g2
S'23636'
p2184
sg4
L1449732529429L
sg5
g6
sg7
S'ImageLoader'
p2185
sg9
S'23636'
p2186
sg11
S'Initialize ImageLoader with configuration\n'
p2187
sa(dp2188
g2
S'23636'
p2189
sg4
L1449732529439L
sg5
g6
sg7
S'long    '
p2190
sg9
S'23636'
p2191
sg11
S'getCurProcessName:io.rong.push\n'
p2192
sa(dp2193
g2
S'23636'
p2194
sg4
L1449732529459L
sg5
g6
sg7
S'##IPC_com.xdf.ucan.BaseApplication:RongIMClient : init'
p2195
sg9
S'23636'
p2196
sg11
S'process = io.rong.push\n'
p2197
sa(dp2198
g2
S'23636'
p2199
sg4
L1449732529469L
sg5
g6
sg7
S'##COMMON_io.rong.push.PushContext:PushContext'
p2200
sg9
S'23636'
p2201
sg11
S'init\n'
p2202
sa(dp2203
g2
S'23636'
p2204
sg4
L1449732529499L
sg5
g6
sg7
S'dalvikvm'
p2205
sg9
S'23637'
p2206
sg11
S'GC_CONCURRENT freed 279K, 7% free 10028K/10759K, paused 2ms+1ms, total 21ms\n'
p2207
sa(dp2208
g2
S'23636'
p2209
sg4
L1449732529529L
sg5
g41
sg7
S'##COMMON_io.rong.push.PushContext:sendConnectCommand'
p2210
sg9
S'23636'
p2211
sg11
S'3700\n'
p2212
sa(dp2213
g2
S'23636'
p2214
sg4
L1449732529539L
sg5
g41
sg7
S'##COMMON_io.rong.push.PushReceiver:Action'
p2215
sg9
S'23636'
p2216
sg11
S'io.rong.push.HeartBeat\n'
p2217
sa(dp2218
g2
S'23636'
p2219
sg4
L1449732529539L
sg5
g41
sg7
S'##COMMON_io.rong.push.PushReceiver:ACTION_HEARTBEAT'
p2220
sg9
S'23636'
p2221
sg11
S'Receive heartbeat action.\n'
p2222
sa(dp2223
g2
S'23636'
p2224
sg4
L1449732529539L
sg5
g6
sg7
S'PowerManager'
p2225
sg9
S'23636'
p2226
sg11
S'wake:com.xdf.ucan/io.rong.push.PushService [acquire]\n'
p2227
sa(dp2228
g2
S'23636'
p2229
sg4
L1449732529539L
sg5
g25
sg7
S'PowerManager'
p2230
sg9
S'23636'
p2231
sg11
S'acquire(long)/mToken = android.os.Binder@41c7d7c8 timeout = 60000\n'
p2232
sa(dp2233
g2
S'23636'
p2234
sg4
L1449732529539L
sg5
g25
sg7
S'PowerManager'
p2235
sg9
S'23636'
p2236
sg11
S'acquireLocked/mFlags = 1 mToken = android.os.Binder@41c7d7c8 mTag = wake:com.xdf.ucan/io.rong.push.PushService mWorkSource = null\n'
p2237
sa(dp2238
g2
S'23636'
p2239
sg4
L1449732529539L
sg5
g25
sg7
S'PowerManager'
p2240
sg9
S'23636'
p2241
sg11
S'acquireLocked/mRefCounted = false mCount = 0\n'
p2242
sa(dp2243
g2
S'23636'
p2244
sg4
L1449732529729L
sg5
g41
sg7
S'##COMMON_java.lang.Class:PushService'
p2245
sg9
S'23636'
p2246
sg11
S'PushService OnCreate\n'
p2247
sa(dp2248
g2
S'23636'
p2249
sg4
L1449732529729L
sg5
g41
sg7
S'PushService'
p2250
sg9
S'23636'
p2251
sg11
S'PushService OnCreate\n'
p2252
sa(dp2253
g2
S'23636'
p2254
sg4
L1449732529739L
sg5
g41
sg7
S'##COMMON_io.rong.push.PushService.PushHandler:PushHandler'
p2255
sg9
S'23666'
p2256
sg11
S'ConnectToServer,isClientConnected = false\n'
p2257
sa(dp2258
g2
S'23636'
p2259
sg4
L1449732529739L
sg5
g41
sg7
S'##COMMON_io.rong.push.PushService:DeviceId'
p2260
sg9
S'23666'
p2261
sg11
S'99000456361498\n'
p2262
sa(dp2263
g2
S'23636'
p2264
sg4
L1449732529749L
sg5
g41
sg7
S'##COMMON_io.rong.push.PushService.PushHandler:PushHandler'
p2265
sg9
S'23666'
p2266
sg11
S'the saved IP = 119.254.111.18:8611\n'
p2267
sa(dp2268
g2
S'23636'
p2269
sg4
L1449732529749L
sg5
g41
sg7
S'PushHandler'
p2270
sg9
S'23666'
p2271
sg11
S'the saved time = 1449727358522current time = 1449732529763\n'
p2272
sa(dp2273
g2
S'23636'
p2274
sg4
L1449732529749L
sg5
g41
sg7
S'##COMMON_io.rong.push.PushService.PushHandler:PushHandler'
p2275
sg9
S'23666'
p2276
sg11
S'ConnectToServer,use the saved IP, IP = 119.254.111.18:8611\n'
p2277
sa(dp2278
g2
S'23636'
p2279
sg4
L1449732529759L
sg5
g41
sg7
S'##COMMON_io.rong.push.PushService:getPhoneInformation.'
p2280
sg9
S'23666'
p2281
sg11
S'the phone information is:YuLong|Coolpad 5891|16|WIFI|46003\n'
p2282
sa(dp2283
g2
S'23636'
p2284
sg4
L1449732529759L
sg5
g41
sg7
S'##COMMON_io.rong.push.PushClient:connect'
p2285
sg9
S'23666'
p2286
sg11
S'phone info:YuLong|Coolpad 5891|16|WIFI|46003 push version:2.6\n'
p2287
sa(dp2288
g2
S'23636'
p2289
sg4
L1449732529759L
sg5
g41
sg7
S'##COMMON_io.rong.push.PushClient:connect'
p2290
sg9
S'23666'
p2291
sg11
S'the socket is established\n'
p2292
sa(dp2293
g2
S'23636'
p2294
sg4
L1449732529899L
sg5
g41
sg7
S'##COMMON_io.rong.push.PushClient:Handler'
p2295
sg9
S'23668'
p2296
sg11
S'CONNACK\n'
p2297
sa(dp2298
g2
S'23636'
p2299
sg4
L1449732529899L
sg5
g41
sg7
S'PushService'
p2300
sg9
S'23668'
p2301
sg11
S'The client connect status is:CONNACK\n'
p2302
sa(dp2303
g2
S'23636'
p2304
sg4
L1449732529899L
sg5
g6
sg7
S'PowerManager'
p2305
sg9
S'23666'
p2306
sg11
S'wake:com.xdf.ucan/io.rong.push.PushService [release]\n'
p2307
sa(dp2308
g2
S'23636'
p2309
sg4
L1449732529899L
sg5
g41
sg7
S'##COMMON_io.rong.push.PushService:Connect'
p2310
sg9
S'23668'
p2311
sg11
S'Client connect successfully.So start the heart beat.\n'
p2312
sa(dp2313
g2
S'23636'
p2314
sg4
L1449732529899L
sg5
g41
sg7
S'##COMMON_io.rong.push.PushContext:Heartbeat'
p2315
sg9
S'23668'
p2316
sg11
S'start_next\n'
p2317
sa(dp2318
g2
S'23636'
p2319
sg4
L1449732529909L
sg5
g25
sg7
S'PowerManager'
p2320
sg9
S'23666'
p2321
sg11
S'release/flags = 0 mToken = android.os.Binder@41c7d7c8 mTag = wake:com.xdf.ucan/io.rong.push.PushService mWorkSource = null\n'
p2322
sa(dp2323
g2
S'23636'
p2324
sg4
L1449732529909L
sg5
g25
sg7
S'PowerManager'
p2325
sg9
S'23666'
p2326
sg11
S'release/mRefCounted = false mCount = 0\n'
p2327
sa(dp2328
g2
S'23636'
p2329
sg4
L1449732533239L
sg5
g41
sg7
S'##COMMON_io.rong.push.PushReceiver:Action'
p2330
sg9
S'23636'
p2331
sg11
S'io.rong.push.Connect\n'
p2332
sa(dp2333
g2
S'23636'
p2334
sg4
L1449732533269L
sg5
g6
sg7
S'PowerManager'
p2335
sg9
S'23636'
p2336
sg11
S'wake:com.xdf.ucan/io.rong.push.PushService [acquire]\n'
p2337
sa(dp2338
g2
S'23636'
p2339
sg4
L1449732533269L
sg5
g25
sg7
S'PowerManager'
p2340
sg9
S'23636'
p2341
sg11
S'acquire(long)/mToken = android.os.Binder@41c409a0 timeout = 60000\n'
p2342
sa(dp2343
g2
S'23636'
p2344
sg4
L1449732533269L
sg5
g25
sg7
S'PowerManager'
p2345
sg9
S'23636'
p2346
sg11
S'acquireLocked/mFlags = 1 mToken = android.os.Binder@41c409a0 mTag = wake:com.xdf.ucan/io.rong.push.PushService mWorkSource = null\n'
p2347
sa(dp2348
g2
S'23636'
p2349
sg4
L1449732533279L
sg5
g41
sg7
S'##COMMON_io.rong.push.PushReceiver:ACTION_CONNECT'
p2350
sg9
S'23636'
p2351
sg11
S'version is null, run connect\n'
p2352
sa(dp2353
g2
S'23636'
p2354
sg4
L1449732533279L
sg5
g25
sg7
S'PowerManager'
p2355
sg9
S'23636'
p2356
sg11
S'acquireLocked/mRefCounted = false mCount = 0\n'
p2357
sa(dp2358
g2
S'23636'
p2359
sg4
L1449732533279L
sg5
g41
sg7
S'##COMMON_io.rong.push.PushService:CONNECT_CHECK'
p2360
sg9
S'23666'
p2361
sg11
S'getRunningPushServiceVersion null\n'
p2362
sa(dp2363
g2
S'23636'
p2364
sg4
L1449732533279L
sg5
g41
sg7
S'##COMMON_io.rong.push.PushService.PushHandler:PushHandler'
p2365
sg9
S'23666'
p2366
sg11
S'ConnectToServer,isClientConnected = true\n'
p2367
sa(dp2368
g2
S'23636'
p2369
sg4
L1449732593339L
sg5
g6
sg7
S'PowerManager'
p2370
sg9
S'23636'
p2371
sg11
S'wake:com.xdf.ucan/io.rong.push.PushService [release]\n'
p2372
sa(dp2373
g2
S'23636'
p2374
sg4
L1449732593339L
sg5
g25
sg7
S'PowerManager'
p2375
sg9
S'23636'
p2376
sg11
S'release/flags = 0 mToken = android.os.Binder@41c409a0 mTag = wake:com.xdf.ucan/io.rong.push.PushService mWorkSource = null\n'
p2377
sa(dp2378
g2
S'23636'
p2379
sg4
L1449732593339L
sg5
g25
sg7
S'PowerManager'
p2380
sg9
S'23636'
p2381
sg11
S'release/mRefCounted = false mCount = 0\n'
p2382
sa.