(lp0
(dp1
S'EventTime'
p2
S'4193213'
p3
sS'SyscTime'
p4
L1449729722027L
sS'recordCount'
p5
S'0'
p6
sS'EventType'
p7
S'TYPE_WINDOW_STATE_CHANGED'
p8
sS'PackageName'
p9
S'com.xdf.ucan'
p10
sS'OutBounds'
p11
S'Rect(0, 0 - 540, 960)'
p12
sS'Action'
p13
S'[ ClassName: com.xdf.ucan.ui.login.StartActivity; Text: [\xe4\xbc\x98\xe6\x92\xad\xe8\xaf\xbe]; ContentDescription: null; ItemCount: -1; CurrentItemIndex: -1; IsEnabled: true; IsPassword: false; IsChecked: false; IsFullScreen: true; Scrollable: false; BeforeText: null; FromIndex: -1; ToIndex: -1; ScrollX: -1; ScrollY: -1; MaxScrollX: -1; MaxScrollY: -1; AddedCount: -1; RemovedCount: -1; ParcelableData: null ]'
p14
sS'MovementGranularity'
p15
g6
sa(dp16
S'EventTime'
p17
S'4193214'
p18
sg4
L1449729722340L
sS'recordCount'
p19
g6
sS'EventType'
p20
S'TYPE_WINDOW_CONTENT_CHANGED'
p21
sS'PackageName'
p22
S'com.xdf.ucan'
p23
sS'OutBounds'
p24
S'Rect(0, 0 - 540, 960)'
p25
sS'Action'
p26
S'[ ClassName: android.widget.FrameLayout; Text: []; ContentDescription: null; ItemCount: -1; CurrentItemIndex: -1; IsEnabled: true; IsPassword: false; IsChecked: false; IsFullScreen: false; Scrollable: false; BeforeText: null; FromIndex: -1; ToIndex: -1; ScrollX: -1; ScrollY: -1; MaxScrollX: -1; MaxScrollY: -1; AddedCount: -1; RemovedCount: -1; ParcelableData: null ]'
p27
sS'MovementGranularity'
p28
g6
sa(dp29
S'EventTime'
p30
S'4193334'
p31
sg4
L1449729722363L
sS'recordCount'
p32
g6
sS'EventType'
p33
S'TYPE_WINDOW_CONTENT_CHANGED'
p34
sS'PackageName'
p35
S'com.xdf.ucan'
p36
sS'OutBounds'
p37
S'Rect(0, 0 - 540, 960)'
p38
sS'Action'
p39
S'[ ClassName: android.widget.FrameLayout; Text: []; ContentDescription: null; ItemCount: -1; CurrentItemIndex: -1; IsEnabled: true; IsPassword: false; IsChecked: false; IsFullScreen: false; Scrollable: false; BeforeText: null; FromIndex: -1; ToIndex: -1; ScrollX: -1; ScrollY: -1; MaxScrollX: -1; MaxScrollY: -1; AddedCount: -1; RemovedCount: -1; ParcelableData: null ]'
p40
sS'MovementGranularity'
p41
g6
sa(dp42
S'EventTime'
p43
S'4193856'
p44
sg4
L1449729722637L
sS'recordCount'
p45
g6
sS'EventType'
p46
S'TYPE_WINDOW_CONTENT_CHANGED'
p47
sS'PackageName'
p48
S'com.xdf.ucan'
p49
sS'OutBounds'
p50
S'Rect(0, 0 - 540, 960)'
p51
sS'Action'
p52
S'[ ClassName: android.widget.FrameLayout; Text: []; ContentDescription: null; ItemCount: -1; CurrentItemIndex: -1; IsEnabled: true; IsPassword: false; IsChecked: false; IsFullScreen: false; Scrollable: false; BeforeText: null; FromIndex: -1; ToIndex: -1; ScrollX: -1; ScrollY: -1; MaxScrollX: -1; MaxScrollY: -1; AddedCount: -1; RemovedCount: -1; ParcelableData: null ]'
p53
sS'MovementGranularity'
p54
g6
sa(dp55
S'EventTime'
p56
S'4195345'
p57
sg4
L1449729724232L
sS'recordCount'
p58
g6
sS'EventType'
p59
S'TYPE_WINDOW_STATE_CHANGED'
p60
sS'PackageName'
p61
S'com.xdf.ucan'
p62
sS'OutBounds'
p63
S'Rect(0, 0 - 540, 960)'
p64
sS'Action'
p65
S'[ ClassName: com.xdf.ucan.MainActivity; Text: [\xe4\xbc\x98\xe6\x92\xad\xe8\xaf\xbe]; ContentDescription: null; ItemCount: -1; CurrentItemIndex: -1; IsEnabled: true; IsPassword: false; IsChecked: false; IsFullScreen: true; Scrollable: false; BeforeText: null; FromIndex: -1; ToIndex: -1; ScrollX: -1; ScrollY: -1; MaxScrollX: -1; MaxScrollY: -1; AddedCount: -1; RemovedCount: -1; ParcelableData: null ]'
p66
sS'MovementGranularity'
p67
g6
sa(dp68
S'EventTime'
p69
S'4195553'
p70
sg4
L1449729724381L
sS'recordCount'
p71
g6
sS'EventType'
p72
S'TYPE_WINDOW_CONTENT_CHANGED'
p73
sS'PackageName'
p74
S'com.xdf.ucan'
p75
sS'OutBounds'
p76
S'Rect(0, 0 - 540, 960)'
p77
sS'Action'
p78
S'[ ClassName: android.widget.FrameLayout; Text: []; ContentDescription: null; ItemCount: -1; CurrentItemIndex: -1; IsEnabled: true; IsPassword: false; IsChecked: false; IsFullScreen: false; Scrollable: false; BeforeText: null; FromIndex: -1; ToIndex: -1; ScrollX: -1; ScrollY: -1; MaxScrollX: -1; MaxScrollY: -1; AddedCount: -1; RemovedCount: -1; ParcelableData: null ]'
p79
sS'MovementGranularity'
p80
g6
sa(dp81
S'EventTime'
p82
S'4195702'
p83
sg4
L1449729724509L
sS'recordCount'
p84
g6
sS'EventType'
p85
S'TYPE_WINDOW_CONTENT_CHANGED'
p86
sS'PackageName'
p87
S'com.xdf.ucan'
p88
sS'OutBounds'
p89
S'Rect(0, 0 - 540, 960)'
p90
sS'Action'
p91
S'[ ClassName: android.widget.FrameLayout; Text: []; ContentDescription: null; ItemCount: -1; CurrentItemIndex: -1; IsEnabled: true; IsPassword: false; IsChecked: false; IsFullScreen: false; Scrollable: false; BeforeText: null; FromIndex: -1; ToIndex: -1; ScrollX: -1; ScrollY: -1; MaxScrollX: -1; MaxScrollY: -1; AddedCount: -1; RemovedCount: -1; ParcelableData: null ]'
p92
sS'MovementGranularity'
p93
g6
sa(dp94
S'EventTime'
p95
S'4200225'
p96
sg4
L1449729729036L
sS'recordCount'
p97
g6
sS'EventType'
p98
S'TYPE_VIEW_SCROLLED'
p99
sS'PackageName'
p100
S'com.xdf.ucan'
p101
sS'OutBounds'
p102
S'Rect(0, 104 - 540, 888)'
p103
sS'Action'
p104
S'[ ClassName: android.widget.ScrollView; Text: []; ContentDescription: null; ItemCount: -1; CurrentItemIndex: -1; IsEnabled: true; IsPassword: false; IsChecked: false; IsFullScreen: false; Scrollable: false; BeforeText: null; FromIndex: -1; ToIndex: -1; ScrollX: 0; ScrollY: 0; MaxScrollX: 0; MaxScrollY: 0; AddedCount: -1; RemovedCount: -1; ParcelableData: null ]'
p105
sS'MovementGranularity'
p106
g6
sa(dp107
S'EventTime'
p108
S'4200369'
p109
sg4
L1449729729203L
sS'recordCount'
p110
g6
sS'EventType'
p111
S'TYPE_VIEW_SCROLLED'
p112
sS'PackageName'
p113
S'com.xdf.ucan'
p114
sS'OutBounds'
p115
S'Rect(0, 104 - 540, 888)'
p116
sS'Action'
p117
S'[ ClassName: android.widget.ScrollView; Text: []; ContentDescription: null; ItemCount: -1; CurrentItemIndex: -1; IsEnabled: true; IsPassword: false; IsChecked: false; IsFullScreen: false; Scrollable: false; BeforeText: null; FromIndex: -1; ToIndex: -1; ScrollX: 0; ScrollY: 0; MaxScrollX: 0; MaxScrollY: 0; AddedCount: -1; RemovedCount: -1; ParcelableData: null ]'
p118
sS'MovementGranularity'
p119
g6
sa(dp120
S'EventTime'
p121
S'4200528'
p122
sg4
L1449729729364L
sS'recordCount'
p123
g6
sS'EventType'
p124
S'TYPE_VIEW_SCROLLED'
p125
sS'PackageName'
p126
S'com.xdf.ucan'
p127
sS'OutBounds'
p128
S'Rect(0, 104 - 540, 888)'
p129
sS'Action'
p130
S'[ ClassName: android.widget.ScrollView; Text: []; ContentDescription: null; ItemCount: -1; CurrentItemIndex: -1; IsEnabled: true; IsPassword: false; IsChecked: false; IsFullScreen: false; Scrollable: false; BeforeText: null; FromIndex: -1; ToIndex: -1; ScrollX: 0; ScrollY: 0; MaxScrollX: 0; MaxScrollY: 0; AddedCount: -1; RemovedCount: -1; ParcelableData: null ]'
p131
sS'MovementGranularity'
p132
g6
sa(dp133
S'EventTime'
p134
S'4202047'
p135
sg4
L1449729730830L
sS'recordCount'
p136
g6
sS'EventType'
p137
S'TYPE_VIEW_CLICKED'
p138
sS'PackageName'
p139
S'com.xdf.ucan'
p140
sS'OutBounds'
p141
S'Rect(483, 38 - 540, 104)'
p142
sS'Action'
p143
S'[ ClassName: android.widget.ImageView; Text: []; ContentDescription: null; ItemCount: -1; CurrentItemIndex: -1; IsEnabled: true; IsPassword: false; IsChecked: false; IsFullScreen: false; Scrollable: false; BeforeText: null; FromIndex: -1; ToIndex: -1; ScrollX: -1; ScrollY: -1; MaxScrollX: -1; MaxScrollY: -1; AddedCount: -1; RemovedCount: -1; ParcelableData: null ]'
p144
sS'MovementGranularity'
p145
g6
sa(dp146
S'EventTime'
p147
S'4204818'
p148
sg4
L1449729733599L
sS'recordCount'
p149
g6
sS'EventType'
p150
S'TYPE_VIEW_CLICKED'
p151
sS'PackageName'
p152
S'com.xdf.ucan'
p153
sS'Action'
p154
S'[ ClassName: android.widget.LinearLayout; Text: [\xe8\xae\xa2\xe9\x98\x85]; ContentDescription: null; ItemCount: -1; CurrentItemIndex: -1; IsEnabled: true; IsPassword: false; IsChecked: false; IsFullScreen: false; Scrollable: false; BeforeText: null; FromIndex: -1; ToIndex: -1; ScrollX: -1; ScrollY: -1; MaxScrollX: -1; MaxScrollY: -1; AddedCount: -1; RemovedCount: -1; ParcelableData: null ]'
p155
sS'MovementGranularity'
p156
g6
sa(dp157
S'EventTime'
p158
S'4204907'
p159
sg4
L1449729733688L
sS'recordCount'
p160
g6
sS'EventType'
p161
S'TYPE_WINDOW_STATE_CHANGED'
p162
sS'PackageName'
p163
S'com.xdf.ucan'
p164
sS'Action'
p165
S'[ ClassName: com.xdf.ucan.MainActivity; Text: [\xe4\xbc\x98\xe6\x92\xad\xe8\xaf\xbe]; ContentDescription: null; ItemCount: -1; CurrentItemIndex: -1; IsEnabled: true; IsPassword: false; IsChecked: false; IsFullScreen: true; Scrollable: false; BeforeText: null; FromIndex: -1; ToIndex: -1; ScrollX: -1; ScrollY: -1; MaxScrollX: -1; MaxScrollY: -1; AddedCount: -1; RemovedCount: -1; ParcelableData: null ]'
p166
sS'MovementGranularity'
p167
g6
sa(dp168
S'EventTime'
p169
S'4205137'
p170
sg4
L1449729733916L
sS'recordCount'
p171
g6
sS'EventType'
p172
S'TYPE_VIEW_FOCUSED'
p173
sS'PackageName'
p174
S'com.xdf.ucan'
p175
sS'Action'
p176
S'[ ClassName: android.widget.ListView; Text: []; ContentDescription: null; ItemCount: 2; CurrentItemIndex: -1; IsEnabled: true; IsPassword: false; IsChecked: false; IsFullScreen: false; Scrollable: false; BeforeText: null; FromIndex: 0; ToIndex: 1; ScrollX: -1; ScrollY: -1; MaxScrollX: -1; MaxScrollY: -1; AddedCount: -1; RemovedCount: -1; ParcelableData: null ]'
p177
sS'MovementGranularity'
p178
g6
sa(dp179
S'EventTime'
p180
S'4205140'
p181
sg4
L1449729733967L
sS'recordCount'
p182
g6
sS'EventType'
p183
S'TYPE_WINDOW_STATE_CHANGED'
p184
sS'PackageName'
p185
S'com.xdf.ucan'
p186
sS'OutBounds'
p187
S'Rect(30, 38 - 510, 960)'
p188
sS'Action'
p189
S'[ ClassName: com.xdf.ucan.views.LoadingDialog; Text: []; ContentDescription: null; ItemCount: -1; CurrentItemIndex: -1; IsEnabled: true; IsPassword: false; IsChecked: false; IsFullScreen: false; Scrollable: false; BeforeText: null; FromIndex: -1; ToIndex: -1; ScrollX: -1; ScrollY: -1; MaxScrollX: -1; MaxScrollY: -1; AddedCount: -1; RemovedCount: -1; ParcelableData: null ]'
p190
sS'MovementGranularity'
p191
g6
sa(dp192
S'EventTime'
p193
S'4205206'
p194
sg4
L1449729733999L
sS'recordCount'
p195
g6
sS'EventType'
p196
S'TYPE_WINDOW_CONTENT_CHANGED'
p197
sS'PackageName'
p198
S'com.xdf.ucan'
p199
sS'OutBounds'
p200
S'Rect(30, 38 - 510, 960)'
p201
sS'Action'
p202
S'[ ClassName: android.widget.FrameLayout; Text: []; ContentDescription: null; ItemCount: -1; CurrentItemIndex: -1; IsEnabled: true; IsPassword: false; IsChecked: false; IsFullScreen: false; Scrollable: false; BeforeText: null; FromIndex: -1; ToIndex: -1; ScrollX: -1; ScrollY: -1; MaxScrollX: -1; MaxScrollY: -1; AddedCount: -1; RemovedCount: -1; ParcelableData: null ]'
p203
sS'MovementGranularity'
p204
g6
sa(dp205
S'EventTime'
p206
S'4205287'
p207
sg4
L1449729734066L
sS'recordCount'
p208
g6
sS'EventType'
p209
S'TYPE_VIEW_SCROLLED'
p210
sS'PackageName'
p211
S'com.xdf.ucan'
p212
sS'Action'
p213
S'[ ClassName: android.widget.ListView; Text: []; ContentDescription: null; ItemCount: 2; CurrentItemIndex: -1; IsEnabled: true; IsPassword: false; IsChecked: false; IsFullScreen: false; Scrollable: false; BeforeText: null; FromIndex: 0; ToIndex: 1; ScrollX: -1; ScrollY: -1; MaxScrollX: -1; MaxScrollY: -1; AddedCount: -1; RemovedCount: -1; ParcelableData: null ]'
p214
sS'MovementGranularity'
p215
g6
sa(dp216
S'EventTime'
p217
S'4205345'
p218
sg4
L1449729734125L
sS'recordCount'
p219
g6
sS'EventType'
p220
S'TYPE_WINDOW_CONTENT_CHANGED'
p221
sS'PackageName'
p222
S'com.xdf.ucan'
p223
sS'OutBounds'
p224
S'Rect(30, 38 - 510, 960)'
p225
sS'Action'
p226
S'[ ClassName: android.widget.FrameLayout; Text: []; ContentDescription: null; ItemCount: -1; CurrentItemIndex: -1; IsEnabled: true; IsPassword: false; IsChecked: false; IsFullScreen: false; Scrollable: false; BeforeText: null; FromIndex: -1; ToIndex: -1; ScrollX: -1; ScrollY: -1; MaxScrollX: -1; MaxScrollY: -1; AddedCount: -1; RemovedCount: -1; ParcelableData: null ]'
p227
sS'MovementGranularity'
p228
g6
sa(dp229
S'EventTime'
p230
S'4205932'
p231
sg4
L1449729734762L
sS'recordCount'
p232
g6
sS'EventType'
p233
S'TYPE_WINDOW_STATE_CHANGED'
p234
sS'PackageName'
p235
S'com.xdf.ucan'
p236
sS'OutBounds'
p237
S'Rect(0, 0 - 540, 960)'
p238
sS'Action'
p239
S'[ ClassName: com.xdf.ucan.ui.subscript.AddSubscriptionActivity; Text: [\xe4\xbc\x98\xe6\x92\xad\xe8\xaf\xbe]; ContentDescription: null; ItemCount: -1; CurrentItemIndex: -1; IsEnabled: true; IsPassword: false; IsChecked: false; IsFullScreen: true; Scrollable: false; BeforeText: null; FromIndex: -1; ToIndex: -1; ScrollX: -1; ScrollY: -1; MaxScrollX: -1; MaxScrollY: -1; AddedCount: -1; RemovedCount: -1; ParcelableData: null ]'
p240
sS'MovementGranularity'
p241
g6
sa(dp242
S'EventTime'
p243
S'4205964'
p244
sg4
L1449729734783L
sS'recordCount'
p245
g6
sS'EventType'
p246
S'TYPE_VIEW_SCROLLED'
p247
sS'PackageName'
p248
S'com.xdf.ucan'
p249
sS'OutBounds'
p250
S'Rect(0, 235 - 540, 960)'
p251
sS'Action'
p252
S'[ ClassName: android.widget.ListView; Text: []; ContentDescription: null; ItemCount: 20; CurrentItemIndex: -1; IsEnabled: true; IsPassword: false; IsChecked: false; IsFullScreen: false; Scrollable: true; BeforeText: null; FromIndex: 0; ToIndex: 9; ScrollX: -1; ScrollY: -1; MaxScrollX: -1; MaxScrollY: -1; AddedCount: -1; RemovedCount: -1; ParcelableData: null ]'
p253
sS'MovementGranularity'
p254
g6
sa(dp255
S'EventTime'
p256
S'4205965'
p257
sg4
L1449729734804L
sS'recordCount'
p258
g6
sS'EventType'
p259
S'TYPE_WINDOW_CONTENT_CHANGED'
p260
sS'PackageName'
p261
S'com.xdf.ucan'
p262
sS'OutBounds'
p263
S'Rect(0, 0 - 540, 960)'
p264
sS'Action'
p265
S'[ ClassName: android.widget.FrameLayout; Text: []; ContentDescription: null; ItemCount: -1; CurrentItemIndex: -1; IsEnabled: true; IsPassword: false; IsChecked: false; IsFullScreen: false; Scrollable: false; BeforeText: null; FromIndex: -1; ToIndex: -1; ScrollX: -1; ScrollY: -1; MaxScrollX: -1; MaxScrollY: -1; AddedCount: -1; RemovedCount: -1; ParcelableData: null ]'
p266
sS'MovementGranularity'
p267
g6
sa(dp268
S'EventTime'
p269
S'4209147'
p270
sg4
L1449729737997L
sS'recordCount'
p271
g6
sS'EventType'
p272
S'TYPE_VIEW_SCROLLED'
p273
sS'PackageName'
p274
S'com.xdf.ucan'
p275
sS'OutBounds'
p276
S'Rect(0, 235 - 540, 960)'
p277
sS'Action'
p278
S'[ ClassName: android.widget.ListView; Text: []; ContentDescription: null; ItemCount: 20; CurrentItemIndex: -1; IsEnabled: true; IsPassword: false; IsChecked: false; IsFullScreen: false; Scrollable: true; BeforeText: null; FromIndex: 3; ToIndex: 11; ScrollX: -1; ScrollY: -1; MaxScrollX: -1; MaxScrollY: -1; AddedCount: -1; RemovedCount: -1; ParcelableData: null ]'
p279
sS'MovementGranularity'
p280
g6
sa(dp281
S'EventTime'
p282
S'4209299'
p283
sg4
L1449729738117L
sS'recordCount'
p284
g6
sS'EventType'
p285
S'TYPE_VIEW_SCROLLED'
p286
sS'PackageName'
p287
S'com.xdf.ucan'
p288
sS'OutBounds'
p289
S'Rect(0, 235 - 540, 960)'
p290
sS'Action'
p291
S'[ ClassName: android.widget.ListView; Text: []; ContentDescription: null; ItemCount: 20; CurrentItemIndex: -1; IsEnabled: true; IsPassword: false; IsChecked: false; IsFullScreen: false; Scrollable: true; BeforeText: null; FromIndex: 7; ToIndex: 15; ScrollX: -1; ScrollY: -1; MaxScrollX: -1; MaxScrollY: -1; AddedCount: -1; RemovedCount: -1; ParcelableData: null ]'
p292
sS'MovementGranularity'
p293
g6
sa(dp294
S'EventTime'
p295
S'4209437'
p296
sg4
L1449729738266L
sS'recordCount'
p297
g6
sS'EventType'
p298
S'TYPE_VIEW_SCROLLED'
p299
sS'PackageName'
p300
S'com.xdf.ucan'
p301
sS'OutBounds'
p302
S'Rect(0, 209 - 540, 934)'
p303
sS'Action'
p304
S'[ ClassName: android.widget.ListView; Text: []; ContentDescription: null; ItemCount: 20; CurrentItemIndex: -1; IsEnabled: true; IsPassword: false; IsChecked: false; IsFullScreen: false; Scrollable: true; BeforeText: null; FromIndex: 10; ToIndex: 18; ScrollX: -1; ScrollY: -1; MaxScrollX: -1; MaxScrollY: -1; AddedCount: -1; RemovedCount: -1; ParcelableData: null ]'
p305
sS'MovementGranularity'
p306
g6
sa(dp307
S'EventTime'
p308
S'4209586'
p309
sg4
L1449729738418L
sS'recordCount'
p310
g6
sS'EventType'
p311
S'TYPE_VIEW_SCROLLED'
p312
sS'PackageName'
p313
S'com.xdf.ucan'
p314
sS'OutBounds'
p315
S'Rect(0, 230 - 540, 955)'
p316
sS'Action'
p317
S'[ ClassName: android.widget.ListView; Text: []; ContentDescription: null; ItemCount: 20; CurrentItemIndex: -1; IsEnabled: true; IsPassword: false; IsChecked: false; IsFullScreen: false; Scrollable: true; BeforeText: null; FromIndex: 10; ToIndex: 19; ScrollX: -1; ScrollY: -1; MaxScrollX: -1; MaxScrollY: -1; AddedCount: -1; RemovedCount: -1; ParcelableData: null ]'
p318
sS'MovementGranularity'
p319
g6
sa(dp320
S'EventTime'
p321
S'4209683'
p322
sg4
L1449729738514L
sS'recordCount'
p323
g6
sS'EventType'
p324
S'TYPE_WINDOW_CONTENT_CHANGED'
p325
sS'PackageName'
p326
S'com.xdf.ucan'
p327
sS'OutBounds'
p328
S'Rect(0, 0 - 540, 960)'
p329
sS'Action'
p330
S'[ ClassName: android.widget.FrameLayout; Text: []; ContentDescription: null; ItemCount: -1; CurrentItemIndex: -1; IsEnabled: true; IsPassword: false; IsChecked: false; IsFullScreen: false; Scrollable: false; BeforeText: null; FromIndex: -1; ToIndex: -1; ScrollX: -1; ScrollY: -1; MaxScrollX: -1; MaxScrollY: -1; AddedCount: -1; RemovedCount: -1; ParcelableData: null ]'
p331
sS'MovementGranularity'
p332
g6
sa(dp333
S'EventTime'
p334
S'4210539'
p335
sg4
L1449729739318L
sS'recordCount'
p336
S'1'
p337
sS'EventType'
p338
S'TYPE_VIEW_CLICKED'
p339
sS'PackageName'
p340
S'com.xdf.ucan'
p341
sS'OutBounds'
p342
S'Rect(412, 805 - 517, 849)'
p343
sS'Action'
p344
S'[ ClassName: android.widget.TextView; Text: []; ContentDescription: null; ItemCount: -1; CurrentItemIndex: -1; IsEnabled: true; IsPassword: false; IsChecked: false; IsFullScreen: false; Scrollable: false; BeforeText: null; FromIndex: -1; ToIndex: -1; ScrollX: -1; ScrollY: -1; MaxScrollX: -1; MaxScrollY: -1; AddedCount: -1; RemovedCount: -1; ParcelableData: null ]'
p345
sS'MovementGranularity'
p346
g6
sa(dp347
S'EventTime'
p348
S'4210585'
p349
sg4
L1449729739369L
sS'recordCount'
p350
g6
sS'EventType'
p351
S'TYPE_WINDOW_STATE_CHANGED'
p352
sS'PackageName'
p353
S'com.xdf.ucan'
p354
sS'OutBounds'
p355
S'Rect(30, 38 - 510, 960)'
p356
sS'Action'
p357
S'[ ClassName: com.xdf.ucan.views.LoadingDialog; Text: []; ContentDescription: null; ItemCount: -1; CurrentItemIndex: -1; IsEnabled: true; IsPassword: false; IsChecked: false; IsFullScreen: false; Scrollable: false; BeforeText: null; FromIndex: -1; ToIndex: -1; ScrollX: -1; ScrollY: -1; MaxScrollX: -1; MaxScrollY: -1; AddedCount: -1; RemovedCount: -1; ParcelableData: null ]'
p358
sS'MovementGranularity'
p359
g6
sa(dp360
S'EventTime'
p361
S'4210685'
p362
sg4
L1449729739465L
sS'recordCount'
p363
g6
sS'EventType'
p364
S'TYPE_WINDOW_CONTENT_CHANGED'
p365
sS'PackageName'
p366
S'com.xdf.ucan'
p367
sS'Action'
p368
S'[ ClassName: android.widget.FrameLayout; Text: []; ContentDescription: null; ItemCount: -1; CurrentItemIndex: -1; IsEnabled: true; IsPassword: false; IsChecked: false; IsFullScreen: false; Scrollable: false; BeforeText: null; FromIndex: -1; ToIndex: -1; ScrollX: -1; ScrollY: -1; MaxScrollX: -1; MaxScrollY: -1; AddedCount: -1; RemovedCount: -1; ParcelableData: null ]'
p369
sS'MovementGranularity'
p370
g6
sa(dp371
S'EventTime'
p372
S'4210842'
p373
sg4
L1449729739677L
sS'recordCount'
p374
g6
sS'EventType'
p375
S'TYPE_WINDOW_STATE_CHANGED'
p376
sS'PackageName'
p377
S'com.xdf.ucan'
p378
sS'OutBounds'
p379
S'Rect(0, 0 - 540, 960)'
p380
sS'Action'
p381
S'[ ClassName: com.xdf.ucan.ui.subscript.AddSubscriptionActivity; Text: [\xe4\xbc\x98\xe6\x92\xad\xe8\xaf\xbe]; ContentDescription: null; ItemCount: -1; CurrentItemIndex: -1; IsEnabled: true; IsPassword: false; IsChecked: false; IsFullScreen: true; Scrollable: false; BeforeText: null; FromIndex: -1; ToIndex: -1; ScrollX: -1; ScrollY: -1; MaxScrollX: -1; MaxScrollY: -1; AddedCount: -1; RemovedCount: -1; ParcelableData: null ]'
p382
sS'MovementGranularity'
p383
g6
sa(dp384
S'EventTime'
p385
S'4210905'
p386
sg4
L1449729739704L
sS'recordCount'
p387
g6
sS'EventType'
p388
S'TYPE_VIEW_SCROLLED'
p389
sS'PackageName'
p390
S'com.xdf.ucan'
p391
sS'OutBounds'
p392
S'Rect(0, 235 - 540, 960)'
p393
sS'Action'
p394
S'[ ClassName: android.widget.ListView; Text: []; ContentDescription: null; ItemCount: 20; CurrentItemIndex: -1; IsEnabled: true; IsPassword: false; IsChecked: false; IsFullScreen: false; Scrollable: true; BeforeText: null; FromIndex: 10; ToIndex: 18; ScrollX: -1; ScrollY: -1; MaxScrollX: -1; MaxScrollY: -1; AddedCount: -1; RemovedCount: -1; ParcelableData: null ]'
p395
sS'MovementGranularity'
p396
g6
sa(dp397
S'EventTime'
p398
S'4210906'
p399
sg4
L1449729739730L
sS'recordCount'
p400
g6
sS'EventType'
p401
S'TYPE_WINDOW_CONTENT_CHANGED'
p402
sS'PackageName'
p403
S'com.xdf.ucan'
p404
sS'OutBounds'
p405
S'Rect(0, 0 - 540, 960)'
p406
sS'Action'
p407
S'[ ClassName: android.widget.FrameLayout; Text: []; ContentDescription: null; ItemCount: -1; CurrentItemIndex: -1; IsEnabled: true; IsPassword: false; IsChecked: false; IsFullScreen: false; Scrollable: false; BeforeText: null; FromIndex: -1; ToIndex: -1; ScrollX: -1; ScrollY: -1; MaxScrollX: -1; MaxScrollY: -1; AddedCount: -1; RemovedCount: -1; ParcelableData: null ]'
p408
sS'MovementGranularity'
p409
g6
sa(dp410
S'EventTime'
p411
S'4215028'
p412
sg4
L1449729743806L
sS'recordCount'
p413
g6
sS'EventType'
p414
S'TYPE_NOTIFICATION_STATE_CHANGED'
p415
sS'PackageName'
p416
S'com.xdf.ucan'
p417
sS'Action'
p418
S'[ ClassName: android.widget.Toast$TN; Text: [\xe7\xbd\x91\xe7\xbb\x9c\xe4\xb8\x8d\xe7\xbb\x99\xe5\x8a\x9b]; ContentDescription: null; ItemCount: -1; CurrentItemIndex: -1; IsEnabled: false; IsPassword: false; IsChecked: false; IsFullScreen: false; Scrollable: false; BeforeText: null; FromIndex: -1; ToIndex: -1; ScrollX: -1; ScrollY: -1; MaxScrollX: -1; MaxScrollY: -1; AddedCount: -1; RemovedCount: -1; ParcelableData: null ]'
p419
sS'MovementGranularity'
p420
g6
sa(dp421
S'EventTime'
p422
S'4215304'
p423
sg4
L1449729744098L
sS'recordCount'
p424
g6
sS'EventType'
p425
S'TYPE_VIEW_CLICKED'
p426
sS'PackageName'
p427
S'com.xdf.ucan'
p428
sS'OutBounds'
p429
S'Rect(15, 38 - 89, 104)'
p430
sS'Action'
p431
S'[ ClassName: android.widget.TextView; Text: [\xe8\xbf\x94\xe5\x9b\x9e]; ContentDescription: null; ItemCount: -1; CurrentItemIndex: -1; IsEnabled: true; IsPassword: false; IsChecked: false; IsFullScreen: false; Scrollable: false; BeforeText: null; FromIndex: -1; ToIndex: -1; ScrollX: -1; ScrollY: -1; MaxScrollX: -1; MaxScrollY: -1; AddedCount: -1; RemovedCount: -1; ParcelableData: null ]'
p432
sS'MovementGranularity'
p433
g6
sa(dp434
S'EventTime'
p435
S'4215531'
p436
sg4
L1449729744333L
sS'recordCount'
p437
g6
sS'EventType'
p438
S'TYPE_WINDOW_STATE_CHANGED'
p439
sS'PackageName'
p440
S'com.xdf.ucan'
p441
sS'OutBounds'
p442
S'Rect(0, 0 - 540, 960)'
p443
sS'Action'
p444
S'[ ClassName: com.xdf.ucan.MainActivity; Text: [\xe4\xbc\x98\xe6\x92\xad\xe8\xaf\xbe]; ContentDescription: null; ItemCount: -1; CurrentItemIndex: -1; IsEnabled: true; IsPassword: false; IsChecked: false; IsFullScreen: true; Scrollable: false; BeforeText: null; FromIndex: -1; ToIndex: -1; ScrollX: -1; ScrollY: -1; MaxScrollX: -1; MaxScrollY: -1; AddedCount: -1; RemovedCount: -1; ParcelableData: null ]'
p445
sS'MovementGranularity'
p446
g6
sa(dp447
S'EventTime'
p448
S'4215597'
p449
sg4
L1449729744396L
sS'recordCount'
p450
g6
sS'EventType'
p451
S'TYPE_WINDOW_CONTENT_CHANGED'
p452
sS'PackageName'
p453
S'com.xdf.ucan'
p454
sS'OutBounds'
p455
S'Rect(0, 0 - 540, 960)'
p456
sS'Action'
p457
S'[ ClassName: android.widget.FrameLayout; Text: []; ContentDescription: null; ItemCount: -1; CurrentItemIndex: -1; IsEnabled: true; IsPassword: false; IsChecked: false; IsFullScreen: false; Scrollable: false; BeforeText: null; FromIndex: -1; ToIndex: -1; ScrollX: -1; ScrollY: -1; MaxScrollX: -1; MaxScrollY: -1; AddedCount: -1; RemovedCount: -1; ParcelableData: null ]'
p458
sS'MovementGranularity'
p459
g6
sa(dp460
S'EventTime'
p461
S'4217932'
p462
sg4
L1449729746712L
sS'recordCount'
p463
g6
sS'EventType'
p464
S'TYPE_VIEW_CLICKED'
p465
sS'PackageName'
p466
S'com.xdf.ucan'
p467
sS'OutBounds'
p468
S'Rect(0, 392 - 540, 488)'
p469
sS'Action'
p470
S'[ ClassName: android.widget.RelativeLayout; Text: [\xe8\xa7\x86\xe9\xa2\x91, \xe6\x8d\xae\xe8\xaf\xb4\xef\xbc\x8c\xe6\x9c\x89\xe4\xba\x86spoc\xe6\x8f\x90\xe5\x88\x86\xe4\xb8\x8d\xe6\x98\xaf\xe9\x97\xae\xe9\xa2\x98]; ContentDescription: null; ItemCount: -1; CurrentItemIndex: -1; IsEnabled: true; IsPassword: false; IsChecked: false; IsFullScreen: false; Scrollable: false; BeforeText: null; FromIndex: -1; ToIndex: -1; ScrollX: -1; ScrollY: -1; MaxScrollX: -1; MaxScrollY: -1; AddedCount: -1; RemovedCount: -1; ParcelableData: null ]'
p471
sS'MovementGranularity'
p472
g6
sa(dp473
S'EventTime'
p474
S'4218296'
p475
sg4
L1449729747076L
sS'recordCount'
p476
g6
sS'EventType'
p477
S'TYPE_VIEW_FOCUSED'
p478
sS'PackageName'
p479
S'com.xdf.ucan'
p480
sS'Action'
p481
S'[ ClassName: android.widget.ListView; Text: []; ContentDescription: null; ItemCount: 3; CurrentItemIndex: -1; IsEnabled: true; IsPassword: false; IsChecked: false; IsFullScreen: false; Scrollable: false; BeforeText: null; FromIndex: 0; ToIndex: 2; ScrollX: -1; ScrollY: -1; MaxScrollX: -1; MaxScrollY: -1; AddedCount: -1; RemovedCount: -1; ParcelableData: null ]'
p482
sS'MovementGranularity'
p483
g6
sa(dp484
S'EventTime'
p485
S'4218299'
p486
sg4
L1449729747150L
sS'recordCount'
p487
g6
sS'EventType'
p488
S'TYPE_WINDOW_STATE_CHANGED'
p489
sS'PackageName'
p490
S'com.xdf.ucan'
p491
sS'OutBounds'
p492
S'Rect(30, 38 - 510, 960)'
p493
sS'Action'
p494
S'[ ClassName: com.xdf.ucan.views.LoadingDialog; Text: []; ContentDescription: null; ItemCount: -1; CurrentItemIndex: -1; IsEnabled: true; IsPassword: false; IsChecked: false; IsFullScreen: false; Scrollable: false; BeforeText: null; FromIndex: -1; ToIndex: -1; ScrollX: -1; ScrollY: -1; MaxScrollX: -1; MaxScrollY: -1; AddedCount: -1; RemovedCount: -1; ParcelableData: null ]'
p495
sS'MovementGranularity'
p496
g6
sa(dp497
S'EventTime'
p498
S'4218384'
p499
sg4
L1449729747172L
sS'recordCount'
p500
g6
sS'EventType'
p501
S'TYPE_WINDOW_CONTENT_CHANGED'
p502
sS'PackageName'
p503
S'com.xdf.ucan'
p504
sS'OutBounds'
p505
S'Rect(30, 38 - 510, 960)'
p506
sS'Action'
p507
S'[ ClassName: android.widget.FrameLayout; Text: []; ContentDescription: null; ItemCount: -1; CurrentItemIndex: -1; IsEnabled: true; IsPassword: false; IsChecked: false; IsFullScreen: false; Scrollable: false; BeforeText: null; FromIndex: -1; ToIndex: -1; ScrollX: -1; ScrollY: -1; MaxScrollX: -1; MaxScrollY: -1; AddedCount: -1; RemovedCount: -1; ParcelableData: null ]'
p508
sS'MovementGranularity'
p509
g6
sa(dp510
S'EventTime'
p511
S'4218390'
p512
sg4
L1449729747174L
sS'recordCount'
p513
g6
sS'EventType'
p514
S'TYPE_VIEW_SCROLLED'
p515
sS'PackageName'
p516
S'com.xdf.ucan'
p517
sS'Action'
p518
S'[ ClassName: android.widget.ListView; Text: []; ContentDescription: null; ItemCount: 3; CurrentItemIndex: -1; IsEnabled: true; IsPassword: false; IsChecked: false; IsFullScreen: false; Scrollable: false; BeforeText: null; FromIndex: 0; ToIndex: 2; ScrollX: -1; ScrollY: -1; MaxScrollX: -1; MaxScrollY: -1; AddedCount: -1; RemovedCount: -1; ParcelableData: null ]'
p519
sS'MovementGranularity'
p520
g6
sa(dp521
S'EventTime'
p522
S'4222178'
p523
sg4
L1449729751057L
sS'recordCount'
p524
g6
sS'EventType'
p525
S'TYPE_WINDOW_STATE_CHANGED'
p526
sS'PackageName'
p527
S'com.xdf.ucan'
p528
sS'OutBounds'
p529
S'Rect(0, 0 - 540, 960)'
p530
sS'Action'
p531
S'[ ClassName: com.xdf.ucan.ui.video.VideoListActivity; Text: [\xe4\xbc\x98\xe6\x92\xad\xe8\xaf\xbe]; ContentDescription: null; ItemCount: -1; CurrentItemIndex: -1; IsEnabled: true; IsPassword: false; IsChecked: false; IsFullScreen: true; Scrollable: false; BeforeText: null; FromIndex: -1; ToIndex: -1; ScrollX: -1; ScrollY: -1; MaxScrollX: -1; MaxScrollY: -1; AddedCount: -1; RemovedCount: -1; ParcelableData: null ]'
p532
sS'MovementGranularity'
p533
g6
sa(dp534
S'EventTime'
p535
S'4222278'
p536
sg4
L1449729751231L
sS'recordCount'
p537
g6
sS'EventType'
p538
S'TYPE_VIEW_SCROLLED'
p539
sS'PackageName'
p540
S'com.xdf.ucan'
p541
sS'OutBounds'
p542
S'Rect(0, 104 - 540, 960)'
p543
sS'Action'
p544
S'[ ClassName: android.widget.ListView; Text: []; ContentDescription: null; ItemCount: 13; CurrentItemIndex: -1; IsEnabled: true; IsPassword: false; IsChecked: false; IsFullScreen: false; Scrollable: true; BeforeText: null; FromIndex: 0; ToIndex: 5; ScrollX: -1; ScrollY: -1; MaxScrollX: -1; MaxScrollY: -1; AddedCount: -1; RemovedCount: -1; ParcelableData: null ]'
p545
sS'MovementGranularity'
p546
g6
sa(dp547
S'EventTime'
p548
S'4222282'
p549
sg4
L1449729751400L
sS'recordCount'
p550
g6
sS'EventType'
p551
S'TYPE_WINDOW_CONTENT_CHANGED'
p552
sS'PackageName'
p553
S'com.xdf.ucan'
p554
sS'OutBounds'
p555
S'Rect(0, 0 - 540, 960)'
p556
sS'Action'
p557
S'[ ClassName: android.widget.FrameLayout; Text: []; ContentDescription: null; ItemCount: -1; CurrentItemIndex: -1; IsEnabled: true; IsPassword: false; IsChecked: false; IsFullScreen: false; Scrollable: false; BeforeText: null; FromIndex: -1; ToIndex: -1; ScrollX: -1; ScrollY: -1; MaxScrollX: -1; MaxScrollY: -1; AddedCount: -1; RemovedCount: -1; ParcelableData: null ]'
p558
sS'MovementGranularity'
p559
g6
sa(dp560
S'EventTime'
p561
S'4222285'
p562
sg4
L1449729751402L
sS'recordCount'
p563
g6
sS'EventType'
p564
S'TYPE_VIEW_CLICKED'
p565
sS'PackageName'
p566
S'com.xdf.ucan'
p567
sS'OutBounds'
p568
S'Rect(15, 38 - 89, 104)'
p569
sS'Action'
p570
S'[ ClassName: android.widget.TextView; Text: [\xe8\xbf\x94\xe5\x9b\x9e]; ContentDescription: null; ItemCount: -1; CurrentItemIndex: -1; IsEnabled: true; IsPassword: false; IsChecked: false; IsFullScreen: false; Scrollable: false; BeforeText: null; FromIndex: -1; ToIndex: -1; ScrollX: -1; ScrollY: -1; MaxScrollX: -1; MaxScrollY: -1; AddedCount: -1; RemovedCount: -1; ParcelableData: null ]'
p571
sS'MovementGranularity'
p572
g6
sa(dp573
S'EventTime'
p574
S'4222588'
p575
sg4
L1449729751492L
sS'recordCount'
p576
g6
sS'EventType'
p577
S'TYPE_WINDOW_CONTENT_CHANGED'
p578
sS'PackageName'
p579
S'com.xdf.ucan'
p580
sS'OutBounds'
p581
S'Rect(0, 0 - 540, 960)'
p582
sS'Action'
p583
S'[ ClassName: android.widget.FrameLayout; Text: []; ContentDescription: null; ItemCount: -1; CurrentItemIndex: -1; IsEnabled: true; IsPassword: false; IsChecked: false; IsFullScreen: false; Scrollable: false; BeforeText: null; FromIndex: -1; ToIndex: -1; ScrollX: -1; ScrollY: -1; MaxScrollX: -1; MaxScrollY: -1; AddedCount: -1; RemovedCount: -1; ParcelableData: null ]'
p584
sS'MovementGranularity'
p585
g6
sa(dp586
S'EventTime'
p587
S'4222755'
p588
sg4
L1449729751585L
sS'recordCount'
p589
g6
sS'EventType'
p590
S'TYPE_WINDOW_STATE_CHANGED'
p591
sS'PackageName'
p592
S'com.xdf.ucan'
p593
sS'OutBounds'
p594
S'Rect(0, 0 - 540, 960)'
p595
sS'Action'
p596
S'[ ClassName: com.xdf.ucan.MainActivity; Text: [\xe4\xbc\x98\xe6\x92\xad\xe8\xaf\xbe]; ContentDescription: null; ItemCount: -1; CurrentItemIndex: -1; IsEnabled: true; IsPassword: false; IsChecked: false; IsFullScreen: true; Scrollable: false; BeforeText: null; FromIndex: -1; ToIndex: -1; ScrollX: -1; ScrollY: -1; MaxScrollX: -1; MaxScrollY: -1; AddedCount: -1; RemovedCount: -1; ParcelableData: null ]'
p597
sS'MovementGranularity'
p598
g6
sa(dp599
S'EventTime'
p600
S'4222761'
p601
sg4
L1449729751604L
sS'recordCount'
p602
g6
sS'EventType'
p603
S'TYPE_WINDOW_CONTENT_CHANGED'
p604
sS'PackageName'
p605
S'com.xdf.ucan'
p606
sS'OutBounds'
p607
S'Rect(0, 0 - 540, 960)'
p608
sS'Action'
p609
S'[ ClassName: android.widget.FrameLayout; Text: []; ContentDescription: null; ItemCount: -1; CurrentItemIndex: -1; IsEnabled: true; IsPassword: false; IsChecked: false; IsFullScreen: false; Scrollable: false; BeforeText: null; FromIndex: -1; ToIndex: -1; ScrollX: -1; ScrollY: -1; MaxScrollX: -1; MaxScrollY: -1; AddedCount: -1; RemovedCount: -1; ParcelableData: null ]'
p610
sS'MovementGranularity'
p611
g6
sa(dp612
S'EventTime'
p613
S'4224069'
p614
sg4
L1449729752848L
sS'recordCount'
p615
g6
sS'EventType'
p616
S'TYPE_VIEW_CLICKED'
p617
sS'PackageName'
p618
S'com.xdf.ucan'
p619
sS'OutBounds'
p620
S'Rect(0, 200 - 540, 296)'
p621
sS'Action'
p622
S'[ ClassName: android.widget.RelativeLayout; Text: [\xe8\xb5\x84\xe6\x96\x99, \xe6\x8d\xae\xe8\xaf\xb4\xef\xbc\x8c\xe6\x96\xb0\xe4\xb8\x9c\xe6\x96\xb9\xe6\x98\xaf\xe8\xb5\x84\xe6\x96\x99\xe5\x88\xb6\xe9\x80\xa0\xe7\x8b\x82]; ContentDescription: null; ItemCount: -1; CurrentItemIndex: -1; IsEnabled: true; IsPassword: false; IsChecked: false; IsFullScreen: false; Scrollable: false; BeforeText: null; FromIndex: -1; ToIndex: -1; ScrollX: -1; ScrollY: -1; MaxScrollX: -1; MaxScrollY: -1; AddedCount: -1; RemovedCount: -1; ParcelableData: null ]'
p623
sS'MovementGranularity'
p624
g6
sa(dp625
S'EventTime'
p626
S'4224385'
p627
sg4
L1449729753164L
sS'recordCount'
p628
g6
sS'EventType'
p629
S'TYPE_VIEW_FOCUSED'
p630
sS'PackageName'
p631
S'com.xdf.ucan'
p632
sS'Action'
p633
S'[ ClassName: android.widget.ListView; Text: []; ContentDescription: null; ItemCount: 3; CurrentItemIndex: -1; IsEnabled: true; IsPassword: false; IsChecked: false; IsFullScreen: false; Scrollable: false; BeforeText: null; FromIndex: 0; ToIndex: 2; ScrollX: -1; ScrollY: -1; MaxScrollX: -1; MaxScrollY: -1; AddedCount: -1; RemovedCount: -1; ParcelableData: null ]'
p634
sS'MovementGranularity'
p635
g6
sa(dp636
S'EventTime'
p637
S'4224388'
p638
sg4
L1449729753243L
sS'recordCount'
p639
g6
sS'EventType'
p640
S'TYPE_WINDOW_STATE_CHANGED'
p641
sS'PackageName'
p642
S'com.xdf.ucan'
p643
sS'OutBounds'
p644
S'Rect(30, 38 - 510, 960)'
p645
sS'Action'
p646
S'[ ClassName: com.xdf.ucan.views.LoadingDialog; Text: []; ContentDescription: null; ItemCount: -1; CurrentItemIndex: -1; IsEnabled: true; IsPassword: false; IsChecked: false; IsFullScreen: false; Scrollable: false; BeforeText: null; FromIndex: -1; ToIndex: -1; ScrollX: -1; ScrollY: -1; MaxScrollX: -1; MaxScrollY: -1; AddedCount: -1; RemovedCount: -1; ParcelableData: null ]'
p647
sS'MovementGranularity'
p648
g6
sa(dp649
S'EventTime'
p650
S'4224468'
p651
sg4
L1449729753249L
sS'recordCount'
p652
g6
sS'EventType'
p653
S'TYPE_WINDOW_CONTENT_CHANGED'
p654
sS'PackageName'
p655
S'com.xdf.ucan'
p656
sS'OutBounds'
p657
S'Rect(30, 38 - 510, 960)'
p658
sS'Action'
p659
S'[ ClassName: android.widget.FrameLayout; Text: []; ContentDescription: null; ItemCount: -1; CurrentItemIndex: -1; IsEnabled: true; IsPassword: false; IsChecked: false; IsFullScreen: false; Scrollable: false; BeforeText: null; FromIndex: -1; ToIndex: -1; ScrollX: -1; ScrollY: -1; MaxScrollX: -1; MaxScrollY: -1; AddedCount: -1; RemovedCount: -1; ParcelableData: null ]'
p660
sS'MovementGranularity'
p661
g6
sa(dp662
S'EventTime'
p663
S'4224475'
p664
sg4
L1449729753253L
sS'recordCount'
p665
g6
sS'EventType'
p666
S'TYPE_VIEW_SCROLLED'
p667
sS'PackageName'
p668
S'com.xdf.ucan'
p669
sS'Action'
p670
S'[ ClassName: android.widget.ListView; Text: []; ContentDescription: null; ItemCount: 3; CurrentItemIndex: -1; IsEnabled: true; IsPassword: false; IsChecked: false; IsFullScreen: false; Scrollable: false; BeforeText: null; FromIndex: 0; ToIndex: 2; ScrollX: -1; ScrollY: -1; MaxScrollX: -1; MaxScrollY: -1; AddedCount: -1; RemovedCount: -1; ParcelableData: null ]'
p671
sS'MovementGranularity'
p672
g6
sa(dp673
S'EventTime'
p674
S'4236189'
p675
sg4
L1449729765055L
sS'recordCount'
p676
g6
sS'EventType'
p677
S'TYPE_WINDOW_STATE_CHANGED'
p678
sS'PackageName'
p679
S'com.xdf.ucan'
p680
sS'OutBounds'
p681
S'Rect(0, 0 - 540, 960)'
p682
sS'Action'
p683
S'[ ClassName: com.xdf.ucan.ui.material.MaterialListActivity; Text: [\xe4\xbc\x98\xe6\x92\xad\xe8\xaf\xbe]; ContentDescription: null; ItemCount: -1; CurrentItemIndex: -1; IsEnabled: true; IsPassword: false; IsChecked: false; IsFullScreen: true; Scrollable: false; BeforeText: null; FromIndex: -1; ToIndex: -1; ScrollX: -1; ScrollY: -1; MaxScrollX: -1; MaxScrollY: -1; AddedCount: -1; RemovedCount: -1; ParcelableData: null ]'
p684
sS'MovementGranularity'
p685
g6
sa(dp686
S'EventTime'
p687
S'4236221'
p688
sg4
L1449729765118L
sS'recordCount'
p689
g6
sS'EventType'
p690
S'TYPE_VIEW_SCROLLED'
p691
sS'PackageName'
p692
S'com.xdf.ucan'
p693
sS'OutBounds'
p694
S'Rect(0, 104 - 540, 960)'
p695
sS'Action'
p696
S'[ ClassName: android.widget.ListView; Text: []; ContentDescription: null; ItemCount: 10; CurrentItemIndex: -1; IsEnabled: true; IsPassword: false; IsChecked: false; IsFullScreen: false; Scrollable: true; BeforeText: null; FromIndex: 0; ToIndex: 5; ScrollX: -1; ScrollY: -1; MaxScrollX: -1; MaxScrollY: -1; AddedCount: -1; RemovedCount: -1; ParcelableData: null ]'
p697
sS'MovementGranularity'
p698
g6
sa(dp699
S'EventTime'
p700
S'4236222'
p701
sg4
L1449729765175L
sS'recordCount'
p702
g6
sS'EventType'
p703
S'TYPE_WINDOW_CONTENT_CHANGED'
p704
sS'PackageName'
p705
S'com.xdf.ucan'
p706
sS'OutBounds'
p707
S'Rect(0, 0 - 540, 960)'
p708
sS'Action'
p709
S'[ ClassName: android.widget.FrameLayout; Text: []; ContentDescription: null; ItemCount: -1; CurrentItemIndex: -1; IsEnabled: true; IsPassword: false; IsChecked: false; IsFullScreen: false; Scrollable: false; BeforeText: null; FromIndex: -1; ToIndex: -1; ScrollX: -1; ScrollY: -1; MaxScrollX: -1; MaxScrollY: -1; AddedCount: -1; RemovedCount: -1; ParcelableData: null ]'
p710
sS'MovementGranularity'
p711
g6
sa(dp712
S'EventTime'
p713
S'4248918'
p714
sg4
L1449729777699L
sS'recordCount'
p715
g337
sS'EventType'
p716
S'TYPE_VIEW_CLICKED'
p717
sS'PackageName'
p718
S'com.xdf.ucan'
p719
sS'OutBounds'
p720
S'Rect(15, 203 - 525, 346)'
p721
sS'Action'
p722
S'[ ClassName: android.widget.LinearLayout; Text: [\xe5\x8d\x81\xe4\xba\x8c\xe6\x98\x9f\xe5\xba\xa7\xe4\xb9\x8b\xe5\xb0\x84\xe6\x89\x8b\xe5\xba\xa7, \xe4\xbc\x98\xe6\x89\x8d, \xe4\xbc\x98\xe6\x89\x8d\xe8\xae\xa1\xe5\x88\x92, 2015-06-05]; ContentDescription: null; ItemCount: -1; CurrentItemIndex: -1; IsEnabled: true; IsPassword: false; IsChecked: false; IsFullScreen: false; Scrollable: false; BeforeText: null; FromIndex: -1; ToIndex: -1; ScrollX: -1; ScrollY: -1; MaxScrollX: -1; MaxScrollY: -1; AddedCount: -1; RemovedCount: -1; ParcelableData: null ]'
p723
sS'MovementGranularity'
p724
g6
sa(dp725
S'EventTime'
p726
S'4249589'
p727
sg4
L1449729778369L
sS'recordCount'
p728
g6
sS'EventType'
p729
S'TYPE_WINDOW_CONTENT_CHANGED'
p730
sS'PackageName'
p731
S'com.xdf.ucan'
p732
sS'Action'
p733
S'[ ClassName: android.widget.FrameLayout; Text: []; ContentDescription: null; ItemCount: -1; CurrentItemIndex: -1; IsEnabled: true; IsPassword: false; IsChecked: false; IsFullScreen: false; Scrollable: false; BeforeText: null; FromIndex: -1; ToIndex: -1; ScrollX: -1; ScrollY: -1; MaxScrollX: -1; MaxScrollY: -1; AddedCount: -1; RemovedCount: -1; ParcelableData: null ]'
p734
sS'MovementGranularity'
p735
g6
sa(dp736
S'EventTime'
p737
S'4249672'
p738
sg4
L1449729778488L
sS'recordCount'
p739
g6
sS'EventType'
p740
S'TYPE_WINDOW_STATE_CHANGED'
p741
sS'PackageName'
p742
S'com.xdf.ucan'
p743
sS'OutBounds'
p744
S'Rect(30, 38 - 510, 960)'
p745
sS'Action'
p746
S'[ ClassName: com.xdf.ucan.views.LoadingDialog; Text: []; ContentDescription: null; ItemCount: -1; CurrentItemIndex: -1; IsEnabled: true; IsPassword: false; IsChecked: false; IsFullScreen: false; Scrollable: false; BeforeText: null; FromIndex: -1; ToIndex: -1; ScrollX: -1; ScrollY: -1; MaxScrollX: -1; MaxScrollY: -1; AddedCount: -1; RemovedCount: -1; ParcelableData: null ]'
p747
sS'MovementGranularity'
p748
g6
sa(dp749
S'EventTime'
p750
S'4249750'
p751
sg4
L1449729778533L
sS'recordCount'
p752
g6
sS'EventType'
p753
S'TYPE_WINDOW_CONTENT_CHANGED'
p754
sS'PackageName'
p755
S'com.xdf.ucan'
p756
sS'OutBounds'
p757
S'Rect(30, 38 - 510, 960)'
p758
sS'Action'
p759
S'[ ClassName: android.widget.FrameLayout; Text: []; ContentDescription: null; ItemCount: -1; CurrentItemIndex: -1; IsEnabled: true; IsPassword: false; IsChecked: false; IsFullScreen: false; Scrollable: false; BeforeText: null; FromIndex: -1; ToIndex: -1; ScrollX: -1; ScrollY: -1; MaxScrollX: -1; MaxScrollY: -1; AddedCount: -1; RemovedCount: -1; ParcelableData: null ]'
p760
sS'MovementGranularity'
p761
g6
sa(dp762
S'EventTime'
p763
S'4250212'
p764
sg4
L1449729779020L
sS'recordCount'
p765
g6
sS'EventType'
p766
S'TYPE_WINDOW_STATE_CHANGED'
p767
sS'PackageName'
p768
S'com.xdf.ucan'
p769
sS'Action'
p770
S'[ ClassName: com.xdf.ucan.ui.material.MaterialActivity; Text: [\xe4\xbc\x98\xe6\x92\xad\xe8\xaf\xbe]; ContentDescription: null; ItemCount: -1; CurrentItemIndex: -1; IsEnabled: true; IsPassword: false; IsChecked: false; IsFullScreen: true; Scrollable: false; BeforeText: null; FromIndex: -1; ToIndex: -1; ScrollX: -1; ScrollY: -1; MaxScrollX: -1; MaxScrollY: -1; AddedCount: -1; RemovedCount: -1; ParcelableData: null ]'
p771
sS'MovementGranularity'
p772
g6
sa(dp773
S'EventTime'
p774
S'4271385'
p775
sg4
L1449729800182L
sS'recordCount'
p776
g6
sS'EventType'
p777
S'TYPE_WINDOW_STATE_CHANGED'
p778
sS'PackageName'
p779
S'com.xdf.ucan'
p780
sS'OutBounds'
p781
S'Rect(0, 0 - 540, 960)'
p782
sS'Action'
p783
S'[ ClassName: com.xdf.ucan.ui.material.MaterialActivity; Text: [\xe4\xbc\x98\xe6\x92\xad\xe8\xaf\xbe]; ContentDescription: null; ItemCount: -1; CurrentItemIndex: -1; IsEnabled: true; IsPassword: false; IsChecked: false; IsFullScreen: true; Scrollable: false; BeforeText: null; FromIndex: -1; ToIndex: -1; ScrollX: -1; ScrollY: -1; MaxScrollX: -1; MaxScrollY: -1; AddedCount: -1; RemovedCount: -1; ParcelableData: null ]'
p784
sS'MovementGranularity'
p785
g6
sa(dp786
S'EventTime'
p787
S'4288818'
p788
sg4
L1449729817606L
sS'recordCount'
p789
g6
sS'EventType'
p790
S'TYPE_VIEW_CLICKED'
p791
sS'PackageName'
p792
S'com.xdf.ucan'
p793
sS'OutBounds'
p794
S'Rect(360, 890 - 539, 958)'
p795
sS'Action'
p796
S'[ ClassName: android.widget.LinearLayout; Text: [2]; ContentDescription: null; ItemCount: -1; CurrentItemIndex: -1; IsEnabled: true; IsPassword: false; IsChecked: false; IsFullScreen: false; Scrollable: false; BeforeText: null; FromIndex: -1; ToIndex: -1; ScrollX: -1; ScrollY: -1; MaxScrollX: -1; MaxScrollY: -1; AddedCount: -1; RemovedCount: -1; ParcelableData: null ]'
p797
sS'MovementGranularity'
p798
g6
sa(dp799
S'EventTime'
p800
S'4289141'
p801
sg4
L1449729817942L
sS'recordCount'
p802
g6
sS'EventType'
p803
S'TYPE_WINDOW_CONTENT_CHANGED'
p804
sS'PackageName'
p805
S'com.xdf.ucan'
p806
sS'OutBounds'
p807
S'Rect(0, 0 - 540, 960)'
p808
sS'Action'
p809
S'[ ClassName: android.widget.FrameLayout; Text: []; ContentDescription: null; ItemCount: -1; CurrentItemIndex: -1; IsEnabled: true; IsPassword: false; IsChecked: false; IsFullScreen: false; Scrollable: false; BeforeText: null; FromIndex: -1; ToIndex: -1; ScrollX: -1; ScrollY: -1; MaxScrollX: -1; MaxScrollY: -1; AddedCount: -1; RemovedCount: -1; ParcelableData: null ]'
p810
sS'MovementGranularity'
p811
g6
sa(dp812
S'EventTime'
p813
S'4290862'
p814
sg4
L1449729819643L
sS'recordCount'
p815
g6
sS'EventType'
p816
S'TYPE_VIEW_CLICKED'
p817
sS'PackageName'
p818
S'com.xdf.ucan'
p819
sS'OutBounds'
p820
S'Rect(360, 890 - 539, 958)'
p821
sS'Action'
p822
S'[ ClassName: android.widget.LinearLayout; Text: [3]; ContentDescription: null; ItemCount: -1; CurrentItemIndex: -1; IsEnabled: true; IsPassword: false; IsChecked: false; IsFullScreen: false; Scrollable: false; BeforeText: null; FromIndex: -1; ToIndex: -1; ScrollX: -1; ScrollY: -1; MaxScrollX: -1; MaxScrollY: -1; AddedCount: -1; RemovedCount: -1; ParcelableData: null ]'
p823
sS'MovementGranularity'
p824
g6
sa(dp825
S'EventTime'
p826
S'4291187'
p827
sg4
L1449729820001L
sS'recordCount'
p828
g6
sS'EventType'
p829
S'TYPE_WINDOW_CONTENT_CHANGED'
p830
sS'PackageName'
p831
S'com.xdf.ucan'
p832
sS'OutBounds'
p833
S'Rect(0, 0 - 540, 960)'
p834
sS'Action'
p835
S'[ ClassName: android.widget.FrameLayout; Text: []; ContentDescription: null; ItemCount: -1; CurrentItemIndex: -1; IsEnabled: true; IsPassword: false; IsChecked: false; IsFullScreen: false; Scrollable: false; BeforeText: null; FromIndex: -1; ToIndex: -1; ScrollX: -1; ScrollY: -1; MaxScrollX: -1; MaxScrollY: -1; AddedCount: -1; RemovedCount: -1; ParcelableData: null ]'
p836
sS'MovementGranularity'
p837
g6
sa(dp838
S'EventTime'
p839
S'4294802'
p840
sg4
L1449729823579L
sS'recordCount'
p841
g6
sS'EventType'
p842
S'TYPE_VIEW_CLICKED'
p843
sS'PackageName'
p844
S'com.xdf.ucan'
p845
sS'OutBounds'
p846
S'Rect(180, 890 - 359, 959)'
p847
sS'Action'
p848
S'[ ClassName: android.widget.LinearLayout; Text: [4]; ContentDescription: null; ItemCount: -1; CurrentItemIndex: -1; IsEnabled: true; IsPassword: false; IsChecked: false; IsFullScreen: false; Scrollable: false; BeforeText: null; FromIndex: -1; ToIndex: -1; ScrollX: -1; ScrollY: -1; MaxScrollX: -1; MaxScrollY: -1; AddedCount: -1; RemovedCount: -1; ParcelableData: null ]'
p849
sS'MovementGranularity'
p850
g6
sa(dp851
S'EventTime'
p852
S'4295194'
p853
sg4
L1449729824004L
sS'recordCount'
p854
g6
sS'EventType'
p855
S'TYPE_WINDOW_CONTENT_CHANGED'
p856
sS'PackageName'
p857
S'com.xdf.ucan'
p858
sS'OutBounds'
p859
S'Rect(0, 0 - 540, 960)'
p860
sS'Action'
p861
S'[ ClassName: android.widget.FrameLayout; Text: []; ContentDescription: null; ItemCount: -1; CurrentItemIndex: -1; IsEnabled: true; IsPassword: false; IsChecked: false; IsFullScreen: false; Scrollable: false; BeforeText: null; FromIndex: -1; ToIndex: -1; ScrollX: -1; ScrollY: -1; MaxScrollX: -1; MaxScrollY: -1; AddedCount: -1; RemovedCount: -1; ParcelableData: null ]'
p862
sS'MovementGranularity'
p863
g6
sa(dp864
S'EventTime'
p865
S'4296264'
p866
sg4
L1449729825041L
sS'recordCount'
p867
g6
sS'EventType'
p868
S'TYPE_VIEW_CLICKED'
p869
sS'PackageName'
p870
S'com.xdf.ucan'
p871
sS'OutBounds'
p872
S'Rect(180, 890 - 359, 959)'
p873
sS'Action'
p874
S'[ ClassName: android.widget.LinearLayout; Text: [5]; ContentDescription: null; ItemCount: -1; CurrentItemIndex: -1; IsEnabled: true; IsPassword: false; IsChecked: false; IsFullScreen: false; Scrollable: false; BeforeText: null; FromIndex: -1; ToIndex: -1; ScrollX: -1; ScrollY: -1; MaxScrollX: -1; MaxScrollY: -1; AddedCount: -1; RemovedCount: -1; ParcelableData: null ]'
p875
sS'MovementGranularity'
p876
g6
sa(dp877
S'EventTime'
p878
S'4296769'
p879
sg4
L1449729825588L
sS'recordCount'
p880
g6
sS'EventType'
p881
S'TYPE_WINDOW_CONTENT_CHANGED'
p882
sS'PackageName'
p883
S'com.xdf.ucan'
p884
sS'OutBounds'
p885
S'Rect(0, 0 - 540, 960)'
p886
sS'Action'
p887
S'[ ClassName: android.widget.FrameLayout; Text: []; ContentDescription: null; ItemCount: -1; CurrentItemIndex: -1; IsEnabled: true; IsPassword: false; IsChecked: false; IsFullScreen: false; Scrollable: false; BeforeText: null; FromIndex: -1; ToIndex: -1; ScrollX: -1; ScrollY: -1; MaxScrollX: -1; MaxScrollY: -1; AddedCount: -1; RemovedCount: -1; ParcelableData: null ]'
p888
sS'MovementGranularity'
p889
g6
sa(dp890
S'EventTime'
p891
S'4301834'
p892
sg4
L1449729830613L
sS'recordCount'
p893
g6
sS'EventType'
p894
S'TYPE_VIEW_CLICKED'
p895
sS'PackageName'
p896
S'com.xdf.ucan'
p897
sS'OutBounds'
p898
S'Rect(493, 38 - 525, 104)'
p899
sS'Action'
p900
S'[ ClassName: android.widget.TextView; Text: []; ContentDescription: null; ItemCount: -1; CurrentItemIndex: -1; IsEnabled: true; IsPassword: false; IsChecked: false; IsFullScreen: false; Scrollable: false; BeforeText: null; FromIndex: -1; ToIndex: -1; ScrollX: -1; ScrollY: -1; MaxScrollX: -1; MaxScrollY: -1; AddedCount: -1; RemovedCount: -1; ParcelableData: null ]'
p901
sS'MovementGranularity'
p902
g6
sa(dp903
S'EventTime'
p904
S'4302207'
p905
sg4
L1449729831008L
sS'recordCount'
p906
g6
sS'EventType'
p907
S'TYPE_WINDOW_STATE_CHANGED'
p908
sS'PackageName'
p909
S'com.xdf.ucan'
p910
sS'OutBounds'
p911
S'Rect(0, 0 - 540, 960)'
p912
sS'Action'
p913
S'[ ClassName: com.mob.tools.MobUIShell; Text: [\xe4\xbc\x98\xe6\x92\xad\xe8\xaf\xbe]; ContentDescription: null; ItemCount: -1; CurrentItemIndex: -1; IsEnabled: true; IsPassword: false; IsChecked: false; IsFullScreen: true; Scrollable: false; BeforeText: null; FromIndex: -1; ToIndex: -1; ScrollX: -1; ScrollY: -1; MaxScrollX: -1; MaxScrollY: -1; AddedCount: -1; RemovedCount: -1; ParcelableData: null ]'
p914
sS'MovementGranularity'
p915
g6
sa(dp916
S'EventTime'
p917
S'4302278'
p918
sg4
L1449729831127L
sS'recordCount'
p919
g6
sS'EventType'
p920
S'TYPE_WINDOW_CONTENT_CHANGED'
p921
sS'PackageName'
p922
S'com.xdf.ucan'
p923
sS'OutBounds'
p924
S'Rect(0, 0 - 540, 960)'
p925
sS'Action'
p926
S'[ ClassName: android.widget.FrameLayout; Text: []; ContentDescription: null; ItemCount: -1; CurrentItemIndex: -1; IsEnabled: true; IsPassword: false; IsChecked: false; IsFullScreen: false; Scrollable: false; BeforeText: null; FromIndex: -1; ToIndex: -1; ScrollX: -1; ScrollY: -1; MaxScrollX: -1; MaxScrollY: -1; AddedCount: -1; RemovedCount: -1; ParcelableData: null ]'
p927
sS'MovementGranularity'
p928
g6
sa(dp929
S'EventTime'
p930
S'4302563'
p931
sg4
L1449729831347L
sS'recordCount'
p932
g6
sS'EventType'
p933
S'TYPE_WINDOW_CONTENT_CHANGED'
p934
sS'PackageName'
p935
S'com.xdf.ucan'
p936
sS'OutBounds'
p937
S'Rect(0, 0 - 540, 960)'
p938
sS'Action'
p939
S'[ ClassName: android.widget.FrameLayout; Text: []; ContentDescription: null; ItemCount: -1; CurrentItemIndex: -1; IsEnabled: true; IsPassword: false; IsChecked: false; IsFullScreen: false; Scrollable: false; BeforeText: null; FromIndex: -1; ToIndex: -1; ScrollX: -1; ScrollY: -1; MaxScrollX: -1; MaxScrollY: -1; AddedCount: -1; RemovedCount: -1; ParcelableData: null ]'
p940
sS'MovementGranularity'
p941
g6
sa(dp942
S'EventTime'
p943
S'4305037'
p944
sg4
L1449729833821L
sS'recordCount'
p945
g6
sS'EventType'
p946
S'TYPE_VIEW_CLICKED'
p947
sS'PackageName'
p948
S'com.xdf.ucan'
p949
sS'OutBounds'
p950
S'Rect(8, 703 - 183, 854)'
p951
sS'Action'
p952
S'[ ClassName: android.widget.LinearLayout; Text: [\xe5\xbe\xae\xe4\xbf\xa1\xe5\xa5\xbd\xe5\x8f\x8b]; ContentDescription: null; ItemCount: -1; CurrentItemIndex: -1; IsEnabled: true; IsPassword: false; IsChecked: false; IsFullScreen: false; Scrollable: false; BeforeText: null; FromIndex: -1; ToIndex: -1; ScrollX: -1; ScrollY: -1; MaxScrollX: -1; MaxScrollY: -1; AddedCount: -1; RemovedCount: -1; ParcelableData: null ]'
p953
sS'MovementGranularity'
p954
g6
sa(dp955
S'EventTime'
p956
S'4305119'
p957
sg4
L1449729833904L
sS'recordCount'
p958
g6
sS'EventType'
p959
S'TYPE_NOTIFICATION_STATE_CHANGED'
p960
sS'PackageName'
p961
S'com.xdf.ucan'
p962
sS'Action'
p963
S'[ ClassName: android.widget.Toast$TN; Text: [\xe5\x88\x86\xe4\xba\xab\xe6\x93\x8d\xe4\xbd\x9c\xe6\xad\xa3\xe5\x9c\xa8\xe5\x90\x8e\xe5\x8f\xb0\xe8\xbf\x9b\xe8\xa1\x8c\xe2\x80\xa6]; ContentDescription: null; ItemCount: -1; CurrentItemIndex: -1; IsEnabled: false; IsPassword: false; IsChecked: false; IsFullScreen: false; Scrollable: false; BeforeText: null; FromIndex: -1; ToIndex: -1; ScrollX: -1; ScrollY: -1; MaxScrollX: -1; MaxScrollY: -1; AddedCount: -1; RemovedCount: -1; ParcelableData: null ]'
p964
sS'MovementGranularity'
p965
g6
sa(dp966
S'EventTime'
p967
S'4305529'
p968
sg4
L1449729834437L
sS'recordCount'
p969
g6
sS'EventType'
p970
S'TYPE_WINDOW_STATE_CHANGED'
p971
sS'PackageName'
p972
S'com.xdf.ucan'
p973
sS'OutBounds'
p974
S'Rect(0, 0 - 540, 960)'
p975
sS'Action'
p976
S'[ ClassName: com.xdf.ucan.ui.material.MaterialActivity; Text: [\xe4\xbc\x98\xe6\x92\xad\xe8\xaf\xbe]; ContentDescription: null; ItemCount: -1; CurrentItemIndex: -1; IsEnabled: true; IsPassword: false; IsChecked: false; IsFullScreen: true; Scrollable: false; BeforeText: null; FromIndex: -1; ToIndex: -1; ScrollX: -1; ScrollY: -1; MaxScrollX: -1; MaxScrollY: -1; AddedCount: -1; RemovedCount: -1; ParcelableData: null ]'
p977
sS'MovementGranularity'
p978
g6
sa(dp979
S'EventTime'
p980
S'4313834'
p981
sg4
L1449729842631L
sS'recordCount'
p982
g6
sS'EventType'
p983
S'TYPE_WINDOW_STATE_CHANGED'
p984
sS'PackageName'
p985
S'com.xdf.ucan'
p986
sS'OutBounds'
p987
S'Rect(0, 0 - 540, 960)'
p988
sS'Action'
p989
S'[ ClassName: com.xdf.ucan.ui.material.MaterialActivity; Text: [\xe4\xbc\x98\xe6\x92\xad\xe8\xaf\xbe]; ContentDescription: null; ItemCount: -1; CurrentItemIndex: -1; IsEnabled: true; IsPassword: false; IsChecked: false; IsFullScreen: true; Scrollable: false; BeforeText: null; FromIndex: -1; ToIndex: -1; ScrollX: -1; ScrollY: -1; MaxScrollX: -1; MaxScrollY: -1; AddedCount: -1; RemovedCount: -1; ParcelableData: null ]'
p990
sS'MovementGranularity'
p991
g6
sa(dp992
S'EventTime'
p993
S'4314140'
p994
sg4
L1449729842926L
sS'recordCount'
p995
g6
sS'EventType'
p996
S'TYPE_WINDOW_CONTENT_CHANGED'
p997
sS'PackageName'
p998
S'com.xdf.ucan'
p999
sS'OutBounds'
p1000
S'Rect(0, 0 - 540, 960)'
p1001
sS'Action'
p1002
S'[ ClassName: android.widget.FrameLayout; Text: []; ContentDescription: null; ItemCount: -1; CurrentItemIndex: -1; IsEnabled: true; IsPassword: false; IsChecked: false; IsFullScreen: false; Scrollable: false; BeforeText: null; FromIndex: -1; ToIndex: -1; ScrollX: -1; ScrollY: -1; MaxScrollX: -1; MaxScrollY: -1; AddedCount: -1; RemovedCount: -1; ParcelableData: null ]'
p1003
sS'MovementGranularity'
p1004
g6
sa(dp1005
S'EventTime'
p1006
S'4316669'
p1007
sg4
L1449729845448L
sS'recordCount'
p1008
g6
sS'EventType'
p1009
S'TYPE_VIEW_CLICKED'
p1010
sS'PackageName'
p1011
S'com.xdf.ucan'
p1012
sS'OutBounds'
p1013
S'Rect(15, 38 - 89, 104)'
p1014
sS'Action'
p1015
S'[ ClassName: android.widget.TextView; Text: [\xe8\xbf\x94\xe5\x9b\x9e]; ContentDescription: null; ItemCount: -1; CurrentItemIndex: -1; IsEnabled: true; IsPassword: false; IsChecked: false; IsFullScreen: false; Scrollable: false; BeforeText: null; FromIndex: -1; ToIndex: -1; ScrollX: -1; ScrollY: -1; MaxScrollX: -1; MaxScrollY: -1; AddedCount: -1; RemovedCount: -1; ParcelableData: null ]'
p1016
sS'MovementGranularity'
p1017
g6
sa(dp1018
S'EventTime'
p1019
S'4316829'
p1020
sg4
L1449729845705L
sS'recordCount'
p1021
g6
sS'EventType'
p1022
S'TYPE_WINDOW_STATE_CHANGED'
p1023
sS'PackageName'
p1024
S'com.xdf.ucan'
p1025
sS'OutBounds'
p1026
S'Rect(0, 0 - 540, 960)'
p1027
sS'Action'
p1028
S'[ ClassName: com.xdf.ucan.ui.material.MaterialListActivity; Text: [\xe4\xbc\x98\xe6\x92\xad\xe8\xaf\xbe]; ContentDescription: null; ItemCount: -1; CurrentItemIndex: -1; IsEnabled: true; IsPassword: false; IsChecked: false; IsFullScreen: true; Scrollable: false; BeforeText: null; FromIndex: -1; ToIndex: -1; ScrollX: -1; ScrollY: -1; MaxScrollX: -1; MaxScrollY: -1; AddedCount: -1; RemovedCount: -1; ParcelableData: null ]'
p1029
sS'MovementGranularity'
p1030
g6
sa(dp1031
S'EventTime'
p1032
S'4319556'
p1033
sg4
L1449729848412L
sS'recordCount'
p1034
g6
sS'EventType'
p1035
S'TYPE_VIEW_SCROLLED'
p1036
sS'PackageName'
p1037
S'com.xdf.ucan'
p1038
sS'OutBounds'
p1039
S'Rect(0, 104 - 540, 960)'
p1040
sS'Action'
p1041
S'[ ClassName: android.widget.ListView; Text: []; ContentDescription: null; ItemCount: 10; CurrentItemIndex: -1; IsEnabled: true; IsPassword: false; IsChecked: false; IsFullScreen: false; Scrollable: true; BeforeText: null; FromIndex: 1; ToIndex: 5; ScrollX: -1; ScrollY: -1; MaxScrollX: -1; MaxScrollY: -1; AddedCount: -1; RemovedCount: -1; ParcelableData: null ]'
p1042
sS'MovementGranularity'
p1043
g6
sa(dp1044
S'EventTime'
p1045
S'4320991'
p1046
sg4
L1449729849774L
sS'recordCount'
p1047
g337
sS'EventType'
p1048
S'TYPE_VIEW_CLICKED'
p1049
sS'PackageName'
p1050
S'com.xdf.ucan'
p1051
sS'OutBounds'
p1052
S'Rect(15, 389 - 525, 532)'
p1053
sS'Action'
p1054
S'[ ClassName: android.widget.LinearLayout; Text: [\xe8\xaf\x8d\xe6\xb1\x87(\xe4\xb8\x80), \xe4\xbc\x98\xe6\x89\x8d, \xe4\xbc\x98\xe6\x89\x8d\xe8\xae\xa1\xe5\x88\x92, 2015-06-04]; ContentDescription: null; ItemCount: -1; CurrentItemIndex: -1; IsEnabled: true; IsPassword: false; IsChecked: false; IsFullScreen: false; Scrollable: false; BeforeText: null; FromIndex: -1; ToIndex: -1; ScrollX: -1; ScrollY: -1; MaxScrollX: -1; MaxScrollY: -1; AddedCount: -1; RemovedCount: -1; ParcelableData: null ]'
p1055
sS'MovementGranularity'
p1056
g6
sa(dp1057
S'EventTime'
p1058
S'4321305'
p1059
sg4
L1449729850088L
sS'recordCount'
p1060
g6
sS'EventType'
p1061
S'TYPE_WINDOW_STATE_CHANGED'
p1062
sS'PackageName'
p1063
S'com.xdf.ucan'
p1064
sS'OutBounds'
p1065
S'Rect(30, 38 - 510, 960)'
p1066
sS'Action'
p1067
S'[ ClassName: com.xdf.ucan.views.LoadingDialog; Text: []; ContentDescription: null; ItemCount: -1; CurrentItemIndex: -1; IsEnabled: true; IsPassword: false; IsChecked: false; IsFullScreen: false; Scrollable: false; BeforeText: null; FromIndex: -1; ToIndex: -1; ScrollX: -1; ScrollY: -1; MaxScrollX: -1; MaxScrollY: -1; AddedCount: -1; RemovedCount: -1; ParcelableData: null ]'
p1068
sS'MovementGranularity'
p1069
g6
sa(dp1070
S'EventTime'
p1071
S'4321368'
p1072
sg4
L1449729850149L
sS'recordCount'
p1073
g6
sS'EventType'
p1074
S'TYPE_WINDOW_CONTENT_CHANGED'
p1075
sS'PackageName'
p1076
S'com.xdf.ucan'
p1077
sS'OutBounds'
p1078
S'Rect(30, 38 - 510, 960)'
p1079
sS'Action'
p1080
S'[ ClassName: android.widget.FrameLayout; Text: []; ContentDescription: null; ItemCount: -1; CurrentItemIndex: -1; IsEnabled: true; IsPassword: false; IsChecked: false; IsFullScreen: false; Scrollable: false; BeforeText: null; FromIndex: -1; ToIndex: -1; ScrollX: -1; ScrollY: -1; MaxScrollX: -1; MaxScrollY: -1; AddedCount: -1; RemovedCount: -1; ParcelableData: null ]'
p1081
sS'MovementGranularity'
p1082
g6
sa(dp1083
S'EventTime'
p1084
S'4329011'
p1085
sg4
L1449729857858L
sS'recordCount'
p1086
g6
sS'EventType'
p1087
S'TYPE_WINDOW_STATE_CHANGED'
p1088
sS'PackageName'
p1089
S'com.xdf.ucan'
p1090
sS'Action'
p1091
S'[ ClassName: com.xdf.ucan.ui.material.MaterialActivity; Text: [\xe4\xbc\x98\xe6\x92\xad\xe8\xaf\xbe]; ContentDescription: null; ItemCount: -1; CurrentItemIndex: -1; IsEnabled: true; IsPassword: false; IsChecked: false; IsFullScreen: true; Scrollable: false; BeforeText: null; FromIndex: -1; ToIndex: -1; ScrollX: -1; ScrollY: -1; MaxScrollX: -1; MaxScrollY: -1; AddedCount: -1; RemovedCount: -1; ParcelableData: null ]'
p1092
sS'MovementGranularity'
p1093
g6
sa(dp1094
S'EventTime'
p1095
S'4334256'
p1096
sg4
L1449729863053L
sS'recordCount'
p1097
g6
sS'EventType'
p1098
S'TYPE_WINDOW_STATE_CHANGED'
p1099
sS'PackageName'
p1100
S'com.xdf.ucan'
p1101
sS'OutBounds'
p1102
S'Rect(0, 0 - 540, 960)'
p1103
sS'Action'
p1104
S'[ ClassName: com.xdf.ucan.ui.material.MaterialActivity; Text: [\xe4\xbc\x98\xe6\x92\xad\xe8\xaf\xbe]; ContentDescription: null; ItemCount: -1; CurrentItemIndex: -1; IsEnabled: true; IsPassword: false; IsChecked: false; IsFullScreen: true; Scrollable: false; BeforeText: null; FromIndex: -1; ToIndex: -1; ScrollX: -1; ScrollY: -1; MaxScrollX: -1; MaxScrollY: -1; AddedCount: -1; RemovedCount: -1; ParcelableData: null ]'
p1105
sS'MovementGranularity'
p1106
g6
sa(dp1107
S'EventTime'
p1108
S'4335559'
p1109
sg4
L1449729864338L
sS'recordCount'
p1110
g6
sS'EventType'
p1111
S'TYPE_VIEW_CLICKED'
p1112
sS'PackageName'
p1113
S'com.xdf.ucan'
p1114
sS'OutBounds'
p1115
S'Rect(15, 38 - 89, 104)'
p1116
sS'Action'
p1117
S'[ ClassName: android.widget.TextView; Text: [\xe8\xbf\x94\xe5\x9b\x9e]; ContentDescription: null; ItemCount: -1; CurrentItemIndex: -1; IsEnabled: true; IsPassword: false; IsChecked: false; IsFullScreen: false; Scrollable: false; BeforeText: null; FromIndex: -1; ToIndex: -1; ScrollX: -1; ScrollY: -1; MaxScrollX: -1; MaxScrollY: -1; AddedCount: -1; RemovedCount: -1; ParcelableData: null ]'
p1118
sS'MovementGranularity'
p1119
g6
sa(dp1120
S'EventTime'
p1121
S'4335683'
p1122
sg4
L1449729864530L
sS'recordCount'
p1123
g6
sS'EventType'
p1124
S'TYPE_WINDOW_STATE_CHANGED'
p1125
sS'PackageName'
p1126
S'com.xdf.ucan'
p1127
sS'OutBounds'
p1128
S'Rect(0, 0 - 540, 960)'
p1129
sS'Action'
p1130
S'[ ClassName: com.xdf.ucan.ui.material.MaterialListActivity; Text: [\xe4\xbc\x98\xe6\x92\xad\xe8\xaf\xbe]; ContentDescription: null; ItemCount: -1; CurrentItemIndex: -1; IsEnabled: true; IsPassword: false; IsChecked: false; IsFullScreen: true; Scrollable: false; BeforeText: null; FromIndex: -1; ToIndex: -1; ScrollX: -1; ScrollY: -1; MaxScrollX: -1; MaxScrollY: -1; AddedCount: -1; RemovedCount: -1; ParcelableData: null ]'
p1131
sS'MovementGranularity'
p1132
g6
sa(dp1133
S'EventTime'
p1134
S'4336882'
p1135
sg4
L1449729865708L
sS'recordCount'
p1136
g6
sS'EventType'
p1137
S'TYPE_VIEW_SCROLLED'
p1138
sS'PackageName'
p1139
S'com.xdf.ucan'
p1140
sS'OutBounds'
p1141
S'Rect(0, 104 - 540, 960)'
p1142
sS'Action'
p1143
S'[ ClassName: android.widget.ListView; Text: []; ContentDescription: null; ItemCount: 10; CurrentItemIndex: -1; IsEnabled: true; IsPassword: false; IsChecked: false; IsFullScreen: false; Scrollable: true; BeforeText: null; FromIndex: 0; ToIndex: 5; ScrollX: -1; ScrollY: -1; MaxScrollX: -1; MaxScrollY: -1; AddedCount: -1; RemovedCount: -1; ParcelableData: null ]'
p1144
sS'MovementGranularity'
p1145
g6
sa(dp1146
S'EventTime'
p1147
S'4337650'
p1148
sg4
L1449729866429L
sS'recordCount'
p1149
g6
sS'EventType'
p1150
S'TYPE_VIEW_CLICKED'
p1151
sS'PackageName'
p1152
S'com.xdf.ucan'
p1153
sS'OutBounds'
p1154
S'Rect(15, 38 - 89, 104)'
p1155
sS'Action'
p1156
S'[ ClassName: android.widget.TextView; Text: [\xe8\xbf\x94\xe5\x9b\x9e]; ContentDescription: null; ItemCount: -1; CurrentItemIndex: -1; IsEnabled: true; IsPassword: false; IsChecked: false; IsFullScreen: false; Scrollable: false; BeforeText: null; FromIndex: -1; ToIndex: -1; ScrollX: -1; ScrollY: -1; MaxScrollX: -1; MaxScrollY: -1; AddedCount: -1; RemovedCount: -1; ParcelableData: null ]'
p1157
sS'MovementGranularity'
p1158
g6
sa(dp1159
S'EventTime'
p1160
S'4337935'
p1161
sg4
L1449729866734L
sS'recordCount'
p1162
g6
sS'EventType'
p1163
S'TYPE_WINDOW_STATE_CHANGED'
p1164
sS'PackageName'
p1165
S'com.xdf.ucan'
p1166
sS'OutBounds'
p1167
S'Rect(0, 0 - 540, 960)'
p1168
sS'Action'
p1169
S'[ ClassName: com.xdf.ucan.MainActivity; Text: [\xe4\xbc\x98\xe6\x92\xad\xe8\xaf\xbe]; ContentDescription: null; ItemCount: -1; CurrentItemIndex: -1; IsEnabled: true; IsPassword: false; IsChecked: false; IsFullScreen: true; Scrollable: false; BeforeText: null; FromIndex: -1; ToIndex: -1; ScrollX: -1; ScrollY: -1; MaxScrollX: -1; MaxScrollY: -1; AddedCount: -1; RemovedCount: -1; ParcelableData: null ]'
p1170
sS'MovementGranularity'
p1171
g6
sa(dp1172
S'EventTime'
p1173
S'4337976'
p1174
sg4
L1449729866775L
sS'recordCount'
p1175
g6
sS'EventType'
p1176
S'TYPE_WINDOW_CONTENT_CHANGED'
p1177
sS'PackageName'
p1178
S'com.xdf.ucan'
p1179
sS'OutBounds'
p1180
S'Rect(0, 0 - 540, 960)'
p1181
sS'Action'
p1182
S'[ ClassName: android.widget.FrameLayout; Text: []; ContentDescription: null; ItemCount: -1; CurrentItemIndex: -1; IsEnabled: true; IsPassword: false; IsChecked: false; IsFullScreen: false; Scrollable: false; BeforeText: null; FromIndex: -1; ToIndex: -1; ScrollX: -1; ScrollY: -1; MaxScrollX: -1; MaxScrollY: -1; AddedCount: -1; RemovedCount: -1; ParcelableData: null ]'
p1183
sS'MovementGranularity'
p1184
g6
sa.