(lp0
(dp1
S'EventTime'
p2
S'12057256'
p3
sS'SyscTime'
p4
L1449719810400L
sS'recordCount'
p5
S'0'
p6
sS'EventType'
p7
S'TYPE_WINDOW_STATE_CHANGED'
p8
sS'PackageName'
p9
S'com.example.myfristandroid'
p10
sS'OutBounds'
p11
S'Rect(0, 0 - 720, 1280)'
p12
sS'Action'
p13
S'[ ClassName: com.example.myfristandroid.SplashActivity; Text: [SE-1800\xe7\xa7\xbb\xe5\x8a\xa8APP]; ContentDescription: null; ItemCount: -1; CurrentItemIndex: -1; IsEnabled: true; IsPassword: false; IsChecked: false; IsFullScreen: true; Scrollable: false; BeforeText: null; FromIndex: -1; ToIndex: -1; ScrollX: -1; ScrollY: -1; MaxScrollX: -1; MaxScrollY: -1; AddedCount: -1; RemovedCount: -1; ParcelableData: null ]'
p14
sS'MovementGranularity'
p15
g6
sa(dp16
S'EventTime'
p17
S'12057333'
p18
sg4
L1449719810476L
sS'recordCount'
p19
g6
sS'EventType'
p20
S'TYPE_WINDOW_CONTENT_CHANGED'
p21
sS'PackageName'
p22
S'com.example.myfristandroid'
p23
sS'OutBounds'
p24
S'Rect(0, 0 - 720, 1280)'
p25
sS'Action'
p26
S'[ ClassName: android.widget.FrameLayout; Text: []; ContentDescription: null; ItemCount: -1; CurrentItemIndex: -1; IsEnabled: true; IsPassword: false; IsChecked: false; IsFullScreen: false; Scrollable: false; BeforeText: null; FromIndex: -1; ToIndex: -1; ScrollX: -1; ScrollY: -1; MaxScrollX: -1; MaxScrollY: -1; AddedCount: -1; RemovedCount: -1; ParcelableData: null ]'
p27
sS'MovementGranularity'
p28
g6
sa(dp29
S'EventTime'
p30
S'12059839'
p31
sg4
L1449719813031L
sS'recordCount'
p32
g6
sS'EventType'
p33
S'TYPE_WINDOW_STATE_CHANGED'
p34
sS'PackageName'
p35
S'com.example.myfristandroid'
p36
sS'OutBounds'
p37
S'Rect(0, 0 - 720, 1280)'
p38
sS'Action'
p39
S'[ ClassName: com.example.myfristandroid.MainActivity; Text: [SE-1800\xe7\xa7\xbb\xe5\x8a\xa8APP]; ContentDescription: null; ItemCount: -1; CurrentItemIndex: -1; IsEnabled: true; IsPassword: false; IsChecked: false; IsFullScreen: true; Scrollable: false; BeforeText: null; FromIndex: -1; ToIndex: -1; ScrollX: -1; ScrollY: -1; MaxScrollX: -1; MaxScrollY: -1; AddedCount: -1; RemovedCount: -1; ParcelableData: null ]'
p40
sS'MovementGranularity'
p41
g6
sa(dp42
S'EventTime'
p43
S'12059840'
p44
sg4
L1449719813129L
sS'recordCount'
p45
g6
sS'EventType'
p46
S'TYPE_WINDOW_CONTENT_CHANGED'
p47
sS'PackageName'
p48
S'com.example.myfristandroid'
p49
sS'OutBounds'
p50
S'Rect(0, 0 - 720, 1280)'
p51
sS'Action'
p52
S'[ ClassName: android.widget.FrameLayout; Text: []; ContentDescription: null; ItemCount: -1; CurrentItemIndex: -1; IsEnabled: true; IsPassword: false; IsChecked: false; IsFullScreen: false; Scrollable: false; BeforeText: null; FromIndex: -1; ToIndex: -1; ScrollX: -1; ScrollY: -1; MaxScrollX: -1; MaxScrollY: -1; AddedCount: -1; RemovedCount: -1; ParcelableData: null ]'
p53
sS'MovementGranularity'
p54
g6
sa(dp55
S'EventTime'
p56
S'12059889'
p57
sg4
L1449719813172L
sS'recordCount'
p58
g6
sS'EventType'
p59
S'TYPE_VIEW_SCROLLED'
p60
sS'PackageName'
p61
S'com.example.myfristandroid'
p62
sS'OutBounds'
p63
S'Rect(732, 416 - 1428, 416)'
p64
sS'Action'
p65
S'[ ClassName: android.widget.ListView; Text: []; ContentDescription: null; ItemCount: 0; CurrentItemIndex: -1; IsEnabled: true; IsPassword: false; IsChecked: false; IsFullScreen: false; Scrollable: false; BeforeText: null; FromIndex: 0; ToIndex: -1; ScrollX: -1; ScrollY: -1; MaxScrollX: -1; MaxScrollY: -1; AddedCount: -1; RemovedCount: -1; ParcelableData: null ]'
p66
sS'MovementGranularity'
p67
g6
sa(dp68
S'EventTime'
p69
S'12059988'
p70
sg4
L1449719813240L
sS'recordCount'
p71
g6
sS'EventType'
p72
S'TYPE_WINDOW_CONTENT_CHANGED'
p73
sS'PackageName'
p74
S'com.example.myfristandroid'
p75
sS'OutBounds'
p76
S'Rect(0, 0 - 720, 1280)'
p77
sS'Action'
p78
S'[ ClassName: android.widget.FrameLayout; Text: []; ContentDescription: null; ItemCount: -1; CurrentItemIndex: -1; IsEnabled: true; IsPassword: false; IsChecked: false; IsFullScreen: false; Scrollable: false; BeforeText: null; FromIndex: -1; ToIndex: -1; ScrollX: -1; ScrollY: -1; MaxScrollX: -1; MaxScrollY: -1; AddedCount: -1; RemovedCount: -1; ParcelableData: null ]'
p79
sS'MovementGranularity'
p80
g6
sa(dp81
S'EventTime'
p82
S'12060478'
p83
sg4
L1449719813632L
sS'recordCount'
p84
g6
sS'EventType'
p85
S'TYPE_WINDOW_STATE_CHANGED'
p86
sS'PackageName'
p87
S'com.example.myfristandroid'
p88
sS'OutBounds'
p89
S'Rect(0, 0 - 720, 1280)'
p90
sS'Action'
p91
S'[ ClassName: com.example.myfristandroid.HuzAlertDialog; Text: [\xe6\x8f\x90\xe7\xa4\xba, \xe7\x89\x88\xe6\x9c\xac\xe6\x9c\x89\xe6\x9b\xb4\xe6\x96\xb0\xef\xbc\x8c\xe6\x98\xaf\xe5\x90\xa6\xe9\x9c\x80\xe8\xa6\x81\xe6\x9b\xb4\xe6\x96\xb0, \xe7\xab\x8b\xe5\x8d\xb3\xe6\x9b\xb4\xe6\x96\xb0, \xe7\xa8\x8d\xe5\x90\x8e\xe6\x9b\xb4\xe6\x96\xb0]; ContentDescription: null; ItemCount: -1; CurrentItemIndex: -1; IsEnabled: true; IsPassword: false; IsChecked: false; IsFullScreen: true; Scrollable: false; BeforeText: null; FromIndex: -1; ToIndex: -1; ScrollX: -1; ScrollY: -1; MaxScrollX: -1; MaxScrollY: -1; AddedCount: -1; RemovedCount: -1; ParcelableData: null ]'
p92
sS'MovementGranularity'
p93
g6
sa(dp94
S'EventTime'
p95
S'12060536'
p96
sg4
L1449719813683L
sS'recordCount'
p97
g6
sS'EventType'
p98
S'TYPE_WINDOW_CONTENT_CHANGED'
p99
sS'PackageName'
p100
S'com.example.myfristandroid'
p101
sS'OutBounds'
p102
S'Rect(0, 0 - 720, 1280)'
p103
sS'Action'
p104
S'[ ClassName: android.widget.FrameLayout; Text: []; ContentDescription: null; ItemCount: -1; CurrentItemIndex: -1; IsEnabled: true; IsPassword: false; IsChecked: false; IsFullScreen: false; Scrollable: false; BeforeText: null; FromIndex: -1; ToIndex: -1; ScrollX: -1; ScrollY: -1; MaxScrollX: -1; MaxScrollY: -1; AddedCount: -1; RemovedCount: -1; ParcelableData: null ]'
p105
sS'MovementGranularity'
p106
g6
sa(dp107
S'EventTime'
p108
S'12061970'
p109
sg4
L1449719815112L
sS'recordCount'
p110
g6
sS'EventType'
p111
S'TYPE_VIEW_CLICKED'
p112
sS'PackageName'
p113
S'com.example.myfristandroid'
p114
sS'OutBounds'
p115
S'Rect(372, 705 - 679, 801)'
p116
sS'Action'
p117
S'[ ClassName: android.widget.Button; Text: [\xe7\xa8\x8d\xe5\x90\x8e\xe6\x9b\xb4\xe6\x96\xb0]; ContentDescription: null; ItemCount: -1; CurrentItemIndex: -1; IsEnabled: true; IsPassword: false; IsChecked: false; IsFullScreen: false; Scrollable: false; BeforeText: null; FromIndex: -1; ToIndex: -1; ScrollX: -1; ScrollY: -1; MaxScrollX: -1; MaxScrollY: -1; AddedCount: -1; RemovedCount: -1; ParcelableData: null ]'
p118
sS'MovementGranularity'
p119
g6
sa(dp120
S'EventTime'
p121
S'12062011'
p122
sg4
L1449719815203L
sS'recordCount'
p123
g6
sS'EventType'
p124
S'TYPE_WINDOW_STATE_CHANGED'
p125
sS'PackageName'
p126
S'com.example.myfristandroid'
p127
sS'OutBounds'
p128
S'Rect(0, 0 - 720, 1280)'
p129
sS'Action'
p130
S'[ ClassName: com.example.myfristandroid.MainActivity; Text: [SE-1800\xe7\xa7\xbb\xe5\x8a\xa8APP]; ContentDescription: null; ItemCount: -1; CurrentItemIndex: -1; IsEnabled: true; IsPassword: false; IsChecked: false; IsFullScreen: true; Scrollable: false; BeforeText: null; FromIndex: -1; ToIndex: -1; ScrollX: -1; ScrollY: -1; MaxScrollX: -1; MaxScrollY: -1; AddedCount: -1; RemovedCount: -1; ParcelableData: null ]'
p131
sS'MovementGranularity'
p132
g6
sa(dp133
S'EventTime'
p134
S'12076358'
p135
sg4
L1449719829547L
sS'recordCount'
p136
g6
sS'EventType'
p137
S'TYPE_WINDOW_STATE_CHANGED'
p138
sS'PackageName'
p139
S'com.example.myfristandroid'
p140
sS'OutBounds'
p141
S'Rect(0, 0 - 720, 1280)'
p142
sS'Action'
p143
S'[ ClassName: com.example.myfristandroid.MainActivity; Text: [SE-1800\xe7\xa7\xbb\xe5\x8a\xa8APP]; ContentDescription: null; ItemCount: -1; CurrentItemIndex: -1; IsEnabled: true; IsPassword: false; IsChecked: false; IsFullScreen: true; Scrollable: false; BeforeText: null; FromIndex: -1; ToIndex: -1; ScrollX: -1; ScrollY: -1; MaxScrollX: -1; MaxScrollY: -1; AddedCount: -1; RemovedCount: -1; ParcelableData: null ]'
p144
sS'MovementGranularity'
p145
g6
sa(dp146
S'EventTime'
p147
S'12085538'
p148
sg4
L1449719838682L
sS'recordCount'
p149
g6
sS'EventType'
p150
S'TYPE_VIEW_CLICKED'
p151
sS'PackageName'
p152
S'com.example.myfristandroid'
p153
sS'OutBounds'
p154
S'Rect(180, 1170 - 360, 1280)'
p155
sS'Action'
p156
S'[ ClassName: android.widget.LinearLayout; Text: [\xe6\x9f\xa5\xe7\x9c\x8b\xe5\xae\x9e\xe6\x97\xb6\xe6\x95\xb0\xe6\x8d\xae\xe4\xbf\xa1\xe6\x81\xaf, \xe6\x95\xb0\xe6\x8d\xae]; ContentDescription: null; ItemCount: -1; CurrentItemIndex: -1; IsEnabled: true; IsPassword: false; IsChecked: false; IsFullScreen: false; Scrollable: false; BeforeText: null; FromIndex: -1; ToIndex: -1; ScrollX: -1; ScrollY: -1; MaxScrollX: -1; MaxScrollY: -1; AddedCount: -1; RemovedCount: -1; ParcelableData: null ]'
p157
sS'MovementGranularity'
p158
g6
sa(dp159
S'EventTime'
p160
S'12085549'
p161
sg4
L1449719838768L
sS'recordCount'
p162
g6
sS'EventType'
p163
S'TYPE_VIEW_FOCUSED'
p164
sS'PackageName'
p165
S'com.example.myfristandroid'
p166
sS'OutBounds'
p167
S'Rect(7, 300 - 715, 360)'
p168
sS'Action'
p169
S'[ ClassName: android.widget.EditText; Text: [\xe6\x90\x9c\xe7\xb4\xa2]; ContentDescription: null; ItemCount: 10; CurrentItemIndex: 4; IsEnabled: true; IsPassword: false; IsChecked: false; IsFullScreen: false; Scrollable: false; BeforeText: null; FromIndex: -1; ToIndex: -1; ScrollX: -1; ScrollY: -1; MaxScrollX: -1; MaxScrollY: -1; AddedCount: -1; RemovedCount: -1; ParcelableData: null ]'
p170
sS'MovementGranularity'
p171
g6
sa(dp172
S'EventTime'
p173
S'12085700'
p174
sg4
L1449719838877L
sS'recordCount'
p175
g6
sS'EventType'
p176
S'TYPE_WINDOW_CONTENT_CHANGED'
p177
sS'PackageName'
p178
S'com.example.myfristandroid'
p179
sS'OutBounds'
p180
S'Rect(0, 0 - 720, 1280)'
p181
sS'Action'
p182
S'[ ClassName: android.widget.FrameLayout; Text: []; ContentDescription: null; ItemCount: -1; CurrentItemIndex: -1; IsEnabled: true; IsPassword: false; IsChecked: false; IsFullScreen: false; Scrollable: false; BeforeText: null; FromIndex: -1; ToIndex: -1; ScrollX: -1; ScrollY: -1; MaxScrollX: -1; MaxScrollY: -1; AddedCount: -1; RemovedCount: -1; ParcelableData: null ]'
p183
sS'MovementGranularity'
p184
g6
sa(dp185
S'EventTime'
p186
S'12085704'
p187
sg4
L1449719838933L
sS'recordCount'
p188
g6
sS'EventType'
p189
S'TYPE_VIEW_SCROLLED'
p190
sS'PackageName'
p191
S'com.example.myfristandroid'
p192
sS'OutBounds'
p193
S'Rect(0, 140 - 720, 1170)'
p194
sS'Action'
p195
S'[ ClassName: android.support.v4.view.ViewPager; Text: []; ContentDescription: null; ItemCount: -1; CurrentItemIndex: -1; IsEnabled: true; IsPassword: false; IsChecked: false; IsFullScreen: false; Scrollable: false; BeforeText: null; FromIndex: -1; ToIndex: -1; ScrollX: -1; ScrollY: -1; MaxScrollX: -1; MaxScrollY: -1; AddedCount: -1; RemovedCount: -1; ParcelableData: null ]'
p196
sS'MovementGranularity'
p197
g6
sa(dp198
S'EventTime'
p199
S'12085833'
p200
sg4
L1449719839001L
sS'recordCount'
p201
g6
sS'EventType'
p202
S'TYPE_VIEW_SCROLLED'
p203
sS'PackageName'
p204
S'com.example.myfristandroid'
p205
sS'OutBounds'
p206
S'Rect(0, 140 - 720, 1170)'
p207
sS'Action'
p208
S'[ ClassName: android.support.v4.view.ViewPager; Text: []; ContentDescription: null; ItemCount: -1; CurrentItemIndex: -1; IsEnabled: true; IsPassword: false; IsChecked: false; IsFullScreen: false; Scrollable: false; BeforeText: null; FromIndex: -1; ToIndex: -1; ScrollX: -1; ScrollY: -1; MaxScrollX: -1; MaxScrollY: -1; AddedCount: -1; RemovedCount: -1; ParcelableData: null ]'
p209
sS'MovementGranularity'
p210
g6
sa(dp211
S'EventTime'
p212
S'12089234'
p213
sg4
L1449719842376L
sS'recordCount'
p214
g6
sS'EventType'
p215
S'TYPE_VIEW_CLICKED'
p216
sS'PackageName'
p217
S'com.example.myfristandroid'
p218
sS'OutBounds'
p219
S'Rect(540, 1170 - 720, 1280)'
p220
sS'Action'
p221
S'[ ClassName: android.widget.LinearLayout; Text: [\xe8\xae\xbe\xe7\xbd\xae\xe7\xb3\xbb\xe7\xbb\x9f\xe8\xbf\x90\xe8\xa1\x8c\xe5\x8f\x82\xe6\x95\xb0, \xe8\xae\xbe\xe7\xbd\xae]; ContentDescription: null; ItemCount: -1; CurrentItemIndex: -1; IsEnabled: true; IsPassword: false; IsChecked: false; IsFullScreen: false; Scrollable: false; BeforeText: null; FromIndex: -1; ToIndex: -1; ScrollX: -1; ScrollY: -1; MaxScrollX: -1; MaxScrollY: -1; AddedCount: -1; RemovedCount: -1; ParcelableData: null ]'
p222
sS'MovementGranularity'
p223
g6
sa(dp224
S'EventTime'
p225
S'12089246'
p226
sg4
L1449719842469L
sS'recordCount'
p227
g6
sS'EventType'
p228
S'TYPE_VIEW_FOCUSED'
p229
sS'PackageName'
p230
S'com.example.myfristandroid'
p231
sS'OutBounds'
p232
S'Rect(237, 150 - 747, 210)'
p233
sS'Action'
p234
S'[ ClassName: android.widget.EditText; Text: [\xe6\x9c\x8d\xe5\x8a\xa1\xe5\x99\xa8\xe5\x9c\xb0\xe5\x9d\x80]; ContentDescription: null; ItemCount: 10; CurrentItemIndex: 0; IsEnabled: true; IsPassword: false; IsChecked: false; IsFullScreen: false; Scrollable: false; BeforeText: null; FromIndex: -1; ToIndex: -1; ScrollX: -1; ScrollY: -1; MaxScrollX: -1; MaxScrollY: -1; AddedCount: -1; RemovedCount: -1; ParcelableData: null ]'
p235
sS'MovementGranularity'
p236
g6
sa(dp237
S'EventTime'
p238
S'12089258'
p239
sg4
L1449719842524L
sS'recordCount'
p240
g6
sS'EventType'
p241
S'TYPE_VIEW_TEXT_SELECTION_CHANGED'
p242
sS'PackageName'
p243
S'com.example.myfristandroid'
p244
sS'OutBounds'
p245
S'Rect(203, 220 - 713, 280)'
p246
sS'Action'
p247
S'[ ClassName: android.widget.EditText; Text: [143]; ContentDescription: null; ItemCount: 3; CurrentItemIndex: -1; IsEnabled: true; IsPassword: false; IsChecked: false; IsFullScreen: false; Scrollable: false; BeforeText: null; FromIndex: 0; ToIndex: 0; ScrollX: -1; ScrollY: -1; MaxScrollX: -1; MaxScrollY: -1; AddedCount: -1; RemovedCount: -1; ParcelableData: null ]'
p248
sS'MovementGranularity'
p249
g6
sa(dp250
S'EventTime'
p251
S'12089383'
p252
sg4
L1449719842588L
sS'recordCount'
p253
g6
sS'EventType'
p254
S'TYPE_WINDOW_CONTENT_CHANGED'
p255
sS'PackageName'
p256
S'com.example.myfristandroid'
p257
sS'OutBounds'
p258
S'Rect(0, 0 - 720, 1280)'
p259
sS'Action'
p260
S'[ ClassName: android.widget.FrameLayout; Text: []; ContentDescription: null; ItemCount: -1; CurrentItemIndex: -1; IsEnabled: true; IsPassword: false; IsChecked: false; IsFullScreen: false; Scrollable: false; BeforeText: null; FromIndex: -1; ToIndex: -1; ScrollX: -1; ScrollY: -1; MaxScrollX: -1; MaxScrollY: -1; AddedCount: -1; RemovedCount: -1; ParcelableData: null ]'
p261
sS'MovementGranularity'
p262
g6
sa(dp263
S'EventTime'
p264
S'12089427'
p265
sg4
L1449719842648L
sS'recordCount'
p266
g6
sS'EventType'
p267
S'TYPE_VIEW_SCROLLED'
p268
sS'PackageName'
p269
S'com.example.myfristandroid'
p270
sS'OutBounds'
p271
S'Rect(0, 140 - 720, 1170)'
p272
sS'Action'
p273
S'[ ClassName: android.support.v4.view.ViewPager; Text: []; ContentDescription: null; ItemCount: -1; CurrentItemIndex: -1; IsEnabled: true; IsPassword: false; IsChecked: false; IsFullScreen: false; Scrollable: false; BeforeText: null; FromIndex: -1; ToIndex: -1; ScrollX: -1; ScrollY: -1; MaxScrollX: -1; MaxScrollY: -1; AddedCount: -1; RemovedCount: -1; ParcelableData: null ]'
p274
sS'MovementGranularity'
p275
g6
sa(dp276
S'EventTime'
p277
S'12089520'
p278
sg4
L1449719842678L
sS'recordCount'
p279
g6
sS'EventType'
p280
S'TYPE_WINDOW_CONTENT_CHANGED'
p281
sS'PackageName'
p282
S'com.example.myfristandroid'
p283
sS'OutBounds'
p284
S'Rect(0, 0 - 720, 1280)'
p285
sS'Action'
p286
S'[ ClassName: android.widget.FrameLayout; Text: []; ContentDescription: null; ItemCount: -1; CurrentItemIndex: -1; IsEnabled: true; IsPassword: false; IsChecked: false; IsFullScreen: false; Scrollable: false; BeforeText: null; FromIndex: -1; ToIndex: -1; ScrollX: -1; ScrollY: -1; MaxScrollX: -1; MaxScrollY: -1; AddedCount: -1; RemovedCount: -1; ParcelableData: null ]'
p287
sS'MovementGranularity'
p288
g6
sa(dp289
S'EventTime'
p290
S'12089544'
p291
sg4
L1449719842705L
sS'recordCount'
p292
g6
sS'EventType'
p293
S'TYPE_VIEW_SCROLLED'
p294
sS'PackageName'
p295
S'com.example.myfristandroid'
p296
sS'OutBounds'
p297
S'Rect(0, 140 - 720, 1170)'
p298
sS'Action'
p299
S'[ ClassName: android.support.v4.view.ViewPager; Text: []; ContentDescription: null; ItemCount: -1; CurrentItemIndex: -1; IsEnabled: true; IsPassword: false; IsChecked: false; IsFullScreen: false; Scrollable: false; BeforeText: null; FromIndex: -1; ToIndex: -1; ScrollX: -1; ScrollY: -1; MaxScrollX: -1; MaxScrollY: -1; AddedCount: -1; RemovedCount: -1; ParcelableData: null ]'
p300
sS'MovementGranularity'
p301
g6
sa(dp302
S'EventTime'
p303
S'12089688'
p304
sg4
L1449719842845L
sS'recordCount'
p305
g6
sS'EventType'
p306
S'TYPE_WINDOW_CONTENT_CHANGED'
p307
sS'PackageName'
p308
S'com.example.myfristandroid'
p309
sS'OutBounds'
p310
S'Rect(0, 0 - 720, 1280)'
p311
sS'Action'
p312
S'[ ClassName: android.widget.FrameLayout; Text: []; ContentDescription: null; ItemCount: -1; CurrentItemIndex: -1; IsEnabled: true; IsPassword: false; IsChecked: false; IsFullScreen: false; Scrollable: false; BeforeText: null; FromIndex: -1; ToIndex: -1; ScrollX: -1; ScrollY: -1; MaxScrollX: -1; MaxScrollY: -1; AddedCount: -1; RemovedCount: -1; ParcelableData: null ]'
p313
sS'MovementGranularity'
p314
g6
sa(dp315
S'EventTime'
p316
S'12092791'
p317
sg4
L1449719846016L
sS'recordCount'
p318
g6
sS'EventType'
p319
S'TYPE_VIEW_TEXT_SELECTION_CHANGED'
p320
sS'PackageName'
p321
S'com.example.myfristandroid'
p322
sS'OutBounds'
p323
S'Rect(200, 360 - 710, 420)'
p324
sS'Action'
p325
S'[ ClassName: android.widget.EditText; Text: [\xe5\x80\xbc\xe7\x8f\xad\xe5\x91\x98]; ContentDescription: null; ItemCount: 3; CurrentItemIndex: -1; IsEnabled: true; IsPassword: false; IsChecked: false; IsFullScreen: false; Scrollable: false; BeforeText: null; FromIndex: 3; ToIndex: 3; ScrollX: -1; ScrollY: -1; MaxScrollX: -1; MaxScrollY: -1; AddedCount: -1; RemovedCount: -1; ParcelableData: null ]'
p326
sS'MovementGranularity'
p327
g6
sa(dp328
S'EventTime'
p329
S'12092791'
p330
sg4
L1449719846047L
sS'recordCount'
p331
g6
sS'EventType'
p332
S'TYPE_VIEW_FOCUSED'
p333
sS'PackageName'
p334
S'com.example.myfristandroid'
p335
sS'OutBounds'
p336
S'Rect(200, 360 - 710, 420)'
p337
sS'Action'
p338
S'[ ClassName: android.widget.EditText; Text: [\xe5\x80\xbc\xe7\x8f\xad\xe5\x91\x98]; ContentDescription: null; ItemCount: 10; CurrentItemIndex: 3; IsEnabled: true; IsPassword: false; IsChecked: false; IsFullScreen: false; Scrollable: false; BeforeText: null; FromIndex: -1; ToIndex: -1; ScrollX: -1; ScrollY: -1; MaxScrollX: -1; MaxScrollY: -1; AddedCount: -1; RemovedCount: -1; ParcelableData: null ]'
p339
sS'MovementGranularity'
p340
g6
sa(dp341
S'EventTime'
p342
S'12092961'
p343
sg4
L1449719846125L
sS'recordCount'
p344
g6
sS'EventType'
p345
S'TYPE_WINDOW_CONTENT_CHANGED'
p346
sS'PackageName'
p347
S'com.example.myfristandroid'
p348
sS'OutBounds'
p349
S'Rect(0, 0 - 720, 1280)'
p350
sS'Action'
p351
S'[ ClassName: android.widget.FrameLayout; Text: []; ContentDescription: null; ItemCount: -1; CurrentItemIndex: -1; IsEnabled: true; IsPassword: false; IsChecked: false; IsFullScreen: false; Scrollable: false; BeforeText: null; FromIndex: -1; ToIndex: -1; ScrollX: -1; ScrollY: -1; MaxScrollX: -1; MaxScrollY: -1; AddedCount: -1; RemovedCount: -1; ParcelableData: null ]'
p352
sS'MovementGranularity'
p353
g6
sa(dp354
S'EventTime'
p355
S'12094327'
p356
sg4
L1449719847506L
sS'recordCount'
p357
g6
sS'EventType'
p358
S'TYPE_WINDOW_CONTENT_CHANGED'
p359
sS'PackageName'
p360
S'com.example.myfristandroid'
p361
sS'OutBounds'
p362
S'Rect(0, 0 - 720, 1280)'
p363
sS'Action'
p364
S'[ ClassName: android.widget.FrameLayout; Text: []; ContentDescription: null; ItemCount: -1; CurrentItemIndex: -1; IsEnabled: true; IsPassword: false; IsChecked: false; IsFullScreen: false; Scrollable: false; BeforeText: null; FromIndex: -1; ToIndex: -1; ScrollX: -1; ScrollY: -1; MaxScrollX: -1; MaxScrollY: -1; AddedCount: -1; RemovedCount: -1; ParcelableData: null ]'
p365
sS'MovementGranularity'
p366
g6
sa(dp367
S'EventTime'
p368
S'12094345'
p369
sg4
L1449719847558L
sS'recordCount'
p370
g6
sS'EventType'
p371
S'TYPE_VIEW_TEXT_CHANGED'
p372
sS'PackageName'
p373
S'com.example.myfristandroid'
p374
sS'OutBounds'
p375
S'Rect(200, 360 - 710, 420)'
p376
sS'Action'
p377
S'[ ClassName: android.widget.EditText; Text: [\xe7\x94\xa8\xe6\x88\xb7\xe5\x90\x8d]; ContentDescription: null; ItemCount: -1; CurrentItemIndex: -1; IsEnabled: true; IsPassword: false; IsChecked: false; IsFullScreen: false; Scrollable: false; BeforeText: \xe5\x80\xbc; FromIndex: 0; ToIndex: -1; ScrollX: -1; ScrollY: -1; MaxScrollX: -1; MaxScrollY: -1; AddedCount: 0; RemovedCount: 1; ParcelableData: null ]'
p378
sS'MovementGranularity'
p379
g6
sa(dp380
S'EventTime'
p381
S'12094357'
p382
sg4
L1449719847598L
sS'recordCount'
p383
g6
sS'EventType'
p384
S'TYPE_VIEW_TEXT_SELECTION_CHANGED'
p385
sS'PackageName'
p386
S'com.example.myfristandroid'
p387
sS'OutBounds'
p388
S'Rect(200, 360 - 710, 420)'
p389
sS'Action'
p390
S'[ ClassName: android.widget.EditText; Text: [\xe7\x94\xa8\xe6\x88\xb7\xe5\x90\x8d]; ContentDescription: null; ItemCount: 0; CurrentItemIndex: -1; IsEnabled: true; IsPassword: false; IsChecked: false; IsFullScreen: false; Scrollable: false; BeforeText: null; FromIndex: 0; ToIndex: 0; ScrollX: -1; ScrollY: -1; MaxScrollX: -1; MaxScrollY: -1; AddedCount: -1; RemovedCount: -1; ParcelableData: null ]'
p391
sS'MovementGranularity'
p392
g6
sa(dp393
S'EventTime'
p394
S'12094468'
p395
sg4
L1449719847677L
sS'recordCount'
p396
g6
sS'EventType'
p397
S'TYPE_WINDOW_CONTENT_CHANGED'
p398
sS'PackageName'
p399
S'com.example.myfristandroid'
p400
sS'OutBounds'
p401
S'Rect(0, 0 - 720, 1280)'
p402
sS'Action'
p403
S'[ ClassName: android.widget.FrameLayout; Text: []; ContentDescription: null; ItemCount: -1; CurrentItemIndex: -1; IsEnabled: true; IsPassword: false; IsChecked: false; IsFullScreen: false; Scrollable: false; BeforeText: null; FromIndex: -1; ToIndex: -1; ScrollX: -1; ScrollY: -1; MaxScrollX: -1; MaxScrollY: -1; AddedCount: -1; RemovedCount: -1; ParcelableData: null ]'
p404
sS'MovementGranularity'
p405
g6
sa(dp406
S'EventTime'
p407
S'12098759'
p408
sg4
L1449719851918L
sS'recordCount'
p409
g6
sS'EventType'
p410
S'TYPE_VIEW_TEXT_CHANGED'
p411
sS'PackageName'
p412
S'com.example.myfristandroid'
p413
sS'OutBounds'
p414
S'Rect(200, 360 - 710, 420)'
p415
sS'Action'
p416
S'[ ClassName: android.widget.EditText; Text: [\xe7\xb3\xbb\xe7\xbb\x9f]; ContentDescription: null; ItemCount: -1; CurrentItemIndex: -1; IsEnabled: true; IsPassword: false; IsChecked: false; IsFullScreen: false; Scrollable: false; BeforeText: ; FromIndex: 0; ToIndex: -1; ScrollX: -1; ScrollY: -1; MaxScrollX: -1; MaxScrollY: -1; AddedCount: 2; RemovedCount: 0; ParcelableData: null ]'
p417
sS'MovementGranularity'
p418
g6
sa(dp419
S'EventTime'
p420
S'12098763'
p421
sg4
L1449719851966L
sS'recordCount'
p422
g6
sS'EventType'
p423
S'TYPE_VIEW_TEXT_SELECTION_CHANGED'
p424
sS'PackageName'
p425
S'com.example.myfristandroid'
p426
sS'OutBounds'
p427
S'Rect(200, 360 - 710, 420)'
p428
sS'Action'
p429
S'[ ClassName: android.widget.EditText; Text: [\xe7\xb3\xbb\xe7\xbb\x9f]; ContentDescription: null; ItemCount: 2; CurrentItemIndex: -1; IsEnabled: true; IsPassword: false; IsChecked: false; IsFullScreen: false; Scrollable: false; BeforeText: null; FromIndex: 2; ToIndex: 2; ScrollX: -1; ScrollY: -1; MaxScrollX: -1; MaxScrollY: -1; AddedCount: -1; RemovedCount: -1; ParcelableData: null ]'
p430
sS'MovementGranularity'
p431
g6
sa(dp432
S'EventTime'
p433
S'12098880'
p434
sg4
L1449719852052L
sS'recordCount'
p435
g6
sS'EventType'
p436
S'TYPE_WINDOW_CONTENT_CHANGED'
p437
sS'PackageName'
p438
S'com.example.myfristandroid'
p439
sS'OutBounds'
p440
S'Rect(0, 0 - 720, 1280)'
p441
sS'Action'
p442
S'[ ClassName: android.widget.FrameLayout; Text: []; ContentDescription: null; ItemCount: -1; CurrentItemIndex: -1; IsEnabled: true; IsPassword: false; IsChecked: false; IsFullScreen: false; Scrollable: false; BeforeText: null; FromIndex: -1; ToIndex: -1; ScrollX: -1; ScrollY: -1; MaxScrollX: -1; MaxScrollY: -1; AddedCount: -1; RemovedCount: -1; ParcelableData: null ]'
p443
sS'MovementGranularity'
p444
g6
sa(dp445
S'EventTime'
p446
S'12104236'
p447
sg4
L1449719857406L
sS'recordCount'
p448
g6
sS'EventType'
p449
S'TYPE_VIEW_TEXT_CHANGED'
p450
sS'PackageName'
p451
S'com.example.myfristandroid'
p452
sS'OutBounds'
p453
S'Rect(200, 360 - 710, 420)'
p454
sS'Action'
p455
S'[ ClassName: android.widget.EditText; Text: [\xe7\xb3\xbb\xe7\xbb\x9f\xe7\xae\xa1\xe7\x90\x86\xe5\x91\x98]; ContentDescription: null; ItemCount: -1; CurrentItemIndex: -1; IsEnabled: true; IsPassword: false; IsChecked: false; IsFullScreen: false; Scrollable: false; BeforeText: \xe7\xb3\xbb\xe7\xbb\x9f; FromIndex: 2; ToIndex: -1; ScrollX: -1; ScrollY: -1; MaxScrollX: -1; MaxScrollY: -1; AddedCount: 3; RemovedCount: 0; ParcelableData: null ]'
p456
sS'MovementGranularity'
p457
g6
sa(dp458
S'EventTime'
p459
S'12104242'
p460
sg4
L1449719857452L
sS'recordCount'
p461
g6
sS'EventType'
p462
S'TYPE_VIEW_TEXT_SELECTION_CHANGED'
p463
sS'PackageName'
p464
S'com.example.myfristandroid'
p465
sS'OutBounds'
p466
S'Rect(200, 360 - 710, 420)'
p467
sS'Action'
p468
S'[ ClassName: android.widget.EditText; Text: [\xe7\xb3\xbb\xe7\xbb\x9f\xe7\xae\xa1\xe7\x90\x86\xe5\x91\x98]; ContentDescription: null; ItemCount: 5; CurrentItemIndex: -1; IsEnabled: true; IsPassword: false; IsChecked: false; IsFullScreen: false; Scrollable: false; BeforeText: null; FromIndex: 5; ToIndex: 5; ScrollX: -1; ScrollY: -1; MaxScrollX: -1; MaxScrollY: -1; AddedCount: -1; RemovedCount: -1; ParcelableData: null ]'
p469
sS'MovementGranularity'
p470
g6
sa(dp471
S'EventTime'
p472
S'12104369'
p473
sg4
L1449719857565L
sS'recordCount'
p474
g6
sS'EventType'
p475
S'TYPE_WINDOW_CONTENT_CHANGED'
p476
sS'PackageName'
p477
S'com.example.myfristandroid'
p478
sS'OutBounds'
p479
S'Rect(0, 0 - 720, 1280)'
p480
sS'Action'
p481
S'[ ClassName: android.widget.FrameLayout; Text: []; ContentDescription: null; ItemCount: -1; CurrentItemIndex: -1; IsEnabled: true; IsPassword: false; IsChecked: false; IsFullScreen: false; Scrollable: false; BeforeText: null; FromIndex: -1; ToIndex: -1; ScrollX: -1; ScrollY: -1; MaxScrollX: -1; MaxScrollY: -1; AddedCount: -1; RemovedCount: -1; ParcelableData: null ]'
p482
sS'MovementGranularity'
p483
g6
sa(dp484
S'EventTime'
p485
S'12105029'
p486
sg4
L1449719858255L
sS'recordCount'
p487
g6
sS'EventType'
p488
S'TYPE_VIEW_TEXT_SELECTION_CHANGED'
p489
sS'PackageName'
p490
S'com.example.myfristandroid'
p491
sS'OutBounds'
p492
S'Rect(200, 430 - 710, 490)'
p493
sS'Action'
p494
S'[ ClassName: android.widget.EditText; Text: []; ContentDescription: null; ItemCount: 3; CurrentItemIndex: -1; IsEnabled: true; IsPassword: true; IsChecked: false; IsFullScreen: false; Scrollable: false; BeforeText: null; FromIndex: 3; ToIndex: 3; ScrollX: -1; ScrollY: -1; MaxScrollX: -1; MaxScrollY: -1; AddedCount: -1; RemovedCount: -1; ParcelableData: null ]'
p495
sS'MovementGranularity'
p496
g6
sa(dp497
S'EventTime'
p498
S'12105031'
p499
sg4
L1449719858335L
sS'recordCount'
p500
g6
sS'EventType'
p501
S'TYPE_VIEW_FOCUSED'
p502
sS'PackageName'
p503
S'com.example.myfristandroid'
p504
sS'OutBounds'
p505
S'Rect(200, 430 - 710, 490)'
p506
sS'Action'
p507
S'[ ClassName: android.widget.EditText; Text: []; ContentDescription: null; ItemCount: 10; CurrentItemIndex: 4; IsEnabled: true; IsPassword: true; IsChecked: false; IsFullScreen: false; Scrollable: false; BeforeText: null; FromIndex: -1; ToIndex: -1; ScrollX: -1; ScrollY: -1; MaxScrollX: -1; MaxScrollY: -1; AddedCount: -1; RemovedCount: -1; ParcelableData: null ]'
p508
sS'MovementGranularity'
p509
g6
sa(dp510
S'EventTime'
p511
S'12105172'
p512
sg4
L1449719858418L
sS'recordCount'
p513
g6
sS'EventType'
p514
S'TYPE_WINDOW_CONTENT_CHANGED'
p515
sS'PackageName'
p516
S'com.example.myfristandroid'
p517
sS'OutBounds'
p518
S'Rect(0, 0 - 720, 1280)'
p519
sS'Action'
p520
S'[ ClassName: android.widget.FrameLayout; Text: []; ContentDescription: null; ItemCount: -1; CurrentItemIndex: -1; IsEnabled: true; IsPassword: false; IsChecked: false; IsFullScreen: false; Scrollable: false; BeforeText: null; FromIndex: -1; ToIndex: -1; ScrollX: -1; ScrollY: -1; MaxScrollX: -1; MaxScrollY: -1; AddedCount: -1; RemovedCount: -1; ParcelableData: null ]'
p521
sS'MovementGranularity'
p522
g6
sa(dp523
S'EventTime'
p524
S'12106280'
p525
sg4
L1449719859462L
sS'recordCount'
p526
g6
sS'EventType'
p527
S'TYPE_WINDOW_CONTENT_CHANGED'
p528
sS'PackageName'
p529
S'com.example.myfristandroid'
p530
sS'OutBounds'
p531
S'Rect(0, 0 - 720, 1280)'
p532
sS'Action'
p533
S'[ ClassName: android.widget.FrameLayout; Text: []; ContentDescription: null; ItemCount: -1; CurrentItemIndex: -1; IsEnabled: true; IsPassword: false; IsChecked: false; IsFullScreen: false; Scrollable: false; BeforeText: null; FromIndex: -1; ToIndex: -1; ScrollX: -1; ScrollY: -1; MaxScrollX: -1; MaxScrollY: -1; AddedCount: -1; RemovedCount: -1; ParcelableData: null ]'
p534
sS'MovementGranularity'
p535
g6
sa(dp536
S'EventTime'
p537
S'12106310'
p538
sg4
L1449719859529L
sS'recordCount'
p539
g6
sS'EventType'
p540
S'TYPE_VIEW_TEXT_CHANGED'
p541
sS'PackageName'
p542
S'com.example.myfristandroid'
p543
sS'OutBounds'
p544
S'Rect(200, 430 - 710, 490)'
p545
sS'Action'
p546
S'[ ClassName: android.widget.EditText; Text: []; ContentDescription: null; ItemCount: -1; CurrentItemIndex: -1; IsEnabled: true; IsPassword: true; IsChecked: false; IsFullScreen: false; Scrollable: false; BeforeText: null; FromIndex: 0; ToIndex: -1; ScrollX: -1; ScrollY: -1; MaxScrollX: -1; MaxScrollY: -1; AddedCount: 0; RemovedCount: 1; ParcelableData: null ]'
p547
sS'MovementGranularity'
p548
g6
sa(dp549
S'EventTime'
p550
S'12106312'
p551
sg4
L1449719859592L
sS'recordCount'
p552
g6
sS'EventType'
p553
S'TYPE_VIEW_TEXT_SELECTION_CHANGED'
p554
sS'PackageName'
p555
S'com.example.myfristandroid'
p556
sS'OutBounds'
p557
S'Rect(200, 430 - 710, 490)'
p558
sS'Action'
p559
S'[ ClassName: android.widget.EditText; Text: []; ContentDescription: null; ItemCount: 0; CurrentItemIndex: -1; IsEnabled: true; IsPassword: true; IsChecked: false; IsFullScreen: false; Scrollable: false; BeforeText: null; FromIndex: 0; ToIndex: 0; ScrollX: -1; ScrollY: -1; MaxScrollX: -1; MaxScrollY: -1; AddedCount: -1; RemovedCount: -1; ParcelableData: null ]'
p560
sS'MovementGranularity'
p561
g6
sa(dp562
S'EventTime'
p563
S'12106425'
p564
sg4
L1449719859653L
sS'recordCount'
p565
g6
sS'EventType'
p566
S'TYPE_WINDOW_CONTENT_CHANGED'
p567
sS'PackageName'
p568
S'com.example.myfristandroid'
p569
sS'OutBounds'
p570
S'Rect(0, 0 - 720, 1280)'
p571
sS'Action'
p572
S'[ ClassName: android.widget.FrameLayout; Text: []; ContentDescription: null; ItemCount: -1; CurrentItemIndex: -1; IsEnabled: true; IsPassword: false; IsChecked: false; IsFullScreen: false; Scrollable: false; BeforeText: null; FromIndex: -1; ToIndex: -1; ScrollX: -1; ScrollY: -1; MaxScrollX: -1; MaxScrollY: -1; AddedCount: -1; RemovedCount: -1; ParcelableData: null ]'
p573
sS'MovementGranularity'
p574
g6
sa(dp575
S'EventTime'
p576
S'12107925'
p577
sg4
L1449719861101L
sS'recordCount'
p578
g6
sS'EventType'
p579
S'TYPE_WINDOW_CONTENT_CHANGED'
p580
sS'PackageName'
p581
S'com.example.myfristandroid'
p582
sS'OutBounds'
p583
S'Rect(0, 0 - 720, 1280)'
p584
sS'Action'
p585
S'[ ClassName: android.widget.FrameLayout; Text: []; ContentDescription: null; ItemCount: -1; CurrentItemIndex: -1; IsEnabled: true; IsPassword: false; IsChecked: false; IsFullScreen: false; Scrollable: false; BeforeText: null; FromIndex: -1; ToIndex: -1; ScrollX: -1; ScrollY: -1; MaxScrollX: -1; MaxScrollY: -1; AddedCount: -1; RemovedCount: -1; ParcelableData: null ]'
p586
sS'MovementGranularity'
p587
g6
sa(dp588
S'EventTime'
p589
S'12112386'
p590
sg4
L1449719865529L
sS'recordCount'
p591
g6
sS'EventType'
p592
S'TYPE_VIEW_CLICKED'
p593
sS'PackageName'
p594
S'com.example.myfristandroid'
p595
sS'OutBounds'
p596
S'Rect(220, 500 - 500, 560)'
p597
sS'Action'
p598
S'[ ClassName: android.widget.Button; Text: [\xe7\x99\xbb\xe5\xbd\x95]; ContentDescription: null; ItemCount: -1; CurrentItemIndex: -1; IsEnabled: true; IsPassword: false; IsChecked: false; IsFullScreen: false; Scrollable: false; BeforeText: null; FromIndex: -1; ToIndex: -1; ScrollX: -1; ScrollY: -1; MaxScrollX: -1; MaxScrollY: -1; AddedCount: -1; RemovedCount: -1; ParcelableData: null ]'
p599
sS'MovementGranularity'
p600
g6
sa(dp601
S'EventTime'
p602
S'12112575'
p603
sg4
L1449719865730L
sS'recordCount'
p604
g6
sS'EventType'
p605
S'TYPE_WINDOW_CONTENT_CHANGED'
p606
sS'PackageName'
p607
S'com.example.myfristandroid'
p608
sS'OutBounds'
p609
S'Rect(0, 0 - 720, 1280)'
p610
sS'Action'
p611
S'[ ClassName: android.widget.FrameLayout; Text: []; ContentDescription: null; ItemCount: -1; CurrentItemIndex: -1; IsEnabled: true; IsPassword: false; IsChecked: false; IsFullScreen: false; Scrollable: false; BeforeText: null; FromIndex: -1; ToIndex: -1; ScrollX: -1; ScrollY: -1; MaxScrollX: -1; MaxScrollY: -1; AddedCount: -1; RemovedCount: -1; ParcelableData: null ]'
p612
sS'MovementGranularity'
p613
g6
sa(dp614
S'EventTime'
p615
S'12120048'
p616
sg4
L1449719873190L
sS'recordCount'
p617
g6
sS'EventType'
p618
S'TYPE_VIEW_CLICKED'
p619
sS'PackageName'
p620
S'com.example.myfristandroid'
p621
sS'OutBounds'
p622
S'Rect(220, 500 - 500, 560)'
p623
sS'Action'
p624
S'[ ClassName: android.widget.Button; Text: [\xe7\xb3\xbb\xe7\xbb\x9f\xe7\xae\xa1\xe7\x90\x86\xe5\x91\x98]; ContentDescription: null; ItemCount: -1; CurrentItemIndex: -1; IsEnabled: true; IsPassword: false; IsChecked: false; IsFullScreen: false; Scrollable: false; BeforeText: null; FromIndex: -1; ToIndex: -1; ScrollX: -1; ScrollY: -1; MaxScrollX: -1; MaxScrollY: -1; AddedCount: -1; RemovedCount: -1; ParcelableData: null ]'
p625
sS'MovementGranularity'
p626
g6
sa(dp627
S'EventTime'
p628
S'12120177'
p629
sg4
L1449719873371L
sS'recordCount'
p630
g6
sS'EventType'
p631
S'TYPE_WINDOW_CONTENT_CHANGED'
p632
sS'PackageName'
p633
S'com.example.myfristandroid'
p634
sS'OutBounds'
p635
S'Rect(0, 0 - 720, 1280)'
p636
sS'Action'
p637
S'[ ClassName: android.widget.FrameLayout; Text: []; ContentDescription: null; ItemCount: -1; CurrentItemIndex: -1; IsEnabled: true; IsPassword: false; IsChecked: false; IsFullScreen: false; Scrollable: false; BeforeText: null; FromIndex: -1; ToIndex: -1; ScrollX: -1; ScrollY: -1; MaxScrollX: -1; MaxScrollY: -1; AddedCount: -1; RemovedCount: -1; ParcelableData: null ]'
p638
sS'MovementGranularity'
p639
g6
sa(dp640
S'EventTime'
p641
S'12121286'
p642
sg4
L1449719874515L
sS'recordCount'
p643
g6
sS'EventType'
p644
S'TYPE_VIEW_FOCUSED'
p645
sS'PackageName'
p646
S'com.example.myfristandroid'
p647
sS'OutBounds'
p648
S'Rect(200, 360 - 710, 420)'
p649
sS'Action'
p650
S'[ ClassName: android.widget.EditText; Text: [\xe7\xb3\xbb\xe7\xbb\x9f\xe7\xae\xa1\xe7\x90\x86\xe5\x91\x98]; ContentDescription: null; ItemCount: 10; CurrentItemIndex: 3; IsEnabled: true; IsPassword: false; IsChecked: false; IsFullScreen: false; Scrollable: false; BeforeText: null; FromIndex: -1; ToIndex: -1; ScrollX: -1; ScrollY: -1; MaxScrollX: -1; MaxScrollY: -1; AddedCount: -1; RemovedCount: -1; ParcelableData: null ]'
p651
sS'MovementGranularity'
p652
g6
sa(dp653
S'EventTime'
p654
S'12121460'
p655
sg4
L1449719874646L
sS'recordCount'
p656
g6
sS'EventType'
p657
S'TYPE_WINDOW_CONTENT_CHANGED'
p658
sS'PackageName'
p659
S'com.example.myfristandroid'
p660
sS'OutBounds'
p661
S'Rect(0, 0 - 720, 1280)'
p662
sS'Action'
p663
S'[ ClassName: android.widget.FrameLayout; Text: []; ContentDescription: null; ItemCount: -1; CurrentItemIndex: -1; IsEnabled: true; IsPassword: false; IsChecked: false; IsFullScreen: false; Scrollable: false; BeforeText: null; FromIndex: -1; ToIndex: -1; ScrollX: -1; ScrollY: -1; MaxScrollX: -1; MaxScrollY: -1; AddedCount: -1; RemovedCount: -1; ParcelableData: null ]'
p664
sS'MovementGranularity'
p665
g6
sa(dp666
S'EventTime'
p667
S'12122728'
p668
sg4
L1449719875925L
sS'recordCount'
p669
g6
sS'EventType'
p670
S'TYPE_WINDOW_CONTENT_CHANGED'
p671
sS'PackageName'
p672
S'com.example.myfristandroid'
p673
sS'OutBounds'
p674
S'Rect(0, 0 - 720, 1280)'
p675
sS'Action'
p676
S'[ ClassName: android.widget.FrameLayout; Text: []; ContentDescription: null; ItemCount: -1; CurrentItemIndex: -1; IsEnabled: true; IsPassword: false; IsChecked: false; IsFullScreen: false; Scrollable: false; BeforeText: null; FromIndex: -1; ToIndex: -1; ScrollX: -1; ScrollY: -1; MaxScrollX: -1; MaxScrollY: -1; AddedCount: -1; RemovedCount: -1; ParcelableData: null ]'
p677
sS'MovementGranularity'
p678
g6
sa(dp679
S'EventTime'
p680
S'12122878'
p681
sg4
L1449719876046L
sS'recordCount'
p682
g6
sS'EventType'
p683
S'TYPE_WINDOW_CONTENT_CHANGED'
p684
sS'PackageName'
p685
S'com.example.myfristandroid'
p686
sS'OutBounds'
p687
S'Rect(0, 0 - 720, 1280)'
p688
sS'Action'
p689
S'[ ClassName: android.widget.FrameLayout; Text: []; ContentDescription: null; ItemCount: -1; CurrentItemIndex: -1; IsEnabled: true; IsPassword: false; IsChecked: false; IsFullScreen: false; Scrollable: false; BeforeText: null; FromIndex: -1; ToIndex: -1; ScrollX: -1; ScrollY: -1; MaxScrollX: -1; MaxScrollY: -1; AddedCount: -1; RemovedCount: -1; ParcelableData: null ]'
p690
sS'MovementGranularity'
p691
g6
sa(dp692
S'EventTime'
p693
S'12122881'
p694
sg4
L1449719876089L
sS'recordCount'
p695
g6
sS'EventType'
p696
S'TYPE_VIEW_TEXT_CHANGED'
p697
sS'PackageName'
p698
S'com.example.myfristandroid'
p699
sS'OutBounds'
p700
S'Rect(200, 360 - 710, 420)'
p701
sS'Action'
p702
S'[ ClassName: android.widget.EditText; Text: [\xe7\x94\xa8\xe6\x88\xb7\xe5\x90\x8d]; ContentDescription: null; ItemCount: -1; CurrentItemIndex: -1; IsEnabled: true; IsPassword: false; IsChecked: false; IsFullScreen: false; Scrollable: false; BeforeText: \xe7\xb3\xbb; FromIndex: 0; ToIndex: -1; ScrollX: -1; ScrollY: -1; MaxScrollX: -1; MaxScrollY: -1; AddedCount: 0; RemovedCount: 1; ParcelableData: null ]'
p703
sS'MovementGranularity'
p704
g6
sa(dp705
S'EventTime'
p706
S'12122885'
p707
sg4
L1449719876130L
sS'recordCount'
p708
g6
sS'EventType'
p709
S'TYPE_VIEW_TEXT_SELECTION_CHANGED'
p710
sS'PackageName'
p711
S'com.example.myfristandroid'
p712
sS'OutBounds'
p713
S'Rect(200, 360 - 710, 420)'
p714
sS'Action'
p715
S'[ ClassName: android.widget.EditText; Text: [\xe7\x94\xa8\xe6\x88\xb7\xe5\x90\x8d]; ContentDescription: null; ItemCount: 0; CurrentItemIndex: -1; IsEnabled: true; IsPassword: false; IsChecked: false; IsFullScreen: false; Scrollable: false; BeforeText: null; FromIndex: 0; ToIndex: 0; ScrollX: -1; ScrollY: -1; MaxScrollX: -1; MaxScrollY: -1; AddedCount: -1; RemovedCount: -1; ParcelableData: null ]'
p716
sS'MovementGranularity'
p717
g6
sa(dp718
S'EventTime'
p719
S'12123007'
p720
sg4
L1449719876184L
sS'recordCount'
p721
g6
sS'EventType'
p722
S'TYPE_WINDOW_CONTENT_CHANGED'
p723
sS'PackageName'
p724
S'com.example.myfristandroid'
p725
sS'OutBounds'
p726
S'Rect(0, 0 - 720, 1280)'
p727
sS'Action'
p728
S'[ ClassName: android.widget.FrameLayout; Text: []; ContentDescription: null; ItemCount: -1; CurrentItemIndex: -1; IsEnabled: true; IsPassword: false; IsChecked: false; IsFullScreen: false; Scrollable: false; BeforeText: null; FromIndex: -1; ToIndex: -1; ScrollX: -1; ScrollY: -1; MaxScrollX: -1; MaxScrollY: -1; AddedCount: -1; RemovedCount: -1; ParcelableData: null ]'
p729
sS'MovementGranularity'
p730
g6
sa(dp731
S'EventTime'
p732
S'12127289'
p733
sg4
L1449719880472L
sS'recordCount'
p734
g6
sS'EventType'
p735
S'TYPE_VIEW_TEXT_CHANGED'
p736
sS'PackageName'
p737
S'com.example.myfristandroid'
p738
sS'OutBounds'
p739
S'Rect(200, 360 - 710, 420)'
p740
sS'Action'
p741
S'[ ClassName: android.widget.EditText; Text: [\xe5\x80\xbc\xe7\x8f\xad]; ContentDescription: null; ItemCount: -1; CurrentItemIndex: -1; IsEnabled: true; IsPassword: false; IsChecked: false; IsFullScreen: false; Scrollable: false; BeforeText: ; FromIndex: 0; ToIndex: -1; ScrollX: -1; ScrollY: -1; MaxScrollX: -1; MaxScrollY: -1; AddedCount: 2; RemovedCount: 0; ParcelableData: null ]'
p742
sS'MovementGranularity'
p743
g6
sa(dp744
S'EventTime'
p745
S'12127291'
p746
sg4
L1449719880514L
sS'recordCount'
p747
g6
sS'EventType'
p748
S'TYPE_VIEW_TEXT_SELECTION_CHANGED'
p749
sS'PackageName'
p750
S'com.example.myfristandroid'
p751
sS'OutBounds'
p752
S'Rect(200, 360 - 710, 420)'
p753
sS'Action'
p754
S'[ ClassName: android.widget.EditText; Text: [\xe5\x80\xbc\xe7\x8f\xad]; ContentDescription: null; ItemCount: 2; CurrentItemIndex: -1; IsEnabled: true; IsPassword: false; IsChecked: false; IsFullScreen: false; Scrollable: false; BeforeText: null; FromIndex: 2; ToIndex: 2; ScrollX: -1; ScrollY: -1; MaxScrollX: -1; MaxScrollY: -1; AddedCount: -1; RemovedCount: -1; ParcelableData: null ]'
p755
sS'MovementGranularity'
p756
g6
sa(dp757
S'EventTime'
p758
S'12127395'
p759
sg4
L1449719880562L
sS'recordCount'
p760
g6
sS'EventType'
p761
S'TYPE_WINDOW_CONTENT_CHANGED'
p762
sS'PackageName'
p763
S'com.example.myfristandroid'
p764
sS'OutBounds'
p765
S'Rect(0, 0 - 720, 1280)'
p766
sS'Action'
p767
S'[ ClassName: android.widget.FrameLayout; Text: []; ContentDescription: null; ItemCount: -1; CurrentItemIndex: -1; IsEnabled: true; IsPassword: false; IsChecked: false; IsFullScreen: false; Scrollable: false; BeforeText: null; FromIndex: -1; ToIndex: -1; ScrollX: -1; ScrollY: -1; MaxScrollX: -1; MaxScrollY: -1; AddedCount: -1; RemovedCount: -1; ParcelableData: null ]'
p768
sS'MovementGranularity'
p769
g6
sa(dp770
S'EventTime'
p771
S'12130716'
p772
sg4
L1449719883877L
sS'recordCount'
p773
g6
sS'EventType'
p774
S'TYPE_VIEW_TEXT_CHANGED'
p775
sS'PackageName'
p776
S'com.example.myfristandroid'
p777
sS'OutBounds'
p778
S'Rect(200, 360 - 710, 420)'
p779
sS'Action'
p780
S'[ ClassName: android.widget.EditText; Text: [\xe5\x80\xbc\xe7\x8f\xad\xe4\xba\xba\xe5\x91\x98]; ContentDescription: null; ItemCount: -1; CurrentItemIndex: -1; IsEnabled: true; IsPassword: false; IsChecked: false; IsFullScreen: false; Scrollable: false; BeforeText: \xe5\x80\xbc\xe7\x8f\xad; FromIndex: 2; ToIndex: -1; ScrollX: -1; ScrollY: -1; MaxScrollX: -1; MaxScrollY: -1; AddedCount: 2; RemovedCount: 0; ParcelableData: null ]'
p781
sS'MovementGranularity'
p782
g6
sa(dp783
S'EventTime'
p784
S'12130720'
p785
sg4
L1449719883944L
sS'recordCount'
p786
g6
sS'EventType'
p787
S'TYPE_VIEW_TEXT_SELECTION_CHANGED'
p788
sS'PackageName'
p789
S'com.example.myfristandroid'
p790
sS'OutBounds'
p791
S'Rect(200, 360 - 710, 420)'
p792
sS'Action'
p793
S'[ ClassName: android.widget.EditText; Text: [\xe5\x80\xbc\xe7\x8f\xad\xe4\xba\xba\xe5\x91\x98]; ContentDescription: null; ItemCount: 4; CurrentItemIndex: -1; IsEnabled: true; IsPassword: false; IsChecked: false; IsFullScreen: false; Scrollable: false; BeforeText: null; FromIndex: 4; ToIndex: 4; ScrollX: -1; ScrollY: -1; MaxScrollX: -1; MaxScrollY: -1; AddedCount: -1; RemovedCount: -1; ParcelableData: null ]'
p794
sS'MovementGranularity'
p795
g6
sa(dp796
S'EventTime'
p797
S'12130838'
p798
sg4
L1449719884002L
sS'recordCount'
p799
g6
sS'EventType'
p800
S'TYPE_WINDOW_CONTENT_CHANGED'
p801
sS'PackageName'
p802
S'com.example.myfristandroid'
p803
sS'OutBounds'
p804
S'Rect(0, 0 - 720, 1280)'
p805
sS'Action'
p806
S'[ ClassName: android.widget.FrameLayout; Text: []; ContentDescription: null; ItemCount: -1; CurrentItemIndex: -1; IsEnabled: true; IsPassword: false; IsChecked: false; IsFullScreen: false; Scrollable: false; BeforeText: null; FromIndex: -1; ToIndex: -1; ScrollX: -1; ScrollY: -1; MaxScrollX: -1; MaxScrollY: -1; AddedCount: -1; RemovedCount: -1; ParcelableData: null ]'
p807
sS'MovementGranularity'
p808
g6
sa(dp809
S'EventTime'
p810
S'12131335'
p811
sg4
L1449719884503L
sS'recordCount'
p812
g6
sS'EventType'
p813
S'TYPE_VIEW_FOCUSED'
p814
sS'PackageName'
p815
S'com.example.myfristandroid'
p816
sS'OutBounds'
p817
S'Rect(200, 430 - 710, 490)'
p818
sS'Action'
p819
S'[ ClassName: android.widget.EditText; Text: []; ContentDescription: null; ItemCount: 10; CurrentItemIndex: 4; IsEnabled: true; IsPassword: true; IsChecked: false; IsFullScreen: false; Scrollable: false; BeforeText: null; FromIndex: -1; ToIndex: -1; ScrollX: -1; ScrollY: -1; MaxScrollX: -1; MaxScrollY: -1; AddedCount: -1; RemovedCount: -1; ParcelableData: null ]'
p820
sS'MovementGranularity'
p821
g6
sa(dp822
S'EventTime'
p823
S'12131769'
p824
sg4
L1449719884932L
sS'recordCount'
p825
g6
sS'EventType'
p826
S'TYPE_VIEW_CLICKED'
p827
sS'PackageName'
p828
S'com.example.myfristandroid'
p829
sS'OutBounds'
p830
S'Rect(200, 430 - 710, 490)'
p831
sS'Action'
p832
S'[ ClassName: android.widget.EditText; Text: []; ContentDescription: null; ItemCount: -1; CurrentItemIndex: -1; IsEnabled: true; IsPassword: true; IsChecked: false; IsFullScreen: false; Scrollable: false; BeforeText: null; FromIndex: -1; ToIndex: -1; ScrollX: -1; ScrollY: -1; MaxScrollX: -1; MaxScrollY: -1; AddedCount: -1; RemovedCount: -1; ParcelableData: null ]'
p833
sS'MovementGranularity'
p834
g6
sa(dp835
S'EventTime'
p836
S'12132365'
p837
sg4
L1449719885508L
sS'recordCount'
p838
g6
sS'EventType'
p839
S'TYPE_VIEW_CLICKED'
p840
sS'PackageName'
p841
S'com.example.myfristandroid'
p842
sS'OutBounds'
p843
S'Rect(200, 430 - 710, 490)'
p844
sS'Action'
p845
S'[ ClassName: android.widget.EditText; Text: []; ContentDescription: null; ItemCount: -1; CurrentItemIndex: -1; IsEnabled: true; IsPassword: true; IsChecked: false; IsFullScreen: false; Scrollable: false; BeforeText: null; FromIndex: -1; ToIndex: -1; ScrollX: -1; ScrollY: -1; MaxScrollX: -1; MaxScrollY: -1; AddedCount: -1; RemovedCount: -1; ParcelableData: null ]'
p846
sS'MovementGranularity'
p847
g6
sa(dp848
S'EventTime'
p849
S'12132804'
p850
sg4
L1449719885947L
sS'recordCount'
p851
g6
sS'EventType'
p852
S'TYPE_VIEW_CLICKED'
p853
sS'PackageName'
p854
S'com.example.myfristandroid'
p855
sS'OutBounds'
p856
S'Rect(200, 430 - 710, 490)'
p857
sS'Action'
p858
S'[ ClassName: android.widget.EditText; Text: []; ContentDescription: null; ItemCount: -1; CurrentItemIndex: -1; IsEnabled: true; IsPassword: true; IsChecked: false; IsFullScreen: false; Scrollable: false; BeforeText: null; FromIndex: -1; ToIndex: -1; ScrollX: -1; ScrollY: -1; MaxScrollX: -1; MaxScrollY: -1; AddedCount: -1; RemovedCount: -1; ParcelableData: null ]'
p859
sS'MovementGranularity'
p860
g6
sa(dp861
S'EventTime'
p862
S'12134152'
p863
sg4
L1449719887297L
sS'recordCount'
p864
g6
sS'EventType'
p865
S'TYPE_VIEW_CLICKED'
p866
sS'PackageName'
p867
S'com.example.myfristandroid'
p868
sS'OutBounds'
p869
S'Rect(200, 430 - 710, 490)'
p870
sS'Action'
p871
S'[ ClassName: android.widget.EditText; Text: []; ContentDescription: null; ItemCount: -1; CurrentItemIndex: -1; IsEnabled: true; IsPassword: true; IsChecked: false; IsFullScreen: false; Scrollable: false; BeforeText: null; FromIndex: -1; ToIndex: -1; ScrollX: -1; ScrollY: -1; MaxScrollX: -1; MaxScrollY: -1; AddedCount: -1; RemovedCount: -1; ParcelableData: null ]'
p872
sS'MovementGranularity'
p873
g6
sa(dp874
S'EventTime'
p875
S'12134690'
p876
sg4
L1449719887837L
sS'recordCount'
p877
g6
sS'EventType'
p878
S'TYPE_VIEW_CLICKED'
p879
sS'PackageName'
p880
S'com.example.myfristandroid'
p881
sS'OutBounds'
p882
S'Rect(200, 430 - 710, 490)'
p883
sS'Action'
p884
S'[ ClassName: android.widget.EditText; Text: []; ContentDescription: null; ItemCount: -1; CurrentItemIndex: -1; IsEnabled: true; IsPassword: true; IsChecked: false; IsFullScreen: false; Scrollable: false; BeforeText: null; FromIndex: -1; ToIndex: -1; ScrollX: -1; ScrollY: -1; MaxScrollX: -1; MaxScrollY: -1; AddedCount: -1; RemovedCount: -1; ParcelableData: null ]'
p885
sS'MovementGranularity'
p886
g6
sa(dp887
S'EventTime'
p888
S'12135091'
p889
sg4
L1449719888234L
sS'recordCount'
p890
g6
sS'EventType'
p891
S'TYPE_VIEW_CLICKED'
p892
sS'PackageName'
p893
S'com.example.myfristandroid'
p894
sS'OutBounds'
p895
S'Rect(200, 430 - 710, 490)'
p896
sS'Action'
p897
S'[ ClassName: android.widget.EditText; Text: []; ContentDescription: null; ItemCount: -1; CurrentItemIndex: -1; IsEnabled: true; IsPassword: true; IsChecked: false; IsFullScreen: false; Scrollable: false; BeforeText: null; FromIndex: -1; ToIndex: -1; ScrollX: -1; ScrollY: -1; MaxScrollX: -1; MaxScrollY: -1; AddedCount: -1; RemovedCount: -1; ParcelableData: null ]'
p898
sS'MovementGranularity'
p899
g6
sa(dp900
S'EventTime'
p901
S'12135271'
p902
sg4
L1449719888415L
sS'recordCount'
p903
g6
sS'EventType'
p904
S'TYPE_VIEW_CLICKED'
p905
sS'PackageName'
p906
S'com.example.myfristandroid'
p907
sS'OutBounds'
p908
S'Rect(200, 430 - 710, 490)'
p909
sS'Action'
p910
S'[ ClassName: android.widget.EditText; Text: []; ContentDescription: null; ItemCount: -1; CurrentItemIndex: -1; IsEnabled: true; IsPassword: true; IsChecked: false; IsFullScreen: false; Scrollable: false; BeforeText: null; FromIndex: -1; ToIndex: -1; ScrollX: -1; ScrollY: -1; MaxScrollX: -1; MaxScrollY: -1; AddedCount: -1; RemovedCount: -1; ParcelableData: null ]'
p911
sS'MovementGranularity'
p912
g6
sa(dp913
S'EventTime'
p914
S'12135414'
p915
sg4
L1449719888559L
sS'recordCount'
p916
g6
sS'EventType'
p917
S'TYPE_VIEW_CLICKED'
p918
sS'PackageName'
p919
S'com.example.myfristandroid'
p920
sS'OutBounds'
p921
S'Rect(200, 430 - 710, 490)'
p922
sS'Action'
p923
S'[ ClassName: android.widget.EditText; Text: []; ContentDescription: null; ItemCount: -1; CurrentItemIndex: -1; IsEnabled: true; IsPassword: true; IsChecked: false; IsFullScreen: false; Scrollable: false; BeforeText: null; FromIndex: -1; ToIndex: -1; ScrollX: -1; ScrollY: -1; MaxScrollX: -1; MaxScrollY: -1; AddedCount: -1; RemovedCount: -1; ParcelableData: null ]'
p924
sS'MovementGranularity'
p925
g6
sa(dp926
S'EventTime'
p927
S'12136120'
p928
sg4
L1449719889282L
sS'recordCount'
p929
g6
sS'EventType'
p930
S'TYPE_WINDOW_CONTENT_CHANGED'
p931
sS'PackageName'
p932
S'com.example.myfristandroid'
p933
sS'OutBounds'
p934
S'Rect(0, 0 - 720, 1280)'
p935
sS'Action'
p936
S'[ ClassName: android.widget.FrameLayout; Text: []; ContentDescription: null; ItemCount: -1; CurrentItemIndex: -1; IsEnabled: true; IsPassword: false; IsChecked: false; IsFullScreen: false; Scrollable: false; BeforeText: null; FromIndex: -1; ToIndex: -1; ScrollX: -1; ScrollY: -1; MaxScrollX: -1; MaxScrollY: -1; AddedCount: -1; RemovedCount: -1; ParcelableData: null ]'
p937
sS'MovementGranularity'
p938
g6
sa(dp939
S'EventTime'
p940
S'12136348'
p941
sg4
L1449719889489L
sS'recordCount'
p942
g6
sS'EventType'
p943
S'TYPE_VIEW_CLICKED'
p944
sS'PackageName'
p945
S'com.example.myfristandroid'
p946
sS'OutBounds'
p947
S'Rect(220, 500 - 500, 560)'
p948
sS'Action'
p949
S'[ ClassName: android.widget.Button; Text: [\xe7\x99\xbb\xe5\xbd\x95]; ContentDescription: null; ItemCount: -1; CurrentItemIndex: -1; IsEnabled: true; IsPassword: false; IsChecked: false; IsFullScreen: false; Scrollable: false; BeforeText: null; FromIndex: -1; ToIndex: -1; ScrollX: -1; ScrollY: -1; MaxScrollX: -1; MaxScrollY: -1; AddedCount: -1; RemovedCount: -1; ParcelableData: null ]'
p950
sS'MovementGranularity'
p951
g6
sa(dp952
S'EventTime'
p953
S'12136481'
p954
sg4
L1449719889641L
sS'recordCount'
p955
g6
sS'EventType'
p956
S'TYPE_WINDOW_CONTENT_CHANGED'
p957
sS'PackageName'
p958
S'com.example.myfristandroid'
p959
sS'OutBounds'
p960
S'Rect(0, 0 - 720, 1280)'
p961
sS'Action'
p962
S'[ ClassName: android.widget.FrameLayout; Text: []; ContentDescription: null; ItemCount: -1; CurrentItemIndex: -1; IsEnabled: true; IsPassword: false; IsChecked: false; IsFullScreen: false; Scrollable: false; BeforeText: null; FromIndex: -1; ToIndex: -1; ScrollX: -1; ScrollY: -1; MaxScrollX: -1; MaxScrollY: -1; AddedCount: -1; RemovedCount: -1; ParcelableData: null ]'
p963
sS'MovementGranularity'
p964
g6
sa(dp965
S'EventTime'
p966
S'12136641'
p967
sg4
L1449719889783L
sS'recordCount'
p968
g6
sS'EventType'
p969
S'TYPE_VIEW_CLICKED'
p970
sS'PackageName'
p971
S'com.example.myfristandroid'
p972
sS'OutBounds'
p973
S'Rect(200, 430 - 710, 490)'
p974
sS'Action'
p975
S'[ ClassName: android.widget.EditText; Text: []; ContentDescription: null; ItemCount: -1; CurrentItemIndex: -1; IsEnabled: true; IsPassword: true; IsChecked: false; IsFullScreen: false; Scrollable: false; BeforeText: null; FromIndex: -1; ToIndex: -1; ScrollX: -1; ScrollY: -1; MaxScrollX: -1; MaxScrollY: -1; AddedCount: -1; RemovedCount: -1; ParcelableData: null ]'
p976
sS'MovementGranularity'
p977
g6
sa(dp978
S'EventTime'
p979
S'12136842'
p980
sg4
L1449719889990L
sS'recordCount'
p981
g6
sS'EventType'
p982
S'TYPE_WINDOW_STATE_CHANGED'
p983
sS'PackageName'
p984
S'com.example.myfristandroid'
p985
sS'OutBounds'
p986
S'Rect(0, 0 - 720, 1280)'
p987
sS'Action'
p988
S'[ ClassName: com.example.myfristandroid.HuzAlertDialog; Text: [\xe6\x8f\x90\xe7\xa4\xba, \xe7\x99\xbb\xe5\xbd\x95\xe5\xa4\xb1\xe8\xb4\xa5\xef\xbc\x8c\xe5\xaf\x86\xe7\xa0\x81\xe9\x94\x99\xe8\xaf\xaf, \xe7\xa1\xae\xe5\xae\x9a]; ContentDescription: null; ItemCount: -1; CurrentItemIndex: -1; IsEnabled: true; IsPassword: false; IsChecked: false; IsFullScreen: true; Scrollable: false; BeforeText: null; FromIndex: -1; ToIndex: -1; ScrollX: -1; ScrollY: -1; MaxScrollX: -1; MaxScrollY: -1; AddedCount: -1; RemovedCount: -1; ParcelableData: null ]'
p989
sS'MovementGranularity'
p990
g6
sa(dp991
S'EventTime'
p992
S'12136887'
p993
sg4
L1449719890032L
sS'recordCount'
p994
g6
sS'EventType'
p995
S'TYPE_WINDOW_CONTENT_CHANGED'
p996
sS'PackageName'
p997
S'com.example.myfristandroid'
p998
sS'OutBounds'
p999
S'Rect(0, 0 - 720, 1280)'
p1000
sS'Action'
p1001
S'[ ClassName: android.widget.FrameLayout; Text: []; ContentDescription: null; ItemCount: -1; CurrentItemIndex: -1; IsEnabled: true; IsPassword: false; IsChecked: false; IsFullScreen: false; Scrollable: false; BeforeText: null; FromIndex: -1; ToIndex: -1; ScrollX: -1; ScrollY: -1; MaxScrollX: -1; MaxScrollY: -1; AddedCount: -1; RemovedCount: -1; ParcelableData: null ]'
p1002
sS'MovementGranularity'
p1003
g6
sa(dp1004
S'EventTime'
p1005
S'12137791'
p1006
sg4
L1449719890934L
sS'recordCount'
p1007
g6
sS'EventType'
p1008
S'TYPE_VIEW_CLICKED'
p1009
sS'PackageName'
p1010
S'com.example.myfristandroid'
p1011
sS'OutBounds'
p1012
S'Rect(203, 705 - 520, 801)'
p1013
sS'Action'
p1014
S'[ ClassName: android.widget.Button; Text: [\xe7\xa1\xae\xe5\xae\x9a]; ContentDescription: null; ItemCount: -1; CurrentItemIndex: -1; IsEnabled: true; IsPassword: false; IsChecked: false; IsFullScreen: false; Scrollable: false; BeforeText: null; FromIndex: -1; ToIndex: -1; ScrollX: -1; ScrollY: -1; MaxScrollX: -1; MaxScrollY: -1; AddedCount: -1; RemovedCount: -1; ParcelableData: null ]'
p1015
sS'MovementGranularity'
p1016
g6
sa(dp1017
S'EventTime'
p1018
S'12137843'
p1019
sg4
L1449719891020L
sS'recordCount'
p1020
g6
sS'EventType'
p1021
S'TYPE_WINDOW_STATE_CHANGED'
p1022
sS'PackageName'
p1023
S'com.example.myfristandroid'
p1024
sS'OutBounds'
p1025
S'Rect(0, 0 - 720, 1280)'
p1026
sS'Action'
p1027
S'[ ClassName: com.example.myfristandroid.MainActivity; Text: [SE-1800\xe7\xa7\xbb\xe5\x8a\xa8APP]; ContentDescription: null; ItemCount: -1; CurrentItemIndex: -1; IsEnabled: true; IsPassword: false; IsChecked: false; IsFullScreen: true; Scrollable: false; BeforeText: null; FromIndex: -1; ToIndex: -1; ScrollX: -1; ScrollY: -1; MaxScrollX: -1; MaxScrollY: -1; AddedCount: -1; RemovedCount: -1; ParcelableData: null ]'
p1028
sS'MovementGranularity'
p1029
g6
sa(dp1030
S'EventTime'
p1031
S'12138929'
p1032
sg4
L1449719892097L
sS'recordCount'
p1033
g6
sS'EventType'
p1034
S'TYPE_VIEW_TEXT_CHANGED'
p1035
sS'PackageName'
p1036
S'com.example.myfristandroid'
p1037
sS'OutBounds'
p1038
S'Rect(200, 430 - 710, 490)'
p1039
sS'Action'
p1040
S'[ ClassName: android.widget.EditText; Text: []; ContentDescription: null; ItemCount: -1; CurrentItemIndex: -1; IsEnabled: true; IsPassword: true; IsChecked: false; IsFullScreen: false; Scrollable: false; BeforeText: null; FromIndex: 0; ToIndex: -1; ScrollX: -1; ScrollY: -1; MaxScrollX: -1; MaxScrollY: -1; AddedCount: 1; RemovedCount: 0; ParcelableData: null ]'
p1041
sS'MovementGranularity'
p1042
g6
sa(dp1043
S'EventTime'
p1044
S'12138932'
p1045
sg4
L1449719892165L
sS'recordCount'
p1046
g6
sS'EventType'
p1047
S'TYPE_VIEW_TEXT_SELECTION_CHANGED'
p1048
sS'PackageName'
p1049
S'com.example.myfristandroid'
p1050
sS'OutBounds'
p1051
S'Rect(200, 430 - 710, 490)'
p1052
sS'Action'
p1053
S'[ ClassName: android.widget.EditText; Text: []; ContentDescription: null; ItemCount: 1; CurrentItemIndex: -1; IsEnabled: true; IsPassword: true; IsChecked: false; IsFullScreen: false; Scrollable: false; BeforeText: null; FromIndex: 1; ToIndex: 1; ScrollX: -1; ScrollY: -1; MaxScrollX: -1; MaxScrollY: -1; AddedCount: -1; RemovedCount: -1; ParcelableData: null ]'
p1054
sS'MovementGranularity'
p1055
g6
sa(dp1056
S'EventTime'
p1057
S'12139035'
p1058
sg4
L1449719892296L
sS'recordCount'
p1059
g6
sS'EventType'
p1060
S'TYPE_WINDOW_CONTENT_CHANGED'
p1061
sS'PackageName'
p1062
S'com.example.myfristandroid'
p1063
sS'OutBounds'
p1064
S'Rect(0, 0 - 720, 1280)'
p1065
sS'Action'
p1066
S'[ ClassName: android.widget.FrameLayout; Text: []; ContentDescription: null; ItemCount: -1; CurrentItemIndex: -1; IsEnabled: true; IsPassword: false; IsChecked: false; IsFullScreen: false; Scrollable: false; BeforeText: null; FromIndex: -1; ToIndex: -1; ScrollX: -1; ScrollY: -1; MaxScrollX: -1; MaxScrollY: -1; AddedCount: -1; RemovedCount: -1; ParcelableData: null ]'
p1067
sS'MovementGranularity'
p1068
g6
sa(dp1069
S'EventTime'
p1070
S'12139138'
p1071
sg4
L1449719892337L
sS'recordCount'
p1072
g6
sS'EventType'
p1073
S'TYPE_VIEW_TEXT_CHANGED'
p1074
sS'PackageName'
p1075
S'com.example.myfristandroid'
p1076
sS'OutBounds'
p1077
S'Rect(200, 430 - 710, 490)'
p1078
sS'Action'
p1079
S'[ ClassName: android.widget.EditText; Text: []; ContentDescription: null; ItemCount: -1; CurrentItemIndex: -1; IsEnabled: true; IsPassword: true; IsChecked: false; IsFullScreen: false; Scrollable: false; BeforeText: null; FromIndex: 1; ToIndex: -1; ScrollX: -1; ScrollY: -1; MaxScrollX: -1; MaxScrollY: -1; AddedCount: 1; RemovedCount: 0; ParcelableData: null ]'
p1080
sS'MovementGranularity'
p1081
g6
sa(dp1082
S'EventTime'
p1083
S'12139144'
p1084
sg4
L1449719892404L
sS'recordCount'
p1085
g6
sS'EventType'
p1086
S'TYPE_VIEW_TEXT_SELECTION_CHANGED'
p1087
sS'PackageName'
p1088
S'com.example.myfristandroid'
p1089
sS'OutBounds'
p1090
S'Rect(200, 430 - 710, 490)'
p1091
sS'Action'
p1092
S'[ ClassName: android.widget.EditText; Text: []; ContentDescription: null; ItemCount: 2; CurrentItemIndex: -1; IsEnabled: true; IsPassword: true; IsChecked: false; IsFullScreen: false; Scrollable: false; BeforeText: null; FromIndex: 2; ToIndex: 2; ScrollX: -1; ScrollY: -1; MaxScrollX: -1; MaxScrollY: -1; AddedCount: -1; RemovedCount: -1; ParcelableData: null ]'
p1093
sS'MovementGranularity'
p1094
g6
sa(dp1095
S'EventTime'
p1096
S'12139245'
p1097
sg4
L1449719892446L
sS'recordCount'
p1098
g6
sS'EventType'
p1099
S'TYPE_WINDOW_CONTENT_CHANGED'
p1100
sS'PackageName'
p1101
S'com.example.myfristandroid'
p1102
sS'OutBounds'
p1103
S'Rect(0, 0 - 720, 1280)'
p1104
sS'Action'
p1105
S'[ ClassName: android.widget.FrameLayout; Text: []; ContentDescription: null; ItemCount: -1; CurrentItemIndex: -1; IsEnabled: true; IsPassword: false; IsChecked: false; IsFullScreen: false; Scrollable: false; BeforeText: null; FromIndex: -1; ToIndex: -1; ScrollX: -1; ScrollY: -1; MaxScrollX: -1; MaxScrollY: -1; AddedCount: -1; RemovedCount: -1; ParcelableData: null ]'
p1106
sS'MovementGranularity'
p1107
g6
sa(dp1108
S'EventTime'
p1109
S'12139319'
p1110
sg4
L1449719892484L
sS'recordCount'
p1111
g6
sS'EventType'
p1112
S'TYPE_VIEW_TEXT_CHANGED'
p1113
sS'PackageName'
p1114
S'com.example.myfristandroid'
p1115
sS'OutBounds'
p1116
S'Rect(200, 430 - 710, 490)'
p1117
sS'Action'
p1118
S'[ ClassName: android.widget.EditText; Text: []; ContentDescription: null; ItemCount: -1; CurrentItemIndex: -1; IsEnabled: true; IsPassword: true; IsChecked: false; IsFullScreen: false; Scrollable: false; BeforeText: null; FromIndex: 2; ToIndex: -1; ScrollX: -1; ScrollY: -1; MaxScrollX: -1; MaxScrollY: -1; AddedCount: 1; RemovedCount: 0; ParcelableData: null ]'
p1119
sS'MovementGranularity'
p1120
g6
sa(dp1121
S'EventTime'
p1122
S'12139323'
p1123
sg4
L1449719892519L
sS'recordCount'
p1124
g6
sS'EventType'
p1125
S'TYPE_VIEW_TEXT_SELECTION_CHANGED'
p1126
sS'PackageName'
p1127
S'com.example.myfristandroid'
p1128
sS'OutBounds'
p1129
S'Rect(200, 430 - 710, 490)'
p1130
sS'Action'
p1131
S'[ ClassName: android.widget.EditText; Text: []; ContentDescription: null; ItemCount: 3; CurrentItemIndex: -1; IsEnabled: true; IsPassword: true; IsChecked: false; IsFullScreen: false; Scrollable: false; BeforeText: null; FromIndex: 3; ToIndex: 3; ScrollX: -1; ScrollY: -1; MaxScrollX: -1; MaxScrollY: -1; AddedCount: -1; RemovedCount: -1; ParcelableData: null ]'
p1132
sS'MovementGranularity'
p1133
g6
sa(dp1134
S'EventTime'
p1135
S'12139428'
p1136
sg4
L1449719892592L
sS'recordCount'
p1137
g6
sS'EventType'
p1138
S'TYPE_WINDOW_CONTENT_CHANGED'
p1139
sS'PackageName'
p1140
S'com.example.myfristandroid'
p1141
sS'OutBounds'
p1142
S'Rect(0, 0 - 720, 1280)'
p1143
sS'Action'
p1144
S'[ ClassName: android.widget.FrameLayout; Text: []; ContentDescription: null; ItemCount: -1; CurrentItemIndex: -1; IsEnabled: true; IsPassword: false; IsChecked: false; IsFullScreen: false; Scrollable: false; BeforeText: null; FromIndex: -1; ToIndex: -1; ScrollX: -1; ScrollY: -1; MaxScrollX: -1; MaxScrollY: -1; AddedCount: -1; RemovedCount: -1; ParcelableData: null ]'
p1145
sS'MovementGranularity'
p1146
g6
sa(dp1147
S'EventTime'
p1148
S'12139855'
p1149
sg4
L1449719893033L
sS'recordCount'
p1150
g6
sS'EventType'
p1151
S'TYPE_VIEW_TEXT_CHANGED'
p1152
sS'PackageName'
p1153
S'com.example.myfristandroid'
p1154
sS'OutBounds'
p1155
S'Rect(200, 430 - 710, 490)'
p1156
sS'Action'
p1157
S'[ ClassName: android.widget.EditText; Text: []; ContentDescription: null; ItemCount: -1; CurrentItemIndex: -1; IsEnabled: true; IsPassword: true; IsChecked: false; IsFullScreen: false; Scrollable: false; BeforeText: null; FromIndex: 2; ToIndex: -1; ScrollX: -1; ScrollY: -1; MaxScrollX: -1; MaxScrollY: -1; AddedCount: 0; RemovedCount: 1; ParcelableData: null ]'
p1158
sS'MovementGranularity'
p1159
g6
sa(dp1160
S'EventTime'
p1161
S'12139857'
p1162
sg4
L1449719893130L
sS'recordCount'
p1163
g6
sS'EventType'
p1164
S'TYPE_VIEW_TEXT_SELECTION_CHANGED'
p1165
sS'PackageName'
p1166
S'com.example.myfristandroid'
p1167
sS'OutBounds'
p1168
S'Rect(200, 430 - 710, 490)'
p1169
sS'Action'
p1170
S'[ ClassName: android.widget.EditText; Text: []; ContentDescription: null; ItemCount: 2; CurrentItemIndex: -1; IsEnabled: true; IsPassword: true; IsChecked: false; IsFullScreen: false; Scrollable: false; BeforeText: null; FromIndex: 2; ToIndex: 2; ScrollX: -1; ScrollY: -1; MaxScrollX: -1; MaxScrollY: -1; AddedCount: -1; RemovedCount: -1; ParcelableData: null ]'
p1171
sS'MovementGranularity'
p1172
g6
sa(dp1173
S'EventTime'
p1174
S'12139961'
p1175
sg4
L1449719893207L
sS'recordCount'
p1176
g6
sS'EventType'
p1177
S'TYPE_WINDOW_CONTENT_CHANGED'
p1178
sS'PackageName'
p1179
S'com.example.myfristandroid'
p1180
sS'OutBounds'
p1181
S'Rect(0, 0 - 720, 1280)'
p1182
sS'Action'
p1183
S'[ ClassName: android.widget.FrameLayout; Text: []; ContentDescription: null; ItemCount: -1; CurrentItemIndex: -1; IsEnabled: true; IsPassword: false; IsChecked: false; IsFullScreen: false; Scrollable: false; BeforeText: null; FromIndex: -1; ToIndex: -1; ScrollX: -1; ScrollY: -1; MaxScrollX: -1; MaxScrollY: -1; AddedCount: -1; RemovedCount: -1; ParcelableData: null ]'
p1184
sS'MovementGranularity'
p1185
g6
sa(dp1186
S'EventTime'
p1187
S'12139997'
p1188
sg4
L1449719893253L
sS'recordCount'
p1189
g6
sS'EventType'
p1190
S'TYPE_VIEW_TEXT_CHANGED'
p1191
sS'PackageName'
p1192
S'com.example.myfristandroid'
p1193
sS'OutBounds'
p1194
S'Rect(200, 430 - 710, 490)'
p1195
sS'Action'
p1196
S'[ ClassName: android.widget.EditText; Text: []; ContentDescription: null; ItemCount: -1; CurrentItemIndex: -1; IsEnabled: true; IsPassword: true; IsChecked: false; IsFullScreen: false; Scrollable: false; BeforeText: null; FromIndex: 1; ToIndex: -1; ScrollX: -1; ScrollY: -1; MaxScrollX: -1; MaxScrollY: -1; AddedCount: 0; RemovedCount: 1; ParcelableData: null ]'
p1197
sS'MovementGranularity'
p1198
g6
sa(dp1199
S'EventTime'
p1200
S'12140013'
p1201
sg4
L1449719893319L
sS'recordCount'
p1202
g6
sS'EventType'
p1203
S'TYPE_VIEW_TEXT_SELECTION_CHANGED'
p1204
sS'PackageName'
p1205
S'com.example.myfristandroid'
p1206
sS'OutBounds'
p1207
S'Rect(200, 430 - 710, 490)'
p1208
sS'Action'
p1209
S'[ ClassName: android.widget.EditText; Text: []; ContentDescription: null; ItemCount: 1; CurrentItemIndex: -1; IsEnabled: true; IsPassword: true; IsChecked: false; IsFullScreen: false; Scrollable: false; BeforeText: null; FromIndex: 1; ToIndex: 1; ScrollX: -1; ScrollY: -1; MaxScrollX: -1; MaxScrollY: -1; AddedCount: -1; RemovedCount: -1; ParcelableData: null ]'
p1210
sS'MovementGranularity'
p1211
g6
sa(dp1212
S'EventTime'
p1213
S'12140127'
p1214
sg4
L1449719893373L
sS'recordCount'
p1215
g6
sS'EventType'
p1216
S'TYPE_WINDOW_CONTENT_CHANGED'
p1217
sS'PackageName'
p1218
S'com.example.myfristandroid'
p1219
sS'OutBounds'
p1220
S'Rect(0, 0 - 720, 1280)'
p1221
sS'Action'
p1222
S'[ ClassName: android.widget.FrameLayout; Text: []; ContentDescription: null; ItemCount: -1; CurrentItemIndex: -1; IsEnabled: true; IsPassword: false; IsChecked: false; IsFullScreen: false; Scrollable: false; BeforeText: null; FromIndex: -1; ToIndex: -1; ScrollX: -1; ScrollY: -1; MaxScrollX: -1; MaxScrollY: -1; AddedCount: -1; RemovedCount: -1; ParcelableData: null ]'
p1223
sS'MovementGranularity'
p1224
g6
sa(dp1225
S'EventTime'
p1226
S'12140220'
p1227
sg4
L1449719893458L
sS'recordCount'
p1228
g6
sS'EventType'
p1229
S'TYPE_VIEW_TEXT_CHANGED'
p1230
sS'PackageName'
p1231
S'com.example.myfristandroid'
p1232
sS'OutBounds'
p1233
S'Rect(200, 430 - 710, 490)'
p1234
sS'Action'
p1235
S'[ ClassName: android.widget.EditText; Text: []; ContentDescription: null; ItemCount: -1; CurrentItemIndex: -1; IsEnabled: true; IsPassword: true; IsChecked: false; IsFullScreen: false; Scrollable: false; BeforeText: null; FromIndex: 1; ToIndex: -1; ScrollX: -1; ScrollY: -1; MaxScrollX: -1; MaxScrollY: -1; AddedCount: 1; RemovedCount: 0; ParcelableData: null ]'
p1236
sS'MovementGranularity'
p1237
g6
sa(dp1238
S'EventTime'
p1239
S'12140225'
p1240
sg4
L1449719893494L
sS'recordCount'
p1241
g6
sS'EventType'
p1242
S'TYPE_VIEW_TEXT_SELECTION_CHANGED'
p1243
sS'PackageName'
p1244
S'com.example.myfristandroid'
p1245
sS'OutBounds'
p1246
S'Rect(200, 430 - 710, 490)'
p1247
sS'Action'
p1248
S'[ ClassName: android.widget.EditText; Text: []; ContentDescription: null; ItemCount: 2; CurrentItemIndex: -1; IsEnabled: true; IsPassword: true; IsChecked: false; IsFullScreen: false; Scrollable: false; BeforeText: null; FromIndex: 2; ToIndex: 2; ScrollX: -1; ScrollY: -1; MaxScrollX: -1; MaxScrollY: -1; AddedCount: -1; RemovedCount: -1; ParcelableData: null ]'
p1249
sS'MovementGranularity'
p1250
g6
sa(dp1251
S'EventTime'
p1252
S'12140328'
p1253
sg4
L1449719893538L
sS'recordCount'
p1254
g6
sS'EventType'
p1255
S'TYPE_WINDOW_CONTENT_CHANGED'
p1256
sS'PackageName'
p1257
S'com.example.myfristandroid'
p1258
sS'OutBounds'
p1259
S'Rect(0, 0 - 720, 1280)'
p1260
sS'Action'
p1261
S'[ ClassName: android.widget.FrameLayout; Text: []; ContentDescription: null; ItemCount: -1; CurrentItemIndex: -1; IsEnabled: true; IsPassword: false; IsChecked: false; IsFullScreen: false; Scrollable: false; BeforeText: null; FromIndex: -1; ToIndex: -1; ScrollX: -1; ScrollY: -1; MaxScrollX: -1; MaxScrollY: -1; AddedCount: -1; RemovedCount: -1; ParcelableData: null ]'
p1262
sS'MovementGranularity'
p1263
g6
sa(dp1264
S'EventTime'
p1265
S'12140371'
p1266
sg4
L1449719893573L
sS'recordCount'
p1267
g6
sS'EventType'
p1268
S'TYPE_VIEW_TEXT_CHANGED'
p1269
sS'PackageName'
p1270
S'com.example.myfristandroid'
p1271
sS'OutBounds'
p1272
S'Rect(200, 430 - 710, 490)'
p1273
sS'Action'
p1274
S'[ ClassName: android.widget.EditText; Text: []; ContentDescription: null; ItemCount: -1; CurrentItemIndex: -1; IsEnabled: true; IsPassword: true; IsChecked: false; IsFullScreen: false; Scrollable: false; BeforeText: null; FromIndex: 2; ToIndex: -1; ScrollX: -1; ScrollY: -1; MaxScrollX: -1; MaxScrollY: -1; AddedCount: 1; RemovedCount: 0; ParcelableData: null ]'
p1275
sS'MovementGranularity'
p1276
g6
sa(dp1277
S'EventTime'
p1278
S'12140382'
p1279
sg4
L1449719893618L
sS'recordCount'
p1280
g6
sS'EventType'
p1281
S'TYPE_VIEW_TEXT_SELECTION_CHANGED'
p1282
sS'PackageName'
p1283
S'com.example.myfristandroid'
p1284
sS'OutBounds'
p1285
S'Rect(200, 430 - 710, 490)'
p1286
sS'Action'
p1287
S'[ ClassName: android.widget.EditText; Text: []; ContentDescription: null; ItemCount: 3; CurrentItemIndex: -1; IsEnabled: true; IsPassword: true; IsChecked: false; IsFullScreen: false; Scrollable: false; BeforeText: null; FromIndex: 3; ToIndex: 3; ScrollX: -1; ScrollY: -1; MaxScrollX: -1; MaxScrollY: -1; AddedCount: -1; RemovedCount: -1; ParcelableData: null ]'
p1288
sS'MovementGranularity'
p1289
g6
sa(dp1290
S'EventTime'
p1291
S'12140497'
p1292
sg4
L1449719893668L
sS'recordCount'
p1293
g6
sS'EventType'
p1294
S'TYPE_WINDOW_CONTENT_CHANGED'
p1295
sS'PackageName'
p1296
S'com.example.myfristandroid'
p1297
sS'OutBounds'
p1298
S'Rect(0, 0 - 720, 1280)'
p1299
sS'Action'
p1300
S'[ ClassName: android.widget.FrameLayout; Text: []; ContentDescription: null; ItemCount: -1; CurrentItemIndex: -1; IsEnabled: true; IsPassword: false; IsChecked: false; IsFullScreen: false; Scrollable: false; BeforeText: null; FromIndex: -1; ToIndex: -1; ScrollX: -1; ScrollY: -1; MaxScrollX: -1; MaxScrollY: -1; AddedCount: -1; RemovedCount: -1; ParcelableData: null ]'
p1301
sS'MovementGranularity'
p1302
g6
sa(dp1303
S'EventTime'
p1304
S'12142003'
p1305
sg4
L1449719895168L
sS'recordCount'
p1306
g6
sS'EventType'
p1307
S'TYPE_WINDOW_CONTENT_CHANGED'
p1308
sS'PackageName'
p1309
S'com.example.myfristandroid'
p1310
sS'OutBounds'
p1311
S'Rect(0, 0 - 720, 1280)'
p1312
sS'Action'
p1313
S'[ ClassName: android.widget.FrameLayout; Text: []; ContentDescription: null; ItemCount: -1; CurrentItemIndex: -1; IsEnabled: true; IsPassword: false; IsChecked: false; IsFullScreen: false; Scrollable: false; BeforeText: null; FromIndex: -1; ToIndex: -1; ScrollX: -1; ScrollY: -1; MaxScrollX: -1; MaxScrollY: -1; AddedCount: -1; RemovedCount: -1; ParcelableData: null ]'
p1314
sS'MovementGranularity'
p1315
g6
sa(dp1316
S'EventTime'
p1317
S'12142481'
p1318
sg4
L1449719895635L
sS'recordCount'
p1319
g6
sS'EventType'
p1320
S'TYPE_WINDOW_CONTENT_CHANGED'
p1321
sS'PackageName'
p1322
S'com.example.myfristandroid'
p1323
sS'OutBounds'
p1324
S'Rect(0, 0 - 720, 1280)'
p1325
sS'Action'
p1326
S'[ ClassName: android.widget.FrameLayout; Text: []; ContentDescription: null; ItemCount: -1; CurrentItemIndex: -1; IsEnabled: true; IsPassword: false; IsChecked: false; IsFullScreen: false; Scrollable: false; BeforeText: null; FromIndex: -1; ToIndex: -1; ScrollX: -1; ScrollY: -1; MaxScrollX: -1; MaxScrollY: -1; AddedCount: -1; RemovedCount: -1; ParcelableData: null ]'
p1327
sS'MovementGranularity'
p1328
g6
sa(dp1329
S'EventTime'
p1330
S'12143657'
p1331
sg4
L1449719896798L
sS'recordCount'
p1332
g6
sS'EventType'
p1333
S'TYPE_VIEW_CLICKED'
p1334
sS'PackageName'
p1335
S'com.example.myfristandroid'
p1336
sS'OutBounds'
p1337
S'Rect(220, 500 - 500, 560)'
p1338
sS'Action'
p1339
S'[ ClassName: android.widget.Button; Text: [\xe7\x99\xbb\xe5\xbd\x95]; ContentDescription: null; ItemCount: -1; CurrentItemIndex: -1; IsEnabled: true; IsPassword: false; IsChecked: false; IsFullScreen: false; Scrollable: false; BeforeText: null; FromIndex: -1; ToIndex: -1; ScrollX: -1; ScrollY: -1; MaxScrollX: -1; MaxScrollY: -1; AddedCount: -1; RemovedCount: -1; ParcelableData: null ]'
p1340
sS'MovementGranularity'
p1341
g6
sa(dp1342
S'EventTime'
p1343
S'12143795'
p1344
sg4
L1449719896995L
sS'recordCount'
p1345
g6
sS'EventType'
p1346
S'TYPE_WINDOW_CONTENT_CHANGED'
p1347
sS'PackageName'
p1348
S'com.example.myfristandroid'
p1349
sS'OutBounds'
p1350
S'Rect(0, 0 - 720, 1280)'
p1351
sS'Action'
p1352
S'[ ClassName: android.widget.FrameLayout; Text: []; ContentDescription: null; ItemCount: -1; CurrentItemIndex: -1; IsEnabled: true; IsPassword: false; IsChecked: false; IsFullScreen: false; Scrollable: false; BeforeText: null; FromIndex: -1; ToIndex: -1; ScrollX: -1; ScrollY: -1; MaxScrollX: -1; MaxScrollY: -1; AddedCount: -1; RemovedCount: -1; ParcelableData: null ]'
p1353
sS'MovementGranularity'
p1354
g6
sa(dp1355
S'EventTime'
p1356
S'12144851'
p1357
sg4
L1449719897994L
sS'recordCount'
p1358
g6
sS'EventType'
p1359
S'TYPE_VIEW_CLICKED'
p1360
sS'PackageName'
p1361
S'com.example.myfristandroid'
p1362
sS'OutBounds'
p1363
S'Rect(220, 500 - 500, 560)'
p1364
sS'Action'
p1365
S'[ ClassName: android.widget.Button; Text: [\xe5\x80\xbc\xe7\x8f\xad\xe4\xba\xba\xe5\x91\x98]; ContentDescription: null; ItemCount: -1; CurrentItemIndex: -1; IsEnabled: true; IsPassword: false; IsChecked: false; IsFullScreen: false; Scrollable: false; BeforeText: null; FromIndex: -1; ToIndex: -1; ScrollX: -1; ScrollY: -1; MaxScrollX: -1; MaxScrollY: -1; AddedCount: -1; RemovedCount: -1; ParcelableData: null ]'
p1366
sS'MovementGranularity'
p1367
g6
sa(dp1368
S'EventTime'
p1369
S'12145024'
p1370
sg4
L1449719898179L
sS'recordCount'
p1371
g6
sS'EventType'
p1372
S'TYPE_WINDOW_CONTENT_CHANGED'
p1373
sS'PackageName'
p1374
S'com.example.myfristandroid'
p1375
sS'OutBounds'
p1376
S'Rect(0, 0 - 720, 1280)'
p1377
sS'Action'
p1378
S'[ ClassName: android.widget.FrameLayout; Text: []; ContentDescription: null; ItemCount: -1; CurrentItemIndex: -1; IsEnabled: true; IsPassword: false; IsChecked: false; IsFullScreen: false; Scrollable: false; BeforeText: null; FromIndex: -1; ToIndex: -1; ScrollX: -1; ScrollY: -1; MaxScrollX: -1; MaxScrollY: -1; AddedCount: -1; RemovedCount: -1; ParcelableData: null ]'
p1379
sS'MovementGranularity'
p1380
g6
sa(dp1381
S'EventTime'
p1382
S'12146916'
p1383
sg4
L1449719900058L
sS'recordCount'
p1384
g6
sS'EventType'
p1385
S'TYPE_VIEW_CLICKED'
p1386
sS'PackageName'
p1387
S'com.example.myfristandroid'
p1388
sS'OutBounds'
p1389
S'Rect(220, 500 - 500, 560)'
p1390
sS'Action'
p1391
S'[ ClassName: android.widget.Button; Text: [\xe7\x99\xbb\xe5\xbd\x95]; ContentDescription: null; ItemCount: -1; CurrentItemIndex: -1; IsEnabled: true; IsPassword: false; IsChecked: false; IsFullScreen: false; Scrollable: false; BeforeText: null; FromIndex: -1; ToIndex: -1; ScrollX: -1; ScrollY: -1; MaxScrollX: -1; MaxScrollY: -1; AddedCount: -1; RemovedCount: -1; ParcelableData: null ]'
p1392
sS'MovementGranularity'
p1393
g6
sa(dp1394
S'EventTime'
p1395
S'12147036'
p1396
sg4
L1449719900193L
sS'recordCount'
p1397
g6
sS'EventType'
p1398
S'TYPE_WINDOW_CONTENT_CHANGED'
p1399
sS'PackageName'
p1400
S'com.example.myfristandroid'
p1401
sS'OutBounds'
p1402
S'Rect(0, 0 - 720, 1280)'
p1403
sS'Action'
p1404
S'[ ClassName: android.widget.FrameLayout; Text: []; ContentDescription: null; ItemCount: -1; CurrentItemIndex: -1; IsEnabled: true; IsPassword: false; IsChecked: false; IsFullScreen: false; Scrollable: false; BeforeText: null; FromIndex: -1; ToIndex: -1; ScrollX: -1; ScrollY: -1; MaxScrollX: -1; MaxScrollY: -1; AddedCount: -1; RemovedCount: -1; ParcelableData: null ]'
p1405
sS'MovementGranularity'
p1406
g6
sa(dp1407
S'EventTime'
p1408
S'12152235'
p1409
sg4
L1449719905376L
sS'recordCount'
p1410
g6
sS'EventType'
p1411
S'TYPE_VIEW_CLICKED'
p1412
sS'PackageName'
p1413
S'com.example.myfristandroid'
p1414
sS'OutBounds'
p1415
S'Rect(220, 500 - 500, 560)'
p1416
sS'Action'
p1417
S'[ ClassName: android.widget.Button; Text: [\xe5\x80\xbc\xe7\x8f\xad\xe4\xba\xba\xe5\x91\x98]; ContentDescription: null; ItemCount: -1; CurrentItemIndex: -1; IsEnabled: true; IsPassword: false; IsChecked: false; IsFullScreen: false; Scrollable: false; BeforeText: null; FromIndex: -1; ToIndex: -1; ScrollX: -1; ScrollY: -1; MaxScrollX: -1; MaxScrollY: -1; AddedCount: -1; RemovedCount: -1; ParcelableData: null ]'
p1418
sS'MovementGranularity'
p1419
g6
sa(dp1420
S'EventTime'
p1421
S'12152382'
p1422
sg4
L1449719905552L
sS'recordCount'
p1423
g6
sS'EventType'
p1424
S'TYPE_WINDOW_CONTENT_CHANGED'
p1425
sS'PackageName'
p1426
S'com.example.myfristandroid'
p1427
sS'OutBounds'
p1428
S'Rect(0, 0 - 720, 1280)'
p1429
sS'Action'
p1430
S'[ ClassName: android.widget.FrameLayout; Text: []; ContentDescription: null; ItemCount: -1; CurrentItemIndex: -1; IsEnabled: true; IsPassword: false; IsChecked: false; IsFullScreen: false; Scrollable: false; BeforeText: null; FromIndex: -1; ToIndex: -1; ScrollX: -1; ScrollY: -1; MaxScrollX: -1; MaxScrollY: -1; AddedCount: -1; RemovedCount: -1; ParcelableData: null ]'
p1431
sS'MovementGranularity'
p1432
g6
sa(dp1433
S'EventTime'
p1434
S'12154124'
p1435
sg4
L1449719907306L
sS'recordCount'
p1436
g6
sS'EventType'
p1437
S'TYPE_VIEW_FOCUSED'
p1438
sS'PackageName'
p1439
S'com.example.myfristandroid'
p1440
sS'OutBounds'
p1441
S'Rect(200, 360 - 710, 420)'
p1442
sS'Action'
p1443
S'[ ClassName: android.widget.EditText; Text: [\xe5\x80\xbc\xe7\x8f\xad\xe4\xba\xba\xe5\x91\x98]; ContentDescription: null; ItemCount: 10; CurrentItemIndex: 3; IsEnabled: true; IsPassword: false; IsChecked: false; IsFullScreen: false; Scrollable: false; BeforeText: null; FromIndex: -1; ToIndex: -1; ScrollX: -1; ScrollY: -1; MaxScrollX: -1; MaxScrollY: -1; AddedCount: -1; RemovedCount: -1; ParcelableData: null ]'
p1444
sS'MovementGranularity'
p1445
g6
sa(dp1446
S'EventTime'
p1447
S'12154256'
p1448
sg4
L1449719907423L
sS'recordCount'
p1449
g6
sS'EventType'
p1450
S'TYPE_WINDOW_CONTENT_CHANGED'
p1451
sS'PackageName'
p1452
S'com.example.myfristandroid'
p1453
sS'OutBounds'
p1454
S'Rect(0, 0 - 720, 1280)'
p1455
sS'Action'
p1456
S'[ ClassName: android.widget.FrameLayout; Text: []; ContentDescription: null; ItemCount: -1; CurrentItemIndex: -1; IsEnabled: true; IsPassword: false; IsChecked: false; IsFullScreen: false; Scrollable: false; BeforeText: null; FromIndex: -1; ToIndex: -1; ScrollX: -1; ScrollY: -1; MaxScrollX: -1; MaxScrollY: -1; AddedCount: -1; RemovedCount: -1; ParcelableData: null ]'
p1457
sS'MovementGranularity'
p1458
g6
sa(dp1459
S'EventTime'
p1460
S'12154994'
p1461
sg4
L1449719908156L
sS'recordCount'
p1462
g6
sS'EventType'
p1463
S'TYPE_VIEW_TEXT_CHANGED'
p1464
sS'PackageName'
p1465
S'com.example.myfristandroid'
p1466
sS'OutBounds'
p1467
S'Rect(200, 360 - 710, 420)'
p1468
sS'Action'
p1469
S'[ ClassName: android.widget.EditText; Text: [\xe5\x80\xbc\xe7\x8f\xad\xe4\xba\xba]; ContentDescription: null; ItemCount: -1; CurrentItemIndex: -1; IsEnabled: true; IsPassword: false; IsChecked: false; IsFullScreen: false; Scrollable: false; BeforeText: \xe5\x80\xbc\xe7\x8f\xad\xe4\xba\xba\xe5\x91\x98; FromIndex: 3; ToIndex: -1; ScrollX: -1; ScrollY: -1; MaxScrollX: -1; MaxScrollY: -1; AddedCount: 0; RemovedCount: 1; ParcelableData: null ]'
p1470
sS'MovementGranularity'
p1471
g6
sa(dp1472
S'EventTime'
p1473
S'12154997'
p1474
sg4
L1449719908209L
sS'recordCount'
p1475
g6
sS'EventType'
p1476
S'TYPE_VIEW_TEXT_SELECTION_CHANGED'
p1477
sS'PackageName'
p1478
S'com.example.myfristandroid'
p1479
sS'OutBounds'
p1480
S'Rect(200, 360 - 710, 420)'
p1481
sS'Action'
p1482
S'[ ClassName: android.widget.EditText; Text: [\xe5\x80\xbc\xe7\x8f\xad\xe4\xba\xba]; ContentDescription: null; ItemCount: 3; CurrentItemIndex: -1; IsEnabled: true; IsPassword: false; IsChecked: false; IsFullScreen: false; Scrollable: false; BeforeText: null; FromIndex: 3; ToIndex: 3; ScrollX: -1; ScrollY: -1; MaxScrollX: -1; MaxScrollY: -1; AddedCount: -1; RemovedCount: -1; ParcelableData: null ]'
p1483
sS'MovementGranularity'
p1484
g6
sa(dp1485
S'EventTime'
p1486
S'12155113'
p1487
sg4
L1449719908276L
sS'recordCount'
p1488
g6
sS'EventType'
p1489
S'TYPE_WINDOW_CONTENT_CHANGED'
p1490
sS'PackageName'
p1491
S'com.example.myfristandroid'
p1492
sS'OutBounds'
p1493
S'Rect(0, 0 - 720, 1280)'
p1494
sS'Action'
p1495
S'[ ClassName: android.widget.FrameLayout; Text: []; ContentDescription: null; ItemCount: -1; CurrentItemIndex: -1; IsEnabled: true; IsPassword: false; IsChecked: false; IsFullScreen: false; Scrollable: false; BeforeText: null; FromIndex: -1; ToIndex: -1; ScrollX: -1; ScrollY: -1; MaxScrollX: -1; MaxScrollY: -1; AddedCount: -1; RemovedCount: -1; ParcelableData: null ]'
p1496
sS'MovementGranularity'
p1497
g6
sa(dp1498
S'EventTime'
p1499
S'12156668'
p1500
sg4
L1449719909826L
sS'recordCount'
p1501
g6
sS'EventType'
p1502
S'TYPE_VIEW_TEXT_CHANGED'
p1503
sS'PackageName'
p1504
S'com.example.myfristandroid'
p1505
sS'OutBounds'
p1506
S'Rect(200, 360 - 710, 420)'
p1507
sS'Action'
p1508
S'[ ClassName: android.widget.EditText; Text: [\xe5\x80\xbc\xe7\x8f\xad]; ContentDescription: null; ItemCount: -1; CurrentItemIndex: -1; IsEnabled: true; IsPassword: false; IsChecked: false; IsFullScreen: false; Scrollable: false; BeforeText: \xe5\x80\xbc\xe7\x8f\xad\xe4\xba\xba; FromIndex: 2; ToIndex: -1; ScrollX: -1; ScrollY: -1; MaxScrollX: -1; MaxScrollY: -1; AddedCount: 0; RemovedCount: 1; ParcelableData: null ]'
p1509
sS'MovementGranularity'
p1510
g6
sa(dp1511
S'EventTime'
p1512
S'12156672'
p1513
sg4
L1449719909862L
sS'recordCount'
p1514
g6
sS'EventType'
p1515
S'TYPE_VIEW_TEXT_SELECTION_CHANGED'
p1516
sS'PackageName'
p1517
S'com.example.myfristandroid'
p1518
sS'OutBounds'
p1519
S'Rect(200, 360 - 710, 420)'
p1520
sS'Action'
p1521
S'[ ClassName: android.widget.EditText; Text: [\xe5\x80\xbc\xe7\x8f\xad]; ContentDescription: null; ItemCount: 2; CurrentItemIndex: -1; IsEnabled: true; IsPassword: false; IsChecked: false; IsFullScreen: false; Scrollable: false; BeforeText: null; FromIndex: 2; ToIndex: 2; ScrollX: -1; ScrollY: -1; MaxScrollX: -1; MaxScrollY: -1; AddedCount: -1; RemovedCount: -1; ParcelableData: null ]'
p1522
sS'MovementGranularity'
p1523
g6
sa(dp1524
S'EventTime'
p1525
S'12156788'
p1526
sg4
L1449719909952L
sS'recordCount'
p1527
g6
sS'EventType'
p1528
S'TYPE_WINDOW_CONTENT_CHANGED'
p1529
sS'PackageName'
p1530
S'com.example.myfristandroid'
p1531
sS'OutBounds'
p1532
S'Rect(0, 0 - 720, 1280)'
p1533
sS'Action'
p1534
S'[ ClassName: android.widget.FrameLayout; Text: []; ContentDescription: null; ItemCount: -1; CurrentItemIndex: -1; IsEnabled: true; IsPassword: false; IsChecked: false; IsFullScreen: false; Scrollable: false; BeforeText: null; FromIndex: -1; ToIndex: -1; ScrollX: -1; ScrollY: -1; MaxScrollX: -1; MaxScrollY: -1; AddedCount: -1; RemovedCount: -1; ParcelableData: null ]'
p1535
sS'MovementGranularity'
p1536
g6
sa(dp1537
S'EventTime'
p1538
S'12162624'
p1539
sg4
L1449719915799L
sS'recordCount'
p1540
g6
sS'EventType'
p1541
S'TYPE_VIEW_TEXT_CHANGED'
p1542
sS'PackageName'
p1543
S'com.example.myfristandroid'
p1544
sS'OutBounds'
p1545
S'Rect(200, 360 - 710, 420)'
p1546
sS'Action'
p1547
S'[ ClassName: android.widget.EditText; Text: [\xe5\x80\xbc\xe7\x8f\xad\xe5\x91\x98]; ContentDescription: null; ItemCount: -1; CurrentItemIndex: -1; IsEnabled: true; IsPassword: false; IsChecked: false; IsFullScreen: false; Scrollable: false; BeforeText: \xe5\x80\xbc\xe7\x8f\xad; FromIndex: 2; ToIndex: -1; ScrollX: -1; ScrollY: -1; MaxScrollX: -1; MaxScrollY: -1; AddedCount: 1; RemovedCount: 0; ParcelableData: null ]'
p1548
sS'MovementGranularity'
p1549
g6
sa(dp1550
S'EventTime'
p1551
S'12162626'
p1552
sg4
L1449719915850L
sS'recordCount'
p1553
g6
sS'EventType'
p1554
S'TYPE_VIEW_TEXT_SELECTION_CHANGED'
p1555
sS'PackageName'
p1556
S'com.example.myfristandroid'
p1557
sS'OutBounds'
p1558
S'Rect(200, 360 - 710, 420)'
p1559
sS'Action'
p1560
S'[ ClassName: android.widget.EditText; Text: [\xe5\x80\xbc\xe7\x8f\xad\xe5\x91\x98]; ContentDescription: null; ItemCount: 3; CurrentItemIndex: -1; IsEnabled: true; IsPassword: false; IsChecked: false; IsFullScreen: false; Scrollable: false; BeforeText: null; FromIndex: 3; ToIndex: 3; ScrollX: -1; ScrollY: -1; MaxScrollX: -1; MaxScrollY: -1; AddedCount: -1; RemovedCount: -1; ParcelableData: null ]'
p1561
sS'MovementGranularity'
p1562
g6
sa(dp1563
S'EventTime'
p1564
S'12162728'
p1565
sg4
L1449719915911L
sS'recordCount'
p1566
g6
sS'EventType'
p1567
S'TYPE_WINDOW_CONTENT_CHANGED'
p1568
sS'PackageName'
p1569
S'com.example.myfristandroid'
p1570
sS'OutBounds'
p1571
S'Rect(0, 0 - 720, 1280)'
p1572
sS'Action'
p1573
S'[ ClassName: android.widget.FrameLayout; Text: []; ContentDescription: null; ItemCount: -1; CurrentItemIndex: -1; IsEnabled: true; IsPassword: false; IsChecked: false; IsFullScreen: false; Scrollable: false; BeforeText: null; FromIndex: -1; ToIndex: -1; ScrollX: -1; ScrollY: -1; MaxScrollX: -1; MaxScrollY: -1; AddedCount: -1; RemovedCount: -1; ParcelableData: null ]'
p1574
sS'MovementGranularity'
p1575
g6
sa(dp1576
S'EventTime'
p1577
S'12163586'
p1578
sg4
L1449719916806L
sS'recordCount'
p1579
g6
sS'EventType'
p1580
S'TYPE_VIEW_FOCUSED'
p1581
sS'PackageName'
p1582
S'com.example.myfristandroid'
p1583
sS'OutBounds'
p1584
S'Rect(200, 430 - 710, 490)'
p1585
sS'Action'
p1586
S'[ ClassName: android.widget.EditText; Text: []; ContentDescription: null; ItemCount: 10; CurrentItemIndex: 4; IsEnabled: true; IsPassword: true; IsChecked: false; IsFullScreen: false; Scrollable: false; BeforeText: null; FromIndex: -1; ToIndex: -1; ScrollX: -1; ScrollY: -1; MaxScrollX: -1; MaxScrollY: -1; AddedCount: -1; RemovedCount: -1; ParcelableData: null ]'
p1587
sS'MovementGranularity'
p1588
g6
sa(dp1589
S'EventTime'
p1590
S'12164197'
p1591
sg4
L1449719917357L
sS'recordCount'
p1592
g6
sS'EventType'
p1593
S'TYPE_VIEW_TEXT_CHANGED'
p1594
sS'PackageName'
p1595
S'com.example.myfristandroid'
p1596
sS'OutBounds'
p1597
S'Rect(200, 430 - 710, 490)'
p1598
sS'Action'
p1599
S'[ ClassName: android.widget.EditText; Text: []; ContentDescription: null; ItemCount: -1; CurrentItemIndex: -1; IsEnabled: true; IsPassword: true; IsChecked: false; IsFullScreen: false; Scrollable: false; BeforeText: null; FromIndex: 2; ToIndex: -1; ScrollX: -1; ScrollY: -1; MaxScrollX: -1; MaxScrollY: -1; AddedCount: 0; RemovedCount: 1; ParcelableData: null ]'
p1600
sS'MovementGranularity'
p1601
g6
sa(dp1602
S'EventTime'
p1603
S'12164200'
p1604
sg4
L1449719917411L
sS'recordCount'
p1605
g6
sS'EventType'
p1606
S'TYPE_VIEW_TEXT_SELECTION_CHANGED'
p1607
sS'PackageName'
p1608
S'com.example.myfristandroid'
p1609
sS'OutBounds'
p1610
S'Rect(200, 430 - 710, 490)'
p1611
sS'Action'
p1612
S'[ ClassName: android.widget.EditText; Text: []; ContentDescription: null; ItemCount: 2; CurrentItemIndex: -1; IsEnabled: true; IsPassword: true; IsChecked: false; IsFullScreen: false; Scrollable: false; BeforeText: null; FromIndex: 2; ToIndex: 2; ScrollX: -1; ScrollY: -1; MaxScrollX: -1; MaxScrollY: -1; AddedCount: -1; RemovedCount: -1; ParcelableData: null ]'
p1613
sS'MovementGranularity'
p1614
g6
sa(dp1615
S'EventTime'
p1616
S'12164314'
p1617
sg4
L1449719917502L
sS'recordCount'
p1618
g6
sS'EventType'
p1619
S'TYPE_WINDOW_CONTENT_CHANGED'
p1620
sS'PackageName'
p1621
S'com.example.myfristandroid'
p1622
sS'OutBounds'
p1623
S'Rect(0, 0 - 720, 1280)'
p1624
sS'Action'
p1625
S'[ ClassName: android.widget.FrameLayout; Text: []; ContentDescription: null; ItemCount: -1; CurrentItemIndex: -1; IsEnabled: true; IsPassword: false; IsChecked: false; IsFullScreen: false; Scrollable: false; BeforeText: null; FromIndex: -1; ToIndex: -1; ScrollX: -1; ScrollY: -1; MaxScrollX: -1; MaxScrollY: -1; AddedCount: -1; RemovedCount: -1; ParcelableData: null ]'
p1626
sS'MovementGranularity'
p1627
g6
sa(dp1628
S'EventTime'
p1629
S'12164407'
p1630
sg4
L1449719917567L
sS'recordCount'
p1631
g6
sS'EventType'
p1632
S'TYPE_VIEW_TEXT_CHANGED'
p1633
sS'PackageName'
p1634
S'com.example.myfristandroid'
p1635
sS'OutBounds'
p1636
S'Rect(200, 430 - 710, 490)'
p1637
sS'Action'
p1638
S'[ ClassName: android.widget.EditText; Text: []; ContentDescription: null; ItemCount: -1; CurrentItemIndex: -1; IsEnabled: true; IsPassword: true; IsChecked: false; IsFullScreen: false; Scrollable: false; BeforeText: null; FromIndex: 1; ToIndex: -1; ScrollX: -1; ScrollY: -1; MaxScrollX: -1; MaxScrollY: -1; AddedCount: 0; RemovedCount: 1; ParcelableData: null ]'
p1639
sS'MovementGranularity'
p1640
g6
sa(dp1641
S'EventTime'
p1642
S'12164409'
p1643
sg4
L1449719917667L
sS'recordCount'
p1644
g6
sS'EventType'
p1645
S'TYPE_VIEW_TEXT_SELECTION_CHANGED'
p1646
sS'PackageName'
p1647
S'com.example.myfristandroid'
p1648
sS'OutBounds'
p1649
S'Rect(200, 430 - 710, 490)'
p1650
sS'Action'
p1651
S'[ ClassName: android.widget.EditText; Text: []; ContentDescription: null; ItemCount: 1; CurrentItemIndex: -1; IsEnabled: true; IsPassword: true; IsChecked: false; IsFullScreen: false; Scrollable: false; BeforeText: null; FromIndex: 1; ToIndex: 1; ScrollX: -1; ScrollY: -1; MaxScrollX: -1; MaxScrollY: -1; AddedCount: -1; RemovedCount: -1; ParcelableData: null ]'
p1652
sS'MovementGranularity'
p1653
g6
sa(dp1654
S'EventTime'
p1655
S'12164519'
p1656
sg4
L1449719917722L
sS'recordCount'
p1657
g6
sS'EventType'
p1658
S'TYPE_WINDOW_CONTENT_CHANGED'
p1659
sS'PackageName'
p1660
S'com.example.myfristandroid'
p1661
sS'OutBounds'
p1662
S'Rect(0, 0 - 720, 1280)'
p1663
sS'Action'
p1664
S'[ ClassName: android.widget.FrameLayout; Text: []; ContentDescription: null; ItemCount: -1; CurrentItemIndex: -1; IsEnabled: true; IsPassword: false; IsChecked: false; IsFullScreen: false; Scrollable: false; BeforeText: null; FromIndex: -1; ToIndex: -1; ScrollX: -1; ScrollY: -1; MaxScrollX: -1; MaxScrollY: -1; AddedCount: -1; RemovedCount: -1; ParcelableData: null ]'
p1665
sS'MovementGranularity'
p1666
g6
sa(dp1667
S'EventTime'
p1668
S'12164571'
p1669
sg4
L1449719917759L
sS'recordCount'
p1670
g6
sS'EventType'
p1671
S'TYPE_VIEW_TEXT_CHANGED'
p1672
sS'PackageName'
p1673
S'com.example.myfristandroid'
p1674
sS'OutBounds'
p1675
S'Rect(200, 430 - 710, 490)'
p1676
sS'Action'
p1677
S'[ ClassName: android.widget.EditText; Text: []; ContentDescription: null; ItemCount: -1; CurrentItemIndex: -1; IsEnabled: true; IsPassword: true; IsChecked: false; IsFullScreen: false; Scrollable: false; BeforeText: null; FromIndex: 0; ToIndex: -1; ScrollX: -1; ScrollY: -1; MaxScrollX: -1; MaxScrollY: -1; AddedCount: 0; RemovedCount: 1; ParcelableData: null ]'
p1678
sS'MovementGranularity'
p1679
g6
sa(dp1680
S'EventTime'
p1681
S'12164573'
p1682
sg4
L1449719917796L
sS'recordCount'
p1683
g6
sS'EventType'
p1684
S'TYPE_VIEW_TEXT_SELECTION_CHANGED'
p1685
sS'PackageName'
p1686
S'com.example.myfristandroid'
p1687
sS'OutBounds'
p1688
S'Rect(200, 430 - 710, 490)'
p1689
sS'Action'
p1690
S'[ ClassName: android.widget.EditText; Text: []; ContentDescription: null; ItemCount: 0; CurrentItemIndex: -1; IsEnabled: true; IsPassword: true; IsChecked: false; IsFullScreen: false; Scrollable: false; BeforeText: null; FromIndex: 0; ToIndex: 0; ScrollX: -1; ScrollY: -1; MaxScrollX: -1; MaxScrollY: -1; AddedCount: -1; RemovedCount: -1; ParcelableData: null ]'
p1691
sS'MovementGranularity'
p1692
g6
sa(dp1693
S'EventTime'
p1694
S'12164677'
p1695
sg4
L1449719917839L
sS'recordCount'
p1696
g6
sS'EventType'
p1697
S'TYPE_WINDOW_CONTENT_CHANGED'
p1698
sS'PackageName'
p1699
S'com.example.myfristandroid'
p1700
sS'OutBounds'
p1701
S'Rect(0, 0 - 720, 1280)'
p1702
sS'Action'
p1703
S'[ ClassName: android.widget.FrameLayout; Text: []; ContentDescription: null; ItemCount: -1; CurrentItemIndex: -1; IsEnabled: true; IsPassword: false; IsChecked: false; IsFullScreen: false; Scrollable: false; BeforeText: null; FromIndex: -1; ToIndex: -1; ScrollX: -1; ScrollY: -1; MaxScrollX: -1; MaxScrollY: -1; AddedCount: -1; RemovedCount: -1; ParcelableData: null ]'
p1704
sS'MovementGranularity'
p1705
g6
sa(dp1706
S'EventTime'
p1707
S'12165469'
p1708
sg4
L1449719918656L
sS'recordCount'
p1709
g6
sS'EventType'
p1710
S'TYPE_VIEW_TEXT_CHANGED'
p1711
sS'PackageName'
p1712
S'com.example.myfristandroid'
p1713
sS'OutBounds'
p1714
S'Rect(200, 430 - 710, 490)'
p1715
sS'Action'
p1716
S'[ ClassName: android.widget.EditText; Text: []; ContentDescription: null; ItemCount: -1; CurrentItemIndex: -1; IsEnabled: true; IsPassword: true; IsChecked: false; IsFullScreen: false; Scrollable: false; BeforeText: null; FromIndex: 0; ToIndex: -1; ScrollX: -1; ScrollY: -1; MaxScrollX: -1; MaxScrollY: -1; AddedCount: 1; RemovedCount: 0; ParcelableData: null ]'
p1717
sS'MovementGranularity'
p1718
g6
sa(dp1719
S'EventTime'
p1720
S'12165473'
p1721
sg4
L1449719918750L
sS'recordCount'
p1722
g6
sS'EventType'
p1723
S'TYPE_VIEW_TEXT_SELECTION_CHANGED'
p1724
sS'PackageName'
p1725
S'com.example.myfristandroid'
p1726
sS'OutBounds'
p1727
S'Rect(200, 430 - 710, 490)'
p1728
sS'Action'
p1729
S'[ ClassName: android.widget.EditText; Text: []; ContentDescription: null; ItemCount: 1; CurrentItemIndex: -1; IsEnabled: true; IsPassword: true; IsChecked: false; IsFullScreen: false; Scrollable: false; BeforeText: null; FromIndex: 1; ToIndex: 1; ScrollX: -1; ScrollY: -1; MaxScrollX: -1; MaxScrollY: -1; AddedCount: -1; RemovedCount: -1; ParcelableData: null ]'
p1730
sS'MovementGranularity'
p1731
g6
sa(dp1732
S'EventTime'
p1733
S'12165610'
p1734
sg4
L1449719918850L
sS'recordCount'
p1735
g6
sS'EventType'
p1736
S'TYPE_WINDOW_CONTENT_CHANGED'
p1737
sS'PackageName'
p1738
S'com.example.myfristandroid'
p1739
sS'OutBounds'
p1740
S'Rect(0, 0 - 720, 1280)'
p1741
sS'Action'
p1742
S'[ ClassName: android.widget.FrameLayout; Text: []; ContentDescription: null; ItemCount: -1; CurrentItemIndex: -1; IsEnabled: true; IsPassword: false; IsChecked: false; IsFullScreen: false; Scrollable: false; BeforeText: null; FromIndex: -1; ToIndex: -1; ScrollX: -1; ScrollY: -1; MaxScrollX: -1; MaxScrollY: -1; AddedCount: -1; RemovedCount: -1; ParcelableData: null ]'
p1743
sS'MovementGranularity'
p1744
g6
sa(dp1745
S'EventTime'
p1746
S'12165622'
p1747
sg4
L1449719918914L
sS'recordCount'
p1748
g6
sS'EventType'
p1749
S'TYPE_VIEW_TEXT_CHANGED'
p1750
sS'PackageName'
p1751
S'com.example.myfristandroid'
p1752
sS'OutBounds'
p1753
S'Rect(200, 430 - 710, 490)'
p1754
sS'Action'
p1755
S'[ ClassName: android.widget.EditText; Text: []; ContentDescription: null; ItemCount: -1; CurrentItemIndex: -1; IsEnabled: true; IsPassword: true; IsChecked: false; IsFullScreen: false; Scrollable: false; BeforeText: null; FromIndex: 1; ToIndex: -1; ScrollX: -1; ScrollY: -1; MaxScrollX: -1; MaxScrollY: -1; AddedCount: 1; RemovedCount: 0; ParcelableData: null ]'
p1756
sS'MovementGranularity'
p1757
g6
sa(dp1758
S'EventTime'
p1759
S'12165629'
p1760
sg4
L1449719918956L
sS'recordCount'
p1761
g6
sS'EventType'
p1762
S'TYPE_VIEW_TEXT_SELECTION_CHANGED'
p1763
sS'PackageName'
p1764
S'com.example.myfristandroid'
p1765
sS'OutBounds'
p1766
S'Rect(200, 430 - 710, 490)'
p1767
sS'Action'
p1768
S'[ ClassName: android.widget.EditText; Text: []; ContentDescription: null; ItemCount: 2; CurrentItemIndex: -1; IsEnabled: true; IsPassword: true; IsChecked: false; IsFullScreen: false; Scrollable: false; BeforeText: null; FromIndex: 2; ToIndex: 2; ScrollX: -1; ScrollY: -1; MaxScrollX: -1; MaxScrollY: -1; AddedCount: -1; RemovedCount: -1; ParcelableData: null ]'
p1769
sS'MovementGranularity'
p1770
g6
sa(dp1771
S'EventTime'
p1772
S'12165768'
p1773
sg4
L1449719919000L
sS'recordCount'
p1774
g6
sS'EventType'
p1775
S'TYPE_WINDOW_CONTENT_CHANGED'
p1776
sS'PackageName'
p1777
S'com.example.myfristandroid'
p1778
sS'OutBounds'
p1779
S'Rect(0, 0 - 720, 1280)'
p1780
sS'Action'
p1781
S'[ ClassName: android.widget.FrameLayout; Text: []; ContentDescription: null; ItemCount: -1; CurrentItemIndex: -1; IsEnabled: true; IsPassword: false; IsChecked: false; IsFullScreen: false; Scrollable: false; BeforeText: null; FromIndex: -1; ToIndex: -1; ScrollX: -1; ScrollY: -1; MaxScrollX: -1; MaxScrollY: -1; AddedCount: -1; RemovedCount: -1; ParcelableData: null ]'
p1782
sS'MovementGranularity'
p1783
g6
sa(dp1784
S'EventTime'
p1785
S'12165770'
p1786
sg4
L1449719919035L
sS'recordCount'
p1787
g6
sS'EventType'
p1788
S'TYPE_VIEW_TEXT_CHANGED'
p1789
sS'PackageName'
p1790
S'com.example.myfristandroid'
p1791
sS'OutBounds'
p1792
S'Rect(200, 430 - 710, 490)'
p1793
sS'Action'
p1794
S'[ ClassName: android.widget.EditText; Text: []; ContentDescription: null; ItemCount: -1; CurrentItemIndex: -1; IsEnabled: true; IsPassword: true; IsChecked: false; IsFullScreen: false; Scrollable: false; BeforeText: null; FromIndex: 2; ToIndex: -1; ScrollX: -1; ScrollY: -1; MaxScrollX: -1; MaxScrollY: -1; AddedCount: 1; RemovedCount: 0; ParcelableData: null ]'
p1795
sS'MovementGranularity'
p1796
g6
sa(dp1797
S'EventTime'
p1798
S'12165773'
p1799
sg4
L1449719919071L
sS'recordCount'
p1800
g6
sS'EventType'
p1801
S'TYPE_VIEW_TEXT_SELECTION_CHANGED'
p1802
sS'PackageName'
p1803
S'com.example.myfristandroid'
p1804
sS'OutBounds'
p1805
S'Rect(200, 430 - 710, 490)'
p1806
sS'Action'
p1807
S'[ ClassName: android.widget.EditText; Text: []; ContentDescription: null; ItemCount: 3; CurrentItemIndex: -1; IsEnabled: true; IsPassword: true; IsChecked: false; IsFullScreen: false; Scrollable: false; BeforeText: null; FromIndex: 3; ToIndex: 3; ScrollX: -1; ScrollY: -1; MaxScrollX: -1; MaxScrollY: -1; AddedCount: -1; RemovedCount: -1; ParcelableData: null ]'
p1808
sS'MovementGranularity'
p1809
g6
sa(dp1810
S'EventTime'
p1811
S'12165875'
p1812
sg4
L1449719919121L
sS'recordCount'
p1813
g6
sS'EventType'
p1814
S'TYPE_WINDOW_CONTENT_CHANGED'
p1815
sS'PackageName'
p1816
S'com.example.myfristandroid'
p1817
sS'OutBounds'
p1818
S'Rect(0, 0 - 720, 1280)'
p1819
sS'Action'
p1820
S'[ ClassName: android.widget.FrameLayout; Text: []; ContentDescription: null; ItemCount: -1; CurrentItemIndex: -1; IsEnabled: true; IsPassword: false; IsChecked: false; IsFullScreen: false; Scrollable: false; BeforeText: null; FromIndex: -1; ToIndex: -1; ScrollX: -1; ScrollY: -1; MaxScrollX: -1; MaxScrollY: -1; AddedCount: -1; RemovedCount: -1; ParcelableData: null ]'
p1821
sS'MovementGranularity'
p1822
g6
sa(dp1823
S'EventTime'
p1824
S'12167396'
p1825
sg4
L1449719920578L
sS'recordCount'
p1826
g6
sS'EventType'
p1827
S'TYPE_WINDOW_CONTENT_CHANGED'
p1828
sS'PackageName'
p1829
S'com.example.myfristandroid'
p1830
sS'OutBounds'
p1831
S'Rect(0, 0 - 720, 1280)'
p1832
sS'Action'
p1833
S'[ ClassName: android.widget.FrameLayout; Text: []; ContentDescription: null; ItemCount: -1; CurrentItemIndex: -1; IsEnabled: true; IsPassword: false; IsChecked: false; IsFullScreen: false; Scrollable: false; BeforeText: null; FromIndex: -1; ToIndex: -1; ScrollX: -1; ScrollY: -1; MaxScrollX: -1; MaxScrollY: -1; AddedCount: -1; RemovedCount: -1; ParcelableData: null ]'
p1834
sS'MovementGranularity'
p1835
g6
sa(dp1836
S'EventTime'
p1837
S'12168465'
p1838
sg4
L1449719921620L
sS'recordCount'
p1839
g6
sS'EventType'
p1840
S'TYPE_WINDOW_CONTENT_CHANGED'
p1841
sS'PackageName'
p1842
S'com.example.myfristandroid'
p1843
sS'OutBounds'
p1844
S'Rect(0, 0 - 720, 1280)'
p1845
sS'Action'
p1846
S'[ ClassName: android.widget.FrameLayout; Text: []; ContentDescription: null; ItemCount: -1; CurrentItemIndex: -1; IsEnabled: true; IsPassword: false; IsChecked: false; IsFullScreen: false; Scrollable: false; BeforeText: null; FromIndex: -1; ToIndex: -1; ScrollX: -1; ScrollY: -1; MaxScrollX: -1; MaxScrollY: -1; AddedCount: -1; RemovedCount: -1; ParcelableData: null ]'
p1847
sS'MovementGranularity'
p1848
g6
sa(dp1849
S'EventTime'
p1850
S'12170143'
p1851
sg4
L1449719923286L
sS'recordCount'
p1852
g6
sS'EventType'
p1853
S'TYPE_VIEW_CLICKED'
p1854
sS'PackageName'
p1855
S'com.example.myfristandroid'
p1856
sS'OutBounds'
p1857
S'Rect(220, 500 - 500, 560)'
p1858
sS'Action'
p1859
S'[ ClassName: android.widget.Button; Text: [\xe7\x99\xbb\xe5\xbd\x95]; ContentDescription: null; ItemCount: -1; CurrentItemIndex: -1; IsEnabled: true; IsPassword: false; IsChecked: false; IsFullScreen: false; Scrollable: false; BeforeText: null; FromIndex: -1; ToIndex: -1; ScrollX: -1; ScrollY: -1; MaxScrollX: -1; MaxScrollY: -1; AddedCount: -1; RemovedCount: -1; ParcelableData: null ]'
p1860
sS'MovementGranularity'
p1861
g6
sa(dp1862
S'EventTime'
p1863
S'12170283'
p1864
sg4
L1449719923438L
sS'recordCount'
p1865
g6
sS'EventType'
p1866
S'TYPE_WINDOW_CONTENT_CHANGED'
p1867
sS'PackageName'
p1868
S'com.example.myfristandroid'
p1869
sS'OutBounds'
p1870
S'Rect(0, 0 - 720, 1280)'
p1871
sS'Action'
p1872
S'[ ClassName: android.widget.FrameLayout; Text: []; ContentDescription: null; ItemCount: -1; CurrentItemIndex: -1; IsEnabled: true; IsPassword: false; IsChecked: false; IsFullScreen: false; Scrollable: false; BeforeText: null; FromIndex: -1; ToIndex: -1; ScrollX: -1; ScrollY: -1; MaxScrollX: -1; MaxScrollY: -1; AddedCount: -1; RemovedCount: -1; ParcelableData: null ]'
p1873
sS'MovementGranularity'
p1874
g6
sa.