(lp0
(dp1
S'processID'
p2
S'4478'
p3
sS'SyscTime'
p4
L1449718916779L
sS'priority'
p5
S'V'
p6
sS'tag'
p7
S'AudioManager'
p8
sS'threadID'
p9
S' 4478'
p10
sS'message'
p11
S'AudioManager ctor mUseMasterVolume:false\n'
p12
sa(dp13
g2
S'4478'
p14
sg4
L1449718916839L
sg5
S'D'
p15
sg7
S'[encoding]'
p16
sg9
S' 4575'
p17
sg11
S'detectTextEncoding encoding=UTF-8\n'
p18
sa(dp19
g2
S'4478'
p20
sg4
L1449718917339L
sg5
g15
sg7
S'MainActivity'
p21
sg9
S' 4575'
p22
sg11
S'h:910.5,w:1687.5\n'
p23
sa(dp24
g2
S'4478'
p25
sg4
L1449718917889L
sg5
S'I'
p26
sg7
S'qtaguid '
p27
sg9
S' 4592'
p28
sg11
S'Failed write_ctrl(u 135) res=-1 errno=22\n'
p29
sa(dp30
g2
S'4478'
p31
sg4
L1449718917889L
sg5
g26
sg7
S'qtaguid '
p32
sg9
S' 4592'
p33
sg11
S'Untagging socket 135 failed errno=-22\n'
p34
sa(dp35
g2
S'4478'
p36
sg4
L1449718918359L
sg5
S'W'
p37
sg7
S'InputEventReceiver'
p38
sg9
S' 4478'
p39
sg11
S'Attempted to finish an input event but the input event receiver has already been disposed.\n'
p40
sa(dp41
g2
S'4478'
p42
sg4
L1449718918359L
sg5
g37
sg7
S'IInputConnectionWrapper'
p43
sg9
S' 4478'
p44
sg11
S'performPrivateCommand on inactive InputConnection\n'
p45
sa(dp46
g2
S'4478'
p47
sg4
L1449718918369L
sg5
g37
sg7
S'IInputConnectionWrapper'
p48
sg9
S' 4478'
p49
sg11
S'performPrivateCommand on inactive InputConnection\n'
p50
sa(dp51
g2
S'4478'
p52
sg4
L1449718922509L
sg5
g15
sg7
S'cn.edu.nju.ise.kikandroid'
p53
sg9
S' 4539'
p54
sg11
S'Log:1449718922514\n'
p55
sa(dp56
g2
S'4478'
p57
sg4
L1449718922559L
sg5
g15
sg7
S'cn.edu.nju.ise.kikandroid'
p58
sg9
S' 4539'
p59
sg11
S'Screenshot:1449718922567\n'
p60
sa(dp61
g2
S'4478'
p62
sg4
L1449718922629L
sg5
g15
sg7
S'dalvikvm'
p63
sg9
S' 4478'
p64
sg11
S'GC_FOR_ALLOC freed 2451K, 22% free 20778K/26311K, paused 22ms, total 23ms\n'
p65
sa(dp66
g2
S'4478'
p67
sg4
L1449718922669L
sg5
g15
sg7
S'dalvikvm'
p68
sg9
S' 4490'
p69
sg11
S'GC_CONCURRENT freed 21K, 14% free 22783K/26311K, paused 12ms+4ms, total 38ms\n'
p70
sa(dp71
g2
S'4478'
p72
sg4
L1449718922779L
sg5
g15
sg7
S'dalvikvm'
p73
sg9
S' 4490'
p74
sg11
S'GC_CONCURRENT freed 2027K, 14% free 22788K/26311K, paused 4ms+14ms, total 67ms\n'
p75
sa(dp76
g2
S'4478'
p77
sg4
L1449718922859L
sg5
g37
sg7
S'dalvikvm'
p78
sg9
S' 4539'
p79
sg11
S'threadid=14: thread exiting with uncaught exception (group=0x41b16588)\n'
p80
sa(dp81
g2
S'7785'
p82
sg4
L1449719412589L
sg5
g15
sg7
S'dalvikvm'
p83
sg9
S' 7785'
p84
sg11
S'Late-enabling CheckJNI\n'
p85
sa(dp86
g2
S'7785'
p87
sg4
L1449719412629L
sg5
S'E'
p88
sg7
S'Trace   '
p89
sg9
S' 7785'
p90
sg11
S'error opening trace file: No such file or directory (2)\n'
p91
sa(dp92
g2
S'7785'
p93
sg4
L1449719412759L
sg5
g6
sg7
S'Activity'
p94
sg9
S' 7785'
p95
sg11
S'onCreate com.example.myfristandroid.SplashActivity@424db130: null\n'
p96
sa(dp97
g2
S'7785'
p98
sg4
L1449719412799L
sg5
g15
sg7
S'dalvikvm'
p99
sg9
S' 7785'
p100
sg11
S'GC_FOR_ALLOC freed 74K, 6% free 9603K/10179K, paused 18ms, total 18ms\n'
p101
sa(dp102
g2
S'7785'
p103
sg4
L1449719412809L
sg5
g26
sg7
S'dalvikvm-heap'
p104
sg9
S' 7785'
p105
sg11
S'Grow heap (frag case) to 15.468MB for 3876224-byte allocation\n'
p106
sa(dp107
g2
S'7785'
p108
sg4
L1449719412829L
sg5
g15
sg7
S'dalvikvm'
p109
sg9
S' 7798'
p110
sg11
S'GC_CONCURRENT freed <1K, 5% free 13388K/14023K, paused 3ms+1ms, total 16ms\n'
p111
sa(dp112
g2
S'7785'
p113
sg4
L1449719412959L
sg5
g15
sg7
S'dalvikvm'
p114
sg9
S' 7785'
p115
sg11
S'GC_FOR_ALLOC freed 0K, 5% free 13388K/14023K, paused 11ms, total 11ms\n'
p116
sa(dp117
g2
S'7785'
p118
sg4
L1449719412979L
sg5
g26
sg7
S'dalvikvm-heap'
p119
sg9
S' 7785'
p120
sg11
S'Grow heap (frag case) to 23.785MB for 8721484-byte allocation\n'
p121
sa(dp122
g2
S'7785'
p123
sg4
L1449719412989L
sg5
g15
sg7
S'dalvikvm'
p124
sg9
S' 7798'
p125
sg11
S'GC_CONCURRENT freed 0K, 4% free 21905K/22599K, paused 1ms+2ms, total 15ms\n'
p126
sa(dp127
g2
S'7812'
p128
sg4
L1449719413039L
sg5
g15
sg7
S'dalvikvm'
p129
sg9
S' 7812'
p130
sg11
S'Late-enabling CheckJNI\n'
p131
sa(dp132
g2
S'7785'
p133
sg4
L1449719413039L
sg5
g6
sg7
S'Activity'
p134
sg9
S' 7785'
p135
sg11
S'onStart com.example.myfristandroid.SplashActivity@424db130\n'
p136
sa(dp137
g2
S'7785'
p138
sg4
L1449719413049L
sg5
g6
sg7
S'Activity'
p139
sg9
S' 7785'
p140
sg11
S'onResume com.example.myfristandroid.SplashActivity@424db130\n'
p141
sa(dp142
g2
S'7812'
p143
sg4
L1449719413069L
sg5
g88
sg7
S'Trace   '
p144
sg9
S' 7812'
p145
sg11
S'error opening trace file: No such file or directory (2)\n'
p146
sa(dp147
g2
S'7785'
p148
sg4
L1449719413089L
sg5
g15
sg7
S'libEGL  '
p149
sg9
S' 7785'
p150
sg11
S'loaded /system/lib/egl/libEGL_adreno200.so\n'
p151
sa(dp152
g2
S'7785'
p153
sg4
L1449719413089L
sg5
g15
sg7
S'libEGL  '
p154
sg9
S' 7785'
p155
sg11
S'loaded /system/lib/egl/libGLESv1_CM_adreno200.so\n'
p156
sa(dp157
g2
S'7785'
p158
sg4
L1449719413099L
sg5
g15
sg7
S'libEGL  '
p159
sg9
S' 7785'
p160
sg11
S'loaded /system/lib/egl/libGLESv2_adreno200.so\n'
p161
sa(dp162
g2
S'7785'
p163
sg4
L1449719413099L
sg5
g26
sg7
S'Log_level_control'
p164
sg9
S' 7785'
p165
sg11
S'YVV7\n'
p166
sa(dp167
g2
S'7785'
p168
sg4
L1449719413099L
sg5
g26
sg7
S'Adreno200-EGL'
p169
sg9
S' 7785'
p170
sg11
S'<qeglDrvAPI_eglInitialize:299>: EGL 1.4 QUALCOMM build: Nondeterministic AU_msm8625_REFS/TAGS/JB_REL_RB5_QRD_D20130303_CL3285357_release_AU (CL3285357)\nBuild Date: 03/04/13 Mon\nLocal Branch: \nRemote Branch: m/refs/tags/jb_rel_rb5_qrd_D20130303\nLocal Patches: NONE\nReconstruct Branch: NOTHING\n'
p171
sa(dp172
g2
S'7812'
p173
sg4
L1449719413129L
sg5
g15
sg7
S'dalvikvm'
p174
sg9
S' 7812'
p175
sg11
S'GC_FOR_ALLOC freed 60K, 6% free 9575K/10179K, paused 15ms, total 15ms\n'
p176
sa(dp177
g2
S'7812'
p178
sg4
L1449719413129L
sg5
g26
sg7
S'dalvikvm-heap'
p179
sg9
S' 7812'
p180
sg11
S'Grow heap (frag case) to 12.721MB for 1024016-byte allocation\n'
p181
sa(dp182
g2
S'7785'
p183
sg4
L1449719413129L
sg5
g15
sg7
S'OpenGLRenderer'
p184
sg9
S' 7785'
p185
sg11
S'Enabling debug mode 0\n'
p186
sa(dp187
g2
S'7812'
p188
sg4
L1449719413159L
sg5
g15
sg7
S'dalvikvm'
p189
sg9
S' 7816'
p190
sg11
S'GC_CONCURRENT freed 1K, 6% free 10576K/11207K, paused 12ms+1ms, total 27ms\n'
p191
sa(dp192
g2
S'7812'
p193
sg4
L1449719413169L
sg5
g15
sg7
S'SocketService'
p194
sg9
S' 7812'
p195
sg11
S'onStartCommand : bLogin:false\n'
p196
sa(dp197
g2
S'7812'
p198
sg4
L1449719413179L
sg5
g15
sg7
S'SocketService'
p199
sg9
S' 7812'
p200
sg11
S'pid:7812 myPid:7812\n'
p201
sa(dp202
g2
S'7812'
p203
sg4
L1449719413179L
sg5
g15
sg7
S'SocketService'
p204
sg9
S' 7812'
p205
sg11
S'start to run current thread!id:662\n'
p206
sa(dp207
g2
S'7812'
p208
sg4
L1449719413259L
sg5
g15
sg7
S'SocketService'
p209
sg9
S' 7835'
p210
sg11
S'ip/192.168.1.176 lport:55117 p:143\n'
p211
sa(dp212
g2
S'7812'
p213
sg4
L1449719413269L
sg5
g15
sg7
S'ForegroundActivity'
p214
sg9
S' 7835'
p215
sg11
S'\xe6\x9c\xac\xe6\xac\xa1\xe5\x8f\x91\xe9\x80\x81\xe5\xb8\xa7\xe9\x95\xbf:34\t\xe6\x80\xbb\xe5\xb8\xa7\xe9\x95\xbf:34\n'
p216
sa(dp217
g2
S'7812'
p218
sg4
L1449719413279L
sg5
g15
sg7
S'SocketService'
p219
sg9
S' 7835'
p220
sg11
S'success to connect server!id:662 bLogin:false\n'
p221
sa(dp222
g2
S'7812'
p223
sg4
L1449719413379L
sg5
g15
sg7
S'ForegroundActivity'
p224
sg9
S' 7836'
p225
sg11
S'\xe6\x9c\xac\xe6\xac\xa1\xe6\x94\xb6\xe5\x88\xb0\xe5\xb8\xa7\xe9\x95\xbf:13\t\xe6\x80\xbb\xe5\xb8\xa7\xe9\x95\xbf:13\n'
p226
sa(dp227
g2
S'7785'
p228
sg4
L1449719413519L
sg5
g26
sg7
S'Environment'
p229
sg9
S' 7808'
p230
sg11
S'GetExternalStorageDirectory info:ApplicationInfo{424c82b8 com.example.myfristandroid},packagename:com.example.myfristandroid,UID:0\n'
p231
sa(dp232
g2
S'7812'
p233
sg4
L1449719414169L
sg5
g15
sg7
S'SocketService1'
p234
sg9
S' 7833'
p235
sg11
S'\xe6\x9c\xac\xe6\xac\xa1\xe6\x8f\x90\xe5\x8f\x961:LoadPtr:13 HeadIndex:0 GetSize:13 13 0 \xe5\xa4\xb4\xe4\xbf\xa1\xe6\x81\xaf:EB 90 EB 90 EB 90 0D 00 0E 01 \n'
p236
sa(dp237
g2
S'7812'
p238
sg4
L1449719414279L
sg5
g15
sg7
S'ForegroundActivity'
p239
sg9
S' 7835'
p240
sg11
S'\xe6\x9c\xac\xe6\xac\xa1\xe5\x8f\x91\xe9\x80\x81\xe5\xb8\xa7\xe9\x95\xbf:11\t\xe6\x80\xbb\xe5\xb8\xa7\xe9\x95\xbf:45\n'
p241
sa(dp242
g2
S'7812'
p243
sg4
L1449719414389L
sg5
g15
sg7
S'ForegroundActivity'
p244
sg9
S' 7836'
p245
sg11
S'\xe6\x9c\xac\xe6\xac\xa1\xe6\x94\xb6\xe5\x88\xb0\xe5\xb8\xa7\xe9\x95\xbf:642\t\xe6\x80\xbb\xe5\xb8\xa7\xe9\x95\xbf:655\n'
p246
sa(dp247
g2
S'7785'
p248
sg4
L1449719415129L
sg5
g6
sg7
S'Activity'
p249
sg9
S' 7785'
p250
sg11
S'onPause com.example.myfristandroid.SplashActivity@424db130\n'
p251
sa(dp252
g2
S'7785'
p253
sg4
L1449719415139L
sg5
g6
sg7
S'Activity'
p254
sg9
S' 7785'
p255
sg11
S'onCreate com.example.myfristandroid.MainActivity@430e5570: null\n'
p256
sa(dp257
g2
S'7812'
p258
sg4
L1449719415219L
sg5
g15
sg7
S'SocketService1'
p259
sg9
S' 7833'
p260
sg11
S'\xe6\x9c\xac\xe6\xac\xa1\xe6\x8f\x90\xe5\x8f\x961:LoadPtr:655 HeadIndex:13 GetSize:642 130 512 \xe5\xa4\xb4\xe4\xbf\xa1\xe6\x81\xaf:EB 90 EB 90 EB 90 82 02 14 0A \n'
p261
sa(dp262
g2
S'7812'
p263
sg4
L1449719415279L
sg5
g15
sg7
S'ForegroundActivity'
p264
sg9
S' 7835'
p265
sg11
S'\xe6\x9c\xac\xe6\xac\xa1\xe5\x8f\x91\xe9\x80\x81\xe5\xb8\xa7\xe9\x95\xbf:11\t\xe6\x80\xbb\xe5\xb8\xa7\xe9\x95\xbf:56\n'
p266
sa(dp267
g2
S'7785'
p268
sg4
L1449719415349L
sg5
g15
sg7
S'MainActivity'
p269
sg9
S' 7785'
p270
sg11
S'Start One Client\n'
p271
sa(dp272
g2
S'7785'
p273
sg4
L1449719415349L
sg5
g6
sg7
S'Activity'
p274
sg9
S' 7785'
p275
sg11
S'onStart com.example.myfristandroid.MainActivity@430e5570\n'
p276
sa(dp277
g2
S'7785'
p278
sg4
L1449719415349L
sg5
g6
sg7
S'Activity'
p279
sg9
S' 7785'
p280
sg11
S'onResume com.example.myfristandroid.MainActivity@430e5570\n'
p281
sa(dp282
g2
S'7812'
p283
sg4
L1449719415409L
sg5
g15
sg7
S'ForegroundActivity'
p284
sg9
S' 7836'
p285
sg11
S'\xe6\x9c\xac\xe6\xac\xa1\xe6\x94\xb6\xe5\x88\xb0\xe5\xb8\xa7\xe9\x95\xbf:67\t\xe6\x80\xbb\xe5\xb8\xa7\xe9\x95\xbf:722\n'
p286
sa(dp287
g2
S'7785'
p288
sg4
L1449719415549L
sg5
g15
sg7
S'dalvikvm'
p289
sg9
S' 7785'
p290
sg11
S'GC_FOR_ALLOC freed 4995K, 23% free 18838K/24263K, paused 15ms, total 15ms\n'
p291
sa(dp292
g2
S'7785'
p293
sg4
L1449719415649L
sg5
g15
sg7
S'dalvikvm'
p294
sg9
S' 7798'
p295
sg11
S'GC_CONCURRENT freed 1083K, 19% free 19755K/24263K, paused 2ms+3ms, total 20ms\n'
p296
sa(dp297
g2
S'7785'
p298
sg4
L1449719415649L
sg5
g15
sg7
S'dalvikvm'
p299
sg9
S' 7785'
p300
sg11
S'WAIT_FOR_CONCURRENT_GC blocked 11ms\n'
p301
sa(dp302
g2
S'7785'
p303
sg4
L1449719416139L
sg5
g6
sg7
S'Activity'
p304
sg9
S' 7785'
p305
sg11
S'onStop com.example.myfristandroid.SplashActivity@424db130\n'
p306
sa(dp307
g2
S'7785'
p308
sg4
L1449719416139L
sg5
g6
sg7
S'Activity'
p309
sg9
S' 7785'
p310
sg11
S'onDestroy com.example.myfristandroid.SplashActivity@424db130\n'
p311
sa(dp312
g2
S'7812'
p313
sg4
L1449719416239L
sg5
g15
sg7
S'SocketService1'
p314
sg9
S' 7833'
p315
sg11
S'\xe6\x9c\xac\xe6\xac\xa1\xe6\x8f\x90\xe5\x8f\x961:LoadPtr:722 HeadIndex:655 GetSize:67 67 0 \xe5\xa4\xb4\xe4\xbf\xa1\xe6\x81\xaf:EB 90 EB 90 EB 90 43 00 15 02 \n'
p316
sa(dp317
g2
S'7785'
p318
sg4
L1449719416249L
sg5
g15
sg7
S'MainActivity'
p319
sg9
S' 7785'
p320
sg11
S'ServerVersion:23 LocalVersion:12\n'
p321
sa(dp322
g2
S'7785'
p323
sg4
L1449719417859L
sg5
g6
sg7
S'AudioManager'
p324
sg9
S' 7785'
p325
sg11
S'AudioManager ctor mUseMasterVolume:false\n'
p326
sa(dp327
g2
S'7785'
p328
sg4
L1449719419109L
sg5
g6
sg7
S'Activity'
p329
sg9
S' 7785'
p330
sg11
S'onPause com.example.myfristandroid.MainActivity@430e5570\n'
p331
sa(dp332
g2
S'7785'
p333
sg4
L1449719419139L
sg5
g6
sg7
S'Activity'
p334
sg9
S' 7785'
p335
sg11
S'onCreate com.example.myfristandroid.graphWebShow@430ffda0: null\n'
p336
sa(dp337
g2
S'7785'
p338
sg4
L1449719419159L
sg5
g15
sg7
S'webcore '
p339
sg9
S' 7785'
p340
sg11
S'New send INITIALIZE msg to WebCoreThread\n'
p341
sa(dp342
g2
S'7785'
p343
sg4
L1449719419159L
sg5
g26
sg7
S'Log_level_control'
p344
sg9
S' 7875'
p345
sg11
S'YVV7\n'
p346
sa(dp347
g2
S'7785'
p348
sg4
L1449719419169L
sg5
g15
sg7
S'webcoreglue'
p349
sg9
S' 7875'
p350
sg11
S'netstack: Memory Cache feature is ON\n'
p351
sa(dp352
g2
S'7785'
p353
sg4
L1449719419199L
sg5
g6
sg7
S'Activity'
p354
sg9
S' 7785'
p355
sg11
S'onStart com.example.myfristandroid.graphWebShow@430ffda0\n'
p356
sa(dp357
g2
S'7785'
p358
sg4
L1449719419209L
sg5
g6
sg7
S'Activity'
p359
sg9
S' 7785'
p360
sg11
S'onResume com.example.myfristandroid.graphWebShow@430ffda0\n'
p361
sa(dp362
g2
S'7785'
p363
sg4
L1449719419239L
sg5
g26
sg7
S'TextToSpeech'
p364
sg9
S' 7785'
p365
sg11
S'Sucessfully bound to com.svox.pico\n'
p366
sa(dp367
g2
S'7785'
p368
sg4
L1449719419259L
sg5
g15
sg7
S'webcore '
p369
sg9
S' 7875'
p370
sg11
S'initialize, mNativeClass is 1547155992\n'
p371
sa(dp372
g2
S'7785'
p373
sg4
L1449719419259L
sg5
g6
sg7
S'chromium'
p374
sg9
S' 7875'
p375
sg11
S'external/chromium/net/host_resolver_helper/host_resolver_helper.cc:66: [1210/115019:INFO:host_resolver_helper.cc(66)] DNSPreResolver::Init got hostprovider:0x5c5d1010\n'
p376
sa(dp377
g2
S'7785'
p378
sg4
L1449719419259L
sg5
g6
sg7
S'chromium'
p379
sg9
S' 7875'
p380
sg11
S'external/chromium/net/base/host_resolver_impl.cc:1510: [1210/115019:INFO:host_resolver_impl.cc(1510)] HostResolverImpl::SetPreresolver preresolver:0x5a382ea8\n'
p381
sa(dp382
g2
S'7785'
p383
sg4
L1449719419259L
sg5
g15
sg7
S'HostStatisticManager'
p384
sg9
S' 7875'
p385
sg11
S'netstack: DNS Host Prioritization is: ON, Version: 5.0.1\n'
p386
sa(dp387
g2
S'7785'
p388
sg4
L1449719419269L
sg5
g15
sg7
S'external/chromium/net/socket/tcp_fin_aggregation_factory.cc'
p389
sg9
S' 7875'
p390
sg11
S'external/chromium/net/socket/tcp_fin_aggregation_factory.cc: libtcpfinaggr.so successfully loaded\n'
p391
sa(dp392
g2
S'7785'
p393
sg4
L1449719419269L
sg5
g15
sg7
S'external/chromium/net/socket/tcp_fin_aggregation_factory.cc'
p394
sg9
S' 7875'
p395
sg11
S'external/chromium/net/socket/tcp_fin_aggregation_factory.cc,: TCP Fin Aggregation initializing method was found in libtcpfinaggr.so\n'
p396
sa(dp397
g2
S'7785'
p398
sg4
L1449719419279L
sg5
g88
sg7
S'Diag_Lib'
p399
sg9
S' 7875'
p400
sg11
S' Diag_LSM_Init: Failed to open handle to diag driver, error = 13\n'
p401
sa(dp402
g2
S'7785'
p403
sg4
L1449719419279L
sg5
g15
sg7
S'TCPFinAggregation'
p404
sg9
S' 7875'
p405
sg11
S'netstack: TCPFinAggregation is 1, Version 5.0.1\n'
p406
sa(dp407
g2
S'7785'
p408
sg4
L1449719419279L
sg5
g15
sg7
S'TCPFinAggregation'
p409
sg9
S' 7875'
p410
sg11
S'system property net.tcp.fin.aggregation.wait was set, value: 20\n'
p411
sa(dp412
g2
S'7785'
p413
sg4
L1449719419279L
sg5
g15
sg7
S'TCPFinAggregation'
p414
sg9
S' 7875'
p415
sg11
S'system property net.tcp.fin.aggregation.close was set, value: 300\n'
p416
sa(dp417
g2
S'7785'
p418
sg4
L1449719419279L
sg5
g15
sg7
S'TCPFinAggregation'
p419
sg9
S' 7875'
p420
sg11
S'netstack: CloseUnusedSockets is ON, (TCPFinAggregation), Version 5.0.1\n'
p421
sa(dp422
g2
S'7785'
p423
sg4
L1449719419289L
sg5
g15
sg7
S'TCPFinAggregation'
p424
sg9
S' 7875'
p425
sg11
S'Failed to get network status! received ret: -2\n'
p426
sa(dp427
g2
S'7785'
p428
sg4
L1449719419289L
sg5
g15
sg7
S'Socket_Pool'
p429
sg9
S' 7875'
p430
sg11
S'netstack: CloseUnusedSockets is ON\n'
p431
sa(dp432
g2
S'7785'
p433
sg4
L1449719419289L
sg5
g15
sg7
S'Socket_Pool'
p434
sg9
S' 7875'
p435
sg11
S'netstack: system net.statistics value: 0\n'
p436
sa(dp437
g2
S'7785'
p438
sg4
L1449719419289L
sg5
g15
sg7
S'external/chromium/net/http/http_getzip_factory.cc'
p439
sg9
S' 7875'
p440
sg11
S'external/chromium/net/http/http_getzip_factory.cc: libgetzip.so successfully loaded\n'
p441
sa(dp442
g2
S'7785'
p443
sg4
L1449719419289L
sg5
g15
sg7
S'external/chromium/net/http/http_getzip_factory.cc'
p444
sg9
S' 7875'
p445
sg11
S'external/chromium/net/http/http_getzip_factory.cc,: GETzip initializing method was found in libgetzip.so\n'
p446
sa(dp447
g2
S'7785'
p448
sg4
L1449719419289L
sg5
g15
sg7
S'        '
p449
sg9
S' 7875'
p450
sg11
S'netstack: Getzip is: ON, Version: 5.0.1\n'
p451
sa(dp452
g2
S'7785'
p453
sg4
L1449719419299L
sg5
g15
sg7
S'netstack'
p454
sg9
S' 7875'
p455
sg11
S'netstack: Request Priority is ON\n'
p456
sa(dp457
g2
S'7785'
p458
sg4
L1449719419319L
sg5
g6
sg7
S'chromium'
p459
sg9
S' 7896'
p460
sg11
S'external/chromium/net/disk_cache/hostres_plugin_bridge.cc:52: [1210/115019:INFO:hostres_plugin_bridge.cc(52)] StatHubCreateHostResPlugin initializing...\n'
p461
sa(dp462
g2
S'7785'
p463
sg4
L1449719419319L
sg5
g6
sg7
S'chromium'
p464
sg9
S' 7896'
p465
sg11
S'external/chromium/net/disk_cache/hostres_plugin_bridge.cc:57: [1210/115019:INFO:hostres_plugin_bridge.cc(57)] StatHubCreateHostResPlugin lib loaded\n'
p466
sa(dp467
g2
S'7785'
p468
sg4
L1449719419319L
sg5
g26
sg7
S'TextToSpeech'
p469
sg9
S' 7785'
p470
sg11
S'Connected to ComponentInfo{com.svox.pico/com.svox.pico.PicoService}\n'
p471
sa(dp472
g2
S'7785'
p473
sg4
L1449719419329L
sg5
g6
sg7
S'chromium'
p474
sg9
S' 7896'
p475
sg11
S'external/chromium/net/disk_cache/hostres_plugin_bridge.cc:63: [1210/115019:INFO:hostres_plugin_bridge.cc(63)] StatHubCreateHostResPlugin plugin connected\n'
p476
sa(dp477
g2
S'7785'
p478
sg4
L1449719419329L
sg5
g6
sg7
S'chromium'
p479
sg9
S' 7896'
p480
sg11
S'external/chromium/net/http/http_cache.cc:1168: [1210/115019:INFO:http_cache.cc(1168)] HttpCache::OnBackendCreated HostStat created\n'
p481
sa(dp482
g2
S'7785'
p483
sg4
L1449719419329L
sg5
g88
sg7
S'chromium'
p484
sg9
S' 7896'
p485
sg11
S"external/chromium/net/disk_cache/stat_hub.cc:216: [1210/115019:ERROR:stat_hub.cc(216)] StatHub::Init - App com.example.myfristandroid isn't supported.\n"
p486
sa(dp487
g2
S'7785'
p488
sg4
L1449719419339L
sg5
g6
sg7
S'chromium'
p489
sg9
S' 7896'
p490
sg11
S'external/chromium/net/disk_cache/hostres_plugin_bridge.cc:73: [1210/115019:INFO:hostres_plugin_bridge.cc(73)] netstack: Failed to find symbols in plugin: libdnshostprio.so\n'
p491
sa(dp492
g2
S'7785'
p493
sg4
L1449719419339L
sg5
g88
sg7
S'chromium'
p494
sg9
S' 7896'
p495
sg11
S"external/chromium/net/disk_cache/stat_hub.cc:216: [1210/115019:ERROR:stat_hub.cc(216)] StatHub::Init - App com.example.myfristandroid isn't supported.\n"
p496
sa(dp497
g2
S'7785'
p498
sg4
L1449719419459L
sg5
g15
sg7
S'[encoding]'
p499
sg9
S' 7875'
p500
sg11
S'detectTextEncoding encoding=UTF-8\n'
p501
sa(dp502
g2
S'7785'
p503
sg4
L1449719419519L
sg5
g15
sg7
S'[encoding]'
p504
sg9
S' 7875'
p505
sg11
S'detectTextEncoding encoding=UTF-8\n'
p506
sa(dp507
g2
S'7785'
p508
sg4
L1449719419649L
sg5
g6
sg7
S'Activity'
p509
sg9
S' 7785'
p510
sg11
S'onStop com.example.myfristandroid.MainActivity@430e5570\n'
p511
sa(dp512
g2
S'7785'
p513
sg4
L1449719420019L
sg5
g15
sg7
S'[encoding]'
p514
sg9
S' 7875'
p515
sg11
S'detectTextEncoding encoding=UTF-8\n'
p516
sa(dp517
g2
S'7785'
p518
sg4
L1449719420259L
sg5
g15
sg7
S'[encoding]'
p519
sg9
S' 7875'
p520
sg11
S'detectTextEncoding encoding=GB18030\n'
p521
sa(dp522
g2
S'7785'
p523
sg4
L1449719420289L
sg5
g15
sg7
S'[encoding]'
p524
sg9
S' 7875'
p525
sg11
S'detectTextEncoding encoding=UTF-8\n'
p526
sa(dp527
g2
S'7785'
p528
sg4
L1449719420449L
sg5
g6
sg7
S'chromium'
p529
sg9
S' 7896'
p530
sg11
S'external/chromium/net/proxy/proxy_config_service_android.cc:28: [1210/115020:INFO:proxy_config_service_android.cc(28)] property_get persist.sys.proxy:\n'
p531
sa(dp532
g2
S'7785'
p533
sg4
L1449719420449L
sg5
g15
sg7
S'        '
p534
sg9
S' 7896'
p535
sg11
S'netstack: Early Connections is: ON, Version: 5.0.1, Param: 3\n'
p536
sa(dp537
g2
S'7785'
p538
sg4
L1449719420569L
sg5
g88
sg7
S'Web Console'
p539
sg9
S' 7785'
p540
sg11
S"Uncaught TypeError: Object com.example.myfristandroid.graphWebShow$DemoJavaScriptInterface@4322ec00 has no method 'startWait' at http://oa.paneng.cn:1143/se9200/realdata/js/realdata.js:80\n"
p541
sa(dp542
g2
S'7785'
p543
sg4
L1449719420629L
sg5
g15
sg7
S'TilesManager'
p544
sg9
S' 7785'
p545
sg11
S'new EGLContext from framework: 5d61ec28 \n'
p546
sa(dp547
g2
S'7785'
p548
sg4
L1449719420629L
sg5
g15
sg7
S'GLWebViewState'
p549
sg9
S' 7785'
p550
sg11
S'Reinit shader\n'
p551
sa(dp552
g2
S'7785'
p553
sg4
L1449719420779L
sg5
g15
sg7
S'GLWebViewState'
p554
sg9
S' 7785'
p555
sg11
S'Reinit transferQueue\n'
p556
sa(dp557
g2
S'7785'
p558
sg4
L1449719424449L
sg5
g15
sg7
S'cn.edu.nju.ise.kikandroid'
p559
sg9
S' 7844'
p560
sg11
S'Screenshot:1449719424456\n'
p561
sa(dp562
g2
S'7785'
p563
sg4
L1449719424519L
sg5
g15
sg7
S'dalvikvm'
p564
sg9
S' 7785'
p565
sg11
S'GC_FOR_ALLOC freed 1075K, 17% free 20174K/24263K, paused 33ms, total 39ms\n'
p566
sa(dp567
g2
S'7785'
p568
sg4
L1449719424609L
sg5
g15
sg7
S'dalvikvm'
p569
sg9
S' 7798'
p570
sg11
S'GC_CONCURRENT freed 107K, 9% free 22091K/24263K, paused 12ms+3ms, total 69ms\n'
p571
sa(dp572
g2
S'7785'
p573
sg4
L1449719424629L
sg5
g15
sg7
S'dalvikvm'
p574
sg9
S' 7785'
p575
sg11
S'GC_FOR_ALLOC freed <1K, 9% free 22091K/24263K, paused 16ms, total 16ms\n'
p576
sa(dp577
g2
S'7785'
p578
sg4
L1449719424629L
sg5
g26
sg7
S'dalvikvm-heap'
p579
sg9
S' 7785'
p580
sg11
S'Grow heap (frag case) to 25.945MB for 2073616-byte allocation\n'
p581
sa(dp582
g2
S'7785'
p583
sg4
L1449719424679L
sg5
g15
sg7
S'dalvikvm'
p584
sg9
S' 7798'
p585
sg11
S'GC_CONCURRENT freed 2026K, 17% free 22097K/26311K, paused 12ms+3ms, total 42ms\n'
p586
sa(dp587
g2
S'7812'
p588
sg4
L1449719438649L
sg5
g15
sg7
S'dalvikvm'
p589
sg9
S' 7816'
p590
sg11
S'GC_CONCURRENT freed 387K, 8% free 10610K/11463K, paused 12ms+2ms, total 29ms\n'
p591
sa(dp592
g2
S'7785'
p593
sg4
L1449719442039L
sg5
g15
sg7
S'cn.edu.nju.ise.kikandroid'
p594
sg9
S' 7844'
p595
sg11
S'Log:1449719442045\n'
p596
sa(dp597
g2
S'7785'
p598
sg4
L1449719444479L
sg5
g6
sg7
S'AudioManager'
p599
sg9
S' 7785'
p600
sg11
S'AudioManager ctor mUseMasterVolume:false\n'
p601
sa(dp602
g2
S'7785'
p603
sg4
L1449719444519L
sg5
g6
sg7
S'Activity'
p604
sg9
S' 7785'
p605
sg11
S'onPause com.example.myfristandroid.graphWebShow@430ffda0\n'
p606
sa(dp607
g2
S'7785'
p608
sg4
L1449719444539L
sg5
g6
sg7
S'Activity'
p609
sg9
S' 7785'
p610
sg11
S'onStart com.example.myfristandroid.MainActivity@430e5570\n'
p611
sa(dp612
g2
S'7785'
p613
sg4
L1449719444539L
sg5
g6
sg7
S'Activity'
p614
sg9
S' 7785'
p615
sg11
S'onResume com.example.myfristandroid.MainActivity@430e5570\n'
p616
sa(dp617
g2
S'7785'
p618
sg4
L1449719444639L
sg5
g37
sg7
S'IInputConnectionWrapper'
p619
sg9
S' 7785'
p620
sg11
S'performPrivateCommand on inactive InputConnection\n'
p621
sa(dp622
g2
S'7785'
p623
sg4
L1449719444989L
sg5
g6
sg7
S'Activity'
p624
sg9
S' 7785'
p625
sg11
S'onStop com.example.myfristandroid.graphWebShow@430ffda0\n'
p626
sa(dp627
g2
S'7785'
p628
sg4
L1449719444989L
sg5
g6
sg7
S'Activity'
p629
sg9
S' 7785'
p630
sg11
S'onDestroy com.example.myfristandroid.graphWebShow@430ffda0\n'
p631
sa(dp632
g2
S'7785'
p633
sg4
L1449719445639L
sg5
g15
sg7
S'MainActivity'
p634
sg9
S' 7785'
p635
sg11
S'V.getTag:null v.id:2131230736\n'
p636
sa(dp637
g2
S'7785'
p638
sg4
L1449719447769L
sg5
g15
sg7
S'MainActivity'
p639
sg9
S' 7785'
p640
sg11
S'V.getTag:null v.id:2131230734\n'
p641
sa(dp642
g2
S'7785'
p643
sg4
L1449719447799L
sg5
g37
sg7
S'IInputConnectionWrapper'
p644
sg9
S' 7785'
p645
sg11
S'performPrivateCommand on inactive InputConnection\n'
p646
sa(dp647
g2
S'7785'
p648
sg4
L1449719447809L
sg5
g37
sg7
S'IInputConnectionWrapper'
p649
sg9
S' 7785'
p650
sg11
S'performPrivateCommand on inactive InputConnection\n'
p651
sa(dp652
g2
S'7785'
p653
sg4
L1449719448899L
sg5
g6
sg7
S'Activity'
p654
sg9
S' 7785'
p655
sg11
S'onPause com.example.myfristandroid.MainActivity@430e5570\n'
p656
sa(dp657
g2
S'7785'
p658
sg4
L1449719448919L
sg5
g6
sg7
S'Activity'
p659
sg9
S' 7785'
p660
sg11
S'onCreate com.example.myfristandroid.graphWebShow@430fa118: null\n'
p661
sa(dp662
g2
S'7785'
p663
sg4
L1449719448929L
sg5
g15
sg7
S'webcore '
p664
sg9
S' 7785'
p665
sg11
S'New send INITIALIZE msg to WebCoreThread\n'
p666
sa(dp667
g2
S'7785'
p668
sg4
L1449719448939L
sg5
g15
sg7
S'webcore '
p669
sg9
S' 7875'
p670
sg11
S'initialize, mNativeClass is 1513628856\n'
p671
sa(dp672
g2
S'7785'
p673
sg4
L1449719448949L
sg5
g6
sg7
S'Activity'
p674
sg9
S' 7785'
p675
sg11
S'onStart com.example.myfristandroid.graphWebShow@430fa118\n'
p676
sa(dp677
g2
S'7785'
p678
sg4
L1449719448949L
sg5
g6
sg7
S'Activity'
p679
sg9
S' 7785'
p680
sg11
S'onResume com.example.myfristandroid.graphWebShow@430fa118\n'
p681
sa(dp682
g2
S'7785'
p683
sg4
L1449719448969L
sg5
g26
sg7
S'TextToSpeech'
p684
sg9
S' 7785'
p685
sg11
S'Sucessfully bound to com.svox.pico\n'
p686
sa(dp687
g2
S'7785'
p688
sg4
L1449719449029L
sg5
g26
sg7
S'TextToSpeech'
p689
sg9
S' 7785'
p690
sg11
S'Connected to ComponentInfo{com.svox.pico/com.svox.pico.PicoService}\n'
p691
sa(dp692
g2
S'7785'
p693
sg4
L1449719449369L
sg5
g6
sg7
S'Activity'
p694
sg9
S' 7785'
p695
sg11
S'onStop com.example.myfristandroid.MainActivity@430e5570\n'
p696
sa(dp697
g2
S'7785'
p698
sg4
L1449719449399L
sg5
g26
sg7
S'qtaguid '
p699
sg9
S' 7896'
p700
sg11
S'Failed write_ctrl(t 88 43250320670720 1009) res=-1 errno=1\n'
p701
sa(dp702
g2
S'7785'
p703
sg4
L1449719449399L
sg5
g26
sg7
S'qtaguid '
p704
sg9
S' 7896'
p705
sg11
S'Tagging socket 88 with tag 275600000000(10070) for uid 1009 failed errno=-1\n'
p706
sa(dp707
g2
S'7785'
p708
sg4
L1449719449399L
sg5
g26
sg7
S'qtaguid '
p709
sg9
S' 7896'
p710
sg11
S'Failed write_ctrl(t 90 43250320670720 1009) res=-1 errno=1\n'
p711
sa(dp712
g2
S'7785'
p713
sg4
L1449719449399L
sg5
g26
sg7
S'qtaguid '
p714
sg9
S' 7896'
p715
sg11
S'Tagging socket 90 with tag 275600000000(10070) for uid 1009 failed errno=-1\n'
p716
sa(dp717
g2
S'7785'
p718
sg4
L1449719449409L
sg5
g26
sg7
S'qtaguid '
p719
sg9
S' 7896'
p720
sg11
S'Failed write_ctrl(t 93 43250320670720 1009) res=-1 errno=1\n'
p721
sa(dp722
g2
S'7785'
p723
sg4
L1449719449409L
sg5
g26
sg7
S'qtaguid '
p724
sg9
S' 7896'
p725
sg11
S'Tagging socket 93 with tag 275600000000(10070) for uid 1009 failed errno=-1\n'
p726
sa(dp727
g2
S'7785'
p728
sg4
L1449719449469L
sg5
g88
sg7
S'Web Console'
p729
sg9
S' 7785'
p730
sg11
S"Uncaught TypeError: Object com.example.myfristandroid.graphWebShow$DemoJavaScriptInterface@4314d1e0 has no method 'startWait' at http://oa.paneng.cn:1143/se9200/realdata/js/realdata.js:80\n"
p731
sa(dp732
g2
S'7785'
p733
sg4
L1449719451399L
sg5
g6
sg7
S'AudioManager'
p734
sg9
S' 7785'
p735
sg11
S'AudioManager ctor mUseMasterVolume:false\n'
p736
sa(dp737
g2
S'7785'
p738
sg4
L1449719451419L
sg5
g26
sg7
S'qtaguid '
p739
sg9
S' 7896'
p740
sg11
S'Failed write_ctrl(u 88) res=-1 errno=22\n'
p741
sa(dp742
g2
S'7785'
p743
sg4
L1449719451419L
sg5
g26
sg7
S'qtaguid '
p744
sg9
S' 7896'
p745
sg11
S'Untagging socket 88 failed errno=-22\n'
p746
sa(dp747
g2
S'7785'
p748
sg4
L1449719451439L
sg5
g26
sg7
S'qtaguid '
p749
sg9
S' 7896'
p750
sg11
S'Failed write_ctrl(u 90) res=-1 errno=22\n'
p751
sa(dp752
g2
S'7785'
p753
sg4
L1449719451439L
sg5
g26
sg7
S'qtaguid '
p754
sg9
S' 7896'
p755
sg11
S'Untagging socket 90 failed errno=-22\n'
p756
sa(dp757
g2
S'7785'
p758
sg4
L1449719451469L
sg5
g26
sg7
S'qtaguid '
p759
sg9
S' 7896'
p760
sg11
S'Failed write_ctrl(u 93) res=-1 errno=22\n'
p761
sa(dp762
g2
S'7785'
p763
sg4
L1449719451469L
sg5
g26
sg7
S'qtaguid '
p764
sg9
S' 7896'
p765
sg11
S'Untagging socket 93 failed errno=-22\n'
p766
sa(dp767
g2
S'7785'
p768
sg4
L1449719451499L
sg5
g6
sg7
S'Activity'
p769
sg9
S' 7785'
p770
sg11
S'onPause com.example.myfristandroid.graphWebShow@430fa118\n'
p771
sa(dp772
g2
S'7785'
p773
sg4
L1449719451509L
sg5
g6
sg7
S'Activity'
p774
sg9
S' 7785'
p775
sg11
S'onStart com.example.myfristandroid.MainActivity@430e5570\n'
p776
sa(dp777
g2
S'7785'
p778
sg4
L1449719451509L
sg5
g6
sg7
S'Activity'
p779
sg9
S' 7785'
p780
sg11
S'onResume com.example.myfristandroid.MainActivity@430e5570\n'
p781
sa(dp782
g2
S'7785'
p783
sg4
L1449719451569L
sg5
g37
sg7
S'IInputConnectionWrapper'
p784
sg9
S' 7785'
p785
sg11
S'performPrivateCommand on inactive InputConnection\n'
p786
sa(dp787
g2
S'7785'
p788
sg4
L1449719451919L
sg5
g6
sg7
S'Activity'
p789
sg9
S' 7785'
p790
sg11
S'onStop com.example.myfristandroid.graphWebShow@430fa118\n'
p791
sa(dp792
g2
S'7785'
p793
sg4
L1449719451919L
sg5
g6
sg7
S'Activity'
p794
sg9
S' 7785'
p795
sg11
S'onDestroy com.example.myfristandroid.graphWebShow@430fa118\n'
p796
sa(dp797
g2
S'7785'
p798
sg4
L1449719452099L
sg5
g15
sg7
S'MainActivity'
p799
sg9
S' 7785'
p800
sg11
S'V.getTag:null v.id:2131230736\n'
p801
sa(dp802
g2
S'7785'
p803
sg4
L1449719452799L
sg5
g15
sg7
S'MainActivity'
p804
sg9
S' 7785'
p805
sg11
S'V.getTag:null v.id:2131230802\n'
p806
sa(dp807
g2
S'7812'
p808
sg4
L1449719453169L
sg5
g15
sg7
S'ForegroundActivity'
p809
sg9
S' 7831'
p810
sg11
S'\xe6\x9c\xac\xe6\xac\xa1\xe5\x8f\x91\xe9\x80\x81\xe5\xb8\xa7\xe9\x95\xbf:13\t\xe6\x80\xbb\xe5\xb8\xa7\xe9\x95\xbf:69\n'
p811
sa(dp812
g2
S'7812'
p813
sg4
L1449719453299L
sg5
g15
sg7
S'ForegroundActivity'
p814
sg9
S' 7836'
p815
sg11
S'\xe6\x9c\xac\xe6\xac\xa1\xe6\x94\xb6\xe5\x88\xb0\xe5\xb8\xa7\xe9\x95\xbf:13\t\xe6\x80\xbb\xe5\xb8\xa7\xe9\x95\xbf:735\n'
p816
sa(dp817
g2
S'7812'
p818
sg4
L1449719454289L
sg5
g15
sg7
S'SocketService1'
p819
sg9
S' 7833'
p820
sg11
S'\xe6\x9c\xac\xe6\xac\xa1\xe6\x8f\x90\xe5\x8f\x961:LoadPtr:735 HeadIndex:722 GetSize:13 13 0 \xe5\xa4\xb4\xe4\xbf\xa1\xe6\x81\xaf:EB 90 EB 90 EB 90 0D 00 10 01 \n'
p821
sa(dp822
g2
S'7785'
p823
sg4
L1449719454629L
sg5
g37
sg7
S'IInputConnectionWrapper'
p824
sg9
S' 7785'
p825
sg11
S'performPrivateCommand on inactive InputConnection\n'
p826
sa(dp827
g2
S'7785'
p828
sg4
L1449719454649L
sg5
g37
sg7
S'IInputConnectionWrapper'
p829
sg9
S' 7785'
p830
sg11
S'performPrivateCommand on inactive InputConnection\n'
p831
sa(dp832
g2
S'7785'
p833
sg4
L1449719456469L
sg5
g15
sg7
S'MainActivity'
p834
sg9
S' 7785'
p835
sg11
S'V.getTag:null v.id:2131230734\n'
p836
sa(dp837
g2
S'7785'
p838
sg4
L1449719456499L
sg5
g37
sg7
S'IInputConnectionWrapper'
p839
sg9
S' 7785'
p840
sg11
S'performPrivateCommand on inactive InputConnection\n'
p841
sa(dp842
g2
S'7785'
p843
sg4
L1449719457329L
sg5
g6
sg7
S'Activity'
p844
sg9
S' 7785'
p845
sg11
S'onPause com.example.myfristandroid.MainActivity@430e5570\n'
p846
sa(dp847
g2
S'7785'
p848
sg4
L1449719457359L
sg5
g6
sg7
S'Activity'
p849
sg9
S' 7785'
p850
sg11
S'onCreate com.example.myfristandroid.graphWebShow@42522fa0: null\n'
p851
sa(dp852
g2
S'7785'
p853
sg4
L1449719457369L
sg5
g15
sg7
S'webcore '
p854
sg9
S' 7785'
p855
sg11
S'New send INITIALIZE msg to WebCoreThread\n'
p856
sa(dp857
g2
S'7785'
p858
sg4
L1449719457369L
sg5
g15
sg7
S'webcore '
p859
sg9
S' 7875'
p860
sg11
S'initialize, mNativeClass is 1557065864\n'
p861
sa(dp862
g2
S'7785'
p863
sg4
L1449719457379L
sg5
g6
sg7
S'Activity'
p864
sg9
S' 7785'
p865
sg11
S'onStart com.example.myfristandroid.graphWebShow@42522fa0\n'
p866
sa(dp867
g2
S'7785'
p868
sg4
L1449719457389L
sg5
g6
sg7
S'Activity'
p869
sg9
S' 7785'
p870
sg11
S'onResume com.example.myfristandroid.graphWebShow@42522fa0\n'
p871
sa(dp872
g2
S'7785'
p873
sg4
L1449719457409L
sg5
g26
sg7
S'TextToSpeech'
p874
sg9
S' 7785'
p875
sg11
S'Sucessfully bound to com.svox.pico\n'
p876
sa(dp877
g2
S'7785'
p878
sg4
L1449719457459L
sg5
g26
sg7
S'TextToSpeech'
p879
sg9
S' 7785'
p880
sg11
S'Connected to ComponentInfo{com.svox.pico/com.svox.pico.PicoService}\n'
p881
sa(dp882
g2
S'7785'
p883
sg4
L1449719457789L
sg5
g6
sg7
S'Activity'
p884
sg9
S' 7785'
p885
sg11
S'onStop com.example.myfristandroid.MainActivity@430e5570\n'
p886
sa(dp887
g2
S'7785'
p888
sg4
L1449719457929L
sg5
g88
sg7
S'Web Console'
p889
sg9
S' 7785'
p890
sg11
S"Uncaught TypeError: Object com.example.myfristandroid.graphWebShow$DemoJavaScriptInterface@4252dbd0 has no method 'startWait' at http://oa.paneng.cn:1143/se9200/realdata/js/realdata.js:80\n"
p891
sa(dp892
g2
S'7785'
p893
sg4
L1449719461619L
sg5
g6
sg7
S'AudioManager'
p894
sg9
S' 7785'
p895
sg11
S'AudioManager ctor mUseMasterVolume:false\n'
p896
sa(dp897
g2
S'7785'
p898
sg4
L1449719461659L
sg5
g6
sg7
S'Activity'
p899
sg9
S' 7785'
p900
sg11
S'onPause com.example.myfristandroid.graphWebShow@42522fa0\n'
p901
sa(dp902
g2
S'7785'
p903
sg4
L1449719461679L
sg5
g6
sg7
S'Activity'
p904
sg9
S' 7785'
p905
sg11
S'onStart com.example.myfristandroid.MainActivity@430e5570\n'
p906
sa(dp907
g2
S'7785'
p908
sg4
L1449719461679L
sg5
g6
sg7
S'Activity'
p909
sg9
S' 7785'
p910
sg11
S'onResume com.example.myfristandroid.MainActivity@430e5570\n'
p911
sa(dp912
g2
S'7785'
p913
sg4
L1449719461729L
sg5
g37
sg7
S'IInputConnectionWrapper'
p914
sg9
S' 7785'
p915
sg11
S'performPrivateCommand on inactive InputConnection\n'
p916
sa(dp917
g2
S'7785'
p918
sg4
L1449719462079L
sg5
g6
sg7
S'Activity'
p919
sg9
S' 7785'
p920
sg11
S'onStop com.example.myfristandroid.graphWebShow@42522fa0\n'
p921
sa(dp922
g2
S'7785'
p923
sg4
L1449719462079L
sg5
g6
sg7
S'Activity'
p924
sg9
S' 7785'
p925
sg11
S'onDestroy com.example.myfristandroid.graphWebShow@42522fa0\n'
p926
sa(dp927
g2
S'7785'
p928
sg4
L1449719462449L
sg5
g15
sg7
S'MainActivity'
p929
sg9
S' 7785'
p930
sg11
S'V.getTag:null v.id:2131230736\n'
p931
sa(dp932
g2
S'7812'
p933
sg4
L1449719470079L
sg5
g15
sg7
S'dalvikvm'
p934
sg9
S' 7816'
p935
sg11
S'GC_CONCURRENT freed 398K, 8% free 10609K/11463K, paused 18ms+2ms, total 57ms\n'
p936
sa(dp937
g2
S'7785'
p938
sg4
L1449719475709L
sg5
g15
sg7
S'MainActivity'
p939
sg9
S' 7785'
p940
sg11
S'V.getTag:null v.id:2131230734\n'
p941
sa(dp942
g2
S'7785'
p943
sg4
L1449719475739L
sg5
g37
sg7
S'IInputConnectionWrapper'
p944
sg9
S' 7785'
p945
sg11
S'performPrivateCommand on inactive InputConnection\n'
p946
sa(dp947
g2
S'7785'
p948
sg4
L1449719478049L
sg5
g6
sg7
S'Activity'
p949
sg9
S' 7785'
p950
sg11
S'onPause com.example.myfristandroid.MainActivity@430e5570\n'
p951
sa(dp952
g2
S'7785'
p953
sg4
L1449719478069L
sg5
g6
sg7
S'Activity'
p954
sg9
S' 7785'
p955
sg11
S'onCreate com.example.myfristandroid.graphWebShow@4254e428: null\n'
p956
sa(dp957
g2
S'7785'
p958
sg4
L1449719478109L
sg5
g15
sg7
S'webcore '
p959
sg9
S' 7785'
p960
sg11
S'New send INITIALIZE msg to WebCoreThread\n'
p961
sa(dp962
g2
S'7785'
p963
sg4
L1449719478109L
sg5
g15
sg7
S'webcore '
p964
sg9
S' 7875'
p965
sg11
S'initialize, mNativeClass is 1561420296\n'
p966
sa(dp967
g2
S'7785'
p968
sg4
L1449719478129L
sg5
g6
sg7
S'Activity'
p969
sg9
S' 7785'
p970
sg11
S'onStart com.example.myfristandroid.graphWebShow@4254e428\n'
p971
sa(dp972
g2
S'7785'
p973
sg4
L1449719478129L
sg5
g6
sg7
S'Activity'
p974
sg9
S' 7785'
p975
sg11
S'onResume com.example.myfristandroid.graphWebShow@4254e428\n'
p976
sa(dp977
g2
S'7785'
p978
sg4
L1449719478159L
sg5
g26
sg7
S'TextToSpeech'
p979
sg9
S' 7785'
p980
sg11
S'Sucessfully bound to com.svox.pico\n'
p981
sa(dp982
g2
S'7785'
p983
sg4
L1449719478219L
sg5
g26
sg7
S'TextToSpeech'
p984
sg9
S' 7785'
p985
sg11
S'Connected to ComponentInfo{com.svox.pico/com.svox.pico.PicoService}\n'
p986
sa(dp987
g2
S'7785'
p988
sg4
L1449719478559L
sg5
g6
sg7
S'Activity'
p989
sg9
S' 7785'
p990
sg11
S'onStop com.example.myfristandroid.MainActivity@430e5570\n'
p991
sa(dp992
g2
S'7785'
p993
sg4
L1449719478619L
sg5
g26
sg7
S'qtaguid '
p994
sg9
S' 7896'
p995
sg11
S'Failed write_ctrl(t 86 43250320670720 7471204) res=-1 errno=1\n'
p996
sa(dp997
g2
S'7785'
p998
sg4
L1449719478619L
sg5
g26
sg7
S'qtaguid '
p999
sg9
S' 7896'
p1000
sg11
S'Tagging socket 86 with tag 275600000000(10070) for uid 7471204 failed errno=-1\n'
p1001
sa(dp1002
g2
S'7785'
p1003
sg4
L1449719478619L
sg5
g26
sg7
S'qtaguid '
p1004
sg9
S' 7896'
p1005
sg11
S'Failed write_ctrl(t 90 43250320670720 7471204) res=-1 errno=1\n'
p1006
sa(dp1007
g2
S'7785'
p1008
sg4
L1449719478619L
sg5
g26
sg7
S'qtaguid '
p1009
sg9
S' 7896'
p1010
sg11
S'Tagging socket 90 with tag 275600000000(10070) for uid 7471204 failed errno=-1\n'
p1011
sa(dp1012
g2
S'7785'
p1013
sg4
L1449719478629L
sg5
g26
sg7
S'qtaguid '
p1014
sg9
S' 7896'
p1015
sg11
S'Failed write_ctrl(t 93 43250320670720 7471204) res=-1 errno=1\n'
p1016
sa(dp1017
g2
S'7785'
p1018
sg4
L1449719478629L
sg5
g26
sg7
S'qtaguid '
p1019
sg9
S' 7896'
p1020
sg11
S'Tagging socket 93 with tag 275600000000(10070) for uid 7471204 failed errno=-1\n'
p1021
sa(dp1022
g2
S'7785'
p1023
sg4
L1449719478689L
sg5
g88
sg7
S'Web Console'
p1024
sg9
S' 7785'
p1025
sg11
S"Uncaught TypeError: Object com.example.myfristandroid.graphWebShow$DemoJavaScriptInterface@42559058 has no method 'startWait' at http://oa.paneng.cn:1143/se9200/realdata/js/realdata.js:80\n"
p1026
sa(dp1027
g2
S'7785'
p1028
sg4
L1449719480639L
sg5
g26
sg7
S'qtaguid '
p1029
sg9
S' 7896'
p1030
sg11
S'Failed write_ctrl(u 86) res=-1 errno=22\n'
p1031
sa(dp1032
g2
S'7785'
p1033
sg4
L1449719480639L
sg5
g26
sg7
S'qtaguid '
p1034
sg9
S' 7896'
p1035
sg11
S'Untagging socket 86 failed errno=-22\n'
p1036
sa(dp1037
g2
S'7785'
p1038
sg4
L1449719480639L
sg5
g26
sg7
S'qtaguid '
p1039
sg9
S' 7896'
p1040
sg11
S'Failed write_ctrl(u 90) res=-1 errno=22\n'
p1041
sa(dp1042
g2
S'7785'
p1043
sg4
L1449719480639L
sg5
g26
sg7
S'qtaguid '
p1044
sg9
S' 7896'
p1045
sg11
S'Untagging socket 90 failed errno=-22\n'
p1046
sa(dp1047
g2
S'7785'
p1048
sg4
L1449719480649L
sg5
g26
sg7
S'qtaguid '
p1049
sg9
S' 7896'
p1050
sg11
S'Failed write_ctrl(u 93) res=-1 errno=22\n'
p1051
sa(dp1052
g2
S'7785'
p1053
sg4
L1449719480649L
sg5
g26
sg7
S'qtaguid '
p1054
sg9
S' 7896'
p1055
sg11
S'Untagging socket 93 failed errno=-22\n'
p1056
sa(dp1057
g2
S'7812'
p1058
sg4
L1449719493169L
sg5
g15
sg7
S'ForegroundActivity'
p1059
sg9
S' 7831'
p1060
sg11
S'\xe6\x9c\xac\xe6\xac\xa1\xe5\x8f\x91\xe9\x80\x81\xe5\xb8\xa7\xe9\x95\xbf:13\t\xe6\x80\xbb\xe5\xb8\xa7\xe9\x95\xbf:82\n'
p1061
sa(dp1062
g2
S'7812'
p1063
sg4
L1449719493239L
sg5
g15
sg7
S'ForegroundActivity'
p1064
sg9
S' 7836'
p1065
sg11
S'\xe6\x9c\xac\xe6\xac\xa1\xe6\x94\xb6\xe5\x88\xb0\xe5\xb8\xa7\xe9\x95\xbf:13\t\xe6\x80\xbb\xe5\xb8\xa7\xe9\x95\xbf:748\n'
p1066
sa(dp1067
g2
S'7812'
p1068
sg4
L1449719493329L
sg5
g15
sg7
S'SocketService1'
p1069
sg9
S' 7833'
p1070
sg11
S'\xe6\x9c\xac\xe6\xac\xa1\xe6\x8f\x90\xe5\x8f\x961:LoadPtr:748 HeadIndex:735 GetSize:13 13 0 \xe5\xa4\xb4\xe4\xbf\xa1\xe6\x81\xaf:EB 90 EB 90 EB 90 0D 00 10 01 \n'
p1071
sa(dp1072
g2
S'7785'
p1073
sg4
L1449719495189L
sg5
g37
sg7
S'IInputConnectionWrapper'
p1074
sg9
S' 7785'
p1075
sg11
S'performPrivateCommand on inactive InputConnection\n'
p1076
sa(dp1077
g2
S'7785'
p1078
sg4
L1449719497249L
sg5
g15
sg7
S'cn.edu.nju.ise.kikandroid'
p1079
sg9
S' 7844'
p1080
sg11
S'Screenshot:1449719497256\n'
p1081
sa(dp1082
g2
S'7785'
p1083
sg4
L1449719497319L
sg5
g15
sg7
S'dalvikvm'
p1084
sg9
S' 7785'
p1085
sg11
S'GC_FOR_ALLOC freed 2599K, 23% free 20328K/26311K, paused 35ms, total 38ms\n'
p1086
sa(dp1087
g2
S'7785'
p1088
sg4
L1449719497379L
sg5
g15
sg7
S'dalvikvm'
p1089
sg9
S' 7798'
p1090
sg11
S'GC_CONCURRENT freed 125K, 16% free 22228K/26311K, paused 14ms+4ms, total 53ms\n'
p1091
sa(dp1092
g2
S'7785'
p1093
sg4
L1449719497429L
sg5
g15
sg7
S'dalvikvm'
p1094
sg9
S' 7798'
p1095
sg11
S'GC_CONCURRENT freed 2026K, 16% free 22233K/26311K, paused 4ms+3ms, total 23ms\n'
p1096
sa(dp1097
g2
S'7785'
p1098
sg4
L1449719498679L
sg5
g15
sg7
S'cn.edu.nju.ise.kikandroid'
p1099
sg9
S' 7844'
p1100
sg11
S'Log:1449719498683\n'
p1101
sa(dp1102
g2
S'7785'
p1103
sg4
L1449719499319L
sg5
g15
sg7
S'cn.edu.nju.ise.kikandroid'
p1104
sg9
S' 7844'
p1105
sg11
S'Log:1449719499330\n'
p1106
sa(dp1107
g2
S'7785'
p1108
sg4
L1449719500109L
sg5
g15
sg7
S'cn.edu.nju.ise.kikandroid'
p1109
sg9
S' 7844'
p1110
sg11
S'Log:1449719500112\n'
p1111
sa(dp1112
g2
S'7785'
p1113
sg4
L1449719500979L
sg5
g15
sg7
S'cn.edu.nju.ise.kikandroid'
p1114
sg9
S' 7844'
p1115
sg11
S'Log:1449719500985\n'
p1116
sa(dp1117
g2
S'7812'
p1118
sg4
L1449719501549L
sg5
g15
sg7
S'dalvikvm'
p1119
sg9
S' 7816'
p1120
sg11
S'GC_CONCURRENT freed 398K, 8% free 10609K/11463K, paused 7ms+1ms, total 36ms\n'
p1121
sa(dp1122
g2
S'7785'
p1123
sg4
L1449719502139L
sg5
g6
sg7
S'AudioManager'
p1124
sg9
S' 7785'
p1125
sg11
S'AudioManager ctor mUseMasterVolume:false\n'
p1126
sa(dp1127
g2
S'7785'
p1128
sg4
L1449719502169L
sg5
g6
sg7
S'Activity'
p1129
sg9
S' 7785'
p1130
sg11
S'onPause com.example.myfristandroid.graphWebShow@4254e428\n'
p1131
sa(dp1132
g2
S'7785'
p1133
sg4
L1449719502219L
sg5
g6
sg7
S'Activity'
p1134
sg9
S' 7785'
p1135
sg11
S'onStart com.example.myfristandroid.MainActivity@430e5570\n'
p1136
sa(dp1137
g2
S'7785'
p1138
sg4
L1449719502219L
sg5
g6
sg7
S'Activity'
p1139
sg9
S' 7785'
p1140
sg11
S'onResume com.example.myfristandroid.MainActivity@430e5570\n'
p1141
sa(dp1142
g2
S'7785'
p1143
sg4
L1449719502289L
sg5
g37
sg7
S'IInputConnectionWrapper'
p1144
sg9
S' 7785'
p1145
sg11
S'performPrivateCommand on inactive InputConnection\n'
p1146
sa(dp1147
g2
S'7785'
p1148
sg4
L1449719502639L
sg5
g6
sg7
S'Activity'
p1149
sg9
S' 7785'
p1150
sg11
S'onStop com.example.myfristandroid.graphWebShow@4254e428\n'
p1151
sa(dp1152
g2
S'7785'
p1153
sg4
L1449719502639L
sg5
g6
sg7
S'Activity'
p1154
sg9
S' 7785'
p1155
sg11
S'onDestroy com.example.myfristandroid.graphWebShow@4254e428\n'
p1156
sa(dp1157
g2
S'7785'
p1158
sg4
L1449719511989L
sg5
g6
sg7
S'Activity'
p1159
sg9
S' 7785'
p1160
sg11
S'onPause com.example.myfristandroid.MainActivity@430e5570\n'
p1161
sa(dp1162
g2
S'7785'
p1163
sg4
L1449719512009L
sg5
g6
sg7
S'Activity'
p1164
sg9
S' 7785'
p1165
sg11
S'onCreate com.example.myfristandroid.graphWebShow@4310bc10: null\n'
p1166
sa(dp1167
g2
S'7785'
p1168
sg4
L1449719512029L
sg5
g15
sg7
S'webcore '
p1169
sg9
S' 7785'
p1170
sg11
S'New send INITIALIZE msg to WebCoreThread\n'
p1171
sa(dp1172
g2
S'7785'
p1173
sg4
L1449719512039L
sg5
g15
sg7
S'webcore '
p1174
sg9
S' 7875'
p1175
sg11
S'initialize, mNativeClass is 1568184520\n'
p1176
sa(dp1177
g2
S'7785'
p1178
sg4
L1449719512049L
sg5
g6
sg7
S'Activity'
p1179
sg9
S' 7785'
p1180
sg11
S'onStart com.example.myfristandroid.graphWebShow@4310bc10\n'
p1181
sa(dp1182
g2
S'7785'
p1183
sg4
L1449719512049L
sg5
g6
sg7
S'Activity'
p1184
sg9
S' 7785'
p1185
sg11
S'onResume com.example.myfristandroid.graphWebShow@4310bc10\n'
p1186
sa(dp1187
g2
S'7785'
p1188
sg4
L1449719512059L
sg5
g26
sg7
S'qtaguid '
p1189
sg9
S' 7896'
p1190
sg11
S'Failed write_ctrl(t 88 43250320670720 0) res=-1 errno=1\n'
p1191
sa(dp1192
g2
S'7785'
p1193
sg4
L1449719512059L
sg5
g26
sg7
S'qtaguid '
p1194
sg9
S' 7896'
p1195
sg11
S'Tagging socket 88 with tag 275600000000(10070) for uid 0 failed errno=-1\n'
p1196
sa(dp1197
g2
S'7785'
p1198
sg4
L1449719512059L
sg5
g26
sg7
S'qtaguid '
p1199
sg9
S' 7896'
p1200
sg11
S'Failed write_ctrl(t 106 43250320670720 0) res=-1 errno=1\n'
p1201
sa(dp1202
g2
S'7785'
p1203
sg4
L1449719512059L
sg5
g26
sg7
S'qtaguid '
p1204
sg9
S' 7896'
p1205
sg11
S'Tagging socket 106 with tag 275600000000(10070) for uid 0 failed errno=-1\n'
p1206
sa(dp1207
g2
S'7785'
p1208
sg4
L1449719512059L
sg5
g26
sg7
S'qtaguid '
p1209
sg9
S' 7896'
p1210
sg11
S'Failed write_ctrl(t 121 43250320670720 0) res=-1 errno=1\n'
p1211
sa(dp1212
g2
S'7785'
p1213
sg4
L1449719512059L
sg5
g26
sg7
S'qtaguid '
p1214
sg9
S' 7896'
p1215
sg11
S'Tagging socket 121 with tag 275600000000(10070) for uid 0 failed errno=-1\n'
p1216
sa(dp1217
g2
S'7785'
p1218
sg4
L1449719512059L
sg5
g15
sg7
S'        '
p1219
sg9
S' 7896'
p1220
sg11
S'netstack: Caching Of Redirection is: ON, Version: 5.0.1\n'
p1221
sa(dp1222
g2
S'7785'
p1223
sg4
L1449719512099L
sg5
g26
sg7
S'TextToSpeech'
p1224
sg9
S' 7785'
p1225
sg11
S'Sucessfully bound to com.svox.pico\n'
p1226
sa(dp1227
g2
S'7785'
p1228
sg4
L1449719512139L
sg5
g15
sg7
S'[encoding]'
p1229
sg9
S' 7875'
p1230
sg11
S'detectTextEncoding encoding=UTF-8\n'
p1231
sa(dp1232
g2
S'7785'
p1233
sg4
L1449719512149L
sg5
g26
sg7
S'TextToSpeech'
p1234
sg9
S' 7785'
p1235
sg11
S'Connected to ComponentInfo{com.svox.pico/com.svox.pico.PicoService}\n'
p1236
sa(dp1237
g2
S'7785'
p1238
sg4
L1449719512319L
sg5
g15
sg7
S'[encoding]'
p1239
sg9
S' 7875'
p1240
sg11
S'detectTextEncoding encoding=UTF-8\n'
p1241
sa(dp1242
g2
S'7785'
p1243
sg4
L1449719512329L
sg5
g15
sg7
S'[encoding]'
p1244
sg9
S' 7875'
p1245
sg11
S'detectTextEncoding encoding=UTF-8\n'
p1246
sa(dp1247
g2
S'7785'
p1248
sg4
L1449719512349L
sg5
g15
sg7
S'[encoding]'
p1249
sg9
S' 7875'
p1250
sg11
S'detectTextEncoding encoding=UTF-8\n'
p1251
sa(dp1252
g2
S'7785'
p1253
sg4
L1449719512369L
sg5
g15
sg7
S'[encoding]'
p1254
sg9
S' 7875'
p1255
sg11
S'detectTextEncoding encoding=UTF-8\n'
p1256
sa(dp1257
g2
S'7785'
p1258
sg4
L1449719512399L
sg5
g15
sg7
S'[encoding]'
p1259
sg9
S' 7875'
p1260
sg11
S'detectTextEncoding encoding=UTF-8\n'
p1261
sa(dp1262
g2
S'7785'
p1263
sg4
L1449719512409L
sg5
g15
sg7
S'[encoding]'
p1264
sg9
S' 7875'
p1265
sg11
S'detectTextEncoding encoding=UTF-8\n'
p1266
sa(dp1267
g2
S'7785'
p1268
sg4
L1449719512419L
sg5
g15
sg7
S'[encoding]'
p1269
sg9
S' 7875'
p1270
sg11
S'detectTextEncoding encoding=UTF-8\n'
p1271
sa(dp1272
g2
S'7785'
p1273
sg4
L1449719512449L
sg5
g15
sg7
S'[encoding]'
p1274
sg9
S' 7875'
p1275
sg11
S'detectTextEncoding encoding=UTF-8\n'
p1276
sa(dp1277
g2
S'7785'
p1278
sg4
L1449719512459L
sg5
g15
sg7
S'[encoding]'
p1279
sg9
S' 7875'
p1280
sg11
S'detectTextEncoding encoding=UTF-8\n'
p1281
sa(dp1282
g2
S'7785'
p1283
sg4
L1449719512489L
sg5
g15
sg7
S'[encoding]'
p1284
sg9
S' 7875'
p1285
sg11
S'detectTextEncoding encoding=UTF-8\n'
p1286
sa(dp1287
g2
S'7785'
p1288
sg4
L1449719512489L
sg5
g6
sg7
S'Activity'
p1289
sg9
S' 7785'
p1290
sg11
S'onStop com.example.myfristandroid.MainActivity@430e5570\n'
p1291
sa(dp1292
g2
S'7785'
p1293
sg4
L1449719512519L
sg5
g15
sg7
S'[encoding]'
p1294
sg9
S' 7875'
p1295
sg11
S'detectTextEncoding encoding=UTF-8\n'
p1296
sa(dp1297
g2
S'7785'
p1298
sg4
L1449719513039L
sg5
g15
sg7
S'MainActivity'
p1299
sg9
S' 7875'
p1300
sg11
S'h:910.5,w:1687.5\n'
p1301
sa(dp1302
g2
S'7785'
p1303
sg4
L1449719513089L
sg5
g6
sg7
S'Activity'
p1304
sg9
S' 7785'
p1305
sg11
S'onConfigurationChanged com.example.myfristandroid.graphWebShow@4310bc10: {1.15 460mcc3mnc zh_CN sw455dp w303dp h360dp smll land finger -keyb/v/h -nav/h s.411}\n'
p1306
sa(dp1307
g2
S'7785'
p1308
sg4
L1449719514079L
sg5
g26
sg7
S'qtaguid '
p1309
sg9
S' 7896'
p1310
sg11
S'Failed write_ctrl(u 88) res=-1 errno=22\n'
p1311
sa(dp1312
g2
S'7785'
p1313
sg4
L1449719514079L
sg5
g26
sg7
S'qtaguid '
p1314
sg9
S' 7896'
p1315
sg11
S'Untagging socket 88 failed errno=-22\n'
p1316
sa(dp1317
g2
S'7785'
p1318
sg4
L1449719514119L
sg5
g26
sg7
S'qtaguid '
p1319
sg9
S' 7896'
p1320
sg11
S'Failed write_ctrl(u 106) res=-1 errno=22\n'
p1321
sa(dp1322
g2
S'7785'
p1323
sg4
L1449719514119L
sg5
g26
sg7
S'qtaguid '
p1324
sg9
S' 7896'
p1325
sg11
S'Untagging socket 106 failed errno=-22\n'
p1326
sa(dp1327
g2
S'7785'
p1328
sg4
L1449719514119L
sg5
g26
sg7
S'qtaguid '
p1329
sg9
S' 7896'
p1330
sg11
S'Failed write_ctrl(u 121) res=-1 errno=22\n'
p1331
sa(dp1332
g2
S'7785'
p1333
sg4
L1449719514129L
sg5
g26
sg7
S'qtaguid '
p1334
sg9
S' 7896'
p1335
sg11
S'Untagging socket 121 failed errno=-22\n'
p1336
sa(dp1337
g2
S'7785'
p1338
sg4
L1449719525539L
sg5
g88
sg7
S'webcoreglue'
p1339
sg9
S' 7875'
p1340
sg11
S'getAbsoluteBoundingBox failed for node 0x5de73870, name RenderSVGContainer\n'
p1341
sa(dp1342
g2
S'7785'
p1343
sg4
L1449719525549L
sg5
g88
sg7
S'webcoreglue'
p1344
sg9
S' 7875'
p1345
sg11
S'getAbsoluteBoundingBox failed for node 0x5de73bc0, name RenderSVGContainer\n'
p1346
sa(dp1347
g2
S'7785'
p1348
sg4
L1449719525549L
sg5
g88
sg7
S'webcoreglue'
p1349
sg9
S' 7875'
p1350
sg11
S'getAbsoluteBoundingBox failed for node 0x5de73de8, name RenderSVGContainer\n'
p1351
sa(dp1352
g2
S'7785'
p1353
sg4
L1449719525549L
sg5
g88
sg7
S'webcoreglue'
p1354
sg9
S' 7875'
p1355
sg11
S'getAbsoluteBoundingBox failed for node 0x5de744b8, name RenderSVGPath\n'
p1356
sa(dp1357
g2
S'7785'
p1358
sg4
L1449719526149L
sg5
g37
sg7
S'IInputConnectionWrapper'
p1359
sg9
S' 7785'
p1360
sg11
S'performPrivateCommand on inactive InputConnection\n'
p1361
sa(dp1362
g2
S'7785'
p1363
sg4
L1449719526319L
sg5
g15
sg7
S'[encoding]'
p1364
sg9
S' 7875'
p1365
sg11
S'detectTextEncoding encoding=UTF-8\n'
p1366
sa(dp1367
g2
S'7785'
p1368
sg4
L1449719527139L
sg5
g15
sg7
S'MainActivity'
p1369
sg9
S' 7875'
p1370
sg11
S'h:805.135,w:1497.81\n'
p1371
sa(dp1372
g2
S'7812'
p1373
sg4
L1449719533059L
sg5
g15
sg7
S'dalvikvm'
p1374
sg9
S' 7816'
p1375
sg11
S'GC_CONCURRENT freed 392K, 8% free 10609K/11463K, paused 17ms+2ms, total 61ms\n'
p1376
sa(dp1377
g2
S'7812'
p1378
sg4
L1449719533179L
sg5
g15
sg7
S'ForegroundActivity'
p1379
sg9
S' 7831'
p1380
sg11
S'\xe6\x9c\xac\xe6\xac\xa1\xe5\x8f\x91\xe9\x80\x81\xe5\xb8\xa7\xe9\x95\xbf:13\t\xe6\x80\xbb\xe5\xb8\xa7\xe9\x95\xbf:95\n'
p1381
sa(dp1382
g2
S'7812'
p1383
sg4
L1449719533369L
sg5
g15
sg7
S'ForegroundActivity'
p1384
sg9
S' 7836'
p1385
sg11
S'\xe6\x9c\xac\xe6\xac\xa1\xe6\x94\xb6\xe5\x88\xb0\xe5\xb8\xa7\xe9\x95\xbf:13\t\xe6\x80\xbb\xe5\xb8\xa7\xe9\x95\xbf:761\n'
p1386
sa(dp1387
g2
S'7812'
p1388
sg4
L1449719533389L
sg5
g15
sg7
S'SocketService1'
p1389
sg9
S' 7833'
p1390
sg11
S'\xe6\x9c\xac\xe6\xac\xa1\xe6\x8f\x90\xe5\x8f\x961:LoadPtr:761 HeadIndex:748 GetSize:13 13 0 \xe5\xa4\xb4\xe4\xbf\xa1\xe6\x81\xaf:EB 90 EB 90 EB 90 0D 00 10 01 \n'
p1391
sa(dp1392
g2
S'7785'
p1393
sg4
L1449719534639L
sg5
g6
sg7
S'AudioManager'
p1394
sg9
S' 7785'
p1395
sg11
S'AudioManager ctor mUseMasterVolume:false\n'
p1396
sa(dp1397
g2
S'7785'
p1398
sg4
L1449719534699L
sg5
g15
sg7
S'[encoding]'
p1399
sg9
S' 7875'
p1400
sg11
S'detectTextEncoding encoding=UTF-8\n'
p1401
sa(dp1402
g2
S'7785'
p1403
sg4
L1449719535259L
sg5
g15
sg7
S'MainActivity'
p1404
sg9
S' 7875'
p1405
sg11
S'h:910.5,w:1687.5\n'
p1406
sa(dp1407
g2
S'7785'
p1408
sg4
L1449719537289L
sg5
g88
sg7
S'webcoreglue'
p1409
sg9
S' 7875'
p1410
sg11
S'getAbsoluteBoundingBox failed for node 0x63f722c8, name RenderSVGContainer\n'
p1411
sa(dp1412
g2
S'7785'
p1413
sg4
L1449719537289L
sg5
g88
sg7
S'webcoreglue'
p1414
sg9
S' 7875'
p1415
sg11
S'getAbsoluteBoundingBox failed for node 0x63f724a0, name RenderSVGContainer\n'
p1416
sa(dp1417
g2
S'7785'
p1418
sg4
L1449719537299L
sg5
g88
sg7
S'webcoreglue'
p1419
sg9
S' 7875'
p1420
sg11
S'getAbsoluteBoundingBox failed for node 0x63f726d0, name RenderSVGContainer\n'
p1421
sa(dp1422
g2
S'7785'
p1423
sg4
L1449719537299L
sg5
g88
sg7
S'webcoreglue'
p1424
sg9
S' 7875'
p1425
sg11
S'getAbsoluteBoundingBox failed for node 0x63f72d30, name RenderSVGPath\n'
p1426
sa(dp1427
g2
S'7785'
p1428
sg4
L1449719537799L
sg5
g37
sg7
S'IInputConnectionWrapper'
p1429
sg9
S' 7785'
p1430
sg11
S'performPrivateCommand on inactive InputConnection\n'
p1431
sa(dp1432
g2
S'7785'
p1433
sg4
L1449719537829L
sg5
g15
sg7
S'[encoding]'
p1434
sg9
S' 7875'
p1435
sg11
S'detectTextEncoding encoding=UTF-8\n'
p1436
sa(dp1437
g2
S'7785'
p1438
sg4
L1449719538569L
sg5
g15
sg7
S'MainActivity'
p1439
sg9
S' 7875'
p1440
sg11
S'h:805.135,w:1496.51\n'
p1441
sa(dp1442
g2
S'7785'
p1443
sg4
L1449719540749L
sg5
g15
sg7
S'[encoding]'
p1444
sg9
S' 7875'
p1445
sg11
S'detectTextEncoding encoding=UTF-8\n'
p1446
sa(dp1447
g2
S'7785'
p1448
sg4
L1449719541339L
sg5
g15
sg7
S'MainActivity'
p1449
sg9
S' 7875'
p1450
sg11
S'h:910.5,w:1687.5\n'
p1451
sa(dp1452
g2
S'7812'
p1453
sg4
L1449719563489L
sg5
g15
sg7
S'dalvikvm'
p1454
sg9
S' 7816'
p1455
sg11
S'GC_CONCURRENT freed 387K, 8% free 10610K/11463K, paused 11ms+1ms, total 26ms\n'
p1456
sa(dp1457
g2
S'7785'
p1458
sg4
L1449719568419L
sg5
g88
sg7
S'webcoreglue'
p1459
sg9
S' 7875'
p1460
sg11
S'getAbsoluteBoundingBox failed for node 0x637b7ec8, name RenderSVGContainer\n'
p1461
sa(dp1462
g2
S'7785'
p1463
sg4
L1449719568419L
sg5
g88
sg7
S'webcoreglue'
p1464
sg9
S' 7875'
p1465
sg11
S'getAbsoluteBoundingBox failed for node 0x637b80f0, name RenderSVGContainer\n'
p1466
sa(dp1467
g2
S'7785'
p1468
sg4
L1449719568429L
sg5
g88
sg7
S'webcoreglue'
p1469
sg9
S' 7875'
p1470
sg11
S'getAbsoluteBoundingBox failed for node 0x637b8320, name RenderSVGContainer\n'
p1471
sa(dp1472
g2
S'7785'
p1473
sg4
L1449719568429L
sg5
g88
sg7
S'webcoreglue'
p1474
sg9
S' 7875'
p1475
sg11
S'getAbsoluteBoundingBox failed for node 0x637b8f38, name RenderSVGPath\n'
p1476
sa(dp1477
g2
S'7785'
p1478
sg4
L1449719568889L
sg5
g37
sg7
S'IInputConnectionWrapper'
p1479
sg9
S' 7785'
p1480
sg11
S'performPrivateCommand on inactive InputConnection\n'
p1481
sa(dp1482
g2
S'7785'
p1483
sg4
L1449719568919L
sg5
g15
sg7
S'[encoding]'
p1484
sg9
S' 7875'
p1485
sg11
S'detectTextEncoding encoding=UTF-8\n'
p1486
sa(dp1487
g2
S'7785'
p1488
sg4
L1449719569609L
sg5
g15
sg7
S'MainActivity'
p1489
sg9
S' 7875'
p1490
sg11
S'h:805.135,w:1543\n'
p1491
sa(dp1492
g2
S'7785'
p1493
sg4
L1449719570829L
sg5
g15
sg7
S'[encoding]'
p1494
sg9
S' 7875'
p1495
sg11
S'detectTextEncoding encoding=UTF-8\n'
p1496
sa(dp1497
g2
S'7785'
p1498
sg4
L1449719571399L
sg5
g15
sg7
S'MainActivity'
p1499
sg9
S' 7875'
p1500
sg11
S'h:910.5,w:1687.5\n'
p1501
sa(dp1502
g2
S'7812'
p1503
sg4
L1449719573179L
sg5
g15
sg7
S'ForegroundActivity'
p1504
sg9
S' 7831'
p1505
sg11
S'\xe6\x9c\xac\xe6\xac\xa1\xe5\x8f\x91\xe9\x80\x81\xe5\xb8\xa7\xe9\x95\xbf:13\t\xe6\x80\xbb\xe5\xb8\xa7\xe9\x95\xbf:108\n'
p1506
sa(dp1507
g2
S'7812'
p1508
sg4
L1449719573309L
sg5
g15
sg7
S'ForegroundActivity'
p1509
sg9
S' 7836'
p1510
sg11
S'\xe6\x9c\xac\xe6\xac\xa1\xe6\x94\xb6\xe5\x88\xb0\xe5\xb8\xa7\xe9\x95\xbf:13\t\xe6\x80\xbb\xe5\xb8\xa7\xe9\x95\xbf:774\n'
p1511
sa(dp1512
g2
S'7812'
p1513
sg4
L1449719573429L
sg5
g15
sg7
S'SocketService1'
p1514
sg9
S' 7833'
p1515
sg11
S'\xe6\x9c\xac\xe6\xac\xa1\xe6\x8f\x90\xe5\x8f\x961:LoadPtr:774 HeadIndex:761 GetSize:13 13 0 \xe5\xa4\xb4\xe4\xbf\xa1\xe6\x81\xaf:EB 90 EB 90 EB 90 0D 00 10 01 \n'
p1516
sa(dp1517
g2
S'7785'
p1518
sg4
L1449719574689L
sg5
g6
sg7
S'Activity'
p1519
sg9
S' 7785'
p1520
sg11
S'onPause com.example.myfristandroid.graphWebShow@4310bc10\n'
p1521
sa(dp1522
g2
S'7785'
p1523
sg4
L1449719574799L
sg5
g6
sg7
S'Activity'
p1524
sg9
S' 7785'
p1525
sg11
S'onStart com.example.myfristandroid.MainActivity@430e5570\n'
p1526
sa(dp1527
g2
S'7785'
p1528
sg4
L1449719574799L
sg5
g6
sg7
S'Activity'
p1529
sg9
S' 7785'
p1530
sg11
S'onResume com.example.myfristandroid.MainActivity@430e5570\n'
p1531
sa(dp1532
g2
S'7785'
p1533
sg4
L1449719574879L
sg5
g6
sg7
S'Activity'
p1534
sg9
S' 7785'
p1535
sg11
S'onStop com.example.myfristandroid.graphWebShow@4310bc10\n'
p1536
sa(dp1537
g2
S'7785'
p1538
sg4
L1449719574879L
sg5
g6
sg7
S'Activity'
p1539
sg9
S' 7785'
p1540
sg11
S'onDestroy com.example.myfristandroid.graphWebShow@4310bc10\n'
p1541
sa(dp1542
g2
S'7785'
p1543
sg4
L1449719575059L
sg5
g37
sg7
S'InputEventReceiver'
p1544
sg9
S' 7785'
p1545
sg11
S'Attempted to finish an input event but the input event receiver has already been disposed.\n'
p1546
sa(dp1547
g2
S'7785'
p1548
sg4
L1449719575059L
sg5
g37
sg7
S'IInputConnectionWrapper'
p1549
sg9
S' 7785'
p1550
sg11
S'performPrivateCommand on inactive InputConnection\n'
p1551
sa(dp1552
g2
S'7785'
p1553
sg4
L1449719576959L
sg5
g6
sg7
S'Activity'
p1554
sg9
S' 7785'
p1555
sg11
S'onPause com.example.myfristandroid.MainActivity@430e5570\n'
p1556
sa(dp1557
g2
S'7785'
p1558
sg4
L1449719576979L
sg5
g6
sg7
S'Activity'
p1559
sg9
S' 7785'
p1560
sg11
S'onCreate com.example.myfristandroid.graphWebShow@424cdcd8: null\n'
p1561
sa(dp1562
g2
S'7785'
p1563
sg4
L1449719576999L
sg5
g15
sg7
S'webcore '
p1564
sg9
S' 7785'
p1565
sg11
S'New send INITIALIZE msg to WebCoreThread\n'
p1566
sa(dp1567
g2
S'7785'
p1568
sg4
L1449719576999L
sg5
g15
sg7
S'webcore '
p1569
sg9
S' 7875'
p1570
sg11
S'initialize, mNativeClass is 1670762256\n'
p1571
sa(dp1572
g2
S'7785'
p1573
sg4
L1449719577019L
sg5
g6
sg7
S'Activity'
p1574
sg9
S' 7785'
p1575
sg11
S'onStart com.example.myfristandroid.graphWebShow@424cdcd8\n'
p1576
sa(dp1577
g2
S'7785'
p1578
sg4
L1449719577019L
sg5
g6
sg7
S'Activity'
p1579
sg9
S' 7785'
p1580
sg11
S'onResume com.example.myfristandroid.graphWebShow@424cdcd8\n'
p1581
sa(dp1582
g2
S'7785'
p1583
sg4
L1449719577059L
sg5
g26
sg7
S'TextToSpeech'
p1584
sg9
S' 7785'
p1585
sg11
S'Sucessfully bound to com.svox.pico\n'
p1586
sa(dp1587
g2
S'7785'
p1588
sg4
L1449719577119L
sg5
g26
sg7
S'TextToSpeech'
p1589
sg9
S' 7785'
p1590
sg11
S'Connected to ComponentInfo{com.svox.pico/com.svox.pico.PicoService}\n'
p1591
sa(dp1592
g2
S'7785'
p1593
sg4
L1449719577139L
sg5
g15
sg7
S'[encoding]'
p1594
sg9
S' 7875'
p1595
sg11
S'detectTextEncoding encoding=UTF-8\n'
p1596
sa(dp1597
g2
S'7785'
p1598
sg4
L1449719577529L
sg5
g6
sg7
S'Activity'
p1599
sg9
S' 7785'
p1600
sg11
S'onStop com.example.myfristandroid.MainActivity@430e5570\n'
p1601
sa(dp1602
g2
S'7785'
p1603
sg4
L1449719577759L
sg5
g15
sg7
S'MainActivity'
p1604
sg9
S' 7875'
p1605
sg11
S'h:774.256,w:1432\n'
p1606
sa(dp1607
g2
S'7785'
p1608
sg4
L1449719577809L
sg5
g6
sg7
S'Activity'
p1609
sg9
S' 7785'
p1610
sg11
S'onConfigurationChanged com.example.myfristandroid.graphWebShow@424cdcd8: {1.15 460mcc3mnc zh_CN sw455dp w303dp h360dp smll land finger -keyb/v/h -nav/h s.414}\n'
p1611
sa(dp1612
g2
S'7812'
p1613
sg4
L1449719594199L
sg5
g15
sg7
S'dalvikvm'
p1614
sg9
S' 7816'
p1615
sg11
S'GC_CONCURRENT freed 389K, 8% free 10610K/11463K, paused 12ms+1ms, total 55ms\n'
p1616
sa(dp1617
g2
S'7785'
p1618
sg4
L1449719600349L
sg5
g15
sg7
S'cn.edu.nju.ise.kikandroid'
p1619
sg9
S' 7844'
p1620
sg11
S'Screenshot:1449719600354\n'
p1621
sa(dp1622
g2
S'7785'
p1623
sg4
L1449719600409L
sg5
g15
sg7
S'dalvikvm'
p1624
sg9
S' 7785'
p1625
sg11
S'GC_FOR_ALLOC freed 2639K, 23% free 20333K/26311K, paused 50ms, total 51ms\n'
p1626
sa(dp1627
g2
S'7785'
p1628
sg4
L1449719600489L
sg5
g15
sg7
S'dalvikvm'
p1629
sg9
S' 7798'
p1630
sg11
S'GC_CONCURRENT freed 43K, 16% free 22316K/26311K, paused 14ms+2ms, total 62ms\n'
p1631
sa(dp1632
g2
S'7785'
p1633
sg4
L1449719600559L
sg5
g15
sg7
S'dalvikvm'
p1634
sg9
S' 7798'
p1635
sg11
S'GC_CONCURRENT freed 2026K, 16% free 22321K/26311K, paused 12ms+5ms, total 50ms\n'
p1636
sa(dp1637
g2
S'7785'
p1638
sg4
L1449719601429L
sg5
g6
sg7
S'AudioManager'
p1639
sg9
S' 7785'
p1640
sg11
S'AudioManager ctor mUseMasterVolume:false\n'
p1641
sa(dp1642
g2
S'7785'
p1643
sg4
L1449719601459L
sg5
g6
sg7
S'Activity'
p1644
sg9
S' 7785'
p1645
sg11
S'onPause com.example.myfristandroid.graphWebShow@424cdcd8\n'
p1646
sa(dp1647
g2
S'7785'
p1648
sg4
L1449719601569L
sg5
g6
sg7
S'Activity'
p1649
sg9
S' 7785'
p1650
sg11
S'onStart com.example.myfristandroid.MainActivity@430e5570\n'
p1651
sa(dp1652
g2
S'7785'
p1653
sg4
L1449719601579L
sg5
g6
sg7
S'Activity'
p1654
sg9
S' 7785'
p1655
sg11
S'onResume com.example.myfristandroid.MainActivity@430e5570\n'
p1656
sa(dp1657
g2
S'7785'
p1658
sg4
L1449719601669L
sg5
g6
sg7
S'Activity'
p1659
sg9
S' 7785'
p1660
sg11
S'onStop com.example.myfristandroid.graphWebShow@424cdcd8\n'
p1661
sa(dp1662
g2
S'7785'
p1663
sg4
L1449719601669L
sg5
g6
sg7
S'Activity'
p1664
sg9
S' 7785'
p1665
sg11
S'onDestroy com.example.myfristandroid.graphWebShow@424cdcd8\n'
p1666
sa(dp1667
g2
S'7785'
p1668
sg4
L1449719601839L
sg5
g37
sg7
S'InputEventReceiver'
p1669
sg9
S' 7785'
p1670
sg11
S'Attempted to finish an input event but the input event receiver has already been disposed.\n'
p1671
sa(dp1672
g2
S'7785'
p1673
sg4
L1449719601839L
sg5
g37
sg7
S'IInputConnectionWrapper'
p1674
sg9
S' 7785'
p1675
sg11
S'performPrivateCommand on inactive InputConnection\n'
p1676
sa(dp1677
g2
S'7785'
p1678
sg4
L1449719601849L
sg5
g37
sg7
S'IInputConnectionWrapper'
p1679
sg9
S' 7785'
p1680
sg11
S'performPrivateCommand on inactive InputConnection\n'
p1681
sa(dp1682
g2
S'7785'
p1683
sg4
L1449719602989L
sg5
g6
sg7
S'Activity'
p1684
sg9
S' 7785'
p1685
sg11
S'onPause com.example.myfristandroid.MainActivity@430e5570\n'
p1686
sa(dp1687
g2
S'7785'
p1688
sg4
L1449719603019L
sg5
g6
sg7
S'Activity'
p1689
sg9
S' 7785'
p1690
sg11
S'onCreate com.example.myfristandroid.graphWebShow@4323fb18: null\n'
p1691
sa(dp1692
g2
S'7785'
p1693
sg4
L1449719603059L
sg5
g15
sg7
S'webcore '
p1694
sg9
S' 7785'
p1695
sg11
S'New send INITIALIZE msg to WebCoreThread\n'
p1696
sa(dp1697
g2
S'7785'
p1698
sg4
L1449719603059L
sg5
g15
sg7
S'webcore '
p1699
sg9
S' 7875'
p1700
sg11
S'initialize, mNativeClass is 1558867496\n'
p1701
sa(dp1702
g2
S'7785'
p1703
sg4
L1449719603069L
sg5
g6
sg7
S'Activity'
p1704
sg9
S' 7785'
p1705
sg11
S'onStart com.example.myfristandroid.graphWebShow@4323fb18\n'
p1706
sa(dp1707
g2
S'7785'
p1708
sg4
L1449719603069L
sg5
g6
sg7
S'Activity'
p1709
sg9
S' 7785'
p1710
sg11
S'onResume com.example.myfristandroid.graphWebShow@4323fb18\n'
p1711
sa(dp1712
g2
S'7785'
p1713
sg4
L1449719603099L
sg5
g26
sg7
S'TextToSpeech'
p1714
sg9
S' 7785'
p1715
sg11
S'Sucessfully bound to com.svox.pico\n'
p1716
sa(dp1717
g2
S'7785'
p1718
sg4
L1449719603149L
sg5
g15
sg7
S'[encoding]'
p1719
sg9
S' 7875'
p1720
sg11
S'detectTextEncoding encoding=UTF-8\n'
p1721
sa(dp1722
g2
S'7785'
p1723
sg4
L1449719603159L
sg5
g26
sg7
S'TextToSpeech'
p1724
sg9
S' 7785'
p1725
sg11
S'Connected to ComponentInfo{com.svox.pico/com.svox.pico.PicoService}\n'
p1726
sa(dp1727
g2
S'7785'
p1728
sg4
L1449719603519L
sg5
g6
sg7
S'Activity'
p1729
sg9
S' 7785'
p1730
sg11
S'onStop com.example.myfristandroid.MainActivity@430e5570\n'
p1731
sa(dp1732
g2
S'7785'
p1733
sg4
L1449719603789L
sg5
g15
sg7
S'MainActivity'
p1734
sg9
S' 7875'
p1735
sg11
S'h:710.915,w:1183.07\n'
p1736
sa(dp1737
g2
S'7785'
p1738
sg4
L1449719603839L
sg5
g6
sg7
S'Activity'
p1739
sg9
S' 7785'
p1740
sg11
S'onConfigurationChanged com.example.myfristandroid.graphWebShow@4323fb18: {1.15 460mcc3mnc zh_CN sw455dp w303dp h360dp smll land finger -keyb/v/h -nav/h s.417}\n'
p1741
sa(dp1742
g2
S'7785'
p1743
sg4
L1449719606749L
sg5
g15
sg7
S'cn.edu.nju.ise.kikandroid'
p1744
sg9
S' 7844'
p1745
sg11
S'Screenshot:1449719606758\n'
p1746
sa(dp1747
g2
S'7785'
p1748
sg4
L1449719606799L
sg5
g15
sg7
S'dalvikvm'
p1749
sg9
S' 7785'
p1750
sg11
S'GC_FOR_ALLOC freed 2160K, 23% free 20339K/26311K, paused 28ms, total 29ms\n'
p1751
sa(dp1752
g2
S'7785'
p1753
sg4
L1449719606859L
sg5
g15
sg7
S'dalvikvm'
p1754
sg9
S' 7798'
p1755
sg11
S'GC_CONCURRENT freed 9K, 16% free 22355K/26311K, paused 13ms+7ms, total 48ms\n'
p1756
sa(dp1757
g2
S'7785'
p1758
sg4
L1449719606919L
sg5
g15
sg7
S'dalvikvm'
p1759
sg9
S' 7798'
p1760
sg11
S'GC_CONCURRENT freed 2026K, 16% free 22359K/26311K, paused 7ms+3ms, total 40ms\n'
p1761
sa(dp1762
g2
S'7812'
p1763
sg4
L1449719613189L
sg5
g15
sg7
S'ForegroundActivity'
p1764
sg9
S' 7831'
p1765
sg11
S'\xe6\x9c\xac\xe6\xac\xa1\xe5\x8f\x91\xe9\x80\x81\xe5\xb8\xa7\xe9\x95\xbf:13\t\xe6\x80\xbb\xe5\xb8\xa7\xe9\x95\xbf:121\n'
p1766
sa(dp1767
g2
S'7812'
p1768
sg4
L1449719613349L
sg5
g15
sg7
S'ForegroundActivity'
p1769
sg9
S' 7836'
p1770
sg11
S'\xe6\x9c\xac\xe6\xac\xa1\xe6\x94\xb6\xe5\x88\xb0\xe5\xb8\xa7\xe9\x95\xbf:13\t\xe6\x80\xbb\xe5\xb8\xa7\xe9\x95\xbf:787\n'
p1771
sa(dp1772
g2
S'7812'
p1773
sg4
L1449719613499L
sg5
g15
sg7
S'SocketService1'
p1774
sg9
S' 7833'
p1775
sg11
S'\xe6\x9c\xac\xe6\xac\xa1\xe6\x8f\x90\xe5\x8f\x961:LoadPtr:787 HeadIndex:774 GetSize:13 13 0 \xe5\xa4\xb4\xe4\xbf\xa1\xe6\x81\xaf:EB 90 EB 90 EB 90 0D 00 10 01 \n'
p1776
sa(dp1777
g2
S'7812'
p1778
sg4
L1449719624819L
sg5
g15
sg7
S'dalvikvm'
p1779
sg9
S' 7816'
p1780
sg11
S'GC_CONCURRENT freed 389K, 8% free 10610K/11463K, paused 18ms+1ms, total 63ms\n'
p1781
sa(dp1782
g2
S'7785'
p1783
sg4
L1449719628339L
sg5
g15
sg7
S'cn.edu.nju.ise.kikandroid'
p1784
sg9
S' 7844'
p1785
sg11
S'Screenshot:1449719628343\n'
p1786
sa(dp1787
g2
S'7785'
p1788
sg4
L1449719628379L
sg5
g15
sg7
S'dalvikvm'
p1789
sg9
S' 7785'
p1790
sg11
S'GC_FOR_ALLOC freed 2094K, 23% free 20330K/26311K, paused 25ms, total 25ms\n'
p1791
sa(dp1792
g2
S'7785'
p1793
sg4
L1449719628449L
sg5
g15
sg7
S'dalvikvm'
p1794
sg9
S' 7798'
p1795
sg11
S'GC_CONCURRENT freed <1K, 16% free 22354K/26311K, paused 13ms+17ms, total 60ms\n'
p1796
sa(dp1797
g2
S'7785'
p1798
sg4
L1449719628529L
sg5
g15
sg7
S'dalvikvm'
p1799
sg9
S' 7798'
p1800
sg11
S'GC_CONCURRENT freed 2026K, 16% free 22359K/26311K, paused 6ms+13ms, total 57ms\n'
p1801
sa(dp1802
g2
S'7785'
p1803
sg4
L1449719629909L
sg5
g15
sg7
S'cn.edu.nju.ise.kikandroid'
p1804
sg9
S' 7844'
p1805
sg11
S'Screenshot:1449719629912\n'
p1806
sa(dp1807
g2
S'7785'
p1808
sg4
L1449719629949L
sg5
g15
sg7
S'dalvikvm'
p1809
sg9
S' 7785'
p1810
sg11
S'GC_FOR_ALLOC freed 2087K, 23% free 20330K/26311K, paused 23ms, total 23ms\n'
p1811
sa(dp1812
g2
S'7785'
p1813
sg4
L1449719629989L
sg5
g15
sg7
S'dalvikvm'
p1814
sg9
S' 7798'
p1815
sg11
S'GC_CONCURRENT freed <1K, 16% free 22354K/26311K, paused 6ms+5ms, total 38ms\n'
p1816
sa(dp1817
g2
S'7785'
p1818
sg4
L1449719630029L
sg5
g15
sg7
S'dalvikvm'
p1819
sg9
S' 7798'
p1820
sg11
S'GC_CONCURRENT freed 2026K, 16% free 22359K/26311K, paused 3ms+4ms, total 25ms\n'
p1821
sa(dp1822
g2
S'7785'
p1823
sg4
L1449719631029L
sg5
g15
sg7
S'cn.edu.nju.ise.kikandroid'
p1824
sg9
S' 7844'
p1825
sg11
S'Log:1449719631036\n'
p1826
sa(dp1827
g2
S'7785'
p1828
sg4
L1449719631869L
sg5
g15
sg7
S'cn.edu.nju.ise.kikandroid'
p1829
sg9
S' 7844'
p1830
sg11
S'Log:1449719631874\n'
p1831
sa(dp1832
g2
S'7785'
p1833
sg4
L1449719633439L
sg5
g15
sg7
S'cn.edu.nju.ise.kikandroid'
p1834
sg9
S' 7844'
p1835
sg11
S'Log:1449719633450\n'
p1836
sa(dp1837
g2
S'7785'
p1838
sg4
L1449719636379L
sg5
g6
sg7
S'AudioManager'
p1839
sg9
S' 7785'
p1840
sg11
S'AudioManager ctor mUseMasterVolume:false\n'
p1841
sa(dp1842
g2
S'7785'
p1843
sg4
L1449719636419L
sg5
g6
sg7
S'Activity'
p1844
sg9
S' 7785'
p1845
sg11
S'onPause com.example.myfristandroid.graphWebShow@4323fb18\n'
p1846
sa(dp1847
g2
S'7785'
p1848
sg4
L1449719636549L
sg5
g6
sg7
S'Activity'
p1849
sg9
S' 7785'
p1850
sg11
S'onStart com.example.myfristandroid.MainActivity@430e5570\n'
p1851
sa(dp1852
g2
S'7785'
p1853
sg4
L1449719636549L
sg5
g6
sg7
S'Activity'
p1854
sg9
S' 7785'
p1855
sg11
S'onResume com.example.myfristandroid.MainActivity@430e5570\n'
p1856
sa(dp1857
g2
S'7785'
p1858
sg4
L1449719636659L
sg5
g6
sg7
S'Activity'
p1859
sg9
S' 7785'
p1860
sg11
S'onStop com.example.myfristandroid.graphWebShow@4323fb18\n'
p1861
sa(dp1862
g2
S'7785'
p1863
sg4
L1449719636669L
sg5
g6
sg7
S'Activity'
p1864
sg9
S' 7785'
p1865
sg11
S'onDestroy com.example.myfristandroid.graphWebShow@4323fb18\n'
p1866
sa(dp1867
g2
S'7785'
p1868
sg4
L1449719636799L
sg5
g37
sg7
S'InputEventReceiver'
p1869
sg9
S' 7785'
p1870
sg11
S'Attempted to finish an input event but the input event receiver has already been disposed.\n'
p1871
sa(dp1872
g2
S'7785'
p1873
sg4
L1449719636799L
sg5
g37
sg7
S'IInputConnectionWrapper'
p1874
sg9
S' 7785'
p1875
sg11
S'performPrivateCommand on inactive InputConnection\n'
p1876
sa(dp1877
g2
S'7785'
p1878
sg4
L1449719640299L
sg5
g6
sg7
S'Activity'
p1879
sg9
S' 7785'
p1880
sg11
S'onPause com.example.myfristandroid.MainActivity@430e5570\n'
p1881
sa(dp1882
g2
S'7785'
p1883
sg4
L1449719640319L
sg5
g6
sg7
S'Activity'
p1884
sg9
S' 7785'
p1885
sg11
S'onCreate com.example.myfristandroid.graphWebShow@43155450: null\n'
p1886
sa(dp1887
g2
S'7785'
p1888
sg4
L1449719640329L
sg5
g15
sg7
S'webcore '
p1889
sg9
S' 7785'
p1890
sg11
S'New send INITIALIZE msg to WebCoreThread\n'
p1891
sa(dp1892
g2
S'7785'
p1893
sg4
L1449719640329L
sg5
g15
sg7
S'webcore '
p1894
sg9
S' 7875'
p1895
sg11
S'initialize, mNativeClass is 1675788992\n'
p1896
sa(dp1897
g2
S'7785'
p1898
sg4
L1449719640349L
sg5
g6
sg7
S'Activity'
p1899
sg9
S' 7785'
p1900
sg11
S'onStart com.example.myfristandroid.graphWebShow@43155450\n'
p1901
sa(dp1902
g2
S'7785'
p1903
sg4
L1449719640349L
sg5
g6
sg7
S'Activity'
p1904
sg9
S' 7785'
p1905
sg11
S'onResume com.example.myfristandroid.graphWebShow@43155450\n'
p1906
sa(dp1907
g2
S'7785'
p1908
sg4
L1449719640369L
sg5
g26
sg7
S'TextToSpeech'
p1909
sg9
S' 7785'
p1910
sg11
S'Sucessfully bound to com.svox.pico\n'
p1911
sa(dp1912
g2
S'7785'
p1913
sg4
L1449719640409L
sg5
g15
sg7
S'[encoding]'
p1914
sg9
S' 7875'
p1915
sg11
S'detectTextEncoding encoding=UTF-8\n'
p1916
sa(dp1917
g2
S'7785'
p1918
sg4
L1449719640439L
sg5
g26
sg7
S'TextToSpeech'
p1919
sg9
S' 7785'
p1920
sg11
S'Connected to ComponentInfo{com.svox.pico/com.svox.pico.PicoService}\n'
p1921
sa(dp1922
g2
S'7785'
p1923
sg4
L1449719640769L
sg5
g6
sg7
S'Activity'
p1924
sg9
S' 7785'
p1925
sg11
S'onStop com.example.myfristandroid.MainActivity@430e5570\n'
p1926
sa(dp1927
g2
S'7785'
p1928
sg4
L1449719641019L
sg5
g15
sg7
S'MainActivity'
p1929
sg9
S' 7875'
p1930
sg11
S'h:910.5,w:1687.5\n'
p1931
sa(dp1932
g2
S'7785'
p1933
sg4
L1449719641069L
sg5
g6
sg7
S'Activity'
p1934
sg9
S' 7785'
p1935
sg11
S'onConfigurationChanged com.example.myfristandroid.graphWebShow@43155450: {1.15 460mcc3mnc zh_CN sw455dp w303dp h360dp smll land finger -keyb/v/h -nav/h s.420}\n'
p1936
sa(dp1937
g2
S'7785'
p1938
sg4
L1449719643439L
sg5
g15
sg7
S'cn.edu.nju.ise.kikandroid'
p1939
sg9
S' 7844'
p1940
sg11
S'Screenshot:1449719643448\n'
p1941
sa(dp1942
g2
S'7785'
p1943
sg4
L1449719643499L
sg5
g15
sg7
S'dalvikvm'
p1944
sg9
S' 7785'
p1945
sg11
S'GC_FOR_ALLOC freed 2333K, 23% free 20381K/26311K, paused 39ms, total 39ms\n'
p1946
sa(dp1947
g2
S'7785'
p1948
sg4
L1449719643559L
sg5
g15
sg7
S'dalvikvm'
p1949
sg9
S' 7798'
p1950
sg11
S'GC_CONCURRENT freed 8K, 15% free 22398K/26311K, paused 12ms+3ms, total 40ms\n'
p1951
sa(dp1952
g2
S'7785'
p1953
sg4
L1449719643619L
sg5
g15
sg7
S'dalvikvm'
p1954
sg9
S' 7798'
p1955
sg11
S'GC_CONCURRENT freed 2026K, 15% free 22403K/26311K, paused 7ms+14ms, total 39ms\n'
p1956
sa(dp1957
g2
S'7785'
p1958
sg4
L1449719644879L
sg5
g15
sg7
S'cn.edu.nju.ise.kikandroid'
p1959
sg9
S' 7844'
p1960
sg11
S'Log:1449719644888\n'
p1961
sa(dp1962
g2
S'7785'
p1963
sg4
L1449719645879L
sg5
g15
sg7
S'cn.edu.nju.ise.kikandroid'
p1964
sg9
S' 7844'
p1965
sg11
S'Log:1449719645885\n'
p1966
sa(dp1967
g2
S'7785'
p1968
sg4
L1449719647469L
sg5
g15
sg7
S'cn.edu.nju.ise.kikandroid'
p1969
sg9
S' 7844'
p1970
sg11
S'Log:1449719647474\n'
p1971
sa(dp1972
g2
S'7812'
p1973
sg4
L1449719653189L
sg5
g15
sg7
S'ForegroundActivity'
p1974
sg9
S' 7831'
p1975
sg11
S'\xe6\x9c\xac\xe6\xac\xa1\xe5\x8f\x91\xe9\x80\x81\xe5\xb8\xa7\xe9\x95\xbf:13\t\xe6\x80\xbb\xe5\xb8\xa7\xe9\x95\xbf:134\n'
p1976
sa(dp1977
g2
S'7812'
p1978
sg4
L1449719653389L
sg5
g15
sg7
S'ForegroundActivity'
p1979
sg9
S' 7836'
p1980
sg11
S'\xe6\x9c\xac\xe6\xac\xa1\xe6\x94\xb6\xe5\x88\xb0\xe5\xb8\xa7\xe9\x95\xbf:13\t\xe6\x80\xbb\xe5\xb8\xa7\xe9\x95\xbf:800\n'
p1981
sa(dp1982
g2
S'7812'
p1983
sg4
L1449719653559L
sg5
g15
sg7
S'SocketService1'
p1984
sg9
S' 7833'
p1985
sg11
S'\xe6\x9c\xac\xe6\xac\xa1\xe6\x8f\x90\xe5\x8f\x961:LoadPtr:800 HeadIndex:787 GetSize:13 13 0 \xe5\xa4\xb4\xe4\xbf\xa1\xe6\x81\xaf:EB 90 EB 90 EB 90 0D 00 10 01 \n'
p1986
sa(dp1987
g2
S'7785'
p1988
sg4
L1449719655099L
sg5
g6
sg7
S'AudioManager'
p1989
sg9
S' 7785'
p1990
sg11
S'AudioManager ctor mUseMasterVolume:false\n'
p1991
sa(dp1992
g2
S'7785'
p1993
sg4
L1449719655139L
sg5
g6
sg7
S'Activity'
p1994
sg9
S' 7785'
p1995
sg11
S'onPause com.example.myfristandroid.graphWebShow@43155450\n'
p1996
sa(dp1997
g2
S'7785'
p1998
sg4
L1449719655249L
sg5
g6
sg7
S'Activity'
p1999
sg9
S' 7785'
p2000
sg11
S'onStart com.example.myfristandroid.MainActivity@430e5570\n'
p2001
sa(dp2002
g2
S'7785'
p2003
sg4
L1449719655249L
sg5
g6
sg7
S'Activity'
p2004
sg9
S' 7785'
p2005
sg11
S'onResume com.example.myfristandroid.MainActivity@430e5570\n'
p2006
sa(dp2007
g2
S'7785'
p2008
sg4
L1449719655359L
sg5
g6
sg7
S'Activity'
p2009
sg9
S' 7785'
p2010
sg11
S'onStop com.example.myfristandroid.graphWebShow@43155450\n'
p2011
sa(dp2012
g2
S'7785'
p2013
sg4
L1449719655359L
sg5
g6
sg7
S'Activity'
p2014
sg9
S' 7785'
p2015
sg11
S'onDestroy com.example.myfristandroid.graphWebShow@43155450\n'
p2016
sa(dp2017
g2
S'7812'
p2018
sg4
L1449719655389L
sg5
g15
sg7
S'dalvikvm'
p2019
sg9
S' 7816'
p2020
sg11
S'GC_CONCURRENT freed 389K, 8% free 10610K/11463K, paused 22ms+3ms, total 52ms\n'
p2021
sa(dp2022
g2
S'7785'
p2023
sg4
L1449719655509L
sg5
g37
sg7
S'InputEventReceiver'
p2024
sg9
S' 7785'
p2025
sg11
S'Attempted to finish an input event but the input event receiver has already been disposed.\n'
p2026
sa(dp2027
g2
S'7785'
p2028
sg4
L1449719655509L
sg5
g37
sg7
S'IInputConnectionWrapper'
p2029
sg9
S' 7785'
p2030
sg11
S'performPrivateCommand on inactive InputConnection\n'
p2031
sa(dp2032
g2
S'7785'
p2033
sg4
L1449719661419L
sg5
g15
sg7
S'cn.edu.nju.ise.kikandroid'
p2034
sg9
S' 7844'
p2035
sg11
S'Screenshot:1449719661423\n'
p2036
sa(dp2037
g2
S'7785'
p2038
sg4
L1449719661489L
sg5
g15
sg7
S'dalvikvm'
p2039
sg9
S' 7785'
p2040
sg11
S'GC_FOR_ALLOC freed 2320K, 23% free 20369K/26311K, paused 23ms, total 23ms\n'
p2041
sa(dp2042
g2
S'7785'
p2043
sg4
L1449719661529L
sg5
g15
sg7
S'dalvikvm'
p2044
sg9
S' 7798'
p2045
sg11
S'GC_CONCURRENT freed 10K, 15% free 22386K/26311K, paused 2ms+4ms, total 34ms\n'
p2046
sa(dp2047
g2
S'7785'
p2048
sg4
L1449719661599L
sg5
g15
sg7
S'dalvikvm'
p2049
sg9
S' 7798'
p2050
sg11
S'GC_CONCURRENT freed 2027K, 15% free 22390K/26311K, paused 4ms+3ms, total 30ms\n'
p2051
sa(dp2052
g2
S'7785'
p2053
sg4
L1449719662449L
sg5
g6
sg7
S'Activity'
p2054
sg9
S' 7785'
p2055
sg11
S'onPause com.example.myfristandroid.MainActivity@430e5570\n'
p2056
sa(dp2057
g2
S'7785'
p2058
sg4
L1449719662469L
sg5
g6
sg7
S'Activity'
p2059
sg9
S' 7785'
p2060
sg11
S'onCreate com.example.myfristandroid.graphWebShow@4323f628: null\n'
p2061
sa(dp2062
g2
S'7785'
p2063
sg4
L1449719662489L
sg5
g15
sg7
S'webcore '
p2064
sg9
S' 7785'
p2065
sg11
S'New send INITIALIZE msg to WebCoreThread\n'
p2066
sa(dp2067
g2
S'7785'
p2068
sg4
L1449719662489L
sg5
g15
sg7
S'webcore '
p2069
sg9
S' 7875'
p2070
sg11
S'initialize, mNativeClass is 1560263168\n'
p2071
sa(dp2072
g2
S'7785'
p2073
sg4
L1449719662499L
sg5
g6
sg7
S'Activity'
p2074
sg9
S' 7785'
p2075
sg11
S'onStart com.example.myfristandroid.graphWebShow@4323f628\n'
p2076
sa(dp2077
g2
S'7785'
p2078
sg4
L1449719662499L
sg5
g6
sg7
S'Activity'
p2079
sg9
S' 7785'
p2080
sg11
S'onResume com.example.myfristandroid.graphWebShow@4323f628\n'
p2081
sa(dp2082
g2
S'7785'
p2083
sg4
L1449719662529L
sg5
g26
sg7
S'TextToSpeech'
p2084
sg9
S' 7785'
p2085
sg11
S'Sucessfully bound to com.svox.pico\n'
p2086
sa(dp2087
g2
S'7785'
p2088
sg4
L1449719662599L
sg5
g26
sg7
S'TextToSpeech'
p2089
sg9
S' 7785'
p2090
sg11
S'Connected to ComponentInfo{com.svox.pico/com.svox.pico.PicoService}\n'
p2091
sa(dp2092
g2
S'7785'
p2093
sg4
L1449719662939L
sg5
g6
sg7
S'Activity'
p2094
sg9
S' 7785'
p2095
sg11
S'onStop com.example.myfristandroid.MainActivity@430e5570\n'
p2096
sa(dp2097
g2
S'7785'
p2098
sg4
L1449719663509L
sg5
g88
sg7
S'Web Console'
p2099
sg9
S' 7785'
p2100
sg11
S"Uncaught TypeError: Object com.example.myfristandroid.graphWebShow$DemoJavaScriptInterface@42524f18 has no method 'startWait' at http://oa.paneng.cn:1143/se9200/realdata/js/realdata.js:80\n"
p2101
sa(dp2102
g2
S'7785'
p2103
sg4
L1449719665699L
sg5
g15
sg7
S'cn.edu.nju.ise.kikandroid'
p2104
sg9
S' 7844'
p2105
sg11
S'Screenshot:1449719665703\n'
p2106
sa(dp2107
g2
S'7785'
p2108
sg4
L1449719665739L
sg5
g15
sg7
S'dalvikvm'
p2109
sg9
S' 7785'
p2110
sg11
S'GC_FOR_ALLOC freed 2126K, 23% free 20410K/26311K, paused 28ms, total 28ms\n'
p2111
sa(dp2112
g2
S'7785'
p2113
sg4
L1449719665789L
sg5
g15
sg7
S'dalvikvm'
p2114
sg9
S' 7798'
p2115
sg11
S'GC_CONCURRENT freed 2K, 15% free 22433K/26311K, paused 13ms+5ms, total 46ms\n'
p2116
sa(dp2117
g2
S'7785'
p2118
sg4
L1449719665849L
sg5
g15
sg7
S'dalvikvm'
p2119
sg9
S' 7798'
p2120
sg11
S'GC_CONCURRENT freed 2026K, 15% free 22438K/26311K, paused 14ms+5ms, total 46ms\n'
p2121
sa(dp2122
g2
S'7785'
p2123
sg4
L1449719667519L
sg5
g15
sg7
S'cn.edu.nju.ise.kikandroid'
p2124
sg9
S' 7844'
p2125
sg11
S'Log:1449719667529\n'
p2126
sa(dp2127
g2
S'7785'
p2128
sg4
L1449719668819L
sg5
g15
sg7
S'cn.edu.nju.ise.kikandroid'
p2129
sg9
S' 7844'
p2130
sg11
S'Log:1449719668825\n'
p2131
sa(dp2132
g2
S'7785'
p2133
sg4
L1449719673539L
sg5
g6
sg7
S'AudioManager'
p2134
sg9
S' 7785'
p2135
sg11
S'AudioManager ctor mUseMasterVolume:false\n'
p2136
sa(dp2137
g2
S'7785'
p2138
sg4
L1449719673589L
sg5
g6
sg7
S'Activity'
p2139
sg9
S' 7785'
p2140
sg11
S'onPause com.example.myfristandroid.graphWebShow@4323f628\n'
p2141
sa(dp2142
g2
S'7785'
p2143
sg4
L1449719673619L
sg5
g6
sg7
S'Activity'
p2144
sg9
S' 7785'
p2145
sg11
S'onStart com.example.myfristandroid.MainActivity@430e5570\n'
p2146
sa(dp2147
g2
S'7785'
p2148
sg4
L1449719673619L
sg5
g6
sg7
S'Activity'
p2149
sg9
S' 7785'
p2150
sg11
S'onResume com.example.myfristandroid.MainActivity@430e5570\n'
p2151
sa(dp2152
g2
S'7785'
p2153
sg4
L1449719673669L
sg5
g37
sg7
S'IInputConnectionWrapper'
p2154
sg9
S' 7785'
p2155
sg11
S'performPrivateCommand on inactive InputConnection\n'
p2156
sa(dp2157
g2
S'7785'
p2158
sg4
L1449719674009L
sg5
g6
sg7
S'Activity'
p2159
sg9
S' 7785'
p2160
sg11
S'onStop com.example.myfristandroid.graphWebShow@4323f628\n'
p2161
sa(dp2162
g2
S'7785'
p2163
sg4
L1449719674019L
sg5
g6
sg7
S'Activity'
p2164
sg9
S' 7785'
p2165
sg11
S'onDestroy com.example.myfristandroid.graphWebShow@4323f628\n'
p2166
sa(dp2167
g2
S'7785'
p2168
sg4
L1449719676749L
sg5
g15
sg7
S'MainActivity'
p2169
sg9
S' 7785'
p2170
sg11
S'V.getTag:null v.id:2131230736\n'
p2171
sa(dp2172
g2
S'7785'
p2173
sg4
L1449719677459L
sg5
g15
sg7
S'MainActivity'
p2174
sg9
S' 7785'
p2175
sg11
S'V.getTag:null v.id:2131230734\n'
p2176
sa(dp2177
g2
S'7785'
p2178
sg4
L1449719677479L
sg5
g37
sg7
S'IInputConnectionWrapper'
p2179
sg9
S' 7785'
p2180
sg11
S'performPrivateCommand on inactive InputConnection\n'
p2181
sa(dp2182
g2
S'7785'
p2183
sg4
L1449719679499L
sg5
g15
sg7
S'cn.edu.nju.ise.kikandroid'
p2184
sg9
S' 7844'
p2185
sg11
S'Log:1449719679502\n'
p2186
sa(dp2187
g2
S'7785'
p2188
sg4
L1449719679559L
sg5
g15
sg7
S'cn.edu.nju.ise.kikandroid'
p2189
sg9
S' 7844'
p2190
sg11
S'Screenshot:1449719679567\n'
p2191
sa(dp2192
g2
S'7785'
p2193
sg4
L1449719679609L
sg5
g15
sg7
S'dalvikvm'
p2194
sg9
S' 7785'
p2195
sg11
S'GC_FOR_ALLOC freed 2367K, 23% free 20412K/26311K, paused 20ms, total 20ms\n'
p2196
sa(dp2197
g2
S'7785'
p2198
sg4
L1449719679649L
sg5
g15
sg7
S'dalvikvm'
p2199
sg9
S' 7798'
p2200
sg11
S'GC_CONCURRENT freed 10K, 15% free 22428K/26311K, paused 2ms+13ms, total 35ms\n'
p2201
sa(dp2202
g2
S'7785'
p2203
sg4
L1449719679699L
sg5
g15
sg7
S'dalvikvm'
p2204
sg9
S' 7798'
p2205
sg11
S'GC_CONCURRENT freed 2027K, 15% free 22432K/26311K, paused 3ms+4ms, total 32ms\n'
p2206
sa(dp2207
g2
S'7785'
p2208
sg4
L1449719679789L
sg5
g37
sg7
S'dalvikvm'
p2209
sg9
S' 7844'
p2210
sg11
S'threadid=14: thread exiting with uncaught exception (group=0x41b16588)\n'
p2211
sa(dp2212
g2
S'7785'
p2213
sg4
L1449719679789L
sg5
g88
sg7
S'AndroidRuntime'
p2214
sg9
S' 7844'
p2215
sg11
S'FATAL EXCEPTION: Thread-657\njava.lang.NullPointerException\n\tat android.app.Instrumentation.finish(Instrumentation.java:191)\n\tat cn.edu.nju.ise.kikandroid.AUTInstrument.quitInstr(AUTInstrument.java:195)\n\tat cn.edu.nju.ise.kikandroid.AUTInstrument.startServer(AUTInstrument.java:161)\n\tat cn.edu.nju.ise.kikandroid.AUTInstrument$1.run(AUTInstrument.java:107)\n\tat java.lang.Thread.run(Thread.java:856)\n'
p2216
sa.