(lp0
(dp1
S'EventTime'
p2
S'9351841'
p3
sS'SyscTime'
p4
L1449904682233L
sS'recordCount'
p5
S'0'
p6
sS'EventType'
p7
S'TYPE_WINDOW_STATE_CHANGED'
p8
sS'PackageName'
p9
S'com.taobao.ishopping'
p10
sS'OutBounds'
p11
S'Rect(0, 0 - 1080, 1920)'
p12
sS'Action'
p13
S'[ ClassName: com.taobao.ishopping.activity.SplashActivity; Text: [\xe7\x88\xb1\xe9\x80\x9b\xe8\xa1\x97]; ContentDescription: null; ItemCount: -1; CurrentItemIndex: -1; IsEnabled: true; IsPassword: false; IsChecked: false; IsFullScreen: true; Scrollable: false; BeforeText: null; FromIndex: -1; ToIndex: -1; ScrollX: -1; ScrollY: -1; MaxScrollX: -1; MaxScrollY: -1; AddedCount: -1; RemovedCount: -1; ParcelableData: null ]'
p14
sS'MovementGranularity'
p15
g6
sa(dp16
S'EventTime'
p17
S'9351927'
p18
sg4
L1449904682308L
sS'recordCount'
p19
g6
sS'EventType'
p20
S'TYPE_WINDOW_CONTENT_CHANGED'
p21
sS'PackageName'
p22
S'com.taobao.ishopping'
p23
sS'OutBounds'
p24
S'Rect(0, 0 - 1080, 1920)'
p25
sS'Action'
p26
S'[ ClassName: android.widget.FrameLayout; Text: []; ContentDescription: null; ItemCount: -1; CurrentItemIndex: -1; IsEnabled: true; IsPassword: false; IsChecked: false; IsFullScreen: false; Scrollable: false; BeforeText: null; FromIndex: -1; ToIndex: -1; ScrollX: -1; ScrollY: -1; MaxScrollX: -1; MaxScrollY: -1; AddedCount: -1; RemovedCount: -1; ParcelableData: null ]'
p27
sS'MovementGranularity'
p28
g6
sa(dp29
S'EventTime'
p30
S'9353679'
p31
sg4
L1449904684067L
sS'recordCount'
p32
g6
sS'EventType'
p33
S'TYPE_WINDOW_CONTENT_CHANGED'
p34
sS'PackageName'
p35
S'com.taobao.ishopping'
p36
sS'OutBounds'
p37
S'Rect(205, 1662 - 875, 1728)'
p38
sS'Action'
p39
S'[ ClassName: android.widget.TextView; Text: []; ContentDescription: null; ItemCount: -1; CurrentItemIndex: -1; IsEnabled: true; IsPassword: false; IsChecked: false; IsFullScreen: false; Scrollable: false; BeforeText: null; FromIndex: -1; ToIndex: -1; ScrollX: -1; ScrollY: -1; MaxScrollX: -1; MaxScrollY: -1; AddedCount: -1; RemovedCount: -1; ParcelableData: null ]'
p40
sS'MovementGranularity'
p41
g6
sa(dp42
S'EventTime'
p43
S'9353787'
p44
sg4
L1449904684182L
sS'recordCount'
p45
g6
sS'EventType'
p46
S'TYPE_WINDOW_CONTENT_CHANGED'
p47
sS'PackageName'
p48
S'com.taobao.ishopping'
p49
sS'OutBounds'
p50
S'Rect(205, 1728 - 875, 1802)'
p51
sS'Action'
p52
S'[ ClassName: android.widget.TextView; Text: []; ContentDescription: null; ItemCount: -1; CurrentItemIndex: -1; IsEnabled: true; IsPassword: false; IsChecked: false; IsFullScreen: false; Scrollable: false; BeforeText: null; FromIndex: -1; ToIndex: -1; ScrollX: -1; ScrollY: -1; MaxScrollX: -1; MaxScrollY: -1; AddedCount: -1; RemovedCount: -1; ParcelableData: null ]'
p53
sS'MovementGranularity'
p54
g6
sa(dp55
S'EventTime'
p56
S'9353968'
p57
sg4
L1449904684368L
sS'recordCount'
p58
g6
sS'EventType'
p59
S'TYPE_WINDOW_CONTENT_CHANGED'
p60
sS'PackageName'
p61
S'com.taobao.ishopping'
p62
sS'OutBounds'
p63
S'Rect(205, 1728 - 875, 1802)'
p64
sS'Action'
p65
S'[ ClassName: android.widget.TextView; Text: []; ContentDescription: null; ItemCount: -1; CurrentItemIndex: -1; IsEnabled: true; IsPassword: false; IsChecked: false; IsFullScreen: false; Scrollable: false; BeforeText: null; FromIndex: -1; ToIndex: -1; ScrollX: -1; ScrollY: -1; MaxScrollX: -1; MaxScrollY: -1; AddedCount: -1; RemovedCount: -1; ParcelableData: null ]'
p66
sS'MovementGranularity'
p67
g6
sa(dp68
S'EventTime'
p69
S'9358889'
p70
sg4
L1449904689338L
sS'recordCount'
p71
g6
sS'EventType'
p72
S'TYPE_WINDOW_STATE_CHANGED'
p73
sS'PackageName'
p74
S'com.taobao.ishopping'
p75
sS'OutBounds'
p76
S'Rect(0, 0 - 1080, 1920)'
p77
sS'Action'
p78
S'[ ClassName: com.taobao.ishopping.activity.home.MainActivity; Text: [\xe7\x88\xb1\xe9\x80\x9b\xe8\xa1\x97]; ContentDescription: null; ItemCount: -1; CurrentItemIndex: -1; IsEnabled: true; IsPassword: false; IsChecked: false; IsFullScreen: true; Scrollable: false; BeforeText: null; FromIndex: -1; ToIndex: -1; ScrollX: -1; ScrollY: -1; MaxScrollX: -1; MaxScrollY: -1; AddedCount: -1; RemovedCount: -1; ParcelableData: null ]'
p79
sS'MovementGranularity'
p80
g6
sa(dp81
S'EventTime'
p82
S'9358971'
p83
sg4
L1449904689468L
sS'recordCount'
p84
g6
sS'EventType'
p85
S'TYPE_VIEW_SCROLLED'
p86
sS'PackageName'
p87
S'com.taobao.ishopping'
p88
sS'OutBounds'
p89
S'Rect(0, 60 - 1080, 1759)'
p90
sS'Action'
p91
S'[ ClassName: android.support.v7.widget.RecyclerView; Text: []; ContentDescription: null; ItemCount: 14; CurrentItemIndex: -1; IsEnabled: true; IsPassword: false; IsChecked: false; IsFullScreen: false; Scrollable: true; BeforeText: null; FromIndex: 0; ToIndex: 1; ScrollX: -1; ScrollY: -1; MaxScrollX: -1; MaxScrollY: -1; AddedCount: -1; RemovedCount: -1; ParcelableData: null ]'
p92
sS'MovementGranularity'
p93
g6
sa(dp94
S'EventTime'
p95
S'9359053'
p96
sg4
L1449904689500L
sS'recordCount'
p97
g6
sS'EventType'
p98
S'TYPE_WINDOW_CONTENT_CHANGED'
p99
sS'PackageName'
p100
S'com.taobao.ishopping'
p101
sS'OutBounds'
p102
S'Rect(78, 1852 - 138, 1899)'
p103
sS'Action'
p104
S'[ ClassName: android.widget.TextView; Text: []; ContentDescription: null; ItemCount: -1; CurrentItemIndex: -1; IsEnabled: true; IsPassword: false; IsChecked: false; IsFullScreen: false; Scrollable: false; BeforeText: null; FromIndex: -1; ToIndex: -1; ScrollX: -1; ScrollY: -1; MaxScrollX: -1; MaxScrollY: -1; AddedCount: -1; RemovedCount: -1; ParcelableData: null ]'
p105
sS'MovementGranularity'
p106
g6
sa(dp107
S'EventTime'
p108
S'9359403'
p109
sg4
L1449904689866L
sS'recordCount'
p110
g6
sS'EventType'
p111
S'TYPE_WINDOW_CONTENT_CHANGED'
p112
sS'PackageName'
p113
S'com.taobao.ishopping'
p114
sS'OutBounds'
p115
S'Rect(0, 60 - 1080, 1759)'
p116
sS'Action'
p117
S'[ ClassName: android.support.v7.widget.RecyclerView; Text: []; ContentDescription: null; ItemCount: 14; CurrentItemIndex: -1; IsEnabled: true; IsPassword: false; IsChecked: false; IsFullScreen: false; Scrollable: true; BeforeText: null; FromIndex: 0; ToIndex: 0; ScrollX: -1; ScrollY: -1; MaxScrollX: -1; MaxScrollY: -1; AddedCount: -1; RemovedCount: -1; ParcelableData: null ]'
p118
sS'MovementGranularity'
p119
g6
sa(dp120
S'EventTime'
p121
S'9359559'
p122
sg4
L1449904690105L
sS'recordCount'
p123
g6
sS'EventType'
p124
S'TYPE_WINDOW_CONTENT_CHANGED'
p125
sS'PackageName'
p126
S'com.taobao.ishopping'
p127
sS'OutBounds'
p128
S'Rect(0, 60 - 1080, 1759)'
p129
sS'Action'
p130
S'[ ClassName: android.support.v7.widget.RecyclerView; Text: []; ContentDescription: null; ItemCount: 14; CurrentItemIndex: -1; IsEnabled: true; IsPassword: false; IsChecked: false; IsFullScreen: false; Scrollable: true; BeforeText: null; FromIndex: 0; ToIndex: 1; ScrollX: -1; ScrollY: -1; MaxScrollX: -1; MaxScrollY: -1; AddedCount: -1; RemovedCount: -1; ParcelableData: null ]'
p131
sS'MovementGranularity'
p132
g6
sa(dp133
S'EventTime'
p134
S'9359831'
p135
sg4
L1449904690238L
sS'recordCount'
p136
g6
sS'EventType'
p137
S'TYPE_WINDOW_CONTENT_CHANGED'
p138
sS'PackageName'
p139
S'com.taobao.ishopping'
p140
sS'OutBounds'
p141
S'Rect(0, 192 - 1080, 911)'
p142
sS'Action'
p143
S'[ ClassName: android.support.v4.view.ViewPager; Text: []; ContentDescription: null; ItemCount: -1; CurrentItemIndex: -1; IsEnabled: true; IsPassword: false; IsChecked: false; IsFullScreen: false; Scrollable: false; BeforeText: null; FromIndex: -1; ToIndex: -1; ScrollX: -1; ScrollY: -1; MaxScrollX: -1; MaxScrollY: -1; AddedCount: -1; RemovedCount: -1; ParcelableData: null ]'
p144
sS'MovementGranularity'
p145
g6
sa(dp146
S'EventTime'
p147
S'9360191'
p148
sg4
L1449904690571L
sS'recordCount'
p149
g6
sS'EventType'
p150
S'TYPE_VIEW_CLICKED'
p151
sS'PackageName'
p152
S'com.taobao.ishopping'
p153
sS'OutBounds'
p154
S'Rect(216, 1759 - 432, 1920)'
p155
sS'Action'
p156
S'[ ClassName: android.widget.RelativeLayout; Text: [\xe7\xbe\xa4]; ContentDescription: null; ItemCount: -1; CurrentItemIndex: -1; IsEnabled: true; IsPassword: false; IsChecked: false; IsFullScreen: false; Scrollable: false; BeforeText: null; FromIndex: -1; ToIndex: -1; ScrollX: -1; ScrollY: -1; MaxScrollX: -1; MaxScrollY: -1; AddedCount: -1; RemovedCount: -1; ParcelableData: null ]'
p157
sS'MovementGranularity'
p158
g6
sa(dp159
S'EventTime'
p160
S'9360207'
p161
sg4
L1449904690738L
sS'recordCount'
p162
g6
sS'EventType'
p163
S'TYPE_WINDOW_CONTENT_CHANGED'
p164
sS'PackageName'
p165
S'com.taobao.ishopping'
p166
sS'OutBounds'
p167
S'Rect(216, 1759 - 432, 1920)'
p168
sS'Action'
p169
S'[ ClassName: android.widget.RelativeLayout; Text: []; ContentDescription: null; ItemCount: -1; CurrentItemIndex: -1; IsEnabled: true; IsPassword: false; IsChecked: false; IsFullScreen: false; Scrollable: false; BeforeText: null; FromIndex: -1; ToIndex: -1; ScrollX: -1; ScrollY: -1; MaxScrollX: -1; MaxScrollY: -1; AddedCount: -1; RemovedCount: -1; ParcelableData: null ]'
p170
sS'MovementGranularity'
p171
g6
sa(dp172
S'EventTime'
p173
S'9360703'
p174
sg4
L1449904691099L
sS'recordCount'
p175
g6
sS'EventType'
p176
S'TYPE_WINDOW_CONTENT_CHANGED'
p177
sS'PackageName'
p178
S'com.taobao.ishopping'
p179
sS'OutBounds'
p180
S'Rect(0, 192 - 1080, 1759)'
p181
sS'Action'
p182
S'[ ClassName: com.android.org.chromium.content.browser.ContentViewCore; Text: []; ContentDescription: \xe7\xbd\x91\xe9\xa1\xb5\xe8\xa7\x86\xe5\x9b\xbe; ItemCount: -1; CurrentItemIndex: -1; IsEnabled: true; IsPassword: false; IsChecked: false; IsFullScreen: false; Scrollable: true; BeforeText: null; FromIndex: -1; ToIndex: -1; ScrollX: 0; ScrollY: 0; MaxScrollX: 0; MaxScrollY: 1; AddedCount: -1; RemovedCount: -1; ParcelableData: null ]'
p183
sS'MovementGranularity'
p184
g6
sa(dp185
S'EventTime'
p186
S'9361990'
p187
sg4
L1449904692382L
sS'recordCount'
p188
g6
sS'EventType'
p189
S'TYPE_WINDOW_CONTENT_CHANGED'
p190
sS'PackageName'
p191
S'com.taobao.ishopping'
p192
sS'OutBounds'
p193
S'Rect(0, 192 - 1080, 1759)'
p194
sS'Action'
p195
S'[ ClassName: com.android.org.chromium.content.browser.ContentViewCore; Text: []; ContentDescription: \xe7\xbd\x91\xe9\xa1\xb5\xe8\xa7\x86\xe5\x9b\xbe; ItemCount: -1; CurrentItemIndex: -1; IsEnabled: true; IsPassword: false; IsChecked: false; IsFullScreen: false; Scrollable: true; BeforeText: null; FromIndex: -1; ToIndex: -1; ScrollX: 0; ScrollY: 0; MaxScrollX: 0; MaxScrollY: 4961; AddedCount: -1; RemovedCount: -1; ParcelableData: null ]'
p196
sS'MovementGranularity'
p197
g6
sa(dp198
S'EventTime'
p199
S'9363544'
p200
sg4
L1449904693926L
sS'recordCount'
p201
g6
sS'EventType'
p202
S'TYPE_VIEW_CLICKED'
p203
sS'PackageName'
p204
S'com.taobao.ishopping'
p205
sS'OutBounds'
p206
S'Rect(648, 1759 - 864, 1920)'
p207
sS'Action'
p208
S'[ ClassName: android.widget.RelativeLayout; Text: [\xe6\xb6\x88\xe6\x81\xaf]; ContentDescription: null; ItemCount: -1; CurrentItemIndex: -1; IsEnabled: true; IsPassword: false; IsChecked: false; IsFullScreen: false; Scrollable: false; BeforeText: null; FromIndex: -1; ToIndex: -1; ScrollX: -1; ScrollY: -1; MaxScrollX: -1; MaxScrollY: -1; AddedCount: -1; RemovedCount: -1; ParcelableData: null ]'
p209
sS'MovementGranularity'
p210
g6
sa(dp211
S'EventTime'
p212
S'9363557'
p213
sg4
L1449904693974L
sS'recordCount'
p214
g6
sS'EventType'
p215
S'TYPE_WINDOW_CONTENT_CHANGED'
p216
sS'PackageName'
p217
S'com.taobao.ishopping'
p218
sS'OutBounds'
p219
S'Rect(648, 1759 - 864, 1920)'
p220
sS'Action'
p221
S'[ ClassName: android.widget.RelativeLayout; Text: []; ContentDescription: null; ItemCount: -1; CurrentItemIndex: -1; IsEnabled: true; IsPassword: false; IsChecked: false; IsFullScreen: false; Scrollable: false; BeforeText: null; FromIndex: -1; ToIndex: -1; ScrollX: -1; ScrollY: -1; MaxScrollX: -1; MaxScrollY: -1; AddedCount: -1; RemovedCount: -1; ParcelableData: null ]'
p222
sS'MovementGranularity'
p223
g6
sa(dp224
S'EventTime'
p225
S'9363738'
p226
sg4
L1449904694149L
sS'recordCount'
p227
g6
sS'EventType'
p228
S'TYPE_VIEW_SCROLLED'
p229
sS'PackageName'
p230
S'com.taobao.ishopping'
p231
sS'OutBounds'
p232
S'Rect(0, 192 - 1080, 1759)'
p233
sS'Action'
p234
S'[ ClassName: android.widget.ListView; Text: []; ContentDescription: null; ItemCount: 3; CurrentItemIndex: -1; IsEnabled: true; IsPassword: false; IsChecked: false; IsFullScreen: false; Scrollable: false; BeforeText: null; FromIndex: 0; ToIndex: 2; ScrollX: -1; ScrollY: -1; MaxScrollX: -1; MaxScrollY: -1; AddedCount: -1; RemovedCount: -1; ParcelableData: null ]'
p235
sS'MovementGranularity'
p236
g6
sa(dp237
S'EventTime'
p238
S'9363760'
p239
sg4
L1449904694169L
sS'recordCount'
p240
S'1'
p241
sS'EventType'
p242
S'TYPE_WINDOW_CONTENT_CHANGED'
p243
sS'PackageName'
p244
S'com.taobao.ishopping'
p245
sS'OutBounds'
p246
S'Rect(210, 745 - 420, 786)'
p247
sS'Action'
p248
S'[ ClassName: android.widget.TextView; Text: []; ContentDescription: null; ItemCount: -1; CurrentItemIndex: -1; IsEnabled: true; IsPassword: false; IsChecked: false; IsFullScreen: false; Scrollable: false; BeforeText: null; FromIndex: -1; ToIndex: -1; ScrollX: -1; ScrollY: -1; MaxScrollX: -1; MaxScrollY: -1; AddedCount: -1; RemovedCount: -1; ParcelableData: null ]'
p249
sS'MovementGranularity'
p250
g6
sa(dp251
S'EventTime'
p252
S'9364240'
p253
sg4
L1449904694622L
sS'recordCount'
p254
g241
sS'EventType'
p255
S'TYPE_VIEW_CLICKED'
p256
sS'PackageName'
p257
S'com.taobao.ishopping'
p258
sS'OutBounds'
p259
S'Rect(0, 612 - 1080, 822)'
p260
sS'Action'
p261
S'[ ClassName: android.widget.RelativeLayout; Text: [\xe5\xb0\x8f\xe6\x80\xaa\xe5\x85\xbd, 15 : 16, \xe5\x89\x8d*\xe6\xb5\xaa\xef\xbc\x9a     \xe5\xa5\xbd]; ContentDescription: null; ItemCount: -1; CurrentItemIndex: -1; IsEnabled: true; IsPassword: false; IsChecked: false; IsFullScreen: false; Scrollable: false; BeforeText: null; FromIndex: -1; ToIndex: -1; ScrollX: -1; ScrollY: -1; MaxScrollX: -1; MaxScrollY: -1; AddedCount: -1; RemovedCount: -1; ParcelableData: null ]'
p262
sS'MovementGranularity'
p263
g6
sa(dp264
S'EventTime'
p265
S'9364678'
p266
sg4
L1449904695079L
sS'recordCount'
p267
g6
sS'EventType'
p268
S'TYPE_WINDOW_STATE_CHANGED'
p269
sS'PackageName'
p270
S'com.taobao.ishopping'
p271
sS'OutBounds'
p272
S'Rect(0, 0 - 1080, 1920)'
p273
sS'Action'
p274
S'[ ClassName: com.taobao.ishopping.im.activity.GroupChatActivity; Text: [\xe7\x88\xb1\xe9\x80\x9b\xe8\xa1\x97]; ContentDescription: null; ItemCount: -1; CurrentItemIndex: -1; IsEnabled: true; IsPassword: false; IsChecked: false; IsFullScreen: true; Scrollable: false; BeforeText: null; FromIndex: -1; ToIndex: -1; ScrollX: -1; ScrollY: -1; MaxScrollX: -1; MaxScrollY: -1; AddedCount: -1; RemovedCount: -1; ParcelableData: null ]'
p275
sS'MovementGranularity'
p276
g6
sa(dp277
S'EventTime'
p278
S'9364683'
p279
sg4
L1449904695128L
sS'recordCount'
p280
g6
sS'EventType'
p281
S'TYPE_WINDOW_CONTENT_CHANGED'
p282
sS'PackageName'
p283
S'com.taobao.ishopping'
p284
sS'OutBounds'
p285
S'Rect(0, 330 - 1080, 1770)'
p286
sS'Action'
p287
S'[ ClassName: android.widget.ListView; Text: []; ContentDescription: null; ItemCount: 5; CurrentItemIndex: -1; IsEnabled: true; IsPassword: false; IsChecked: false; IsFullScreen: false; Scrollable: false; BeforeText: null; FromIndex: 0; ToIndex: 4; ScrollX: -1; ScrollY: -1; MaxScrollX: -1; MaxScrollY: -1; AddedCount: -1; RemovedCount: -1; ParcelableData: null ]'
p288
sS'MovementGranularity'
p289
g6
sa(dp290
S'EventTime'
p291
S'9364684'
p292
sg4
L1449904695162L
sS'recordCount'
p293
g6
sS'EventType'
p294
S'TYPE_VIEW_SCROLLED'
p295
sS'PackageName'
p296
S'com.taobao.ishopping'
p297
sS'OutBounds'
p298
S'Rect(0, 330 - 1080, 1770)'
p299
sS'Action'
p300
S'[ ClassName: android.widget.ListView; Text: []; ContentDescription: null; ItemCount: 5; CurrentItemIndex: -1; IsEnabled: true; IsPassword: false; IsChecked: false; IsFullScreen: false; Scrollable: false; BeforeText: null; FromIndex: 0; ToIndex: 4; ScrollX: -1; ScrollY: -1; MaxScrollX: -1; MaxScrollY: -1; AddedCount: -1; RemovedCount: -1; ParcelableData: null ]'
p301
sS'MovementGranularity'
p302
g6
sa(dp303
S'EventTime'
p304
S'9364828'
p305
sg4
L1449904695211L
sS'recordCount'
p306
g241
sS'EventType'
p307
S'TYPE_WINDOW_CONTENT_CHANGED'
p308
sS'PackageName'
p309
S'com.taobao.ishopping'
p310
sS'OutBounds'
p311
S'Rect(722, 360 - 900, 486)'
p312
sS'Action'
p313
S'[ ClassName: android.widget.TextView; Text: []; ContentDescription: null; ItemCount: -1; CurrentItemIndex: -1; IsEnabled: true; IsPassword: false; IsChecked: false; IsFullScreen: false; Scrollable: false; BeforeText: null; FromIndex: -1; ToIndex: -1; ScrollX: -1; ScrollY: -1; MaxScrollX: -1; MaxScrollY: -1; AddedCount: -1; RemovedCount: -1; ParcelableData: null ]'
p314
sS'MovementGranularity'
p315
g6
sa(dp316
S'EventTime'
p317
S'9365702'
p318
sg4
L1449904696083L
sS'recordCount'
p319
g241
sS'EventType'
p320
S'TYPE_VIEW_CLICKED'
p321
sS'PackageName'
p322
S'com.taobao.ishopping'
p323
sS'OutBounds'
p324
S'Rect(642, 906 - 900, 1026)'
p325
sS'Action'
p326
S"[ ClassName: android.widget.RelativeLayout; Text: [ 2'']; ContentDescription: null; ItemCount: -1; CurrentItemIndex: -1; IsEnabled: true; IsPassword: false; IsChecked: false; IsFullScreen: false; Scrollable: false; BeforeText: null; FromIndex: -1; ToIndex: -1; ScrollX: -1; ScrollY: -1; MaxScrollX: -1; MaxScrollY: -1; AddedCount: -1; RemovedCount: -1; ParcelableData: null ]"
p327
sS'MovementGranularity'
p328
g6
sa(dp329
S'EventTime'
p330
S'9365756'
p331
sg4
L1449904696137L
sS'recordCount'
p332
g6
sS'EventType'
p333
S'TYPE_NOTIFICATION_STATE_CHANGED'
p334
sS'PackageName'
p335
S'com.taobao.ishopping'
p336
sS'Action'
p337
S'[ ClassName: android.widget.Toast$TN; Text: [\xe6\x92\xad\xe6\x94\xbe\xe9\x94\x99\xe8\xaf\xaf]; ContentDescription: null; ItemCount: -1; CurrentItemIndex: -1; IsEnabled: false; IsPassword: false; IsChecked: false; IsFullScreen: false; Scrollable: false; BeforeText: null; FromIndex: -1; ToIndex: -1; ScrollX: -1; ScrollY: -1; MaxScrollX: -1; MaxScrollY: -1; AddedCount: -1; RemovedCount: -1; ParcelableData: null ]'
p338
sS'MovementGranularity'
p339
g6
sa(dp340
S'EventTime'
p341
S'9366501'
p342
sg4
L1449904696883L
sS'recordCount'
p343
g241
sS'EventType'
p344
S'TYPE_VIEW_CLICKED'
p345
sS'PackageName'
p346
S'com.taobao.ishopping'
p347
sS'OutBounds'
p348
S'Rect(642, 906 - 900, 1026)'
p349
sS'Action'
p350
S"[ ClassName: android.widget.RelativeLayout; Text: [ 2'']; ContentDescription: null; ItemCount: -1; CurrentItemIndex: -1; IsEnabled: true; IsPassword: false; IsChecked: false; IsFullScreen: false; Scrollable: false; BeforeText: null; FromIndex: -1; ToIndex: -1; ScrollX: -1; ScrollY: -1; MaxScrollX: -1; MaxScrollY: -1; AddedCount: -1; RemovedCount: -1; ParcelableData: null ]"
p351
sS'MovementGranularity'
p352
g6
sa(dp353
S'EventTime'
p354
S'9367129'
p355
sg4
L1449904697571L
sS'recordCount'
p356
g6
sS'EventType'
p357
S'TYPE_WINDOW_CONTENT_CHANGED'
p358
sS'PackageName'
p359
S'com.taobao.ishopping'
p360
sS'OutBounds'
p361
S'Rect(0, 826 - 1080, 2266)'
p362
sS'Action'
p363
S'[ ClassName: android.widget.ListView; Text: []; ContentDescription: null; ItemCount: 5; CurrentItemIndex: -1; IsEnabled: true; IsPassword: false; IsChecked: false; IsFullScreen: false; Scrollable: false; BeforeText: null; FromIndex: 0; ToIndex: 4; ScrollX: -1; ScrollY: -1; MaxScrollX: -1; MaxScrollY: -1; AddedCount: -1; RemovedCount: -1; ParcelableData: null ]'
p364
sS'MovementGranularity'
p365
g6
sa(dp366
S'EventTime'
p367
S'9367131'
p368
sg4
L1449904697637L
sS'recordCount'
p369
g6
sS'EventType'
p370
S'TYPE_VIEW_FOCUSED'
p371
sS'PackageName'
p372
S'com.taobao.ishopping'
p373
sS'OutBounds'
p374
S'Rect(144, 970 - 936, 1066)'
p375
sS'Action'
p376
S'[ ClassName: android.widget.EditText; Text: []; ContentDescription: null; ItemCount: 5; CurrentItemIndex: 4; IsEnabled: true; IsPassword: false; IsChecked: false; IsFullScreen: false; Scrollable: false; BeforeText: null; FromIndex: -1; ToIndex: -1; ScrollX: -1; ScrollY: -1; MaxScrollX: -1; MaxScrollY: -1; AddedCount: -1; RemovedCount: -1; ParcelableData: null ]'
p377
sS'MovementGranularity'
p378
g6
sa(dp379
S'EventTime'
p380
S'9367395'
p381
sg4
L1449904697794L
sS'recordCount'
p382
g6
sS'EventType'
p383
S'TYPE_WINDOW_CONTENT_CHANGED'
p384
sS'PackageName'
p385
S'com.taobao.ishopping'
p386
sS'OutBounds'
p387
S'Rect(0, 330 - 1080, 943)'
p388
sS'Action'
p389
S'[ ClassName: android.widget.ListView; Text: []; ContentDescription: null; ItemCount: 5; CurrentItemIndex: -1; IsEnabled: true; IsPassword: false; IsChecked: false; IsFullScreen: false; Scrollable: true; BeforeText: null; FromIndex: 1; ToIndex: 4; ScrollX: -1; ScrollY: -1; MaxScrollX: -1; MaxScrollY: -1; AddedCount: -1; RemovedCount: -1; ParcelableData: null ]'
p390
sS'MovementGranularity'
p391
g6
sa(dp392
S'EventTime'
p393
S'9367407'
p394
sg4
L1449904697844L
sS'recordCount'
p395
g6
sS'EventType'
p396
S'TYPE_VIEW_SCROLLED'
p397
sS'PackageName'
p398
S'com.taobao.ishopping'
p399
sS'OutBounds'
p400
S'Rect(0, 330 - 1080, 943)'
p401
sS'Action'
p402
S'[ ClassName: android.widget.ListView; Text: []; ContentDescription: null; ItemCount: 5; CurrentItemIndex: -1; IsEnabled: true; IsPassword: false; IsChecked: false; IsFullScreen: false; Scrollable: true; BeforeText: null; FromIndex: 1; ToIndex: 4; ScrollX: -1; ScrollY: -1; MaxScrollX: -1; MaxScrollY: -1; AddedCount: -1; RemovedCount: -1; ParcelableData: null ]'
p403
sS'MovementGranularity'
p404
g6
sa(dp405
S'EventTime'
p406
S'9368034'
p407
sg4
L1449904698415L
sS'recordCount'
p408
g6
sS'EventType'
p409
S'TYPE_VIEW_CLICKED'
p410
sS'PackageName'
p411
S'com.taobao.ishopping'
p412
sS'OutBounds'
p413
S'Rect(0, 976 - 144, 1060)'
p414
sS'Action'
p415
S'[ ClassName: android.widget.ImageView; Text: []; ContentDescription: null; ItemCount: -1; CurrentItemIndex: -1; IsEnabled: true; IsPassword: false; IsChecked: false; IsFullScreen: false; Scrollable: false; BeforeText: null; FromIndex: -1; ToIndex: -1; ScrollX: -1; ScrollY: -1; MaxScrollX: -1; MaxScrollY: -1; AddedCount: -1; RemovedCount: -1; ParcelableData: null ]'
p416
sS'MovementGranularity'
p417
g6
sa(dp418
S'EventTime'
p419
S'9368041'
p420
sg4
L1449904698535L
sS'recordCount'
p421
g6
sS'EventType'
p422
S'TYPE_VIEW_TEXT_SELECTION_CHANGED'
p423
sS'PackageName'
p424
S'com.taobao.ishopping'
p425
sS'Action'
p426
S'[ ClassName: android.widget.EditText; Text: []; ContentDescription: null; ItemCount: 0; CurrentItemIndex: -1; IsEnabled: true; IsPassword: false; IsChecked: false; IsFullScreen: false; Scrollable: false; BeforeText: null; FromIndex: 0; ToIndex: 0; ScrollX: -1; ScrollY: -1; MaxScrollX: -1; MaxScrollY: -1; AddedCount: -1; RemovedCount: -1; ParcelableData: null ]'
p427
sS'MovementGranularity'
p428
g6
sa(dp429
S'EventTime'
p430
S'9368049'
p431
sg4
L1449904698581L
sS'recordCount'
p432
g6
sS'EventType'
p433
S'TYPE_VIEW_FOCUSED'
p434
sS'PackageName'
p435
S'com.taobao.ishopping'
p436
sS'OutBounds'
p437
S'Rect(0, 330 - 1080, 1770)'
p438
sS'Action'
p439
S'[ ClassName: android.widget.ListView; Text: []; ContentDescription: null; ItemCount: 5; CurrentItemIndex: -1; IsEnabled: true; IsPassword: false; IsChecked: false; IsFullScreen: false; Scrollable: true; BeforeText: null; FromIndex: 1; ToIndex: 4; ScrollX: -1; ScrollY: -1; MaxScrollX: -1; MaxScrollY: -1; AddedCount: -1; RemovedCount: -1; ParcelableData: null ]'
p440
sS'MovementGranularity'
p441
g6
sa(dp442
S'EventTime'
p443
S'9368059'
p444
sg4
L1449904698604L
sS'recordCount'
p445
g6
sS'EventType'
p446
S'TYPE_WINDOW_CONTENT_CHANGED'
p447
sS'PackageName'
p448
S'com.taobao.ishopping'
p449
sS'OutBounds'
p450
S'Rect(144, 1797 - 936, 1893)'
p451
sS'Action'
p452
S'[ ClassName: android.widget.TextView; Text: []; ContentDescription: null; ItemCount: -1; CurrentItemIndex: -1; IsEnabled: true; IsPassword: false; IsChecked: false; IsFullScreen: false; Scrollable: false; BeforeText: null; FromIndex: -1; ToIndex: -1; ScrollX: -1; ScrollY: -1; MaxScrollX: -1; MaxScrollY: -1; AddedCount: -1; RemovedCount: -1; ParcelableData: null ]'
p453
sS'MovementGranularity'
p454
g6
sa(dp455
S'EventTime'
p456
S'9368326'
p457
sg4
L1449904698640L
sS'recordCount'
p458
g6
sS'EventType'
p459
S'TYPE_WINDOW_CONTENT_CHANGED'
p460
sS'PackageName'
p461
S'com.taobao.ishopping'
p462
sS'OutBounds'
p463
S'Rect(0, 330 - 1080, 1770)'
p464
sS'Action'
p465
S'[ ClassName: android.widget.ListView; Text: []; ContentDescription: null; ItemCount: 5; CurrentItemIndex: -1; IsEnabled: true; IsPassword: false; IsChecked: false; IsFullScreen: false; Scrollable: false; BeforeText: null; FromIndex: 0; ToIndex: 4; ScrollX: -1; ScrollY: -1; MaxScrollX: -1; MaxScrollY: -1; AddedCount: -1; RemovedCount: -1; ParcelableData: null ]'
p466
sS'MovementGranularity'
p467
g6
sa(dp468
S'EventTime'
p469
S'9368341'
p470
sg4
L1449904698739L
sS'recordCount'
p471
g6
sS'EventType'
p472
S'TYPE_VIEW_SCROLLED'
p473
sS'PackageName'
p474
S'com.taobao.ishopping'
p475
sS'OutBounds'
p476
S'Rect(0, 330 - 1080, 1770)'
p477
sS'Action'
p478
S'[ ClassName: android.widget.ListView; Text: []; ContentDescription: null; ItemCount: 5; CurrentItemIndex: -1; IsEnabled: true; IsPassword: false; IsChecked: false; IsFullScreen: false; Scrollable: false; BeforeText: null; FromIndex: 0; ToIndex: 4; ScrollX: -1; ScrollY: -1; MaxScrollX: -1; MaxScrollY: -1; AddedCount: -1; RemovedCount: -1; ParcelableData: null ]'
p479
sS'MovementGranularity'
p480
g6
sa(dp481
S'EventTime'
p482
S'9369042'
p483
sg4
L1449904699423L
sS'recordCount'
p484
g6
sS'EventType'
p485
S'TYPE_WINDOW_CONTENT_CHANGED'
p486
sS'PackageName'
p487
S'com.taobao.ishopping'
p488
sS'Action'
p489
S'[ ClassName: android.widget.TextView; Text: []; ContentDescription: null; ItemCount: -1; CurrentItemIndex: -1; IsEnabled: true; IsPassword: false; IsChecked: false; IsFullScreen: false; Scrollable: false; BeforeText: null; FromIndex: -1; ToIndex: -1; ScrollX: -1; ScrollY: -1; MaxScrollX: -1; MaxScrollY: -1; AddedCount: -1; RemovedCount: -1; ParcelableData: null ]'
p490
sS'MovementGranularity'
p491
g6
sa(dp492
S'EventTime'
p493
S'9369101'
p494
sg4
L1449904699486L
sS'recordCount'
p495
g6
sS'EventType'
p496
S'TYPE_WINDOW_STATE_CHANGED'
p497
sS'PackageName'
p498
S'com.taobao.ishopping'
p499
sS'OutBounds'
p500
S'Rect(251, 821 - 829, 1158)'
p501
sS'Action'
p502
S'[ ClassName: android.app.Dialog; Text: [00, :, 01, \xe6\x89\x8b\xe6\x8c\x87\xe4\xb8\x8a\xe6\xbb\x91,\xe5\x8f\x96\xe6\xb6\x88\xe5\x8f\x91\xe9\x80\x81]; ContentDescription: null; ItemCount: -1; CurrentItemIndex: -1; IsEnabled: true; IsPassword: false; IsChecked: false; IsFullScreen: false; Scrollable: false; BeforeText: null; FromIndex: -1; ToIndex: -1; ScrollX: -1; ScrollY: -1; MaxScrollX: -1; MaxScrollY: -1; AddedCount: -1; RemovedCount: -1; ParcelableData: null ]'
p503
sS'MovementGranularity'
p504
g6
sa(dp505
S'EventTime'
p506
S'9369166'
p507
sg4
L1449904699548L
sS'recordCount'
p508
g6
sS'EventType'
p509
S'TYPE_WINDOW_CONTENT_CHANGED'
p510
sS'PackageName'
p511
S'com.taobao.ishopping'
p512
sS'OutBounds'
p513
S'Rect(341, 1012 - 739, 1068)'
p514
sS'Action'
p515
S'[ ClassName: android.widget.TextView; Text: []; ContentDescription: null; ItemCount: -1; CurrentItemIndex: -1; IsEnabled: true; IsPassword: false; IsChecked: false; IsFullScreen: false; Scrollable: false; BeforeText: null; FromIndex: -1; ToIndex: -1; ScrollX: -1; ScrollY: -1; MaxScrollX: -1; MaxScrollY: -1; AddedCount: -1; RemovedCount: -1; ParcelableData: null ]'
p516
sS'MovementGranularity'
p517
g6
sa(dp518
S'EventTime'
p519
S'9369881'
p520
sg4
L1449904700330L
sS'recordCount'
p521
g6
sS'EventType'
p522
S'TYPE_WINDOW_CONTENT_CHANGED'
p523
sS'PackageName'
p524
S'com.taobao.ishopping'
p525
sS'OutBounds'
p526
S'Rect(251, 825 - 829, 1154)'
p527
sS'Action'
p528
S'[ ClassName: android.widget.FrameLayout; Text: []; ContentDescription: null; ItemCount: -1; CurrentItemIndex: -1; IsEnabled: true; IsPassword: false; IsChecked: false; IsFullScreen: false; Scrollable: false; BeforeText: null; FromIndex: -1; ToIndex: -1; ScrollX: -1; ScrollY: -1; MaxScrollX: -1; MaxScrollY: -1; AddedCount: -1; RemovedCount: -1; ParcelableData: null ]'
p529
sS'MovementGranularity'
p530
g6
sa(dp531
S'EventTime'
p532
S'9369943'
p533
sg4
L1449904700350L
sS'recordCount'
p534
g6
sS'EventType'
p535
S'TYPE_NOTIFICATION_STATE_CHANGED'
p536
sS'PackageName'
p537
S'com.taobao.ishopping'
p538
sS'Action'
p539
S'[ ClassName: android.widget.Toast$TN; Text: [\xe8\xaf\xb4\xe8\xaf\x9d\xe6\x97\xb6\xe9\x97\xb4\xe5\xa4\xaa\xe7\x9f\xad]; ContentDescription: null; ItemCount: -1; CurrentItemIndex: -1; IsEnabled: false; IsPassword: false; IsChecked: false; IsFullScreen: false; Scrollable: false; BeforeText: null; FromIndex: -1; ToIndex: -1; ScrollX: -1; ScrollY: -1; MaxScrollX: -1; MaxScrollY: -1; AddedCount: -1; RemovedCount: -1; ParcelableData: null ]'
p540
sS'MovementGranularity'
p541
g6
sa(dp542
S'EventTime'
p543
S'9370018'
p544
sg4
L1449904700491L
sS'recordCount'
p545
g6
sS'EventType'
p546
S'TYPE_WINDOW_CONTENT_CHANGED'
p547
sS'PackageName'
p548
S'com.taobao.ishopping'
p549
sS'Action'
p550
S'[ ClassName: android.widget.TextView; Text: []; ContentDescription: null; ItemCount: -1; CurrentItemIndex: -1; IsEnabled: true; IsPassword: false; IsChecked: false; IsFullScreen: false; Scrollable: false; BeforeText: null; FromIndex: -1; ToIndex: -1; ScrollX: -1; ScrollY: -1; MaxScrollX: -1; MaxScrollY: -1; AddedCount: -1; RemovedCount: -1; ParcelableData: null ]'
p551
sS'MovementGranularity'
p552
g6
sa(dp553
S'EventTime'
p554
S'9370227'
p555
sg4
L1449904700641L
sS'recordCount'
p556
g6
sS'EventType'
p557
S'TYPE_WINDOW_STATE_CHANGED'
p558
sS'PackageName'
p559
S'com.taobao.ishopping'
p560
sS'OutBounds'
p561
S'Rect(0, 0 - 1080, 1920)'
p562
sS'Action'
p563
S'[ ClassName: com.taobao.ishopping.im.activity.GroupChatActivity; Text: [\xe7\x88\xb1\xe9\x80\x9b\xe8\xa1\x97]; ContentDescription: null; ItemCount: -1; CurrentItemIndex: -1; IsEnabled: true; IsPassword: false; IsChecked: false; IsFullScreen: true; Scrollable: false; BeforeText: null; FromIndex: -1; ToIndex: -1; ScrollX: -1; ScrollY: -1; MaxScrollX: -1; MaxScrollY: -1; AddedCount: -1; RemovedCount: -1; ParcelableData: null ]'
p564
sS'MovementGranularity'
p565
g6
sa(dp566
S'EventTime'
p567
S'9370919'
p568
sg4
L1449904701300L
sS'recordCount'
p569
g6
sS'EventType'
p570
S'TYPE_WINDOW_CONTENT_CHANGED'
p571
sS'PackageName'
p572
S'com.taobao.ishopping'
p573
sS'Action'
p574
S'[ ClassName: android.widget.TextView; Text: []; ContentDescription: null; ItemCount: -1; CurrentItemIndex: -1; IsEnabled: true; IsPassword: false; IsChecked: false; IsFullScreen: false; Scrollable: false; BeforeText: null; FromIndex: -1; ToIndex: -1; ScrollX: -1; ScrollY: -1; MaxScrollX: -1; MaxScrollY: -1; AddedCount: -1; RemovedCount: -1; ParcelableData: null ]'
p575
sS'MovementGranularity'
p576
g6
sa(dp577
S'EventTime'
p578
S'9370975'
p579
sg4
L1449904701375L
sS'recordCount'
p580
g6
sS'EventType'
p581
S'TYPE_WINDOW_STATE_CHANGED'
p582
sS'PackageName'
p583
S'com.taobao.ishopping'
p584
sS'OutBounds'
p585
S'Rect(251, 821 - 829, 1158)'
p586
sS'Action'
p587
S'[ ClassName: android.app.Dialog; Text: [00, :, 01, \xe6\x89\x8b\xe6\x8c\x87\xe4\xb8\x8a\xe6\xbb\x91,\xe5\x8f\x96\xe6\xb6\x88\xe5\x8f\x91\xe9\x80\x81]; ContentDescription: null; ItemCount: -1; CurrentItemIndex: -1; IsEnabled: true; IsPassword: false; IsChecked: false; IsFullScreen: false; Scrollable: false; BeforeText: null; FromIndex: -1; ToIndex: -1; ScrollX: -1; ScrollY: -1; MaxScrollX: -1; MaxScrollY: -1; AddedCount: -1; RemovedCount: -1; ParcelableData: null ]'
p588
sS'MovementGranularity'
p589
g6
sa(dp590
S'EventTime'
p591
S'9372455'
p592
sg4
L1449904702865L
sS'recordCount'
p593
g6
sS'EventType'
p594
S'TYPE_WINDOW_CONTENT_CHANGED'
p595
sS'PackageName'
p596
S'com.taobao.ishopping'
p597
sS'OutBounds'
p598
S'Rect(341, 1008 - 739, 1064)'
p599
sS'Action'
p600
S'[ ClassName: android.widget.TextView; Text: []; ContentDescription: null; ItemCount: -1; CurrentItemIndex: -1; IsEnabled: true; IsPassword: false; IsChecked: false; IsFullScreen: false; Scrollable: false; BeforeText: null; FromIndex: -1; ToIndex: -1; ScrollX: -1; ScrollY: -1; MaxScrollX: -1; MaxScrollY: -1; AddedCount: -1; RemovedCount: -1; ParcelableData: null ]'
p601
sS'MovementGranularity'
p602
g6
sa(dp603
S'EventTime'
p604
S'9372585'
p605
sg4
L1449904702967L
sS'recordCount'
p606
g6
sS'EventType'
p607
S'TYPE_WINDOW_CONTENT_CHANGED'
p608
sS'PackageName'
p609
S'com.taobao.ishopping'
p610
sS'Action'
p611
S'[ ClassName: android.widget.TextView; Text: []; ContentDescription: null; ItemCount: -1; CurrentItemIndex: -1; IsEnabled: true; IsPassword: false; IsChecked: false; IsFullScreen: false; Scrollable: false; BeforeText: null; FromIndex: -1; ToIndex: -1; ScrollX: -1; ScrollY: -1; MaxScrollX: -1; MaxScrollY: -1; AddedCount: -1; RemovedCount: -1; ParcelableData: null ]'
p612
sS'MovementGranularity'
p613
g6
sa(dp614
S'EventTime'
p615
S'9372722'
p616
sg4
L1449904703146L
sS'recordCount'
p617
g6
sS'EventType'
p618
S'TYPE_WINDOW_STATE_CHANGED'
p619
sS'PackageName'
p620
S'com.taobao.ishopping'
p621
sS'OutBounds'
p622
S'Rect(0, 0 - 1080, 1920)'
p623
sS'Action'
p624
S'[ ClassName: com.taobao.ishopping.im.activity.GroupChatActivity; Text: [\xe7\x88\xb1\xe9\x80\x9b\xe8\xa1\x97]; ContentDescription: null; ItemCount: -1; CurrentItemIndex: -1; IsEnabled: true; IsPassword: false; IsChecked: false; IsFullScreen: true; Scrollable: false; BeforeText: null; FromIndex: -1; ToIndex: -1; ScrollX: -1; ScrollY: -1; MaxScrollX: -1; MaxScrollY: -1; AddedCount: -1; RemovedCount: -1; ParcelableData: null ]'
p625
sS'MovementGranularity'
p626
g6
sa(dp627
S'EventTime'
p628
S'9372920'
p629
sg4
L1449904703307L
sS'recordCount'
p630
g6
sS'EventType'
p631
S'TYPE_WINDOW_CONTENT_CHANGED'
p632
sS'PackageName'
p633
S'com.taobao.ishopping'
p634
sS'OutBounds'
p635
S'Rect(144, 1797 - 936, 1893)'
p636
sS'Action'
p637
S'[ ClassName: android.widget.TextView; Text: []; ContentDescription: null; ItemCount: -1; CurrentItemIndex: -1; IsEnabled: true; IsPassword: false; IsChecked: false; IsFullScreen: false; Scrollable: false; BeforeText: null; FromIndex: -1; ToIndex: -1; ScrollX: -1; ScrollY: -1; MaxScrollX: -1; MaxScrollY: -1; AddedCount: -1; RemovedCount: -1; ParcelableData: null ]'
p638
sS'MovementGranularity'
p639
g6
sa(dp640
S'EventTime'
p641
S'9373089'
p642
sg4
L1449904703474L
sS'recordCount'
p643
g6
sS'EventType'
p644
S'TYPE_WINDOW_CONTENT_CHANGED'
p645
sS'PackageName'
p646
S'com.taobao.ishopping'
p647
sS'OutBounds'
p648
S'Rect(144, 1797 - 936, 1893)'
p649
sS'Action'
p650
S'[ ClassName: android.widget.TextView; Text: []; ContentDescription: null; ItemCount: -1; CurrentItemIndex: -1; IsEnabled: true; IsPassword: false; IsChecked: false; IsFullScreen: false; Scrollable: false; BeforeText: null; FromIndex: -1; ToIndex: -1; ScrollX: -1; ScrollY: -1; MaxScrollX: -1; MaxScrollY: -1; AddedCount: -1; RemovedCount: -1; ParcelableData: null ]'
p651
sS'MovementGranularity'
p652
g6
sa(dp653
S'EventTime'
p654
S'9373286'
p655
sg4
L1449904703668L
sS'recordCount'
p656
g6
sS'EventType'
p657
S'TYPE_WINDOW_CONTENT_CHANGED'
p658
sS'PackageName'
p659
S'com.taobao.ishopping'
p660
sS'Action'
p661
S'[ ClassName: android.widget.TextView; Text: []; ContentDescription: null; ItemCount: -1; CurrentItemIndex: -1; IsEnabled: true; IsPassword: false; IsChecked: false; IsFullScreen: false; Scrollable: false; BeforeText: null; FromIndex: -1; ToIndex: -1; ScrollX: -1; ScrollY: -1; MaxScrollX: -1; MaxScrollY: -1; AddedCount: -1; RemovedCount: -1; ParcelableData: null ]'
p662
sS'MovementGranularity'
p663
g6
sa(dp664
S'EventTime'
p665
S'9373341'
p666
sg4
L1449904703731L
sS'recordCount'
p667
g6
sS'EventType'
p668
S'TYPE_WINDOW_STATE_CHANGED'
p669
sS'PackageName'
p670
S'com.taobao.ishopping'
p671
sS'OutBounds'
p672
S'Rect(251, 821 - 829, 1158)'
p673
sS'Action'
p674
S'[ ClassName: android.app.Dialog; Text: [00, :, 01, \xe6\x89\x8b\xe6\x8c\x87\xe4\xb8\x8a\xe6\xbb\x91,\xe5\x8f\x96\xe6\xb6\x88\xe5\x8f\x91\xe9\x80\x81]; ContentDescription: null; ItemCount: -1; CurrentItemIndex: -1; IsEnabled: true; IsPassword: false; IsChecked: false; IsFullScreen: false; Scrollable: false; BeforeText: null; FromIndex: -1; ToIndex: -1; ScrollX: -1; ScrollY: -1; MaxScrollX: -1; MaxScrollY: -1; AddedCount: -1; RemovedCount: -1; ParcelableData: null ]'
p675
sS'MovementGranularity'
p676
g6
sa(dp677
S'EventTime'
p678
S'9396367'
p679
sg4
L1449904726806L
sS'recordCount'
p680
g6
sS'EventType'
p681
S'TYPE_WINDOW_STATE_CHANGED'
p682
sS'PackageName'
p683
S'com.taobao.ishopping'
p684
sS'OutBounds'
p685
S'Rect(0, 0 - 1080, 1920)'
p686
sS'Action'
p687
S'[ ClassName: com.taobao.ishopping.im.activity.GroupChatActivity; Text: [\xe7\x88\xb1\xe9\x80\x9b\xe8\xa1\x97]; ContentDescription: null; ItemCount: -1; CurrentItemIndex: -1; IsEnabled: true; IsPassword: false; IsChecked: false; IsFullScreen: true; Scrollable: false; BeforeText: null; FromIndex: -1; ToIndex: -1; ScrollX: -1; ScrollY: -1; MaxScrollX: -1; MaxScrollY: -1; AddedCount: -1; RemovedCount: -1; ParcelableData: null ]'
p688
sS'MovementGranularity'
p689
g6
sa(dp690
S'EventTime'
p691
S'9396407'
p692
sg4
L1449904726868L
sS'recordCount'
p693
g241
sS'EventType'
p694
S'TYPE_WINDOW_CONTENT_CHANGED'
p695
sS'PackageName'
p696
S'com.taobao.ishopping'
p697
sS'OutBounds'
p698
S'Rect(0, 1242 - 1080, 1422)'
p699
sS'Action'
p700
S'[ ClassName: android.widget.LinearLayout; Text: []; ContentDescription: null; ItemCount: -1; CurrentItemIndex: -1; IsEnabled: true; IsPassword: false; IsChecked: false; IsFullScreen: false; Scrollable: false; BeforeText: null; FromIndex: -1; ToIndex: -1; ScrollX: -1; ScrollY: -1; MaxScrollX: -1; MaxScrollY: -1; AddedCount: -1; RemovedCount: -1; ParcelableData: null ]'
p701
sS'MovementGranularity'
p702
g6
sa(dp703
S'EventTime'
p704
S'9396579'
p705
sg4
L1449904726974L
sS'recordCount'
p706
g6
sS'EventType'
p707
S'TYPE_VIEW_SCROLLED'
p708
sS'PackageName'
p709
S'com.taobao.ishopping'
p710
sS'OutBounds'
p711
S'Rect(0, 330 - 1080, 1770)'
p712
sS'Action'
p713
S'[ ClassName: android.widget.ListView; Text: []; ContentDescription: null; ItemCount: 6; CurrentItemIndex: -1; IsEnabled: true; IsPassword: false; IsChecked: false; IsFullScreen: false; Scrollable: false; BeforeText: null; FromIndex: 0; ToIndex: 5; ScrollX: -1; ScrollY: -1; MaxScrollX: -1; MaxScrollY: -1; AddedCount: -1; RemovedCount: -1; ParcelableData: null ]'
p714
sS'MovementGranularity'
p715
g6
sa(dp716
S'EventTime'
p717
S'9396582'
p718
sg4
L1449904726989L
sS'recordCount'
p719
g241
sS'EventType'
p720
S'TYPE_WINDOW_CONTENT_CHANGED'
p721
sS'PackageName'
p722
S'com.taobao.ishopping'
p723
sS'OutBounds'
p724
S'Rect(570, 561 - 660, 651)'
p725
sS'Action'
p726
S'[ ClassName: android.widget.ImageView; Text: []; ContentDescription: null; ItemCount: -1; CurrentItemIndex: -1; IsEnabled: true; IsPassword: false; IsChecked: false; IsFullScreen: false; Scrollable: false; BeforeText: null; FromIndex: -1; ToIndex: -1; ScrollX: -1; ScrollY: -1; MaxScrollX: -1; MaxScrollY: -1; AddedCount: -1; RemovedCount: -1; ParcelableData: null ]'
p727
sS'MovementGranularity'
p728
g6
sa(dp729
S'EventTime'
p730
S'9397295'
p731
sg4
L1449904727680L
sS'recordCount'
p732
g6
sS'EventType'
p733
S'TYPE_WINDOW_CONTENT_CHANGED'
p734
sS'PackageName'
p735
S'com.taobao.ishopping'
p736
sS'OutBounds'
p737
S'Rect(144, 1797 - 936, 1893)'
p738
sS'Action'
p739
S'[ ClassName: android.widget.TextView; Text: []; ContentDescription: null; ItemCount: -1; CurrentItemIndex: -1; IsEnabled: true; IsPassword: false; IsChecked: false; IsFullScreen: false; Scrollable: false; BeforeText: null; FromIndex: -1; ToIndex: -1; ScrollX: -1; ScrollY: -1; MaxScrollX: -1; MaxScrollY: -1; AddedCount: -1; RemovedCount: -1; ParcelableData: null ]'
p740
sS'MovementGranularity'
p741
g6
sa(dp742
S'EventTime'
p743
S'9399851'
p744
sg4
L1449904730232L
sS'recordCount'
p745
g241
sS'EventType'
p746
S'TYPE_VIEW_CLICKED'
p747
sS'PackageName'
p748
S'com.taobao.ishopping'
p749
sS'OutBounds'
p750
S'Rect(300, 1272 - 900, 1392)'
p751
sS'Action'
p752
S"[ ClassName: android.widget.RelativeLayout; Text: [23'']; ContentDescription: null; ItemCount: -1; CurrentItemIndex: -1; IsEnabled: true; IsPassword: false; IsChecked: false; IsFullScreen: false; Scrollable: false; BeforeText: null; FromIndex: -1; ToIndex: -1; ScrollX: -1; ScrollY: -1; MaxScrollX: -1; MaxScrollY: -1; AddedCount: -1; RemovedCount: -1; ParcelableData: null ]"
p753
sS'MovementGranularity'
p754
g6
sa(dp755
S'EventTime'
p756
S'9399876'
p757
sg4
L1449904730265L
sS'recordCount'
p758
g6
sS'EventType'
p759
S'TYPE_NOTIFICATION_STATE_CHANGED'
p760
sS'PackageName'
p761
S'com.taobao.ishopping'
p762
sS'Action'
p763
S'[ ClassName: android.widget.Toast$TN; Text: [\xe6\x92\xad\xe6\x94\xbe\xe9\x94\x99\xe8\xaf\xaf]; ContentDescription: null; ItemCount: -1; CurrentItemIndex: -1; IsEnabled: false; IsPassword: false; IsChecked: false; IsFullScreen: false; Scrollable: false; BeforeText: null; FromIndex: -1; ToIndex: -1; ScrollX: -1; ScrollY: -1; MaxScrollX: -1; MaxScrollY: -1; AddedCount: -1; RemovedCount: -1; ParcelableData: null ]'
p764
sS'MovementGranularity'
p765
g6
sa(dp766
S'EventTime'
p767
S'9400303'
p768
sg4
L1449904730685L
sS'recordCount'
p769
g241
sS'EventType'
p770
S'TYPE_VIEW_CLICKED'
p771
sS'PackageName'
p772
S'com.taobao.ishopping'
p773
sS'OutBounds'
p774
S'Rect(300, 1272 - 900, 1392)'
p775
sS'Action'
p776
S"[ ClassName: android.widget.RelativeLayout; Text: [23'']; ContentDescription: null; ItemCount: -1; CurrentItemIndex: -1; IsEnabled: true; IsPassword: false; IsChecked: false; IsFullScreen: false; Scrollable: false; BeforeText: null; FromIndex: -1; ToIndex: -1; ScrollX: -1; ScrollY: -1; MaxScrollX: -1; MaxScrollY: -1; AddedCount: -1; RemovedCount: -1; ParcelableData: null ]"
p777
sS'MovementGranularity'
p778
g6
sa(dp779
S'EventTime'
p780
S'9400733'
p781
sg4
L1449904731118L
sS'recordCount'
p782
g241
sS'EventType'
p783
S'TYPE_VIEW_CLICKED'
p784
sS'PackageName'
p785
S'com.taobao.ishopping'
p786
sS'OutBounds'
p787
S'Rect(300, 1272 - 900, 1392)'
p788
sS'Action'
p789
S"[ ClassName: android.widget.RelativeLayout; Text: [23'']; ContentDescription: null; ItemCount: -1; CurrentItemIndex: -1; IsEnabled: true; IsPassword: false; IsChecked: false; IsFullScreen: false; Scrollable: false; BeforeText: null; FromIndex: -1; ToIndex: -1; ScrollX: -1; ScrollY: -1; MaxScrollX: -1; MaxScrollY: -1; AddedCount: -1; RemovedCount: -1; ParcelableData: null ]"
p790
sS'MovementGranularity'
p791
g6
sa(dp792
S'EventTime'
p793
S'9401203'
p794
sg4
L1449904731584L
sS'recordCount'
p795
g241
sS'EventType'
p796
S'TYPE_VIEW_CLICKED'
p797
sS'PackageName'
p798
S'com.taobao.ishopping'
p799
sS'OutBounds'
p800
S'Rect(642, 906 - 900, 1026)'
p801
sS'Action'
p802
S"[ ClassName: android.widget.RelativeLayout; Text: [ 2'']; ContentDescription: null; ItemCount: -1; CurrentItemIndex: -1; IsEnabled: true; IsPassword: false; IsChecked: false; IsFullScreen: false; Scrollable: false; BeforeText: null; FromIndex: -1; ToIndex: -1; ScrollX: -1; ScrollY: -1; MaxScrollX: -1; MaxScrollY: -1; AddedCount: -1; RemovedCount: -1; ParcelableData: null ]"
p803
sS'MovementGranularity'
p804
g6
sa(dp805
S'EventTime'
p806
S'9401476'
p807
sg4
L1449904731857L
sS'recordCount'
p808
g241
sS'EventType'
p809
S'TYPE_VIEW_CLICKED'
p810
sS'PackageName'
p811
S'com.taobao.ishopping'
p812
sS'OutBounds'
p813
S'Rect(778, 941 - 826, 989)'
p814
sS'Action'
p815
S'[ ClassName: android.widget.ImageView; Text: []; ContentDescription: null; ItemCount: -1; CurrentItemIndex: -1; IsEnabled: true; IsPassword: false; IsChecked: false; IsFullScreen: false; Scrollable: false; BeforeText: null; FromIndex: -1; ToIndex: -1; ScrollX: -1; ScrollY: -1; MaxScrollX: -1; MaxScrollY: -1; AddedCount: -1; RemovedCount: -1; ParcelableData: null ]'
p816
sS'MovementGranularity'
p817
g6
sa(dp818
S'EventTime'
p819
S'9401693'
p820
sg4
L1449904732074L
sS'recordCount'
p821
g241
sS'EventType'
p822
S'TYPE_VIEW_CLICKED'
p823
sS'PackageName'
p824
S'com.taobao.ishopping'
p825
sS'OutBounds'
p826
S'Rect(778, 941 - 826, 989)'
p827
sS'Action'
p828
S'[ ClassName: android.widget.ImageView; Text: []; ContentDescription: null; ItemCount: -1; CurrentItemIndex: -1; IsEnabled: true; IsPassword: false; IsChecked: false; IsFullScreen: false; Scrollable: false; BeforeText: null; FromIndex: -1; ToIndex: -1; ScrollX: -1; ScrollY: -1; MaxScrollX: -1; MaxScrollY: -1; AddedCount: -1; RemovedCount: -1; ParcelableData: null ]'
p829
sS'MovementGranularity'
p830
g6
sa(dp831
S'EventTime'
p832
S'9401899'
p833
sg4
L1449904732280L
sS'recordCount'
p834
g241
sS'EventType'
p835
S'TYPE_VIEW_CLICKED'
p836
sS'PackageName'
p837
S'com.taobao.ishopping'
p838
sS'OutBounds'
p839
S'Rect(642, 906 - 900, 1026)'
p840
sS'Action'
p841
S"[ ClassName: android.widget.RelativeLayout; Text: [ 2'']; ContentDescription: null; ItemCount: -1; CurrentItemIndex: -1; IsEnabled: true; IsPassword: false; IsChecked: false; IsFullScreen: false; Scrollable: false; BeforeText: null; FromIndex: -1; ToIndex: -1; ScrollX: -1; ScrollY: -1; MaxScrollX: -1; MaxScrollY: -1; AddedCount: -1; RemovedCount: -1; ParcelableData: null ]"
p842
sS'MovementGranularity'
p843
g6
sa(dp844
S'EventTime'
p845
S'9402135'
p846
sg4
L1449904732516L
sS'recordCount'
p847
g241
sS'EventType'
p848
S'TYPE_VIEW_CLICKED'
p849
sS'PackageName'
p850
S'com.taobao.ishopping'
p851
sS'OutBounds'
p852
S'Rect(624, 726 - 900, 846)'
p853
sS'Action'
p854
S"[ ClassName: android.widget.RelativeLayout; Text: [ 3'']; ContentDescription: null; ItemCount: -1; CurrentItemIndex: -1; IsEnabled: true; IsPassword: false; IsChecked: false; IsFullScreen: false; Scrollable: false; BeforeText: null; FromIndex: -1; ToIndex: -1; ScrollX: -1; ScrollY: -1; MaxScrollX: -1; MaxScrollY: -1; AddedCount: -1; RemovedCount: -1; ParcelableData: null ]"
p855
sS'MovementGranularity'
p856
g6
sa(dp857
S'EventTime'
p858
S'9402151'
p859
sg4
L1449904732535L
sS'recordCount'
p860
g6
sS'EventType'
p861
S'TYPE_NOTIFICATION_STATE_CHANGED'
p862
sS'PackageName'
p863
S'com.taobao.ishopping'
p864
sS'Action'
p865
S'[ ClassName: android.widget.Toast$TN; Text: [\xe6\x92\xad\xe6\x94\xbe\xe9\x94\x99\xe8\xaf\xaf]; ContentDescription: null; ItemCount: -1; CurrentItemIndex: -1; IsEnabled: false; IsPassword: false; IsChecked: false; IsFullScreen: false; Scrollable: false; BeforeText: null; FromIndex: -1; ToIndex: -1; ScrollX: -1; ScrollY: -1; MaxScrollX: -1; MaxScrollY: -1; AddedCount: -1; RemovedCount: -1; ParcelableData: null ]'
p866
sS'MovementGranularity'
p867
g6
sa(dp868
S'EventTime'
p869
S'9402300'
p870
sg4
L1449904732682L
sS'recordCount'
p871
g241
sS'EventType'
p872
S'TYPE_VIEW_CLICKED'
p873
sS'PackageName'
p874
S'com.taobao.ishopping'
p875
sS'OutBounds'
p876
S'Rect(624, 726 - 900, 846)'
p877
sS'Action'
p878
S"[ ClassName: android.widget.RelativeLayout; Text: [ 3'']; ContentDescription: null; ItemCount: -1; CurrentItemIndex: -1; IsEnabled: true; IsPassword: false; IsChecked: false; IsFullScreen: false; Scrollable: false; BeforeText: null; FromIndex: -1; ToIndex: -1; ScrollX: -1; ScrollY: -1; MaxScrollX: -1; MaxScrollY: -1; AddedCount: -1; RemovedCount: -1; ParcelableData: null ]"
p879
sS'MovementGranularity'
p880
g6
sa(dp881
S'EventTime'
p882
S'9413154'
p883
sg4
L1449904743551L
sS'recordCount'
p884
g6
sS'EventType'
p885
S'TYPE_WINDOW_STATE_CHANGED'
p886
sS'PackageName'
p887
S'com.taobao.ishopping'
p888
sS'OutBounds'
p889
S'Rect(0, 0 - 1080, 1920)'
p890
sS'Action'
p891
S'[ ClassName: com.taobao.ishopping.activity.home.MainActivity; Text: [\xe7\x88\xb1\xe9\x80\x9b\xe8\xa1\x97]; ContentDescription: null; ItemCount: -1; CurrentItemIndex: -1; IsEnabled: true; IsPassword: false; IsChecked: false; IsFullScreen: true; Scrollable: false; BeforeText: null; FromIndex: -1; ToIndex: -1; ScrollX: -1; ScrollY: -1; MaxScrollX: -1; MaxScrollY: -1; AddedCount: -1; RemovedCount: -1; ParcelableData: null ]'
p892
sS'MovementGranularity'
p893
g6
sa(dp894
S'EventTime'
p895
S'9416615'
p896
sg4
L1449904746995L
sS'recordCount'
p897
g6
sS'EventType'
p898
S'TYPE_NOTIFICATION_STATE_CHANGED'
p899
sS'PackageName'
p900
S'com.taobao.ishopping'
p901
sS'Action'
p902
S'[ ClassName: android.widget.Toast$TN; Text: [\xe5\x86\x8d\xe6\x8c\x89\xe4\xb8\x80\xe6\xac\xa1\xe9\x80\x80\xe5\x87\xba\xe7\xa8\x8b\xe5\xba\x8f]; ContentDescription: null; ItemCount: -1; CurrentItemIndex: -1; IsEnabled: false; IsPassword: false; IsChecked: false; IsFullScreen: false; Scrollable: false; BeforeText: null; FromIndex: -1; ToIndex: -1; ScrollX: -1; ScrollY: -1; MaxScrollX: -1; MaxScrollY: -1; AddedCount: -1; RemovedCount: -1; ParcelableData: null ]'
p903
sS'MovementGranularity'
p904
g6
sa(dp905
S'EventTime'
p906
S'9425494'
p907
sg4
L1449904755877L
sS'recordCount'
p908
g6
sS'EventType'
p909
S'TYPE_WINDOW_STATE_CHANGED'
p910
sS'PackageName'
p911
S'com.taobao.ishopping'
p912
sS'OutBounds'
p913
S'Rect(0, 0 - 1080, 1920)'
p914
sS'Action'
p915
S'[ ClassName: com.taobao.ishopping.activity.home.MainActivity; Text: [\xe7\x88\xb1\xe9\x80\x9b\xe8\xa1\x97]; ContentDescription: null; ItemCount: -1; CurrentItemIndex: -1; IsEnabled: true; IsPassword: false; IsChecked: false; IsFullScreen: true; Scrollable: false; BeforeText: null; FromIndex: -1; ToIndex: -1; ScrollX: -1; ScrollY: -1; MaxScrollX: -1; MaxScrollY: -1; AddedCount: -1; RemovedCount: -1; ParcelableData: null ]'
p916
sS'MovementGranularity'
p917
g6
sa.