(lp0
(dp1
S'processID'
p2
S'30439'
p3
sS'SyscTime'
p4
L1449635554050L
sS'priority'
p5
S'E'
p6
sS'tag'
p7
S'external/chromium/net/disk_cache/stat_hub.cc'
p8
sS'threadID'
p9
S'30984'
p10
sS'message'
p11
S"netstack:  STAT_HUB - App com.example.myfristandroid isn't supported\n"
p12
sa(dp13
g2
S'30439'
p14
sg4
L1449635556170L
sg5
g6
sg7
S'SQLiteLog'
p15
sg9
S'31128'
p16
sg11
S'(14) cannot open file at line 30197 of [00bb9c9ce4]\n'
p17
sa(dp18
g2
S'30439'
p19
sg4
L1449635556170L
sg5
g6
sg7
S'SQLiteLog'
p20
sg9
S'31128'
p21
sg11
S'(14) os_unix.c:30197: (2) open(/CachedGeoposition.db) - \n'
p22
sa(dp23
g2
S'30439'
p24
sg4
L1449635556170L
sg5
g6
sg7
S'SQLiteLog'
p25
sg9
S'30984'
p26
sg11
S'(14) cannot open file at line 30197 of [00bb9c9ce4]\n'
p27
sa(dp28
g2
S'30439'
p29
sg4
L1449635556170L
sg5
g6
sg7
S'SQLiteLog'
p30
sg9
S'30984'
p31
sg11
S'(14) os_unix.c:30197: (2) open(/GeolocationPermissions.db) - \n'
p32
sa(dp33
g2
S'30439'
p34
sg4
L1449635563030L
sg5
S'W'
p35
sg7
S'IInputConnectionWrapper'
p36
sg9
S'30439'
p37
sg11
S'performPrivateCommand on inactive InputConnection\n'
p38
sa(dp39
g2
S'30439'
p40
sg4
L1449635570660L
sg5
g6
sg7
S'external/chromium/net/host_resolver_helper/dyn_lib_loader.cc'
p41
sg9
S'31013'
p42
sg11
S'netstack: LIB_MGR - Error loading lib qnet-plugin.so\n'
p43
sa(dp44
g2
S'30439'
p45
sg4
L1449635576030L
sg5
g35
sg7
S'IInputConnectionWrapper'
p46
sg9
S'30439'
p47
sg11
S'performPrivateCommand on inactive InputConnection\n'
p48
sa(dp49
g2
S'30439'
p50
sg4
L1449635579450L
sg5
g35
sg7
S'IInputConnectionWrapper'
p51
sg9
S'30439'
p52
sg11
S'performPrivateCommand on inactive InputConnection\n'
p53
sa(dp54
g2
S'30439'
p55
sg4
L1449635579820L
sg5
g35
sg7
S'Web Console'
p56
sg9
S'30439'
p57
sg11
S'The page at https://m.baidu.com/?from=844b&vit=fps ran insecure content from http://127.0.0.1:6259/getapn?callback=getapn&mcmdf=inapp_test.\n at null:1\n'
p58
sa(dp59
g2
S'30439'
p60
sg4
L1449635579820L
sg5
g35
sg7
S'Web Console'
p61
sg9
S'30439'
p62
sg11
S'The page at https://m.baidu.com/?from=844b&vit=fps ran insecure content from http://127.0.0.1:40310/getapn?callback=getapn&mcmdf=inapp_test.\n at null:1\n'
p63
sa(dp64
g2
S'30439'
p65
sg4
L1449635580840L
sg5
g35
sg7
S'Web Console'
p66
sg9
S'30439'
p67
sg11
S'The page at https://m.baidu.com/?from=844b&vit=fps ran insecure content from http://127.0.0.1:40310/getsearchboxinfo?mcmdf=inapp_boxserver&callback=_box_jsonp695.\n at null:1\n'
p68
sa(dp69
g2
S'30439'
p70
sg4
L1449635580870L
sg5
g35
sg7
S'Web Console'
p71
sg9
S'30439'
p72
sg11
S'The page at https://m.baidu.com/?from=844b&vit=fps ran insecure content from http://127.0.0.1:7777/geolocation?timeout=10000&callback=jsonp2&gps=1&t=0.4254076895304024&_=1449635580875.\n at null:1\n'
p73
sa(dp74
g2
S'30439'
p75
sg4
L1449635588880L
sg5
g35
sg7
S'Web Console'
p76
sg9
S'30439'
p77
sg11
S'The page at https://m.baidu.com/?from=844b&vit=fps ran insecure content from http://127.0.0.1:40310/geolocation?timeout=10000&gps=1&mcmdf=inapp_wiselocation&callback=_box_jsonp696.\n at null:1\n'
p78
sa(dp79
g2
S'30439'
p80
sg4
L1449635590040L
sg5
g35
sg7
S'IInputConnectionWrapper'
p81
sg9
S'30439'
p82
sg11
S'performPrivateCommand on inactive InputConnection\n'
p83
sa(dp84
g2
S'30439'
p85
sg4
L1449635602070L
sg5
g35
sg7
S'Web Console'
p86
sg9
S'30439'
p87
sg11
S'The page at https://m.baidu.com/?from=844b&vit=fps ran insecure content from http://127.0.0.1:6259/getapn?callback=getapn&mcmdf=inapp_test.\n at null:1\n'
p88
sa(dp89
g2
S'30439'
p90
sg4
L1449635602070L
sg5
g35
sg7
S'Web Console'
p91
sg9
S'30439'
p92
sg11
S'The page at https://m.baidu.com/?from=844b&vit=fps ran insecure content from http://127.0.0.1:40310/getapn?callback=getapn&mcmdf=inapp_test.\n at null:1\n'
p93
sa(dp94
g2
S'30439'
p95
sg4
L1449635603450L
sg5
g35
sg7
S'Web Console'
p96
sg9
S'30439'
p97
sg11
S'The page at https://m.baidu.com/?from=844b&vit=fps ran insecure content from http://127.0.0.1:40310/getsearchboxinfo?mcmdf=inapp_boxserver&callback=_box_jsonp398.\n at null:1\n'
p98
sa(dp99
g2
S'30439'
p100
sg4
L1449635603470L
sg5
g35
sg7
S'Web Console'
p101
sg9
S'30439'
p102
sg11
S'The page at https://m.baidu.com/?from=844b&vit=fps ran insecure content from http://127.0.0.1:7777/geolocation?timeout=10000&callback=jsonp2&gps=1&t=0.06844595330767334&_=1449635603482.\n at null:1\n'
p103
sa(dp104
g2
S'30439'
p105
sg4
L1449635606690L
sg5
g35
sg7
S'IInputConnectionWrapper'
p106
sg9
S'30439'
p107
sg11
S'performPrivateCommand on inactive InputConnection\n'
p108
sa(dp109
g2
S'30439'
p110
sg4
L1449635609450L
sg5
g35
sg7
S'IInputConnectionWrapper'
p111
sg9
S'30439'
p112
sg11
S'performPrivateCommand on inactive InputConnection\n'
p113
sa(dp114
g2
S'30439'
p115
sg4
L1449635609630L
sg5
g35
sg7
S'Web Console'
p116
sg9
S'30439'
p117
sg11
S'The page at https://m.baidu.com/?from=844b&vit=fps ran insecure content from http://127.0.0.1:6259/getapn?callback=getapn&mcmdf=inapp_test.\n at null:1\n'
p118
sa(dp119
g2
S'30439'
p120
sg4
L1449635609630L
sg5
g35
sg7
S'Web Console'
p121
sg9
S'30439'
p122
sg11
S'The page at https://m.baidu.com/?from=844b&vit=fps ran insecure content from http://127.0.0.1:40310/getapn?callback=getapn&mcmdf=inapp_test.\n at null:1\n'
p123
sa(dp124
g2
S'30439'
p125
sg4
L1449635610530L
sg5
g35
sg7
S'Web Console'
p126
sg9
S'30439'
p127
sg11
S'The page at https://m.baidu.com/?from=844b&vit=fps ran insecure content from http://127.0.0.1:40310/getsearchboxinfo?mcmdf=inapp_boxserver&callback=_box_jsonp418.\n at null:1\n'
p128
sa(dp129
g2
S'30439'
p130
sg4
L1449635610550L
sg5
g35
sg7
S'Web Console'
p131
sg9
S'30439'
p132
sg11
S'The page at https://m.baidu.com/?from=844b&vit=fps ran insecure content from http://127.0.0.1:7777/geolocation?timeout=10000&callback=jsonp2&gps=1&t=0.5896966145373881&_=1449635610541.\n at null:1\n'
p133
sa(dp134
g2
S'30439'
p135
sg4
L1449635611470L
sg5
g35
sg7
S'Web Console'
p136
sg9
S'30439'
p137
sg11
S'The page at https://m.baidu.com/?from=844b&vit=fps ran insecure content from http://127.0.0.1:40310/geolocation?timeout=10000&gps=1&mcmdf=inapp_wiselocation&callback=_box_jsonp399.\n at null:1\n'
p138
sa(dp139
g2
S'30439'
p140
sg4
L1449635617500L
sg5
g35
sg7
S'IInputConnectionWrapper'
p141
sg9
S'30439'
p142
sg11
S'performPrivateCommand on inactive InputConnection\n'
p143
sa(dp144
g2
S'30439'
p145
sg4
L1449635623460L
sg5
g35
sg7
S'IInputConnectionWrapper'
p146
sg9
S'30439'
p147
sg11
S'performPrivateCommand on inactive InputConnection\n'
p148
sa(dp149
g2
S'30439'
p150
sg4
L1449635626110L
sg5
g35
sg7
S'IInputConnectionWrapper'
p151
sg9
S'30439'
p152
sg11
S'performPrivateCommand on inactive InputConnection\n'
p153
sa(dp154
g2
S'30439'
p155
sg4
L1449635626450L
sg5
g35
sg7
S'Web Console'
p156
sg9
S'30439'
p157
sg11
S'The page at https://m.baidu.com/?from=844b&vit=fps ran insecure content from http://127.0.0.1:6259/getapn?callback=getapn&mcmdf=inapp_test.\n at null:1\n'
p158
sa(dp159
g2
S'30439'
p160
sg4
L1449635626450L
sg5
g35
sg7
S'Web Console'
p161
sg9
S'30439'
p162
sg11
S'The page at https://m.baidu.com/?from=844b&vit=fps ran insecure content from http://127.0.0.1:40310/getapn?callback=getapn&mcmdf=inapp_test.\n at null:1\n'
p163
sa(dp164
g2
S'30439'
p165
sg4
L1449635627190L
sg5
g35
sg7
S'Web Console'
p166
sg9
S'30439'
p167
sg11
S'The page at https://m.baidu.com/?from=844b&vit=fps ran insecure content from http://127.0.0.1:40310/getsearchboxinfo?mcmdf=inapp_boxserver&callback=_box_jsonp64.\n at null:1\n'
p168
sa(dp169
g2
S'30439'
p170
sg4
L1449635627200L
sg5
g35
sg7
S'Web Console'
p171
sg9
S'30439'
p172
sg11
S'The page at https://m.baidu.com/?from=844b&vit=fps ran insecure content from http://127.0.0.1:7777/geolocation?timeout=10000&callback=jsonp2&gps=1&t=0.9978081686422229&_=1449635627202.\n at null:1\n'
p173
sa(dp174
g2
S'30439'
p175
sg4
L1449635632460L
sg5
g35
sg7
S'IInputConnectionWrapper'
p176
sg9
S'30439'
p177
sg11
S'performPrivateCommand on inactive InputConnection\n'
p178
sa(dp179
g2
S'30439'
p180
sg4
L1449635639470L
sg5
g35
sg7
S'IInputConnectionWrapper'
p181
sg9
S'30439'
p182
sg11
S'performPrivateCommand on inactive InputConnection\n'
p183
sa(dp184
g2
S'30439'
p185
sg4
L1449635642490L
sg5
g35
sg7
S'LoadedApk'
p186
sg9
S'30439'
p187
sg11
S'perform long-running operations in onReceive, ordered=false ~duration=491ms: com.example.myfristandroid.MainActivity$CmdReceiver@425405f8 Intent { act=SocketService flg=0x10 (has extras) }\n'
p188
sa(dp189
g2
S'30439'
p190
sg4
L1449635648380L
sg5
g35
sg7
S'dalvikvm'
p191
sg9
S'30568'
p192
sg11
S'threadid=14: thread exiting with uncaught exception (group=0x417b7940)\n'
p193
sa(dp194
g2
S'30439'
p195
sg4
L1449635648380L
sg5
g6
sg7
S'AndroidRuntime'
p196
sg9
S'30568'
p197
sg11
S'FATAL EXCEPTION: Thread-1227\njava.lang.NullPointerException\n\tat android.app.Instrumentation.finish(Instrumentation.java:190)\n\tat cn.edu.nju.ise.kikandroid.AUTInstrument.quitInstr(AUTInstrument.java:195)\n\tat cn.edu.nju.ise.kikandroid.AUTInstrument.startServer(AUTInstrument.java:161)\n\tat cn.edu.nju.ise.kikandroid.AUTInstrument$1.run(AUTInstrument.java:107)\n\tat java.lang.Thread.run(Thread.java:841)\n'
p198
sa.