(lp0
(dp1
S'EventTime'
p2
S'86214277'
p3
sS'SyscTime'
p4
L1449715703359L
sS'recordCount'
p5
S'0'
p6
sS'EventType'
p7
S'TYPE_WINDOW_STATE_CHANGED'
p8
sS'PackageName'
p9
S'com.example.myfristandroid'
p10
sS'OutBounds'
p11
S'Rect(0, 0 - 1080, 1920)'
p12
sS'Action'
p13
S'[ ClassName: com.example.myfristandroid.SplashActivity; Text: [SE-1800\xe7\xa7\xbb\xe5\x8a\xa8APP]; ContentDescription: null; ItemCount: -1; CurrentItemIndex: -1; IsEnabled: true; IsPassword: false; IsChecked: false; IsFullScreen: true; Scrollable: false; BeforeText: null; FromIndex: -1; ToIndex: -1; ScrollX: -1; ScrollY: -1; MaxScrollX: -1; MaxScrollY: -1; AddedCount: -1; RemovedCount: -1; ParcelableData: null ]'
p14
sS'MovementGranularity'
p15
g6
sa(dp16
S'EventTime'
p17
S'86214280'
p18
sg4
L1449715703363L
sS'recordCount'
p19
g6
sS'EventType'
p20
S'TYPE_WINDOW_CONTENT_CHANGED'
p21
sS'PackageName'
p22
S'com.example.myfristandroid'
p23
sS'OutBounds'
p24
S'Rect(0, 0 - 1080, 1920)'
p25
sS'Action'
p26
S'[ ClassName: android.widget.FrameLayout; Text: []; ContentDescription: null; ItemCount: -1; CurrentItemIndex: -1; IsEnabled: true; IsPassword: false; IsChecked: false; IsFullScreen: false; Scrollable: false; BeforeText: null; FromIndex: -1; ToIndex: -1; ScrollX: -1; ScrollY: -1; MaxScrollX: -1; MaxScrollY: -1; AddedCount: -1; RemovedCount: -1; ParcelableData: null ]'
p27
sS'MovementGranularity'
p28
g6
sa(dp29
S'EventTime'
p30
S'86214549'
p31
sg4
L1449715703464L
sS'recordCount'
p32
g6
sS'EventType'
p33
S'TYPE_WINDOW_CONTENT_CHANGED'
p34
sS'PackageName'
p35
S'com.example.myfristandroid'
p36
sS'OutBounds'
p37
S'Rect(0, 0 - 1080, 1920)'
p38
sS'Action'
p39
S'[ ClassName: android.widget.FrameLayout; Text: []; ContentDescription: null; ItemCount: -1; CurrentItemIndex: -1; IsEnabled: true; IsPassword: false; IsChecked: false; IsFullScreen: false; Scrollable: false; BeforeText: null; FromIndex: -1; ToIndex: -1; ScrollX: -1; ScrollY: -1; MaxScrollX: -1; MaxScrollY: -1; AddedCount: -1; RemovedCount: -1; ParcelableData: null ]'
p40
sS'MovementGranularity'
p41
g6
sa(dp42
S'EventTime'
p43
S'86216694'
p44
sg4
L1449715705637L
sS'recordCount'
p45
g6
sS'EventType'
p46
S'TYPE_WINDOW_STATE_CHANGED'
p47
sS'PackageName'
p48
S'com.example.myfristandroid'
p49
sS'OutBounds'
p50
S'Rect(0, 0 - 1080, 1920)'
p51
sS'Action'
p52
S'[ ClassName: com.example.myfristandroid.MainActivity; Text: [SE-1800\xe7\xa7\xbb\xe5\x8a\xa8APP]; ContentDescription: null; ItemCount: -1; CurrentItemIndex: -1; IsEnabled: true; IsPassword: false; IsChecked: false; IsFullScreen: true; Scrollable: false; BeforeText: null; FromIndex: -1; ToIndex: -1; ScrollX: -1; ScrollY: -1; MaxScrollX: -1; MaxScrollY: -1; AddedCount: -1; RemovedCount: -1; ParcelableData: null ]'
p53
sS'MovementGranularity'
p54
g6
sa(dp55
S'EventTime'
p56
S'86216769'
p57
sg4
L1449715705685L
sS'recordCount'
p58
g6
sS'EventType'
p59
S'TYPE_VIEW_SCROLLED'
p60
sS'PackageName'
p61
S'com.example.myfristandroid'
p62
sS'OutBounds'
p63
S'Rect(1098, 624 - 2142, 624)'
p64
sS'Action'
p65
S'[ ClassName: android.widget.ListView; Text: []; ContentDescription: null; ItemCount: 0; CurrentItemIndex: -1; IsEnabled: true; IsPassword: false; IsChecked: false; IsFullScreen: false; Scrollable: false; BeforeText: null; FromIndex: 0; ToIndex: -1; ScrollX: -1; ScrollY: -1; MaxScrollX: -1; MaxScrollY: -1; AddedCount: -1; RemovedCount: -1; ParcelableData: null ]'
p66
sS'MovementGranularity'
p67
g6
sa(dp68
S'EventTime'
p69
S'86216824'
p70
sg4
L1449715705757L
sS'recordCount'
p71
g6
sS'EventType'
p72
S'TYPE_WINDOW_CONTENT_CHANGED'
p73
sS'PackageName'
p74
S'com.example.myfristandroid'
p75
sS'OutBounds'
p76
S'Rect(0, 0 - 1080, 1920)'
p77
sS'Action'
p78
S'[ ClassName: android.widget.FrameLayout; Text: []; ContentDescription: null; ItemCount: -1; CurrentItemIndex: -1; IsEnabled: true; IsPassword: false; IsChecked: false; IsFullScreen: false; Scrollable: false; BeforeText: null; FromIndex: -1; ToIndex: -1; ScrollX: -1; ScrollY: -1; MaxScrollX: -1; MaxScrollY: -1; AddedCount: -1; RemovedCount: -1; ParcelableData: null ]'
p79
sS'MovementGranularity'
p80
g6
sa(dp81
S'EventTime'
p82
S'86217547'
p83
sg4
L1449715706474L
sS'recordCount'
p84
g6
sS'EventType'
p85
S'TYPE_WINDOW_STATE_CHANGED'
p86
sS'PackageName'
p87
S'com.example.myfristandroid'
p88
sS'OutBounds'
p89
S'Rect(0, 0 - 1080, 1920)'
p90
sS'Action'
p91
S'[ ClassName: com.example.myfristandroid.HuzAlertDialog; Text: [\xe6\x8f\x90\xe7\xa4\xba, \xe7\x89\x88\xe6\x9c\xac\xe6\x9c\x89\xe6\x9b\xb4\xe6\x96\xb0\xef\xbc\x8c\xe6\x98\xaf\xe5\x90\xa6\xe9\x9c\x80\xe8\xa6\x81\xe6\x9b\xb4\xe6\x96\xb0, \xe7\xab\x8b\xe5\x8d\xb3\xe6\x9b\xb4\xe6\x96\xb0, \xe7\xa8\x8d\xe5\x90\x8e\xe6\x9b\xb4\xe6\x96\xb0]; ContentDescription: null; ItemCount: -1; CurrentItemIndex: -1; IsEnabled: true; IsPassword: false; IsChecked: false; IsFullScreen: true; Scrollable: false; BeforeText: null; FromIndex: -1; ToIndex: -1; ScrollX: -1; ScrollY: -1; MaxScrollX: -1; MaxScrollY: -1; AddedCount: -1; RemovedCount: -1; ParcelableData: null ]'
p92
sS'MovementGranularity'
p93
g6
sa(dp94
S'EventTime'
p95
S'86217595'
p96
sg4
L1449715706524L
sS'recordCount'
p97
g6
sS'EventType'
p98
S'TYPE_WINDOW_CONTENT_CHANGED'
p99
sS'PackageName'
p100
S'com.example.myfristandroid'
p101
sS'OutBounds'
p102
S'Rect(0, 0 - 1080, 1920)'
p103
sS'Action'
p104
S'[ ClassName: android.widget.FrameLayout; Text: []; ContentDescription: null; ItemCount: -1; CurrentItemIndex: -1; IsEnabled: true; IsPassword: false; IsChecked: false; IsFullScreen: false; Scrollable: false; BeforeText: null; FromIndex: -1; ToIndex: -1; ScrollX: -1; ScrollY: -1; MaxScrollX: -1; MaxScrollY: -1; AddedCount: -1; RemovedCount: -1; ParcelableData: null ]'
p105
sS'MovementGranularity'
p106
g6
sa(dp107
S'EventTime'
p108
S'86235550'
p109
sg4
L1449715724555L
sS'recordCount'
p110
g6
sS'EventType'
p111
S'TYPE_WINDOW_STATE_CHANGED'
p112
sS'PackageName'
p113
S'com.example.myfristandroid'
p114
sS'OutBounds'
p115
S'Rect(0, 0 - 1080, 1920)'
p116
sS'Action'
p117
S'[ ClassName: com.example.myfristandroid.HuzAlertDialog; Text: [\xe6\x8f\x90\xe7\xa4\xba, \xe7\x89\x88\xe6\x9c\xac\xe6\x9c\x89\xe6\x9b\xb4\xe6\x96\xb0\xef\xbc\x8c\xe6\x98\xaf\xe5\x90\xa6\xe9\x9c\x80\xe8\xa6\x81\xe6\x9b\xb4\xe6\x96\xb0, \xe7\xab\x8b\xe5\x8d\xb3\xe6\x9b\xb4\xe6\x96\xb0, \xe7\xa8\x8d\xe5\x90\x8e\xe6\x9b\xb4\xe6\x96\xb0]; ContentDescription: null; ItemCount: -1; CurrentItemIndex: -1; IsEnabled: true; IsPassword: false; IsChecked: false; IsFullScreen: true; Scrollable: false; BeforeText: null; FromIndex: -1; ToIndex: -1; ScrollX: -1; ScrollY: -1; MaxScrollX: -1; MaxScrollY: -1; AddedCount: -1; RemovedCount: -1; ParcelableData: null ]'
p118
sS'MovementGranularity'
p119
g6
sa(dp120
S'EventTime'
p121
S'86236949'
p122
sg4
L1449715725863L
sS'recordCount'
p123
g6
sS'EventType'
p124
S'TYPE_VIEW_CLICKED'
p125
sS'PackageName'
p126
S'com.example.myfristandroid'
p127
sS'OutBounds'
p128
S'Rect(558, 1065 - 1018, 1209)'
p129
sS'Action'
p130
S'[ ClassName: android.widget.Button; Text: [\xe7\xa8\x8d\xe5\x90\x8e\xe6\x9b\xb4\xe6\x96\xb0]; ContentDescription: null; ItemCount: -1; CurrentItemIndex: -1; IsEnabled: true; IsPassword: false; IsChecked: false; IsFullScreen: false; Scrollable: false; BeforeText: null; FromIndex: -1; ToIndex: -1; ScrollX: -1; ScrollY: -1; MaxScrollX: -1; MaxScrollY: -1; AddedCount: -1; RemovedCount: -1; ParcelableData: null ]'
p131
sS'MovementGranularity'
p132
g6
sa(dp133
S'EventTime'
p134
S'86237030'
p135
sg4
L1449715725968L
sS'recordCount'
p136
g6
sS'EventType'
p137
S'TYPE_WINDOW_STATE_CHANGED'
p138
sS'PackageName'
p139
S'com.example.myfristandroid'
p140
sS'OutBounds'
p141
S'Rect(0, 0 - 1080, 1920)'
p142
sS'Action'
p143
S'[ ClassName: com.example.myfristandroid.MainActivity; Text: [SE-1800\xe7\xa7\xbb\xe5\x8a\xa8APP]; ContentDescription: null; ItemCount: -1; CurrentItemIndex: -1; IsEnabled: true; IsPassword: false; IsChecked: false; IsFullScreen: true; Scrollable: false; BeforeText: null; FromIndex: -1; ToIndex: -1; ScrollX: -1; ScrollY: -1; MaxScrollX: -1; MaxScrollY: -1; AddedCount: -1; RemovedCount: -1; ParcelableData: null ]'
p144
sS'MovementGranularity'
p145
g6
sa(dp146
S'EventTime'
p147
S'86239494'
p148
sg4
L1449715728406L
sS'recordCount'
p149
g6
sS'EventType'
p150
S'TYPE_VIEW_CLICKED'
p151
sS'PackageName'
p152
S'com.example.myfristandroid'
p153
sS'OutBounds'
p154
S'Rect(0, 1755 - 270, 1920)'
p155
sS'Action'
p156
S'[ ClassName: android.widget.LinearLayout; Text: [\xe7\x94\xbb\xe9\x9d\xa2\xe6\xb5\x8f\xe8\xa7\x88, \xe7\x94\xbb\xe9\x9d\xa2]; ContentDescription: null; ItemCount: -1; CurrentItemIndex: -1; IsEnabled: true; IsPassword: false; IsChecked: false; IsFullScreen: false; Scrollable: false; BeforeText: null; FromIndex: -1; ToIndex: -1; ScrollX: -1; ScrollY: -1; MaxScrollX: -1; MaxScrollY: -1; AddedCount: -1; RemovedCount: -1; ParcelableData: null ]'
p157
sS'MovementGranularity'
p158
g6
sa(dp159
S'EventTime'
p160
S'86239613'
p161
sg4
L1449715728553L
sS'recordCount'
p162
g6
sS'EventType'
p163
S'TYPE_WINDOW_CONTENT_CHANGED'
p164
sS'PackageName'
p165
S'com.example.myfristandroid'
p166
sS'OutBounds'
p167
S'Rect(0, 0 - 1080, 1920)'
p168
sS'Action'
p169
S'[ ClassName: android.widget.FrameLayout; Text: []; ContentDescription: null; ItemCount: -1; CurrentItemIndex: -1; IsEnabled: true; IsPassword: false; IsChecked: false; IsFullScreen: false; Scrollable: false; BeforeText: null; FromIndex: -1; ToIndex: -1; ScrollX: -1; ScrollY: -1; MaxScrollX: -1; MaxScrollY: -1; AddedCount: -1; RemovedCount: -1; ParcelableData: null ]'
p170
sS'MovementGranularity'
p171
g6
sa(dp172
S'EventTime'
p173
S'86242689'
p174
sg4
L1449715731601L
sS'recordCount'
p175
S'1'
p176
sS'EventType'
p177
S'TYPE_VIEW_CLICKED'
p178
sS'PackageName'
p179
S'com.example.myfristandroid'
p180
sS'OutBounds'
p181
S'Rect(364, 574 - 716, 926)'
p182
sS'Action'
p183
S'[ ClassName: android.widget.RelativeLayout; Text: [\xe6\xb1\x87\xe6\xb5\x81\xe7\xae\xb1]; ContentDescription: null; ItemCount: -1; CurrentItemIndex: -1; IsEnabled: true; IsPassword: false; IsChecked: false; IsFullScreen: false; Scrollable: false; BeforeText: null; FromIndex: -1; ToIndex: -1; ScrollX: -1; ScrollY: -1; MaxScrollX: -1; MaxScrollY: -1; AddedCount: -1; RemovedCount: -1; ParcelableData: null ]'
p184
sS'MovementGranularity'
p185
g6
sa(dp186
S'EventTime'
p187
S'86243808'
p188
sg4
L1449715732743L
sS'recordCount'
p189
g6
sS'EventType'
p190
S'TYPE_WINDOW_STATE_CHANGED'
p191
sS'PackageName'
p192
S'com.example.myfristandroid'
p193
sS'OutBounds'
p194
S'Rect(0, 0 - 1080, 1920)'
p195
sS'Action'
p196
S'[ ClassName: com.example.myfristandroid.graphWebShow; Text: [SE-1800\xe7\xa7\xbb\xe5\x8a\xa8APP]; ContentDescription: null; ItemCount: -1; CurrentItemIndex: -1; IsEnabled: true; IsPassword: false; IsChecked: false; IsFullScreen: true; Scrollable: false; BeforeText: null; FromIndex: -1; ToIndex: -1; ScrollX: -1; ScrollY: -1; MaxScrollX: -1; MaxScrollY: -1; AddedCount: -1; RemovedCount: -1; ParcelableData: null ]'
p197
sS'MovementGranularity'
p198
g6
sa(dp199
S'EventTime'
p200
S'86243809'
p201
sg4
L1449715732747L
sS'recordCount'
p202
g6
sS'EventType'
p203
S'TYPE_WINDOW_CONTENT_CHANGED'
p204
sS'PackageName'
p205
S'com.example.myfristandroid'
p206
sS'OutBounds'
p207
S'Rect(0, 0 - 1080, 1920)'
p208
sS'Action'
p209
S'[ ClassName: android.widget.FrameLayout; Text: []; ContentDescription: null; ItemCount: -1; CurrentItemIndex: -1; IsEnabled: true; IsPassword: false; IsChecked: false; IsFullScreen: false; Scrollable: false; BeforeText: null; FromIndex: -1; ToIndex: -1; ScrollX: -1; ScrollY: -1; MaxScrollX: -1; MaxScrollY: -1; AddedCount: -1; RemovedCount: -1; ParcelableData: null ]'
p210
sS'MovementGranularity'
p211
g6
sa(dp212
S'EventTime'
p213
S'86243933'
p214
sg4
L1449715732845L
sS'recordCount'
p215
g6
sS'EventType'
p216
S'TYPE_WINDOW_CONTENT_CHANGED'
p217
sS'PackageName'
p218
S'com.example.myfristandroid'
p219
sS'OutBounds'
p220
S'Rect(0, 0 - 1080, 1920)'
p221
sS'Action'
p222
S'[ ClassName: android.widget.FrameLayout; Text: []; ContentDescription: null; ItemCount: -1; CurrentItemIndex: -1; IsEnabled: true; IsPassword: false; IsChecked: false; IsFullScreen: false; Scrollable: false; BeforeText: null; FromIndex: -1; ToIndex: -1; ScrollX: -1; ScrollY: -1; MaxScrollX: -1; MaxScrollY: -1; AddedCount: -1; RemovedCount: -1; ParcelableData: null ]'
p223
sS'MovementGranularity'
p224
g6
sa(dp225
S'EventTime'
p226
S'86246247'
p227
sg4
L1449715735217L
sS'recordCount'
p228
g6
sS'EventType'
p229
S'TYPE_WINDOW_CONTENT_CHANGED'
p230
sS'PackageName'
p231
S'com.example.myfristandroid'
p232
sS'OutBounds'
p233
S'Rect(0, 0 - 1920, 1080)'
p234
sS'Action'
p235
S'[ ClassName: android.widget.FrameLayout; Text: []; ContentDescription: null; ItemCount: -1; CurrentItemIndex: -1; IsEnabled: true; IsPassword: false; IsChecked: false; IsFullScreen: false; Scrollable: false; BeforeText: null; FromIndex: -1; ToIndex: -1; ScrollX: -1; ScrollY: -1; MaxScrollX: -1; MaxScrollY: -1; AddedCount: -1; RemovedCount: -1; ParcelableData: null ]'
p236
sS'MovementGranularity'
p237
g6
sa(dp238
S'EventTime'
p239
S'86250677'
p240
sg4
L1449715739604L
sS'recordCount'
p241
g6
sS'EventType'
p242
S'TYPE_WINDOW_STATE_CHANGED'
p243
sS'PackageName'
p244
S'com.example.myfristandroid'
p245
sS'OutBounds'
p246
S'Rect(0, 0 - 1080, 1920)'
p247
sS'Action'
p248
S'[ ClassName: com.example.myfristandroid.MainActivity; Text: [SE-1800\xe7\xa7\xbb\xe5\x8a\xa8APP]; ContentDescription: null; ItemCount: -1; CurrentItemIndex: -1; IsEnabled: true; IsPassword: false; IsChecked: false; IsFullScreen: true; Scrollable: false; BeforeText: null; FromIndex: -1; ToIndex: -1; ScrollX: -1; ScrollY: -1; MaxScrollX: -1; MaxScrollY: -1; AddedCount: -1; RemovedCount: -1; ParcelableData: null ]'
p249
sS'MovementGranularity'
p250
g6
sa(dp251
S'EventTime'
p252
S'86251939'
p253
sg4
L1449715740850L
sS'recordCount'
p254
g176
sS'EventType'
p255
S'TYPE_VIEW_CLICKED'
p256
sS'PackageName'
p257
S'com.example.myfristandroid'
p258
sS'OutBounds'
p259
S'Rect(719, 574 - 1071, 926)'
p260
sS'Action'
p261
S'[ ClassName: android.widget.RelativeLayout; Text: [\xe7\x8e\xaf\xe5\xa2\x83\xe7\x9b\x91\xe6\xb5\x8b]; ContentDescription: null; ItemCount: -1; CurrentItemIndex: -1; IsEnabled: true; IsPassword: false; IsChecked: false; IsFullScreen: false; Scrollable: false; BeforeText: null; FromIndex: -1; ToIndex: -1; ScrollX: -1; ScrollY: -1; MaxScrollX: -1; MaxScrollY: -1; AddedCount: -1; RemovedCount: -1; ParcelableData: null ]'
p262
sS'MovementGranularity'
p263
g6
sa(dp264
S'EventTime'
p265
S'86252172'
p266
sg4
L1449715741085L
sS'recordCount'
p267
g6
sS'EventType'
p268
S'TYPE_WINDOW_STATE_CHANGED'
p269
sS'PackageName'
p270
S'com.example.myfristandroid'
p271
sS'OutBounds'
p272
S'Rect(0, 0 - 1080, 1920)'
p273
sS'Action'
p274
S'[ ClassName: com.example.myfristandroid.graphWebShow; Text: [SE-1800\xe7\xa7\xbb\xe5\x8a\xa8APP]; ContentDescription: null; ItemCount: -1; CurrentItemIndex: -1; IsEnabled: true; IsPassword: false; IsChecked: false; IsFullScreen: true; Scrollable: false; BeforeText: null; FromIndex: -1; ToIndex: -1; ScrollX: -1; ScrollY: -1; MaxScrollX: -1; MaxScrollY: -1; AddedCount: -1; RemovedCount: -1; ParcelableData: null ]'
p275
sS'MovementGranularity'
p276
g6
sa(dp277
S'EventTime'
p278
S'86252274'
p279
sg4
L1449715741187L
sS'recordCount'
p280
g6
sS'EventType'
p281
S'TYPE_WINDOW_CONTENT_CHANGED'
p282
sS'PackageName'
p283
S'com.example.myfristandroid'
p284
sS'OutBounds'
p285
S'Rect(0, 0 - 1080, 1920)'
p286
sS'Action'
p287
S'[ ClassName: android.widget.FrameLayout; Text: []; ContentDescription: null; ItemCount: -1; CurrentItemIndex: -1; IsEnabled: true; IsPassword: false; IsChecked: false; IsFullScreen: false; Scrollable: false; BeforeText: null; FromIndex: -1; ToIndex: -1; ScrollX: -1; ScrollY: -1; MaxScrollX: -1; MaxScrollY: -1; AddedCount: -1; RemovedCount: -1; ParcelableData: null ]'
p288
sS'MovementGranularity'
p289
g6
sa(dp290
S'EventTime'
p291
S'86258717'
p292
sg4
L1449715747630L
sS'recordCount'
p293
g6
sS'EventType'
p294
S'TYPE_WINDOW_CONTENT_CHANGED'
p295
sS'PackageName'
p296
S'com.example.myfristandroid'
p297
sS'OutBounds'
p298
S'Rect(0, 0 - 1920, 1080)'
p299
sS'Action'
p300
S'[ ClassName: android.widget.FrameLayout; Text: []; ContentDescription: null; ItemCount: -1; CurrentItemIndex: -1; IsEnabled: true; IsPassword: false; IsChecked: false; IsFullScreen: false; Scrollable: false; BeforeText: null; FromIndex: -1; ToIndex: -1; ScrollX: -1; ScrollY: -1; MaxScrollX: -1; MaxScrollY: -1; AddedCount: -1; RemovedCount: -1; ParcelableData: null ]'
p301
sS'MovementGranularity'
p302
g6
sa(dp303
S'EventTime'
p304
S'86262377'
p305
sg4
L1449715751314L
sS'recordCount'
p306
g6
sS'EventType'
p307
S'TYPE_WINDOW_STATE_CHANGED'
p308
sS'PackageName'
p309
S'com.example.myfristandroid'
p310
sS'OutBounds'
p311
S'Rect(0, 0 - 1080, 1920)'
p312
sS'Action'
p313
S'[ ClassName: com.example.myfristandroid.MainActivity; Text: [SE-1800\xe7\xa7\xbb\xe5\x8a\xa8APP]; ContentDescription: null; ItemCount: -1; CurrentItemIndex: -1; IsEnabled: true; IsPassword: false; IsChecked: false; IsFullScreen: true; Scrollable: false; BeforeText: null; FromIndex: -1; ToIndex: -1; ScrollX: -1; ScrollY: -1; MaxScrollX: -1; MaxScrollY: -1; AddedCount: -1; RemovedCount: -1; ParcelableData: null ]'
p314
sS'MovementGranularity'
p315
g6
sa(dp316
S'EventTime'
p317
S'86263700'
p318
sg4
L1449715752611L
sS'recordCount'
p319
g176
sS'EventType'
p320
S'TYPE_VIEW_CLICKED'
p321
sS'PackageName'
p322
S'com.example.myfristandroid'
p323
sS'OutBounds'
p324
S'Rect(9, 929 - 361, 1281)'
p325
sS'Action'
p326
S'[ ClassName: android.widget.RelativeLayout; Text: [\xe7\xb3\xbb\xe7\xbb\x9f\xe6\x8b\x93\xe6\x89\x91\xe5\x9b\xbe]; ContentDescription: null; ItemCount: -1; CurrentItemIndex: -1; IsEnabled: true; IsPassword: false; IsChecked: false; IsFullScreen: false; Scrollable: false; BeforeText: null; FromIndex: -1; ToIndex: -1; ScrollX: -1; ScrollY: -1; MaxScrollX: -1; MaxScrollY: -1; AddedCount: -1; RemovedCount: -1; ParcelableData: null ]'
p327
sS'MovementGranularity'
p328
g6
sa(dp329
S'EventTime'
p330
S'86263863'
p331
sg4
L1449715752777L
sS'recordCount'
p332
g6
sS'EventType'
p333
S'TYPE_WINDOW_STATE_CHANGED'
p334
sS'PackageName'
p335
S'com.example.myfristandroid'
p336
sS'OutBounds'
p337
S'Rect(0, 0 - 1080, 1920)'
p338
sS'Action'
p339
S'[ ClassName: com.example.myfristandroid.graphWebShow; Text: [SE-1800\xe7\xa7\xbb\xe5\x8a\xa8APP]; ContentDescription: null; ItemCount: -1; CurrentItemIndex: -1; IsEnabled: true; IsPassword: false; IsChecked: false; IsFullScreen: true; Scrollable: false; BeforeText: null; FromIndex: -1; ToIndex: -1; ScrollX: -1; ScrollY: -1; MaxScrollX: -1; MaxScrollY: -1; AddedCount: -1; RemovedCount: -1; ParcelableData: null ]'
p340
sS'MovementGranularity'
p341
g6
sa(dp342
S'EventTime'
p343
S'86263932'
p344
sg4
L1449715752844L
sS'recordCount'
p345
g6
sS'EventType'
p346
S'TYPE_WINDOW_CONTENT_CHANGED'
p347
sS'PackageName'
p348
S'com.example.myfristandroid'
p349
sS'OutBounds'
p350
S'Rect(0, 0 - 1080, 1920)'
p351
sS'Action'
p352
S'[ ClassName: android.widget.FrameLayout; Text: []; ContentDescription: null; ItemCount: -1; CurrentItemIndex: -1; IsEnabled: true; IsPassword: false; IsChecked: false; IsFullScreen: false; Scrollable: false; BeforeText: null; FromIndex: -1; ToIndex: -1; ScrollX: -1; ScrollY: -1; MaxScrollX: -1; MaxScrollY: -1; AddedCount: -1; RemovedCount: -1; ParcelableData: null ]'
p353
sS'MovementGranularity'
p354
g6
sa(dp355
S'EventTime'
p356
S'86266803'
p357
sg4
L1449715755715L
sS'recordCount'
p358
g6
sS'EventType'
p359
S'TYPE_WINDOW_CONTENT_CHANGED'
p360
sS'PackageName'
p361
S'com.example.myfristandroid'
p362
sS'OutBounds'
p363
S'Rect(0, 0 - 1920, 1080)'
p364
sS'Action'
p365
S'[ ClassName: android.widget.FrameLayout; Text: []; ContentDescription: null; ItemCount: -1; CurrentItemIndex: -1; IsEnabled: true; IsPassword: false; IsChecked: false; IsFullScreen: false; Scrollable: false; BeforeText: null; FromIndex: -1; ToIndex: -1; ScrollX: -1; ScrollY: -1; MaxScrollX: -1; MaxScrollY: -1; AddedCount: -1; RemovedCount: -1; ParcelableData: null ]'
p366
sS'MovementGranularity'
p367
g6
sa(dp368
S'EventTime'
p369
S'86270310'
p370
sg4
L1449715759227L
sS'recordCount'
p371
g6
sS'EventType'
p372
S'TYPE_WINDOW_CONTENT_CHANGED'
p373
sS'PackageName'
p374
S'com.example.myfristandroid'
p375
sS'OutBounds'
p376
S'Rect(0, 0 - 1920, 1080)'
p377
sS'Action'
p378
S'[ ClassName: android.widget.FrameLayout; Text: []; ContentDescription: null; ItemCount: -1; CurrentItemIndex: -1; IsEnabled: true; IsPassword: false; IsChecked: false; IsFullScreen: false; Scrollable: false; BeforeText: null; FromIndex: -1; ToIndex: -1; ScrollX: -1; ScrollY: -1; MaxScrollX: -1; MaxScrollY: -1; AddedCount: -1; RemovedCount: -1; ParcelableData: null ]'
p379
sS'MovementGranularity'
p380
g6
sa(dp381
S'EventTime'
p382
S'86272299'
p383
sg4
L1449715761231L
sS'recordCount'
p384
g6
sS'EventType'
p385
S'TYPE_WINDOW_STATE_CHANGED'
p386
sS'PackageName'
p387
S'com.example.myfristandroid'
p388
sS'OutBounds'
p389
S'Rect(0, 0 - 1080, 1920)'
p390
sS'Action'
p391
S'[ ClassName: com.example.myfristandroid.MainActivity; Text: [SE-1800\xe7\xa7\xbb\xe5\x8a\xa8APP]; ContentDescription: null; ItemCount: -1; CurrentItemIndex: -1; IsEnabled: true; IsPassword: false; IsChecked: false; IsFullScreen: true; Scrollable: false; BeforeText: null; FromIndex: -1; ToIndex: -1; ScrollX: -1; ScrollY: -1; MaxScrollX: -1; MaxScrollY: -1; AddedCount: -1; RemovedCount: -1; ParcelableData: null ]'
p392
sS'MovementGranularity'
p393
g6
sa(dp394
S'EventTime'
p395
S'86273847'
p396
sg4
L1449715762758L
sS'recordCount'
p397
g176
sS'EventType'
p398
S'TYPE_VIEW_CLICKED'
p399
sS'PackageName'
p400
S'com.example.myfristandroid'
p401
sS'OutBounds'
p402
S'Rect(364, 929 - 716, 1281)'
p403
sS'Action'
p404
S'[ ClassName: android.widget.RelativeLayout; Text: [\xe5\x87\x8f\xe6\x8e\x92\xe9\x87\x8f\xe4\xbf\xa1\xe6\x81\xaf]; ContentDescription: null; ItemCount: -1; CurrentItemIndex: -1; IsEnabled: true; IsPassword: false; IsChecked: false; IsFullScreen: false; Scrollable: false; BeforeText: null; FromIndex: -1; ToIndex: -1; ScrollX: -1; ScrollY: -1; MaxScrollX: -1; MaxScrollY: -1; AddedCount: -1; RemovedCount: -1; ParcelableData: null ]'
p405
sS'MovementGranularity'
p406
g6
sa(dp407
S'EventTime'
p408
S'86274024'
p409
sg4
L1449715762939L
sS'recordCount'
p410
g6
sS'EventType'
p411
S'TYPE_WINDOW_STATE_CHANGED'
p412
sS'PackageName'
p413
S'com.example.myfristandroid'
p414
sS'OutBounds'
p415
S'Rect(0, 0 - 1080, 1920)'
p416
sS'Action'
p417
S'[ ClassName: com.example.myfristandroid.graphWebShow; Text: [SE-1800\xe7\xa7\xbb\xe5\x8a\xa8APP]; ContentDescription: null; ItemCount: -1; CurrentItemIndex: -1; IsEnabled: true; IsPassword: false; IsChecked: false; IsFullScreen: true; Scrollable: false; BeforeText: null; FromIndex: -1; ToIndex: -1; ScrollX: -1; ScrollY: -1; MaxScrollX: -1; MaxScrollY: -1; AddedCount: -1; RemovedCount: -1; ParcelableData: null ]'
p418
sS'MovementGranularity'
p419
g6
sa(dp420
S'EventTime'
p421
S'86274103'
p422
sg4
L1449715763014L
sS'recordCount'
p423
g6
sS'EventType'
p424
S'TYPE_WINDOW_CONTENT_CHANGED'
p425
sS'PackageName'
p426
S'com.example.myfristandroid'
p427
sS'OutBounds'
p428
S'Rect(0, 0 - 1080, 1920)'
p429
sS'Action'
p430
S'[ ClassName: android.widget.FrameLayout; Text: []; ContentDescription: null; ItemCount: -1; CurrentItemIndex: -1; IsEnabled: true; IsPassword: false; IsChecked: false; IsFullScreen: false; Scrollable: false; BeforeText: null; FromIndex: -1; ToIndex: -1; ScrollX: -1; ScrollY: -1; MaxScrollX: -1; MaxScrollY: -1; AddedCount: -1; RemovedCount: -1; ParcelableData: null ]'
p431
sS'MovementGranularity'
p432
g6
sa(dp433
S'EventTime'
p434
S'86282564'
p435
sg4
L1449715771507L
sS'recordCount'
p436
g6
sS'EventType'
p437
S'TYPE_WINDOW_CONTENT_CHANGED'
p438
sS'PackageName'
p439
S'com.example.myfristandroid'
p440
sS'OutBounds'
p441
S'Rect(0, 0 - 1080, 1920)'
p442
sS'Action'
p443
S'[ ClassName: android.widget.FrameLayout; Text: []; ContentDescription: null; ItemCount: -1; CurrentItemIndex: -1; IsEnabled: true; IsPassword: false; IsChecked: false; IsFullScreen: false; Scrollable: false; BeforeText: null; FromIndex: -1; ToIndex: -1; ScrollX: -1; ScrollY: -1; MaxScrollX: -1; MaxScrollY: -1; AddedCount: -1; RemovedCount: -1; ParcelableData: null ]'
p444
sS'MovementGranularity'
p445
g6
sa(dp446
S'EventTime'
p447
S'86292069'
p448
sg4
L1449715781084L
sS'recordCount'
p449
g6
sS'EventType'
p450
S'TYPE_WINDOW_STATE_CHANGED'
p451
sS'PackageName'
p452
S'com.example.myfristandroid'
p453
sS'OutBounds'
p454
S'Rect(0, 0 - 1080, 1920)'
p455
sS'Action'
p456
S'[ ClassName: com.example.myfristandroid.MainActivity; Text: [SE-1800\xe7\xa7\xbb\xe5\x8a\xa8APP]; ContentDescription: null; ItemCount: -1; CurrentItemIndex: -1; IsEnabled: true; IsPassword: false; IsChecked: false; IsFullScreen: true; Scrollable: false; BeforeText: null; FromIndex: -1; ToIndex: -1; ScrollX: -1; ScrollY: -1; MaxScrollX: -1; MaxScrollY: -1; AddedCount: -1; RemovedCount: -1; ParcelableData: null ]'
p457
sS'MovementGranularity'
p458
g6
sa(dp459
S'EventTime'
p460
S'86293190'
p461
sg4
L1449715782102L
sS'recordCount'
p462
g176
sS'EventType'
p463
S'TYPE_VIEW_CLICKED'
p464
sS'PackageName'
p465
S'com.example.myfristandroid'
p466
sS'OutBounds'
p467
S'Rect(719, 929 - 1071, 1281)'
p468
sS'Action'
p469
S'[ ClassName: android.widget.RelativeLayout; Text: [\xe5\x85\xb6\xe4\xbb\x96\xe6\xbc\x94\xe7\xa4\xba\xe7\xb3\xbb\xe7\xbb\x9f]; ContentDescription: null; ItemCount: -1; CurrentItemIndex: -1; IsEnabled: true; IsPassword: false; IsChecked: false; IsFullScreen: false; Scrollable: false; BeforeText: null; FromIndex: -1; ToIndex: -1; ScrollX: -1; ScrollY: -1; MaxScrollX: -1; MaxScrollY: -1; AddedCount: -1; RemovedCount: -1; ParcelableData: null ]'
p470
sS'MovementGranularity'
p471
g6
sa(dp472
S'EventTime'
p473
S'86293453'
p474
sg4
L1449715782379L
sS'recordCount'
p475
g6
sS'EventType'
p476
S'TYPE_WINDOW_STATE_CHANGED'
p477
sS'PackageName'
p478
S'com.example.myfristandroid'
p479
sS'OutBounds'
p480
S'Rect(0, 0 - 1080, 1920)'
p481
sS'Action'
p482
S'[ ClassName: com.example.myfristandroid.graphWebShow; Text: [SE-1800\xe7\xa7\xbb\xe5\x8a\xa8APP]; ContentDescription: null; ItemCount: -1; CurrentItemIndex: -1; IsEnabled: true; IsPassword: false; IsChecked: false; IsFullScreen: true; Scrollable: false; BeforeText: null; FromIndex: -1; ToIndex: -1; ScrollX: -1; ScrollY: -1; MaxScrollX: -1; MaxScrollY: -1; AddedCount: -1; RemovedCount: -1; ParcelableData: null ]'
p483
sS'MovementGranularity'
p484
g6
sa(dp485
S'EventTime'
p486
S'86293514'
p487
sg4
L1449715782428L
sS'recordCount'
p488
g6
sS'EventType'
p489
S'TYPE_WINDOW_CONTENT_CHANGED'
p490
sS'PackageName'
p491
S'com.example.myfristandroid'
p492
sS'OutBounds'
p493
S'Rect(0, 0 - 1080, 1920)'
p494
sS'Action'
p495
S'[ ClassName: android.widget.FrameLayout; Text: []; ContentDescription: null; ItemCount: -1; CurrentItemIndex: -1; IsEnabled: true; IsPassword: false; IsChecked: false; IsFullScreen: false; Scrollable: false; BeforeText: null; FromIndex: -1; ToIndex: -1; ScrollX: -1; ScrollY: -1; MaxScrollX: -1; MaxScrollY: -1; AddedCount: -1; RemovedCount: -1; ParcelableData: null ]'
p496
sS'MovementGranularity'
p497
g6
sa(dp498
S'EventTime'
p499
S'86294416'
p500
sg4
L1449715783328L
sS'recordCount'
p501
g6
sS'EventType'
p502
S'TYPE_WINDOW_CONTENT_CHANGED'
p503
sS'PackageName'
p504
S'com.example.myfristandroid'
p505
sS'OutBounds'
p506
S'Rect(0, 0 - 1920, 1080)'
p507
sS'Action'
p508
S'[ ClassName: android.widget.FrameLayout; Text: []; ContentDescription: null; ItemCount: -1; CurrentItemIndex: -1; IsEnabled: true; IsPassword: false; IsChecked: false; IsFullScreen: false; Scrollable: false; BeforeText: null; FromIndex: -1; ToIndex: -1; ScrollX: -1; ScrollY: -1; MaxScrollX: -1; MaxScrollY: -1; AddedCount: -1; RemovedCount: -1; ParcelableData: null ]'
p509
sS'MovementGranularity'
p510
g6
sa(dp511
S'EventTime'
p512
S'86298991'
p513
sg4
L1449715787929L
sS'recordCount'
p514
g6
sS'EventType'
p515
S'TYPE_WINDOW_STATE_CHANGED'
p516
sS'PackageName'
p517
S'com.example.myfristandroid'
p518
sS'OutBounds'
p519
S'Rect(0, 0 - 1080, 1920)'
p520
sS'Action'
p521
S'[ ClassName: com.example.myfristandroid.MainActivity; Text: [SE-1800\xe7\xa7\xbb\xe5\x8a\xa8APP]; ContentDescription: null; ItemCount: -1; CurrentItemIndex: -1; IsEnabled: true; IsPassword: false; IsChecked: false; IsFullScreen: true; Scrollable: false; BeforeText: null; FromIndex: -1; ToIndex: -1; ScrollX: -1; ScrollY: -1; MaxScrollX: -1; MaxScrollY: -1; AddedCount: -1; RemovedCount: -1; ParcelableData: null ]'
p522
sS'MovementGranularity'
p523
g6
sa(dp524
S'EventTime'
p525
S'86302614'
p526
sg4
L1449715791526L
sS'recordCount'
p527
g6
sS'EventType'
p528
S'TYPE_VIEW_CLICKED'
p529
sS'PackageName'
p530
S'com.example.myfristandroid'
p531
sS'OutBounds'
p532
S'Rect(540, 1755 - 810, 1920)'
p533
sS'Action'
p534
S'[ ClassName: android.widget.LinearLayout; Text: [\xe6\x9f\xa5\xe7\x9c\x8b\xe5\xae\x9e\xe6\x97\xb6\xe5\x91\x8a\xe8\xad\xa6\xe4\xbf\xa1\xe6\x81\xaf, \xe5\x91\x8a\xe8\xad\xa6]; ContentDescription: null; ItemCount: -1; CurrentItemIndex: -1; IsEnabled: true; IsPassword: false; IsChecked: false; IsFullScreen: false; Scrollable: false; BeforeText: null; FromIndex: -1; ToIndex: -1; ScrollX: -1; ScrollY: -1; MaxScrollX: -1; MaxScrollY: -1; AddedCount: -1; RemovedCount: -1; ParcelableData: null ]'
p535
sS'MovementGranularity'
p536
g6
sa(dp537
S'EventTime'
p538
S'86302622'
p539
sg4
L1449715791563L
sS'recordCount'
p540
g6
sS'EventType'
p541
S'TYPE_VIEW_FOCUSED'
p542
sS'PackageName'
p543
S'com.example.myfristandroid'
p544
sS'OutBounds'
p545
S'Rect(323, 375 - 1385, 465)'
p546
sS'Action'
p547
S'[ ClassName: android.widget.EditText; Text: [\xe6\x90\x9c\xe7\xb4\xa2]; ContentDescription: null; ItemCount: 8; CurrentItemIndex: 2; IsEnabled: true; IsPassword: false; IsChecked: false; IsFullScreen: false; Scrollable: false; BeforeText: null; FromIndex: -1; ToIndex: -1; ScrollX: -1; ScrollY: -1; MaxScrollX: -1; MaxScrollY: -1; AddedCount: -1; RemovedCount: -1; ParcelableData: null ]'
p548
sS'MovementGranularity'
p549
g6
sa(dp550
S'EventTime'
p551
S'86302731'
p552
sg4
L1449715791670L
sS'recordCount'
p553
g6
sS'EventType'
p554
S'TYPE_WINDOW_CONTENT_CHANGED'
p555
sS'PackageName'
p556
S'com.example.myfristandroid'
p557
sS'OutBounds'
p558
S'Rect(0, 0 - 1080, 1920)'
p559
sS'Action'
p560
S'[ ClassName: android.widget.FrameLayout; Text: []; ContentDescription: null; ItemCount: -1; CurrentItemIndex: -1; IsEnabled: true; IsPassword: false; IsChecked: false; IsFullScreen: false; Scrollable: false; BeforeText: null; FromIndex: -1; ToIndex: -1; ScrollX: -1; ScrollY: -1; MaxScrollX: -1; MaxScrollY: -1; AddedCount: -1; RemovedCount: -1; ParcelableData: null ]'
p561
sS'MovementGranularity'
p562
g6
sa(dp563
S'EventTime'
p564
S'86302789'
p565
sg4
L1449715791723L
sS'recordCount'
p566
g6
sS'EventType'
p567
S'TYPE_VIEW_SCROLLED'
p568
sS'PackageName'
p569
S'com.example.myfristandroid'
p570
sS'OutBounds'
p571
S'Rect(0, 210 - 1080, 1755)'
p572
sS'Action'
p573
S'[ ClassName: android.support.v4.view.ViewPager; Text: []; ContentDescription: null; ItemCount: -1; CurrentItemIndex: -1; IsEnabled: true; IsPassword: false; IsChecked: false; IsFullScreen: false; Scrollable: false; BeforeText: null; FromIndex: -1; ToIndex: -1; ScrollX: -1; ScrollY: -1; MaxScrollX: -1; MaxScrollY: -1; AddedCount: -1; RemovedCount: -1; ParcelableData: null ]'
p574
sS'MovementGranularity'
p575
g6
sa(dp576
S'EventTime'
p577
S'86302915'
p578
sg4
L1449715791850L
sS'recordCount'
p579
g6
sS'EventType'
p580
S'TYPE_VIEW_SCROLLED'
p581
sS'PackageName'
p582
S'com.example.myfristandroid'
p583
sS'OutBounds'
p584
S'Rect(0, 210 - 1080, 1755)'
p585
sS'Action'
p586
S'[ ClassName: android.support.v4.view.ViewPager; Text: []; ContentDescription: null; ItemCount: -1; CurrentItemIndex: -1; IsEnabled: true; IsPassword: false; IsChecked: false; IsFullScreen: false; Scrollable: false; BeforeText: null; FromIndex: -1; ToIndex: -1; ScrollX: -1; ScrollY: -1; MaxScrollX: -1; MaxScrollY: -1; AddedCount: -1; RemovedCount: -1; ParcelableData: null ]'
p587
sS'MovementGranularity'
p588
g6
sa(dp589
S'EventTime'
p590
S'86303073'
p591
sg4
L1449715792023L
sS'recordCount'
p592
g6
sS'EventType'
p593
S'TYPE_WINDOW_CONTENT_CHANGED'
p594
sS'PackageName'
p595
S'com.example.myfristandroid'
p596
sS'OutBounds'
p597
S'Rect(0, 0 - 1080, 1920)'
p598
sS'Action'
p599
S'[ ClassName: android.widget.FrameLayout; Text: []; ContentDescription: null; ItemCount: -1; CurrentItemIndex: -1; IsEnabled: true; IsPassword: false; IsChecked: false; IsFullScreen: false; Scrollable: false; BeforeText: null; FromIndex: -1; ToIndex: -1; ScrollX: -1; ScrollY: -1; MaxScrollX: -1; MaxScrollY: -1; AddedCount: -1; RemovedCount: -1; ParcelableData: null ]'
p600
sS'MovementGranularity'
p601
g6
sa(dp602
S'EventTime'
p603
S'86303354'
p604
sg4
L1449715792264L
sS'recordCount'
p605
g6
sS'EventType'
p606
S'TYPE_VIEW_CLICKED'
p607
sS'PackageName'
p608
S'com.example.myfristandroid'
p609
sS'OutBounds'
p610
S'Rect(810, 1755 - 1080, 1920)'
p611
sS'Action'
p612
S'[ ClassName: android.widget.LinearLayout; Text: [\xe8\xae\xbe\xe7\xbd\xae\xe7\xb3\xbb\xe7\xbb\x9f\xe8\xbf\x90\xe8\xa1\x8c\xe5\x8f\x82\xe6\x95\xb0, \xe8\xae\xbe\xe7\xbd\xae]; ContentDescription: null; ItemCount: -1; CurrentItemIndex: -1; IsEnabled: true; IsPassword: false; IsChecked: false; IsFullScreen: false; Scrollable: false; BeforeText: null; FromIndex: -1; ToIndex: -1; ScrollX: -1; ScrollY: -1; MaxScrollX: -1; MaxScrollY: -1; AddedCount: -1; RemovedCount: -1; ParcelableData: null ]'
p613
sS'MovementGranularity'
p614
g6
sa(dp615
S'EventTime'
p616
S'86303359'
p617
sg4
L1449715792282L
sS'recordCount'
p618
g6
sS'EventType'
p619
S'TYPE_VIEW_FOCUSED'
p620
sS'PackageName'
p621
S'com.example.myfristandroid'
p622
sS'OutBounds'
p623
S'Rect(332, 225 - 1097, 315)'
p624
sS'Action'
p625
S'[ ClassName: android.widget.EditText; Text: [\xe6\x9c\x8d\xe5\x8a\xa1\xe5\x99\xa8\xe5\x9c\xb0\xe5\x9d\x80]; ContentDescription: null; ItemCount: 10; CurrentItemIndex: 0; IsEnabled: true; IsPassword: false; IsChecked: false; IsFullScreen: false; Scrollable: false; BeforeText: null; FromIndex: -1; ToIndex: -1; ScrollX: -1; ScrollY: -1; MaxScrollX: -1; MaxScrollY: -1; AddedCount: -1; RemovedCount: -1; ParcelableData: null ]'
p626
sS'MovementGranularity'
p627
g6
sa(dp628
S'EventTime'
p629
S'86303378'
p630
sg4
L1449715792297L
sS'recordCount'
p631
g6
sS'EventType'
p632
S'TYPE_VIEW_TEXT_SELECTION_CHANGED'
p633
sS'PackageName'
p634
S'com.example.myfristandroid'
p635
sS'OutBounds'
p636
S'Rect(317, 330 - 1082, 420)'
p637
sS'Action'
p638
S'[ ClassName: android.widget.EditText; Text: [143]; ContentDescription: null; ItemCount: 3; CurrentItemIndex: -1; IsEnabled: true; IsPassword: false; IsChecked: false; IsFullScreen: false; Scrollable: false; BeforeText: null; FromIndex: 0; ToIndex: 0; ScrollX: -1; ScrollY: -1; MaxScrollX: -1; MaxScrollY: -1; AddedCount: -1; RemovedCount: -1; ParcelableData: null ]'
p639
sS'MovementGranularity'
p640
g6
sa(dp641
S'EventTime'
p642
S'86303464'
p643
sg4
L1449715792390L
sS'recordCount'
p644
g6
sS'EventType'
p645
S'TYPE_WINDOW_CONTENT_CHANGED'
p646
sS'PackageName'
p647
S'com.example.myfristandroid'
p648
sS'OutBounds'
p649
S'Rect(0, 0 - 1080, 1920)'
p650
sS'Action'
p651
S'[ ClassName: android.widget.FrameLayout; Text: []; ContentDescription: null; ItemCount: -1; CurrentItemIndex: -1; IsEnabled: true; IsPassword: false; IsChecked: false; IsFullScreen: false; Scrollable: false; BeforeText: null; FromIndex: -1; ToIndex: -1; ScrollX: -1; ScrollY: -1; MaxScrollX: -1; MaxScrollY: -1; AddedCount: -1; RemovedCount: -1; ParcelableData: null ]'
p652
sS'MovementGranularity'
p653
g6
sa(dp654
S'EventTime'
p655
S'86303524'
p656
sg4
L1449715792449L
sS'recordCount'
p657
g6
sS'EventType'
p658
S'TYPE_VIEW_SCROLLED'
p659
sS'PackageName'
p660
S'com.example.myfristandroid'
p661
sS'OutBounds'
p662
S'Rect(0, 210 - 1080, 1755)'
p663
sS'Action'
p664
S'[ ClassName: android.support.v4.view.ViewPager; Text: []; ContentDescription: null; ItemCount: -1; CurrentItemIndex: -1; IsEnabled: true; IsPassword: false; IsChecked: false; IsFullScreen: false; Scrollable: false; BeforeText: null; FromIndex: -1; ToIndex: -1; ScrollX: -1; ScrollY: -1; MaxScrollX: -1; MaxScrollY: -1; AddedCount: -1; RemovedCount: -1; ParcelableData: null ]'
p665
sS'MovementGranularity'
p666
g6
sa(dp667
S'EventTime'
p668
S'86305361'
p669
sg4
L1449715794272L
sS'recordCount'
p670
g6
sS'EventType'
p671
S'TYPE_VIEW_CLICKED'
p672
sS'PackageName'
p673
S'com.example.myfristandroid'
p674
sS'OutBounds'
p675
S'Rect(270, 1755 - 540, 1920)'
p676
sS'Action'
p677
S'[ ClassName: android.widget.LinearLayout; Text: [\xe6\x9f\xa5\xe7\x9c\x8b\xe5\xae\x9e\xe6\x97\xb6\xe6\x95\xb0\xe6\x8d\xae\xe4\xbf\xa1\xe6\x81\xaf, \xe6\x95\xb0\xe6\x8d\xae]; ContentDescription: null; ItemCount: -1; CurrentItemIndex: -1; IsEnabled: true; IsPassword: false; IsChecked: false; IsFullScreen: false; Scrollable: false; BeforeText: null; FromIndex: -1; ToIndex: -1; ScrollX: -1; ScrollY: -1; MaxScrollX: -1; MaxScrollY: -1; AddedCount: -1; RemovedCount: -1; ParcelableData: null ]'
p678
sS'MovementGranularity'
p679
g6
sa(dp680
S'EventTime'
p681
S'86305367'
p682
sg4
L1449715794292L
sS'recordCount'
p683
g6
sS'EventType'
p684
S'TYPE_VIEW_FOCUSED'
p685
sS'PackageName'
p686
S'com.example.myfristandroid'
p687
sS'OutBounds'
p688
S'Rect(-398, 450 - 663, 540)'
p689
sS'Action'
p690
S'[ ClassName: android.widget.EditText; Text: [\xe6\x90\x9c\xe7\xb4\xa2]; ContentDescription: null; ItemCount: 10; CurrentItemIndex: 4; IsEnabled: true; IsPassword: false; IsChecked: false; IsFullScreen: false; Scrollable: false; BeforeText: null; FromIndex: -1; ToIndex: -1; ScrollX: -1; ScrollY: -1; MaxScrollX: -1; MaxScrollY: -1; AddedCount: -1; RemovedCount: -1; ParcelableData: null ]'
p691
sS'MovementGranularity'
p692
g6
sa(dp693
S'EventTime'
p694
S'86305466'
p695
sg4
L1449715794402L
sS'recordCount'
p696
g6
sS'EventType'
p697
S'TYPE_WINDOW_CONTENT_CHANGED'
p698
sS'PackageName'
p699
S'com.example.myfristandroid'
p700
sS'OutBounds'
p701
S'Rect(0, 0 - 1080, 1920)'
p702
sS'Action'
p703
S'[ ClassName: android.widget.FrameLayout; Text: []; ContentDescription: null; ItemCount: -1; CurrentItemIndex: -1; IsEnabled: true; IsPassword: false; IsChecked: false; IsFullScreen: false; Scrollable: false; BeforeText: null; FromIndex: -1; ToIndex: -1; ScrollX: -1; ScrollY: -1; MaxScrollX: -1; MaxScrollY: -1; AddedCount: -1; RemovedCount: -1; ParcelableData: null ]'
p704
sS'MovementGranularity'
p705
g6
sa(dp706
S'EventTime'
p707
S'86305488'
p708
sg4
L1449715794426L
sS'recordCount'
p709
g6
sS'EventType'
p710
S'TYPE_VIEW_SCROLLED'
p711
sS'PackageName'
p712
S'com.example.myfristandroid'
p713
sS'OutBounds'
p714
S'Rect(0, 210 - 1080, 1755)'
p715
sS'Action'
p716
S'[ ClassName: android.support.v4.view.ViewPager; Text: []; ContentDescription: null; ItemCount: -1; CurrentItemIndex: -1; IsEnabled: true; IsPassword: false; IsChecked: false; IsFullScreen: false; Scrollable: false; BeforeText: null; FromIndex: -1; ToIndex: -1; ScrollX: -1; ScrollY: -1; MaxScrollX: -1; MaxScrollY: -1; AddedCount: -1; RemovedCount: -1; ParcelableData: null ]'
p717
sS'MovementGranularity'
p718
g6
sa(dp719
S'EventTime'
p720
S'86305593'
p721
sg4
L1449715794528L
sS'recordCount'
p722
g6
sS'EventType'
p723
S'TYPE_VIEW_SCROLLED'
p724
sS'PackageName'
p725
S'com.example.myfristandroid'
p726
sS'OutBounds'
p727
S'Rect(0, 210 - 1080, 1755)'
p728
sS'Action'
p729
S'[ ClassName: android.support.v4.view.ViewPager; Text: []; ContentDescription: null; ItemCount: -1; CurrentItemIndex: -1; IsEnabled: true; IsPassword: false; IsChecked: false; IsFullScreen: false; Scrollable: false; BeforeText: null; FromIndex: -1; ToIndex: -1; ScrollX: -1; ScrollY: -1; MaxScrollX: -1; MaxScrollY: -1; AddedCount: -1; RemovedCount: -1; ParcelableData: null ]'
p730
sS'MovementGranularity'
p731
g6
sa(dp732
S'EventTime'
p733
S'86305725'
p734
sg4
L1449715794670L
sS'recordCount'
p735
g6
sS'EventType'
p736
S'TYPE_VIEW_SCROLLED'
p737
sS'PackageName'
p738
S'com.example.myfristandroid'
p739
sS'OutBounds'
p740
S'Rect(0, 210 - 1080, 1755)'
p741
sS'Action'
p742
S'[ ClassName: android.support.v4.view.ViewPager; Text: []; ContentDescription: null; ItemCount: -1; CurrentItemIndex: -1; IsEnabled: true; IsPassword: false; IsChecked: false; IsFullScreen: false; Scrollable: false; BeforeText: null; FromIndex: -1; ToIndex: -1; ScrollX: -1; ScrollY: -1; MaxScrollX: -1; MaxScrollY: -1; AddedCount: -1; RemovedCount: -1; ParcelableData: null ]'
p743
sS'MovementGranularity'
p744
g6
sa(dp745
S'EventTime'
p746
S'86305822'
p747
sg4
L1449715794763L
sS'recordCount'
p748
g6
sS'EventType'
p749
S'TYPE_WINDOW_CONTENT_CHANGED'
p750
sS'PackageName'
p751
S'com.example.myfristandroid'
p752
sS'OutBounds'
p753
S'Rect(0, 0 - 1080, 1920)'
p754
sS'Action'
p755
S'[ ClassName: android.widget.FrameLayout; Text: []; ContentDescription: null; ItemCount: -1; CurrentItemIndex: -1; IsEnabled: true; IsPassword: false; IsChecked: false; IsFullScreen: false; Scrollable: false; BeforeText: null; FromIndex: -1; ToIndex: -1; ScrollX: -1; ScrollY: -1; MaxScrollX: -1; MaxScrollY: -1; AddedCount: -1; RemovedCount: -1; ParcelableData: null ]'
p756
sS'MovementGranularity'
p757
g6
sa(dp758
S'EventTime'
p759
S'86306045'
p760
sg4
L1449715794955L
sS'recordCount'
p761
g6
sS'EventType'
p762
S'TYPE_VIEW_CLICKED'
p763
sS'PackageName'
p764
S'com.example.myfristandroid'
p765
sS'OutBounds'
p766
S'Rect(0, 1755 - 270, 1920)'
p767
sS'Action'
p768
S'[ ClassName: android.widget.LinearLayout; Text: [\xe7\x94\xbb\xe9\x9d\xa2\xe6\xb5\x8f\xe8\xa7\x88, \xe7\x94\xbb\xe9\x9d\xa2]; ContentDescription: null; ItemCount: -1; CurrentItemIndex: -1; IsEnabled: true; IsPassword: false; IsChecked: false; IsFullScreen: false; Scrollable: false; BeforeText: null; FromIndex: -1; ToIndex: -1; ScrollX: -1; ScrollY: -1; MaxScrollX: -1; MaxScrollY: -1; AddedCount: -1; RemovedCount: -1; ParcelableData: null ]'
p769
sS'MovementGranularity'
p770
g6
sa(dp771
S'EventTime'
p772
S'86306047'
p773
sg4
L1449715794986L
sS'recordCount'
p774
g6
sS'EventType'
p775
S'TYPE_VIEW_FOCUSED'
p776
sS'PackageName'
p777
S'com.example.myfristandroid'
p778
sS'OutBounds'
p779
S'Rect(-36, 210 - 1043, 1755)'
p780
sS'Action'
p781
S'[ ClassName: android.widget.GridView; Text: []; ContentDescription: null; ItemCount: 9; CurrentItemIndex: -1; IsEnabled: true; IsPassword: false; IsChecked: false; IsFullScreen: false; Scrollable: false; BeforeText: null; FromIndex: 0; ToIndex: 8; ScrollX: -1; ScrollY: -1; MaxScrollX: -1; MaxScrollY: -1; AddedCount: -1; RemovedCount: -1; ParcelableData: null ]'
p782
sS'MovementGranularity'
p783
g6
sa(dp784
S'EventTime'
p785
S'86306153'
p786
sg4
L1449715795083L
sS'recordCount'
p787
g6
sS'EventType'
p788
S'TYPE_WINDOW_CONTENT_CHANGED'
p789
sS'PackageName'
p790
S'com.example.myfristandroid'
p791
sS'OutBounds'
p792
S'Rect(0, 0 - 1080, 1920)'
p793
sS'Action'
p794
S'[ ClassName: android.widget.FrameLayout; Text: []; ContentDescription: null; ItemCount: -1; CurrentItemIndex: -1; IsEnabled: true; IsPassword: false; IsChecked: false; IsFullScreen: false; Scrollable: false; BeforeText: null; FromIndex: -1; ToIndex: -1; ScrollX: -1; ScrollY: -1; MaxScrollX: -1; MaxScrollY: -1; AddedCount: -1; RemovedCount: -1; ParcelableData: null ]'
p795
sS'MovementGranularity'
p796
g6
sa(dp797
S'EventTime'
p798
S'86306233'
p799
sg4
L1449715795161L
sS'recordCount'
p800
g6
sS'EventType'
p801
S'TYPE_VIEW_SCROLLED'
p802
sS'PackageName'
p803
S'com.example.myfristandroid'
p804
sS'OutBounds'
p805
S'Rect(0, 210 - 1080, 1755)'
p806
sS'Action'
p807
S'[ ClassName: android.support.v4.view.ViewPager; Text: []; ContentDescription: null; ItemCount: -1; CurrentItemIndex: -1; IsEnabled: true; IsPassword: false; IsChecked: false; IsFullScreen: false; Scrollable: false; BeforeText: null; FromIndex: -1; ToIndex: -1; ScrollX: -1; ScrollY: -1; MaxScrollX: -1; MaxScrollY: -1; AddedCount: -1; RemovedCount: -1; ParcelableData: null ]'
p808
sS'MovementGranularity'
p809
g6
sa(dp810
S'EventTime'
p811
S'86309203'
p812
sg4
L1449715798114L
sS'recordCount'
p813
g176
sS'EventType'
p814
S'TYPE_VIEW_CLICKED'
p815
sS'PackageName'
p816
S'com.example.myfristandroid'
p817
sS'OutBounds'
p818
S'Rect(364, 929 - 716, 1281)'
p819
sS'Action'
p820
S'[ ClassName: android.widget.RelativeLayout; Text: [\xe5\x87\x8f\xe6\x8e\x92\xe9\x87\x8f\xe4\xbf\xa1\xe6\x81\xaf]; ContentDescription: null; ItemCount: -1; CurrentItemIndex: -1; IsEnabled: true; IsPassword: false; IsChecked: false; IsFullScreen: false; Scrollable: false; BeforeText: null; FromIndex: -1; ToIndex: -1; ScrollX: -1; ScrollY: -1; MaxScrollX: -1; MaxScrollY: -1; AddedCount: -1; RemovedCount: -1; ParcelableData: null ]'
p821
sS'MovementGranularity'
p822
g6
sa(dp823
S'EventTime'
p824
S'86309441'
p825
sg4
L1449715798358L
sS'recordCount'
p826
g6
sS'EventType'
p827
S'TYPE_WINDOW_STATE_CHANGED'
p828
sS'PackageName'
p829
S'com.example.myfristandroid'
p830
sS'OutBounds'
p831
S'Rect(0, 0 - 1080, 1920)'
p832
sS'Action'
p833
S'[ ClassName: com.example.myfristandroid.graphWebShow; Text: [SE-1800\xe7\xa7\xbb\xe5\x8a\xa8APP]; ContentDescription: null; ItemCount: -1; CurrentItemIndex: -1; IsEnabled: true; IsPassword: false; IsChecked: false; IsFullScreen: true; Scrollable: false; BeforeText: null; FromIndex: -1; ToIndex: -1; ScrollX: -1; ScrollY: -1; MaxScrollX: -1; MaxScrollY: -1; AddedCount: -1; RemovedCount: -1; ParcelableData: null ]'
p834
sS'MovementGranularity'
p835
g6
sa(dp836
S'EventTime'
p837
S'86309443'
p838
sg4
L1449715798361L
sS'recordCount'
p839
g6
sS'EventType'
p840
S'TYPE_WINDOW_CONTENT_CHANGED'
p841
sS'PackageName'
p842
S'com.example.myfristandroid'
p843
sS'OutBounds'
p844
S'Rect(0, 0 - 1080, 1920)'
p845
sS'Action'
p846
S'[ ClassName: android.widget.FrameLayout; Text: []; ContentDescription: null; ItemCount: -1; CurrentItemIndex: -1; IsEnabled: true; IsPassword: false; IsChecked: false; IsFullScreen: false; Scrollable: false; BeforeText: null; FromIndex: -1; ToIndex: -1; ScrollX: -1; ScrollY: -1; MaxScrollX: -1; MaxScrollY: -1; AddedCount: -1; RemovedCount: -1; ParcelableData: null ]'
p847
sS'MovementGranularity'
p848
g6
sa(dp849
S'EventTime'
p850
S'86309544'
p851
sg4
L1449715798457L
sS'recordCount'
p852
g6
sS'EventType'
p853
S'TYPE_WINDOW_CONTENT_CHANGED'
p854
sS'PackageName'
p855
S'com.example.myfristandroid'
p856
sS'OutBounds'
p857
S'Rect(0, 0 - 1080, 1920)'
p858
sS'Action'
p859
S'[ ClassName: android.widget.FrameLayout; Text: []; ContentDescription: null; ItemCount: -1; CurrentItemIndex: -1; IsEnabled: true; IsPassword: false; IsChecked: false; IsFullScreen: false; Scrollable: false; BeforeText: null; FromIndex: -1; ToIndex: -1; ScrollX: -1; ScrollY: -1; MaxScrollX: -1; MaxScrollY: -1; AddedCount: -1; RemovedCount: -1; ParcelableData: null ]'
p860
sS'MovementGranularity'
p861
g6
sa(dp862
S'EventTime'
p863
S'86320043'
p864
sg4
L1449715808954L
sS'recordCount'
p865
g6
sS'EventType'
p866
S'TYPE_VIEW_CLICKED'
p867
sS'PackageName'
p868
S'com.example.myfristandroid'
p869
sS'OutBounds'
p870
S'Rect(0, 75 - 120, 210)'
p871
sS'Action'
p872
S'[ ClassName: android.widget.ImageButton; Text: []; ContentDescription: null; ItemCount: -1; CurrentItemIndex: -1; IsEnabled: true; IsPassword: false; IsChecked: false; IsFullScreen: false; Scrollable: false; BeforeText: null; FromIndex: -1; ToIndex: -1; ScrollX: -1; ScrollY: -1; MaxScrollX: -1; MaxScrollY: -1; AddedCount: -1; RemovedCount: -1; ParcelableData: null ]'
p873
sS'MovementGranularity'
p874
g6
sa(dp875
S'EventTime'
p876
S'86320169'
p877
sg4
L1449715809101L
sS'recordCount'
p878
g6
sS'EventType'
p879
S'TYPE_WINDOW_STATE_CHANGED'
p880
sS'PackageName'
p881
S'com.example.myfristandroid'
p882
sS'OutBounds'
p883
S'Rect(0, 0 - 1080, 1920)'
p884
sS'Action'
p885
S'[ ClassName: com.example.myfristandroid.MainActivity; Text: [SE-1800\xe7\xa7\xbb\xe5\x8a\xa8APP]; ContentDescription: null; ItemCount: -1; CurrentItemIndex: -1; IsEnabled: true; IsPassword: false; IsChecked: false; IsFullScreen: true; Scrollable: false; BeforeText: null; FromIndex: -1; ToIndex: -1; ScrollX: -1; ScrollY: -1; MaxScrollX: -1; MaxScrollY: -1; AddedCount: -1; RemovedCount: -1; ParcelableData: null ]'
p886
sS'MovementGranularity'
p887
g6
sa(dp888
S'EventTime'
p889
S'86326102'
p890
sg4
L1449715815016L
sS'recordCount'
p891
g6
sS'EventType'
p892
S'TYPE_VIEW_CLICKED'
p893
sS'PackageName'
p894
S'com.example.myfristandroid'
p895
sS'OutBounds'
p896
S'Rect(270, 1755 - 540, 1920)'
p897
sS'Action'
p898
S'[ ClassName: android.widget.LinearLayout; Text: [\xe6\x9f\xa5\xe7\x9c\x8b\xe5\xae\x9e\xe6\x97\xb6\xe6\x95\xb0\xe6\x8d\xae\xe4\xbf\xa1\xe6\x81\xaf, \xe6\x95\xb0\xe6\x8d\xae]; ContentDescription: null; ItemCount: -1; CurrentItemIndex: -1; IsEnabled: true; IsPassword: false; IsChecked: false; IsFullScreen: false; Scrollable: false; BeforeText: null; FromIndex: -1; ToIndex: -1; ScrollX: -1; ScrollY: -1; MaxScrollX: -1; MaxScrollY: -1; AddedCount: -1; RemovedCount: -1; ParcelableData: null ]'
p899
sS'MovementGranularity'
p900
g6
sa(dp901
S'EventTime'
p902
S'86326109'
p903
sg4
L1449715815028L
sS'recordCount'
p904
g6
sS'EventType'
p905
S'TYPE_VIEW_FOCUSED'
p906
sS'PackageName'
p907
S'com.example.myfristandroid'
p908
sS'OutBounds'
p909
S'Rect(52, 450 - 1114, 540)'
p910
sS'Action'
p911
S'[ ClassName: android.widget.EditText; Text: [\xe6\x90\x9c\xe7\xb4\xa2]; ContentDescription: null; ItemCount: 10; CurrentItemIndex: 4; IsEnabled: true; IsPassword: false; IsChecked: false; IsFullScreen: false; Scrollable: false; BeforeText: null; FromIndex: -1; ToIndex: -1; ScrollX: -1; ScrollY: -1; MaxScrollX: -1; MaxScrollY: -1; AddedCount: -1; RemovedCount: -1; ParcelableData: null ]'
p912
sS'MovementGranularity'
p913
g6
sa(dp914
S'EventTime'
p915
S'86326208'
p916
sg4
L1449715815142L
sS'recordCount'
p917
g6
sS'EventType'
p918
S'TYPE_WINDOW_CONTENT_CHANGED'
p919
sS'PackageName'
p920
S'com.example.myfristandroid'
p921
sS'OutBounds'
p922
S'Rect(0, 0 - 1080, 1920)'
p923
sS'Action'
p924
S'[ ClassName: android.widget.FrameLayout; Text: []; ContentDescription: null; ItemCount: -1; CurrentItemIndex: -1; IsEnabled: true; IsPassword: false; IsChecked: false; IsFullScreen: false; Scrollable: false; BeforeText: null; FromIndex: -1; ToIndex: -1; ScrollX: -1; ScrollY: -1; MaxScrollX: -1; MaxScrollY: -1; AddedCount: -1; RemovedCount: -1; ParcelableData: null ]'
p925
sS'MovementGranularity'
p926
g6
sa(dp927
S'EventTime'
p928
S'86326224'
p929
sg4
L1449715815165L
sS'recordCount'
p930
g6
sS'EventType'
p931
S'TYPE_VIEW_SCROLLED'
p932
sS'PackageName'
p933
S'com.example.myfristandroid'
p934
sS'OutBounds'
p935
S'Rect(0, 210 - 1080, 1755)'
p936
sS'Action'
p937
S'[ ClassName: android.support.v4.view.ViewPager; Text: []; ContentDescription: null; ItemCount: -1; CurrentItemIndex: -1; IsEnabled: true; IsPassword: false; IsChecked: false; IsFullScreen: false; Scrollable: false; BeforeText: null; FromIndex: -1; ToIndex: -1; ScrollX: -1; ScrollY: -1; MaxScrollX: -1; MaxScrollY: -1; AddedCount: -1; RemovedCount: -1; ParcelableData: null ]'
p938
sS'MovementGranularity'
p939
g6
sa(dp940
S'EventTime'
p941
S'86326352'
p942
sg4
L1449715815282L
sS'recordCount'
p943
g6
sS'EventType'
p944
S'TYPE_VIEW_SCROLLED'
p945
sS'PackageName'
p946
S'com.example.myfristandroid'
p947
sS'OutBounds'
p948
S'Rect(0, 210 - 1080, 1755)'
p949
sS'Action'
p950
S'[ ClassName: android.support.v4.view.ViewPager; Text: []; ContentDescription: null; ItemCount: -1; CurrentItemIndex: -1; IsEnabled: true; IsPassword: false; IsChecked: false; IsFullScreen: false; Scrollable: false; BeforeText: null; FromIndex: -1; ToIndex: -1; ScrollX: -1; ScrollY: -1; MaxScrollX: -1; MaxScrollY: -1; AddedCount: -1; RemovedCount: -1; ParcelableData: null ]'
p951
sS'MovementGranularity'
p952
g6
sa(dp953
S'EventTime'
p954
S'86326878'
p955
sg4
L1449715815789L
sS'recordCount'
p956
g6
sS'EventType'
p957
S'TYPE_VIEW_CLICKED'
p958
sS'PackageName'
p959
S'com.example.myfristandroid'
p960
sS'OutBounds'
p961
S'Rect(540, 1755 - 810, 1920)'
p962
sS'Action'
p963
S'[ ClassName: android.widget.LinearLayout; Text: [\xe6\x9f\xa5\xe7\x9c\x8b\xe5\xae\x9e\xe6\x97\xb6\xe5\x91\x8a\xe8\xad\xa6\xe4\xbf\xa1\xe6\x81\xaf, \xe5\x91\x8a\xe8\xad\xa6]; ContentDescription: null; ItemCount: -1; CurrentItemIndex: -1; IsEnabled: true; IsPassword: false; IsChecked: false; IsFullScreen: false; Scrollable: false; BeforeText: null; FromIndex: -1; ToIndex: -1; ScrollX: -1; ScrollY: -1; MaxScrollX: -1; MaxScrollY: -1; AddedCount: -1; RemovedCount: -1; ParcelableData: null ]'
p964
sS'MovementGranularity'
p965
g6
sa(dp966
S'EventTime'
p967
S'86326884'
p968
sg4
L1449715815807L
sS'recordCount'
p969
g6
sS'EventType'
p970
S'TYPE_VIEW_FOCUSED'
p971
sS'PackageName'
p972
S'com.example.myfristandroid'
p973
sS'OutBounds'
p974
S'Rect(68, 375 - 1130, 465)'
p975
sS'Action'
p976
S'[ ClassName: android.widget.EditText; Text: [\xe6\x90\x9c\xe7\xb4\xa2]; ContentDescription: null; ItemCount: 8; CurrentItemIndex: 2; IsEnabled: true; IsPassword: false; IsChecked: false; IsFullScreen: false; Scrollable: false; BeforeText: null; FromIndex: -1; ToIndex: -1; ScrollX: -1; ScrollY: -1; MaxScrollX: -1; MaxScrollY: -1; AddedCount: -1; RemovedCount: -1; ParcelableData: null ]'
p977
sS'MovementGranularity'
p978
g6
sa(dp979
S'EventTime'
p980
S'86326984'
p981
sg4
L1449715815913L
sS'recordCount'
p982
g6
sS'EventType'
p983
S'TYPE_WINDOW_CONTENT_CHANGED'
p984
sS'PackageName'
p985
S'com.example.myfristandroid'
p986
sS'OutBounds'
p987
S'Rect(0, 0 - 1080, 1920)'
p988
sS'Action'
p989
S'[ ClassName: android.widget.FrameLayout; Text: []; ContentDescription: null; ItemCount: -1; CurrentItemIndex: -1; IsEnabled: true; IsPassword: false; IsChecked: false; IsFullScreen: false; Scrollable: false; BeforeText: null; FromIndex: -1; ToIndex: -1; ScrollX: -1; ScrollY: -1; MaxScrollX: -1; MaxScrollY: -1; AddedCount: -1; RemovedCount: -1; ParcelableData: null ]'
p990
sS'MovementGranularity'
p991
g6
sa(dp992
S'EventTime'
p993
S'86326999'
p994
sg4
L1449715815935L
sS'recordCount'
p995
g6
sS'EventType'
p996
S'TYPE_VIEW_SCROLLED'
p997
sS'PackageName'
p998
S'com.example.myfristandroid'
p999
sS'OutBounds'
p1000
S'Rect(0, 210 - 1080, 1755)'
p1001
sS'Action'
p1002
S'[ ClassName: android.support.v4.view.ViewPager; Text: []; ContentDescription: null; ItemCount: -1; CurrentItemIndex: -1; IsEnabled: true; IsPassword: false; IsChecked: false; IsFullScreen: false; Scrollable: false; BeforeText: null; FromIndex: -1; ToIndex: -1; ScrollX: -1; ScrollY: -1; MaxScrollX: -1; MaxScrollY: -1; AddedCount: -1; RemovedCount: -1; ParcelableData: null ]'
p1003
sS'MovementGranularity'
p1004
g6
sa(dp1005
S'EventTime'
p1006
S'86327125'
p1007
sg4
L1449715816056L
sS'recordCount'
p1008
g6
sS'EventType'
p1009
S'TYPE_VIEW_SCROLLED'
p1010
sS'PackageName'
p1011
S'com.example.myfristandroid'
p1012
sS'OutBounds'
p1013
S'Rect(0, 210 - 1080, 1755)'
p1014
sS'Action'
p1015
S'[ ClassName: android.support.v4.view.ViewPager; Text: []; ContentDescription: null; ItemCount: -1; CurrentItemIndex: -1; IsEnabled: true; IsPassword: false; IsChecked: false; IsFullScreen: false; Scrollable: false; BeforeText: null; FromIndex: -1; ToIndex: -1; ScrollX: -1; ScrollY: -1; MaxScrollX: -1; MaxScrollY: -1; AddedCount: -1; RemovedCount: -1; ParcelableData: null ]'
p1016
sS'MovementGranularity'
p1017
g6
sa(dp1018
S'EventTime'
p1019
S'86327489'
p1020
sg4
L1449715816399L
sS'recordCount'
p1021
g6
sS'EventType'
p1022
S'TYPE_VIEW_CLICKED'
p1023
sS'PackageName'
p1024
S'com.example.myfristandroid'
p1025
sS'OutBounds'
p1026
S'Rect(0, 1755 - 270, 1920)'
p1027
sS'Action'
p1028
S'[ ClassName: android.widget.LinearLayout; Text: [\xe7\x94\xbb\xe9\x9d\xa2\xe6\xb5\x8f\xe8\xa7\x88, \xe7\x94\xbb\xe9\x9d\xa2]; ContentDescription: null; ItemCount: -1; CurrentItemIndex: -1; IsEnabled: true; IsPassword: false; IsChecked: false; IsFullScreen: false; Scrollable: false; BeforeText: null; FromIndex: -1; ToIndex: -1; ScrollX: -1; ScrollY: -1; MaxScrollX: -1; MaxScrollY: -1; AddedCount: -1; RemovedCount: -1; ParcelableData: null ]'
p1029
sS'MovementGranularity'
p1030
g6
sa(dp1031
S'EventTime'
p1032
S'86327493'
p1033
sg4
L1449715816427L
sS'recordCount'
p1034
g6
sS'EventType'
p1035
S'TYPE_VIEW_FOCUSED'
p1036
sS'PackageName'
p1037
S'com.example.myfristandroid'
p1038
sS'OutBounds'
p1039
S'Rect(-321, 210 - 758, 1755)'
p1040
sS'Action'
p1041
S'[ ClassName: android.widget.GridView; Text: []; ContentDescription: null; ItemCount: 9; CurrentItemIndex: -1; IsEnabled: true; IsPassword: false; IsChecked: false; IsFullScreen: false; Scrollable: false; BeforeText: null; FromIndex: 0; ToIndex: 8; ScrollX: -1; ScrollY: -1; MaxScrollX: -1; MaxScrollY: -1; AddedCount: -1; RemovedCount: -1; ParcelableData: null ]'
p1042
sS'MovementGranularity'
p1043
g6
sa(dp1044
S'EventTime'
p1045
S'86327593'
p1046
sg4
L1449715816528L
sS'recordCount'
p1047
g6
sS'EventType'
p1048
S'TYPE_WINDOW_CONTENT_CHANGED'
p1049
sS'PackageName'
p1050
S'com.example.myfristandroid'
p1051
sS'OutBounds'
p1052
S'Rect(0, 0 - 1080, 1920)'
p1053
sS'Action'
p1054
S'[ ClassName: android.widget.FrameLayout; Text: []; ContentDescription: null; ItemCount: -1; CurrentItemIndex: -1; IsEnabled: true; IsPassword: false; IsChecked: false; IsFullScreen: false; Scrollable: false; BeforeText: null; FromIndex: -1; ToIndex: -1; ScrollX: -1; ScrollY: -1; MaxScrollX: -1; MaxScrollY: -1; AddedCount: -1; RemovedCount: -1; ParcelableData: null ]'
p1055
sS'MovementGranularity'
p1056
g6
sa(dp1057
S'EventTime'
p1058
S'86327622'
p1059
sg4
L1449715816557L
sS'recordCount'
p1060
g6
sS'EventType'
p1061
S'TYPE_VIEW_SCROLLED'
p1062
sS'PackageName'
p1063
S'com.example.myfristandroid'
p1064
sS'OutBounds'
p1065
S'Rect(0, 210 - 1080, 1755)'
p1066
sS'Action'
p1067
S'[ ClassName: android.support.v4.view.ViewPager; Text: []; ContentDescription: null; ItemCount: -1; CurrentItemIndex: -1; IsEnabled: true; IsPassword: false; IsChecked: false; IsFullScreen: false; Scrollable: false; BeforeText: null; FromIndex: -1; ToIndex: -1; ScrollX: -1; ScrollY: -1; MaxScrollX: -1; MaxScrollY: -1; AddedCount: -1; RemovedCount: -1; ParcelableData: null ]'
p1068
sS'MovementGranularity'
p1069
g6
sa(dp1070
S'EventTime'
p1071
S'86327745'
p1072
sg4
L1449715816673L
sS'recordCount'
p1073
g6
sS'EventType'
p1074
S'TYPE_VIEW_SCROLLED'
p1075
sS'PackageName'
p1076
S'com.example.myfristandroid'
p1077
sS'OutBounds'
p1078
S'Rect(0, 210 - 1080, 1755)'
p1079
sS'Action'
p1080
S'[ ClassName: android.support.v4.view.ViewPager; Text: []; ContentDescription: null; ItemCount: -1; CurrentItemIndex: -1; IsEnabled: true; IsPassword: false; IsChecked: false; IsFullScreen: false; Scrollable: false; BeforeText: null; FromIndex: -1; ToIndex: -1; ScrollX: -1; ScrollY: -1; MaxScrollX: -1; MaxScrollY: -1; AddedCount: -1; RemovedCount: -1; ParcelableData: null ]'
p1081
sS'MovementGranularity'
p1082
g6
sa(dp1083
S'EventTime'
p1084
S'86327848'
p1085
sg4
L1449715816787L
sS'recordCount'
p1086
g6
sS'EventType'
p1087
S'TYPE_VIEW_SCROLLED'
p1088
sS'PackageName'
p1089
S'com.example.myfristandroid'
p1090
sS'OutBounds'
p1091
S'Rect(0, 210 - 1080, 1755)'
p1092
sS'Action'
p1093
S'[ ClassName: android.support.v4.view.ViewPager; Text: []; ContentDescription: null; ItemCount: -1; CurrentItemIndex: -1; IsEnabled: true; IsPassword: false; IsChecked: false; IsFullScreen: false; Scrollable: false; BeforeText: null; FromIndex: -1; ToIndex: -1; ScrollX: -1; ScrollY: -1; MaxScrollX: -1; MaxScrollY: -1; AddedCount: -1; RemovedCount: -1; ParcelableData: null ]'
p1094
sS'MovementGranularity'
p1095
g6
sa(dp1096
S'EventTime'
p1097
S'86327944'
p1098
sg4
L1449715816889L
sS'recordCount'
p1099
g6
sS'EventType'
p1100
S'TYPE_WINDOW_CONTENT_CHANGED'
p1101
sS'PackageName'
p1102
S'com.example.myfristandroid'
p1103
sS'OutBounds'
p1104
S'Rect(0, 0 - 1080, 1920)'
p1105
sS'Action'
p1106
S'[ ClassName: android.widget.FrameLayout; Text: []; ContentDescription: null; ItemCount: -1; CurrentItemIndex: -1; IsEnabled: true; IsPassword: false; IsChecked: false; IsFullScreen: false; Scrollable: false; BeforeText: null; FromIndex: -1; ToIndex: -1; ScrollX: -1; ScrollY: -1; MaxScrollX: -1; MaxScrollY: -1; AddedCount: -1; RemovedCount: -1; ParcelableData: null ]'
p1107
sS'MovementGranularity'
p1108
g6
sa(dp1109
S'EventTime'
p1110
S'86328860'
p1111
sg4
L1449715817771L
sS'recordCount'
p1112
g176
sS'EventType'
p1113
S'TYPE_VIEW_CLICKED'
p1114
sS'PackageName'
p1115
S'com.example.myfristandroid'
p1116
sS'OutBounds'
p1117
S'Rect(9, 929 - 361, 1281)'
p1118
sS'Action'
p1119
S'[ ClassName: android.widget.RelativeLayout; Text: [\xe7\xb3\xbb\xe7\xbb\x9f\xe6\x8b\x93\xe6\x89\x91\xe5\x9b\xbe]; ContentDescription: null; ItemCount: -1; CurrentItemIndex: -1; IsEnabled: true; IsPassword: false; IsChecked: false; IsFullScreen: false; Scrollable: false; BeforeText: null; FromIndex: -1; ToIndex: -1; ScrollX: -1; ScrollY: -1; MaxScrollX: -1; MaxScrollY: -1; AddedCount: -1; RemovedCount: -1; ParcelableData: null ]'
p1120
sS'MovementGranularity'
p1121
g6
sa(dp1122
S'EventTime'
p1123
S'86329071'
p1124
sg4
L1449715817986L
sS'recordCount'
p1125
g6
sS'EventType'
p1126
S'TYPE_WINDOW_STATE_CHANGED'
p1127
sS'PackageName'
p1128
S'com.example.myfristandroid'
p1129
sS'OutBounds'
p1130
S'Rect(0, 0 - 1080, 1920)'
p1131
sS'Action'
p1132
S'[ ClassName: com.example.myfristandroid.graphWebShow; Text: [SE-1800\xe7\xa7\xbb\xe5\x8a\xa8APP]; ContentDescription: null; ItemCount: -1; CurrentItemIndex: -1; IsEnabled: true; IsPassword: false; IsChecked: false; IsFullScreen: true; Scrollable: false; BeforeText: null; FromIndex: -1; ToIndex: -1; ScrollX: -1; ScrollY: -1; MaxScrollX: -1; MaxScrollY: -1; AddedCount: -1; RemovedCount: -1; ParcelableData: null ]'
p1133
sS'MovementGranularity'
p1134
g6
sa(dp1135
S'EventTime'
p1136
S'86329132'
p1137
sg4
L1449715818044L
sS'recordCount'
p1138
g6
sS'EventType'
p1139
S'TYPE_WINDOW_CONTENT_CHANGED'
p1140
sS'PackageName'
p1141
S'com.example.myfristandroid'
p1142
sS'OutBounds'
p1143
S'Rect(0, 0 - 1080, 1920)'
p1144
sS'Action'
p1145
S'[ ClassName: android.widget.FrameLayout; Text: []; ContentDescription: null; ItemCount: -1; CurrentItemIndex: -1; IsEnabled: true; IsPassword: false; IsChecked: false; IsFullScreen: false; Scrollable: false; BeforeText: null; FromIndex: -1; ToIndex: -1; ScrollX: -1; ScrollY: -1; MaxScrollX: -1; MaxScrollY: -1; AddedCount: -1; RemovedCount: -1; ParcelableData: null ]'
p1146
sS'MovementGranularity'
p1147
g6
sa(dp1148
S'EventTime'
p1149
S'86329821'
p1150
sg4
L1449715818738L
sS'recordCount'
p1151
g6
sS'EventType'
p1152
S'TYPE_WINDOW_CONTENT_CHANGED'
p1153
sS'PackageName'
p1154
S'com.example.myfristandroid'
p1155
sS'OutBounds'
p1156
S'Rect(0, 0 - 1920, 1080)'
p1157
sS'Action'
p1158
S'[ ClassName: android.widget.FrameLayout; Text: []; ContentDescription: null; ItemCount: -1; CurrentItemIndex: -1; IsEnabled: true; IsPassword: false; IsChecked: false; IsFullScreen: false; Scrollable: false; BeforeText: null; FromIndex: -1; ToIndex: -1; ScrollX: -1; ScrollY: -1; MaxScrollX: -1; MaxScrollY: -1; AddedCount: -1; RemovedCount: -1; ParcelableData: null ]'
p1159
sS'MovementGranularity'
p1160
g6
sa(dp1161
S'EventTime'
p1162
S'86331490'
p1163
sg4
L1449715820424L
sS'recordCount'
p1164
g6
sS'EventType'
p1165
S'TYPE_WINDOW_STATE_CHANGED'
p1166
sS'PackageName'
p1167
S'com.example.myfristandroid'
p1168
sS'OutBounds'
p1169
S'Rect(0, 0 - 1080, 1920)'
p1170
sS'Action'
p1171
S'[ ClassName: com.example.myfristandroid.MainActivity; Text: [SE-1800\xe7\xa7\xbb\xe5\x8a\xa8APP]; ContentDescription: null; ItemCount: -1; CurrentItemIndex: -1; IsEnabled: true; IsPassword: false; IsChecked: false; IsFullScreen: true; Scrollable: false; BeforeText: null; FromIndex: -1; ToIndex: -1; ScrollX: -1; ScrollY: -1; MaxScrollX: -1; MaxScrollY: -1; AddedCount: -1; RemovedCount: -1; ParcelableData: null ]'
p1172
sS'MovementGranularity'
p1173
g6
sa(dp1174
S'EventTime'
p1175
S'86332409'
p1176
sg4
L1449715821413L
sS'recordCount'
p1177
g176
sS'EventType'
p1178
S'TYPE_VIEW_CLICKED'
p1179
sS'PackageName'
p1180
S'com.example.myfristandroid'
p1181
sS'OutBounds'
p1182
S'Rect(9, 574 - 361, 926)'
p1183
sS'Action'
p1184
S'[ ClassName: android.widget.RelativeLayout; Text: [\xe9\x80\x86\xe5\x8f\x98\xe5\x99\xa8]; ContentDescription: null; ItemCount: -1; CurrentItemIndex: -1; IsEnabled: true; IsPassword: false; IsChecked: false; IsFullScreen: false; Scrollable: false; BeforeText: null; FromIndex: -1; ToIndex: -1; ScrollX: -1; ScrollY: -1; MaxScrollX: -1; MaxScrollY: -1; AddedCount: -1; RemovedCount: -1; ParcelableData: null ]'
p1185
sS'MovementGranularity'
p1186
g6
sa(dp1187
S'EventTime'
p1188
S'86332786'
p1189
sg4
L1449715821699L
sS'recordCount'
p1190
g6
sS'EventType'
p1191
S'TYPE_WINDOW_STATE_CHANGED'
p1192
sS'PackageName'
p1193
S'com.example.myfristandroid'
p1194
sS'OutBounds'
p1195
S'Rect(0, 0 - 1080, 1920)'
p1196
sS'Action'
p1197
S'[ ClassName: com.example.myfristandroid.graphWebShow; Text: [SE-1800\xe7\xa7\xbb\xe5\x8a\xa8APP]; ContentDescription: null; ItemCount: -1; CurrentItemIndex: -1; IsEnabled: true; IsPassword: false; IsChecked: false; IsFullScreen: true; Scrollable: false; BeforeText: null; FromIndex: -1; ToIndex: -1; ScrollX: -1; ScrollY: -1; MaxScrollX: -1; MaxScrollY: -1; AddedCount: -1; RemovedCount: -1; ParcelableData: null ]'
p1198
sS'MovementGranularity'
p1199
g6
sa(dp1200
S'EventTime'
p1201
S'86332831'
p1202
sg4
L1449715821744L
sS'recordCount'
p1203
g6
sS'EventType'
p1204
S'TYPE_WINDOW_CONTENT_CHANGED'
p1205
sS'PackageName'
p1206
S'com.example.myfristandroid'
p1207
sS'OutBounds'
p1208
S'Rect(0, 0 - 1080, 1920)'
p1209
sS'Action'
p1210
S'[ ClassName: android.widget.FrameLayout; Text: []; ContentDescription: null; ItemCount: -1; CurrentItemIndex: -1; IsEnabled: true; IsPassword: false; IsChecked: false; IsFullScreen: false; Scrollable: false; BeforeText: null; FromIndex: -1; ToIndex: -1; ScrollX: -1; ScrollY: -1; MaxScrollX: -1; MaxScrollY: -1; AddedCount: -1; RemovedCount: -1; ParcelableData: null ]'
p1211
sS'MovementGranularity'
p1212
g6
sa(dp1213
S'EventTime'
p1214
S'86333393'
p1215
sg4
L1449715822311L
sS'recordCount'
p1216
g6
sS'EventType'
p1217
S'TYPE_WINDOW_CONTENT_CHANGED'
p1218
sS'PackageName'
p1219
S'com.example.myfristandroid'
p1220
sS'OutBounds'
p1221
S'Rect(0, 0 - 1920, 1080)'
p1222
sS'Action'
p1223
S'[ ClassName: android.widget.FrameLayout; Text: []; ContentDescription: null; ItemCount: -1; CurrentItemIndex: -1; IsEnabled: true; IsPassword: false; IsChecked: false; IsFullScreen: false; Scrollable: false; BeforeText: null; FromIndex: -1; ToIndex: -1; ScrollX: -1; ScrollY: -1; MaxScrollX: -1; MaxScrollY: -1; AddedCount: -1; RemovedCount: -1; ParcelableData: null ]'
p1224
sS'MovementGranularity'
p1225
g6
sa(dp1226
S'EventTime'
p1227
S'86334558'
p1228
sg4
L1449715823510L
sS'recordCount'
p1229
g6
sS'EventType'
p1230
S'TYPE_WINDOW_STATE_CHANGED'
p1231
sS'PackageName'
p1232
S'com.example.myfristandroid'
p1233
sS'OutBounds'
p1234
S'Rect(0, 0 - 1080, 1920)'
p1235
sS'Action'
p1236
S'[ ClassName: com.example.myfristandroid.MainActivity; Text: [SE-1800\xe7\xa7\xbb\xe5\x8a\xa8APP]; ContentDescription: null; ItemCount: -1; CurrentItemIndex: -1; IsEnabled: true; IsPassword: false; IsChecked: false; IsFullScreen: true; Scrollable: false; BeforeText: null; FromIndex: -1; ToIndex: -1; ScrollX: -1; ScrollY: -1; MaxScrollX: -1; MaxScrollY: -1; AddedCount: -1; RemovedCount: -1; ParcelableData: null ]'
p1237
sS'MovementGranularity'
p1238
g6
sa(dp1239
S'EventTime'
p1240
S'86335733'
p1241
sg4
L1449715824644L
sS'recordCount'
p1242
g176
sS'EventType'
p1243
S'TYPE_VIEW_CLICKED'
p1244
sS'PackageName'
p1245
S'com.example.myfristandroid'
p1246
sS'OutBounds'
p1247
S'Rect(364, 574 - 716, 926)'
p1248
sS'Action'
p1249
S'[ ClassName: android.widget.RelativeLayout; Text: [\xe6\xb1\x87\xe6\xb5\x81\xe7\xae\xb1]; ContentDescription: null; ItemCount: -1; CurrentItemIndex: -1; IsEnabled: true; IsPassword: false; IsChecked: false; IsFullScreen: false; Scrollable: false; BeforeText: null; FromIndex: -1; ToIndex: -1; ScrollX: -1; ScrollY: -1; MaxScrollX: -1; MaxScrollY: -1; AddedCount: -1; RemovedCount: -1; ParcelableData: null ]'
p1250
sS'MovementGranularity'
p1251
g6
sa(dp1252
S'EventTime'
p1253
S'86335948'
p1254
sg4
L1449715824865L
sS'recordCount'
p1255
g6
sS'EventType'
p1256
S'TYPE_WINDOW_STATE_CHANGED'
p1257
sS'PackageName'
p1258
S'com.example.myfristandroid'
p1259
sS'OutBounds'
p1260
S'Rect(0, 0 - 1080, 1920)'
p1261
sS'Action'
p1262
S'[ ClassName: com.example.myfristandroid.graphWebShow; Text: [SE-1800\xe7\xa7\xbb\xe5\x8a\xa8APP]; ContentDescription: null; ItemCount: -1; CurrentItemIndex: -1; IsEnabled: true; IsPassword: false; IsChecked: false; IsFullScreen: true; Scrollable: false; BeforeText: null; FromIndex: -1; ToIndex: -1; ScrollX: -1; ScrollY: -1; MaxScrollX: -1; MaxScrollY: -1; AddedCount: -1; RemovedCount: -1; ParcelableData: null ]'
p1263
sS'MovementGranularity'
p1264
g6
sa(dp1265
S'EventTime'
p1266
S'86336003'
p1267
sg4
L1449715824916L
sS'recordCount'
p1268
g6
sS'EventType'
p1269
S'TYPE_WINDOW_CONTENT_CHANGED'
p1270
sS'PackageName'
p1271
S'com.example.myfristandroid'
p1272
sS'OutBounds'
p1273
S'Rect(0, 0 - 1080, 1920)'
p1274
sS'Action'
p1275
S'[ ClassName: android.widget.FrameLayout; Text: []; ContentDescription: null; ItemCount: -1; CurrentItemIndex: -1; IsEnabled: true; IsPassword: false; IsChecked: false; IsFullScreen: false; Scrollable: false; BeforeText: null; FromIndex: -1; ToIndex: -1; ScrollX: -1; ScrollY: -1; MaxScrollX: -1; MaxScrollY: -1; AddedCount: -1; RemovedCount: -1; ParcelableData: null ]'
p1276
sS'MovementGranularity'
p1277
g6
sa(dp1278
S'EventTime'
p1279
S'86336508'
p1280
sg4
L1449715825424L
sS'recordCount'
p1281
g6
sS'EventType'
p1282
S'TYPE_WINDOW_CONTENT_CHANGED'
p1283
sS'PackageName'
p1284
S'com.example.myfristandroid'
p1285
sS'OutBounds'
p1286
S'Rect(0, 0 - 1920, 1080)'
p1287
sS'Action'
p1288
S'[ ClassName: android.widget.FrameLayout; Text: []; ContentDescription: null; ItemCount: -1; CurrentItemIndex: -1; IsEnabled: true; IsPassword: false; IsChecked: false; IsFullScreen: false; Scrollable: false; BeforeText: null; FromIndex: -1; ToIndex: -1; ScrollX: -1; ScrollY: -1; MaxScrollX: -1; MaxScrollY: -1; AddedCount: -1; RemovedCount: -1; ParcelableData: null ]'
p1289
sS'MovementGranularity'
p1290
g6
sa(dp1291
S'EventTime'
p1292
S'86337533'
p1293
sg4
L1449715826456L
sS'recordCount'
p1294
g6
sS'EventType'
p1295
S'TYPE_WINDOW_STATE_CHANGED'
p1296
sS'PackageName'
p1297
S'com.example.myfristandroid'
p1298
sS'OutBounds'
p1299
S'Rect(0, 0 - 1080, 1920)'
p1300
sS'Action'
p1301
S'[ ClassName: com.example.myfristandroid.MainActivity; Text: [SE-1800\xe7\xa7\xbb\xe5\x8a\xa8APP]; ContentDescription: null; ItemCount: -1; CurrentItemIndex: -1; IsEnabled: true; IsPassword: false; IsChecked: false; IsFullScreen: true; Scrollable: false; BeforeText: null; FromIndex: -1; ToIndex: -1; ScrollX: -1; ScrollY: -1; MaxScrollX: -1; MaxScrollY: -1; AddedCount: -1; RemovedCount: -1; ParcelableData: null ]'
p1302
sS'MovementGranularity'
p1303
g6
sa(dp1304
S'EventTime'
p1305
S'86338253'
p1306
sg4
L1449715827233L
sS'recordCount'
p1307
g176
sS'EventType'
p1308
S'TYPE_VIEW_CLICKED'
p1309
sS'PackageName'
p1310
S'com.example.myfristandroid'
p1311
sS'OutBounds'
p1312
S'Rect(719, 574 - 1071, 926)'
p1313
sS'Action'
p1314
S'[ ClassName: android.widget.RelativeLayout; Text: [\xe7\x8e\xaf\xe5\xa2\x83\xe7\x9b\x91\xe6\xb5\x8b]; ContentDescription: null; ItemCount: -1; CurrentItemIndex: -1; IsEnabled: true; IsPassword: false; IsChecked: false; IsFullScreen: false; Scrollable: false; BeforeText: null; FromIndex: -1; ToIndex: -1; ScrollX: -1; ScrollY: -1; MaxScrollX: -1; MaxScrollY: -1; AddedCount: -1; RemovedCount: -1; ParcelableData: null ]'
p1315
sS'MovementGranularity'
p1316
g6
sa(dp1317
S'EventTime'
p1318
S'86338576'
p1319
sg4
L1449715827493L
sS'recordCount'
p1320
g6
sS'EventType'
p1321
S'TYPE_WINDOW_STATE_CHANGED'
p1322
sS'PackageName'
p1323
S'com.example.myfristandroid'
p1324
sS'OutBounds'
p1325
S'Rect(0, 0 - 1080, 1920)'
p1326
sS'Action'
p1327
S'[ ClassName: com.example.myfristandroid.graphWebShow; Text: [SE-1800\xe7\xa7\xbb\xe5\x8a\xa8APP]; ContentDescription: null; ItemCount: -1; CurrentItemIndex: -1; IsEnabled: true; IsPassword: false; IsChecked: false; IsFullScreen: true; Scrollable: false; BeforeText: null; FromIndex: -1; ToIndex: -1; ScrollX: -1; ScrollY: -1; MaxScrollX: -1; MaxScrollY: -1; AddedCount: -1; RemovedCount: -1; ParcelableData: null ]'
p1328
sS'MovementGranularity'
p1329
g6
sa(dp1330
S'EventTime'
p1331
S'86338647'
p1332
sg4
L1449715827560L
sS'recordCount'
p1333
g6
sS'EventType'
p1334
S'TYPE_WINDOW_CONTENT_CHANGED'
p1335
sS'PackageName'
p1336
S'com.example.myfristandroid'
p1337
sS'OutBounds'
p1338
S'Rect(0, 0 - 1080, 1920)'
p1339
sS'Action'
p1340
S'[ ClassName: android.widget.FrameLayout; Text: []; ContentDescription: null; ItemCount: -1; CurrentItemIndex: -1; IsEnabled: true; IsPassword: false; IsChecked: false; IsFullScreen: false; Scrollable: false; BeforeText: null; FromIndex: -1; ToIndex: -1; ScrollX: -1; ScrollY: -1; MaxScrollX: -1; MaxScrollY: -1; AddedCount: -1; RemovedCount: -1; ParcelableData: null ]'
p1341
sS'MovementGranularity'
p1342
g6
sa(dp1343
S'EventTime'
p1344
S'86339178'
p1345
sg4
L1449715828092L
sS'recordCount'
p1346
g6
sS'EventType'
p1347
S'TYPE_WINDOW_CONTENT_CHANGED'
p1348
sS'PackageName'
p1349
S'com.example.myfristandroid'
p1350
sS'OutBounds'
p1351
S'Rect(0, 0 - 1920, 1080)'
p1352
sS'Action'
p1353
S'[ ClassName: android.widget.FrameLayout; Text: []; ContentDescription: null; ItemCount: -1; CurrentItemIndex: -1; IsEnabled: true; IsPassword: false; IsChecked: false; IsFullScreen: false; Scrollable: false; BeforeText: null; FromIndex: -1; ToIndex: -1; ScrollX: -1; ScrollY: -1; MaxScrollX: -1; MaxScrollY: -1; AddedCount: -1; RemovedCount: -1; ParcelableData: null ]'
p1354
sS'MovementGranularity'
p1355
g6
sa(dp1356
S'EventTime'
p1357
S'86340500'
p1358
sg4
L1449715829448L
sS'recordCount'
p1359
g6
sS'EventType'
p1360
S'TYPE_WINDOW_STATE_CHANGED'
p1361
sS'PackageName'
p1362
S'com.example.myfristandroid'
p1363
sS'OutBounds'
p1364
S'Rect(0, 0 - 1080, 1920)'
p1365
sS'Action'
p1366
S'[ ClassName: com.example.myfristandroid.MainActivity; Text: [SE-1800\xe7\xa7\xbb\xe5\x8a\xa8APP]; ContentDescription: null; ItemCount: -1; CurrentItemIndex: -1; IsEnabled: true; IsPassword: false; IsChecked: false; IsFullScreen: true; Scrollable: false; BeforeText: null; FromIndex: -1; ToIndex: -1; ScrollX: -1; ScrollY: -1; MaxScrollX: -1; MaxScrollY: -1; AddedCount: -1; RemovedCount: -1; ParcelableData: null ]'
p1367
sS'MovementGranularity'
p1368
g6
sa(dp1369
S'EventTime'
p1370
S'86341426'
p1371
sg4
L1449715830338L
sS'recordCount'
p1372
g176
sS'EventType'
p1373
S'TYPE_VIEW_CLICKED'
p1374
sS'PackageName'
p1375
S'com.example.myfristandroid'
p1376
sS'OutBounds'
p1377
S'Rect(364, 929 - 716, 1281)'
p1378
sS'Action'
p1379
S'[ ClassName: android.widget.RelativeLayout; Text: [\xe5\x87\x8f\xe6\x8e\x92\xe9\x87\x8f\xe4\xbf\xa1\xe6\x81\xaf]; ContentDescription: null; ItemCount: -1; CurrentItemIndex: -1; IsEnabled: true; IsPassword: false; IsChecked: false; IsFullScreen: false; Scrollable: false; BeforeText: null; FromIndex: -1; ToIndex: -1; ScrollX: -1; ScrollY: -1; MaxScrollX: -1; MaxScrollY: -1; AddedCount: -1; RemovedCount: -1; ParcelableData: null ]'
p1380
sS'MovementGranularity'
p1381
g6
sa(dp1382
S'EventTime'
p1383
S'86341655'
p1384
sg4
L1449715830574L
sS'recordCount'
p1385
g6
sS'EventType'
p1386
S'TYPE_WINDOW_STATE_CHANGED'
p1387
sS'PackageName'
p1388
S'com.example.myfristandroid'
p1389
sS'OutBounds'
p1390
S'Rect(0, 0 - 1080, 1920)'
p1391
sS'Action'
p1392
S'[ ClassName: com.example.myfristandroid.graphWebShow; Text: [SE-1800\xe7\xa7\xbb\xe5\x8a\xa8APP]; ContentDescription: null; ItemCount: -1; CurrentItemIndex: -1; IsEnabled: true; IsPassword: false; IsChecked: false; IsFullScreen: true; Scrollable: false; BeforeText: null; FromIndex: -1; ToIndex: -1; ScrollX: -1; ScrollY: -1; MaxScrollX: -1; MaxScrollY: -1; AddedCount: -1; RemovedCount: -1; ParcelableData: null ]'
p1393
sS'MovementGranularity'
p1394
g6
sa(dp1395
S'EventTime'
p1396
S'86341739'
p1397
sg4
L1449715830651L
sS'recordCount'
p1398
g6
sS'EventType'
p1399
S'TYPE_WINDOW_CONTENT_CHANGED'
p1400
sS'PackageName'
p1401
S'com.example.myfristandroid'
p1402
sS'OutBounds'
p1403
S'Rect(0, 0 - 1080, 1920)'
p1404
sS'Action'
p1405
S'[ ClassName: android.widget.FrameLayout; Text: []; ContentDescription: null; ItemCount: -1; CurrentItemIndex: -1; IsEnabled: true; IsPassword: false; IsChecked: false; IsFullScreen: false; Scrollable: false; BeforeText: null; FromIndex: -1; ToIndex: -1; ScrollX: -1; ScrollY: -1; MaxScrollX: -1; MaxScrollY: -1; AddedCount: -1; RemovedCount: -1; ParcelableData: null ]'
p1406
sS'MovementGranularity'
p1407
g6
sa(dp1408
S'EventTime'
p1409
S'86353905'
p1410
sg4
L1449715842827L
sS'recordCount'
p1411
g6
sS'EventType'
p1412
S'TYPE_WINDOW_CONTENT_CHANGED'
p1413
sS'PackageName'
p1414
S'com.example.myfristandroid'
p1415
sS'OutBounds'
p1416
S'Rect(0, 0 - 1920, 1080)'
p1417
sS'Action'
p1418
S'[ ClassName: android.widget.FrameLayout; Text: []; ContentDescription: null; ItemCount: -1; CurrentItemIndex: -1; IsEnabled: true; IsPassword: false; IsChecked: false; IsFullScreen: false; Scrollable: false; BeforeText: null; FromIndex: -1; ToIndex: -1; ScrollX: -1; ScrollY: -1; MaxScrollX: -1; MaxScrollY: -1; AddedCount: -1; RemovedCount: -1; ParcelableData: null ]'
p1419
sS'MovementGranularity'
p1420
g6
sa(dp1421
S'EventTime'
p1422
S'86362941'
p1423
sg4
L1449715851855L
sS'recordCount'
p1424
g6
sS'EventType'
p1425
S'TYPE_WINDOW_CONTENT_CHANGED'
p1426
sS'PackageName'
p1427
S'com.example.myfristandroid'
p1428
sS'OutBounds'
p1429
S'Rect(0, 0 - 1920, 1080)'
p1430
sS'Action'
p1431
S'[ ClassName: android.widget.FrameLayout; Text: []; ContentDescription: null; ItemCount: -1; CurrentItemIndex: -1; IsEnabled: true; IsPassword: false; IsChecked: false; IsFullScreen: false; Scrollable: false; BeforeText: null; FromIndex: -1; ToIndex: -1; ScrollX: -1; ScrollY: -1; MaxScrollX: -1; MaxScrollY: -1; AddedCount: -1; RemovedCount: -1; ParcelableData: null ]'
p1432
sS'MovementGranularity'
p1433
g6
sa(dp1434
S'EventTime'
p1435
S'86370705'
p1436
sg4
L1449715859620L
sS'recordCount'
p1437
g6
sS'EventType'
p1438
S'TYPE_WINDOW_CONTENT_CHANGED'
p1439
sS'PackageName'
p1440
S'com.example.myfristandroid'
p1441
sS'OutBounds'
p1442
S'Rect(0, 0 - 1920, 1080)'
p1443
sS'Action'
p1444
S'[ ClassName: android.widget.FrameLayout; Text: []; ContentDescription: null; ItemCount: -1; CurrentItemIndex: -1; IsEnabled: true; IsPassword: false; IsChecked: false; IsFullScreen: false; Scrollable: false; BeforeText: null; FromIndex: -1; ToIndex: -1; ScrollX: -1; ScrollY: -1; MaxScrollX: -1; MaxScrollY: -1; AddedCount: -1; RemovedCount: -1; ParcelableData: null ]'
p1445
sS'MovementGranularity'
p1446
g6
sa(dp1447
S'EventTime'
p1448
S'86373981'
p1449
sg4
L1449715862897L
sS'recordCount'
p1450
g6
sS'EventType'
p1451
S'TYPE_WINDOW_CONTENT_CHANGED'
p1452
sS'PackageName'
p1453
S'com.example.myfristandroid'
p1454
sS'OutBounds'
p1455
S'Rect(0, 0 - 1920, 1080)'
p1456
sS'Action'
p1457
S'[ ClassName: android.widget.FrameLayout; Text: []; ContentDescription: null; ItemCount: -1; CurrentItemIndex: -1; IsEnabled: true; IsPassword: false; IsChecked: false; IsFullScreen: false; Scrollable: false; BeforeText: null; FromIndex: -1; ToIndex: -1; ScrollX: -1; ScrollY: -1; MaxScrollX: -1; MaxScrollY: -1; AddedCount: -1; RemovedCount: -1; ParcelableData: null ]'
p1458
sS'MovementGranularity'
p1459
g6
sa(dp1460
S'EventTime'
p1461
S'86380866'
p1462
sg4
L1449715869789L
sS'recordCount'
p1463
g6
sS'EventType'
p1464
S'TYPE_WINDOW_STATE_CHANGED'
p1465
sS'PackageName'
p1466
S'com.example.myfristandroid'
p1467
sS'OutBounds'
p1468
S'Rect(0, 0 - 1080, 1920)'
p1469
sS'Action'
p1470
S'[ ClassName: com.example.myfristandroid.MainActivity; Text: [SE-1800\xe7\xa7\xbb\xe5\x8a\xa8APP]; ContentDescription: null; ItemCount: -1; CurrentItemIndex: -1; IsEnabled: true; IsPassword: false; IsChecked: false; IsFullScreen: true; Scrollable: false; BeforeText: null; FromIndex: -1; ToIndex: -1; ScrollX: -1; ScrollY: -1; MaxScrollX: -1; MaxScrollY: -1; AddedCount: -1; RemovedCount: -1; ParcelableData: null ]'
p1471
sS'MovementGranularity'
p1472
g6
sa(dp1473
S'EventTime'
p1474
S'86382611'
p1475
sg4
L1449715871522L
sS'recordCount'
p1476
g176
sS'EventType'
p1477
S'TYPE_VIEW_CLICKED'
p1478
sS'PackageName'
p1479
S'com.example.myfristandroid'
p1480
sS'OutBounds'
p1481
S'Rect(364, 929 - 716, 1281)'
p1482
sS'Action'
p1483
S'[ ClassName: android.widget.RelativeLayout; Text: [\xe5\x87\x8f\xe6\x8e\x92\xe9\x87\x8f\xe4\xbf\xa1\xe6\x81\xaf]; ContentDescription: null; ItemCount: -1; CurrentItemIndex: -1; IsEnabled: true; IsPassword: false; IsChecked: false; IsFullScreen: false; Scrollable: false; BeforeText: null; FromIndex: -1; ToIndex: -1; ScrollX: -1; ScrollY: -1; MaxScrollX: -1; MaxScrollY: -1; AddedCount: -1; RemovedCount: -1; ParcelableData: null ]'
p1484
sS'MovementGranularity'
p1485
g6
sa(dp1486
S'EventTime'
p1487
S'86382843'
p1488
sg4
L1449715871758L
sS'recordCount'
p1489
g6
sS'EventType'
p1490
S'TYPE_WINDOW_STATE_CHANGED'
p1491
sS'PackageName'
p1492
S'com.example.myfristandroid'
p1493
sS'OutBounds'
p1494
S'Rect(0, 0 - 1080, 1920)'
p1495
sS'Action'
p1496
S'[ ClassName: com.example.myfristandroid.graphWebShow; Text: [SE-1800\xe7\xa7\xbb\xe5\x8a\xa8APP]; ContentDescription: null; ItemCount: -1; CurrentItemIndex: -1; IsEnabled: true; IsPassword: false; IsChecked: false; IsFullScreen: true; Scrollable: false; BeforeText: null; FromIndex: -1; ToIndex: -1; ScrollX: -1; ScrollY: -1; MaxScrollX: -1; MaxScrollY: -1; AddedCount: -1; RemovedCount: -1; ParcelableData: null ]'
p1497
sS'MovementGranularity'
p1498
g6
sa(dp1499
S'EventTime'
p1500
S'86382846'
p1501
sg4
L1449715871774L
sS'recordCount'
p1502
g6
sS'EventType'
p1503
S'TYPE_WINDOW_CONTENT_CHANGED'
p1504
sS'PackageName'
p1505
S'com.example.myfristandroid'
p1506
sS'OutBounds'
p1507
S'Rect(0, 0 - 1080, 1920)'
p1508
sS'Action'
p1509
S'[ ClassName: android.widget.FrameLayout; Text: []; ContentDescription: null; ItemCount: -1; CurrentItemIndex: -1; IsEnabled: true; IsPassword: false; IsChecked: false; IsFullScreen: false; Scrollable: false; BeforeText: null; FromIndex: -1; ToIndex: -1; ScrollX: -1; ScrollY: -1; MaxScrollX: -1; MaxScrollY: -1; AddedCount: -1; RemovedCount: -1; ParcelableData: null ]'
p1510
sS'MovementGranularity'
p1511
g6
sa(dp1512
S'EventTime'
p1513
S'86382961'
p1514
sg4
L1449715871874L
sS'recordCount'
p1515
g6
sS'EventType'
p1516
S'TYPE_WINDOW_CONTENT_CHANGED'
p1517
sS'PackageName'
p1518
S'com.example.myfristandroid'
p1519
sS'OutBounds'
p1520
S'Rect(0, 0 - 1080, 1920)'
p1521
sS'Action'
p1522
S'[ ClassName: android.widget.FrameLayout; Text: []; ContentDescription: null; ItemCount: -1; CurrentItemIndex: -1; IsEnabled: true; IsPassword: false; IsChecked: false; IsFullScreen: false; Scrollable: false; BeforeText: null; FromIndex: -1; ToIndex: -1; ScrollX: -1; ScrollY: -1; MaxScrollX: -1; MaxScrollY: -1; AddedCount: -1; RemovedCount: -1; ParcelableData: null ]'
p1523
sS'MovementGranularity'
p1524
g6
sa(dp1525
S'EventTime'
p1526
S'86395190'
p1527
sg4
L1449715884119L
sS'recordCount'
p1528
g6
sS'EventType'
p1529
S'TYPE_WINDOW_CONTENT_CHANGED'
p1530
sS'PackageName'
p1531
S'com.example.myfristandroid'
p1532
sS'OutBounds'
p1533
S'Rect(0, 0 - 1920, 1080)'
p1534
sS'Action'
p1535
S'[ ClassName: android.widget.FrameLayout; Text: []; ContentDescription: null; ItemCount: -1; CurrentItemIndex: -1; IsEnabled: true; IsPassword: false; IsChecked: false; IsFullScreen: false; Scrollable: false; BeforeText: null; FromIndex: -1; ToIndex: -1; ScrollX: -1; ScrollY: -1; MaxScrollX: -1; MaxScrollY: -1; AddedCount: -1; RemovedCount: -1; ParcelableData: null ]'
p1536
sS'MovementGranularity'
p1537
g6
sa(dp1538
S'EventTime'
p1539
S'86395385'
p1540
sg4
L1449715884298L
sS'recordCount'
p1541
g6
sS'EventType'
p1542
S'TYPE_VIEW_SCROLLED'
p1543
sS'PackageName'
p1544
S'com.example.myfristandroid'
p1545
sS'OutBounds'
p1546
S'Rect(0, 75 - 1920, 1080)'
p1547
sS'Action'
p1548
S'[ ClassName: android.webkit.WebView; Text: []; ContentDescription: null; ItemCount: -1; CurrentItemIndex: -1; IsEnabled: true; IsPassword: false; IsChecked: false; IsFullScreen: false; Scrollable: true; BeforeText: null; FromIndex: -1; ToIndex: -1; ScrollX: 0; ScrollY: 0; MaxScrollX: 0; MaxScrollY: 705; AddedCount: -1; RemovedCount: -1; ParcelableData: null ]'
p1549
sS'MovementGranularity'
p1550
g6
sa(dp1551
S'EventTime'
p1552
S'86398340'
p1553
sg4
L1449715887268L
sS'recordCount'
p1554
g6
sS'EventType'
p1555
S'TYPE_WINDOW_STATE_CHANGED'
p1556
sS'PackageName'
p1557
S'com.example.myfristandroid'
p1558
sS'OutBounds'
p1559
S'Rect(0, 0 - 1080, 1920)'
p1560
sS'Action'
p1561
S'[ ClassName: com.example.myfristandroid.MainActivity; Text: [SE-1800\xe7\xa7\xbb\xe5\x8a\xa8APP]; ContentDescription: null; ItemCount: -1; CurrentItemIndex: -1; IsEnabled: true; IsPassword: false; IsChecked: false; IsFullScreen: true; Scrollable: false; BeforeText: null; FromIndex: -1; ToIndex: -1; ScrollX: -1; ScrollY: -1; MaxScrollX: -1; MaxScrollY: -1; AddedCount: -1; RemovedCount: -1; ParcelableData: null ]'
p1562
sS'MovementGranularity'
p1563
g6
sa(dp1564
S'EventTime'
p1565
S'86399756'
p1566
sg4
L1449715888666L
sS'recordCount'
p1567
g176
sS'EventType'
p1568
S'TYPE_VIEW_CLICKED'
p1569
sS'PackageName'
p1570
S'com.example.myfristandroid'
p1571
sS'OutBounds'
p1572
S'Rect(9, 219 - 361, 571)'
p1573
sS'Action'
p1574
S'[ ClassName: android.widget.RelativeLayout; Text: [\xe4\xb8\x80\xe6\xac\xa1\xe6\x8e\xa5\xe7\xba\xbf\xe5\x9b\xbe]; ContentDescription: null; ItemCount: -1; CurrentItemIndex: -1; IsEnabled: true; IsPassword: false; IsChecked: false; IsFullScreen: false; Scrollable: false; BeforeText: null; FromIndex: -1; ToIndex: -1; ScrollX: -1; ScrollY: -1; MaxScrollX: -1; MaxScrollY: -1; AddedCount: -1; RemovedCount: -1; ParcelableData: null ]'
p1575
sS'MovementGranularity'
p1576
g6
sa(dp1577
S'EventTime'
p1578
S'86399953'
p1579
sg4
L1449715888867L
sS'recordCount'
p1580
g6
sS'EventType'
p1581
S'TYPE_WINDOW_STATE_CHANGED'
p1582
sS'PackageName'
p1583
S'com.example.myfristandroid'
p1584
sS'OutBounds'
p1585
S'Rect(0, 0 - 1080, 1920)'
p1586
sS'Action'
p1587
S'[ ClassName: com.example.myfristandroid.graphWebShow; Text: [SE-1800\xe7\xa7\xbb\xe5\x8a\xa8APP]; ContentDescription: null; ItemCount: -1; CurrentItemIndex: -1; IsEnabled: true; IsPassword: false; IsChecked: false; IsFullScreen: true; Scrollable: false; BeforeText: null; FromIndex: -1; ToIndex: -1; ScrollX: -1; ScrollY: -1; MaxScrollX: -1; MaxScrollY: -1; AddedCount: -1; RemovedCount: -1; ParcelableData: null ]'
p1588
sS'MovementGranularity'
p1589
g6
sa(dp1590
S'EventTime'
p1591
S'86400024'
p1592
sg4
L1449715888937L
sS'recordCount'
p1593
g6
sS'EventType'
p1594
S'TYPE_WINDOW_CONTENT_CHANGED'
p1595
sS'PackageName'
p1596
S'com.example.myfristandroid'
p1597
sS'OutBounds'
p1598
S'Rect(0, 0 - 1080, 1920)'
p1599
sS'Action'
p1600
S'[ ClassName: android.widget.FrameLayout; Text: []; ContentDescription: null; ItemCount: -1; CurrentItemIndex: -1; IsEnabled: true; IsPassword: false; IsChecked: false; IsFullScreen: false; Scrollable: false; BeforeText: null; FromIndex: -1; ToIndex: -1; ScrollX: -1; ScrollY: -1; MaxScrollX: -1; MaxScrollY: -1; AddedCount: -1; RemovedCount: -1; ParcelableData: null ]'
p1601
sS'MovementGranularity'
p1602
g6
sa(dp1603
S'EventTime'
p1604
S'86401694'
p1605
sg4
L1449715890623L
sS'recordCount'
p1606
g6
sS'EventType'
p1607
S'TYPE_WINDOW_STATE_CHANGED'
p1608
sS'PackageName'
p1609
S'com.example.myfristandroid'
p1610
sS'OutBounds'
p1611
S'Rect(0, 0 - 1080, 1920)'
p1612
sS'Action'
p1613
S'[ ClassName: com.example.myfristandroid.MainActivity; Text: [SE-1800\xe7\xa7\xbb\xe5\x8a\xa8APP]; ContentDescription: null; ItemCount: -1; CurrentItemIndex: -1; IsEnabled: true; IsPassword: false; IsChecked: false; IsFullScreen: true; Scrollable: false; BeforeText: null; FromIndex: -1; ToIndex: -1; ScrollX: -1; ScrollY: -1; MaxScrollX: -1; MaxScrollY: -1; AddedCount: -1; RemovedCount: -1; ParcelableData: null ]'
p1614
sS'MovementGranularity'
p1615
g6
sa.