(lp0
(dp1
S'EventTime'
p2
S'6129344'
p3
sS'SyscTime'
p4
L1449905680287L
sS'recordCount'
p5
S'0'
p6
sS'EventType'
p7
S'TYPE_WINDOW_STATE_CHANGED'
p8
sS'PackageName'
p9
S'com.taobao.ishopping'
p10
sS'OutBounds'
p11
S'Rect(0, 0 - 1080, 1920)'
p12
sS'Action'
p13
S'[ ClassName: com.taobao.ishopping.activity.SplashActivity; Text: [\xe7\x88\xb1\xe9\x80\x9b\xe8\xa1\x97]; ContentDescription: null; ItemCount: -1; CurrentItemIndex: -1; IsEnabled: true; IsPassword: false; IsChecked: false; IsFullScreen: true; Scrollable: false; BeforeText: null; FromIndex: -1; ToIndex: -1; ScrollX: -1; ScrollY: -1; MaxScrollX: -1; MaxScrollY: -1; AddedCount: -1; RemovedCount: -1; ParcelableData: null ]'
p14
sS'MovementGranularity'
p15
g6
sa(dp16
S'EventTime'
p17
S'6129557'
p18
sg4
L1449905680486L
sS'recordCount'
p19
g6
sS'EventType'
p20
S'TYPE_WINDOW_CONTENT_CHANGED'
p21
sS'PackageName'
p22
S'com.taobao.ishopping'
p23
sS'OutBounds'
p24
S'Rect(0, 0 - 1080, 1920)'
p25
sS'Action'
p26
S'[ ClassName: android.widget.FrameLayout; Text: []; ContentDescription: null; ItemCount: -1; CurrentItemIndex: -1; IsEnabled: true; IsPassword: false; IsChecked: false; IsFullScreen: false; Scrollable: false; BeforeText: null; FromIndex: -1; ToIndex: -1; ScrollX: -1; ScrollY: -1; MaxScrollX: -1; MaxScrollY: -1; AddedCount: -1; RemovedCount: -1; ParcelableData: null ]'
p27
sS'MovementGranularity'
p28
g6
sa(dp29
S'EventTime'
p30
S'6131269'
p31
sg4
L1449905682205L
sS'recordCount'
p32
g6
sS'EventType'
p33
S'TYPE_WINDOW_CONTENT_CHANGED'
p34
sS'PackageName'
p35
S'com.taobao.ishopping'
p36
sS'OutBounds'
p37
S'Rect(227, 1666 - 852, 1728)'
p38
sS'Action'
p39
S'[ ClassName: android.widget.TextView; Text: []; ContentDescription: null; ItemCount: -1; CurrentItemIndex: -1; IsEnabled: true; IsPassword: false; IsChecked: false; IsFullScreen: false; Scrollable: false; BeforeText: null; FromIndex: -1; ToIndex: -1; ScrollX: -1; ScrollY: -1; MaxScrollX: -1; MaxScrollY: -1; AddedCount: -1; RemovedCount: -1; ParcelableData: null ]'
p40
sS'MovementGranularity'
p41
g6
sa(dp42
S'EventTime'
p43
S'6131478'
p44
sg4
L1449905682419L
sS'recordCount'
p45
g6
sS'EventType'
p46
S'TYPE_WINDOW_CONTENT_CHANGED'
p47
sS'PackageName'
p48
S'com.taobao.ishopping'
p49
sS'OutBounds'
p50
S'Rect(227, 1728 - 852, 1798)'
p51
sS'Action'
p52
S'[ ClassName: android.widget.TextView; Text: []; ContentDescription: null; ItemCount: -1; CurrentItemIndex: -1; IsEnabled: true; IsPassword: false; IsChecked: false; IsFullScreen: false; Scrollable: false; BeforeText: null; FromIndex: -1; ToIndex: -1; ScrollX: -1; ScrollY: -1; MaxScrollX: -1; MaxScrollY: -1; AddedCount: -1; RemovedCount: -1; ParcelableData: null ]'
p53
sS'MovementGranularity'
p54
g6
sa(dp55
S'EventTime'
p56
S'6135830'
p57
sg4
L1449905686771L
sS'recordCount'
p58
g6
sS'EventType'
p59
S'TYPE_WINDOW_STATE_CHANGED'
p60
sS'PackageName'
p61
S'com.taobao.ishopping'
p62
sS'OutBounds'
p63
S'Rect(0, 0 - 1080, 1920)'
p64
sS'Action'
p65
S'[ ClassName: com.taobao.ishopping.activity.home.MainActivity; Text: [\xe7\x88\xb1\xe9\x80\x9b\xe8\xa1\x97]; ContentDescription: null; ItemCount: -1; CurrentItemIndex: -1; IsEnabled: true; IsPassword: false; IsChecked: false; IsFullScreen: true; Scrollable: false; BeforeText: null; FromIndex: -1; ToIndex: -1; ScrollX: -1; ScrollY: -1; MaxScrollX: -1; MaxScrollY: -1; AddedCount: -1; RemovedCount: -1; ParcelableData: null ]'
p66
sS'MovementGranularity'
p67
g6
sa(dp68
S'EventTime'
p69
S'6135847'
p70
sg4
L1449905686784L
sS'recordCount'
p71
g6
sS'EventType'
p72
S'TYPE_WINDOW_CONTENT_CHANGED'
p73
sS'PackageName'
p74
S'com.taobao.ishopping'
p75
sS'OutBounds'
p76
S'Rect(447, 322 - 747, 207)'
p77
sS'Action'
p78
S'[ ClassName: android.widget.TextView; Text: []; ContentDescription: null; ItemCount: -1; CurrentItemIndex: -1; IsEnabled: true; IsPassword: false; IsChecked: false; IsFullScreen: false; Scrollable: false; BeforeText: null; FromIndex: -1; ToIndex: -1; ScrollX: -1; ScrollY: -1; MaxScrollX: -1; MaxScrollY: -1; AddedCount: -1; RemovedCount: -1; ParcelableData: null ]'
p79
sS'MovementGranularity'
p80
g6
sa(dp81
S'EventTime'
p82
S'6135860'
p83
sg4
L1449905686792L
sS'recordCount'
p84
g6
sS'EventType'
p85
S'TYPE_VIEW_SCROLLED'
p86
sS'PackageName'
p87
S'com.taobao.ishopping'
p88
sS'OutBounds'
p89
S'Rect(0, 75 - 1080, 1761)'
p90
sS'Action'
p91
S'[ ClassName: android.support.v7.widget.RecyclerView; Text: []; ContentDescription: null; ItemCount: 4; CurrentItemIndex: -1; IsEnabled: true; IsPassword: false; IsChecked: false; IsFullScreen: false; Scrollable: false; BeforeText: null; FromIndex: 0; ToIndex: 3; ScrollX: -1; ScrollY: -1; MaxScrollX: -1; MaxScrollY: -1; AddedCount: -1; RemovedCount: -1; ParcelableData: null ]'
p92
sS'MovementGranularity'
p93
g6
sa(dp94
S'EventTime'
p95
S'6138254'
p96
sg4
L1449905689235L
sS'recordCount'
p97
g6
sS'EventType'
p98
S'TYPE_WINDOW_CONTENT_CHANGED'
p99
sS'PackageName'
p100
S'com.taobao.ishopping'
p101
sS'OutBounds'
p102
S'Rect(0, 1761 - 216, 1920)'
p103
sS'Action'
p104
S'[ ClassName: android.widget.RelativeLayout; Text: []; ContentDescription: null; ItemCount: -1; CurrentItemIndex: -1; IsEnabled: true; IsPassword: false; IsChecked: false; IsFullScreen: false; Scrollable: false; BeforeText: null; FromIndex: -1; ToIndex: -1; ScrollX: -1; ScrollY: -1; MaxScrollX: -1; MaxScrollY: -1; AddedCount: -1; RemovedCount: -1; ParcelableData: null ]'
p105
sS'MovementGranularity'
p106
g6
sa(dp107
S'EventTime'
p108
S'6138255'
p109
sg4
L1449905689274L
sS'recordCount'
p110
g6
sS'EventType'
p111
S'TYPE_VIEW_SELECTED'
p112
sS'PackageName'
p113
S'com.taobao.ishopping'
p114
sS'OutBounds'
p115
S'Rect(648, 1761 - 864, 1920)'
p116
sS'Action'
p117
S'[ ClassName: android.widget.RelativeLayout; Text: [\xe6\xb6\x88\xe6\x81\xaf]; ContentDescription: null; ItemCount: -1; CurrentItemIndex: -1; IsEnabled: true; IsPassword: false; IsChecked: false; IsFullScreen: false; Scrollable: false; BeforeText: null; FromIndex: -1; ToIndex: -1; ScrollX: -1; ScrollY: -1; MaxScrollX: -1; MaxScrollY: -1; AddedCount: -1; RemovedCount: -1; ParcelableData: null ]'
p118
sS'MovementGranularity'
p119
g6
sa(dp120
S'EventTime'
p121
S'6138255'
p122
sg4
L1449905689311L
sS'recordCount'
p123
g6
sS'EventType'
p124
S'TYPE_VIEW_CLICKED'
p125
sS'PackageName'
p126
S'com.taobao.ishopping'
p127
sS'OutBounds'
p128
S'Rect(648, 1761 - 864, 1920)'
p129
sS'Action'
p130
S'[ ClassName: android.widget.RelativeLayout; Text: [\xe6\xb6\x88\xe6\x81\xaf]; ContentDescription: null; ItemCount: -1; CurrentItemIndex: -1; IsEnabled: true; IsPassword: false; IsChecked: false; IsFullScreen: false; Scrollable: false; BeforeText: null; FromIndex: -1; ToIndex: -1; ScrollX: -1; ScrollY: -1; MaxScrollX: -1; MaxScrollY: -1; AddedCount: -1; RemovedCount: -1; ParcelableData: null ]'
p131
sS'MovementGranularity'
p132
g6
sa(dp133
S'EventTime'
p134
S'6138439'
p135
sg4
L1449905689373L
sS'recordCount'
p136
g6
sS'EventType'
p137
S'TYPE_VIEW_SCROLLED'
p138
sS'PackageName'
p139
S'com.taobao.ishopping'
p140
sS'OutBounds'
p141
S'Rect(0, 207 - 1080, 1761)'
p142
sS'Action'
p143
S'[ ClassName: android.widget.ListView; Text: []; ContentDescription: null; ItemCount: 5; CurrentItemIndex: -1; IsEnabled: true; IsPassword: false; IsChecked: false; IsFullScreen: false; Scrollable: false; BeforeText: null; FromIndex: 0; ToIndex: 4; ScrollX: -1; ScrollY: -1; MaxScrollX: -1; MaxScrollY: -1; AddedCount: -1; RemovedCount: -1; ParcelableData: null ]'
p144
sS'MovementGranularity'
p145
g6
sa(dp146
S'EventTime'
p147
S'6138535'
p148
sg4
L1449905689464L
sS'recordCount'
p149
S'1'
p150
sS'EventType'
p151
S'TYPE_WINDOW_CONTENT_CHANGED'
p152
sS'PackageName'
p153
S'com.taobao.ishopping'
p154
sS'OutBounds'
p155
S'Rect(210, 1172 - 210, 1211)'
p156
sS'Action'
p157
S'[ ClassName: android.widget.TextView; Text: []; ContentDescription: null; ItemCount: -1; CurrentItemIndex: -1; IsEnabled: true; IsPassword: false; IsChecked: false; IsFullScreen: false; Scrollable: false; BeforeText: null; FromIndex: -1; ToIndex: -1; ScrollX: -1; ScrollY: -1; MaxScrollX: -1; MaxScrollY: -1; AddedCount: -1; RemovedCount: -1; ParcelableData: null ]'
p158
sS'MovementGranularity'
p159
g6
sa(dp160
S'EventTime'
p161
S'6140423'
p162
sg4
L1449905691464L
sS'recordCount'
p163
g150
sS'EventType'
p164
S'TYPE_VIEW_CLICKED'
p165
sS'PackageName'
p166
S'com.taobao.ishopping'
p167
sS'OutBounds'
p168
S'Rect(0, 625 - 1080, 834)'
p169
sS'Action'
p170
S'[ ClassName: android.widget.RelativeLayout; Text: [\xe4\xb9\xb0\xe4\xb9\xb0\xe4\xb9\xb0, 15:30, \xe9\x9c\x96\xe9\x9c\x967\xe5\x8c\x85\xe5\xad\x90\xef\xbc\x9a\xe4\xba\x94\xe6\xaf\x9b\xe7\x9a\x84]; ContentDescription: null; ItemCount: -1; CurrentItemIndex: -1; IsEnabled: true; IsPassword: false; IsChecked: false; IsFullScreen: false; Scrollable: false; BeforeText: null; FromIndex: -1; ToIndex: -1; ScrollX: -1; ScrollY: -1; MaxScrollX: -1; MaxScrollY: -1; AddedCount: -1; RemovedCount: -1; ParcelableData: null ]'
p171
sS'MovementGranularity'
p172
g6
sa(dp173
S'EventTime'
p174
S'6140820'
p175
sg4
L1449905691832L
sS'recordCount'
p176
g6
sS'EventType'
p177
S'TYPE_WINDOW_STATE_CHANGED'
p178
sS'PackageName'
p179
S'com.taobao.ishopping'
p180
sS'OutBounds'
p181
S'Rect(0, 0 - 1080, 1920)'
p182
sS'Action'
p183
S'[ ClassName: com.taobao.ishopping.im.activity.GroupChatActivity; Text: [\xe7\x88\xb1\xe9\x80\x9b\xe8\xa1\x97]; ContentDescription: null; ItemCount: -1; CurrentItemIndex: -1; IsEnabled: true; IsPassword: false; IsChecked: false; IsFullScreen: true; Scrollable: false; BeforeText: null; FromIndex: -1; ToIndex: -1; ScrollX: -1; ScrollY: -1; MaxScrollX: -1; MaxScrollY: -1; AddedCount: -1; RemovedCount: -1; ParcelableData: null ]'
p184
sS'MovementGranularity'
p185
g6
sa(dp186
S'EventTime'
p187
S'6140826'
p188
sg4
L1449905691866L
sS'recordCount'
p189
g6
sS'EventType'
p190
S'TYPE_VIEW_SCROLLED'
p191
sS'PackageName'
p192
S'com.taobao.ishopping'
p193
sS'OutBounds'
p194
S'Rect(0, 345 - 1080, 1767)'
p195
sS'Action'
p196
S'[ ClassName: android.widget.ListView; Text: []; ContentDescription: null; ItemCount: 9; CurrentItemIndex: -1; IsEnabled: true; IsPassword: false; IsChecked: false; IsFullScreen: false; Scrollable: true; BeforeText: null; FromIndex: 4; ToIndex: 8; ScrollX: -1; ScrollY: -1; MaxScrollX: -1; MaxScrollY: -1; AddedCount: -1; RemovedCount: -1; ParcelableData: null ]'
p197
sS'MovementGranularity'
p198
g6
sa(dp199
S'EventTime'
p200
S'6141010'
p201
sg4
L1449905691945L
sS'recordCount'
p202
g6
sS'EventType'
p203
S'TYPE_VIEW_SCROLLED'
p204
sS'PackageName'
p205
S'com.taobao.ishopping'
p206
sS'OutBounds'
p207
S'Rect(0, 345 - 1080, 1767)'
p208
sS'Action'
p209
S'[ ClassName: android.widget.ListView; Text: []; ContentDescription: null; ItemCount: 9; CurrentItemIndex: -1; IsEnabled: true; IsPassword: false; IsChecked: false; IsFullScreen: false; Scrollable: true; BeforeText: null; FromIndex: 2; ToIndex: 8; ScrollX: -1; ScrollY: -1; MaxScrollX: -1; MaxScrollY: -1; AddedCount: -1; RemovedCount: -1; ParcelableData: null ]'
p210
sS'MovementGranularity'
p211
g6
sa(dp212
S'EventTime'
p213
S'6141117'
p214
sg4
L1449905692046L
sS'recordCount'
p215
g150
sS'EventType'
p216
S'TYPE_WINDOW_CONTENT_CHANGED'
p217
sS'PackageName'
p218
S'com.taobao.ishopping'
p219
sS'OutBounds'
p220
S'Rect(692, 345 - 900, 417)'
p221
sS'Action'
p222
S'[ ClassName: android.widget.TextView; Text: []; ContentDescription: null; ItemCount: -1; CurrentItemIndex: -1; IsEnabled: true; IsPassword: false; IsChecked: false; IsFullScreen: false; Scrollable: false; BeforeText: null; FromIndex: -1; ToIndex: -1; ScrollX: -1; ScrollY: -1; MaxScrollX: -1; MaxScrollY: -1; AddedCount: -1; RemovedCount: -1; ParcelableData: null ]'
p223
sS'MovementGranularity'
p224
g6
sa(dp225
S'EventTime'
p226
S'6144457'
p227
sg4
L1449905695386L
sS'recordCount'
p228
g6
sS'EventType'
p229
S'TYPE_WINDOW_CONTENT_CHANGED'
p230
sS'PackageName'
p231
S'com.taobao.ishopping'
p232
sS'OutBounds'
p233
S'Rect(0, 210 - 538, 345)'
p234
sS'Action'
p235
S'[ ClassName: android.widget.TextView; Text: []; ContentDescription: null; ItemCount: -1; CurrentItemIndex: -1; IsEnabled: true; IsPassword: false; IsChecked: false; IsFullScreen: false; Scrollable: false; BeforeText: null; FromIndex: -1; ToIndex: -1; ScrollX: -1; ScrollY: -1; MaxScrollX: -1; MaxScrollY: -1; AddedCount: -1; RemovedCount: -1; ParcelableData: null ]'
p236
sS'MovementGranularity'
p237
g6
sa(dp238
S'EventTime'
p239
S'6144457'
p240
sg4
L1449905695395L
sS'recordCount'
p241
g6
sS'EventType'
p242
S'TYPE_VIEW_CLICKED'
p243
sS'PackageName'
p244
S'com.taobao.ishopping'
p245
sS'OutBounds'
p246
S'Rect(0, 210 - 538, 345)'
p247
sS'Action'
p248
S'[ ClassName: android.widget.TextView; Text: [\xe6\x8e\xa5\xe5\x8f\x97\xe6\x8f\x90\xe9\x86\x92]; ContentDescription: null; ItemCount: -1; CurrentItemIndex: -1; IsEnabled: true; IsPassword: false; IsChecked: false; IsFullScreen: false; Scrollable: false; BeforeText: null; FromIndex: -1; ToIndex: -1; ScrollX: -1; ScrollY: -1; MaxScrollX: -1; MaxScrollY: -1; AddedCount: -1; RemovedCount: -1; ParcelableData: null ]'
p249
sS'MovementGranularity'
p250
g6
sa(dp251
S'EventTime'
p252
S'6144481'
p253
sg4
L1449905695410L
sS'recordCount'
p254
g6
sS'EventType'
p255
S'TYPE_NOTIFICATION_STATE_CHANGED'
p256
sS'PackageName'
p257
S'com.taobao.ishopping'
p258
sS'Action'
p259
S'[ ClassName: android.widget.Toast$TN; Text: [\xe5\xb7\xb2\xe6\x88\x90\xe5\x8a\x9f\xe5\x8f\x96\xe6\xb6\x88\xe6\x8f\x90\xe9\x86\x92]; ContentDescription: null; ItemCount: -1; CurrentItemIndex: -1; IsEnabled: false; IsPassword: false; IsChecked: false; IsFullScreen: false; Scrollable: false; BeforeText: null; FromIndex: -1; ToIndex: -1; ScrollX: -1; ScrollY: -1; MaxScrollX: -1; MaxScrollY: -1; AddedCount: -1; RemovedCount: -1; ParcelableData: null ]'
p260
sS'MovementGranularity'
p261
g6
sa(dp262
S'EventTime'
p263
S'6153735'
p264
sg4
L1449905704663L
sS'recordCount'
p265
g6
sS'EventType'
p266
S'TYPE_VIEW_CLICKED'
p267
sS'PackageName'
p268
S'com.taobao.ishopping'
p269
sS'Action'
p270
S'[ ClassName: android.widget.ImageButton; Text: [\xe8\xbd\xac\xe5\x88\xb0\xe4\xb8\x8a\xe4\xb8\x80\xe5\xb1\x82\xe7\xba\xa7]; ContentDescription: \xe8\xbd\xac\xe5\x88\xb0\xe4\xb8\x8a\xe4\xb8\x80\xe5\xb1\x82\xe7\xba\xa7; ItemCount: -1; CurrentItemIndex: -1; IsEnabled: true; IsPassword: false; IsChecked: false; IsFullScreen: false; Scrollable: false; BeforeText: null; FromIndex: -1; ToIndex: -1; ScrollX: -1; ScrollY: -1; MaxScrollX: -1; MaxScrollY: -1; AddedCount: -1; RemovedCount: -1; ParcelableData: null ]'
p271
sS'MovementGranularity'
p272
g6
sa(dp273
S'EventTime'
p274
S'6153771'
p275
sg4
L1449905704708L
sS'recordCount'
p276
g6
sS'EventType'
p277
S'TYPE_WINDOW_STATE_CHANGED'
p278
sS'PackageName'
p279
S'com.taobao.ishopping'
p280
sS'OutBounds'
p281
S'Rect(0, 0 - 1080, 1920)'
p282
sS'Action'
p283
S'[ ClassName: com.taobao.ishopping.activity.home.MainActivity; Text: [\xe7\x88\xb1\xe9\x80\x9b\xe8\xa1\x97]; ContentDescription: null; ItemCount: -1; CurrentItemIndex: -1; IsEnabled: true; IsPassword: false; IsChecked: false; IsFullScreen: true; Scrollable: false; BeforeText: null; FromIndex: -1; ToIndex: -1; ScrollX: -1; ScrollY: -1; MaxScrollX: -1; MaxScrollY: -1; AddedCount: -1; RemovedCount: -1; ParcelableData: null ]'
p284
sS'MovementGranularity'
p285
g6
sa.