(lp0
(dp1
S'EventTime'
p2
S'25774646'
p3
sS'SyscTime'
p4
L1449910817233L
sS'recordCount'
p5
S'0'
p6
sS'EventType'
p7
S'TYPE_WINDOW_STATE_CHANGED'
p8
sS'PackageName'
p9
S'com.taobao.ishopping'
p10
sS'OutBounds'
p11
S'Rect(0, 0 - 1080, 1920)'
p12
sS'Action'
p13
S'[ ClassName: com.taobao.ishopping.activity.SplashActivity; Text: [\xe7\x88\xb1\xe9\x80\x9b\xe8\xa1\x97]; ContentDescription: null; ItemCount: -1; CurrentItemIndex: -1; IsEnabled: true; IsPassword: false; IsChecked: false; IsFullScreen: true; Scrollable: false; BeforeText: null; FromIndex: -1; ToIndex: -1; ScrollX: -1; ScrollY: -1; MaxScrollX: -1; MaxScrollY: -1; AddedCount: -1; RemovedCount: -1; ParcelableData: null ]'
p14
sS'MovementGranularity'
p15
g6
sa(dp16
S'EventTime'
p17
S'25774812'
p18
sg4
L1449910817331L
sS'recordCount'
p19
g6
sS'EventType'
p20
S'TYPE_WINDOW_CONTENT_CHANGED'
p21
sS'PackageName'
p22
S'com.taobao.ishopping'
p23
sS'OutBounds'
p24
S'Rect(0, 0 - 1080, 1920)'
p25
sS'Action'
p26
S'[ ClassName: android.widget.FrameLayout; Text: []; ContentDescription: null; ItemCount: -1; CurrentItemIndex: -1; IsEnabled: true; IsPassword: false; IsChecked: false; IsFullScreen: false; Scrollable: false; BeforeText: null; FromIndex: -1; ToIndex: -1; ScrollX: -1; ScrollY: -1; MaxScrollX: -1; MaxScrollY: -1; AddedCount: -1; RemovedCount: -1; ParcelableData: null ]'
p27
sS'MovementGranularity'
p28
g6
sa(dp29
S'EventTime'
p30
S'25774913'
p31
sg4
L1449910817432L
sS'recordCount'
p32
g6
sS'EventType'
p33
S'TYPE_WINDOW_CONTENT_CHANGED'
p34
sS'PackageName'
p35
S'com.taobao.ishopping'
p36
sS'OutBounds'
p37
S'Rect(0, 0 - 1080, 1920)'
p38
sS'Action'
p39
S'[ ClassName: android.widget.FrameLayout; Text: []; ContentDescription: null; ItemCount: -1; CurrentItemIndex: -1; IsEnabled: true; IsPassword: false; IsChecked: false; IsFullScreen: false; Scrollable: false; BeforeText: null; FromIndex: -1; ToIndex: -1; ScrollX: -1; ScrollY: -1; MaxScrollX: -1; MaxScrollY: -1; AddedCount: -1; RemovedCount: -1; ParcelableData: null ]'
p40
sS'MovementGranularity'
p41
g6
sa(dp42
S'EventTime'
p43
S'25779484'
p44
sg4
L1449910822023L
sS'recordCount'
p45
g6
sS'EventType'
p46
S'TYPE_WINDOW_STATE_CHANGED'
p47
sS'PackageName'
p48
S'com.taobao.ishopping'
p49
sS'OutBounds'
p50
S'Rect(0, 0 - 1080, 1920)'
p51
sS'Action'
p52
S'[ ClassName: com.taobao.ishopping.activity.home.MainActivity; Text: [\xe7\x88\xb1\xe9\x80\x9b\xe8\xa1\x97]; ContentDescription: null; ItemCount: -1; CurrentItemIndex: -1; IsEnabled: true; IsPassword: false; IsChecked: false; IsFullScreen: true; Scrollable: false; BeforeText: null; FromIndex: -1; ToIndex: -1; ScrollX: -1; ScrollY: -1; MaxScrollX: -1; MaxScrollY: -1; AddedCount: -1; RemovedCount: -1; ParcelableData: null ]'
p53
sS'MovementGranularity'
p54
g6
sa(dp55
S'EventTime'
p56
S'25780416'
p57
sg4
L1449910822999L
sS'recordCount'
p58
g6
sS'EventType'
p59
S'TYPE_WINDOW_CONTENT_CHANGED'
p60
sS'PackageName'
p61
S'com.taobao.ishopping'
p62
sS'OutBounds'
p63
S'Rect(0, 75 - 1080, 1759)'
p64
sS'Action'
p65
S'[ ClassName: android.support.v7.widget.RecyclerView; Text: []; ContentDescription: null; ItemCount: 14; CurrentItemIndex: -1; IsEnabled: true; IsPassword: false; IsChecked: false; IsFullScreen: false; Scrollable: true; BeforeText: null; FromIndex: 1; ToIndex: 2; ScrollX: -1; ScrollY: -1; MaxScrollX: -1; MaxScrollY: -1; AddedCount: -1; RemovedCount: -1; ParcelableData: null ]'
p66
sS'MovementGranularity'
p67
g6
sa(dp68
S'EventTime'
p69
S'25780549'
p70
sg4
L1449910823100L
sS'recordCount'
p71
g6
sS'EventType'
p72
S'TYPE_VIEW_SCROLLED'
p73
sS'PackageName'
p74
S'com.taobao.ishopping'
p75
sS'OutBounds'
p76
S'Rect(0, 75 - 1080, 1759)'
p77
sS'Action'
p78
S'[ ClassName: android.support.v7.widget.RecyclerView; Text: []; ContentDescription: null; ItemCount: 14; CurrentItemIndex: -1; IsEnabled: true; IsPassword: false; IsChecked: false; IsFullScreen: false; Scrollable: true; BeforeText: null; FromIndex: 1; ToIndex: 4; ScrollX: -1; ScrollY: -1; MaxScrollX: -1; MaxScrollY: -1; AddedCount: -1; RemovedCount: -1; ParcelableData: null ]'
p79
sS'MovementGranularity'
p80
g6
sa(dp81
S'EventTime'
p82
S'25780559'
p83
sg4
L1449910823154L
sS'recordCount'
p84
g6
sS'EventType'
p85
S'TYPE_WINDOW_CONTENT_CHANGED'
p86
sS'PackageName'
p87
S'com.taobao.ishopping'
p88
sS'OutBounds'
p89
S'Rect(0, 75 - 1080, 1759)'
p90
sS'Action'
p91
S'[ ClassName: android.support.v7.widget.RecyclerView; Text: []; ContentDescription: null; ItemCount: 14; CurrentItemIndex: -1; IsEnabled: true; IsPassword: false; IsChecked: false; IsFullScreen: false; Scrollable: true; BeforeText: null; FromIndex: 1; ToIndex: 4; ScrollX: -1; ScrollY: -1; MaxScrollX: -1; MaxScrollY: -1; AddedCount: -1; RemovedCount: -1; ParcelableData: null ]'
p92
sS'MovementGranularity'
p93
g6
sa(dp94
S'EventTime'
p95
S'25780672'
p96
sg4
L1449910823204L
sS'recordCount'
p97
g6
sS'EventType'
p98
S'TYPE_VIEW_SCROLLED'
p99
sS'PackageName'
p100
S'com.taobao.ishopping'
p101
sS'OutBounds'
p102
S'Rect(0, 75 - 1080, 1759)'
p103
sS'Action'
p104
S'[ ClassName: android.support.v7.widget.RecyclerView; Text: []; ContentDescription: null; ItemCount: 14; CurrentItemIndex: -1; IsEnabled: true; IsPassword: false; IsChecked: false; IsFullScreen: false; Scrollable: true; BeforeText: null; FromIndex: 1; ToIndex: 6; ScrollX: -1; ScrollY: -1; MaxScrollX: -1; MaxScrollY: -1; AddedCount: -1; RemovedCount: -1; ParcelableData: null ]'
p105
sS'MovementGranularity'
p106
g6
sa(dp107
S'EventTime'
p108
S'25780785'
p109
sg4
L1449910823317L
sS'recordCount'
p110
g6
sS'EventType'
p111
S'TYPE_VIEW_SCROLLED'
p112
sS'PackageName'
p113
S'com.taobao.ishopping'
p114
sS'OutBounds'
p115
S'Rect(0, 75 - 1080, 1759)'
p116
sS'Action'
p117
S'[ ClassName: android.support.v7.widget.RecyclerView; Text: []; ContentDescription: null; ItemCount: 14; CurrentItemIndex: -1; IsEnabled: true; IsPassword: false; IsChecked: false; IsFullScreen: false; Scrollable: true; BeforeText: null; FromIndex: 3; ToIndex: 6; ScrollX: -1; ScrollY: -1; MaxScrollX: -1; MaxScrollY: -1; AddedCount: -1; RemovedCount: -1; ParcelableData: null ]'
p118
sS'MovementGranularity'
p119
g6
sa(dp120
S'EventTime'
p121
S'25780884'
p122
sg4
L1449910823479L
sS'recordCount'
p123
g6
sS'EventType'
p124
S'TYPE_WINDOW_CONTENT_CHANGED'
p125
sS'PackageName'
p126
S'com.taobao.ishopping'
p127
sS'OutBounds'
p128
S'Rect(0, 75 - 1080, 1759)'
p129
sS'Action'
p130
S'[ ClassName: android.support.v7.widget.RecyclerView; Text: []; ContentDescription: null; ItemCount: 14; CurrentItemIndex: -1; IsEnabled: true; IsPassword: false; IsChecked: false; IsFullScreen: false; Scrollable: true; BeforeText: null; FromIndex: 3; ToIndex: 6; ScrollX: -1; ScrollY: -1; MaxScrollX: -1; MaxScrollY: -1; AddedCount: -1; RemovedCount: -1; ParcelableData: null ]'
p131
sS'MovementGranularity'
p132
g6
sa(dp133
S'EventTime'
p134
S'25780899'
p135
sg4
L1449910823519L
sS'recordCount'
p136
g6
sS'EventType'
p137
S'TYPE_VIEW_SCROLLED'
p138
sS'PackageName'
p139
S'com.taobao.ishopping'
p140
sS'OutBounds'
p141
S'Rect(0, 75 - 1080, 1759)'
p142
sS'Action'
p143
S'[ ClassName: android.support.v7.widget.RecyclerView; Text: []; ContentDescription: null; ItemCount: 14; CurrentItemIndex: -1; IsEnabled: true; IsPassword: false; IsChecked: false; IsFullScreen: false; Scrollable: true; BeforeText: null; FromIndex: 3; ToIndex: 6; ScrollX: -1; ScrollY: -1; MaxScrollX: -1; MaxScrollY: -1; AddedCount: -1; RemovedCount: -1; ParcelableData: null ]'
p144
sS'MovementGranularity'
p145
g6
sa(dp146
S'EventTime'
p147
S'25781056'
p148
sg4
L1449910823591L
sS'recordCount'
p149
g6
sS'EventType'
p150
S'TYPE_VIEW_SCROLLED'
p151
sS'PackageName'
p152
S'com.taobao.ishopping'
p153
sS'OutBounds'
p154
S'Rect(0, 75 - 1080, 1759)'
p155
sS'Action'
p156
S'[ ClassName: android.support.v7.widget.RecyclerView; Text: []; ContentDescription: null; ItemCount: 14; CurrentItemIndex: -1; IsEnabled: true; IsPassword: false; IsChecked: false; IsFullScreen: false; Scrollable: true; BeforeText: null; FromIndex: 3; ToIndex: 8; ScrollX: -1; ScrollY: -1; MaxScrollX: -1; MaxScrollY: -1; AddedCount: -1; RemovedCount: -1; ParcelableData: null ]'
p157
sS'MovementGranularity'
p158
g6
sa(dp159
S'EventTime'
p160
S'25781157'
p161
sg4
L1449910823699L
sS'recordCount'
p162
g6
sS'EventType'
p163
S'TYPE_VIEW_SCROLLED'
p164
sS'PackageName'
p165
S'com.taobao.ishopping'
p166
sS'OutBounds'
p167
S'Rect(0, 75 - 1080, 1759)'
p168
sS'Action'
p169
S'[ ClassName: android.support.v7.widget.RecyclerView; Text: []; ContentDescription: null; ItemCount: 14; CurrentItemIndex: -1; IsEnabled: true; IsPassword: false; IsChecked: false; IsFullScreen: false; Scrollable: true; BeforeText: null; FromIndex: 3; ToIndex: 8; ScrollX: -1; ScrollY: -1; MaxScrollX: -1; MaxScrollY: -1; AddedCount: -1; RemovedCount: -1; ParcelableData: null ]'
p170
sS'MovementGranularity'
p171
g6
sa(dp172
S'EventTime'
p173
S'25781250'
p174
sg4
L1449910823788L
sS'recordCount'
p175
g6
sS'EventType'
p176
S'TYPE_WINDOW_CONTENT_CHANGED'
p177
sS'PackageName'
p178
S'com.taobao.ishopping'
p179
sS'OutBounds'
p180
S'Rect(0, 75 - 1080, 1759)'
p181
sS'Action'
p182
S'[ ClassName: android.support.v7.widget.RecyclerView; Text: []; ContentDescription: null; ItemCount: 14; CurrentItemIndex: -1; IsEnabled: true; IsPassword: false; IsChecked: false; IsFullScreen: false; Scrollable: true; BeforeText: null; FromIndex: 3; ToIndex: 8; ScrollX: -1; ScrollY: -1; MaxScrollX: -1; MaxScrollY: -1; AddedCount: -1; RemovedCount: -1; ParcelableData: null ]'
p183
sS'MovementGranularity'
p184
g6
sa(dp185
S'EventTime'
p186
S'25781279'
p187
sg4
L1449910823832L
sS'recordCount'
p188
g6
sS'EventType'
p189
S'TYPE_VIEW_SCROLLED'
p190
sS'PackageName'
p191
S'com.taobao.ishopping'
p192
sS'OutBounds'
p193
S'Rect(0, 75 - 1080, 1759)'
p194
sS'Action'
p195
S'[ ClassName: android.support.v7.widget.RecyclerView; Text: []; ContentDescription: null; ItemCount: 14; CurrentItemIndex: -1; IsEnabled: true; IsPassword: false; IsChecked: false; IsFullScreen: false; Scrollable: true; BeforeText: null; FromIndex: 3; ToIndex: 8; ScrollX: -1; ScrollY: -1; MaxScrollX: -1; MaxScrollY: -1; AddedCount: -1; RemovedCount: -1; ParcelableData: null ]'
p196
sS'MovementGranularity'
p197
g6
sa(dp198
S'EventTime'
p199
S'25781394'
p200
sg4
L1449910823927L
sS'recordCount'
p201
g6
sS'EventType'
p202
S'TYPE_VIEW_SCROLLED'
p203
sS'PackageName'
p204
S'com.taobao.ishopping'
p205
sS'OutBounds'
p206
S'Rect(0, 75 - 1080, 1759)'
p207
sS'Action'
p208
S'[ ClassName: android.support.v7.widget.RecyclerView; Text: []; ContentDescription: null; ItemCount: 14; CurrentItemIndex: -1; IsEnabled: true; IsPassword: false; IsChecked: false; IsFullScreen: false; Scrollable: true; BeforeText: null; FromIndex: 3; ToIndex: 8; ScrollX: -1; ScrollY: -1; MaxScrollX: -1; MaxScrollY: -1; AddedCount: -1; RemovedCount: -1; ParcelableData: null ]'
p209
sS'MovementGranularity'
p210
g6
sa(dp211
S'EventTime'
p212
S'25781450'
p213
sg4
L1449910823986L
sS'recordCount'
p214
g6
sS'EventType'
p215
S'TYPE_WINDOW_CONTENT_CHANGED'
p216
sS'PackageName'
p217
S'com.taobao.ishopping'
p218
sS'OutBounds'
p219
S'Rect(0, 75 - 1080, 1759)'
p220
sS'Action'
p221
S'[ ClassName: android.support.v7.widget.RecyclerView; Text: []; ContentDescription: null; ItemCount: 14; CurrentItemIndex: -1; IsEnabled: true; IsPassword: false; IsChecked: false; IsFullScreen: false; Scrollable: true; BeforeText: null; FromIndex: 3; ToIndex: 8; ScrollX: -1; ScrollY: -1; MaxScrollX: -1; MaxScrollY: -1; AddedCount: -1; RemovedCount: -1; ParcelableData: null ]'
p222
sS'MovementGranularity'
p223
g6
sa(dp224
S'EventTime'
p225
S'25781510'
p226
sg4
L1449910824047L
sS'recordCount'
p227
g6
sS'EventType'
p228
S'TYPE_VIEW_SCROLLED'
p229
sS'PackageName'
p230
S'com.taobao.ishopping'
p231
sS'OutBounds'
p232
S'Rect(0, 75 - 1080, 1759)'
p233
sS'Action'
p234
S'[ ClassName: android.support.v7.widget.RecyclerView; Text: []; ContentDescription: null; ItemCount: 14; CurrentItemIndex: -1; IsEnabled: true; IsPassword: false; IsChecked: false; IsFullScreen: false; Scrollable: true; BeforeText: null; FromIndex: 3; ToIndex: 8; ScrollX: -1; ScrollY: -1; MaxScrollX: -1; MaxScrollY: -1; AddedCount: -1; RemovedCount: -1; ParcelableData: null ]'
p235
sS'MovementGranularity'
p236
g6
sa(dp237
S'EventTime'
p238
S'25782931'
p239
sg4
L1449910825478L
sS'recordCount'
p240
g6
sS'EventType'
p241
S'TYPE_WINDOW_CONTENT_CHANGED'
p242
sS'PackageName'
p243
S'com.taobao.ishopping'
p244
sS'OutBounds'
p245
S'Rect(28, 356 - 526, 1364)'
p246
sS'Action'
p247
S'[ ClassName: android.widget.LinearLayout; Text: []; ContentDescription: null; ItemCount: -1; CurrentItemIndex: -1; IsEnabled: true; IsPassword: false; IsChecked: false; IsFullScreen: false; Scrollable: false; BeforeText: null; FromIndex: -1; ToIndex: -1; ScrollX: -1; ScrollY: -1; MaxScrollX: -1; MaxScrollY: -1; AddedCount: -1; RemovedCount: -1; ParcelableData: null ]'
p248
sS'MovementGranularity'
p249
g6
sa(dp250
S'EventTime'
p251
S'25783033'
p252
sg4
L1449910825576L
sS'recordCount'
p253
g6
sS'EventType'
p254
S'TYPE_WINDOW_CONTENT_CHANGED'
p255
sS'PackageName'
p256
S'com.taobao.ishopping'
p257
sS'OutBounds'
p258
S'Rect(0, 75 - 1080, 1759)'
p259
sS'Action'
p260
S'[ ClassName: android.support.v7.widget.RecyclerView; Text: []; ContentDescription: null; ItemCount: 14; CurrentItemIndex: -1; IsEnabled: true; IsPassword: false; IsChecked: false; IsFullScreen: false; Scrollable: true; BeforeText: null; FromIndex: 2; ToIndex: 6; ScrollX: -1; ScrollY: -1; MaxScrollX: -1; MaxScrollY: -1; AddedCount: -1; RemovedCount: -1; ParcelableData: null ]'
p261
sS'MovementGranularity'
p262
g6
sa(dp263
S'EventTime'
p264
S'25783052'
p265
sg4
L1449910825626L
sS'recordCount'
p266
g6
sS'EventType'
p267
S'TYPE_VIEW_SCROLLED'
p268
sS'PackageName'
p269
S'com.taobao.ishopping'
p270
sS'OutBounds'
p271
S'Rect(0, 75 - 1080, 1759)'
p272
sS'Action'
p273
S'[ ClassName: android.support.v7.widget.RecyclerView; Text: []; ContentDescription: null; ItemCount: 14; CurrentItemIndex: -1; IsEnabled: true; IsPassword: false; IsChecked: false; IsFullScreen: false; Scrollable: true; BeforeText: null; FromIndex: 1; ToIndex: 6; ScrollX: -1; ScrollY: -1; MaxScrollX: -1; MaxScrollY: -1; AddedCount: -1; RemovedCount: -1; ParcelableData: null ]'
p274
sS'MovementGranularity'
p275
g6
sa(dp276
S'EventTime'
p277
S'25783136'
p278
sg4
L1449910825673L
sS'recordCount'
p279
g6
sS'EventType'
p280
S'TYPE_WINDOW_CONTENT_CHANGED'
p281
sS'PackageName'
p282
S'com.taobao.ishopping'
p283
sS'OutBounds'
p284
S'Rect(0, 75 - 1080, 1759)'
p285
sS'Action'
p286
S'[ ClassName: android.support.v7.widget.RecyclerView; Text: []; ContentDescription: null; ItemCount: 14; CurrentItemIndex: -1; IsEnabled: true; IsPassword: false; IsChecked: false; IsFullScreen: false; Scrollable: true; BeforeText: null; FromIndex: 1; ToIndex: 4; ScrollX: -1; ScrollY: -1; MaxScrollX: -1; MaxScrollY: -1; AddedCount: -1; RemovedCount: -1; ParcelableData: null ]'
p287
sS'MovementGranularity'
p288
g6
sa(dp289
S'EventTime'
p290
S'25783161'
p291
sg4
L1449910825712L
sS'recordCount'
p292
g6
sS'EventType'
p293
S'TYPE_VIEW_SCROLLED'
p294
sS'PackageName'
p295
S'com.taobao.ishopping'
p296
sS'OutBounds'
p297
S'Rect(0, 75 - 1080, 1759)'
p298
sS'Action'
p299
S'[ ClassName: android.support.v7.widget.RecyclerView; Text: []; ContentDescription: null; ItemCount: 14; CurrentItemIndex: -1; IsEnabled: true; IsPassword: false; IsChecked: false; IsFullScreen: false; Scrollable: true; BeforeText: null; FromIndex: 1; ToIndex: 4; ScrollX: -1; ScrollY: -1; MaxScrollX: -1; MaxScrollY: -1; AddedCount: -1; RemovedCount: -1; ParcelableData: null ]'
p300
sS'MovementGranularity'
p301
g6
sa(dp302
S'EventTime'
p303
S'25783280'
p304
sg4
L1449910825811L
sS'recordCount'
p305
g6
sS'EventType'
p306
S'TYPE_VIEW_SCROLLED'
p307
sS'PackageName'
p308
S'com.taobao.ishopping'
p309
sS'OutBounds'
p310
S'Rect(0, 75 - 1080, 1759)'
p311
sS'Action'
p312
S'[ ClassName: android.support.v7.widget.RecyclerView; Text: []; ContentDescription: null; ItemCount: 14; CurrentItemIndex: -1; IsEnabled: true; IsPassword: false; IsChecked: false; IsFullScreen: false; Scrollable: true; BeforeText: null; FromIndex: 1; ToIndex: 1; ScrollX: -1; ScrollY: -1; MaxScrollX: -1; MaxScrollY: -1; AddedCount: -1; RemovedCount: -1; ParcelableData: null ]'
p313
sS'MovementGranularity'
p314
g6
sa(dp315
S'EventTime'
p316
S'25783343'
p317
sg4
L1449910825870L
sS'recordCount'
p318
g6
sS'EventType'
p319
S'TYPE_WINDOW_CONTENT_CHANGED'
p320
sS'PackageName'
p321
S'com.taobao.ishopping'
p322
sS'OutBounds'
p323
S'Rect(0, 75 - 1080, 1759)'
p324
sS'Action'
p325
S'[ ClassName: android.support.v7.widget.RecyclerView; Text: []; ContentDescription: null; ItemCount: 14; CurrentItemIndex: -1; IsEnabled: true; IsPassword: false; IsChecked: false; IsFullScreen: false; Scrollable: true; BeforeText: null; FromIndex: 0; ToIndex: 1; ScrollX: -1; ScrollY: -1; MaxScrollX: -1; MaxScrollY: -1; AddedCount: -1; RemovedCount: -1; ParcelableData: null ]'
p326
sS'MovementGranularity'
p327
g6
sa(dp328
S'EventTime'
p329
S'25783394'
p330
sg4
L1449910825921L
sS'recordCount'
p331
g6
sS'EventType'
p332
S'TYPE_VIEW_SCROLLED'
p333
sS'PackageName'
p334
S'com.taobao.ishopping'
p335
sS'OutBounds'
p336
S'Rect(0, 75 - 1080, 1759)'
p337
sS'Action'
p338
S'[ ClassName: android.support.v7.widget.RecyclerView; Text: []; ContentDescription: null; ItemCount: 14; CurrentItemIndex: -1; IsEnabled: true; IsPassword: false; IsChecked: false; IsFullScreen: false; Scrollable: true; BeforeText: null; FromIndex: 0; ToIndex: 1; ScrollX: -1; ScrollY: -1; MaxScrollX: -1; MaxScrollY: -1; AddedCount: -1; RemovedCount: -1; ParcelableData: null ]'
p339
sS'MovementGranularity'
p340
g6
sa(dp341
S'EventTime'
p342
S'25783444'
p343
sg4
L1449910825972L
sS'recordCount'
p344
g6
sS'EventType'
p345
S'TYPE_WINDOW_CONTENT_CHANGED'
p346
sS'PackageName'
p347
S'com.taobao.ishopping'
p348
sS'OutBounds'
p349
S'Rect(0, 75 - 1080, 1759)'
p350
sS'Action'
p351
S'[ ClassName: android.support.v7.widget.RecyclerView; Text: []; ContentDescription: null; ItemCount: 14; CurrentItemIndex: -1; IsEnabled: true; IsPassword: false; IsChecked: false; IsFullScreen: false; Scrollable: true; BeforeText: null; FromIndex: 0; ToIndex: 1; ScrollX: -1; ScrollY: -1; MaxScrollX: -1; MaxScrollY: -1; AddedCount: -1; RemovedCount: -1; ParcelableData: null ]'
p352
sS'MovementGranularity'
p353
g6
sa(dp354
S'EventTime'
p355
S'25784044'
p356
sg4
L1449910826570L
sS'recordCount'
p357
g6
sS'EventType'
p358
S'TYPE_WINDOW_CONTENT_CHANGED'
p359
sS'PackageName'
p360
S'com.taobao.ishopping'
p361
sS'Action'
p362
S'[ ClassName: android.widget.FrameLayout; Text: []; ContentDescription: null; ItemCount: -1; CurrentItemIndex: -1; IsEnabled: true; IsPassword: false; IsChecked: false; IsFullScreen: false; Scrollable: false; BeforeText: null; FromIndex: -1; ToIndex: -1; ScrollX: -1; ScrollY: -1; MaxScrollX: -1; MaxScrollY: -1; AddedCount: -1; RemovedCount: -1; ParcelableData: null ]'
p363
sS'MovementGranularity'
p364
g6
sa(dp365
S'EventTime'
p366
S'25784147'
p367
sg4
L1449910826681L
sS'recordCount'
p368
g6
sS'EventType'
p369
S'TYPE_WINDOW_CONTENT_CHANGED'
p370
sS'PackageName'
p371
S'com.taobao.ishopping'
p372
sS'OutBounds'
p373
S'Rect(0, 75 - 1080, 1759)'
p374
sS'Action'
p375
S'[ ClassName: android.support.v7.widget.RecyclerView; Text: []; ContentDescription: null; ItemCount: 14; CurrentItemIndex: -1; IsEnabled: true; IsPassword: false; IsChecked: false; IsFullScreen: false; Scrollable: true; BeforeText: null; FromIndex: 1; ToIndex: 1; ScrollX: -1; ScrollY: -1; MaxScrollX: -1; MaxScrollY: -1; AddedCount: -1; RemovedCount: -1; ParcelableData: null ]'
p376
sS'MovementGranularity'
p377
g6
sa(dp378
S'EventTime'
p379
S'25784151'
p380
sg4
L1449910826744L
sS'recordCount'
p381
g6
sS'EventType'
p382
S'TYPE_VIEW_SCROLLED'
p383
sS'PackageName'
p384
S'com.taobao.ishopping'
p385
sS'OutBounds'
p386
S'Rect(0, 75 - 1080, 1759)'
p387
sS'Action'
p388
S'[ ClassName: android.support.v7.widget.RecyclerView; Text: []; ContentDescription: null; ItemCount: 14; CurrentItemIndex: -1; IsEnabled: true; IsPassword: false; IsChecked: false; IsFullScreen: false; Scrollable: true; BeforeText: null; FromIndex: 1; ToIndex: 1; ScrollX: -1; ScrollY: -1; MaxScrollX: -1; MaxScrollY: -1; AddedCount: -1; RemovedCount: -1; ParcelableData: null ]'
p389
sS'MovementGranularity'
p390
g6
sa(dp391
S'EventTime'
p392
S'25784250'
p393
sg4
L1449910826790L
sS'recordCount'
p394
g6
sS'EventType'
p395
S'TYPE_WINDOW_CONTENT_CHANGED'
p396
sS'PackageName'
p397
S'com.taobao.ishopping'
p398
sS'OutBounds'
p399
S'Rect(0, 75 - 1080, 1759)'
p400
sS'Action'
p401
S'[ ClassName: android.support.v7.widget.RecyclerView; Text: []; ContentDescription: null; ItemCount: 14; CurrentItemIndex: -1; IsEnabled: true; IsPassword: false; IsChecked: false; IsFullScreen: false; Scrollable: true; BeforeText: null; FromIndex: 1; ToIndex: 2; ScrollX: -1; ScrollY: -1; MaxScrollX: -1; MaxScrollY: -1; AddedCount: -1; RemovedCount: -1; ParcelableData: null ]'
p402
sS'MovementGranularity'
p403
g6
sa(dp404
S'EventTime'
p405
S'25784305'
p406
sg4
L1449910826837L
sS'recordCount'
p407
g6
sS'EventType'
p408
S'TYPE_VIEW_SCROLLED'
p409
sS'PackageName'
p410
S'com.taobao.ishopping'
p411
sS'OutBounds'
p412
S'Rect(0, 75 - 1080, 1759)'
p413
sS'Action'
p414
S'[ ClassName: android.support.v7.widget.RecyclerView; Text: []; ContentDescription: null; ItemCount: 14; CurrentItemIndex: -1; IsEnabled: true; IsPassword: false; IsChecked: false; IsFullScreen: false; Scrollable: true; BeforeText: null; FromIndex: 1; ToIndex: 4; ScrollX: -1; ScrollY: -1; MaxScrollX: -1; MaxScrollY: -1; AddedCount: -1; RemovedCount: -1; ParcelableData: null ]'
p415
sS'MovementGranularity'
p416
g6
sa(dp417
S'EventTime'
p418
S'25784355'
p419
sg4
L1449910826892L
sS'recordCount'
p420
g6
sS'EventType'
p421
S'TYPE_WINDOW_CONTENT_CHANGED'
p422
sS'PackageName'
p423
S'com.taobao.ishopping'
p424
sS'OutBounds'
p425
S'Rect(0, 75 - 1080, 1759)'
p426
sS'Action'
p427
S'[ ClassName: android.support.v7.widget.RecyclerView; Text: []; ContentDescription: null; ItemCount: 14; CurrentItemIndex: -1; IsEnabled: true; IsPassword: false; IsChecked: false; IsFullScreen: false; Scrollable: true; BeforeText: null; FromIndex: 1; ToIndex: 4; ScrollX: -1; ScrollY: -1; MaxScrollX: -1; MaxScrollY: -1; AddedCount: -1; RemovedCount: -1; ParcelableData: null ]'
p428
sS'MovementGranularity'
p429
g6
sa(dp430
S'EventTime'
p431
S'25784407'
p432
sg4
L1449910826943L
sS'recordCount'
p433
g6
sS'EventType'
p434
S'TYPE_VIEW_SCROLLED'
p435
sS'PackageName'
p436
S'com.taobao.ishopping'
p437
sS'OutBounds'
p438
S'Rect(0, 75 - 1080, 1759)'
p439
sS'Action'
p440
S'[ ClassName: android.support.v7.widget.RecyclerView; Text: []; ContentDescription: null; ItemCount: 14; CurrentItemIndex: -1; IsEnabled: true; IsPassword: false; IsChecked: false; IsFullScreen: false; Scrollable: true; BeforeText: null; FromIndex: 1; ToIndex: 4; ScrollX: -1; ScrollY: -1; MaxScrollX: -1; MaxScrollY: -1; AddedCount: -1; RemovedCount: -1; ParcelableData: null ]'
p441
sS'MovementGranularity'
p442
g6
sa(dp443
S'EventTime'
p444
S'25784527'
p445
sg4
L1449910827061L
sS'recordCount'
p446
g6
sS'EventType'
p447
S'TYPE_VIEW_SCROLLED'
p448
sS'PackageName'
p449
S'com.taobao.ishopping'
p450
sS'OutBounds'
p451
S'Rect(0, 75 - 1080, 1759)'
p452
sS'Action'
p453
S'[ ClassName: android.support.v7.widget.RecyclerView; Text: []; ContentDescription: null; ItemCount: 14; CurrentItemIndex: -1; IsEnabled: true; IsPassword: false; IsChecked: false; IsFullScreen: false; Scrollable: true; BeforeText: null; FromIndex: 1; ToIndex: 4; ScrollX: -1; ScrollY: -1; MaxScrollX: -1; MaxScrollY: -1; AddedCount: -1; RemovedCount: -1; ParcelableData: null ]'
p454
sS'MovementGranularity'
p455
g6
sa(dp456
S'EventTime'
p457
S'25784556'
p458
sg4
L1449910827100L
sS'recordCount'
p459
g6
sS'EventType'
p460
S'TYPE_WINDOW_CONTENT_CHANGED'
p461
sS'PackageName'
p462
S'com.taobao.ishopping'
p463
sS'OutBounds'
p464
S'Rect(0, 75 - 1080, 1759)'
p465
sS'Action'
p466
S'[ ClassName: android.support.v7.widget.RecyclerView; Text: []; ContentDescription: null; ItemCount: 14; CurrentItemIndex: -1; IsEnabled: true; IsPassword: false; IsChecked: false; IsFullScreen: false; Scrollable: true; BeforeText: null; FromIndex: 1; ToIndex: 4; ScrollX: -1; ScrollY: -1; MaxScrollX: -1; MaxScrollY: -1; AddedCount: -1; RemovedCount: -1; ParcelableData: null ]'
p467
sS'MovementGranularity'
p468
g6
sa(dp469
S'EventTime'
p470
S'25784716'
p471
sg4
L1449910827519L
sS'recordCount'
p472
g6
sS'EventType'
p473
S'TYPE_VIEW_CLICKED'
p474
sS'PackageName'
p475
S'com.taobao.ishopping'
p476
sS'OutBounds'
p477
S'Rect(541, 1011 - 1053, 1523)'
p478
sS'Action'
p479
S'[ ClassName: android.widget.ImageView; Text: []; ContentDescription: null; ItemCount: -1; CurrentItemIndex: -1; IsEnabled: true; IsPassword: false; IsChecked: false; IsFullScreen: false; Scrollable: false; BeforeText: null; FromIndex: -1; ToIndex: -1; ScrollX: -1; ScrollY: -1; MaxScrollX: -1; MaxScrollY: -1; AddedCount: -1; RemovedCount: -1; ParcelableData: null ]'
p480
sS'MovementGranularity'
p481
g6
sa(dp482
S'EventTime'
p483
S'25785204'
p484
sg4
L1449910827728L
sS'recordCount'
p485
g6
sS'EventType'
p486
S'TYPE_WINDOW_STATE_CHANGED'
p487
sS'PackageName'
p488
S'com.taobao.ishopping'
p489
sS'OutBounds'
p490
S'Rect(0, 0 - 1080, 1920)'
p491
sS'Action'
p492
S'[ ClassName: com.taobao.ishopping.thirdparty.windvane.HybridWVActivity; Text: [\xe7\x88\xb1\xe9\x80\x9b\xe8\xa1\x97]; ContentDescription: null; ItemCount: -1; CurrentItemIndex: -1; IsEnabled: true; IsPassword: false; IsChecked: false; IsFullScreen: true; Scrollable: false; BeforeText: null; FromIndex: -1; ToIndex: -1; ScrollX: -1; ScrollY: -1; MaxScrollX: -1; MaxScrollY: -1; AddedCount: -1; RemovedCount: -1; ParcelableData: null ]'
p493
sS'MovementGranularity'
p494
g6
sa(dp495
S'EventTime'
p496
S'25785236'
p497
sg4
L1449910827756L
sS'recordCount'
p498
g6
sS'EventType'
p499
S'TYPE_WINDOW_CONTENT_CHANGED'
p500
sS'PackageName'
p501
S'com.taobao.ishopping'
p502
sS'OutBounds'
p503
S'Rect(0, 75 - 168, 207)'
p504
sS'Action'
p505
S'[ ClassName: android.widget.ImageButton; Text: []; ContentDescription: \xe8\xbd\xac\xe5\x88\xb0\xe4\xb8\x8a\xe4\xb8\x80\xe5\xb1\x82\xe7\xba\xa7; ItemCount: -1; CurrentItemIndex: -1; IsEnabled: true; IsPassword: false; IsChecked: false; IsFullScreen: false; Scrollable: false; BeforeText: null; FromIndex: -1; ToIndex: -1; ScrollX: -1; ScrollY: -1; MaxScrollX: -1; MaxScrollY: -1; AddedCount: -1; RemovedCount: -1; ParcelableData: null ]'
p506
sS'MovementGranularity'
p507
g6
sa(dp508
S'EventTime'
p509
S'25785570'
p510
sg4
L1449910828092L
sS'recordCount'
p511
g6
sS'EventType'
p512
S'TYPE_VIEW_FOCUSED'
p513
sS'PackageName'
p514
S'com.taobao.ishopping'
p515
sS'OutBounds'
p516
S'Rect(0, 207 - 1080, 1920)'
p517
sS'Action'
p518
S'[ ClassName: android.webkit.WebView; Text: []; ContentDescription: null; ItemCount: 0; CurrentItemIndex: 0; IsEnabled: true; IsPassword: false; IsChecked: false; IsFullScreen: false; Scrollable: true; BeforeText: null; FromIndex: -1; ToIndex: -1; ScrollX: 0; ScrollY: 0; MaxScrollX: 0; MaxScrollY: 0; AddedCount: -1; RemovedCount: -1; ParcelableData: Bundle[mParcelledData.dataSize=488] ]'
p519
sS'MovementGranularity'
p520
g6
sa(dp521
S'EventTime'
p522
S'25785581'
p523
sg4
L1449910828101L
sS'recordCount'
p524
g6
sS'EventType'
p525
S'TYPE_VIEW_ACCESSIBILITY_FOCUS_CLEARED'
p526
sS'PackageName'
p527
S'com.taobao.ishopping'
p528
sS'OutBounds'
p529
S'Rect(0, 207 - 1080, 1920)'
p530
sS'Action'
p531
S'[ ClassName: android.webkit.WebView; Text: []; ContentDescription: null; ItemCount: 0; CurrentItemIndex: 0; IsEnabled: true; IsPassword: false; IsChecked: false; IsFullScreen: false; Scrollable: true; BeforeText: null; FromIndex: -1; ToIndex: -1; ScrollX: 0; ScrollY: 0; MaxScrollX: 0; MaxScrollY: 0; AddedCount: -1; RemovedCount: -1; ParcelableData: Bundle[mParcelledData.dataSize=488] ]'
p532
sS'MovementGranularity'
p533
g6
sa(dp534
S'EventTime'
p535
S'25785583'
p536
sg4
L1449910828106L
sS'recordCount'
p537
g6
sS'EventType'
p538
S'TYPE_VIEW_ACCESSIBILITY_FOCUSED'
p539
sS'PackageName'
p540
S'com.taobao.ishopping'
p541
sS'OutBounds'
p542
S'Rect(0, 207 - 1080, 1920)'
p543
sS'Action'
p544
S'[ ClassName: android.webkit.WebView; Text: []; ContentDescription: null; ItemCount: 0; CurrentItemIndex: 0; IsEnabled: true; IsPassword: false; IsChecked: false; IsFullScreen: false; Scrollable: true; BeforeText: null; FromIndex: -1; ToIndex: -1; ScrollX: 0; ScrollY: 0; MaxScrollX: 0; MaxScrollY: 0; AddedCount: -1; RemovedCount: -1; ParcelableData: Bundle[mParcelledData.dataSize=488] ]'
p545
sS'MovementGranularity'
p546
g6
sa(dp547
S'EventTime'
p548
S'25785644'
p549
sg4
L1449910828164L
sS'recordCount'
p550
g6
sS'EventType'
p551
S'TYPE_WINDOW_CONTENT_CHANGED'
p552
sS'PackageName'
p553
S'com.taobao.ishopping'
p554
sS'OutBounds'
p555
S'Rect(0, 207 - 1080, 1920)'
p556
sS'Action'
p557
S'[ ClassName: android.webkit.WebView; Text: []; ContentDescription: null; ItemCount: 0; CurrentItemIndex: 0; IsEnabled: true; IsPassword: false; IsChecked: false; IsFullScreen: false; Scrollable: true; BeforeText: null; FromIndex: -1; ToIndex: -1; ScrollX: 0; ScrollY: 0; MaxScrollX: 0; MaxScrollY: 0; AddedCount: -1; RemovedCount: -1; ParcelableData: Bundle[mParcelledData.dataSize=488] ]'
p558
sS'MovementGranularity'
p559
g6
sa(dp560
S'EventTime'
p561
S'25785881'
p562
sg4
L1449910828402L
sS'recordCount'
p563
g6
sS'EventType'
p564
S'TYPE_WINDOW_CONTENT_CHANGED'
p565
sS'PackageName'
p566
S'com.taobao.ishopping'
p567
sS'OutBounds'
p568
S'Rect(0, 207 - 1080, 1920)'
p569
sS'Action'
p570
S'[ ClassName: android.webkit.WebView; Text: []; ContentDescription: null; ItemCount: 0; CurrentItemIndex: 0; IsEnabled: true; IsPassword: false; IsChecked: false; IsFullScreen: false; Scrollable: true; BeforeText: null; FromIndex: -1; ToIndex: -1; ScrollX: 0; ScrollY: 0; MaxScrollX: 0; MaxScrollY: 0; AddedCount: -1; RemovedCount: -1; ParcelableData: Bundle[mParcelledData.dataSize=488] ]'
p571
sS'MovementGranularity'
p572
g6
sa(dp573
S'EventTime'
p574
S'25793242'
p575
sg4
L1449910835764L
sS'recordCount'
p576
g6
sS'EventType'
p577
S'TYPE_WINDOW_CONTENT_CHANGED'
p578
sS'PackageName'
p579
S'com.taobao.ishopping'
p580
sS'OutBounds'
p581
S'Rect(243, 109 - 837, 172)'
p582
sS'Action'
p583
S'[ ClassName: android.widget.TextView; Text: []; ContentDescription: null; ItemCount: -1; CurrentItemIndex: -1; IsEnabled: true; IsPassword: false; IsChecked: false; IsFullScreen: false; Scrollable: false; BeforeText: null; FromIndex: -1; ToIndex: -1; ScrollX: -1; ScrollY: -1; MaxScrollX: -1; MaxScrollY: -1; AddedCount: -1; RemovedCount: -1; ParcelableData: null ]'
p584
sS'MovementGranularity'
p585
g6
sa(dp586
S'EventTime'
p587
S'25793454'
p588
sg4
L1449910835975L
sS'recordCount'
p589
g6
sS'EventType'
p590
S'TYPE_WINDOW_CONTENT_CHANGED'
p591
sS'PackageName'
p592
S'com.taobao.ishopping'
p593
sS'OutBounds'
p594
S'Rect(0, 207 - 1080, 1920)'
p595
sS'Action'
p596
S'[ ClassName: android.webkit.WebView; Text: []; ContentDescription: null; ItemCount: 0; CurrentItemIndex: 0; IsEnabled: true; IsPassword: false; IsChecked: false; IsFullScreen: false; Scrollable: true; BeforeText: null; FromIndex: -1; ToIndex: -1; ScrollX: 0; ScrollY: 0; MaxScrollX: 0; MaxScrollY: 0; AddedCount: -1; RemovedCount: -1; ParcelableData: Bundle[mParcelledData.dataSize=488] ]'
p597
sS'MovementGranularity'
p598
g6
sa(dp599
S'EventTime'
p600
S'25794113'
p601
sg4
L1449910836645L
sS'recordCount'
p602
g6
sS'EventType'
p603
S'TYPE_VIEW_SCROLLED'
p604
sS'PackageName'
p605
S'com.taobao.ishopping'
p606
sS'OutBounds'
p607
S'Rect(0, 206 - 1080, 1919)'
p608
sS'Action'
p609
S'[ ClassName: android.webkit.WebView; Text: []; ContentDescription: null; ItemCount: 0; CurrentItemIndex: 0; IsEnabled: true; IsPassword: false; IsChecked: false; IsFullScreen: false; Scrollable: true; BeforeText: null; FromIndex: -1; ToIndex: -1; ScrollX: 0; ScrollY: 1; MaxScrollX: 0; MaxScrollY: 9350; AddedCount: -1; RemovedCount: -1; ParcelableData: Bundle[mParcelledData.dataSize=488] ]'
p610
sS'MovementGranularity'
p611
g6
sa(dp612
S'EventTime'
p613
S'25794271'
p614
sg4
L1449910836799L
sS'recordCount'
p615
g6
sS'EventType'
p616
S'TYPE_VIEW_SCROLLED'
p617
sS'PackageName'
p618
S'com.taobao.ishopping'
p619
sS'OutBounds'
p620
S'Rect(0, 207 - 1080, 1920)'
p621
sS'Action'
p622
S'[ ClassName: com.android.org.chromium.content.browser.ContentViewCore; Text: []; ContentDescription: null; ItemCount: -1; CurrentItemIndex: -1; IsEnabled: true; IsPassword: false; IsChecked: false; IsFullScreen: false; Scrollable: true; BeforeText: null; FromIndex: -1; ToIndex: -1; ScrollX: 0; ScrollY: 1; MaxScrollX: 0; MaxScrollY: 9350; AddedCount: -1; RemovedCount: -1; ParcelableData: null ]'
p623
sS'MovementGranularity'
p624
g6
sa(dp625
S'EventTime'
p626
S'25794295'
p627
sg4
L1449910836815L
sS'recordCount'
p628
g6
sS'EventType'
p629
S'TYPE_WINDOW_CONTENT_CHANGED'
p630
sS'PackageName'
p631
S'com.taobao.ishopping'
p632
sS'OutBounds'
p633
S'Rect(0, 206 - 1080, 1919)'
p634
sS'Action'
p635
S'[ ClassName: android.webkit.WebView; Text: []; ContentDescription: null; ItemCount: 0; CurrentItemIndex: 0; IsEnabled: true; IsPassword: false; IsChecked: false; IsFullScreen: false; Scrollable: true; BeforeText: null; FromIndex: -1; ToIndex: -1; ScrollX: 0; ScrollY: 1; MaxScrollX: 0; MaxScrollY: 9350; AddedCount: -1; RemovedCount: -1; ParcelableData: Bundle[mParcelledData.dataSize=488] ]'
p636
sS'MovementGranularity'
p637
g6
sa(dp638
S'EventTime'
p639
S'25796594'
p640
sg4
L1449910839131L
sS'recordCount'
p641
g6
sS'EventType'
p642
S'TYPE_WINDOW_STATE_CHANGED'
p643
sS'PackageName'
p644
S'com.taobao.ishopping'
p645
sS'OutBounds'
p646
S'Rect(306, 948 - 774, 1047)'
p647
sS'Action'
p648
S'[ ClassName: android.app.ProgressDialog; Text: [\xe5\x8a\xaa\xe5\x8a\x9b\xe5\x8a\xa0\xe8\xbd\xbd\xe4\xb8\xad]; ContentDescription: null; ItemCount: -1; CurrentItemIndex: -1; IsEnabled: true; IsPassword: false; IsChecked: false; IsFullScreen: false; Scrollable: false; BeforeText: null; FromIndex: -1; ToIndex: -1; ScrollX: -1; ScrollY: -1; MaxScrollX: -1; MaxScrollY: -1; AddedCount: -1; RemovedCount: -1; ParcelableData: null ]'
p649
sS'MovementGranularity'
p650
g6
sa(dp651
S'EventTime'
p652
S'25796674'
p653
sg4
L1449910839194L
sS'recordCount'
p654
g6
sS'EventType'
p655
S'TYPE_WINDOW_CONTENT_CHANGED'
p656
sS'PackageName'
p657
S'com.taobao.ishopping'
p658
sS'OutBounds'
p659
S'Rect(471, 973 - 681, 1022)'
p660
sS'Action'
p661
S'[ ClassName: android.widget.TextView; Text: []; ContentDescription: null; ItemCount: -1; CurrentItemIndex: -1; IsEnabled: true; IsPassword: false; IsChecked: false; IsFullScreen: false; Scrollable: false; BeforeText: null; FromIndex: -1; ToIndex: -1; ScrollX: -1; ScrollY: -1; MaxScrollX: -1; MaxScrollY: -1; AddedCount: -1; RemovedCount: -1; ParcelableData: null ]'
p662
sS'MovementGranularity'
p663
g6
sa(dp664
S'EventTime'
p665
S'25796694'
p666
sg4
L1449910839214L
sS'recordCount'
p667
g6
sS'EventType'
p668
S'TYPE_VIEW_SELECTED'
p669
sS'PackageName'
p670
S'com.taobao.ishopping'
p671
sS'OutBounds'
p672
S'Rect(399, 973 - 447, 1021)'
p673
sS'Action'
p674
S'[ ClassName: android.widget.ProgressBar; Text: []; ContentDescription: null; ItemCount: 10000; CurrentItemIndex: 0; IsEnabled: true; IsPassword: false; IsChecked: false; IsFullScreen: false; Scrollable: false; BeforeText: null; FromIndex: -1; ToIndex: -1; ScrollX: -1; ScrollY: -1; MaxScrollX: -1; MaxScrollY: -1; AddedCount: -1; RemovedCount: -1; ParcelableData: null ]'
p675
sS'MovementGranularity'
p676
g6
sa(dp677
S'EventTime'
p678
S'25806938'
p679
sg4
L1449910849501L
sS'recordCount'
p680
g6
sS'EventType'
p681
S'TYPE_WINDOW_STATE_CHANGED'
p682
sS'PackageName'
p683
S'com.taobao.ishopping'
p684
sS'OutBounds'
p685
S'Rect(0, 0 - 1080, 1920)'
p686
sS'Action'
p687
S'[ ClassName: com.taobao.ishopping.activity.detail.DetailActivity; Text: [\xe7\x88\xb1\xe9\x80\x9b\xe8\xa1\x97]; ContentDescription: null; ItemCount: -1; CurrentItemIndex: -1; IsEnabled: true; IsPassword: false; IsChecked: false; IsFullScreen: true; Scrollable: false; BeforeText: null; FromIndex: -1; ToIndex: -1; ScrollX: -1; ScrollY: -1; MaxScrollX: -1; MaxScrollY: -1; AddedCount: -1; RemovedCount: -1; ParcelableData: null ]'
p688
sS'MovementGranularity'
p689
g6
sa(dp690
S'EventTime'
p691
S'25807060'
p692
sg4
L1449910849710L
sS'recordCount'
p693
g6
sS'EventType'
p694
S'TYPE_VIEW_SCROLLED'
p695
sS'PackageName'
p696
S'com.taobao.ishopping'
p697
sS'OutBounds'
p698
S'Rect(0, 75 - 1080, 1776)'
p699
sS'Action'
p700
S'[ ClassName: android.support.v7.widget.RecyclerView; Text: []; ContentDescription: null; ItemCount: 5; CurrentItemIndex: -1; IsEnabled: true; IsPassword: false; IsChecked: false; IsFullScreen: false; Scrollable: true; BeforeText: null; FromIndex: 0; ToIndex: 3; ScrollX: -1; ScrollY: -1; MaxScrollX: -1; MaxScrollY: -1; AddedCount: -1; RemovedCount: -1; ParcelableData: null ]'
p701
sS'MovementGranularity'
p702
g6
sa(dp703
S'EventTime'
p704
S'25807259'
p705
sg4
L1449910849819L
sS'recordCount'
p706
g6
sS'EventType'
p707
S'TYPE_VIEW_FOCUSED'
p708
sS'PackageName'
p709
S'com.taobao.ishopping'
p710
sS'OutBounds'
p711
S'Rect(0, 45 - 1080, 1746)'
p712
sS'Action'
p713
S'[ ClassName: android.webkit.WebView; Text: []; ContentDescription: null; ItemCount: 0; CurrentItemIndex: 0; IsEnabled: true; IsPassword: false; IsChecked: false; IsFullScreen: false; Scrollable: true; BeforeText: null; FromIndex: -1; ToIndex: -1; ScrollX: 0; ScrollY: 0; MaxScrollX: 0; MaxScrollY: 0; AddedCount: -1; RemovedCount: -1; ParcelableData: Bundle[mParcelledData.dataSize=488] ]'
p714
sS'MovementGranularity'
p715
g6
sa(dp716
S'EventTime'
p717
S'25807296'
p718
sg4
L1449910849847L
sS'recordCount'
p719
g6
sS'EventType'
p720
S'TYPE_VIEW_ACCESSIBILITY_FOCUS_CLEARED'
p721
sS'PackageName'
p722
S'com.taobao.ishopping'
p723
sS'OutBounds'
p724
S'Rect(0, 45 - 1080, 1746)'
p725
sS'Action'
p726
S'[ ClassName: android.webkit.WebView; Text: []; ContentDescription: null; ItemCount: 0; CurrentItemIndex: 0; IsEnabled: true; IsPassword: false; IsChecked: false; IsFullScreen: false; Scrollable: true; BeforeText: null; FromIndex: -1; ToIndex: -1; ScrollX: 0; ScrollY: 0; MaxScrollX: 0; MaxScrollY: 0; AddedCount: -1; RemovedCount: -1; ParcelableData: Bundle[mParcelledData.dataSize=488] ]'
p727
sS'MovementGranularity'
p728
g6
sa(dp729
S'EventTime'
p730
S'25807298'
p731
sg4
L1449910849865L
sS'recordCount'
p732
g6
sS'EventType'
p733
S'TYPE_VIEW_ACCESSIBILITY_FOCUSED'
p734
sS'PackageName'
p735
S'com.taobao.ishopping'
p736
sS'OutBounds'
p737
S'Rect(0, 45 - 1080, 1746)'
p738
sS'Action'
p739
S'[ ClassName: android.webkit.WebView; Text: []; ContentDescription: null; ItemCount: 0; CurrentItemIndex: 0; IsEnabled: true; IsPassword: false; IsChecked: false; IsFullScreen: false; Scrollable: true; BeforeText: null; FromIndex: -1; ToIndex: -1; ScrollX: 0; ScrollY: 0; MaxScrollX: 0; MaxScrollY: 0; AddedCount: -1; RemovedCount: -1; ParcelableData: Bundle[mParcelledData.dataSize=488] ]'
p740
sS'MovementGranularity'
p741
g6
sa(dp742
S'EventTime'
p743
S'25807394'
p744
sg4
L1449910849938L
sS'recordCount'
p745
g6
sS'EventType'
p746
S'TYPE_VIEW_SCROLLED'
p747
sS'PackageName'
p748
S'com.taobao.ishopping'
p749
sS'OutBounds'
p750
S'Rect(0, 1908 - 1080, 1776)'
p751
sS'Action'
p752
S'[ ClassName: android.support.v7.widget.RecyclerView; Text: []; ContentDescription: null; ItemCount: 2; CurrentItemIndex: -1; IsEnabled: true; IsPassword: false; IsChecked: false; IsFullScreen: false; Scrollable: false; BeforeText: null; FromIndex: 0; ToIndex: 1; ScrollX: -1; ScrollY: -1; MaxScrollX: -1; MaxScrollY: -1; AddedCount: -1; RemovedCount: -1; ParcelableData: null ]'
p753
sS'MovementGranularity'
p754
g6
sa(dp755
S'EventTime'
p756
S'25807472'
p757
sg4
L1449910850067L
sS'recordCount'
p758
g6
sS'EventType'
p759
S'TYPE_WINDOW_CONTENT_CHANGED'
p760
sS'PackageName'
p761
S'com.taobao.ishopping'
p762
sS'OutBounds'
p763
S'Rect(901, 375 - 1080, 477)'
p764
sS'Action'
p765
S'[ ClassName: android.widget.LinearLayout; Text: []; ContentDescription: null; ItemCount: -1; CurrentItemIndex: -1; IsEnabled: true; IsPassword: false; IsChecked: false; IsFullScreen: false; Scrollable: false; BeforeText: null; FromIndex: -1; ToIndex: -1; ScrollX: -1; ScrollY: -1; MaxScrollX: -1; MaxScrollY: -1; AddedCount: -1; RemovedCount: -1; ParcelableData: null ]'
p766
sS'MovementGranularity'
p767
g6
sa(dp768
S'EventTime'
p769
S'25807711'
p770
sg4
L1449910850283L
sS'recordCount'
p771
g6
sS'EventType'
p772
S'TYPE_WINDOW_CONTENT_CHANGED'
p773
sS'PackageName'
p774
S'com.taobao.ishopping'
p775
sS'OutBounds'
p776
S'Rect(901, 375 - 1080, 477)'
p777
sS'Action'
p778
S'[ ClassName: android.widget.LinearLayout; Text: []; ContentDescription: null; ItemCount: -1; CurrentItemIndex: -1; IsEnabled: true; IsPassword: false; IsChecked: false; IsFullScreen: false; Scrollable: false; BeforeText: null; FromIndex: -1; ToIndex: -1; ScrollX: -1; ScrollY: -1; MaxScrollX: -1; MaxScrollY: -1; AddedCount: -1; RemovedCount: -1; ParcelableData: null ]'
p779
sS'MovementGranularity'
p780
g6
sa(dp781
S'EventTime'
p782
S'25807864'
p783
sg4
L1449910850432L
sS'recordCount'
p784
g6
sS'EventType'
p785
S'TYPE_WINDOW_CONTENT_CHANGED'
p786
sS'PackageName'
p787
S'com.taobao.ishopping'
p788
sS'OutBounds'
p789
S'Rect(901, 375 - 1080, 477)'
p790
sS'Action'
p791
S'[ ClassName: android.widget.LinearLayout; Text: []; ContentDescription: null; ItemCount: -1; CurrentItemIndex: -1; IsEnabled: true; IsPassword: false; IsChecked: false; IsFullScreen: false; Scrollable: false; BeforeText: null; FromIndex: -1; ToIndex: -1; ScrollX: -1; ScrollY: -1; MaxScrollX: -1; MaxScrollY: -1; AddedCount: -1; RemovedCount: -1; ParcelableData: null ]'
p792
sS'MovementGranularity'
p793
g6
sa(dp794
S'EventTime'
p795
S'25808059'
p796
sg4
L1449910850585L
sS'recordCount'
p797
g6
sS'EventType'
p798
S'TYPE_WINDOW_CONTENT_CHANGED'
p799
sS'PackageName'
p800
S'com.taobao.ishopping'
p801
sS'OutBounds'
p802
S'Rect(0, 45 - 1080, 1746)'
p803
sS'Action'
p804
S'[ ClassName: android.webkit.WebView; Text: []; ContentDescription: null; ItemCount: 0; CurrentItemIndex: 0; IsEnabled: true; IsPassword: false; IsChecked: false; IsFullScreen: false; Scrollable: true; BeforeText: null; FromIndex: -1; ToIndex: -1; ScrollX: 0; ScrollY: 0; MaxScrollX: 0; MaxScrollY: 0; AddedCount: -1; RemovedCount: -1; ParcelableData: Bundle[mParcelledData.dataSize=488] ]'
p805
sS'MovementGranularity'
p806
g6
sa(dp807
S'EventTime'
p808
S'25809328'
p809
sg4
L1449910851856L
sS'recordCount'
p810
g6
sS'EventType'
p811
S'TYPE_WINDOW_CONTENT_CHANGED'
p812
sS'PackageName'
p813
S'com.taobao.ishopping'
p814
sS'OutBounds'
p815
S'Rect(0, 75 - 1080, 452)'
p816
sS'Action'
p817
S'[ ClassName: android.widget.FrameLayout; Text: []; ContentDescription: null; ItemCount: -1; CurrentItemIndex: -1; IsEnabled: true; IsPassword: false; IsChecked: false; IsFullScreen: false; Scrollable: false; BeforeText: null; FromIndex: -1; ToIndex: -1; ScrollX: -1; ScrollY: -1; MaxScrollX: -1; MaxScrollY: -1; AddedCount: -1; RemovedCount: -1; ParcelableData: null ]'
p818
sS'MovementGranularity'
p819
g6
sa(dp820
S'EventTime'
p821
S'25809434'
p822
sg4
L1449910851964L
sS'recordCount'
p823
g6
sS'EventType'
p824
S'TYPE_VIEW_SCROLLED'
p825
sS'PackageName'
p826
S'com.taobao.ishopping'
p827
sS'OutBounds'
p828
S'Rect(0, 75 - 1080, 1776)'
p829
sS'Action'
p830
S'[ ClassName: android.support.v7.widget.RecyclerView; Text: []; ContentDescription: null; ItemCount: 5; CurrentItemIndex: -1; IsEnabled: true; IsPassword: false; IsChecked: false; IsFullScreen: false; Scrollable: true; BeforeText: null; FromIndex: 0; ToIndex: 4; ScrollX: -1; ScrollY: -1; MaxScrollX: -1; MaxScrollY: -1; AddedCount: -1; RemovedCount: -1; ParcelableData: null ]'
p831
sS'MovementGranularity'
p832
g6
sa(dp833
S'EventTime'
p834
S'25809529'
p835
sg4
L1449910852058L
sS'recordCount'
p836
g6
sS'EventType'
p837
S'TYPE_WINDOW_CONTENT_CHANGED'
p838
sS'PackageName'
p839
S'com.taobao.ishopping'
p840
sS'OutBounds'
p841
S'Rect(0, 75 - 1080, 1776)'
p842
sS'Action'
p843
S'[ ClassName: android.support.v7.widget.RecyclerView; Text: []; ContentDescription: null; ItemCount: 5; CurrentItemIndex: -1; IsEnabled: true; IsPassword: false; IsChecked: false; IsFullScreen: false; Scrollable: true; BeforeText: null; FromIndex: 0; ToIndex: 4; ScrollX: -1; ScrollY: -1; MaxScrollX: -1; MaxScrollY: -1; AddedCount: -1; RemovedCount: -1; ParcelableData: null ]'
p844
sS'MovementGranularity'
p845
g6
sa(dp846
S'EventTime'
p847
S'25809567'
p848
sg4
L1449910852103L
sS'recordCount'
p849
g6
sS'EventType'
p850
S'TYPE_VIEW_SCROLLED'
p851
sS'PackageName'
p852
S'com.taobao.ishopping'
p853
sS'OutBounds'
p854
S'Rect(0, 75 - 1080, 1776)'
p855
sS'Action'
p856
S'[ ClassName: android.support.v7.widget.RecyclerView; Text: []; ContentDescription: null; ItemCount: 5; CurrentItemIndex: -1; IsEnabled: true; IsPassword: false; IsChecked: false; IsFullScreen: false; Scrollable: true; BeforeText: null; FromIndex: 0; ToIndex: 4; ScrollX: -1; ScrollY: -1; MaxScrollX: -1; MaxScrollY: -1; AddedCount: -1; RemovedCount: -1; ParcelableData: null ]'
p857
sS'MovementGranularity'
p858
g6
sa(dp859
S'EventTime'
p860
S'25810279'
p861
sg4
L1449910852832L
sS'recordCount'
p862
g6
sS'EventType'
p863
S'TYPE_VIEW_CLICKED'
p864
sS'PackageName'
p865
S'com.taobao.ishopping'
p866
sS'OutBounds'
p867
S'Rect(0, 1104 - 1080, 1637)'
p868
sS'Action'
p869
S'[ ClassName: android.widget.LinearLayout; Text: [\xe6\x9d\xa5\xe8\x87\xaa\xe7\xbe\xa4\xe7\xbb\x84, \xee\x98\x92, \xe4\xbb\xbb\xe6\x80\xa7\xe4\xb9\xb0\xe5\x8d\x96\xe7\x96\xaf\xe7\x9a\x84\xe6\xaf\x9b\xe5\x91\xa2\xe5\xa4\x96\xe5\xa5\x97, 1\xe6\x88\x90\xe5\x91\x98, \xea\x81\xaa]; ContentDescription: null; ItemCount: -1; CurrentItemIndex: -1; IsEnabled: true; IsPassword: false; IsChecked: false; IsFullScreen: false; Scrollable: false; BeforeText: null; FromIndex: -1; ToIndex: -1; ScrollX: -1; ScrollY: -1; MaxScrollX: -1; MaxScrollY: -1; AddedCount: -1; RemovedCount: -1; ParcelableData: null ]'
p870
sS'MovementGranularity'
p871
g6
sa(dp872
S'EventTime'
p873
S'25810411'
p874
sg4
L1449910852935L
sS'recordCount'
p875
g6
sS'EventType'
p876
S'TYPE_WINDOW_STATE_CHANGED'
p877
sS'PackageName'
p878
S'com.taobao.ishopping'
p879
sS'OutBounds'
p880
S'Rect(0, 0 - 1080, 1920)'
p881
sS'Action'
p882
S'[ ClassName: com.taobao.ishopping.thirdparty.windvane.HybridWVActivity; Text: [\xe7\x88\xb1\xe9\x80\x9b\xe8\xa1\x97]; ContentDescription: null; ItemCount: -1; CurrentItemIndex: -1; IsEnabled: true; IsPassword: false; IsChecked: false; IsFullScreen: true; Scrollable: false; BeforeText: null; FromIndex: -1; ToIndex: -1; ScrollX: -1; ScrollY: -1; MaxScrollX: -1; MaxScrollY: -1; AddedCount: -1; RemovedCount: -1; ParcelableData: null ]'
p883
sS'MovementGranularity'
p884
g6
sa(dp885
S'EventTime'
p886
S'25810462'
p887
sg4
L1449910852983L
sS'recordCount'
p888
g6
sS'EventType'
p889
S'TYPE_WINDOW_CONTENT_CHANGED'
p890
sS'PackageName'
p891
S'com.taobao.ishopping'
p892
sS'OutBounds'
p893
S'Rect(0, 75 - 168, 207)'
p894
sS'Action'
p895
S'[ ClassName: android.widget.ImageButton; Text: []; ContentDescription: \xe8\xbd\xac\xe5\x88\xb0\xe4\xb8\x8a\xe4\xb8\x80\xe5\xb1\x82\xe7\xba\xa7; ItemCount: -1; CurrentItemIndex: -1; IsEnabled: true; IsPassword: false; IsChecked: false; IsFullScreen: false; Scrollable: false; BeforeText: null; FromIndex: -1; ToIndex: -1; ScrollX: -1; ScrollY: -1; MaxScrollX: -1; MaxScrollY: -1; AddedCount: -1; RemovedCount: -1; ParcelableData: null ]'
p896
sS'MovementGranularity'
p897
g6
sa(dp898
S'EventTime'
p899
S'25810642'
p900
sg4
L1449910853171L
sS'recordCount'
p901
g6
sS'EventType'
p902
S'TYPE_WINDOW_CONTENT_CHANGED'
p903
sS'PackageName'
p904
S'com.taobao.ishopping'
p905
sS'OutBounds'
p906
S'Rect(0, 207 - 1080, 1920)'
p907
sS'Action'
p908
S'[ ClassName: com.android.org.chromium.content.browser.ContentViewCore; Text: []; ContentDescription: null; ItemCount: -1; CurrentItemIndex: -1; IsEnabled: true; IsPassword: false; IsChecked: false; IsFullScreen: false; Scrollable: false; BeforeText: null; FromIndex: -1; ToIndex: -1; ScrollX: 0; ScrollY: 0; MaxScrollX: 0; MaxScrollY: 0; AddedCount: -1; RemovedCount: -1; ParcelableData: null ]'
p909
sS'MovementGranularity'
p910
g6
sa(dp911
S'EventTime'
p912
S'25810643'
p913
sg4
L1449910853174L
sS'recordCount'
p914
g6
sS'EventType'
p915
S'TYPE_VIEW_ACCESSIBILITY_FOCUS_CLEARED'
p916
sS'PackageName'
p917
S'com.taobao.ishopping'
p918
sS'OutBounds'
p919
S'Rect(0, 207 - 980, 1761)'
p920
sS'Action'
p921
S'[ ClassName: android.webkit.WebView; Text: []; ContentDescription: null; ItemCount: 0; CurrentItemIndex: 0; IsEnabled: true; IsPassword: false; IsChecked: false; IsFullScreen: false; Scrollable: true; BeforeText: null; FromIndex: -1; ToIndex: -1; ScrollX: 0; ScrollY: 0; MaxScrollX: 0; MaxScrollY: 0; AddedCount: -1; RemovedCount: -1; ParcelableData: Bundle[mParcelledData.dataSize=488] ]'
p922
sS'MovementGranularity'
p923
g6
sa(dp924
S'EventTime'
p925
S'25810646'
p926
sg4
L1449910853188L
sS'recordCount'
p927
g6
sS'EventType'
p928
S'TYPE_VIEW_ACCESSIBILITY_FOCUSED'
p929
sS'PackageName'
p930
S'com.taobao.ishopping'
p931
sS'OutBounds'
p932
S'Rect(0, 207 - 980, 1761)'
p933
sS'Action'
p934
S'[ ClassName: android.webkit.WebView; Text: []; ContentDescription: null; ItemCount: 0; CurrentItemIndex: 0; IsEnabled: true; IsPassword: false; IsChecked: false; IsFullScreen: false; Scrollable: true; BeforeText: null; FromIndex: -1; ToIndex: -1; ScrollX: 0; ScrollY: 0; MaxScrollX: 0; MaxScrollY: 0; AddedCount: -1; RemovedCount: -1; ParcelableData: Bundle[mParcelledData.dataSize=488] ]'
p935
sS'MovementGranularity'
p936
g6
sa(dp937
S'EventTime'
p938
S'25810893'
p939
sg4
L1449910853434L
sS'recordCount'
p940
g6
sS'EventType'
p941
S'TYPE_VIEW_FOCUSED'
p942
sS'PackageName'
p943
S'com.taobao.ishopping'
p944
sS'OutBounds'
p945
S'Rect(0, 207 - 1080, 1920)'
p946
sS'Action'
p947
S'[ ClassName: android.webkit.WebView; Text: []; ContentDescription: null; ItemCount: 0; CurrentItemIndex: 0; IsEnabled: true; IsPassword: false; IsChecked: false; IsFullScreen: false; Scrollable: true; BeforeText: null; FromIndex: -1; ToIndex: -1; ScrollX: 0; ScrollY: 0; MaxScrollX: 0; MaxScrollY: 0; AddedCount: -1; RemovedCount: -1; ParcelableData: Bundle[mParcelledData.dataSize=488] ]'
p948
sS'MovementGranularity'
p949
g6
sa(dp950
S'EventTime'
p951
S'25810894'
p952
sg4
L1449910853478L
sS'recordCount'
p953
g6
sS'EventType'
p954
S'TYPE_VIEW_ACCESSIBILITY_FOCUSED'
p955
sS'PackageName'
p956
S'com.taobao.ishopping'
p957
sS'OutBounds'
p958
S'Rect(0, 207 - 1080, 1920)'
p959
sS'Action'
p960
S'[ ClassName: android.webkit.WebView; Text: []; ContentDescription: null; ItemCount: 0; CurrentItemIndex: 0; IsEnabled: true; IsPassword: false; IsChecked: false; IsFullScreen: false; Scrollable: true; BeforeText: null; FromIndex: -1; ToIndex: -1; ScrollX: 0; ScrollY: 0; MaxScrollX: 0; MaxScrollY: 0; AddedCount: -1; RemovedCount: -1; ParcelableData: Bundle[mParcelledData.dataSize=488] ]'
p961
sS'MovementGranularity'
p962
g6
sa(dp963
S'EventTime'
p964
S'25810992'
p965
sg4
L1449910853512L
sS'recordCount'
p966
g6
sS'EventType'
p967
S'TYPE_WINDOW_CONTENT_CHANGED'
p968
sS'PackageName'
p969
S'com.taobao.ishopping'
p970
sS'OutBounds'
p971
S'Rect(0, 207 - 1080, 1920)'
p972
sS'Action'
p973
S'[ ClassName: android.webkit.WebView; Text: []; ContentDescription: null; ItemCount: 0; CurrentItemIndex: 0; IsEnabled: true; IsPassword: false; IsChecked: false; IsFullScreen: false; Scrollable: true; BeforeText: null; FromIndex: -1; ToIndex: -1; ScrollX: 0; ScrollY: 0; MaxScrollX: 0; MaxScrollY: 0; AddedCount: -1; RemovedCount: -1; ParcelableData: Bundle[mParcelledData.dataSize=488] ]'
p974
sS'MovementGranularity'
p975
g6
sa(dp976
S'EventTime'
p977
S'25824690'
p978
sg4
L1449910867212L
sS'recordCount'
p979
g6
sS'EventType'
p980
S'TYPE_WINDOW_CONTENT_CHANGED'
p981
sS'PackageName'
p982
S'com.taobao.ishopping'
p983
sS'OutBounds'
p984
S'Rect(936, 75 - 1080, 207)'
p985
sS'Action'
p986
S'[ ClassName: android.widget.TextView; Text: []; ContentDescription: \xe8\xae\xbe\xe7\xbd\xae; ItemCount: -1; CurrentItemIndex: -1; IsEnabled: true; IsPassword: false; IsChecked: false; IsFullScreen: false; Scrollable: false; BeforeText: null; FromIndex: -1; ToIndex: -1; ScrollX: -1; ScrollY: -1; MaxScrollX: -1; MaxScrollY: -1; AddedCount: -1; RemovedCount: -1; ParcelableData: null ]'
p987
sS'MovementGranularity'
p988
g6
sa(dp989
S'EventTime'
p990
S'25824949'
p991
sg4
L1449910867484L
sS'recordCount'
p992
g6
sS'EventType'
p993
S'TYPE_VIEW_SCROLLED'
p994
sS'PackageName'
p995
S'com.taobao.ishopping'
p996
sS'OutBounds'
p997
S'Rect(0, 206 - 1080, 1919)'
p998
sS'Action'
p999
S'[ ClassName: android.webkit.WebView; Text: []; ContentDescription: null; ItemCount: 0; CurrentItemIndex: 0; IsEnabled: true; IsPassword: false; IsChecked: false; IsFullScreen: false; Scrollable: true; BeforeText: null; FromIndex: -1; ToIndex: -1; ScrollX: 0; ScrollY: 1; MaxScrollX: 0; MaxScrollY: 9350; AddedCount: -1; RemovedCount: -1; ParcelableData: Bundle[mParcelledData.dataSize=488] ]'
p1000
sS'MovementGranularity'
p1001
g6
sa(dp1002
S'EventTime'
p1003
S'25825045'
p1004
sg4
L1449910867568L
sS'recordCount'
p1005
g6
sS'EventType'
p1006
S'TYPE_WINDOW_CONTENT_CHANGED'
p1007
sS'PackageName'
p1008
S'com.taobao.ishopping'
p1009
sS'OutBounds'
p1010
S'Rect(432, 1808 - 648, 1863)'
p1011
sS'Action'
p1012
S'[ ClassName: android.view.View; Text: []; ContentDescription: null; ItemCount: 0; CurrentItemIndex: 0; IsEnabled: true; IsPassword: false; IsChecked: false; IsFullScreen: false; Scrollable: false; BeforeText: null; FromIndex: -1; ToIndex: -1; ScrollX: 0; ScrollY: 0; MaxScrollX: 0; MaxScrollY: 0; AddedCount: -1; RemovedCount: -1; ParcelableData: Bundle[mParcelledData.dataSize=488] ]'
p1013
sS'MovementGranularity'
p1014
g6
sa(dp1015
S'EventTime'
p1016
S'25825082'
p1017
sg4
L1449910867612L
sS'recordCount'
p1018
g6
sS'EventType'
p1019
S'TYPE_VIEW_SCROLLED'
p1020
sS'PackageName'
p1021
S'com.taobao.ishopping'
p1022
sS'OutBounds'
p1023
S'Rect(0, 207 - 1080, 1920)'
p1024
sS'Action'
p1025
S'[ ClassName: com.android.org.chromium.content.browser.ContentViewCore; Text: []; ContentDescription: null; ItemCount: -1; CurrentItemIndex: -1; IsEnabled: true; IsPassword: false; IsChecked: false; IsFullScreen: false; Scrollable: true; BeforeText: null; FromIndex: -1; ToIndex: -1; ScrollX: 0; ScrollY: 1; MaxScrollX: 0; MaxScrollY: 9350; AddedCount: -1; RemovedCount: -1; ParcelableData: null ]'
p1026
sS'MovementGranularity'
p1027
g6
sa(dp1028
S'EventTime'
p1029
S'25826502'
p1030
sg4
L1449910869026L
sS'recordCount'
p1031
g6
sS'EventType'
p1032
S'TYPE_WINDOW_CONTENT_CHANGED'
p1033
sS'PackageName'
p1034
S'com.taobao.ishopping'
p1035
sS'OutBounds'
p1036
S'Rect(432, 1442 - 648, 1497)'
p1037
sS'Action'
p1038
S'[ ClassName: android.view.View; Text: []; ContentDescription: null; ItemCount: 0; CurrentItemIndex: 0; IsEnabled: true; IsPassword: false; IsChecked: false; IsFullScreen: false; Scrollable: false; BeforeText: null; FromIndex: -1; ToIndex: -1; ScrollX: 0; ScrollY: 0; MaxScrollX: 0; MaxScrollY: 0; AddedCount: -1; RemovedCount: -1; ParcelableData: Bundle[mParcelledData.dataSize=488] ]'
p1039
sS'MovementGranularity'
p1040
g6
sa(dp1041
S'EventTime'
p1042
S'25826507'
p1043
sg4
L1449910869053L
sS'recordCount'
p1044
g6
sS'EventType'
p1045
S'TYPE_VIEW_SCROLLED'
p1046
sS'PackageName'
p1047
S'com.taobao.ishopping'
p1048
sS'OutBounds'
p1049
S'Rect(0, 207 - 1080, 1920)'
p1050
sS'Action'
p1051
S'[ ClassName: com.android.org.chromium.content.browser.ContentViewCore; Text: []; ContentDescription: null; ItemCount: -1; CurrentItemIndex: -1; IsEnabled: true; IsPassword: false; IsChecked: false; IsFullScreen: false; Scrollable: true; BeforeText: null; FromIndex: -1; ToIndex: -1; ScrollX: 0; ScrollY: 782; MaxScrollX: 0; MaxScrollY: 9350; AddedCount: -1; RemovedCount: -1; ParcelableData: null ]'
p1052
sS'MovementGranularity'
p1053
g6
sa(dp1054
S'EventTime'
p1055
S'25826796'
p1056
sg4
L1449910869318L
sS'recordCount'
p1057
g6
sS'EventType'
p1058
S'TYPE_WINDOW_CONTENT_CHANGED'
p1059
sS'PackageName'
p1060
S'com.taobao.ishopping'
p1061
sS'OutBounds'
p1062
S'Rect(432, 1736 - 648, 1791)'
p1063
sS'Action'
p1064
S'[ ClassName: android.view.View; Text: []; ContentDescription: null; ItemCount: 0; CurrentItemIndex: 0; IsEnabled: true; IsPassword: false; IsChecked: false; IsFullScreen: false; Scrollable: false; BeforeText: null; FromIndex: -1; ToIndex: -1; ScrollX: 0; ScrollY: 0; MaxScrollX: 0; MaxScrollY: 0; AddedCount: -1; RemovedCount: -1; ParcelableData: Bundle[mParcelledData.dataSize=488] ]'
p1065
sS'MovementGranularity'
p1066
g6
sa(dp1067
S'EventTime'
p1068
S'25826839'
p1069
sg4
L1449910869424L
sS'recordCount'
p1070
g6
sS'EventType'
p1071
S'TYPE_VIEW_SCROLLED'
p1072
sS'PackageName'
p1073
S'com.taobao.ishopping'
p1074
sS'OutBounds'
p1075
S'Rect(0, 207 - 1080, 1920)'
p1076
sS'Action'
p1077
S'[ ClassName: com.android.org.chromium.content.browser.ContentViewCore; Text: []; ContentDescription: null; ItemCount: -1; CurrentItemIndex: -1; IsEnabled: true; IsPassword: false; IsChecked: false; IsFullScreen: false; Scrollable: true; BeforeText: null; FromIndex: -1; ToIndex: -1; ScrollX: 0; ScrollY: 1209; MaxScrollX: 0; MaxScrollY: 9350; AddedCount: -1; RemovedCount: -1; ParcelableData: null ]'
p1078
sS'MovementGranularity'
p1079
g6
sa(dp1080
S'EventTime'
p1081
S'25827115'
p1082
sg4
L1449910869635L
sS'recordCount'
p1083
g6
sS'EventType'
p1084
S'TYPE_WINDOW_CONTENT_CHANGED'
p1085
sS'PackageName'
p1086
S'com.taobao.ishopping'
p1087
sS'OutBounds'
p1088
S'Rect(432, 1806 - 648, 1861)'
p1089
sS'Action'
p1090
S'[ ClassName: android.view.View; Text: []; ContentDescription: null; ItemCount: 0; CurrentItemIndex: 0; IsEnabled: true; IsPassword: false; IsChecked: false; IsFullScreen: false; Scrollable: false; BeforeText: null; FromIndex: -1; ToIndex: -1; ScrollX: 0; ScrollY: 0; MaxScrollX: 0; MaxScrollY: 0; AddedCount: -1; RemovedCount: -1; ParcelableData: Bundle[mParcelledData.dataSize=488] ]'
p1091
sS'MovementGranularity'
p1092
g6
sa(dp1093
S'EventTime'
p1094
S'25827141'
p1095
sg4
L1449910869671L
sS'recordCount'
p1096
g6
sS'EventType'
p1097
S'TYPE_VIEW_SCROLLED'
p1098
sS'PackageName'
p1099
S'com.taobao.ishopping'
p1100
sS'OutBounds'
p1101
S'Rect(0, 207 - 1080, 1920)'
p1102
sS'Action'
p1103
S'[ ClassName: com.android.org.chromium.content.browser.ContentViewCore; Text: []; ContentDescription: null; ItemCount: -1; CurrentItemIndex: -1; IsEnabled: true; IsPassword: false; IsChecked: false; IsFullScreen: false; Scrollable: true; BeforeText: null; FromIndex: -1; ToIndex: -1; ScrollX: 0; ScrollY: 1263; MaxScrollX: 0; MaxScrollY: 9350; AddedCount: -1; RemovedCount: -1; ParcelableData: null ]'
p1104
sS'MovementGranularity'
p1105
g6
sa(dp1106
S'EventTime'
p1107
S'25827268'
p1108
sg4
L1449910869803L
sS'recordCount'
p1109
g6
sS'EventType'
p1110
S'TYPE_WINDOW_CONTENT_CHANGED'
p1111
sS'PackageName'
p1112
S'com.taobao.ishopping'
p1113
sS'OutBounds'
p1114
S'Rect(0, -1056 - 1080, 657)'
p1115
sS'Action'
p1116
S'[ ClassName: android.webkit.WebView; Text: []; ContentDescription: null; ItemCount: 0; CurrentItemIndex: 0; IsEnabled: true; IsPassword: false; IsChecked: false; IsFullScreen: false; Scrollable: true; BeforeText: null; FromIndex: -1; ToIndex: -1; ScrollX: 0; ScrollY: 1263; MaxScrollX: 0; MaxScrollY: 9350; AddedCount: -1; RemovedCount: -1; ParcelableData: Bundle[mParcelledData.dataSize=488] ]'
p1117
sS'MovementGranularity'
p1118
g6
sa(dp1119
S'EventTime'
p1120
S'25827269'
p1121
sg4
L1449910869866L
sS'recordCount'
p1122
g6
sS'EventType'
p1123
S'TYPE_VIEW_SCROLLED'
p1124
sS'PackageName'
p1125
S'com.taobao.ishopping'
p1126
sS'OutBounds'
p1127
S'Rect(0, -1056 - 1080, 657)'
p1128
sS'Action'
p1129
S'[ ClassName: android.webkit.WebView; Text: []; ContentDescription: null; ItemCount: 0; CurrentItemIndex: 0; IsEnabled: true; IsPassword: false; IsChecked: false; IsFullScreen: false; Scrollable: true; BeforeText: null; FromIndex: -1; ToIndex: -1; ScrollX: 0; ScrollY: 1263; MaxScrollX: 0; MaxScrollY: 9350; AddedCount: -1; RemovedCount: -1; ParcelableData: Bundle[mParcelledData.dataSize=488] ]'
p1130
sS'MovementGranularity'
p1131
g6
sa(dp1132
S'EventTime'
p1133
S'25827502'
p1134
sg4
L1449910870176L
sS'recordCount'
p1135
g6
sS'EventType'
p1136
S'TYPE_WINDOW_CONTENT_CHANGED'
p1137
sS'PackageName'
p1138
S'com.taobao.ishopping'
p1139
sS'OutBounds'
p1140
S'Rect(25, 383 - 528, 1133)'
p1141
sS'Action'
p1142
S'[ ClassName: android.view.View; Text: []; ContentDescription: null; ItemCount: 0; CurrentItemIndex: 0; IsEnabled: true; IsPassword: false; IsChecked: false; IsFullScreen: false; Scrollable: false; BeforeText: null; FromIndex: -1; ToIndex: -1; ScrollX: 0; ScrollY: 0; MaxScrollX: 0; MaxScrollY: 0; AddedCount: -1; RemovedCount: -1; ParcelableData: Bundle[mParcelledData.dataSize=488] ]'
p1143
sS'MovementGranularity'
p1144
g6
sa(dp1145
S'EventTime'
p1146
S'25827504'
p1147
sg4
L1449910870406L
sS'recordCount'
p1148
g6
sS'EventType'
p1149
S'TYPE_VIEW_FOCUSED'
p1150
sS'PackageName'
p1151
S'com.taobao.ishopping'
p1152
sS'Action'
p1153
S'[ ClassName: android.view.View; Text: []; ContentDescription: null; ItemCount: 0; CurrentItemIndex: 0; IsEnabled: true; IsPassword: false; IsChecked: false; IsFullScreen: false; Scrollable: false; BeforeText: null; FromIndex: -1; ToIndex: -1; ScrollX: 0; ScrollY: 0; MaxScrollX: 0; MaxScrollY: 0; AddedCount: -1; RemovedCount: -1; ParcelableData: Bundle[mParcelledData.dataSize=488] ]'
p1154
sS'MovementGranularity'
p1155
g6
sa(dp1156
S'EventTime'
p1157
S'25827507'
p1158
sg4
L1449910870431L
sS'recordCount'
p1159
g6
sS'EventType'
p1160
S'TYPE_VIEW_ACCESSIBILITY_FOCUSED'
p1161
sS'PackageName'
p1162
S'com.taobao.ishopping'
p1163
sS'Action'
p1164
S'[ ClassName: android.view.View; Text: []; ContentDescription: null; ItemCount: 0; CurrentItemIndex: 0; IsEnabled: true; IsPassword: false; IsChecked: false; IsFullScreen: false; Scrollable: false; BeforeText: null; FromIndex: -1; ToIndex: -1; ScrollX: 0; ScrollY: 0; MaxScrollX: 0; MaxScrollY: 0; AddedCount: -1; RemovedCount: -1; ParcelableData: Bundle[mParcelledData.dataSize=488] ]'
p1165
sS'MovementGranularity'
p1166
g6
sa(dp1167
S'EventTime'
p1168
S'25827621'
p1169
sg4
L1449910870451L
sS'recordCount'
p1170
g6
sS'EventType'
p1171
S'TYPE_WINDOW_CONTENT_CHANGED'
p1172
sS'PackageName'
p1173
S'com.taobao.ishopping'
p1174
sS'Action'
p1175
S'[ ClassName: android.view.View; Text: []; ContentDescription: null; ItemCount: 0; CurrentItemIndex: 0; IsEnabled: true; IsPassword: false; IsChecked: false; IsFullScreen: false; Scrollable: false; BeforeText: null; FromIndex: -1; ToIndex: -1; ScrollX: 0; ScrollY: 0; MaxScrollX: 0; MaxScrollY: 0; AddedCount: -1; RemovedCount: -1; ParcelableData: Bundle[mParcelledData.dataSize=488] ]'
p1176
sS'MovementGranularity'
p1177
g6
sa(dp1178
S'EventTime'
p1179
S'25827975'
p1180
sg4
L1449910870495L
sS'recordCount'
p1181
g6
sS'EventType'
p1182
S'TYPE_WINDOW_STATE_CHANGED'
p1183
sS'PackageName'
p1184
S'com.taobao.ishopping'
p1185
sS'Action'
p1186
S'[ ClassName: android.app.ProgressDialog; Text: [\xe5\x8a\xaa\xe5\x8a\x9b\xe5\x8a\xa0\xe8\xbd\xbd\xe4\xb8\xad]; ContentDescription: null; ItemCount: -1; CurrentItemIndex: -1; IsEnabled: true; IsPassword: false; IsChecked: false; IsFullScreen: false; Scrollable: false; BeforeText: null; FromIndex: -1; ToIndex: -1; ScrollX: -1; ScrollY: -1; MaxScrollX: -1; MaxScrollY: -1; AddedCount: -1; RemovedCount: -1; ParcelableData: null ]'
p1187
sS'MovementGranularity'
p1188
g6
sa(dp1189
S'EventTime'
p1190
S'25828044'
p1191
sg4
L1449910870564L
sS'recordCount'
p1192
g6
sS'EventType'
p1193
S'TYPE_WINDOW_CONTENT_CHANGED'
p1194
sS'PackageName'
p1195
S'com.taobao.ishopping'
p1196
sS'Action'
p1197
S'[ ClassName: android.widget.TextView; Text: []; ContentDescription: null; ItemCount: -1; CurrentItemIndex: -1; IsEnabled: true; IsPassword: false; IsChecked: false; IsFullScreen: false; Scrollable: false; BeforeText: null; FromIndex: -1; ToIndex: -1; ScrollX: -1; ScrollY: -1; MaxScrollX: -1; MaxScrollY: -1; AddedCount: -1; RemovedCount: -1; ParcelableData: null ]'
p1198
sS'MovementGranularity'
p1199
g6
sa(dp1200
S'EventTime'
p1201
S'25828189'
p1202
sg4
L1449910870754L
sS'recordCount'
p1203
g6
sS'EventType'
p1204
S'TYPE_WINDOW_STATE_CHANGED'
p1205
sS'PackageName'
p1206
S'com.taobao.ishopping'
p1207
sS'OutBounds'
p1208
S'Rect(0, 0 - 1080, 1920)'
p1209
sS'Action'
p1210
S'[ ClassName: com.taobao.ishopping.activity.detail.DetailActivity; Text: [\xe7\x88\xb1\xe9\x80\x9b\xe8\xa1\x97]; ContentDescription: null; ItemCount: -1; CurrentItemIndex: -1; IsEnabled: true; IsPassword: false; IsChecked: false; IsFullScreen: true; Scrollable: false; BeforeText: null; FromIndex: -1; ToIndex: -1; ScrollX: -1; ScrollY: -1; MaxScrollX: -1; MaxScrollY: -1; AddedCount: -1; RemovedCount: -1; ParcelableData: null ]'
p1211
sS'MovementGranularity'
p1212
g6
sa(dp1213
S'EventTime'
p1214
S'25828320'
p1215
sg4
L1449910870864L
sS'recordCount'
p1216
g6
sS'EventType'
p1217
S'TYPE_VIEW_SCROLLED'
p1218
sS'PackageName'
p1219
S'com.taobao.ishopping'
p1220
sS'OutBounds'
p1221
S'Rect(0, 80 - 1080, 1776)'
p1222
sS'Action'
p1223
S'[ ClassName: android.support.v7.widget.RecyclerView; Text: []; ContentDescription: null; ItemCount: 5; CurrentItemIndex: -1; IsEnabled: true; IsPassword: false; IsChecked: false; IsFullScreen: false; Scrollable: true; BeforeText: null; FromIndex: 0; ToIndex: 3; ScrollX: -1; ScrollY: -1; MaxScrollX: -1; MaxScrollY: -1; AddedCount: -1; RemovedCount: -1; ParcelableData: null ]'
p1224
sS'MovementGranularity'
p1225
g6
sa(dp1226
S'EventTime'
p1227
S'25828426'
p1228
sg4
L1449910870975L
sS'recordCount'
p1229
g6
sS'EventType'
p1230
S'TYPE_VIEW_FOCUSED'
p1231
sS'PackageName'
p1232
S'com.taobao.ishopping'
p1233
sS'OutBounds'
p1234
S'Rect(0, 45 - 1080, 1746)'
p1235
sS'Action'
p1236
S'[ ClassName: android.webkit.WebView; Text: []; ContentDescription: null; ItemCount: 0; CurrentItemIndex: 0; IsEnabled: true; IsPassword: false; IsChecked: false; IsFullScreen: false; Scrollable: true; BeforeText: null; FromIndex: -1; ToIndex: -1; ScrollX: 0; ScrollY: 0; MaxScrollX: 0; MaxScrollY: 0; AddedCount: -1; RemovedCount: -1; ParcelableData: Bundle[mParcelledData.dataSize=488] ]'
p1237
sS'MovementGranularity'
p1238
g6
sa(dp1239
S'EventTime'
p1240
S'25828432'
p1241
sg4
L1449910871005L
sS'recordCount'
p1242
g6
sS'EventType'
p1243
S'TYPE_VIEW_ACCESSIBILITY_FOCUS_CLEARED'
p1244
sS'PackageName'
p1245
S'com.taobao.ishopping'
p1246
sS'OutBounds'
p1247
S'Rect(0, 45 - 1080, 1746)'
p1248
sS'Action'
p1249
S'[ ClassName: android.webkit.WebView; Text: []; ContentDescription: null; ItemCount: 0; CurrentItemIndex: 0; IsEnabled: true; IsPassword: false; IsChecked: false; IsFullScreen: false; Scrollable: true; BeforeText: null; FromIndex: -1; ToIndex: -1; ScrollX: 0; ScrollY: 0; MaxScrollX: 0; MaxScrollY: 0; AddedCount: -1; RemovedCount: -1; ParcelableData: Bundle[mParcelledData.dataSize=488] ]'
p1250
sS'MovementGranularity'
p1251
g6
sa(dp1252
S'EventTime'
p1253
S'25828433'
p1254
sg4
L1449910871030L
sS'recordCount'
p1255
g6
sS'EventType'
p1256
S'TYPE_VIEW_ACCESSIBILITY_FOCUSED'
p1257
sS'PackageName'
p1258
S'com.taobao.ishopping'
p1259
sS'OutBounds'
p1260
S'Rect(0, 45 - 1080, 1746)'
p1261
sS'Action'
p1262
S'[ ClassName: android.webkit.WebView; Text: []; ContentDescription: null; ItemCount: 0; CurrentItemIndex: 0; IsEnabled: true; IsPassword: false; IsChecked: false; IsFullScreen: false; Scrollable: true; BeforeText: null; FromIndex: -1; ToIndex: -1; ScrollX: 0; ScrollY: 0; MaxScrollX: 0; MaxScrollY: 0; AddedCount: -1; RemovedCount: -1; ParcelableData: Bundle[mParcelledData.dataSize=488] ]'
p1263
sS'MovementGranularity'
p1264
g6
sa(dp1265
S'EventTime'
p1266
S'25828436'
p1267
sg4
L1449910871059L
sS'recordCount'
p1268
g6
sS'EventType'
p1269
S'TYPE_VIEW_SCROLLED'
p1270
sS'PackageName'
p1271
S'com.taobao.ishopping'
p1272
sS'OutBounds'
p1273
S'Rect(0, 1908 - 1080, 1776)'
p1274
sS'Action'
p1275
S'[ ClassName: android.support.v7.widget.RecyclerView; Text: []; ContentDescription: null; ItemCount: 2; CurrentItemIndex: -1; IsEnabled: true; IsPassword: false; IsChecked: false; IsFullScreen: false; Scrollable: false; BeforeText: null; FromIndex: 0; ToIndex: 1; ScrollX: -1; ScrollY: -1; MaxScrollX: -1; MaxScrollY: -1; AddedCount: -1; RemovedCount: -1; ParcelableData: null ]'
p1276
sS'MovementGranularity'
p1277
g6
sa(dp1278
S'EventTime'
p1279
S'25828754'
p1280
sg4
L1449910871275L
sS'recordCount'
p1281
g6
sS'EventType'
p1282
S'TYPE_WINDOW_CONTENT_CHANGED'
p1283
sS'PackageName'
p1284
S'com.taobao.ishopping'
p1285
sS'OutBounds'
p1286
S'Rect(901, 375 - 1080, 477)'
p1287
sS'Action'
p1288
S'[ ClassName: android.widget.LinearLayout; Text: []; ContentDescription: null; ItemCount: -1; CurrentItemIndex: -1; IsEnabled: true; IsPassword: false; IsChecked: false; IsFullScreen: false; Scrollable: false; BeforeText: null; FromIndex: -1; ToIndex: -1; ScrollX: -1; ScrollY: -1; MaxScrollX: -1; MaxScrollY: -1; AddedCount: -1; RemovedCount: -1; ParcelableData: null ]'
p1289
sS'MovementGranularity'
p1290
g6
sa(dp1291
S'EventTime'
p1292
S'25828856'
p1293
sg4
L1449910871376L
sS'recordCount'
p1294
g6
sS'EventType'
p1295
S'TYPE_WINDOW_CONTENT_CHANGED'
p1296
sS'PackageName'
p1297
S'com.taobao.ishopping'
p1298
sS'OutBounds'
p1299
S'Rect(901, 375 - 1080, 477)'
p1300
sS'Action'
p1301
S'[ ClassName: android.widget.LinearLayout; Text: []; ContentDescription: null; ItemCount: -1; CurrentItemIndex: -1; IsEnabled: true; IsPassword: false; IsChecked: false; IsFullScreen: false; Scrollable: false; BeforeText: null; FromIndex: -1; ToIndex: -1; ScrollX: -1; ScrollY: -1; MaxScrollX: -1; MaxScrollY: -1; AddedCount: -1; RemovedCount: -1; ParcelableData: null ]'
p1302
sS'MovementGranularity'
p1303
g6
sa(dp1304
S'EventTime'
p1305
S'25829103'
p1306
sg4
L1449910871623L
sS'recordCount'
p1307
g6
sS'EventType'
p1308
S'TYPE_WINDOW_CONTENT_CHANGED'
p1309
sS'PackageName'
p1310
S'com.taobao.ishopping'
p1311
sS'OutBounds'
p1312
S'Rect(0, 45 - 1080, 1746)'
p1313
sS'Action'
p1314
S'[ ClassName: android.webkit.WebView; Text: []; ContentDescription: null; ItemCount: 0; CurrentItemIndex: 0; IsEnabled: true; IsPassword: false; IsChecked: false; IsFullScreen: false; Scrollable: true; BeforeText: null; FromIndex: -1; ToIndex: -1; ScrollX: 0; ScrollY: 0; MaxScrollX: 0; MaxScrollY: 0; AddedCount: -1; RemovedCount: -1; ParcelableData: Bundle[mParcelledData.dataSize=488] ]'
p1315
sS'MovementGranularity'
p1316
g6
sa(dp1317
S'EventTime'
p1318
S'25829368'
p1319
sg4
L1449910871894L
sS'recordCount'
p1320
g6
sS'EventType'
p1321
S'TYPE_WINDOW_CONTENT_CHANGED'
p1322
sS'PackageName'
p1323
S'com.taobao.ishopping'
p1324
sS'OutBounds'
p1325
S'Rect(0, 75 - 1080, 391)'
p1326
sS'Action'
p1327
S'[ ClassName: android.widget.FrameLayout; Text: []; ContentDescription: null; ItemCount: -1; CurrentItemIndex: -1; IsEnabled: true; IsPassword: false; IsChecked: false; IsFullScreen: false; Scrollable: false; BeforeText: null; FromIndex: -1; ToIndex: -1; ScrollX: -1; ScrollY: -1; MaxScrollX: -1; MaxScrollY: -1; AddedCount: -1; RemovedCount: -1; ParcelableData: null ]'
p1328
sS'MovementGranularity'
p1329
g6
sa(dp1330
S'EventTime'
p1331
S'25829471'
p1332
sg4
L1449910872016L
sS'recordCount'
p1333
g6
sS'EventType'
p1334
S'TYPE_WINDOW_CONTENT_CHANGED'
p1335
sS'PackageName'
p1336
S'com.taobao.ishopping'
p1337
sS'OutBounds'
p1338
S'Rect(0, 75 - 1080, 1776)'
p1339
sS'Action'
p1340
S'[ ClassName: android.support.v7.widget.RecyclerView; Text: []; ContentDescription: null; ItemCount: 5; CurrentItemIndex: -1; IsEnabled: true; IsPassword: false; IsChecked: false; IsFullScreen: false; Scrollable: true; BeforeText: null; FromIndex: 0; ToIndex: 4; ScrollX: -1; ScrollY: -1; MaxScrollX: -1; MaxScrollY: -1; AddedCount: -1; RemovedCount: -1; ParcelableData: null ]'
p1341
sS'MovementGranularity'
p1342
g6
sa(dp1343
S'EventTime'
p1344
S'25829472'
p1345
sg4
L1449910872051L
sS'recordCount'
p1346
g6
sS'EventType'
p1347
S'TYPE_VIEW_SCROLLED'
p1348
sS'PackageName'
p1349
S'com.taobao.ishopping'
p1350
sS'OutBounds'
p1351
S'Rect(0, 75 - 1080, 1776)'
p1352
sS'Action'
p1353
S'[ ClassName: android.support.v7.widget.RecyclerView; Text: []; ContentDescription: null; ItemCount: 5; CurrentItemIndex: -1; IsEnabled: true; IsPassword: false; IsChecked: false; IsFullScreen: false; Scrollable: true; BeforeText: null; FromIndex: 0; ToIndex: 4; ScrollX: -1; ScrollY: -1; MaxScrollX: -1; MaxScrollY: -1; AddedCount: -1; RemovedCount: -1; ParcelableData: null ]'
p1354
sS'MovementGranularity'
p1355
g6
sa(dp1356
S'EventTime'
p1357
S'25831056'
p1358
sg4
L1449910873600L
sS'recordCount'
p1359
g6
sS'EventType'
p1360
S'TYPE_VIEW_CLICKED'
p1361
sS'PackageName'
p1362
S'com.taobao.ishopping'
p1363
sS'OutBounds'
p1364
S'Rect(0, 1104 - 1080, 1637)'
p1365
sS'Action'
p1366
S'[ ClassName: android.widget.LinearLayout; Text: [\xe6\x9d\xa5\xe8\x87\xaa\xe7\xbe\xa4\xe7\xbb\x84, \xee\x98\x92, \xe4\xbb\xbb\xe6\x80\xa7\xe4\xb9\xb0\xe5\x8d\x96\xe7\x96\xaf\xe7\x9a\x84\xe6\xaf\x9b\xe5\x91\xa2\xe5\xa4\x96\xe5\xa5\x97, 1\xe6\x88\x90\xe5\x91\x98, \xea\x81\xaa]; ContentDescription: null; ItemCount: -1; CurrentItemIndex: -1; IsEnabled: true; IsPassword: false; IsChecked: false; IsFullScreen: false; Scrollable: false; BeforeText: null; FromIndex: -1; ToIndex: -1; ScrollX: -1; ScrollY: -1; MaxScrollX: -1; MaxScrollY: -1; AddedCount: -1; RemovedCount: -1; ParcelableData: null ]'
p1367
sS'MovementGranularity'
p1368
g6
sa(dp1369
S'EventTime'
p1370
S'25831176'
p1371
sg4
L1449910873700L
sS'recordCount'
p1372
g6
sS'EventType'
p1373
S'TYPE_WINDOW_STATE_CHANGED'
p1374
sS'PackageName'
p1375
S'com.taobao.ishopping'
p1376
sS'OutBounds'
p1377
S'Rect(0, 0 - 1080, 1920)'
p1378
sS'Action'
p1379
S'[ ClassName: com.taobao.ishopping.thirdparty.windvane.HybridWVActivity; Text: [\xe7\x88\xb1\xe9\x80\x9b\xe8\xa1\x97]; ContentDescription: null; ItemCount: -1; CurrentItemIndex: -1; IsEnabled: true; IsPassword: false; IsChecked: false; IsFullScreen: true; Scrollable: false; BeforeText: null; FromIndex: -1; ToIndex: -1; ScrollX: -1; ScrollY: -1; MaxScrollX: -1; MaxScrollY: -1; AddedCount: -1; RemovedCount: -1; ParcelableData: null ]'
p1380
sS'MovementGranularity'
p1381
g6
sa(dp1382
S'EventTime'
p1383
S'25831233'
p1384
sg4
L1449910873754L
sS'recordCount'
p1385
g6
sS'EventType'
p1386
S'TYPE_WINDOW_CONTENT_CHANGED'
p1387
sS'PackageName'
p1388
S'com.taobao.ishopping'
p1389
sS'OutBounds'
p1390
S'Rect(0, 75 - 168, 207)'
p1391
sS'Action'
p1392
S'[ ClassName: android.widget.ImageButton; Text: []; ContentDescription: \xe8\xbd\xac\xe5\x88\xb0\xe4\xb8\x8a\xe4\xb8\x80\xe5\xb1\x82\xe7\xba\xa7; ItemCount: -1; CurrentItemIndex: -1; IsEnabled: true; IsPassword: false; IsChecked: false; IsFullScreen: false; Scrollable: false; BeforeText: null; FromIndex: -1; ToIndex: -1; ScrollX: -1; ScrollY: -1; MaxScrollX: -1; MaxScrollY: -1; AddedCount: -1; RemovedCount: -1; ParcelableData: null ]'
p1393
sS'MovementGranularity'
p1394
g6
sa(dp1395
S'EventTime'
p1396
S'25831426'
p1397
sg4
L1449910873965L
sS'recordCount'
p1398
g6
sS'EventType'
p1399
S'TYPE_WINDOW_CONTENT_CHANGED'
p1400
sS'PackageName'
p1401
S'com.taobao.ishopping'
p1402
sS'OutBounds'
p1403
S'Rect(0, 207 - 1080, 1920)'
p1404
sS'Action'
p1405
S'[ ClassName: com.android.org.chromium.content.browser.ContentViewCore; Text: []; ContentDescription: null; ItemCount: -1; CurrentItemIndex: -1; IsEnabled: true; IsPassword: false; IsChecked: false; IsFullScreen: false; Scrollable: false; BeforeText: null; FromIndex: -1; ToIndex: -1; ScrollX: 0; ScrollY: 0; MaxScrollX: 0; MaxScrollY: 0; AddedCount: -1; RemovedCount: -1; ParcelableData: null ]'
p1406
sS'MovementGranularity'
p1407
g6
sa(dp1408
S'EventTime'
p1409
S'25831428'
p1410
sg4
L1449910873969L
sS'recordCount'
p1411
g6
sS'EventType'
p1412
S'TYPE_VIEW_ACCESSIBILITY_FOCUS_CLEARED'
p1413
sS'PackageName'
p1414
S'com.taobao.ishopping'
p1415
sS'OutBounds'
p1416
S'Rect(0, 207 - 1080, 1920)'
p1417
sS'Action'
p1418
S'[ ClassName: android.webkit.WebView; Text: []; ContentDescription: null; ItemCount: 0; CurrentItemIndex: 0; IsEnabled: true; IsPassword: false; IsChecked: false; IsFullScreen: false; Scrollable: true; BeforeText: null; FromIndex: -1; ToIndex: -1; ScrollX: 0; ScrollY: 0; MaxScrollX: 0; MaxScrollY: 0; AddedCount: -1; RemovedCount: -1; ParcelableData: Bundle[mParcelledData.dataSize=488] ]'
p1419
sS'MovementGranularity'
p1420
g6
sa(dp1421
S'EventTime'
p1422
S'25831429'
p1423
sg4
L1449910873978L
sS'recordCount'
p1424
g6
sS'EventType'
p1425
S'TYPE_VIEW_ACCESSIBILITY_FOCUSED'
p1426
sS'PackageName'
p1427
S'com.taobao.ishopping'
p1428
sS'OutBounds'
p1429
S'Rect(0, 207 - 1080, 1920)'
p1430
sS'Action'
p1431
S'[ ClassName: android.webkit.WebView; Text: []; ContentDescription: null; ItemCount: 0; CurrentItemIndex: 0; IsEnabled: true; IsPassword: false; IsChecked: false; IsFullScreen: false; Scrollable: true; BeforeText: null; FromIndex: -1; ToIndex: -1; ScrollX: 0; ScrollY: 0; MaxScrollX: 0; MaxScrollY: 0; AddedCount: -1; RemovedCount: -1; ParcelableData: Bundle[mParcelledData.dataSize=488] ]'
p1432
sS'MovementGranularity'
p1433
g6
sa(dp1434
S'EventTime'
p1435
S'25831657'
p1436
sg4
L1449910874177L
sS'recordCount'
p1437
g6
sS'EventType'
p1438
S'TYPE_WINDOW_CONTENT_CHANGED'
p1439
sS'PackageName'
p1440
S'com.taobao.ishopping'
p1441
sS'OutBounds'
p1442
S'Rect(0, 207 - 1080, 1920)'
p1443
sS'Action'
p1444
S'[ ClassName: android.webkit.WebView; Text: []; ContentDescription: null; ItemCount: 0; CurrentItemIndex: 0; IsEnabled: true; IsPassword: false; IsChecked: false; IsFullScreen: false; Scrollable: true; BeforeText: null; FromIndex: -1; ToIndex: -1; ScrollX: 0; ScrollY: 0; MaxScrollX: 0; MaxScrollY: 0; AddedCount: -1; RemovedCount: -1; ParcelableData: Bundle[mParcelledData.dataSize=488] ]'
p1445
sS'MovementGranularity'
p1446
g6
sa(dp1447
S'EventTime'
p1448
S'25831797'
p1449
sg4
L1449910874320L
sS'recordCount'
p1450
g6
sS'EventType'
p1451
S'TYPE_WINDOW_CONTENT_CHANGED'
p1452
sS'PackageName'
p1453
S'com.taobao.ishopping'
p1454
sS'OutBounds'
p1455
S'Rect(243, 109 - 837, 172)'
p1456
sS'Action'
p1457
S'[ ClassName: android.widget.TextView; Text: []; ContentDescription: null; ItemCount: -1; CurrentItemIndex: -1; IsEnabled: true; IsPassword: false; IsChecked: false; IsFullScreen: false; Scrollable: false; BeforeText: null; FromIndex: -1; ToIndex: -1; ScrollX: -1; ScrollY: -1; MaxScrollX: -1; MaxScrollY: -1; AddedCount: -1; RemovedCount: -1; ParcelableData: null ]'
p1458
sS'MovementGranularity'
p1459
g6
sa(dp1460
S'EventTime'
p1461
S'25831928'
p1462
sg4
L1449910874449L
sS'recordCount'
p1463
g6
sS'EventType'
p1464
S'TYPE_WINDOW_CONTENT_CHANGED'
p1465
sS'PackageName'
p1466
S'com.taobao.ishopping'
p1467
sS'OutBounds'
p1468
S'Rect(0, 207 - 1080, 1920)'
p1469
sS'Action'
p1470
S'[ ClassName: android.webkit.WebView; Text: []; ContentDescription: null; ItemCount: 0; CurrentItemIndex: 0; IsEnabled: true; IsPassword: false; IsChecked: false; IsFullScreen: false; Scrollable: true; BeforeText: null; FromIndex: -1; ToIndex: -1; ScrollX: 0; ScrollY: 0; MaxScrollX: 0; MaxScrollY: 0; AddedCount: -1; RemovedCount: -1; ParcelableData: Bundle[mParcelledData.dataSize=488] ]'
p1471
sS'MovementGranularity'
p1472
g6
sa(dp1473
S'EventTime'
p1474
S'25832283'
p1475
sg4
L1449910874810L
sS'recordCount'
p1476
g6
sS'EventType'
p1477
S'TYPE_VIEW_SCROLLED'
p1478
sS'PackageName'
p1479
S'com.taobao.ishopping'
p1480
sS'OutBounds'
p1481
S'Rect(0, 206 - 1080, 1919)'
p1482
sS'Action'
p1483
S'[ ClassName: android.webkit.WebView; Text: []; ContentDescription: null; ItemCount: 0; CurrentItemIndex: 0; IsEnabled: true; IsPassword: false; IsChecked: false; IsFullScreen: false; Scrollable: true; BeforeText: null; FromIndex: -1; ToIndex: -1; ScrollX: 0; ScrollY: 1; MaxScrollX: 0; MaxScrollY: 9350; AddedCount: -1; RemovedCount: -1; ParcelableData: Bundle[mParcelledData.dataSize=488] ]'
p1484
sS'MovementGranularity'
p1485
g6
sa(dp1486
S'EventTime'
p1487
S'25832301'
p1488
sg4
L1449910874821L
sS'recordCount'
p1489
g6
sS'EventType'
p1490
S'TYPE_WINDOW_CONTENT_CHANGED'
p1491
sS'PackageName'
p1492
S'com.taobao.ishopping'
p1493
sS'OutBounds'
p1494
S'Rect(0, 206 - 1080, 1919)'
p1495
sS'Action'
p1496
S'[ ClassName: android.webkit.WebView; Text: []; ContentDescription: null; ItemCount: 0; CurrentItemIndex: 0; IsEnabled: true; IsPassword: false; IsChecked: false; IsFullScreen: false; Scrollable: true; BeforeText: null; FromIndex: -1; ToIndex: -1; ScrollX: 0; ScrollY: 1; MaxScrollX: 0; MaxScrollY: 9350; AddedCount: -1; RemovedCount: -1; ParcelableData: Bundle[mParcelledData.dataSize=488] ]'
p1497
sS'MovementGranularity'
p1498
g6
sa(dp1499
S'EventTime'
p1500
S'25832434'
p1501
sg4
L1449910874964L
sS'recordCount'
p1502
g6
sS'EventType'
p1503
S'TYPE_VIEW_SCROLLED'
p1504
sS'PackageName'
p1505
S'com.taobao.ishopping'
p1506
sS'OutBounds'
p1507
S'Rect(0, 207 - 1080, 1920)'
p1508
sS'Action'
p1509
S'[ ClassName: com.android.org.chromium.content.browser.ContentViewCore; Text: []; ContentDescription: null; ItemCount: -1; CurrentItemIndex: -1; IsEnabled: true; IsPassword: false; IsChecked: false; IsFullScreen: false; Scrollable: true; BeforeText: null; FromIndex: -1; ToIndex: -1; ScrollX: 0; ScrollY: 1; MaxScrollX: 0; MaxScrollY: 9350; AddedCount: -1; RemovedCount: -1; ParcelableData: null ]'
p1510
sS'MovementGranularity'
p1511
g6
sa(dp1512
S'EventTime'
p1513
S'25834278'
p1514
sg4
L1449910876822L
sS'recordCount'
p1515
g6
sS'EventType'
p1516
S'TYPE_WINDOW_STATE_CHANGED'
p1517
sS'PackageName'
p1518
S'com.taobao.ishopping'
p1519
sS'OutBounds'
p1520
S'Rect(0, 0 - 1080, 1920)'
p1521
sS'Action'
p1522
S'[ ClassName: com.taobao.ishopping.activity.detail.DetailActivity; Text: [\xe7\x88\xb1\xe9\x80\x9b\xe8\xa1\x97]; ContentDescription: null; ItemCount: -1; CurrentItemIndex: -1; IsEnabled: true; IsPassword: false; IsChecked: false; IsFullScreen: true; Scrollable: false; BeforeText: null; FromIndex: -1; ToIndex: -1; ScrollX: -1; ScrollY: -1; MaxScrollX: -1; MaxScrollY: -1; AddedCount: -1; RemovedCount: -1; ParcelableData: null ]'
p1523
sS'MovementGranularity'
p1524
g6
sa(dp1525
S'EventTime'
p1526
S'25834880'
p1527
sg4
L1449910877411L
sS'recordCount'
p1528
g6
sS'EventType'
p1529
S'TYPE_WINDOW_STATE_CHANGED'
p1530
sS'PackageName'
p1531
S'com.taobao.ishopping'
p1532
sS'OutBounds'
p1533
S'Rect(0, 0 - 1080, 1920)'
p1534
sS'Action'
p1535
S'[ ClassName: com.taobao.ishopping.thirdparty.windvane.HybridWVActivity; Text: [\xe7\x88\xb1\xe9\x80\x9b\xe8\xa1\x97]; ContentDescription: null; ItemCount: -1; CurrentItemIndex: -1; IsEnabled: true; IsPassword: false; IsChecked: false; IsFullScreen: true; Scrollable: false; BeforeText: null; FromIndex: -1; ToIndex: -1; ScrollX: -1; ScrollY: -1; MaxScrollX: -1; MaxScrollY: -1; AddedCount: -1; RemovedCount: -1; ParcelableData: null ]'
p1536
sS'MovementGranularity'
p1537
g6
sa(dp1538
S'EventTime'
p1539
S'25835795'
p1540
sg4
L1449910878340L
sS'recordCount'
p1541
g6
sS'EventType'
p1542
S'TYPE_WINDOW_STATE_CHANGED'
p1543
sS'PackageName'
p1544
S'com.taobao.ishopping'
p1545
sS'OutBounds'
p1546
S'Rect(0, 0 - 1080, 1920)'
p1547
sS'Action'
p1548
S'[ ClassName: com.taobao.ishopping.activity.home.MainActivity; Text: [\xe7\x88\xb1\xe9\x80\x9b\xe8\xa1\x97]; ContentDescription: null; ItemCount: -1; CurrentItemIndex: -1; IsEnabled: true; IsPassword: false; IsChecked: false; IsFullScreen: true; Scrollable: false; BeforeText: null; FromIndex: -1; ToIndex: -1; ScrollX: -1; ScrollY: -1; MaxScrollX: -1; MaxScrollY: -1; AddedCount: -1; RemovedCount: -1; ParcelableData: null ]'
p1549
sS'MovementGranularity'
p1550
g6
sa(dp1551
S'EventTime'
p1552
S'25837626'
p1553
sg4
L1449910880174L
sS'recordCount'
p1554
g6
sS'EventType'
p1555
S'TYPE_VIEW_CLICKED'
p1556
sS'PackageName'
p1557
S'com.taobao.ishopping'
p1558
sS'OutBounds'
p1559
S'Rect(541, 1011 - 1053, 1523)'
p1560
sS'Action'
p1561
S'[ ClassName: android.widget.ImageView; Text: []; ContentDescription: null; ItemCount: -1; CurrentItemIndex: -1; IsEnabled: true; IsPassword: false; IsChecked: false; IsFullScreen: false; Scrollable: false; BeforeText: null; FromIndex: -1; ToIndex: -1; ScrollX: -1; ScrollY: -1; MaxScrollX: -1; MaxScrollY: -1; AddedCount: -1; RemovedCount: -1; ParcelableData: null ]'
p1562
sS'MovementGranularity'
p1563
g6
sa(dp1564
S'EventTime'
p1565
S'25837754'
p1566
sg4
L1449910880275L
sS'recordCount'
p1567
g6
sS'EventType'
p1568
S'TYPE_WINDOW_STATE_CHANGED'
p1569
sS'PackageName'
p1570
S'com.taobao.ishopping'
p1571
sS'OutBounds'
p1572
S'Rect(0, 0 - 1080, 1920)'
p1573
sS'Action'
p1574
S'[ ClassName: com.taobao.ishopping.thirdparty.windvane.HybridWVActivity; Text: [\xe7\x88\xb1\xe9\x80\x9b\xe8\xa1\x97]; ContentDescription: null; ItemCount: -1; CurrentItemIndex: -1; IsEnabled: true; IsPassword: false; IsChecked: false; IsFullScreen: true; Scrollable: false; BeforeText: null; FromIndex: -1; ToIndex: -1; ScrollX: -1; ScrollY: -1; MaxScrollX: -1; MaxScrollY: -1; AddedCount: -1; RemovedCount: -1; ParcelableData: null ]'
p1575
sS'MovementGranularity'
p1576
g6
sa(dp1577
S'EventTime'
p1578
S'25837874'
p1579
sg4
L1449910880395L
sS'recordCount'
p1580
g6
sS'EventType'
p1581
S'TYPE_WINDOW_CONTENT_CHANGED'
p1582
sS'PackageName'
p1583
S'com.taobao.ishopping'
p1584
sS'OutBounds'
p1585
S'Rect(0, 207 - 1080, 1920)'
p1586
sS'Action'
p1587
S'[ ClassName: com.android.org.chromium.content.browser.ContentViewCore; Text: []; ContentDescription: null; ItemCount: -1; CurrentItemIndex: -1; IsEnabled: true; IsPassword: false; IsChecked: false; IsFullScreen: false; Scrollable: false; BeforeText: null; FromIndex: -1; ToIndex: -1; ScrollX: 0; ScrollY: 0; MaxScrollX: 0; MaxScrollY: 0; AddedCount: -1; RemovedCount: -1; ParcelableData: null ]'
p1588
sS'MovementGranularity'
p1589
g6
sa(dp1590
S'EventTime'
p1591
S'25837875'
p1592
sg4
L1449910880399L
sS'recordCount'
p1593
g6
sS'EventType'
p1594
S'TYPE_VIEW_ACCESSIBILITY_FOCUS_CLEARED'
p1595
sS'PackageName'
p1596
S'com.taobao.ishopping'
p1597
sS'OutBounds'
p1598
S'Rect(0, 207 - 1080, 1919)'
p1599
sS'Action'
p1600
S'[ ClassName: android.webkit.WebView; Text: []; ContentDescription: null; ItemCount: 0; CurrentItemIndex: 0; IsEnabled: true; IsPassword: false; IsChecked: false; IsFullScreen: false; Scrollable: true; BeforeText: null; FromIndex: -1; ToIndex: -1; ScrollX: 0; ScrollY: 0; MaxScrollX: 0; MaxScrollY: 0; AddedCount: -1; RemovedCount: -1; ParcelableData: Bundle[mParcelledData.dataSize=488] ]'
p1601
sS'MovementGranularity'
p1602
g6
sa(dp1603
S'EventTime'
p1604
S'25837876'
p1605
sg4
L1449910880410L
sS'recordCount'
p1606
g6
sS'EventType'
p1607
S'TYPE_VIEW_ACCESSIBILITY_FOCUSED'
p1608
sS'PackageName'
p1609
S'com.taobao.ishopping'
p1610
sS'OutBounds'
p1611
S'Rect(0, 207 - 1080, 1919)'
p1612
sS'Action'
p1613
S'[ ClassName: android.webkit.WebView; Text: []; ContentDescription: null; ItemCount: 0; CurrentItemIndex: 0; IsEnabled: true; IsPassword: false; IsChecked: false; IsFullScreen: false; Scrollable: true; BeforeText: null; FromIndex: -1; ToIndex: -1; ScrollX: 0; ScrollY: 0; MaxScrollX: 0; MaxScrollY: 0; AddedCount: -1; RemovedCount: -1; ParcelableData: Bundle[mParcelledData.dataSize=488] ]'
p1614
sS'MovementGranularity'
p1615
g6
sa(dp1616
S'EventTime'
p1617
S'25838220'
p1618
sg4
L1449910880741L
sS'recordCount'
p1619
g6
sS'EventType'
p1620
S'TYPE_VIEW_FOCUSED'
p1621
sS'PackageName'
p1622
S'com.taobao.ishopping'
p1623
sS'OutBounds'
p1624
S'Rect(0, 207 - 1080, 1920)'
p1625
sS'Action'
p1626
S'[ ClassName: android.webkit.WebView; Text: []; ContentDescription: null; ItemCount: 0; CurrentItemIndex: 0; IsEnabled: true; IsPassword: false; IsChecked: false; IsFullScreen: false; Scrollable: true; BeforeText: null; FromIndex: -1; ToIndex: -1; ScrollX: 0; ScrollY: 0; MaxScrollX: 0; MaxScrollY: 0; AddedCount: -1; RemovedCount: -1; ParcelableData: Bundle[mParcelledData.dataSize=488] ]'
p1627
sS'MovementGranularity'
p1628
g6
sa(dp1629
S'EventTime'
p1630
S'25838221'
p1631
sg4
L1449910880746L
sS'recordCount'
p1632
g6
sS'EventType'
p1633
S'TYPE_VIEW_ACCESSIBILITY_FOCUSED'
p1634
sS'PackageName'
p1635
S'com.taobao.ishopping'
p1636
sS'OutBounds'
p1637
S'Rect(0, 207 - 1080, 1920)'
p1638
sS'Action'
p1639
S'[ ClassName: android.webkit.WebView; Text: []; ContentDescription: null; ItemCount: 0; CurrentItemIndex: 0; IsEnabled: true; IsPassword: false; IsChecked: false; IsFullScreen: false; Scrollable: true; BeforeText: null; FromIndex: -1; ToIndex: -1; ScrollX: 0; ScrollY: 0; MaxScrollX: 0; MaxScrollY: 0; AddedCount: -1; RemovedCount: -1; ParcelableData: Bundle[mParcelledData.dataSize=488] ]'
p1640
sS'MovementGranularity'
p1641
g6
sa(dp1642
S'EventTime'
p1643
S'25838395'
p1644
sg4
L1449910880917L
sS'recordCount'
p1645
g6
sS'EventType'
p1646
S'TYPE_WINDOW_CONTENT_CHANGED'
p1647
sS'PackageName'
p1648
S'com.taobao.ishopping'
p1649
sS'OutBounds'
p1650
S'Rect(405, 109 - 675, 172)'
p1651
sS'Action'
p1652
S'[ ClassName: android.widget.TextView; Text: []; ContentDescription: null; ItemCount: -1; CurrentItemIndex: -1; IsEnabled: true; IsPassword: false; IsChecked: false; IsFullScreen: false; Scrollable: false; BeforeText: null; FromIndex: -1; ToIndex: -1; ScrollX: -1; ScrollY: -1; MaxScrollX: -1; MaxScrollY: -1; AddedCount: -1; RemovedCount: -1; ParcelableData: null ]'
p1653
sS'MovementGranularity'
p1654
g6
sa(dp1655
S'EventTime'
p1656
S'25838534'
p1657
sg4
L1449910881053L
sS'recordCount'
p1658
g6
sS'EventType'
p1659
S'TYPE_WINDOW_CONTENT_CHANGED'
p1660
sS'PackageName'
p1661
S'com.taobao.ishopping'
p1662
sS'OutBounds'
p1663
S'Rect(0, 207 - 1080, 1920)'
p1664
sS'Action'
p1665
S'[ ClassName: android.webkit.WebView; Text: []; ContentDescription: null; ItemCount: 0; CurrentItemIndex: 0; IsEnabled: true; IsPassword: false; IsChecked: false; IsFullScreen: false; Scrollable: true; BeforeText: null; FromIndex: -1; ToIndex: -1; ScrollX: 0; ScrollY: 0; MaxScrollX: 0; MaxScrollY: 0; AddedCount: -1; RemovedCount: -1; ParcelableData: Bundle[mParcelledData.dataSize=488] ]'
p1666
sS'MovementGranularity'
p1667
g6
sa(dp1668
S'EventTime'
p1669
S'25839154'
p1670
sg4
L1449910881685L
sS'recordCount'
p1671
g6
sS'EventType'
p1672
S'TYPE_VIEW_SCROLLED'
p1673
sS'PackageName'
p1674
S'com.taobao.ishopping'
p1675
sS'OutBounds'
p1676
S'Rect(0, 206 - 1080, 1919)'
p1677
sS'Action'
p1678
S'[ ClassName: android.webkit.WebView; Text: []; ContentDescription: null; ItemCount: 0; CurrentItemIndex: 0; IsEnabled: true; IsPassword: false; IsChecked: false; IsFullScreen: false; Scrollable: true; BeforeText: null; FromIndex: -1; ToIndex: -1; ScrollX: 0; ScrollY: 1; MaxScrollX: 0; MaxScrollY: 9350; AddedCount: -1; RemovedCount: -1; ParcelableData: Bundle[mParcelledData.dataSize=488] ]'
p1679
sS'MovementGranularity'
p1680
g6
sa(dp1681
S'EventTime'
p1682
S'25839201'
p1683
sg4
L1449910881721L
sS'recordCount'
p1684
g6
sS'EventType'
p1685
S'TYPE_WINDOW_CONTENT_CHANGED'
p1686
sS'PackageName'
p1687
S'com.taobao.ishopping'
p1688
sS'OutBounds'
p1689
S'Rect(0, 206 - 1080, 1919)'
p1690
sS'Action'
p1691
S'[ ClassName: android.webkit.WebView; Text: []; ContentDescription: null; ItemCount: 0; CurrentItemIndex: 0; IsEnabled: true; IsPassword: false; IsChecked: false; IsFullScreen: false; Scrollable: true; BeforeText: null; FromIndex: -1; ToIndex: -1; ScrollX: 0; ScrollY: 1; MaxScrollX: 0; MaxScrollY: 9350; AddedCount: -1; RemovedCount: -1; ParcelableData: Bundle[mParcelledData.dataSize=488] ]'
p1692
sS'MovementGranularity'
p1693
g6
sa(dp1694
S'EventTime'
p1695
S'25839280'
p1696
sg4
L1449910881810L
sS'recordCount'
p1697
g6
sS'EventType'
p1698
S'TYPE_VIEW_SCROLLED'
p1699
sS'PackageName'
p1700
S'com.taobao.ishopping'
p1701
sS'OutBounds'
p1702
S'Rect(0, 207 - 1080, 1920)'
p1703
sS'Action'
p1704
S'[ ClassName: com.android.org.chromium.content.browser.ContentViewCore; Text: []; ContentDescription: null; ItemCount: -1; CurrentItemIndex: -1; IsEnabled: true; IsPassword: false; IsChecked: false; IsFullScreen: false; Scrollable: true; BeforeText: null; FromIndex: -1; ToIndex: -1; ScrollX: 0; ScrollY: 1; MaxScrollX: 0; MaxScrollY: 9350; AddedCount: -1; RemovedCount: -1; ParcelableData: null ]'
p1705
sS'MovementGranularity'
p1706
g6
sa(dp1707
S'EventTime'
p1708
S'25839436'
p1709
sg4
L1449910881955L
sS'recordCount'
p1710
g6
sS'EventType'
p1711
S'TYPE_WINDOW_CONTENT_CHANGED'
p1712
sS'PackageName'
p1713
S'com.taobao.ishopping'
p1714
sS'OutBounds'
p1715
S'Rect(0, 206 - 1080, 1919)'
p1716
sS'Action'
p1717
S'[ ClassName: android.webkit.WebView; Text: []; ContentDescription: null; ItemCount: 0; CurrentItemIndex: 0; IsEnabled: true; IsPassword: false; IsChecked: false; IsFullScreen: false; Scrollable: true; BeforeText: null; FromIndex: -1; ToIndex: -1; ScrollX: 0; ScrollY: 1; MaxScrollX: 0; MaxScrollY: 9350; AddedCount: -1; RemovedCount: -1; ParcelableData: Bundle[mParcelledData.dataSize=488] ]'
p1718
sS'MovementGranularity'
p1719
g6
sa(dp1720
S'EventTime'
p1721
S'25840102'
p1722
sg4
L1449910882622L
sS'recordCount'
p1723
g6
sS'EventType'
p1724
S'TYPE_WINDOW_CONTENT_CHANGED'
p1725
sS'PackageName'
p1726
S'com.taobao.ishopping'
p1727
sS'OutBounds'
p1728
S'Rect(0, -93 - 1080, 1620)'
p1729
sS'Action'
p1730
S'[ ClassName: android.webkit.WebView; Text: []; ContentDescription: null; ItemCount: 0; CurrentItemIndex: 0; IsEnabled: true; IsPassword: false; IsChecked: false; IsFullScreen: false; Scrollable: true; BeforeText: null; FromIndex: -1; ToIndex: -1; ScrollX: 0; ScrollY: 300; MaxScrollX: 0; MaxScrollY: 9350; AddedCount: -1; RemovedCount: -1; ParcelableData: Bundle[mParcelledData.dataSize=488] ]'
p1731
sS'MovementGranularity'
p1732
g6
sa(dp1733
S'EventTime'
p1734
S'25840194'
p1735
sg4
L1449910882725L
sS'recordCount'
p1736
g6
sS'EventType'
p1737
S'TYPE_VIEW_SCROLLED'
p1738
sS'PackageName'
p1739
S'com.taobao.ishopping'
p1740
sS'OutBounds'
p1741
S'Rect(0, 207 - 1080, 1920)'
p1742
sS'Action'
p1743
S'[ ClassName: com.android.org.chromium.content.browser.ContentViewCore; Text: []; ContentDescription: null; ItemCount: -1; CurrentItemIndex: -1; IsEnabled: true; IsPassword: false; IsChecked: false; IsFullScreen: false; Scrollable: true; BeforeText: null; FromIndex: -1; ToIndex: -1; ScrollX: 0; ScrollY: 300; MaxScrollX: 0; MaxScrollY: 9350; AddedCount: -1; RemovedCount: -1; ParcelableData: null ]'
p1744
sS'MovementGranularity'
p1745
g6
sa(dp1746
S'EventTime'
p1747
S'25840736'
p1748
sg4
L1449910883415L
sS'recordCount'
p1749
g6
sS'EventType'
p1750
S'TYPE_WINDOW_CONTENT_CHANGED'
p1751
sS'PackageName'
p1752
S'com.taobao.ishopping'
p1753
sS'OutBounds'
p1754
S'Rect(25, 318 - 528, 1068)'
p1755
sS'Action'
p1756
S'[ ClassName: android.view.View; Text: []; ContentDescription: null; ItemCount: 0; CurrentItemIndex: 0; IsEnabled: true; IsPassword: false; IsChecked: false; IsFullScreen: false; Scrollable: false; BeforeText: null; FromIndex: -1; ToIndex: -1; ScrollX: 0; ScrollY: 0; MaxScrollX: 0; MaxScrollY: 0; AddedCount: -1; RemovedCount: -1; ParcelableData: Bundle[mParcelledData.dataSize=488] ]'
p1757
sS'MovementGranularity'
p1758
g6
sa(dp1759
S'EventTime'
p1760
S'25840737'
p1761
sg4
L1449910883495L
sS'recordCount'
p1762
g6
sS'EventType'
p1763
S'TYPE_VIEW_FOCUSED'
p1764
sS'PackageName'
p1765
S'com.taobao.ishopping'
p1766
sS'Action'
p1767
S'[ ClassName: android.view.View; Text: []; ContentDescription: null; ItemCount: 0; CurrentItemIndex: 0; IsEnabled: true; IsPassword: false; IsChecked: false; IsFullScreen: false; Scrollable: false; BeforeText: null; FromIndex: -1; ToIndex: -1; ScrollX: 0; ScrollY: 0; MaxScrollX: 0; MaxScrollY: 0; AddedCount: -1; RemovedCount: -1; ParcelableData: Bundle[mParcelledData.dataSize=488] ]'
p1768
sS'MovementGranularity'
p1769
g6
sa(dp1770
S'EventTime'
p1771
S'25840738'
p1772
sg4
L1449910883530L
sS'recordCount'
p1773
g6
sS'EventType'
p1774
S'TYPE_VIEW_ACCESSIBILITY_FOCUSED'
p1775
sS'PackageName'
p1776
S'com.taobao.ishopping'
p1777
sS'Action'
p1778
S'[ ClassName: android.view.View; Text: []; ContentDescription: null; ItemCount: 0; CurrentItemIndex: 0; IsEnabled: true; IsPassword: false; IsChecked: false; IsFullScreen: false; Scrollable: false; BeforeText: null; FromIndex: -1; ToIndex: -1; ScrollX: 0; ScrollY: 0; MaxScrollX: 0; MaxScrollY: 0; AddedCount: -1; RemovedCount: -1; ParcelableData: Bundle[mParcelledData.dataSize=488] ]'
p1779
sS'MovementGranularity'
p1780
g6
sa(dp1781
S'EventTime'
p1782
S'25841054'
p1783
sg4
L1449910883581L
sS'recordCount'
p1784
g6
sS'EventType'
p1785
S'TYPE_WINDOW_STATE_CHANGED'
p1786
sS'PackageName'
p1787
S'com.taobao.ishopping'
p1788
sS'OutBounds'
p1789
S'Rect(306, 948 - 774, 1047)'
p1790
sS'Action'
p1791
S'[ ClassName: android.app.ProgressDialog; Text: [\xe5\x8a\xaa\xe5\x8a\x9b\xe5\x8a\xa0\xe8\xbd\xbd\xe4\xb8\xad]; ContentDescription: null; ItemCount: -1; CurrentItemIndex: -1; IsEnabled: true; IsPassword: false; IsChecked: false; IsFullScreen: false; Scrollable: false; BeforeText: null; FromIndex: -1; ToIndex: -1; ScrollX: -1; ScrollY: -1; MaxScrollX: -1; MaxScrollY: -1; AddedCount: -1; RemovedCount: -1; ParcelableData: null ]'
p1792
sS'MovementGranularity'
p1793
g6
sa(dp1794
S'EventTime'
p1795
S'25841129'
p1796
sg4
L1449910883651L
sS'recordCount'
p1797
g6
sS'EventType'
p1798
S'TYPE_WINDOW_CONTENT_CHANGED'
p1799
sS'PackageName'
p1800
S'com.taobao.ishopping'
p1801
sS'Action'
p1802
S'[ ClassName: android.widget.TextView; Text: []; ContentDescription: null; ItemCount: -1; CurrentItemIndex: -1; IsEnabled: true; IsPassword: false; IsChecked: false; IsFullScreen: false; Scrollable: false; BeforeText: null; FromIndex: -1; ToIndex: -1; ScrollX: -1; ScrollY: -1; MaxScrollX: -1; MaxScrollY: -1; AddedCount: -1; RemovedCount: -1; ParcelableData: null ]'
p1803
sS'MovementGranularity'
p1804
g6
sa(dp1805
S'EventTime'
p1806
S'25841323'
p1807
sg4
L1449910883867L
sS'recordCount'
p1808
g6
sS'EventType'
p1809
S'TYPE_WINDOW_STATE_CHANGED'
p1810
sS'PackageName'
p1811
S'com.taobao.ishopping'
p1812
sS'OutBounds'
p1813
S'Rect(0, 0 - 1080, 1920)'
p1814
sS'Action'
p1815
S'[ ClassName: com.taobao.ishopping.activity.detail.DetailActivity; Text: [\xe7\x88\xb1\xe9\x80\x9b\xe8\xa1\x97]; ContentDescription: null; ItemCount: -1; CurrentItemIndex: -1; IsEnabled: true; IsPassword: false; IsChecked: false; IsFullScreen: true; Scrollable: false; BeforeText: null; FromIndex: -1; ToIndex: -1; ScrollX: -1; ScrollY: -1; MaxScrollX: -1; MaxScrollY: -1; AddedCount: -1; RemovedCount: -1; ParcelableData: null ]'
p1816
sS'MovementGranularity'
p1817
g6
sa(dp1818
S'EventTime'
p1819
S'25841425'
p1820
sg4
L1449910883960L
sS'recordCount'
p1821
g6
sS'EventType'
p1822
S'TYPE_VIEW_SCROLLED'
p1823
sS'PackageName'
p1824
S'com.taobao.ishopping'
p1825
sS'OutBounds'
p1826
S'Rect(0, 83 - 1080, 1776)'
p1827
sS'Action'
p1828
S'[ ClassName: android.support.v7.widget.RecyclerView; Text: []; ContentDescription: null; ItemCount: 5; CurrentItemIndex: -1; IsEnabled: true; IsPassword: false; IsChecked: false; IsFullScreen: false; Scrollable: true; BeforeText: null; FromIndex: 0; ToIndex: 3; ScrollX: -1; ScrollY: -1; MaxScrollX: -1; MaxScrollY: -1; AddedCount: -1; RemovedCount: -1; ParcelableData: null ]'
p1829
sS'MovementGranularity'
p1830
g6
sa(dp1831
S'EventTime'
p1832
S'25841730'
p1833
sg4
L1449910884269L
sS'recordCount'
p1834
g6
sS'EventType'
p1835
S'TYPE_VIEW_FOCUSED'
p1836
sS'PackageName'
p1837
S'com.taobao.ishopping'
p1838
sS'OutBounds'
p1839
S'Rect(0, 45 - 1080, 42165)'
p1840
sS'Action'
p1841
S'[ ClassName: android.webkit.WebView; Text: []; ContentDescription: null; ItemCount: 0; CurrentItemIndex: 0; IsEnabled: true; IsPassword: false; IsChecked: false; IsFullScreen: false; Scrollable: true; BeforeText: null; FromIndex: -1; ToIndex: -1; ScrollX: 0; ScrollY: 0; MaxScrollX: 0; MaxScrollY: 40419; AddedCount: -1; RemovedCount: -1; ParcelableData: Bundle[mParcelledData.dataSize=488] ]'
p1842
sS'MovementGranularity'
p1843
g6
sa(dp1844
S'EventTime'
p1845
S'25841735'
p1846
sg4
L1449910884297L
sS'recordCount'
p1847
g6
sS'EventType'
p1848
S'TYPE_VIEW_ACCESSIBILITY_FOCUS_CLEARED'
p1849
sS'PackageName'
p1850
S'com.taobao.ishopping'
p1851
sS'OutBounds'
p1852
S'Rect(0, 45 - 1080, 42165)'
p1853
sS'Action'
p1854
S'[ ClassName: android.webkit.WebView; Text: []; ContentDescription: null; ItemCount: 0; CurrentItemIndex: 0; IsEnabled: true; IsPassword: false; IsChecked: false; IsFullScreen: false; Scrollable: true; BeforeText: null; FromIndex: -1; ToIndex: -1; ScrollX: 0; ScrollY: 0; MaxScrollX: 0; MaxScrollY: 40419; AddedCount: -1; RemovedCount: -1; ParcelableData: Bundle[mParcelledData.dataSize=488] ]'
p1855
sS'MovementGranularity'
p1856
g6
sa(dp1857
S'EventTime'
p1858
S'25841736'
p1859
sg4
L1449910884322L
sS'recordCount'
p1860
g6
sS'EventType'
p1861
S'TYPE_VIEW_ACCESSIBILITY_FOCUSED'
p1862
sS'PackageName'
p1863
S'com.taobao.ishopping'
p1864
sS'OutBounds'
p1865
S'Rect(0, 45 - 1080, 42165)'
p1866
sS'Action'
p1867
S'[ ClassName: android.webkit.WebView; Text: []; ContentDescription: null; ItemCount: 0; CurrentItemIndex: 0; IsEnabled: true; IsPassword: false; IsChecked: false; IsFullScreen: false; Scrollable: true; BeforeText: null; FromIndex: -1; ToIndex: -1; ScrollX: 0; ScrollY: 0; MaxScrollX: 0; MaxScrollY: 40419; AddedCount: -1; RemovedCount: -1; ParcelableData: Bundle[mParcelledData.dataSize=488] ]'
p1868
sS'MovementGranularity'
p1869
g6
sa(dp1870
S'EventTime'
p1871
S'25841832'
p1872
sg4
L1449910884355L
sS'recordCount'
p1873
g6
sS'EventType'
p1874
S'TYPE_WINDOW_CONTENT_CHANGED'
p1875
sS'PackageName'
p1876
S'com.taobao.ishopping'
p1877
sS'OutBounds'
p1878
S'Rect(0, 45 - 1080, 42165)'
p1879
sS'Action'
p1880
S'[ ClassName: android.webkit.WebView; Text: []; ContentDescription: null; ItemCount: 0; CurrentItemIndex: 0; IsEnabled: true; IsPassword: false; IsChecked: false; IsFullScreen: false; Scrollable: true; BeforeText: null; FromIndex: -1; ToIndex: -1; ScrollX: 0; ScrollY: 0; MaxScrollX: 0; MaxScrollY: 40175; AddedCount: -1; RemovedCount: -1; ParcelableData: Bundle[mParcelledData.dataSize=488] ]'
p1881
sS'MovementGranularity'
p1882
g6
sa(dp1883
S'EventTime'
p1884
S'25841961'
p1885
sg4
L1449910884484L
sS'recordCount'
p1886
g6
sS'EventType'
p1887
S'TYPE_WINDOW_CONTENT_CHANGED'
p1888
sS'PackageName'
p1889
S'com.taobao.ishopping'
p1890
sS'OutBounds'
p1891
S'Rect(0, 75 - 1080, 659)'
p1892
sS'Action'
p1893
S'[ ClassName: android.widget.FrameLayout; Text: []; ContentDescription: null; ItemCount: -1; CurrentItemIndex: -1; IsEnabled: true; IsPassword: false; IsChecked: false; IsFullScreen: false; Scrollable: false; BeforeText: null; FromIndex: -1; ToIndex: -1; ScrollX: -1; ScrollY: -1; MaxScrollX: -1; MaxScrollY: -1; AddedCount: -1; RemovedCount: -1; ParcelableData: null ]'
p1894
sS'MovementGranularity'
p1895
g6
sa(dp1896
S'EventTime'
p1897
S'25842061'
p1898
sg4
L1449910884593L
sS'recordCount'
p1899
g6
sS'EventType'
p1900
S'TYPE_WINDOW_CONTENT_CHANGED'
p1901
sS'PackageName'
p1902
S'com.taobao.ishopping'
p1903
sS'OutBounds'
p1904
S'Rect(0, 75 - 1080, 1776)'
p1905
sS'Action'
p1906
S'[ ClassName: android.support.v7.widget.RecyclerView; Text: []; ContentDescription: null; ItemCount: 5; CurrentItemIndex: -1; IsEnabled: true; IsPassword: false; IsChecked: false; IsFullScreen: false; Scrollable: true; BeforeText: null; FromIndex: 0; ToIndex: 3; ScrollX: -1; ScrollY: -1; MaxScrollX: -1; MaxScrollY: -1; AddedCount: -1; RemovedCount: -1; ParcelableData: null ]'
p1907
sS'MovementGranularity'
p1908
g6
sa(dp1909
S'EventTime'
p1910
S'25842062'
p1911
sg4
L1449910884625L
sS'recordCount'
p1912
g6
sS'EventType'
p1913
S'TYPE_VIEW_SCROLLED'
p1914
sS'PackageName'
p1915
S'com.taobao.ishopping'
p1916
sS'OutBounds'
p1917
S'Rect(0, 75 - 1080, 1776)'
p1918
sS'Action'
p1919
S'[ ClassName: android.support.v7.widget.RecyclerView; Text: []; ContentDescription: null; ItemCount: 5; CurrentItemIndex: -1; IsEnabled: true; IsPassword: false; IsChecked: false; IsFullScreen: false; Scrollable: true; BeforeText: null; FromIndex: 0; ToIndex: 3; ScrollX: -1; ScrollY: -1; MaxScrollX: -1; MaxScrollY: -1; AddedCount: -1; RemovedCount: -1; ParcelableData: null ]'
p1920
sS'MovementGranularity'
p1921
g6
sa(dp1922
S'EventTime'
p1923
S'25842162'
p1924
sg4
L1449910884691L
sS'recordCount'
p1925
g6
sS'EventType'
p1926
S'TYPE_WINDOW_CONTENT_CHANGED'
p1927
sS'PackageName'
p1928
S'com.taobao.ishopping'
p1929
sS'OutBounds'
p1930
S'Rect(0, 75 - 1080, 1776)'
p1931
sS'Action'
p1932
S'[ ClassName: android.support.v7.widget.RecyclerView; Text: []; ContentDescription: null; ItemCount: 5; CurrentItemIndex: -1; IsEnabled: true; IsPassword: false; IsChecked: false; IsFullScreen: false; Scrollable: true; BeforeText: null; FromIndex: 0; ToIndex: 4; ScrollX: -1; ScrollY: -1; MaxScrollX: -1; MaxScrollY: -1; AddedCount: -1; RemovedCount: -1; ParcelableData: null ]'
p1933
sS'MovementGranularity'
p1934
g6
sa(dp1935
S'EventTime'
p1936
S'25842174'
p1937
sg4
L1449910884721L
sS'recordCount'
p1938
g6
sS'EventType'
p1939
S'TYPE_VIEW_SCROLLED'
p1940
sS'PackageName'
p1941
S'com.taobao.ishopping'
p1942
sS'OutBounds'
p1943
S'Rect(0, 75 - 1080, 1776)'
p1944
sS'Action'
p1945
S'[ ClassName: android.support.v7.widget.RecyclerView; Text: []; ContentDescription: null; ItemCount: 5; CurrentItemIndex: -1; IsEnabled: true; IsPassword: false; IsChecked: false; IsFullScreen: false; Scrollable: true; BeforeText: null; FromIndex: 0; ToIndex: 4; ScrollX: -1; ScrollY: -1; MaxScrollX: -1; MaxScrollY: -1; AddedCount: -1; RemovedCount: -1; ParcelableData: null ]'
p1946
sS'MovementGranularity'
p1947
g6
sa(dp1948
S'EventTime'
p1949
S'25842352'
p1950
sg4
L1449910884873L
sS'recordCount'
p1951
g6
sS'EventType'
p1952
S'TYPE_WINDOW_CONTENT_CHANGED'
p1953
sS'PackageName'
p1954
S'com.taobao.ishopping'
p1955
sS'OutBounds'
p1956
S'Rect(0, 45 - 1080, 42165)'
p1957
sS'Action'
p1958
S'[ ClassName: android.webkit.WebView; Text: []; ContentDescription: null; ItemCount: 0; CurrentItemIndex: 0; IsEnabled: true; IsPassword: false; IsChecked: false; IsFullScreen: false; Scrollable: true; BeforeText: null; FromIndex: -1; ToIndex: -1; ScrollX: 0; ScrollY: 0; MaxScrollX: 0; MaxScrollY: 40175; AddedCount: -1; RemovedCount: -1; ParcelableData: Bundle[mParcelledData.dataSize=488] ]'
p1959
sS'MovementGranularity'
p1960
g6
sa(dp1961
S'EventTime'
p1962
S'25842724'
p1963
sg4
L1449910885258L
sS'recordCount'
p1964
g6
sS'EventType'
p1965
S'TYPE_VIEW_SCROLLED'
p1966
sS'PackageName'
p1967
S'com.taobao.ishopping'
p1968
sS'OutBounds'
p1969
S'Rect(0, 75 - 1080, 1776)'
p1970
sS'Action'
p1971
S'[ ClassName: android.support.v4.view.ViewPager; Text: []; ContentDescription: null; ItemCount: -1; CurrentItemIndex: -1; IsEnabled: true; IsPassword: false; IsChecked: false; IsFullScreen: false; Scrollable: false; BeforeText: null; FromIndex: -1; ToIndex: -1; ScrollX: -1; ScrollY: -1; MaxScrollX: -1; MaxScrollY: -1; AddedCount: -1; RemovedCount: -1; ParcelableData: null ]'
p1972
sS'MovementGranularity'
p1973
g6
sa(dp1974
S'EventTime'
p1975
S'25842796'
p1976
sg4
L1449910885334L
sS'recordCount'
p1977
g6
sS'EventType'
p1978
S'TYPE_WINDOW_CONTENT_CHANGED'
p1979
sS'PackageName'
p1980
S'com.taobao.ishopping'
p1981
sS'OutBounds'
p1982
S'Rect(432, 109 - 648, 172)'
p1983
sS'Action'
p1984
S'[ ClassName: android.widget.TextView; Text: []; ContentDescription: null; ItemCount: -1; CurrentItemIndex: -1; IsEnabled: true; IsPassword: false; IsChecked: false; IsFullScreen: false; Scrollable: false; BeforeText: null; FromIndex: -1; ToIndex: -1; ScrollX: -1; ScrollY: -1; MaxScrollX: -1; MaxScrollY: -1; AddedCount: -1; RemovedCount: -1; ParcelableData: null ]'
p1985
sS'MovementGranularity'
p1986
g6
sa(dp1987
S'EventTime'
p1988
S'25842830'
p1989
sg4
L1449910885411L
sS'recordCount'
p1990
g6
sS'EventType'
p1991
S'TYPE_VIEW_SCROLLED'
p1992
sS'PackageName'
p1993
S'com.taobao.ishopping'
p1994
sS'OutBounds'
p1995
S'Rect(0, 75 - 1080, 1776)'
p1996
sS'Action'
p1997
S'[ ClassName: android.support.v4.view.ViewPager; Text: []; ContentDescription: null; ItemCount: -1; CurrentItemIndex: -1; IsEnabled: true; IsPassword: false; IsChecked: false; IsFullScreen: false; Scrollable: false; BeforeText: null; FromIndex: -1; ToIndex: -1; ScrollX: -1; ScrollY: -1; MaxScrollX: -1; MaxScrollY: -1; AddedCount: -1; RemovedCount: -1; ParcelableData: null ]'
p1998
sS'MovementGranularity'
p1999
g6
sa(dp2000
S'EventTime'
p2001
S'25842976'
p2002
sg4
L1449910885760L
sS'recordCount'
p2003
g6
sS'EventType'
p2004
S'TYPE_VIEW_SCROLLED'
p2005
sS'PackageName'
p2006
S'com.taobao.ishopping'
p2007
sS'OutBounds'
p2008
S'Rect(0, 75 - 1080, 1776)'
p2009
sS'Action'
p2010
S'[ ClassName: android.support.v4.view.ViewPager; Text: []; ContentDescription: null; ItemCount: -1; CurrentItemIndex: -1; IsEnabled: true; IsPassword: false; IsChecked: false; IsFullScreen: false; Scrollable: false; BeforeText: null; FromIndex: -1; ToIndex: -1; ScrollX: -1; ScrollY: -1; MaxScrollX: -1; MaxScrollY: -1; AddedCount: -1; RemovedCount: -1; ParcelableData: null ]'
p2011
sS'MovementGranularity'
p2012
g6
sa(dp2013
S'EventTime'
p2014
S'25843474'
p2015
sg4
L1449910886023L
sS'recordCount'
p2016
g6
sS'EventType'
p2017
S'TYPE_VIEW_SCROLLED'
p2018
sS'PackageName'
p2019
S'com.taobao.ishopping'
p2020
sS'OutBounds'
p2021
S'Rect(0, 75 - 1080, 1776)'
p2022
sS'Action'
p2023
S'[ ClassName: android.support.v4.view.ViewPager; Text: []; ContentDescription: null; ItemCount: -1; CurrentItemIndex: -1; IsEnabled: true; IsPassword: false; IsChecked: false; IsFullScreen: false; Scrollable: false; BeforeText: null; FromIndex: -1; ToIndex: -1; ScrollX: -1; ScrollY: -1; MaxScrollX: -1; MaxScrollY: -1; AddedCount: -1; RemovedCount: -1; ParcelableData: null ]'
p2024
sS'MovementGranularity'
p2025
g6
sa(dp2026
S'EventTime'
p2027
S'25843581'
p2028
sg4
L1449910886109L
sS'recordCount'
p2029
g6
sS'EventType'
p2030
S'TYPE_WINDOW_CONTENT_CHANGED'
p2031
sS'PackageName'
p2032
S'com.taobao.ishopping'
p2033
sS'OutBounds'
p2034
S'Rect(884, 1715 - 1034, 1776)'
p2035
sS'Action'
p2036
S'[ ClassName: android.widget.TextView; Text: []; ContentDescription: null; ItemCount: -1; CurrentItemIndex: -1; IsEnabled: true; IsPassword: false; IsChecked: false; IsFullScreen: false; Scrollable: false; BeforeText: null; FromIndex: -1; ToIndex: -1; ScrollX: -1; ScrollY: -1; MaxScrollX: -1; MaxScrollY: -1; AddedCount: -1; RemovedCount: -1; ParcelableData: null ]'
p2037
sS'MovementGranularity'
p2038
g6
sa(dp2039
S'EventTime'
p2040
S'25843606'
p2041
sg4
L1449910886192L
sS'recordCount'
p2042
g6
sS'EventType'
p2043
S'TYPE_VIEW_SCROLLED'
p2044
sS'PackageName'
p2045
S'com.taobao.ishopping'
p2046
sS'OutBounds'
p2047
S'Rect(0, 75 - 1080, 1776)'
p2048
sS'Action'
p2049
S'[ ClassName: android.support.v4.view.ViewPager; Text: []; ContentDescription: null; ItemCount: -1; CurrentItemIndex: -1; IsEnabled: true; IsPassword: false; IsChecked: false; IsFullScreen: false; Scrollable: false; BeforeText: null; FromIndex: -1; ToIndex: -1; ScrollX: -1; ScrollY: -1; MaxScrollX: -1; MaxScrollY: -1; AddedCount: -1; RemovedCount: -1; ParcelableData: null ]'
p2050
sS'MovementGranularity'
p2051
g6
sa(dp2052
S'EventTime'
p2053
S'25843715'
p2054
sg4
L1449910886243L
sS'recordCount'
p2055
g6
sS'EventType'
p2056
S'TYPE_WINDOW_CONTENT_CHANGED'
p2057
sS'PackageName'
p2058
S'com.taobao.ishopping'
p2059
sS'OutBounds'
p2060
S'Rect(875, 711 - 1034, 789)'
p2061
sS'Action'
p2062
S'[ ClassName: android.widget.TextView; Text: []; ContentDescription: null; ItemCount: -1; CurrentItemIndex: -1; IsEnabled: true; IsPassword: false; IsChecked: false; IsFullScreen: false; Scrollable: false; BeforeText: null; FromIndex: -1; ToIndex: -1; ScrollX: -1; ScrollY: -1; MaxScrollX: -1; MaxScrollY: -1; AddedCount: -1; RemovedCount: -1; ParcelableData: null ]'
p2063
sS'MovementGranularity'
p2064
g6
sa(dp2065
S'EventTime'
p2066
S'25843742'
p2067
sg4
L1449910886329L
sS'recordCount'
p2068
g6
sS'EventType'
p2069
S'TYPE_VIEW_SCROLLED'
p2070
sS'PackageName'
p2071
S'com.taobao.ishopping'
p2072
sS'OutBounds'
p2073
S'Rect(0, 75 - 1080, 1776)'
p2074
sS'Action'
p2075
S'[ ClassName: android.support.v4.view.ViewPager; Text: []; ContentDescription: null; ItemCount: -1; CurrentItemIndex: -1; IsEnabled: true; IsPassword: false; IsChecked: false; IsFullScreen: false; Scrollable: false; BeforeText: null; FromIndex: -1; ToIndex: -1; ScrollX: -1; ScrollY: -1; MaxScrollX: -1; MaxScrollY: -1; AddedCount: -1; RemovedCount: -1; ParcelableData: null ]'
p2076
sS'MovementGranularity'
p2077
g6
sa(dp2078
S'EventTime'
p2079
S'25843881'
p2080
sg4
L1449910886420L
sS'recordCount'
p2081
g6
sS'EventType'
p2082
S'TYPE_VIEW_SCROLLED'
p2083
sS'PackageName'
p2084
S'com.taobao.ishopping'
p2085
sS'OutBounds'
p2086
S'Rect(0, 75 - 1080, 1776)'
p2087
sS'Action'
p2088
S'[ ClassName: android.support.v4.view.ViewPager; Text: []; ContentDescription: null; ItemCount: -1; CurrentItemIndex: -1; IsEnabled: true; IsPassword: false; IsChecked: false; IsFullScreen: false; Scrollable: false; BeforeText: null; FromIndex: -1; ToIndex: -1; ScrollX: -1; ScrollY: -1; MaxScrollX: -1; MaxScrollY: -1; AddedCount: -1; RemovedCount: -1; ParcelableData: null ]'
p2089
sS'MovementGranularity'
p2090
g6
sa(dp2091
S'EventTime'
p2092
S'25843982'
p2093
sg4
L1449910886521L
sS'recordCount'
p2094
g6
sS'EventType'
p2095
S'TYPE_VIEW_SCROLLED'
p2096
sS'PackageName'
p2097
S'com.taobao.ishopping'
p2098
sS'OutBounds'
p2099
S'Rect(0, 75 - 1080, 1776)'
p2100
sS'Action'
p2101
S'[ ClassName: android.support.v4.view.ViewPager; Text: []; ContentDescription: null; ItemCount: -1; CurrentItemIndex: -1; IsEnabled: true; IsPassword: false; IsChecked: false; IsFullScreen: false; Scrollable: false; BeforeText: null; FromIndex: -1; ToIndex: -1; ScrollX: -1; ScrollY: -1; MaxScrollX: -1; MaxScrollY: -1; AddedCount: -1; RemovedCount: -1; ParcelableData: null ]'
p2102
sS'MovementGranularity'
p2103
g6
sa(dp2104
S'EventTime'
p2105
S'25844037'
p2106
sg4
L1449910886558L
sS'recordCount'
p2107
g6
sS'EventType'
p2108
S'TYPE_WINDOW_CONTENT_CHANGED'
p2109
sS'PackageName'
p2110
S'com.taobao.ishopping'
p2111
sS'OutBounds'
p2112
S'Rect(884, 1569 - 1034, 1647)'
p2113
sS'Action'
p2114
S'[ ClassName: android.widget.TextView; Text: []; ContentDescription: null; ItemCount: -1; CurrentItemIndex: -1; IsEnabled: true; IsPassword: false; IsChecked: false; IsFullScreen: false; Scrollable: false; BeforeText: null; FromIndex: -1; ToIndex: -1; ScrollX: -1; ScrollY: -1; MaxScrollX: -1; MaxScrollY: -1; AddedCount: -1; RemovedCount: -1; ParcelableData: null ]'
p2115
sS'MovementGranularity'
p2116
g6
sa(dp2117
S'EventTime'
p2118
S'25844102'
p2119
sg4
L1449910886648L
sS'recordCount'
p2120
g6
sS'EventType'
p2121
S'TYPE_VIEW_SCROLLED'
p2122
sS'PackageName'
p2123
S'com.taobao.ishopping'
p2124
sS'OutBounds'
p2125
S'Rect(0, 75 - 1080, 1776)'
p2126
sS'Action'
p2127
S'[ ClassName: android.support.v4.view.ViewPager; Text: []; ContentDescription: null; ItemCount: -1; CurrentItemIndex: -1; IsEnabled: true; IsPassword: false; IsChecked: false; IsFullScreen: false; Scrollable: false; BeforeText: null; FromIndex: -1; ToIndex: -1; ScrollX: -1; ScrollY: -1; MaxScrollX: -1; MaxScrollY: -1; AddedCount: -1; RemovedCount: -1; ParcelableData: null ]'
p2128
sS'MovementGranularity'
p2129
g6
sa(dp2130
S'EventTime'
p2131
S'25844206'
p2132
sg4
L1449910886754L
sS'recordCount'
p2133
g6
sS'EventType'
p2134
S'TYPE_WINDOW_CONTENT_CHANGED'
p2135
sS'PackageName'
p2136
S'com.taobao.ishopping'
p2137
sS'OutBounds'
p2138
S'Rect(884, 1569 - 1034, 1647)'
p2139
sS'Action'
p2140
S'[ ClassName: android.widget.TextView; Text: []; ContentDescription: null; ItemCount: -1; CurrentItemIndex: -1; IsEnabled: true; IsPassword: false; IsChecked: false; IsFullScreen: false; Scrollable: false; BeforeText: null; FromIndex: -1; ToIndex: -1; ScrollX: -1; ScrollY: -1; MaxScrollX: -1; MaxScrollY: -1; AddedCount: -1; RemovedCount: -1; ParcelableData: null ]'
p2141
sS'MovementGranularity'
p2142
g6
sa(dp2143
S'EventTime'
p2144
S'25844327'
p2145
sg4
L1449910886847L
sS'recordCount'
p2146
g6
sS'EventType'
p2147
S'TYPE_WINDOW_CONTENT_CHANGED'
p2148
sS'PackageName'
p2149
S'com.taobao.ishopping'
p2150
sS'OutBounds'
p2151
S'Rect(884, 2010 - 1034, 1776)'
p2152
sS'Action'
p2153
S'[ ClassName: android.widget.TextView; Text: []; ContentDescription: null; ItemCount: -1; CurrentItemIndex: -1; IsEnabled: true; IsPassword: false; IsChecked: false; IsFullScreen: false; Scrollable: false; BeforeText: null; FromIndex: -1; ToIndex: -1; ScrollX: -1; ScrollY: -1; MaxScrollX: -1; MaxScrollY: -1; AddedCount: -1; RemovedCount: -1; ParcelableData: null ]'
p2154
sS'MovementGranularity'
p2155
g6
sa(dp2156
S'EventTime'
p2157
S'25844676'
p2158
sg4
L1449910887197L
sS'recordCount'
p2159
g6
sS'EventType'
p2160
S'TYPE_WINDOW_CONTENT_CHANGED'
p2161
sS'PackageName'
p2162
S'com.taobao.ishopping'
p2163
sS'OutBounds'
p2164
S'Rect(884, 2010 - 1034, 1776)'
p2165
sS'Action'
p2166
S'[ ClassName: android.widget.TextView; Text: []; ContentDescription: null; ItemCount: -1; CurrentItemIndex: -1; IsEnabled: true; IsPassword: false; IsChecked: false; IsFullScreen: false; Scrollable: false; BeforeText: null; FromIndex: -1; ToIndex: -1; ScrollX: -1; ScrollY: -1; MaxScrollX: -1; MaxScrollY: -1; AddedCount: -1; RemovedCount: -1; ParcelableData: null ]'
p2167
sS'MovementGranularity'
p2168
g6
sa(dp2169
S'EventTime'
p2170
S'25844839'
p2171
sg4
L1449910887379L
sS'recordCount'
p2172
g6
sS'EventType'
p2173
S'TYPE_VIEW_CLICKED'
p2174
sS'PackageName'
p2175
S'com.taobao.ishopping'
p2176
sS'OutBounds'
p2177
S'Rect(723, 346 - 1053, 684)'
p2178
sS'Action'
p2179
S'[ ClassName: android.widget.ImageView; Text: []; ContentDescription: null; ItemCount: -1; CurrentItemIndex: -1; IsEnabled: true; IsPassword: false; IsChecked: false; IsFullScreen: false; Scrollable: false; BeforeText: null; FromIndex: -1; ToIndex: -1; ScrollX: -1; ScrollY: -1; MaxScrollX: -1; MaxScrollY: -1; AddedCount: -1; RemovedCount: -1; ParcelableData: null ]'
p2180
sS'MovementGranularity'
p2181
g6
sa(dp2182
S'EventTime'
p2183
S'25845119'
p2184
sg4
L1449910887714L
sS'recordCount'
p2185
g6
sS'EventType'
p2186
S'TYPE_WINDOW_CONTENT_CHANGED'
p2187
sS'PackageName'
p2188
S'com.taobao.ishopping'
p2189
sS'OutBounds'
p2190
S'Rect(884, 2010 - 1034, 1776)'
p2191
sS'Action'
p2192
S'[ ClassName: android.widget.TextView; Text: []; ContentDescription: null; ItemCount: -1; CurrentItemIndex: -1; IsEnabled: true; IsPassword: false; IsChecked: false; IsFullScreen: false; Scrollable: false; BeforeText: null; FromIndex: -1; ToIndex: -1; ScrollX: -1; ScrollY: -1; MaxScrollX: -1; MaxScrollY: -1; AddedCount: -1; RemovedCount: -1; ParcelableData: null ]'
p2193
sS'MovementGranularity'
p2194
g6
sa(dp2195
S'EventTime'
p2196
S'25845227'
p2197
sg4
L1449910887752L
sS'recordCount'
p2198
g6
sS'EventType'
p2199
S'TYPE_WINDOW_STATE_CHANGED'
p2200
sS'PackageName'
p2201
S'com.taobao.ishopping'
p2202
sS'Action'
p2203
S'[ ClassName: android.app.ProgressDialog; Text: [\xe5\x8a\xaa\xe5\x8a\x9b\xe5\x8a\xa0\xe8\xbd\xbd\xe4\xb8\xad]; ContentDescription: null; ItemCount: -1; CurrentItemIndex: -1; IsEnabled: true; IsPassword: false; IsChecked: false; IsFullScreen: false; Scrollable: false; BeforeText: null; FromIndex: -1; ToIndex: -1; ScrollX: -1; ScrollY: -1; MaxScrollX: -1; MaxScrollY: -1; AddedCount: -1; RemovedCount: -1; ParcelableData: null ]'
p2204
sS'MovementGranularity'
p2205
g6
sa(dp2206
S'EventTime'
p2207
S'25845295'
p2208
sg4
L1449910887814L
sS'recordCount'
p2209
g6
sS'EventType'
p2210
S'TYPE_WINDOW_CONTENT_CHANGED'
p2211
sS'PackageName'
p2212
S'com.taobao.ishopping'
p2213
sS'Action'
p2214
S'[ ClassName: android.widget.TextView; Text: []; ContentDescription: null; ItemCount: -1; CurrentItemIndex: -1; IsEnabled: true; IsPassword: false; IsChecked: false; IsFullScreen: false; Scrollable: false; BeforeText: null; FromIndex: -1; ToIndex: -1; ScrollX: -1; ScrollY: -1; MaxScrollX: -1; MaxScrollY: -1; AddedCount: -1; RemovedCount: -1; ParcelableData: null ]'
p2215
sS'MovementGranularity'
p2216
g6
sa(dp2217
S'EventTime'
p2218
S'25845404'
p2219
sg4
L1449910887963L
sS'recordCount'
p2220
g6
sS'EventType'
p2221
S'TYPE_WINDOW_STATE_CHANGED'
p2222
sS'PackageName'
p2223
S'com.taobao.ishopping'
p2224
sS'OutBounds'
p2225
S'Rect(0, 0 - 1080, 1920)'
p2226
sS'Action'
p2227
S'[ ClassName: com.taobao.ishopping.activity.detail.DetailActivity; Text: [\xe7\x88\xb1\xe9\x80\x9b\xe8\xa1\x97]; ContentDescription: null; ItemCount: -1; CurrentItemIndex: -1; IsEnabled: true; IsPassword: false; IsChecked: false; IsFullScreen: true; Scrollable: false; BeforeText: null; FromIndex: -1; ToIndex: -1; ScrollX: -1; ScrollY: -1; MaxScrollX: -1; MaxScrollY: -1; AddedCount: -1; RemovedCount: -1; ParcelableData: null ]'
p2228
sS'MovementGranularity'
p2229
g6
sa(dp2230
S'EventTime'
p2231
S'25845504'
p2232
sg4
L1449910888067L
sS'recordCount'
p2233
g6
sS'EventType'
p2234
S'TYPE_VIEW_SCROLLED'
p2235
sS'PackageName'
p2236
S'com.taobao.ishopping'
p2237
sS'OutBounds'
p2238
S'Rect(0, 99 - 1080, 1776)'
p2239
sS'Action'
p2240
S'[ ClassName: android.support.v7.widget.RecyclerView; Text: []; ContentDescription: null; ItemCount: 4; CurrentItemIndex: -1; IsEnabled: true; IsPassword: false; IsChecked: false; IsFullScreen: false; Scrollable: false; BeforeText: null; FromIndex: 0; ToIndex: 3; ScrollX: -1; ScrollY: -1; MaxScrollX: -1; MaxScrollY: -1; AddedCount: -1; RemovedCount: -1; ParcelableData: null ]'
p2241
sS'MovementGranularity'
p2242
g6
sa(dp2243
S'EventTime'
p2244
S'25845769'
p2245
sg4
L1449910888304L
sS'recordCount'
p2246
g6
sS'EventType'
p2247
S'TYPE_VIEW_FOCUSED'
p2248
sS'PackageName'
p2249
S'com.taobao.ishopping'
p2250
sS'OutBounds'
p2251
S'Rect(0, 45 - 1080, 25965)'
p2252
sS'Action'
p2253
S'[ ClassName: android.webkit.WebView; Text: []; ContentDescription: null; ItemCount: 0; CurrentItemIndex: 0; IsEnabled: true; IsPassword: false; IsChecked: false; IsFullScreen: false; Scrollable: true; BeforeText: null; FromIndex: -1; ToIndex: -1; ScrollX: 0; ScrollY: 0; MaxScrollX: 0; MaxScrollY: 24219; AddedCount: -1; RemovedCount: -1; ParcelableData: Bundle[mParcelledData.dataSize=488] ]'
p2254
sS'MovementGranularity'
p2255
g6
sa(dp2256
S'EventTime'
p2257
S'25845774'
p2258
sg4
L1449910888329L
sS'recordCount'
p2259
g6
sS'EventType'
p2260
S'TYPE_VIEW_ACCESSIBILITY_FOCUS_CLEARED'
p2261
sS'PackageName'
p2262
S'com.taobao.ishopping'
p2263
sS'OutBounds'
p2264
S'Rect(0, 45 - 1080, 25965)'
p2265
sS'Action'
p2266
S'[ ClassName: android.webkit.WebView; Text: []; ContentDescription: null; ItemCount: 0; CurrentItemIndex: 0; IsEnabled: true; IsPassword: false; IsChecked: false; IsFullScreen: false; Scrollable: true; BeforeText: null; FromIndex: -1; ToIndex: -1; ScrollX: 0; ScrollY: 0; MaxScrollX: 0; MaxScrollY: 24219; AddedCount: -1; RemovedCount: -1; ParcelableData: Bundle[mParcelledData.dataSize=488] ]'
p2267
sS'MovementGranularity'
p2268
g6
sa(dp2269
S'EventTime'
p2270
S'25845775'
p2271
sg4
L1449910888349L
sS'recordCount'
p2272
g6
sS'EventType'
p2273
S'TYPE_VIEW_ACCESSIBILITY_FOCUSED'
p2274
sS'PackageName'
p2275
S'com.taobao.ishopping'
p2276
sS'OutBounds'
p2277
S'Rect(0, 45 - 1080, 25965)'
p2278
sS'Action'
p2279
S'[ ClassName: android.webkit.WebView; Text: []; ContentDescription: null; ItemCount: 0; CurrentItemIndex: 0; IsEnabled: true; IsPassword: false; IsChecked: false; IsFullScreen: false; Scrollable: true; BeforeText: null; FromIndex: -1; ToIndex: -1; ScrollX: 0; ScrollY: 0; MaxScrollX: 0; MaxScrollY: 24219; AddedCount: -1; RemovedCount: -1; ParcelableData: Bundle[mParcelledData.dataSize=488] ]'
p2280
sS'MovementGranularity'
p2281
g6
sa(dp2282
S'EventTime'
p2283
S'25845965'
p2284
sg4
L1449910888488L
sS'recordCount'
p2285
g6
sS'EventType'
p2286
S'TYPE_WINDOW_CONTENT_CHANGED'
p2287
sS'PackageName'
p2288
S'com.taobao.ishopping'
p2289
sS'OutBounds'
p2290
S'Rect(810, 1776 - 1080, 1920)'
p2291
sS'Action'
p2292
S'[ ClassName: android.widget.TextView; Text: []; ContentDescription: null; ItemCount: -1; CurrentItemIndex: -1; IsEnabled: true; IsPassword: false; IsChecked: false; IsFullScreen: false; Scrollable: false; BeforeText: null; FromIndex: -1; ToIndex: -1; ScrollX: -1; ScrollY: -1; MaxScrollX: -1; MaxScrollY: -1; AddedCount: -1; RemovedCount: -1; ParcelableData: null ]'
p2293
sS'MovementGranularity'
p2294
g6
sa(dp2295
S'EventTime'
p2296
S'25846314'
p2297
sg4
L1449910888836L
sS'recordCount'
p2298
g6
sS'EventType'
p2299
S'TYPE_WINDOW_CONTENT_CHANGED'
p2300
sS'PackageName'
p2301
S'com.taobao.ishopping'
p2302
sS'OutBounds'
p2303
S'Rect(0, 45 - 1080, 25965)'
p2304
sS'Action'
p2305
S'[ ClassName: android.webkit.WebView; Text: []; ContentDescription: null; ItemCount: 0; CurrentItemIndex: 0; IsEnabled: true; IsPassword: false; IsChecked: false; IsFullScreen: false; Scrollable: true; BeforeText: null; FromIndex: -1; ToIndex: -1; ScrollX: 0; ScrollY: 0; MaxScrollX: 0; MaxScrollY: 24219; AddedCount: -1; RemovedCount: -1; ParcelableData: Bundle[mParcelledData.dataSize=488] ]'
p2306
sS'MovementGranularity'
p2307
g6
sa(dp2308
S'EventTime'
p2309
S'25846557'
p2310
sg4
L1449910889099L
sS'recordCount'
p2311
g6
sS'EventType'
p2312
S'TYPE_WINDOW_CONTENT_CHANGED'
p2313
sS'PackageName'
p2314
S'com.taobao.ishopping'
p2315
sS'OutBounds'
p2316
S'Rect(432, 109 - 648, 172)'
p2317
sS'Action'
p2318
S'[ ClassName: android.widget.TextView; Text: []; ContentDescription: null; ItemCount: -1; CurrentItemIndex: -1; IsEnabled: true; IsPassword: false; IsChecked: false; IsFullScreen: false; Scrollable: false; BeforeText: null; FromIndex: -1; ToIndex: -1; ScrollX: -1; ScrollY: -1; MaxScrollX: -1; MaxScrollY: -1; AddedCount: -1; RemovedCount: -1; ParcelableData: null ]'
p2319
sS'MovementGranularity'
p2320
g6
sa(dp2321
S'EventTime'
p2322
S'25846563'
p2323
sg4
L1449910889154L
sS'recordCount'
p2324
g6
sS'EventType'
p2325
S'TYPE_VIEW_SCROLLED'
p2326
sS'PackageName'
p2327
S'com.taobao.ishopping'
p2328
sS'OutBounds'
p2329
S'Rect(0, 75 - 1080, 1776)'
p2330
sS'Action'
p2331
S'[ ClassName: android.support.v4.view.ViewPager; Text: []; ContentDescription: null; ItemCount: -1; CurrentItemIndex: -1; IsEnabled: true; IsPassword: false; IsChecked: false; IsFullScreen: false; Scrollable: false; BeforeText: null; FromIndex: -1; ToIndex: -1; ScrollX: -1; ScrollY: -1; MaxScrollX: -1; MaxScrollY: -1; AddedCount: -1; RemovedCount: -1; ParcelableData: null ]'
p2332
sS'MovementGranularity'
p2333
g6
sa(dp2334
S'EventTime'
p2335
S'25846682'
p2336
sg4
L1449910889220L
sS'recordCount'
p2337
g6
sS'EventType'
p2338
S'TYPE_VIEW_SCROLLED'
p2339
sS'PackageName'
p2340
S'com.taobao.ishopping'
p2341
sS'OutBounds'
p2342
S'Rect(0, 75 - 1080, 1776)'
p2343
sS'Action'
p2344
S'[ ClassName: android.support.v4.view.ViewPager; Text: []; ContentDescription: null; ItemCount: -1; CurrentItemIndex: -1; IsEnabled: true; IsPassword: false; IsChecked: false; IsFullScreen: false; Scrollable: false; BeforeText: null; FromIndex: -1; ToIndex: -1; ScrollX: -1; ScrollY: -1; MaxScrollX: -1; MaxScrollY: -1; AddedCount: -1; RemovedCount: -1; ParcelableData: null ]'
p2345
sS'MovementGranularity'
p2346
g6
sa(dp2347
S'EventTime'
p2348
S'25846801'
p2349
sg4
L1449910889498L
sS'recordCount'
p2350
g6
sS'EventType'
p2351
S'TYPE_VIEW_SCROLLED'
p2352
sS'PackageName'
p2353
S'com.taobao.ishopping'
p2354
sS'OutBounds'
p2355
S'Rect(0, 75 - 1080, 1776)'
p2356
sS'Action'
p2357
S'[ ClassName: android.support.v4.view.ViewPager; Text: []; ContentDescription: null; ItemCount: -1; CurrentItemIndex: -1; IsEnabled: true; IsPassword: false; IsChecked: false; IsFullScreen: false; Scrollable: false; BeforeText: null; FromIndex: -1; ToIndex: -1; ScrollX: -1; ScrollY: -1; MaxScrollX: -1; MaxScrollY: -1; AddedCount: -1; RemovedCount: -1; ParcelableData: null ]'
p2358
sS'MovementGranularity'
p2359
g6
sa(dp2360
S'EventTime'
p2361
S'25847150'
p2362
sg4
L1449910889687L
sS'recordCount'
p2363
g6
sS'EventType'
p2364
S'TYPE_VIEW_SCROLLED'
p2365
sS'PackageName'
p2366
S'com.taobao.ishopping'
p2367
sS'OutBounds'
p2368
S'Rect(0, 207 - 1080, 1776)'
p2369
sS'Action'
p2370
S'[ ClassName: android.support.v7.widget.RecyclerView; Text: []; ContentDescription: null; ItemCount: 10; CurrentItemIndex: -1; IsEnabled: true; IsPassword: false; IsChecked: false; IsFullScreen: false; Scrollable: true; BeforeText: null; FromIndex: 0; ToIndex: 4; ScrollX: -1; ScrollY: -1; MaxScrollX: -1; MaxScrollY: -1; AddedCount: -1; RemovedCount: -1; ParcelableData: null ]'
p2371
sS'MovementGranularity'
p2372
g6
sa(dp2373
S'EventTime'
p2374
S'25847544'
p2375
sg4
L1449910890097L
sS'recordCount'
p2376
g6
sS'EventType'
p2377
S'TYPE_WINDOW_CONTENT_CHANGED'
p2378
sS'PackageName'
p2379
S'com.taobao.ishopping'
p2380
sS'OutBounds'
p2381
S'Rect(857, 687 - 1034, 765)'
p2382
sS'Action'
p2383
S'[ ClassName: android.widget.TextView; Text: []; ContentDescription: null; ItemCount: -1; CurrentItemIndex: -1; IsEnabled: true; IsPassword: false; IsChecked: false; IsFullScreen: false; Scrollable: false; BeforeText: null; FromIndex: -1; ToIndex: -1; ScrollX: -1; ScrollY: -1; MaxScrollX: -1; MaxScrollY: -1; AddedCount: -1; RemovedCount: -1; ParcelableData: null ]'
p2384
sS'MovementGranularity'
p2385
g6
sa(dp2386
S'EventTime'
p2387
S'25847782'
p2388
sg4
L1449910890303L
sS'recordCount'
p2389
g6
sS'EventType'
p2390
S'TYPE_WINDOW_CONTENT_CHANGED'
p2391
sS'PackageName'
p2392
S'com.taobao.ishopping'
p2393
sS'OutBounds'
p2394
S'Rect(857, 687 - 1034, 765)'
p2395
sS'Action'
p2396
S'[ ClassName: android.widget.TextView; Text: []; ContentDescription: null; ItemCount: -1; CurrentItemIndex: -1; IsEnabled: true; IsPassword: false; IsChecked: false; IsFullScreen: false; Scrollable: false; BeforeText: null; FromIndex: -1; ToIndex: -1; ScrollX: -1; ScrollY: -1; MaxScrollX: -1; MaxScrollY: -1; AddedCount: -1; RemovedCount: -1; ParcelableData: null ]'
p2397
sS'MovementGranularity'
p2398
g6
sa(dp2399
S'EventTime'
p2400
S'25848103'
p2401
sg4
L1449910890712L
sS'recordCount'
p2402
g6
sS'EventType'
p2403
S'TYPE_WINDOW_CONTENT_CHANGED'
p2404
sS'PackageName'
p2405
S'com.taobao.ishopping'
p2406
sS'OutBounds'
p2407
S'Rect(857, 1128 - 1034, 1206)'
p2408
sS'Action'
p2409
S'[ ClassName: android.widget.TextView; Text: []; ContentDescription: null; ItemCount: -1; CurrentItemIndex: -1; IsEnabled: true; IsPassword: false; IsChecked: false; IsFullScreen: false; Scrollable: false; BeforeText: null; FromIndex: -1; ToIndex: -1; ScrollX: -1; ScrollY: -1; MaxScrollX: -1; MaxScrollY: -1; AddedCount: -1; RemovedCount: -1; ParcelableData: null ]'
p2410
sS'MovementGranularity'
p2411
g6
sa(dp2412
S'EventTime'
p2413
S'25848160'
p2414
sg4
L1449910890958L
sS'recordCount'
p2415
g6
sS'EventType'
p2416
S'TYPE_VIEW_CLICKED'
p2417
sS'PackageName'
p2418
S'com.taobao.ishopping'
p2419
sS'OutBounds'
p2420
S'Rect(375, 787 - 705, 1125)'
p2421
sS'Action'
p2422
S'[ ClassName: android.widget.ImageView; Text: []; ContentDescription: null; ItemCount: -1; CurrentItemIndex: -1; IsEnabled: true; IsPassword: false; IsChecked: false; IsFullScreen: false; Scrollable: false; BeforeText: null; FromIndex: -1; ToIndex: -1; ScrollX: -1; ScrollY: -1; MaxScrollX: -1; MaxScrollY: -1; AddedCount: -1; RemovedCount: -1; ParcelableData: null ]'
p2423
sS'MovementGranularity'
p2424
g6
sa(dp2425
S'EventTime'
p2426
S'25848527'
p2427
sg4
L1449910891049L
sS'recordCount'
p2428
g6
sS'EventType'
p2429
S'TYPE_WINDOW_STATE_CHANGED'
p2430
sS'PackageName'
p2431
S'com.taobao.ishopping'
p2432
sS'Action'
p2433
S'[ ClassName: android.app.ProgressDialog; Text: [\xe5\x8a\xaa\xe5\x8a\x9b\xe5\x8a\xa0\xe8\xbd\xbd\xe4\xb8\xad]; ContentDescription: null; ItemCount: -1; CurrentItemIndex: -1; IsEnabled: true; IsPassword: false; IsChecked: false; IsFullScreen: false; Scrollable: false; BeforeText: null; FromIndex: -1; ToIndex: -1; ScrollX: -1; ScrollY: -1; MaxScrollX: -1; MaxScrollY: -1; AddedCount: -1; RemovedCount: -1; ParcelableData: null ]'
p2434
sS'MovementGranularity'
p2435
g6
sa(dp2436
S'EventTime'
p2437
S'25848608'
p2438
sg4
L1449910891126L
sS'recordCount'
p2439
g6
sS'EventType'
p2440
S'TYPE_WINDOW_CONTENT_CHANGED'
p2441
sS'PackageName'
p2442
S'com.taobao.ishopping'
p2443
sS'Action'
p2444
S'[ ClassName: android.widget.TextView; Text: []; ContentDescription: null; ItemCount: -1; CurrentItemIndex: -1; IsEnabled: true; IsPassword: false; IsChecked: false; IsFullScreen: false; Scrollable: false; BeforeText: null; FromIndex: -1; ToIndex: -1; ScrollX: -1; ScrollY: -1; MaxScrollX: -1; MaxScrollY: -1; AddedCount: -1; RemovedCount: -1; ParcelableData: null ]'
p2445
sS'MovementGranularity'
p2446
g6
sa(dp2447
S'EventTime'
p2448
S'25848759'
p2449
sg4
L1449910891341L
sS'recordCount'
p2450
g6
sS'EventType'
p2451
S'TYPE_WINDOW_STATE_CHANGED'
p2452
sS'PackageName'
p2453
S'com.taobao.ishopping'
p2454
sS'OutBounds'
p2455
S'Rect(0, 0 - 1080, 1920)'
p2456
sS'Action'
p2457
S'[ ClassName: com.taobao.ishopping.activity.detail.DetailActivity; Text: [\xe7\x88\xb1\xe9\x80\x9b\xe8\xa1\x97]; ContentDescription: null; ItemCount: -1; CurrentItemIndex: -1; IsEnabled: true; IsPassword: false; IsChecked: false; IsFullScreen: true; Scrollable: false; BeforeText: null; FromIndex: -1; ToIndex: -1; ScrollX: -1; ScrollY: -1; MaxScrollX: -1; MaxScrollY: -1; AddedCount: -1; RemovedCount: -1; ParcelableData: null ]'
p2458
sS'MovementGranularity'
p2459
g6
sa(dp2460
S'EventTime'
p2461
S'25848870'
p2462
sg4
L1449910891440L
sS'recordCount'
p2463
g6
sS'EventType'
p2464
S'TYPE_VIEW_SCROLLED'
p2465
sS'PackageName'
p2466
S'com.taobao.ishopping'
p2467
sS'OutBounds'
p2468
S'Rect(0, 80 - 1080, 1776)'
p2469
sS'Action'
p2470
S'[ ClassName: android.support.v7.widget.RecyclerView; Text: []; ContentDescription: null; ItemCount: 5; CurrentItemIndex: -1; IsEnabled: true; IsPassword: false; IsChecked: false; IsFullScreen: false; Scrollable: true; BeforeText: null; FromIndex: 0; ToIndex: 3; ScrollX: -1; ScrollY: -1; MaxScrollX: -1; MaxScrollY: -1; AddedCount: -1; RemovedCount: -1; ParcelableData: null ]'
p2471
sS'MovementGranularity'
p2472
g6
sa(dp2473
S'EventTime'
p2474
S'25849090'
p2475
sg4
L1449910891642L
sS'recordCount'
p2476
g6
sS'EventType'
p2477
S'TYPE_VIEW_FOCUSED'
p2478
sS'PackageName'
p2479
S'com.taobao.ishopping'
p2480
sS'OutBounds'
p2481
S'Rect(0, 45 - 1080, 25965)'
p2482
sS'Action'
p2483
S'[ ClassName: android.webkit.WebView; Text: []; ContentDescription: null; ItemCount: 0; CurrentItemIndex: 0; IsEnabled: true; IsPassword: false; IsChecked: false; IsFullScreen: false; Scrollable: true; BeforeText: null; FromIndex: -1; ToIndex: -1; ScrollX: 0; ScrollY: 0; MaxScrollX: 0; MaxScrollY: 24219; AddedCount: -1; RemovedCount: -1; ParcelableData: Bundle[mParcelledData.dataSize=488] ]'
p2484
sS'MovementGranularity'
p2485
g6
sa(dp2486
S'EventTime'
p2487
S'25849096'
p2488
sg4
L1449910891676L
sS'recordCount'
p2489
g6
sS'EventType'
p2490
S'TYPE_VIEW_ACCESSIBILITY_FOCUS_CLEARED'
p2491
sS'PackageName'
p2492
S'com.taobao.ishopping'
p2493
sS'OutBounds'
p2494
S'Rect(0, 45 - 1080, 25965)'
p2495
sS'Action'
p2496
S'[ ClassName: android.webkit.WebView; Text: []; ContentDescription: null; ItemCount: 0; CurrentItemIndex: 0; IsEnabled: true; IsPassword: false; IsChecked: false; IsFullScreen: false; Scrollable: true; BeforeText: null; FromIndex: -1; ToIndex: -1; ScrollX: 0; ScrollY: 0; MaxScrollX: 0; MaxScrollY: 24219; AddedCount: -1; RemovedCount: -1; ParcelableData: Bundle[mParcelledData.dataSize=488] ]'
p2497
sS'MovementGranularity'
p2498
g6
sa(dp2499
S'EventTime'
p2500
S'25849097'
p2501
sg4
L1449910891698L
sS'recordCount'
p2502
g6
sS'EventType'
p2503
S'TYPE_VIEW_ACCESSIBILITY_FOCUSED'
p2504
sS'PackageName'
p2505
S'com.taobao.ishopping'
p2506
sS'OutBounds'
p2507
S'Rect(0, 45 - 1080, 25965)'
p2508
sS'Action'
p2509
S'[ ClassName: android.webkit.WebView; Text: []; ContentDescription: null; ItemCount: 0; CurrentItemIndex: 0; IsEnabled: true; IsPassword: false; IsChecked: false; IsFullScreen: false; Scrollable: true; BeforeText: null; FromIndex: -1; ToIndex: -1; ScrollX: 0; ScrollY: 0; MaxScrollX: 0; MaxScrollY: 24219; AddedCount: -1; RemovedCount: -1; ParcelableData: Bundle[mParcelledData.dataSize=488] ]'
p2510
sS'MovementGranularity'
p2511
g6
sa(dp2512
S'EventTime'
p2513
S'25849275'
p2514
sg4
L1449910891795L
sS'recordCount'
p2515
g6
sS'EventType'
p2516
S'TYPE_WINDOW_CONTENT_CHANGED'
p2517
sS'PackageName'
p2518
S'com.taobao.ishopping'
p2519
sS'OutBounds'
p2520
S'Rect(810, 1776 - 1080, 1920)'
p2521
sS'Action'
p2522
S'[ ClassName: android.widget.TextView; Text: []; ContentDescription: null; ItemCount: -1; CurrentItemIndex: -1; IsEnabled: true; IsPassword: false; IsChecked: false; IsFullScreen: false; Scrollable: false; BeforeText: null; FromIndex: -1; ToIndex: -1; ScrollX: -1; ScrollY: -1; MaxScrollX: -1; MaxScrollY: -1; AddedCount: -1; RemovedCount: -1; ParcelableData: null ]'
p2523
sS'MovementGranularity'
p2524
g6
sa(dp2525
S'EventTime'
p2526
S'25849658'
p2527
sg4
L1449910892187L
sS'recordCount'
p2528
g6
sS'EventType'
p2529
S'TYPE_WINDOW_CONTENT_CHANGED'
p2530
sS'PackageName'
p2531
S'com.taobao.ishopping'
p2532
sS'OutBounds'
p2533
S'Rect(0, 45 - 1080, 25965)'
p2534
sS'Action'
p2535
S'[ ClassName: android.webkit.WebView; Text: []; ContentDescription: null; ItemCount: 0; CurrentItemIndex: 0; IsEnabled: true; IsPassword: false; IsChecked: false; IsFullScreen: false; Scrollable: true; BeforeText: null; FromIndex: -1; ToIndex: -1; ScrollX: 0; ScrollY: 0; MaxScrollX: 0; MaxScrollY: 24219; AddedCount: -1; RemovedCount: -1; ParcelableData: Bundle[mParcelledData.dataSize=488] ]'
p2536
sS'MovementGranularity'
p2537
g6
sa(dp2538
S'EventTime'
p2539
S'25851183'
p2540
sg4
L1449910893718L
sS'recordCount'
p2541
g6
sS'EventType'
p2542
S'TYPE_VIEW_SCROLLED'
p2543
sS'PackageName'
p2544
S'com.taobao.ishopping'
p2545
sS'OutBounds'
p2546
S'Rect(0, 75 - 1080, 1776)'
p2547
sS'Action'
p2548
S'[ ClassName: android.support.v7.widget.RecyclerView; Text: []; ContentDescription: null; ItemCount: 5; CurrentItemIndex: -1; IsEnabled: true; IsPassword: false; IsChecked: false; IsFullScreen: false; Scrollable: true; BeforeText: null; FromIndex: 0; ToIndex: 3; ScrollX: -1; ScrollY: -1; MaxScrollX: -1; MaxScrollY: -1; AddedCount: -1; RemovedCount: -1; ParcelableData: null ]'
p2549
sS'MovementGranularity'
p2550
g6
sa(dp2551
S'EventTime'
p2552
S'25851299'
p2553
sg4
L1449910893831L
sS'recordCount'
p2554
g6
sS'EventType'
p2555
S'TYPE_VIEW_SCROLLED'
p2556
sS'PackageName'
p2557
S'com.taobao.ishopping'
p2558
sS'OutBounds'
p2559
S'Rect(0, 75 - 1080, 1776)'
p2560
sS'Action'
p2561
S'[ ClassName: android.support.v7.widget.RecyclerView; Text: []; ContentDescription: null; ItemCount: 5; CurrentItemIndex: -1; IsEnabled: true; IsPassword: false; IsChecked: false; IsFullScreen: false; Scrollable: true; BeforeText: null; FromIndex: 0; ToIndex: 4; ScrollX: -1; ScrollY: -1; MaxScrollX: -1; MaxScrollY: -1; AddedCount: -1; RemovedCount: -1; ParcelableData: null ]'
p2562
sS'MovementGranularity'
p2563
g6
sa(dp2564
S'EventTime'
p2565
S'25851377'
p2566
sg4
L1449910893909L
sS'recordCount'
p2567
g6
sS'EventType'
p2568
S'TYPE_WINDOW_CONTENT_CHANGED'
p2569
sS'PackageName'
p2570
S'com.taobao.ishopping'
p2571
sS'OutBounds'
p2572
S'Rect(0, 75 - 1080, 1776)'
p2573
sS'Action'
p2574
S'[ ClassName: android.support.v7.widget.RecyclerView; Text: []; ContentDescription: null; ItemCount: 5; CurrentItemIndex: -1; IsEnabled: true; IsPassword: false; IsChecked: false; IsFullScreen: false; Scrollable: true; BeforeText: null; FromIndex: 0; ToIndex: 4; ScrollX: -1; ScrollY: -1; MaxScrollX: -1; MaxScrollY: -1; AddedCount: -1; RemovedCount: -1; ParcelableData: null ]'
p2575
sS'MovementGranularity'
p2576
g6
sa(dp2577
S'EventTime'
p2578
S'25852096'
p2579
sg4
L1449910894656L
sS'recordCount'
p2580
g6
sS'EventType'
p2581
S'TYPE_VIEW_CLICKED'
p2582
sS'PackageName'
p2583
S'com.taobao.ishopping'
p2584
sS'OutBounds'
p2585
S'Rect(0, 1104 - 1080, 1637)'
p2586
sS'Action'
p2587
S'[ ClassName: android.widget.LinearLayout; Text: [\xe6\x9d\xa5\xe8\x87\xaa\xe7\xbe\xa4\xe7\xbb\x84, \xee\x98\x92, \xe8\xa1\x97\xe5\xa4\xb4\xe6\xb7\xb7\xe6\x90\xad, 3\xe6\x88\x90\xe5\x91\x98, \xea\x81\xaa]; ContentDescription: null; ItemCount: -1; CurrentItemIndex: -1; IsEnabled: true; IsPassword: false; IsChecked: false; IsFullScreen: false; Scrollable: false; BeforeText: null; FromIndex: -1; ToIndex: -1; ScrollX: -1; ScrollY: -1; MaxScrollX: -1; MaxScrollY: -1; AddedCount: -1; RemovedCount: -1; ParcelableData: null ]'
p2588
sS'MovementGranularity'
p2589
g6
sa(dp2590
S'EventTime'
p2591
S'25852236'
p2592
sg4
L1449910894757L
sS'recordCount'
p2593
g6
sS'EventType'
p2594
S'TYPE_WINDOW_STATE_CHANGED'
p2595
sS'PackageName'
p2596
S'com.taobao.ishopping'
p2597
sS'OutBounds'
p2598
S'Rect(0, 0 - 1080, 1920)'
p2599
sS'Action'
p2600
S'[ ClassName: com.taobao.ishopping.thirdparty.windvane.HybridWVActivity; Text: [\xe7\x88\xb1\xe9\x80\x9b\xe8\xa1\x97]; ContentDescription: null; ItemCount: -1; CurrentItemIndex: -1; IsEnabled: true; IsPassword: false; IsChecked: false; IsFullScreen: true; Scrollable: false; BeforeText: null; FromIndex: -1; ToIndex: -1; ScrollX: -1; ScrollY: -1; MaxScrollX: -1; MaxScrollY: -1; AddedCount: -1; RemovedCount: -1; ParcelableData: null ]'
p2601
sS'MovementGranularity'
p2602
g6
sa(dp2603
S'EventTime'
p2604
S'25852277'
p2605
sg4
L1449910894838L
sS'recordCount'
p2606
g6
sS'EventType'
p2607
S'TYPE_WINDOW_CONTENT_CHANGED'
p2608
sS'PackageName'
p2609
S'com.taobao.ishopping'
p2610
sS'OutBounds'
p2611
S'Rect(0, 75 - 168, 207)'
p2612
sS'Action'
p2613
S'[ ClassName: android.widget.ImageButton; Text: []; ContentDescription: \xe8\xbd\xac\xe5\x88\xb0\xe4\xb8\x8a\xe4\xb8\x80\xe5\xb1\x82\xe7\xba\xa7; ItemCount: -1; CurrentItemIndex: -1; IsEnabled: true; IsPassword: false; IsChecked: false; IsFullScreen: false; Scrollable: false; BeforeText: null; FromIndex: -1; ToIndex: -1; ScrollX: -1; ScrollY: -1; MaxScrollX: -1; MaxScrollY: -1; AddedCount: -1; RemovedCount: -1; ParcelableData: null ]'
p2614
sS'MovementGranularity'
p2615
g6
sa(dp2616
S'EventTime'
p2617
S'25852398'
p2618
sg4
L1449910894921L
sS'recordCount'
p2619
g6
sS'EventType'
p2620
S'TYPE_WINDOW_CONTENT_CHANGED'
p2621
sS'PackageName'
p2622
S'com.taobao.ishopping'
p2623
sS'OutBounds'
p2624
S'Rect(0, 207 - 1080, 1920)'
p2625
sS'Action'
p2626
S'[ ClassName: com.android.org.chromium.content.browser.ContentViewCore; Text: []; ContentDescription: null; ItemCount: -1; CurrentItemIndex: -1; IsEnabled: true; IsPassword: false; IsChecked: false; IsFullScreen: false; Scrollable: false; BeforeText: null; FromIndex: -1; ToIndex: -1; ScrollX: 0; ScrollY: 0; MaxScrollX: 0; MaxScrollY: 0; AddedCount: -1; RemovedCount: -1; ParcelableData: null ]'
p2627
sS'MovementGranularity'
p2628
g6
sa(dp2629
S'EventTime'
p2630
S'25852583'
p2631
sg4
L1449910895105L
sS'recordCount'
p2632
g6
sS'EventType'
p2633
S'TYPE_WINDOW_CONTENT_CHANGED'
p2634
sS'PackageName'
p2635
S'com.taobao.ishopping'
p2636
sS'OutBounds'
p2637
S'Rect(0, 207 - 1080, 1920)'
p2638
sS'Action'
p2639
S'[ ClassName: com.android.org.chromium.content.browser.ContentViewCore; Text: []; ContentDescription: null; ItemCount: -1; CurrentItemIndex: -1; IsEnabled: true; IsPassword: false; IsChecked: false; IsFullScreen: false; Scrollable: false; BeforeText: null; FromIndex: -1; ToIndex: -1; ScrollX: 0; ScrollY: 0; MaxScrollX: 0; MaxScrollY: 0; AddedCount: -1; RemovedCount: -1; ParcelableData: null ]'
p2640
sS'MovementGranularity'
p2641
g6
sa(dp2642
S'EventTime'
p2643
S'25852721'
p2644
sg4
L1449910895244L
sS'recordCount'
p2645
g6
sS'EventType'
p2646
S'TYPE_VIEW_FOCUSED'
p2647
sS'PackageName'
p2648
S'com.taobao.ishopping'
p2649
sS'OutBounds'
p2650
S'Rect(0, 207 - 1080, 1920)'
p2651
sS'Action'
p2652
S'[ ClassName: android.webkit.WebView; Text: []; ContentDescription: null; ItemCount: 0; CurrentItemIndex: 0; IsEnabled: true; IsPassword: false; IsChecked: false; IsFullScreen: false; Scrollable: true; BeforeText: null; FromIndex: -1; ToIndex: -1; ScrollX: 0; ScrollY: 0; MaxScrollX: 0; MaxScrollY: 0; AddedCount: -1; RemovedCount: -1; ParcelableData: Bundle[mParcelledData.dataSize=488] ]'
p2653
sS'MovementGranularity'
p2654
g6
sa(dp2655
S'EventTime'
p2656
S'25852722'
p2657
sg4
L1449910895256L
sS'recordCount'
p2658
g6
sS'EventType'
p2659
S'TYPE_VIEW_ACCESSIBILITY_FOCUSED'
p2660
sS'PackageName'
p2661
S'com.taobao.ishopping'
p2662
sS'OutBounds'
p2663
S'Rect(0, 207 - 1080, 1920)'
p2664
sS'Action'
p2665
S'[ ClassName: android.webkit.WebView; Text: []; ContentDescription: null; ItemCount: 0; CurrentItemIndex: 0; IsEnabled: true; IsPassword: false; IsChecked: false; IsFullScreen: false; Scrollable: true; BeforeText: null; FromIndex: -1; ToIndex: -1; ScrollX: 0; ScrollY: 0; MaxScrollX: 0; MaxScrollY: 0; AddedCount: -1; RemovedCount: -1; ParcelableData: Bundle[mParcelledData.dataSize=488] ]'
p2666
sS'MovementGranularity'
p2667
g6
sa(dp2668
S'EventTime'
p2669
S'25852836'
p2670
sg4
L1449910895356L
sS'recordCount'
p2671
g6
sS'EventType'
p2672
S'TYPE_WINDOW_CONTENT_CHANGED'
p2673
sS'PackageName'
p2674
S'com.taobao.ishopping'
p2675
sS'OutBounds'
p2676
S'Rect(0, 207 - 1080, 1920)'
p2677
sS'Action'
p2678
S'[ ClassName: android.webkit.WebView; Text: []; ContentDescription: null; ItemCount: 0; CurrentItemIndex: 0; IsEnabled: true; IsPassword: false; IsChecked: false; IsFullScreen: false; Scrollable: true; BeforeText: null; FromIndex: -1; ToIndex: -1; ScrollX: 0; ScrollY: 0; MaxScrollX: 0; MaxScrollY: 0; AddedCount: -1; RemovedCount: -1; ParcelableData: Bundle[mParcelledData.dataSize=488] ]'
p2679
sS'MovementGranularity'
p2680
g6
sa(dp2681
S'EventTime'
p2682
S'25852968'
p2683
sg4
L1449910895491L
sS'recordCount'
p2684
g6
sS'EventType'
p2685
S'TYPE_WINDOW_CONTENT_CHANGED'
p2686
sS'PackageName'
p2687
S'com.taobao.ishopping'
p2688
sS'OutBounds'
p2689
S'Rect(405, 109 - 675, 172)'
p2690
sS'Action'
p2691
S'[ ClassName: android.widget.TextView; Text: []; ContentDescription: null; ItemCount: -1; CurrentItemIndex: -1; IsEnabled: true; IsPassword: false; IsChecked: false; IsFullScreen: false; Scrollable: false; BeforeText: null; FromIndex: -1; ToIndex: -1; ScrollX: -1; ScrollY: -1; MaxScrollX: -1; MaxScrollY: -1; AddedCount: -1; RemovedCount: -1; ParcelableData: null ]'
p2692
sS'MovementGranularity'
p2693
g6
sa(dp2694
S'EventTime'
p2695
S'25853105'
p2696
sg4
L1449910895627L
sS'recordCount'
p2697
g6
sS'EventType'
p2698
S'TYPE_WINDOW_CONTENT_CHANGED'
p2699
sS'PackageName'
p2700
S'com.taobao.ishopping'
p2701
sS'OutBounds'
p2702
S'Rect(0, 207 - 1080, 1920)'
p2703
sS'Action'
p2704
S'[ ClassName: android.webkit.WebView; Text: []; ContentDescription: null; ItemCount: 0; CurrentItemIndex: 0; IsEnabled: true; IsPassword: false; IsChecked: false; IsFullScreen: false; Scrollable: true; BeforeText: null; FromIndex: -1; ToIndex: -1; ScrollX: 0; ScrollY: 0; MaxScrollX: 0; MaxScrollY: 0; AddedCount: -1; RemovedCount: -1; ParcelableData: Bundle[mParcelledData.dataSize=488] ]'
p2705
sS'MovementGranularity'
p2706
g6
sa(dp2707
S'EventTime'
p2708
S'25853386'
p2709
sg4
L1449910895918L
sS'recordCount'
p2710
g6
sS'EventType'
p2711
S'TYPE_VIEW_SCROLLED'
p2712
sS'PackageName'
p2713
S'com.taobao.ishopping'
p2714
sS'OutBounds'
p2715
S'Rect(0, 206 - 1080, 1919)'
p2716
sS'Action'
p2717
S'[ ClassName: android.webkit.WebView; Text: []; ContentDescription: null; ItemCount: 0; CurrentItemIndex: 0; IsEnabled: true; IsPassword: false; IsChecked: false; IsFullScreen: false; Scrollable: true; BeforeText: null; FromIndex: -1; ToIndex: -1; ScrollX: 0; ScrollY: 1; MaxScrollX: 0; MaxScrollY: 9350; AddedCount: -1; RemovedCount: -1; ParcelableData: Bundle[mParcelledData.dataSize=488] ]'
p2718
sS'MovementGranularity'
p2719
g6
sa(dp2720
S'EventTime'
p2721
S'25853406'
p2722
sg4
L1449910895933L
sS'recordCount'
p2723
g6
sS'EventType'
p2724
S'TYPE_WINDOW_CONTENT_CHANGED'
p2725
sS'PackageName'
p2726
S'com.taobao.ishopping'
p2727
sS'OutBounds'
p2728
S'Rect(0, 206 - 1080, 1919)'
p2729
sS'Action'
p2730
S'[ ClassName: android.webkit.WebView; Text: []; ContentDescription: null; ItemCount: 0; CurrentItemIndex: 0; IsEnabled: true; IsPassword: false; IsChecked: false; IsFullScreen: false; Scrollable: true; BeforeText: null; FromIndex: -1; ToIndex: -1; ScrollX: 0; ScrollY: 1; MaxScrollX: 0; MaxScrollY: 9350; AddedCount: -1; RemovedCount: -1; ParcelableData: Bundle[mParcelledData.dataSize=488] ]'
p2731
sS'MovementGranularity'
p2732
g6
sa(dp2733
S'EventTime'
p2734
S'25853526'
p2735
sg4
L1449910896054L
sS'recordCount'
p2736
g6
sS'EventType'
p2737
S'TYPE_VIEW_SCROLLED'
p2738
sS'PackageName'
p2739
S'com.taobao.ishopping'
p2740
sS'OutBounds'
p2741
S'Rect(0, 207 - 1080, 1920)'
p2742
sS'Action'
p2743
S'[ ClassName: com.android.org.chromium.content.browser.ContentViewCore; Text: []; ContentDescription: null; ItemCount: -1; CurrentItemIndex: -1; IsEnabled: true; IsPassword: false; IsChecked: false; IsFullScreen: false; Scrollable: true; BeforeText: null; FromIndex: -1; ToIndex: -1; ScrollX: 0; ScrollY: 1; MaxScrollX: 0; MaxScrollY: 9350; AddedCount: -1; RemovedCount: -1; ParcelableData: null ]'
p2744
sS'MovementGranularity'
p2745
g6
sa(dp2746
S'EventTime'
p2747
S'25854717'
p2748
sg4
L1449910897253L
sS'recordCount'
p2749
g6
sS'EventType'
p2750
S'TYPE_WINDOW_STATE_CHANGED'
p2751
sS'PackageName'
p2752
S'com.taobao.ishopping'
p2753
sS'OutBounds'
p2754
S'Rect(0, 0 - 1080, 1920)'
p2755
sS'Action'
p2756
S'[ ClassName: com.taobao.ishopping.activity.detail.DetailActivity; Text: [\xe7\x88\xb1\xe9\x80\x9b\xe8\xa1\x97]; ContentDescription: null; ItemCount: -1; CurrentItemIndex: -1; IsEnabled: true; IsPassword: false; IsChecked: false; IsFullScreen: true; Scrollable: false; BeforeText: null; FromIndex: -1; ToIndex: -1; ScrollX: -1; ScrollY: -1; MaxScrollX: -1; MaxScrollY: -1; AddedCount: -1; RemovedCount: -1; ParcelableData: null ]'
p2757
sS'MovementGranularity'
p2758
g6
sa(dp2759
S'EventTime'
p2760
S'25855465'
p2761
sg4
L1449910898006L
sS'recordCount'
p2762
g6
sS'EventType'
p2763
S'TYPE_WINDOW_CONTENT_CHANGED'
p2764
sS'PackageName'
p2765
S'com.taobao.ishopping'
p2766
sS'OutBounds'
p2767
S'Rect(432, 109 - 648, 172)'
p2768
sS'Action'
p2769
S'[ ClassName: android.widget.TextView; Text: []; ContentDescription: null; ItemCount: -1; CurrentItemIndex: -1; IsEnabled: true; IsPassword: false; IsChecked: false; IsFullScreen: false; Scrollable: false; BeforeText: null; FromIndex: -1; ToIndex: -1; ScrollX: -1; ScrollY: -1; MaxScrollX: -1; MaxScrollY: -1; AddedCount: -1; RemovedCount: -1; ParcelableData: null ]'
p2770
sS'MovementGranularity'
p2771
g6
sa(dp2772
S'EventTime'
p2773
S'25855471'
p2774
sg4
L1449910898065L
sS'recordCount'
p2775
g6
sS'EventType'
p2776
S'TYPE_VIEW_SCROLLED'
p2777
sS'PackageName'
p2778
S'com.taobao.ishopping'
p2779
sS'OutBounds'
p2780
S'Rect(0, 75 - 1080, 1776)'
p2781
sS'Action'
p2782
S'[ ClassName: android.support.v4.view.ViewPager; Text: []; ContentDescription: null; ItemCount: -1; CurrentItemIndex: -1; IsEnabled: true; IsPassword: false; IsChecked: false; IsFullScreen: false; Scrollable: false; BeforeText: null; FromIndex: -1; ToIndex: -1; ScrollX: -1; ScrollY: -1; MaxScrollX: -1; MaxScrollY: -1; AddedCount: -1; RemovedCount: -1; ParcelableData: null ]'
p2783
sS'MovementGranularity'
p2784
g6
sa(dp2785
S'EventTime'
p2786
S'25855587'
p2787
sg4
L1449910898132L
sS'recordCount'
p2788
g6
sS'EventType'
p2789
S'TYPE_VIEW_SCROLLED'
p2790
sS'PackageName'
p2791
S'com.taobao.ishopping'
p2792
sS'OutBounds'
p2793
S'Rect(0, 75 - 1080, 1776)'
p2794
sS'Action'
p2795
S'[ ClassName: android.support.v4.view.ViewPager; Text: []; ContentDescription: null; ItemCount: -1; CurrentItemIndex: -1; IsEnabled: true; IsPassword: false; IsChecked: false; IsFullScreen: false; Scrollable: false; BeforeText: null; FromIndex: -1; ToIndex: -1; ScrollX: -1; ScrollY: -1; MaxScrollX: -1; MaxScrollY: -1; AddedCount: -1; RemovedCount: -1; ParcelableData: null ]'
p2796
sS'MovementGranularity'
p2797
g6
sa(dp2798
S'EventTime'
p2799
S'25855719'
p2800
sg4
L1449910898441L
sS'recordCount'
p2801
g6
sS'EventType'
p2802
S'TYPE_VIEW_SCROLLED'
p2803
sS'PackageName'
p2804
S'com.taobao.ishopping'
p2805
sS'OutBounds'
p2806
S'Rect(0, 75 - 1080, 1776)'
p2807
sS'Action'
p2808
S'[ ClassName: android.support.v4.view.ViewPager; Text: []; ContentDescription: null; ItemCount: -1; CurrentItemIndex: -1; IsEnabled: true; IsPassword: false; IsChecked: false; IsFullScreen: false; Scrollable: false; BeforeText: null; FromIndex: -1; ToIndex: -1; ScrollX: -1; ScrollY: -1; MaxScrollX: -1; MaxScrollY: -1; AddedCount: -1; RemovedCount: -1; ParcelableData: null ]'
p2809
sS'MovementGranularity'
p2810
g6
sa(dp2811
S'EventTime'
p2812
S'25856088'
p2813
sg4
L1449910898625L
sS'recordCount'
p2814
g6
sS'EventType'
p2815
S'TYPE_VIEW_SCROLLED'
p2816
sS'PackageName'
p2817
S'com.taobao.ishopping'
p2818
sS'OutBounds'
p2819
S'Rect(0, 207 - 1080, 1776)'
p2820
sS'Action'
p2821
S'[ ClassName: android.support.v7.widget.RecyclerView; Text: []; ContentDescription: null; ItemCount: 10; CurrentItemIndex: -1; IsEnabled: true; IsPassword: false; IsChecked: false; IsFullScreen: false; Scrollable: true; BeforeText: null; FromIndex: 0; ToIndex: 4; ScrollX: -1; ScrollY: -1; MaxScrollX: -1; MaxScrollY: -1; AddedCount: -1; RemovedCount: -1; ParcelableData: null ]'
p2822
sS'MovementGranularity'
p2823
g6
sa(dp2824
S'EventTime'
p2825
S'25856256'
p2826
sg4
L1449910898810L
sS'recordCount'
p2827
g6
sS'EventType'
p2828
S'TYPE_WINDOW_CONTENT_CHANGED'
p2829
sS'PackageName'
p2830
S'com.taobao.ishopping'
p2831
sS'OutBounds'
p2832
S'Rect(857, 2010 - 1034, 1776)'
p2833
sS'Action'
p2834
S'[ ClassName: android.widget.TextView; Text: []; ContentDescription: null; ItemCount: -1; CurrentItemIndex: -1; IsEnabled: true; IsPassword: false; IsChecked: false; IsFullScreen: false; Scrollable: false; BeforeText: null; FromIndex: -1; ToIndex: -1; ScrollX: -1; ScrollY: -1; MaxScrollX: -1; MaxScrollY: -1; AddedCount: -1; RemovedCount: -1; ParcelableData: null ]'
p2835
sS'MovementGranularity'
p2836
g6
sa(dp2837
S'EventTime'
p2838
S'25856384'
p2839
sg4
L1449910898904L
sS'recordCount'
p2840
g6
sS'EventType'
p2841
S'TYPE_WINDOW_CONTENT_CHANGED'
p2842
sS'PackageName'
p2843
S'com.taobao.ishopping'
p2844
sS'OutBounds'
p2845
S'Rect(857, 2010 - 1034, 1776)'
p2846
sS'Action'
p2847
S'[ ClassName: android.widget.TextView; Text: []; ContentDescription: null; ItemCount: -1; CurrentItemIndex: -1; IsEnabled: true; IsPassword: false; IsChecked: false; IsFullScreen: false; Scrollable: false; BeforeText: null; FromIndex: -1; ToIndex: -1; ScrollX: -1; ScrollY: -1; MaxScrollX: -1; MaxScrollY: -1; AddedCount: -1; RemovedCount: -1; ParcelableData: null ]'
p2848
sS'MovementGranularity'
p2849
g6
sa(dp2850
S'EventTime'
p2851
S'25856556'
p2852
sg4
L1449910899076L
sS'recordCount'
p2853
g6
sS'EventType'
p2854
S'TYPE_WINDOW_CONTENT_CHANGED'
p2855
sS'PackageName'
p2856
S'com.taobao.ishopping'
p2857
sS'OutBounds'
p2858
S'Rect(875, 687 - 1034, 765)'
p2859
sS'Action'
p2860
S'[ ClassName: android.widget.TextView; Text: []; ContentDescription: null; ItemCount: -1; CurrentItemIndex: -1; IsEnabled: true; IsPassword: false; IsChecked: false; IsFullScreen: false; Scrollable: false; BeforeText: null; FromIndex: -1; ToIndex: -1; ScrollX: -1; ScrollY: -1; MaxScrollX: -1; MaxScrollY: -1; AddedCount: -1; RemovedCount: -1; ParcelableData: null ]'
p2861
sS'MovementGranularity'
p2862
g6
sa(dp2863
S'EventTime'
p2864
S'25857164'
p2865
sg4
L1449910899683L
sS'recordCount'
p2866
g6
sS'EventType'
p2867
S'TYPE_WINDOW_CONTENT_CHANGED'
p2868
sS'PackageName'
p2869
S'com.taobao.ishopping'
p2870
sS'OutBounds'
p2871
S'Rect(875, 1569 - 1034, 1647)'
p2872
sS'Action'
p2873
S'[ ClassName: android.widget.TextView; Text: []; ContentDescription: null; ItemCount: -1; CurrentItemIndex: -1; IsEnabled: true; IsPassword: false; IsChecked: false; IsFullScreen: false; Scrollable: false; BeforeText: null; FromIndex: -1; ToIndex: -1; ScrollX: -1; ScrollY: -1; MaxScrollX: -1; MaxScrollY: -1; AddedCount: -1; RemovedCount: -1; ParcelableData: null ]'
p2874
sS'MovementGranularity'
p2875
g6
sa(dp2876
S'EventTime'
p2877
S'25857297'
p2878
sg4
L1449910899827L
sS'recordCount'
p2879
g6
sS'EventType'
p2880
S'TYPE_VIEW_CLICKED'
p2881
sS'PackageName'
p2882
S'com.taobao.ishopping'
p2883
sS'OutBounds'
p2884
S'Rect(375, 346 - 705, 684)'
p2885
sS'Action'
p2886
S'[ ClassName: android.widget.ImageView; Text: []; ContentDescription: null; ItemCount: -1; CurrentItemIndex: -1; IsEnabled: true; IsPassword: false; IsChecked: false; IsFullScreen: false; Scrollable: false; BeforeText: null; FromIndex: -1; ToIndex: -1; ScrollX: -1; ScrollY: -1; MaxScrollX: -1; MaxScrollY: -1; AddedCount: -1; RemovedCount: -1; ParcelableData: null ]'
p2887
sS'MovementGranularity'
p2888
g6
sa(dp2889
S'EventTime'
p2890
S'25857581'
p2891
sg4
L1449910900226L
sS'recordCount'
p2892
g6
sS'EventType'
p2893
S'TYPE_WINDOW_CONTENT_CHANGED'
p2894
sS'PackageName'
p2895
S'com.taobao.ishopping'
p2896
sS'OutBounds'
p2897
S'Rect(857, 2010 - 1034, 1776)'
p2898
sS'Action'
p2899
S'[ ClassName: android.widget.TextView; Text: []; ContentDescription: null; ItemCount: -1; CurrentItemIndex: -1; IsEnabled: true; IsPassword: false; IsChecked: false; IsFullScreen: false; Scrollable: false; BeforeText: null; FromIndex: -1; ToIndex: -1; ScrollX: -1; ScrollY: -1; MaxScrollX: -1; MaxScrollY: -1; AddedCount: -1; RemovedCount: -1; ParcelableData: null ]'
p2900
sS'MovementGranularity'
p2901
g6
sa(dp2902
S'EventTime'
p2903
S'25857691'
p2904
sg4
L1449910900325L
sS'recordCount'
p2905
g6
sS'EventType'
p2906
S'TYPE_WINDOW_STATE_CHANGED'
p2907
sS'PackageName'
p2908
S'com.taobao.ishopping'
p2909
sS'Action'
p2910
S'[ ClassName: android.app.ProgressDialog; Text: [\xe5\x8a\xaa\xe5\x8a\x9b\xe5\x8a\xa0\xe8\xbd\xbd\xe4\xb8\xad]; ContentDescription: null; ItemCount: -1; CurrentItemIndex: -1; IsEnabled: true; IsPassword: false; IsChecked: false; IsFullScreen: false; Scrollable: false; BeforeText: null; FromIndex: -1; ToIndex: -1; ScrollX: -1; ScrollY: -1; MaxScrollX: -1; MaxScrollY: -1; AddedCount: -1; RemovedCount: -1; ParcelableData: null ]'
p2911
sS'MovementGranularity'
p2912
g6
sa(dp2913
S'EventTime'
p2914
S'25857805'
p2915
sg4
L1449910900329L
sS'recordCount'
p2916
g6
sS'EventType'
p2917
S'TYPE_WINDOW_CONTENT_CHANGED'
p2918
sS'PackageName'
p2919
S'com.taobao.ishopping'
p2920
sS'Action'
p2921
S'[ ClassName: android.widget.TextView; Text: []; ContentDescription: null; ItemCount: -1; CurrentItemIndex: -1; IsEnabled: true; IsPassword: false; IsChecked: false; IsFullScreen: false; Scrollable: false; BeforeText: null; FromIndex: -1; ToIndex: -1; ScrollX: -1; ScrollY: -1; MaxScrollX: -1; MaxScrollY: -1; AddedCount: -1; RemovedCount: -1; ParcelableData: null ]'
p2922
sS'MovementGranularity'
p2923
g6
sa(dp2924
S'EventTime'
p2925
S'25857912'
p2926
sg4
L1449910900483L
sS'recordCount'
p2927
g6
sS'EventType'
p2928
S'TYPE_WINDOW_STATE_CHANGED'
p2929
sS'PackageName'
p2930
S'com.taobao.ishopping'
p2931
sS'OutBounds'
p2932
S'Rect(0, 0 - 1080, 1920)'
p2933
sS'Action'
p2934
S'[ ClassName: com.taobao.ishopping.activity.detail.DetailActivity; Text: [\xe7\x88\xb1\xe9\x80\x9b\xe8\xa1\x97]; ContentDescription: null; ItemCount: -1; CurrentItemIndex: -1; IsEnabled: true; IsPassword: false; IsChecked: false; IsFullScreen: true; Scrollable: false; BeforeText: null; FromIndex: -1; ToIndex: -1; ScrollX: -1; ScrollY: -1; MaxScrollX: -1; MaxScrollY: -1; AddedCount: -1; RemovedCount: -1; ParcelableData: null ]'
p2935
sS'MovementGranularity'
p2936
g6
sa(dp2937
S'EventTime'
p2938
S'25858026'
p2939
sg4
L1449910900585L
sS'recordCount'
p2940
g6
sS'EventType'
p2941
S'TYPE_VIEW_SCROLLED'
p2942
sS'PackageName'
p2943
S'com.taobao.ishopping'
p2944
sS'OutBounds'
p2945
S'Rect(0, 94 - 1080, 1776)'
p2946
sS'Action'
p2947
S'[ ClassName: android.support.v7.widget.RecyclerView; Text: []; ContentDescription: null; ItemCount: 4; CurrentItemIndex: -1; IsEnabled: true; IsPassword: false; IsChecked: false; IsFullScreen: false; Scrollable: false; BeforeText: null; FromIndex: 0; ToIndex: 3; ScrollX: -1; ScrollY: -1; MaxScrollX: -1; MaxScrollY: -1; AddedCount: -1; RemovedCount: -1; ParcelableData: null ]'
p2948
sS'MovementGranularity'
p2949
g6
sa(dp2950
S'EventTime'
p2951
S'25858109'
p2952
sg4
L1449910900717L
sS'recordCount'
p2953
g6
sS'EventType'
p2954
S'TYPE_VIEW_FOCUSED'
p2955
sS'PackageName'
p2956
S'com.taobao.ishopping'
p2957
sS'OutBounds'
p2958
S'Rect(0, 45 - 1080, 6525)'
p2959
sS'Action'
p2960
S'[ ClassName: android.webkit.WebView; Text: []; ContentDescription: null; ItemCount: 0; CurrentItemIndex: 0; IsEnabled: true; IsPassword: false; IsChecked: false; IsFullScreen: false; Scrollable: true; BeforeText: null; FromIndex: -1; ToIndex: -1; ScrollX: 0; ScrollY: 0; MaxScrollX: 0; MaxScrollY: 4779; AddedCount: -1; RemovedCount: -1; ParcelableData: Bundle[mParcelledData.dataSize=488] ]'
p2961
sS'MovementGranularity'
p2962
g6
sa(dp2963
S'EventTime'
p2964
S'25858124'
p2965
sg4
L1449910900756L
sS'recordCount'
p2966
g6
sS'EventType'
p2967
S'TYPE_VIEW_ACCESSIBILITY_FOCUS_CLEARED'
p2968
sS'PackageName'
p2969
S'com.taobao.ishopping'
p2970
sS'OutBounds'
p2971
S'Rect(0, 45 - 1080, 6525)'
p2972
sS'Action'
p2973
S'[ ClassName: android.webkit.WebView; Text: []; ContentDescription: null; ItemCount: 0; CurrentItemIndex: 0; IsEnabled: true; IsPassword: false; IsChecked: false; IsFullScreen: false; Scrollable: true; BeforeText: null; FromIndex: -1; ToIndex: -1; ScrollX: 0; ScrollY: 0; MaxScrollX: 0; MaxScrollY: 4779; AddedCount: -1; RemovedCount: -1; ParcelableData: Bundle[mParcelledData.dataSize=488] ]'
p2974
sS'MovementGranularity'
p2975
g6
sa(dp2976
S'EventTime'
p2977
S'25858125'
p2978
sg4
L1449910900795L
sS'recordCount'
p2979
g6
sS'EventType'
p2980
S'TYPE_VIEW_ACCESSIBILITY_FOCUSED'
p2981
sS'PackageName'
p2982
S'com.taobao.ishopping'
p2983
sS'OutBounds'
p2984
S'Rect(0, 45 - 1080, 6525)'
p2985
sS'Action'
p2986
S'[ ClassName: android.webkit.WebView; Text: []; ContentDescription: null; ItemCount: 0; CurrentItemIndex: 0; IsEnabled: true; IsPassword: false; IsChecked: false; IsFullScreen: false; Scrollable: true; BeforeText: null; FromIndex: -1; ToIndex: -1; ScrollX: 0; ScrollY: 0; MaxScrollX: 0; MaxScrollY: 4779; AddedCount: -1; RemovedCount: -1; ParcelableData: Bundle[mParcelledData.dataSize=488] ]'
p2987
sS'MovementGranularity'
p2988
g6
sa(dp2989
S'EventTime'
p2990
S'25858376'
p2991
sg4
L1449910900910L
sS'recordCount'
p2992
g6
sS'EventType'
p2993
S'TYPE_WINDOW_CONTENT_CHANGED'
p2994
sS'PackageName'
p2995
S'com.taobao.ishopping'
p2996
sS'OutBounds'
p2997
S'Rect(0, 75 - 1080, 1776)'
p2998
sS'Action'
p2999
S'[ ClassName: android.widget.LinearLayout; Text: []; ContentDescription: null; ItemCount: -1; CurrentItemIndex: -1; IsEnabled: true; IsPassword: false; IsChecked: false; IsFullScreen: false; Scrollable: false; BeforeText: null; FromIndex: -1; ToIndex: -1; ScrollX: -1; ScrollY: -1; MaxScrollX: -1; MaxScrollY: -1; AddedCount: -1; RemovedCount: -1; ParcelableData: null ]'
p3000
sS'MovementGranularity'
p3001
g6
sa(dp3002
S'EventTime'
p3003
S'25858484'
p3004
sg4
L1449910901021L
sS'recordCount'
p3005
g6
sS'EventType'
p3006
S'TYPE_WINDOW_CONTENT_CHANGED'
p3007
sS'PackageName'
p3008
S'com.taobao.ishopping'
p3009
sS'OutBounds'
p3010
S'Rect(810, 1776 - 1080, 1920)'
p3011
sS'Action'
p3012
S'[ ClassName: android.widget.TextView; Text: []; ContentDescription: null; ItemCount: -1; CurrentItemIndex: -1; IsEnabled: true; IsPassword: false; IsChecked: false; IsFullScreen: false; Scrollable: false; BeforeText: null; FromIndex: -1; ToIndex: -1; ScrollX: -1; ScrollY: -1; MaxScrollX: -1; MaxScrollY: -1; AddedCount: -1; RemovedCount: -1; ParcelableData: null ]'
p3013
sS'MovementGranularity'
p3014
g6
sa(dp3015
S'EventTime'
p3016
S'25858777'
p3017
sg4
L1449910901298L
sS'recordCount'
p3018
g6
sS'EventType'
p3019
S'TYPE_WINDOW_CONTENT_CHANGED'
p3020
sS'PackageName'
p3021
S'com.taobao.ishopping'
p3022
sS'OutBounds'
p3023
S'Rect(0, 45 - 1080, 6525)'
p3024
sS'Action'
p3025
S'[ ClassName: android.webkit.WebView; Text: []; ContentDescription: null; ItemCount: 0; CurrentItemIndex: 0; IsEnabled: true; IsPassword: false; IsChecked: false; IsFullScreen: false; Scrollable: true; BeforeText: null; FromIndex: -1; ToIndex: -1; ScrollX: 0; ScrollY: 0; MaxScrollX: 0; MaxScrollY: 4779; AddedCount: -1; RemovedCount: -1; ParcelableData: Bundle[mParcelledData.dataSize=488] ]'
p3026
sS'MovementGranularity'
p3027
g6
sa(dp3028
S'EventTime'
p3029
S'25860169'
p3030
sg4
L1449910902705L
sS'recordCount'
p3031
g6
sS'EventType'
p3032
S'TYPE_VIEW_SCROLLED'
p3033
sS'PackageName'
p3034
S'com.taobao.ishopping'
p3035
sS'OutBounds'
p3036
S'Rect(0, 75 - 1080, 1776)'
p3037
sS'Action'
p3038
S'[ ClassName: android.support.v4.view.ViewPager; Text: []; ContentDescription: null; ItemCount: -1; CurrentItemIndex: -1; IsEnabled: true; IsPassword: false; IsChecked: false; IsFullScreen: false; Scrollable: false; BeforeText: null; FromIndex: -1; ToIndex: -1; ScrollX: -1; ScrollY: -1; MaxScrollX: -1; MaxScrollY: -1; AddedCount: -1; RemovedCount: -1; ParcelableData: null ]'
p3039
sS'MovementGranularity'
p3040
g6
sa(dp3041
S'EventTime'
p3042
S'25860275'
p3043
sg4
L1449910902820L
sS'recordCount'
p3044
g6
sS'EventType'
p3045
S'TYPE_VIEW_SCROLLED'
p3046
sS'PackageName'
p3047
S'com.taobao.ishopping'
p3048
sS'OutBounds'
p3049
S'Rect(0, 75 - 1080, 1776)'
p3050
sS'Action'
p3051
S'[ ClassName: android.support.v4.view.ViewPager; Text: []; ContentDescription: null; ItemCount: -1; CurrentItemIndex: -1; IsEnabled: true; IsPassword: false; IsChecked: false; IsFullScreen: false; Scrollable: false; BeforeText: null; FromIndex: -1; ToIndex: -1; ScrollX: -1; ScrollY: -1; MaxScrollX: -1; MaxScrollY: -1; AddedCount: -1; RemovedCount: -1; ParcelableData: null ]'
p3052
sS'MovementGranularity'
p3053
g6
sa(dp3054
S'EventTime'
p3055
S'25860401'
p3056
sg4
L1449910902937L
sS'recordCount'
p3057
g6
sS'EventType'
p3058
S'TYPE_VIEW_SCROLLED'
p3059
sS'PackageName'
p3060
S'com.taobao.ishopping'
p3061
sS'OutBounds'
p3062
S'Rect(0, 75 - 1080, 1776)'
p3063
sS'Action'
p3064
S'[ ClassName: android.support.v4.view.ViewPager; Text: []; ContentDescription: null; ItemCount: -1; CurrentItemIndex: -1; IsEnabled: true; IsPassword: false; IsChecked: false; IsFullScreen: false; Scrollable: false; BeforeText: null; FromIndex: -1; ToIndex: -1; ScrollX: -1; ScrollY: -1; MaxScrollX: -1; MaxScrollY: -1; AddedCount: -1; RemovedCount: -1; ParcelableData: null ]'
p3065
sS'MovementGranularity'
p3066
g6
sa(dp3067
S'EventTime'
p3068
S'25860519'
p3069
sg4
L1449910903056L
sS'recordCount'
p3070
g6
sS'EventType'
p3071
S'TYPE_VIEW_SCROLLED'
p3072
sS'PackageName'
p3073
S'com.taobao.ishopping'
p3074
sS'OutBounds'
p3075
S'Rect(0, 75 - 1080, 1776)'
p3076
sS'Action'
p3077
S'[ ClassName: android.support.v4.view.ViewPager; Text: []; ContentDescription: null; ItemCount: -1; CurrentItemIndex: -1; IsEnabled: true; IsPassword: false; IsChecked: false; IsFullScreen: false; Scrollable: false; BeforeText: null; FromIndex: -1; ToIndex: -1; ScrollX: -1; ScrollY: -1; MaxScrollX: -1; MaxScrollY: -1; AddedCount: -1; RemovedCount: -1; ParcelableData: null ]'
p3078
sS'MovementGranularity'
p3079
g6
sa(dp3080
S'EventTime'
p3081
S'25860637'
p3082
sg4
L1449910903175L
sS'recordCount'
p3083
g6
sS'EventType'
p3084
S'TYPE_VIEW_SCROLLED'
p3085
sS'PackageName'
p3086
S'com.taobao.ishopping'
p3087
sS'OutBounds'
p3088
S'Rect(0, 75 - 1080, 1776)'
p3089
sS'Action'
p3090
S'[ ClassName: android.support.v4.view.ViewPager; Text: []; ContentDescription: null; ItemCount: -1; CurrentItemIndex: -1; IsEnabled: true; IsPassword: false; IsChecked: false; IsFullScreen: false; Scrollable: false; BeforeText: null; FromIndex: -1; ToIndex: -1; ScrollX: -1; ScrollY: -1; MaxScrollX: -1; MaxScrollY: -1; AddedCount: -1; RemovedCount: -1; ParcelableData: null ]'
p3091
sS'MovementGranularity'
p3092
g6
sa(dp3093
S'EventTime'
p3094
S'25860756'
p3095
sg4
L1449910903290L
sS'recordCount'
p3096
g6
sS'EventType'
p3097
S'TYPE_VIEW_SCROLLED'
p3098
sS'PackageName'
p3099
S'com.taobao.ishopping'
p3100
sS'OutBounds'
p3101
S'Rect(0, 75 - 1080, 1776)'
p3102
sS'Action'
p3103
S'[ ClassName: android.support.v4.view.ViewPager; Text: []; ContentDescription: null; ItemCount: -1; CurrentItemIndex: -1; IsEnabled: true; IsPassword: false; IsChecked: false; IsFullScreen: false; Scrollable: false; BeforeText: null; FromIndex: -1; ToIndex: -1; ScrollX: -1; ScrollY: -1; MaxScrollX: -1; MaxScrollY: -1; AddedCount: -1; RemovedCount: -1; ParcelableData: null ]'
p3104
sS'MovementGranularity'
p3105
g6
sa(dp3106
S'EventTime'
p3107
S'25860871'
p3108
sg4
L1449910903400L
sS'recordCount'
p3109
g6
sS'EventType'
p3110
S'TYPE_VIEW_SCROLLED'
p3111
sS'PackageName'
p3112
S'com.taobao.ishopping'
p3113
sS'OutBounds'
p3114
S'Rect(0, 75 - 1080, 1776)'
p3115
sS'Action'
p3116
S'[ ClassName: android.support.v4.view.ViewPager; Text: []; ContentDescription: null; ItemCount: -1; CurrentItemIndex: -1; IsEnabled: true; IsPassword: false; IsChecked: false; IsFullScreen: false; Scrollable: false; BeforeText: null; FromIndex: -1; ToIndex: -1; ScrollX: -1; ScrollY: -1; MaxScrollX: -1; MaxScrollY: -1; AddedCount: -1; RemovedCount: -1; ParcelableData: null ]'
p3117
sS'MovementGranularity'
p3118
g6
sa(dp3119
S'EventTime'
p3120
S'25862024'
p3121
sg4
L1449910904553L
sS'recordCount'
p3122
g6
sS'EventType'
p3123
S'TYPE_VIEW_SCROLLED'
p3124
sS'PackageName'
p3125
S'com.taobao.ishopping'
p3126
sS'OutBounds'
p3127
S'Rect(0, 75 - 1080, 1776)'
p3128
sS'Action'
p3129
S'[ ClassName: android.support.v4.view.ViewPager; Text: []; ContentDescription: null; ItemCount: -1; CurrentItemIndex: -1; IsEnabled: true; IsPassword: false; IsChecked: false; IsFullScreen: false; Scrollable: false; BeforeText: null; FromIndex: -1; ToIndex: -1; ScrollX: -1; ScrollY: -1; MaxScrollX: -1; MaxScrollY: -1; AddedCount: -1; RemovedCount: -1; ParcelableData: null ]'
p3130
sS'MovementGranularity'
p3131
g6
sa(dp3132
S'EventTime'
p3133
S'25862125'
p3134
sg4
L1449910904658L
sS'recordCount'
p3135
g6
sS'EventType'
p3136
S'TYPE_VIEW_SCROLLED'
p3137
sS'PackageName'
p3138
S'com.taobao.ishopping'
p3139
sS'OutBounds'
p3140
S'Rect(0, 75 - 1080, 1776)'
p3141
sS'Action'
p3142
S'[ ClassName: android.support.v4.view.ViewPager; Text: []; ContentDescription: null; ItemCount: -1; CurrentItemIndex: -1; IsEnabled: true; IsPassword: false; IsChecked: false; IsFullScreen: false; Scrollable: false; BeforeText: null; FromIndex: -1; ToIndex: -1; ScrollX: -1; ScrollY: -1; MaxScrollX: -1; MaxScrollY: -1; AddedCount: -1; RemovedCount: -1; ParcelableData: null ]'
p3143
sS'MovementGranularity'
p3144
g6
sa(dp3145
S'EventTime'
p3146
S'25862301'
p3147
sg4
L1449910904844L
sS'recordCount'
p3148
g6
sS'EventType'
p3149
S'TYPE_VIEW_SCROLLED'
p3150
sS'PackageName'
p3151
S'com.taobao.ishopping'
p3152
sS'OutBounds'
p3153
S'Rect(0, 75 - 1080, 1776)'
p3154
sS'Action'
p3155
S'[ ClassName: android.support.v4.view.ViewPager; Text: []; ContentDescription: null; ItemCount: -1; CurrentItemIndex: -1; IsEnabled: true; IsPassword: false; IsChecked: false; IsFullScreen: false; Scrollable: false; BeforeText: null; FromIndex: -1; ToIndex: -1; ScrollX: -1; ScrollY: -1; MaxScrollX: -1; MaxScrollY: -1; AddedCount: -1; RemovedCount: -1; ParcelableData: null ]'
p3156
sS'MovementGranularity'
p3157
g6
sa(dp3158
S'EventTime'
p3159
S'25862425'
p3160
sg4
L1449910904967L
sS'recordCount'
p3161
g6
sS'EventType'
p3162
S'TYPE_VIEW_SCROLLED'
p3163
sS'PackageName'
p3164
S'com.taobao.ishopping'
p3165
sS'OutBounds'
p3166
S'Rect(0, 75 - 1080, 1776)'
p3167
sS'Action'
p3168
S'[ ClassName: android.support.v4.view.ViewPager; Text: []; ContentDescription: null; ItemCount: -1; CurrentItemIndex: -1; IsEnabled: true; IsPassword: false; IsChecked: false; IsFullScreen: false; Scrollable: false; BeforeText: null; FromIndex: -1; ToIndex: -1; ScrollX: -1; ScrollY: -1; MaxScrollX: -1; MaxScrollY: -1; AddedCount: -1; RemovedCount: -1; ParcelableData: null ]'
p3169
sS'MovementGranularity'
p3170
g6
sa(dp3171
S'EventTime'
p3172
S'25862566'
p3173
sg4
L1449910905096L
sS'recordCount'
p3174
g6
sS'EventType'
p3175
S'TYPE_VIEW_SCROLLED'
p3176
sS'PackageName'
p3177
S'com.taobao.ishopping'
p3178
sS'OutBounds'
p3179
S'Rect(0, 75 - 1080, 1776)'
p3180
sS'Action'
p3181
S'[ ClassName: android.support.v4.view.ViewPager; Text: []; ContentDescription: null; ItemCount: -1; CurrentItemIndex: -1; IsEnabled: true; IsPassword: false; IsChecked: false; IsFullScreen: false; Scrollable: false; BeforeText: null; FromIndex: -1; ToIndex: -1; ScrollX: -1; ScrollY: -1; MaxScrollX: -1; MaxScrollY: -1; AddedCount: -1; RemovedCount: -1; ParcelableData: null ]'
p3182
sS'MovementGranularity'
p3183
g6
sa.