(lp0
(dp1
S'EventTime'
p2
S'66545515'
p3
sS'SyscTime'
p4
L1449974664480L
sS'recordCount'
p5
S'0'
p6
sS'EventType'
p7
S'TYPE_WINDOW_STATE_CHANGED'
p8
sS'PackageName'
p9
S'com.xp.tugele'
p10
sS'OutBounds'
p11
S'Rect(157, 550 - 563, 780)'
p12
sS'Action'
p13
S'[ ClassName: android.app.ProgressDialog; Text: [\xe5\x8a\xa0\xe8\xbd\xbd\xe4\xb8\xad\xef\xbc\x8c\xe8\xaf\xb7\xe7\xa8\x8d\xe5\x90\x8e]; ContentDescription: null; ItemCount: -1; CurrentItemIndex: -1; IsEnabled: true; IsPassword: false; IsChecked: false; IsFullScreen: false; Scrollable: false; BeforeText: null; FromIndex: -1; ToIndex: -1; ScrollX: -1; ScrollY: -1; MaxScrollX: -1; MaxScrollY: -1; AddedCount: -1; RemovedCount: -1; ParcelableData: null ]'
p14
sS'MovementGranularity'
p15
g6
sa(dp16
S'EventTime'
p17
S'66545577'
p18
sg4
L1449974664540L
sS'recordCount'
p19
g6
sS'EventType'
p20
S'TYPE_WINDOW_CONTENT_CHANGED'
p21
sS'PackageName'
p22
S'com.xp.tugele'
p23
sS'OutBounds'
p24
S'Rect(157, 550 - 563, 780)'
p25
sS'Action'
p26
S'[ ClassName: android.widget.FrameLayout; Text: []; ContentDescription: null; ItemCount: -1; CurrentItemIndex: -1; IsEnabled: true; IsPassword: false; IsChecked: false; IsFullScreen: false; Scrollable: false; BeforeText: null; FromIndex: -1; ToIndex: -1; ScrollX: -1; ScrollY: -1; MaxScrollX: -1; MaxScrollY: -1; AddedCount: -1; RemovedCount: -1; ParcelableData: null ]'
p27
sS'MovementGranularity'
p28
g6
sa(dp29
S'EventTime'
p30
S'66545684'
p31
sg4
L1449974664646L
sS'recordCount'
p32
g6
sS'EventType'
p33
S'TYPE_WINDOW_CONTENT_CHANGED'
p34
sS'PackageName'
p35
S'com.xp.tugele'
p36
sS'OutBounds'
p37
S'Rect(157, 550 - 563, 780)'
p38
sS'Action'
p39
S'[ ClassName: android.widget.FrameLayout; Text: []; ContentDescription: null; ItemCount: -1; CurrentItemIndex: -1; IsEnabled: true; IsPassword: false; IsChecked: false; IsFullScreen: false; Scrollable: false; BeforeText: null; FromIndex: -1; ToIndex: -1; ScrollX: -1; ScrollY: -1; MaxScrollX: -1; MaxScrollY: -1; AddedCount: -1; RemovedCount: -1; ParcelableData: null ]'
p40
sS'MovementGranularity'
p41
g6
sa(dp42
S'EventTime'
p43
S'66547005'
p44
sg4
L1449974665994L
sS'recordCount'
p45
g6
sS'EventType'
p46
S'TYPE_WINDOW_STATE_CHANGED'
p47
sS'PackageName'
p48
S'com.xp.tugele'
p49
sS'OutBounds'
p50
S'Rect(0, 0 - 720, 1280)'
p51
sS'Action'
p52
S'[ ClassName: com.xp.ui.MainActivity; Text: [\xe5\x9b\xbe\xe4\xb8\xaa\xe4\xb9\x90]; ContentDescription: null; ItemCount: -1; CurrentItemIndex: -1; IsEnabled: true; IsPassword: false; IsChecked: false; IsFullScreen: true; Scrollable: false; BeforeText: null; FromIndex: -1; ToIndex: -1; ScrollX: -1; ScrollY: -1; MaxScrollX: -1; MaxScrollY: -1; AddedCount: -1; RemovedCount: -1; ParcelableData: null ]'
p53
sS'MovementGranularity'
p54
g6
sa(dp55
S'EventTime'
p56
S'66547006'
p57
sg4
L1449974666025L
sS'recordCount'
p58
g6
sS'EventType'
p59
S'TYPE_WINDOW_CONTENT_CHANGED'
p60
sS'PackageName'
p61
S'com.xp.tugele'
p62
sS'OutBounds'
p63
S'Rect(0, 0 - 720, 1280)'
p64
sS'Action'
p65
S'[ ClassName: android.widget.FrameLayout; Text: []; ContentDescription: null; ItemCount: -1; CurrentItemIndex: -1; IsEnabled: true; IsPassword: false; IsChecked: false; IsFullScreen: false; Scrollable: false; BeforeText: null; FromIndex: -1; ToIndex: -1; ScrollX: -1; ScrollY: -1; MaxScrollX: -1; MaxScrollY: -1; AddedCount: -1; RemovedCount: -1; ParcelableData: null ]'
p66
sS'MovementGranularity'
p67
g6
sa(dp68
S'EventTime'
p69
S'66547094'
p70
sg4
L1449974666078L
sS'recordCount'
p71
g6
sS'EventType'
p72
S'TYPE_VIEW_SCROLLED'
p73
sS'PackageName'
p74
S'com.xp.tugele'
p75
sS'OutBounds'
p76
S'Rect(0, 52 - 720, 1175)'
p77
sS'Action'
p78
S'[ ClassName: android.widget.ListView; Text: []; ContentDescription: null; ItemCount: 20; CurrentItemIndex: -1; IsEnabled: true; IsPassword: false; IsChecked: false; IsFullScreen: false; Scrollable: true; BeforeText: null; FromIndex: 0; ToIndex: 2; ScrollX: -1; ScrollY: -1; MaxScrollX: -1; MaxScrollY: -1; AddedCount: -1; RemovedCount: -1; ParcelableData: null ]'
p79
sS'MovementGranularity'
p80
g6
sa(dp81
S'EventTime'
p82
S'66547167'
p83
sg4
L1449974666163L
sS'recordCount'
p84
g6
sS'EventType'
p85
S'TYPE_WINDOW_CONTENT_CHANGED'
p86
sS'PackageName'
p87
S'com.xp.tugele'
p88
sS'OutBounds'
p89
S'Rect(0, 0 - 720, 1280)'
p90
sS'Action'
p91
S'[ ClassName: android.widget.FrameLayout; Text: []; ContentDescription: null; ItemCount: -1; CurrentItemIndex: -1; IsEnabled: true; IsPassword: false; IsChecked: false; IsFullScreen: false; Scrollable: false; BeforeText: null; FromIndex: -1; ToIndex: -1; ScrollX: -1; ScrollY: -1; MaxScrollX: -1; MaxScrollY: -1; AddedCount: -1; RemovedCount: -1; ParcelableData: null ]'
p92
sS'MovementGranularity'
p93
g6
sa(dp94
S'EventTime'
p95
S'66548633'
p96
sg4
L1449974667635L
sS'recordCount'
p97
g6
sS'EventType'
p98
S'TYPE_VIEW_SCROLLED'
p99
sS'PackageName'
p100
S'com.xp.tugele'
p101
sS'OutBounds'
p102
S'Rect(0, 52 - 720, 1175)'
p103
sS'Action'
p104
S'[ ClassName: android.widget.ListView; Text: []; ContentDescription: null; ItemCount: 20; CurrentItemIndex: -1; IsEnabled: true; IsPassword: false; IsChecked: false; IsFullScreen: false; Scrollable: true; BeforeText: null; FromIndex: 1; ToIndex: 3; ScrollX: -1; ScrollY: -1; MaxScrollX: -1; MaxScrollY: -1; AddedCount: -1; RemovedCount: -1; ParcelableData: null ]'
p105
sS'MovementGranularity'
p106
g6
sa(dp107
S'EventTime'
p108
S'66548798'
p109
sg4
L1449974667805L
sS'recordCount'
p110
g6
sS'EventType'
p111
S'TYPE_VIEW_SCROLLED'
p112
sS'PackageName'
p113
S'com.xp.tugele'
p114
sS'OutBounds'
p115
S'Rect(0, 52 - 720, 1175)'
p116
sS'Action'
p117
S'[ ClassName: android.widget.ListView; Text: []; ContentDescription: null; ItemCount: 20; CurrentItemIndex: -1; IsEnabled: true; IsPassword: false; IsChecked: false; IsFullScreen: false; Scrollable: true; BeforeText: null; FromIndex: 5; ToIndex: 7; ScrollX: -1; ScrollY: -1; MaxScrollX: -1; MaxScrollY: -1; AddedCount: -1; RemovedCount: -1; ParcelableData: null ]'
p118
sS'MovementGranularity'
p119
g6
sa(dp120
S'EventTime'
p121
S'66548799'
p122
sg4
L1449974667826L
sS'recordCount'
p123
g6
sS'EventType'
p124
S'TYPE_WINDOW_CONTENT_CHANGED'
p125
sS'PackageName'
p126
S'com.xp.tugele'
p127
sS'OutBounds'
p128
S'Rect(0, 0 - 720, 1280)'
p129
sS'Action'
p130
S'[ ClassName: android.widget.FrameLayout; Text: []; ContentDescription: null; ItemCount: -1; CurrentItemIndex: -1; IsEnabled: true; IsPassword: false; IsChecked: false; IsFullScreen: false; Scrollable: false; BeforeText: null; FromIndex: -1; ToIndex: -1; ScrollX: -1; ScrollY: -1; MaxScrollX: -1; MaxScrollY: -1; AddedCount: -1; RemovedCount: -1; ParcelableData: null ]'
p131
sS'MovementGranularity'
p132
g6
sa(dp133
S'EventTime'
p134
S'66548957'
p135
sg4
L1449974667995L
sS'recordCount'
p136
g6
sS'EventType'
p137
S'TYPE_VIEW_SCROLLED'
p138
sS'PackageName'
p139
S'com.xp.tugele'
p140
sS'OutBounds'
p141
S'Rect(0, 52 - 720, 1175)'
p142
sS'Action'
p143
S'[ ClassName: android.widget.ListView; Text: []; ContentDescription: null; ItemCount: 20; CurrentItemIndex: -1; IsEnabled: true; IsPassword: false; IsChecked: false; IsFullScreen: false; Scrollable: true; BeforeText: null; FromIndex: 11; ToIndex: 13; ScrollX: -1; ScrollY: -1; MaxScrollX: -1; MaxScrollY: -1; AddedCount: -1; RemovedCount: -1; ParcelableData: null ]'
p144
sS'MovementGranularity'
p145
g6
sa(dp146
S'EventTime'
p147
S'66549127'
p148
sg4
L1449974668120L
sS'recordCount'
p149
g6
sS'EventType'
p150
S'TYPE_VIEW_SCROLLED'
p151
sS'PackageName'
p152
S'com.xp.tugele'
p153
sS'OutBounds'
p154
S'Rect(0, 52 - 720, 1175)'
p155
sS'Action'
p156
S'[ ClassName: android.widget.ListView; Text: []; ContentDescription: null; ItemCount: 20; CurrentItemIndex: -1; IsEnabled: true; IsPassword: false; IsChecked: false; IsFullScreen: false; Scrollable: true; BeforeText: null; FromIndex: 16; ToIndex: 18; ScrollX: -1; ScrollY: -1; MaxScrollX: -1; MaxScrollY: -1; AddedCount: -1; RemovedCount: -1; ParcelableData: null ]'
p157
sS'MovementGranularity'
p158
g6
sa(dp159
S'EventTime'
p160
S'66549274'
p161
sg4
L1449974668261L
sS'recordCount'
p162
g6
sS'EventType'
p163
S'TYPE_VIEW_SCROLLED'
p164
sS'PackageName'
p165
S'com.xp.tugele'
p166
sS'OutBounds'
p167
S'Rect(0, 52 - 720, 1175)'
p168
sS'Action'
p169
S'[ ClassName: android.widget.ListView; Text: []; ContentDescription: null; ItemCount: 20; CurrentItemIndex: -1; IsEnabled: true; IsPassword: false; IsChecked: false; IsFullScreen: false; Scrollable: true; BeforeText: null; FromIndex: 17; ToIndex: 19; ScrollX: -1; ScrollY: -1; MaxScrollX: -1; MaxScrollY: -1; AddedCount: -1; RemovedCount: -1; ParcelableData: null ]'
p170
sS'MovementGranularity'
p171
g6
sa(dp172
S'EventTime'
p173
S'66552448'
p174
sg4
L1449974671566L
sS'recordCount'
p175
g6
sS'EventType'
p176
S'TYPE_WINDOW_CONTENT_CHANGED'
p177
sS'PackageName'
p178
S'com.xp.tugele'
p179
sS'OutBounds'
p180
S'Rect(0, 0 - 720, 1280)'
p181
sS'Action'
p182
S'[ ClassName: android.widget.FrameLayout; Text: []; ContentDescription: null; ItemCount: -1; CurrentItemIndex: -1; IsEnabled: true; IsPassword: false; IsChecked: false; IsFullScreen: false; Scrollable: false; BeforeText: null; FromIndex: -1; ToIndex: -1; ScrollX: -1; ScrollY: -1; MaxScrollX: -1; MaxScrollY: -1; AddedCount: -1; RemovedCount: -1; ParcelableData: null ]'
p183
sS'MovementGranularity'
p184
g6
sa(dp185
S'EventTime'
p186
S'66552462'
p187
sg4
L1449974671567L
sS'recordCount'
p188
S'1'
p189
sS'EventType'
p190
S'TYPE_VIEW_CLICKED'
p191
sS'PackageName'
p192
S'com.xp.tugele'
p193
sS'OutBounds'
p194
S'Rect(364, 699 - 604, 1132)'
p195
sS'Action'
p196
S'[ ClassName: android.widget.LinearLayout; Text: [\xe5\xb7\xa5\xe4\xbd\x9c\xe9\x82\xa3\xe7\x82\xb9\xe4\xba\x8b]; ContentDescription: null; ItemCount: -1; CurrentItemIndex: -1; IsEnabled: true; IsPassword: false; IsChecked: false; IsFullScreen: false; Scrollable: false; BeforeText: null; FromIndex: -1; ToIndex: -1; ScrollX: -1; ScrollY: -1; MaxScrollX: -1; MaxScrollY: -1; AddedCount: -1; RemovedCount: -1; ParcelableData: null ]'
p197
sS'MovementGranularity'
p198
g6
sa(dp199
S'EventTime'
p200
S'66552876'
p201
sg4
L1449974671842L
sS'recordCount'
p202
g6
sS'EventType'
p203
S'TYPE_WINDOW_STATE_CHANGED'
p204
sS'PackageName'
p205
S'com.xp.tugele'
p206
sS'OutBounds'
p207
S'Rect(0, 0 - 720, 1280)'
p208
sS'Action'
p209
S'[ ClassName: com.xp.ui.activity.HotDetailsActivity; Text: [ClassifyImageActivity]; ContentDescription: null; ItemCount: -1; CurrentItemIndex: -1; IsEnabled: true; IsPassword: false; IsChecked: false; IsFullScreen: true; Scrollable: false; BeforeText: null; FromIndex: -1; ToIndex: -1; ScrollX: -1; ScrollY: -1; MaxScrollX: -1; MaxScrollY: -1; AddedCount: -1; RemovedCount: -1; ParcelableData: null ]'
p210
sS'MovementGranularity'
p211
g6
sa(dp212
S'EventTime'
p213
S'66552911'
p214
sg4
L1449974671990L
sS'recordCount'
p215
g6
sS'EventType'
p216
S'TYPE_WINDOW_CONTENT_CHANGED'
p217
sS'PackageName'
p218
S'com.xp.tugele'
p219
sS'OutBounds'
p220
S'Rect(0, 0 - 720, 1280)'
p221
sS'Action'
p222
S'[ ClassName: android.widget.FrameLayout; Text: []; ContentDescription: null; ItemCount: -1; CurrentItemIndex: -1; IsEnabled: true; IsPassword: false; IsChecked: false; IsFullScreen: false; Scrollable: false; BeforeText: null; FromIndex: -1; ToIndex: -1; ScrollX: -1; ScrollY: -1; MaxScrollX: -1; MaxScrollY: -1; AddedCount: -1; RemovedCount: -1; ParcelableData: null ]'
p223
sS'MovementGranularity'
p224
g6
sa(dp225
S'EventTime'
p226
S'66553291'
p227
sg4
L1449974672277L
sS'recordCount'
p228
g6
sS'EventType'
p229
S'TYPE_WINDOW_CONTENT_CHANGED'
p230
sS'PackageName'
p231
S'com.xp.tugele'
p232
sS'OutBounds'
p233
S'Rect(0, 0 - 720, 1280)'
p234
sS'Action'
p235
S'[ ClassName: android.widget.FrameLayout; Text: []; ContentDescription: null; ItemCount: -1; CurrentItemIndex: -1; IsEnabled: true; IsPassword: false; IsChecked: false; IsFullScreen: false; Scrollable: false; BeforeText: null; FromIndex: -1; ToIndex: -1; ScrollX: -1; ScrollY: -1; MaxScrollX: -1; MaxScrollY: -1; AddedCount: -1; RemovedCount: -1; ParcelableData: null ]'
p236
sS'MovementGranularity'
p237
g6
sa(dp238
S'EventTime'
p239
S'66554142'
p240
sg4
L1449974673100L
sS'recordCount'
p241
g6
sS'EventType'
p242
S'TYPE_VIEW_CLICKED'
p243
sS'PackageName'
p244
S'com.xp.tugele'
p245
sS'OutBounds'
p246
S'Rect(8, 154 - 356, 644)'
p247
sS'Action'
p248
S'[ ClassName: android.widget.ImageView; Text: []; ContentDescription: null; ItemCount: -1; CurrentItemIndex: -1; IsEnabled: true; IsPassword: false; IsChecked: false; IsFullScreen: false; Scrollable: false; BeforeText: null; FromIndex: -1; ToIndex: -1; ScrollX: -1; ScrollY: -1; MaxScrollX: -1; MaxScrollY: -1; AddedCount: -1; RemovedCount: -1; ParcelableData: null ]'
p249
sS'MovementGranularity'
p250
g6
sa(dp251
S'EventTime'
p252
S'66554350'
p253
sg4
L1449974673319L
sS'recordCount'
p254
g6
sS'EventType'
p255
S'TYPE_WINDOW_STATE_CHANGED'
p256
sS'PackageName'
p257
S'com.xp.tugele'
p258
sS'OutBounds'
p259
S'Rect(0, 0 - 720, 1280)'
p260
sS'Action'
p261
S'[ ClassName: com.xp.ui.activity.ImageScanningActivity; Text: [\xe5\x9b\xbe\xe4\xb8\xaa\xe4\xb9\x90]; ContentDescription: null; ItemCount: -1; CurrentItemIndex: -1; IsEnabled: true; IsPassword: false; IsChecked: false; IsFullScreen: true; Scrollable: false; BeforeText: null; FromIndex: -1; ToIndex: -1; ScrollX: -1; ScrollY: -1; MaxScrollX: -1; MaxScrollY: -1; AddedCount: -1; RemovedCount: -1; ParcelableData: null ]'
p262
sS'MovementGranularity'
p263
g6
sa(dp264
S'EventTime'
p265
S'66554408'
p266
sg4
L1449974673372L
sS'recordCount'
p267
g6
sS'EventType'
p268
S'TYPE_WINDOW_CONTENT_CHANGED'
p269
sS'PackageName'
p270
S'com.xp.tugele'
p271
sS'OutBounds'
p272
S'Rect(0, 0 - 720, 1280)'
p273
sS'Action'
p274
S'[ ClassName: android.widget.FrameLayout; Text: []; ContentDescription: null; ItemCount: -1; CurrentItemIndex: -1; IsEnabled: true; IsPassword: false; IsChecked: false; IsFullScreen: false; Scrollable: false; BeforeText: null; FromIndex: -1; ToIndex: -1; ScrollX: -1; ScrollY: -1; MaxScrollX: -1; MaxScrollY: -1; AddedCount: -1; RemovedCount: -1; ParcelableData: null ]'
p275
sS'MovementGranularity'
p276
g6
sa(dp277
S'EventTime'
p278
S'66556182'
p279
sg4
L1449974675140L
sS'recordCount'
p280
g6
sS'EventType'
p281
S'TYPE_VIEW_CLICKED'
p282
sS'PackageName'
p283
S'com.xp.tugele'
p284
sS'OutBounds'
p285
S'Rect(0, 1190 - 359, 1280)'
p286
sS'Action'
p287
S'[ ClassName: android.widget.LinearLayout; Text: [\xe4\xb8\x8b\xe8\xbd\xbd]; ContentDescription: null; ItemCount: -1; CurrentItemIndex: -1; IsEnabled: true; IsPassword: false; IsChecked: false; IsFullScreen: false; Scrollable: false; BeforeText: null; FromIndex: -1; ToIndex: -1; ScrollX: -1; ScrollY: -1; MaxScrollX: -1; MaxScrollY: -1; AddedCount: -1; RemovedCount: -1; ParcelableData: null ]'
p288
sS'MovementGranularity'
p289
g6
sa(dp290
S'EventTime'
p291
S'66557087'
p292
sg4
L1449974676046L
sS'recordCount'
p293
g6
sS'EventType'
p294
S'TYPE_NOTIFICATION_STATE_CHANGED'
p295
sS'PackageName'
p296
S'com.xp.tugele'
p297
sS'Action'
p298
S'[ ClassName: android.widget.Toast$TN; Text: [\xe4\xb8\x8b\xe8\xbd\xbd\xe6\x88\x90\xe5\x8a\x9f]; ContentDescription: null; ItemCount: -1; CurrentItemIndex: -1; IsEnabled: false; IsPassword: false; IsChecked: false; IsFullScreen: false; Scrollable: false; BeforeText: null; FromIndex: -1; ToIndex: -1; ScrollX: -1; ScrollY: -1; MaxScrollX: -1; MaxScrollY: -1; AddedCount: -1; RemovedCount: -1; ParcelableData: null ]'
p299
sS'MovementGranularity'
p300
g6
sa(dp301
S'EventTime'
p302
S'66558432'
p303
sg4
L1449974677390L
sS'recordCount'
p304
g6
sS'EventType'
p305
S'TYPE_VIEW_CLICKED'
p306
sS'PackageName'
p307
S'com.xp.tugele'
p308
sS'OutBounds'
p309
S'Rect(361, 1190 - 720, 1280)'
p310
sS'Action'
p311
S'[ ClassName: android.widget.LinearLayout; Text: [\xe5\x88\x86\xe4\xba\xab]; ContentDescription: null; ItemCount: -1; CurrentItemIndex: -1; IsEnabled: true; IsPassword: false; IsChecked: false; IsFullScreen: false; Scrollable: false; BeforeText: null; FromIndex: -1; ToIndex: -1; ScrollX: -1; ScrollY: -1; MaxScrollX: -1; MaxScrollY: -1; AddedCount: -1; RemovedCount: -1; ParcelableData: null ]'
p312
sS'MovementGranularity'
p313
g6
sa(dp314
S'EventTime'
p315
S'66558740'
p316
sg4
L1449974677707L
sS'recordCount'
p317
g6
sS'EventType'
p318
S'TYPE_VIEW_SCROLLED'
p319
sS'PackageName'
p320
S'com.xp.tugele'
p321
sS'OutBounds'
p322
S'Rect(40, 481 - 680, 823)'
p323
sS'Action'
p324
S'[ ClassName: android.widget.GridView; Text: []; ContentDescription: null; ItemCount: 5; CurrentItemIndex: -1; IsEnabled: true; IsPassword: false; IsChecked: false; IsFullScreen: false; Scrollable: false; BeforeText: null; FromIndex: 0; ToIndex: 4; ScrollX: -1; ScrollY: -1; MaxScrollX: -1; MaxScrollY: -1; AddedCount: -1; RemovedCount: -1; ParcelableData: null ]'
p325
sS'MovementGranularity'
p326
g6
sa(dp327
S'EventTime'
p328
S'66559565'
p329
sg4
L1449974678523L
sS'recordCount'
p330
g6
sS'EventType'
p331
S'TYPE_VIEW_CLICKED'
p332
sS'PackageName'
p333
S'com.xp.tugele'
p334
sS'OutBounds'
p335
S'Rect(316, 823 - 404, 911)'
p336
sS'Action'
p337
S'[ ClassName: android.widget.ImageView; Text: []; ContentDescription: null; ItemCount: -1; CurrentItemIndex: -1; IsEnabled: true; IsPassword: false; IsChecked: false; IsFullScreen: false; Scrollable: false; BeforeText: null; FromIndex: -1; ToIndex: -1; ScrollX: -1; ScrollY: -1; MaxScrollX: -1; MaxScrollY: -1; AddedCount: -1; RemovedCount: -1; ParcelableData: null ]'
p338
sS'MovementGranularity'
p339
g6
sa(dp340
S'EventTime'
p341
S'66559598'
p342
sg4
L1449974678564L
sS'recordCount'
p343
g6
sS'EventType'
p344
S'TYPE_WINDOW_STATE_CHANGED'
p345
sS'PackageName'
p346
S'com.xp.tugele'
p347
sS'OutBounds'
p348
S'Rect(0, 0 - 720, 1280)'
p349
sS'Action'
p350
S'[ ClassName: com.xp.ui.activity.ImageScanningActivity; Text: [\xe5\x9b\xbe\xe4\xb8\xaa\xe4\xb9\x90]; ContentDescription: null; ItemCount: -1; CurrentItemIndex: -1; IsEnabled: true; IsPassword: false; IsChecked: false; IsFullScreen: true; Scrollable: false; BeforeText: null; FromIndex: -1; ToIndex: -1; ScrollX: -1; ScrollY: -1; MaxScrollX: -1; MaxScrollY: -1; AddedCount: -1; RemovedCount: -1; ParcelableData: null ]'
p351
sS'MovementGranularity'
p352
g6
sa(dp353
S'EventTime'
p354
S'66559695'
p355
sg4
L1449974678660L
sS'recordCount'
p356
g6
sS'EventType'
p357
S'TYPE_WINDOW_CONTENT_CHANGED'
p358
sS'PackageName'
p359
S'com.xp.tugele'
p360
sS'OutBounds'
p361
S'Rect(0, 0 - 720, 1280)'
p362
sS'Action'
p363
S'[ ClassName: android.widget.FrameLayout; Text: []; ContentDescription: null; ItemCount: -1; CurrentItemIndex: -1; IsEnabled: true; IsPassword: false; IsChecked: false; IsFullScreen: false; Scrollable: false; BeforeText: null; FromIndex: -1; ToIndex: -1; ScrollX: -1; ScrollY: -1; MaxScrollX: -1; MaxScrollY: -1; AddedCount: -1; RemovedCount: -1; ParcelableData: null ]'
p364
sS'MovementGranularity'
p365
g6
sa(dp366
S'EventTime'
p367
S'66560418'
p368
sg4
L1449974679382L
sS'recordCount'
p369
g6
sS'EventType'
p370
S'TYPE_VIEW_SCROLLED'
p371
sS'PackageName'
p372
S'com.xp.tugele'
p373
sS'OutBounds'
p374
S'Rect(0, 50 - 720, 1280)'
p375
sS'Action'
p376
S'[ ClassName: android.support.v4.view.ViewPager; Text: []; ContentDescription: null; ItemCount: -1; CurrentItemIndex: -1; IsEnabled: true; IsPassword: false; IsChecked: false; IsFullScreen: false; Scrollable: false; BeforeText: null; FromIndex: -1; ToIndex: -1; ScrollX: -1; ScrollY: -1; MaxScrollX: -1; MaxScrollY: -1; AddedCount: -1; RemovedCount: -1; ParcelableData: null ]'
p377
sS'MovementGranularity'
p378
g6
sa(dp379
S'EventTime'
p380
S'66560535'
p381
sg4
L1449974679501L
sS'recordCount'
p382
g6
sS'EventType'
p383
S'TYPE_VIEW_SCROLLED'
p384
sS'PackageName'
p385
S'com.xp.tugele'
p386
sS'OutBounds'
p387
S'Rect(0, 50 - 720, 1280)'
p388
sS'Action'
p389
S'[ ClassName: android.support.v4.view.ViewPager; Text: []; ContentDescription: null; ItemCount: -1; CurrentItemIndex: -1; IsEnabled: true; IsPassword: false; IsChecked: false; IsFullScreen: false; Scrollable: false; BeforeText: null; FromIndex: -1; ToIndex: -1; ScrollX: -1; ScrollY: -1; MaxScrollX: -1; MaxScrollY: -1; AddedCount: -1; RemovedCount: -1; ParcelableData: null ]'
p390
sS'MovementGranularity'
p391
g6
sa(dp392
S'EventTime'
p393
S'66560653'
p394
sg4
L1449974679620L
sS'recordCount'
p395
g6
sS'EventType'
p396
S'TYPE_VIEW_SCROLLED'
p397
sS'PackageName'
p398
S'com.xp.tugele'
p399
sS'OutBounds'
p400
S'Rect(0, 50 - 720, 1280)'
p401
sS'Action'
p402
S'[ ClassName: android.support.v4.view.ViewPager; Text: []; ContentDescription: null; ItemCount: -1; CurrentItemIndex: -1; IsEnabled: true; IsPassword: false; IsChecked: false; IsFullScreen: false; Scrollable: false; BeforeText: null; FromIndex: -1; ToIndex: -1; ScrollX: -1; ScrollY: -1; MaxScrollX: -1; MaxScrollY: -1; AddedCount: -1; RemovedCount: -1; ParcelableData: null ]'
p403
sS'MovementGranularity'
p404
g6
sa(dp405
S'EventTime'
p406
S'66560673'
p407
sg4
L1449974679638L
sS'recordCount'
p408
g6
sS'EventType'
p409
S'TYPE_WINDOW_CONTENT_CHANGED'
p410
sS'PackageName'
p411
S'com.xp.tugele'
p412
sS'OutBounds'
p413
S'Rect(0, 0 - 720, 1280)'
p414
sS'Action'
p415
S'[ ClassName: android.widget.FrameLayout; Text: []; ContentDescription: null; ItemCount: -1; CurrentItemIndex: -1; IsEnabled: true; IsPassword: false; IsChecked: false; IsFullScreen: false; Scrollable: false; BeforeText: null; FromIndex: -1; ToIndex: -1; ScrollX: -1; ScrollY: -1; MaxScrollX: -1; MaxScrollY: -1; AddedCount: -1; RemovedCount: -1; ParcelableData: null ]'
p416
sS'MovementGranularity'
p417
g6
sa(dp418
S'EventTime'
p419
S'66560767'
p420
sg4
L1449974679734L
sS'recordCount'
p421
g6
sS'EventType'
p422
S'TYPE_VIEW_SCROLLED'
p423
sS'PackageName'
p424
S'com.xp.tugele'
p425
sS'OutBounds'
p426
S'Rect(0, 50 - 720, 1280)'
p427
sS'Action'
p428
S'[ ClassName: android.support.v4.view.ViewPager; Text: []; ContentDescription: null; ItemCount: -1; CurrentItemIndex: -1; IsEnabled: true; IsPassword: false; IsChecked: false; IsFullScreen: false; Scrollable: false; BeforeText: null; FromIndex: -1; ToIndex: -1; ScrollX: -1; ScrollY: -1; MaxScrollX: -1; MaxScrollY: -1; AddedCount: -1; RemovedCount: -1; ParcelableData: null ]'
p429
sS'MovementGranularity'
p430
g6
sa(dp431
S'EventTime'
p432
S'66560888'
p433
sg4
L1449974679857L
sS'recordCount'
p434
g6
sS'EventType'
p435
S'TYPE_VIEW_SCROLLED'
p436
sS'PackageName'
p437
S'com.xp.tugele'
p438
sS'OutBounds'
p439
S'Rect(0, 50 - 720, 1280)'
p440
sS'Action'
p441
S'[ ClassName: android.support.v4.view.ViewPager; Text: []; ContentDescription: null; ItemCount: -1; CurrentItemIndex: -1; IsEnabled: true; IsPassword: false; IsChecked: false; IsFullScreen: false; Scrollable: false; BeforeText: null; FromIndex: -1; ToIndex: -1; ScrollX: -1; ScrollY: -1; MaxScrollX: -1; MaxScrollY: -1; AddedCount: -1; RemovedCount: -1; ParcelableData: null ]'
p442
sS'MovementGranularity'
p443
g6
sa(dp444
S'EventTime'
p445
S'66560935'
p446
sg4
L1449974679903L
sS'recordCount'
p447
g6
sS'EventType'
p448
S'TYPE_WINDOW_CONTENT_CHANGED'
p449
sS'PackageName'
p450
S'com.xp.tugele'
p451
sS'OutBounds'
p452
S'Rect(0, 0 - 720, 1280)'
p453
sS'Action'
p454
S'[ ClassName: android.widget.FrameLayout; Text: []; ContentDescription: null; ItemCount: -1; CurrentItemIndex: -1; IsEnabled: true; IsPassword: false; IsChecked: false; IsFullScreen: false; Scrollable: false; BeforeText: null; FromIndex: -1; ToIndex: -1; ScrollX: -1; ScrollY: -1; MaxScrollX: -1; MaxScrollY: -1; AddedCount: -1; RemovedCount: -1; ParcelableData: null ]'
p455
sS'MovementGranularity'
p456
g6
sa(dp457
S'EventTime'
p458
S'66560999'
p459
sg4
L1449974679968L
sS'recordCount'
p460
g6
sS'EventType'
p461
S'TYPE_VIEW_SCROLLED'
p462
sS'PackageName'
p463
S'com.xp.tugele'
p464
sS'OutBounds'
p465
S'Rect(0, 50 - 720, 1280)'
p466
sS'Action'
p467
S'[ ClassName: android.support.v4.view.ViewPager; Text: []; ContentDescription: null; ItemCount: -1; CurrentItemIndex: -1; IsEnabled: true; IsPassword: false; IsChecked: false; IsFullScreen: false; Scrollable: false; BeforeText: null; FromIndex: -1; ToIndex: -1; ScrollX: -1; ScrollY: -1; MaxScrollX: -1; MaxScrollY: -1; AddedCount: -1; RemovedCount: -1; ParcelableData: null ]'
p468
sS'MovementGranularity'
p469
g6
sa(dp470
S'EventTime'
p471
S'66561118'
p472
sg4
L1449974680087L
sS'recordCount'
p473
g6
sS'EventType'
p474
S'TYPE_WINDOW_CONTENT_CHANGED'
p475
sS'PackageName'
p476
S'com.xp.tugele'
p477
sS'OutBounds'
p478
S'Rect(0, 0 - 720, 1280)'
p479
sS'Action'
p480
S'[ ClassName: android.widget.FrameLayout; Text: []; ContentDescription: null; ItemCount: -1; CurrentItemIndex: -1; IsEnabled: true; IsPassword: false; IsChecked: false; IsFullScreen: false; Scrollable: false; BeforeText: null; FromIndex: -1; ToIndex: -1; ScrollX: -1; ScrollY: -1; MaxScrollX: -1; MaxScrollY: -1; AddedCount: -1; RemovedCount: -1; ParcelableData: null ]'
p481
sS'MovementGranularity'
p482
g6
sa(dp483
S'EventTime'
p484
S'66561191'
p485
sg4
L1449974680158L
sS'recordCount'
p486
g6
sS'EventType'
p487
S'TYPE_VIEW_SCROLLED'
p488
sS'PackageName'
p489
S'com.xp.tugele'
p490
sS'OutBounds'
p491
S'Rect(0, 50 - 720, 1280)'
p492
sS'Action'
p493
S'[ ClassName: android.support.v4.view.ViewPager; Text: []; ContentDescription: null; ItemCount: -1; CurrentItemIndex: -1; IsEnabled: true; IsPassword: false; IsChecked: false; IsFullScreen: false; Scrollable: false; BeforeText: null; FromIndex: -1; ToIndex: -1; ScrollX: -1; ScrollY: -1; MaxScrollX: -1; MaxScrollY: -1; AddedCount: -1; RemovedCount: -1; ParcelableData: null ]'
p494
sS'MovementGranularity'
p495
g6
sa(dp496
S'EventTime'
p497
S'66561351'
p498
sg4
L1449974680316L
sS'recordCount'
p499
g6
sS'EventType'
p500
S'TYPE_WINDOW_CONTENT_CHANGED'
p501
sS'PackageName'
p502
S'com.xp.tugele'
p503
sS'OutBounds'
p504
S'Rect(0, 0 - 720, 1280)'
p505
sS'Action'
p506
S'[ ClassName: android.widget.FrameLayout; Text: []; ContentDescription: null; ItemCount: -1; CurrentItemIndex: -1; IsEnabled: true; IsPassword: false; IsChecked: false; IsFullScreen: false; Scrollable: false; BeforeText: null; FromIndex: -1; ToIndex: -1; ScrollX: -1; ScrollY: -1; MaxScrollX: -1; MaxScrollY: -1; AddedCount: -1; RemovedCount: -1; ParcelableData: null ]'
p507
sS'MovementGranularity'
p508
g6
sa(dp509
S'EventTime'
p510
S'66561387'
p511
sg4
L1449974680351L
sS'recordCount'
p512
g6
sS'EventType'
p513
S'TYPE_VIEW_SCROLLED'
p514
sS'PackageName'
p515
S'com.xp.tugele'
p516
sS'OutBounds'
p517
S'Rect(0, 50 - 720, 1280)'
p518
sS'Action'
p519
S'[ ClassName: android.support.v4.view.ViewPager; Text: []; ContentDescription: null; ItemCount: -1; CurrentItemIndex: -1; IsEnabled: true; IsPassword: false; IsChecked: false; IsFullScreen: false; Scrollable: false; BeforeText: null; FromIndex: -1; ToIndex: -1; ScrollX: -1; ScrollY: -1; MaxScrollX: -1; MaxScrollY: -1; AddedCount: -1; RemovedCount: -1; ParcelableData: null ]'
p520
sS'MovementGranularity'
p521
g6
sa(dp522
S'EventTime'
p523
S'66561546'
p524
sg4
L1449974680515L
sS'recordCount'
p525
g6
sS'EventType'
p526
S'TYPE_WINDOW_CONTENT_CHANGED'
p527
sS'PackageName'
p528
S'com.xp.tugele'
p529
sS'OutBounds'
p530
S'Rect(0, 0 - 720, 1280)'
p531
sS'Action'
p532
S'[ ClassName: android.widget.FrameLayout; Text: []; ContentDescription: null; ItemCount: -1; CurrentItemIndex: -1; IsEnabled: true; IsPassword: false; IsChecked: false; IsFullScreen: false; Scrollable: false; BeforeText: null; FromIndex: -1; ToIndex: -1; ScrollX: -1; ScrollY: -1; MaxScrollX: -1; MaxScrollY: -1; AddedCount: -1; RemovedCount: -1; ParcelableData: null ]'
p533
sS'MovementGranularity'
p534
g6
sa(dp535
S'EventTime'
p536
S'66561586'
p537
sg4
L1449974680552L
sS'recordCount'
p538
g6
sS'EventType'
p539
S'TYPE_VIEW_SCROLLED'
p540
sS'PackageName'
p541
S'com.xp.tugele'
p542
sS'OutBounds'
p543
S'Rect(0, 50 - 720, 1280)'
p544
sS'Action'
p545
S'[ ClassName: android.support.v4.view.ViewPager; Text: []; ContentDescription: null; ItemCount: -1; CurrentItemIndex: -1; IsEnabled: true; IsPassword: false; IsChecked: false; IsFullScreen: false; Scrollable: false; BeforeText: null; FromIndex: -1; ToIndex: -1; ScrollX: -1; ScrollY: -1; MaxScrollX: -1; MaxScrollY: -1; AddedCount: -1; RemovedCount: -1; ParcelableData: null ]'
p546
sS'MovementGranularity'
p547
g6
sa(dp548
S'EventTime'
p549
S'66561744'
p550
sg4
L1449974680711L
sS'recordCount'
p551
g6
sS'EventType'
p552
S'TYPE_WINDOW_CONTENT_CHANGED'
p553
sS'PackageName'
p554
S'com.xp.tugele'
p555
sS'OutBounds'
p556
S'Rect(0, 0 - 720, 1280)'
p557
sS'Action'
p558
S'[ ClassName: android.widget.FrameLayout; Text: []; ContentDescription: null; ItemCount: -1; CurrentItemIndex: -1; IsEnabled: true; IsPassword: false; IsChecked: false; IsFullScreen: false; Scrollable: false; BeforeText: null; FromIndex: -1; ToIndex: -1; ScrollX: -1; ScrollY: -1; MaxScrollX: -1; MaxScrollY: -1; AddedCount: -1; RemovedCount: -1; ParcelableData: null ]'
p559
sS'MovementGranularity'
p560
g6
sa(dp561
S'EventTime'
p562
S'66561783'
p563
sg4
L1449974680763L
sS'recordCount'
p564
g6
sS'EventType'
p565
S'TYPE_VIEW_SCROLLED'
p566
sS'PackageName'
p567
S'com.xp.tugele'
p568
sS'OutBounds'
p569
S'Rect(0, 50 - 720, 1280)'
p570
sS'Action'
p571
S'[ ClassName: android.support.v4.view.ViewPager; Text: []; ContentDescription: null; ItemCount: -1; CurrentItemIndex: -1; IsEnabled: true; IsPassword: false; IsChecked: false; IsFullScreen: false; Scrollable: false; BeforeText: null; FromIndex: -1; ToIndex: -1; ScrollX: -1; ScrollY: -1; MaxScrollX: -1; MaxScrollY: -1; AddedCount: -1; RemovedCount: -1; ParcelableData: null ]'
p572
sS'MovementGranularity'
p573
g6
sa(dp574
S'EventTime'
p575
S'66561936'
p576
sg4
L1449974680904L
sS'recordCount'
p577
g6
sS'EventType'
p578
S'TYPE_WINDOW_CONTENT_CHANGED'
p579
sS'PackageName'
p580
S'com.xp.tugele'
p581
sS'OutBounds'
p582
S'Rect(0, 0 - 720, 1280)'
p583
sS'Action'
p584
S'[ ClassName: android.widget.FrameLayout; Text: []; ContentDescription: null; ItemCount: -1; CurrentItemIndex: -1; IsEnabled: true; IsPassword: false; IsChecked: false; IsFullScreen: false; Scrollable: false; BeforeText: null; FromIndex: -1; ToIndex: -1; ScrollX: -1; ScrollY: -1; MaxScrollX: -1; MaxScrollY: -1; AddedCount: -1; RemovedCount: -1; ParcelableData: null ]'
p585
sS'MovementGranularity'
p586
g6
sa(dp587
S'EventTime'
p588
S'66561964'
p589
sg4
L1449974680930L
sS'recordCount'
p590
g6
sS'EventType'
p591
S'TYPE_VIEW_SCROLLED'
p592
sS'PackageName'
p593
S'com.xp.tugele'
p594
sS'OutBounds'
p595
S'Rect(0, 50 - 720, 1280)'
p596
sS'Action'
p597
S'[ ClassName: android.support.v4.view.ViewPager; Text: []; ContentDescription: null; ItemCount: -1; CurrentItemIndex: -1; IsEnabled: true; IsPassword: false; IsChecked: false; IsFullScreen: false; Scrollable: false; BeforeText: null; FromIndex: -1; ToIndex: -1; ScrollX: -1; ScrollY: -1; MaxScrollX: -1; MaxScrollY: -1; AddedCount: -1; RemovedCount: -1; ParcelableData: null ]'
p598
sS'MovementGranularity'
p599
g6
sa(dp600
S'EventTime'
p601
S'66562121'
p602
sg4
L1449974681106L
sS'recordCount'
p603
g6
sS'EventType'
p604
S'TYPE_WINDOW_CONTENT_CHANGED'
p605
sS'PackageName'
p606
S'com.xp.tugele'
p607
sS'OutBounds'
p608
S'Rect(0, 0 - 720, 1280)'
p609
sS'Action'
p610
S'[ ClassName: android.widget.FrameLayout; Text: []; ContentDescription: null; ItemCount: -1; CurrentItemIndex: -1; IsEnabled: true; IsPassword: false; IsChecked: false; IsFullScreen: false; Scrollable: false; BeforeText: null; FromIndex: -1; ToIndex: -1; ScrollX: -1; ScrollY: -1; MaxScrollX: -1; MaxScrollY: -1; AddedCount: -1; RemovedCount: -1; ParcelableData: null ]'
p611
sS'MovementGranularity'
p612
g6
sa(dp613
S'EventTime'
p614
S'66562162'
p615
sg4
L1449974681127L
sS'recordCount'
p616
g6
sS'EventType'
p617
S'TYPE_VIEW_SCROLLED'
p618
sS'PackageName'
p619
S'com.xp.tugele'
p620
sS'OutBounds'
p621
S'Rect(0, 50 - 720, 1280)'
p622
sS'Action'
p623
S'[ ClassName: android.support.v4.view.ViewPager; Text: []; ContentDescription: null; ItemCount: -1; CurrentItemIndex: -1; IsEnabled: true; IsPassword: false; IsChecked: false; IsFullScreen: false; Scrollable: false; BeforeText: null; FromIndex: -1; ToIndex: -1; ScrollX: -1; ScrollY: -1; MaxScrollX: -1; MaxScrollY: -1; AddedCount: -1; RemovedCount: -1; ParcelableData: null ]'
p624
sS'MovementGranularity'
p625
g6
sa(dp626
S'EventTime'
p627
S'66562278'
p628
sg4
L1449974681244L
sS'recordCount'
p629
g6
sS'EventType'
p630
S'TYPE_VIEW_SCROLLED'
p631
sS'PackageName'
p632
S'com.xp.tugele'
p633
sS'OutBounds'
p634
S'Rect(0, 50 - 720, 1280)'
p635
sS'Action'
p636
S'[ ClassName: android.support.v4.view.ViewPager; Text: []; ContentDescription: null; ItemCount: -1; CurrentItemIndex: -1; IsEnabled: true; IsPassword: false; IsChecked: false; IsFullScreen: false; Scrollable: false; BeforeText: null; FromIndex: -1; ToIndex: -1; ScrollX: -1; ScrollY: -1; MaxScrollX: -1; MaxScrollY: -1; AddedCount: -1; RemovedCount: -1; ParcelableData: null ]'
p637
sS'MovementGranularity'
p638
g6
sa(dp639
S'EventTime'
p640
S'66562336'
p641
sg4
L1449974681309L
sS'recordCount'
p642
g6
sS'EventType'
p643
S'TYPE_WINDOW_CONTENT_CHANGED'
p644
sS'PackageName'
p645
S'com.xp.tugele'
p646
sS'OutBounds'
p647
S'Rect(0, 0 - 720, 1280)'
p648
sS'Action'
p649
S'[ ClassName: android.widget.FrameLayout; Text: []; ContentDescription: null; ItemCount: -1; CurrentItemIndex: -1; IsEnabled: true; IsPassword: false; IsChecked: false; IsFullScreen: false; Scrollable: false; BeforeText: null; FromIndex: -1; ToIndex: -1; ScrollX: -1; ScrollY: -1; MaxScrollX: -1; MaxScrollY: -1; AddedCount: -1; RemovedCount: -1; ParcelableData: null ]'
p650
sS'MovementGranularity'
p651
g6
sa(dp652
S'EventTime'
p653
S'66562386'
p654
sg4
L1449974681349L
sS'recordCount'
p655
g6
sS'EventType'
p656
S'TYPE_VIEW_SCROLLED'
p657
sS'PackageName'
p658
S'com.xp.tugele'
p659
sS'OutBounds'
p660
S'Rect(0, 50 - 720, 1280)'
p661
sS'Action'
p662
S'[ ClassName: android.support.v4.view.ViewPager; Text: []; ContentDescription: null; ItemCount: -1; CurrentItemIndex: -1; IsEnabled: true; IsPassword: false; IsChecked: false; IsFullScreen: false; Scrollable: false; BeforeText: null; FromIndex: -1; ToIndex: -1; ScrollX: -1; ScrollY: -1; MaxScrollX: -1; MaxScrollY: -1; AddedCount: -1; RemovedCount: -1; ParcelableData: null ]'
p663
sS'MovementGranularity'
p664
g6
sa(dp665
S'EventTime'
p666
S'66562514'
p667
sg4
L1449974681477L
sS'recordCount'
p668
g6
sS'EventType'
p669
S'TYPE_WINDOW_CONTENT_CHANGED'
p670
sS'PackageName'
p671
S'com.xp.tugele'
p672
sS'OutBounds'
p673
S'Rect(0, 0 - 720, 1280)'
p674
sS'Action'
p675
S'[ ClassName: android.widget.FrameLayout; Text: []; ContentDescription: null; ItemCount: -1; CurrentItemIndex: -1; IsEnabled: true; IsPassword: false; IsChecked: false; IsFullScreen: false; Scrollable: false; BeforeText: null; FromIndex: -1; ToIndex: -1; ScrollX: -1; ScrollY: -1; MaxScrollX: -1; MaxScrollY: -1; AddedCount: -1; RemovedCount: -1; ParcelableData: null ]'
p676
sS'MovementGranularity'
p677
g6
sa(dp678
S'EventTime'
p679
S'66562555'
p680
sg4
L1449974681535L
sS'recordCount'
p681
g6
sS'EventType'
p682
S'TYPE_VIEW_SCROLLED'
p683
sS'PackageName'
p684
S'com.xp.tugele'
p685
sS'OutBounds'
p686
S'Rect(0, 50 - 720, 1280)'
p687
sS'Action'
p688
S'[ ClassName: android.support.v4.view.ViewPager; Text: []; ContentDescription: null; ItemCount: -1; CurrentItemIndex: -1; IsEnabled: true; IsPassword: false; IsChecked: false; IsFullScreen: false; Scrollable: false; BeforeText: null; FromIndex: -1; ToIndex: -1; ScrollX: -1; ScrollY: -1; MaxScrollX: -1; MaxScrollY: -1; AddedCount: -1; RemovedCount: -1; ParcelableData: null ]'
p689
sS'MovementGranularity'
p690
g6
sa(dp691
S'EventTime'
p692
S'66562678'
p693
sg4
L1449974681657L
sS'recordCount'
p694
g6
sS'EventType'
p695
S'TYPE_VIEW_SCROLLED'
p696
sS'PackageName'
p697
S'com.xp.tugele'
p698
sS'OutBounds'
p699
S'Rect(0, 50 - 720, 1280)'
p700
sS'Action'
p701
S'[ ClassName: android.support.v4.view.ViewPager; Text: []; ContentDescription: null; ItemCount: -1; CurrentItemIndex: -1; IsEnabled: true; IsPassword: false; IsChecked: false; IsFullScreen: false; Scrollable: false; BeforeText: null; FromIndex: -1; ToIndex: -1; ScrollX: -1; ScrollY: -1; MaxScrollX: -1; MaxScrollY: -1; AddedCount: -1; RemovedCount: -1; ParcelableData: null ]'
p702
sS'MovementGranularity'
p703
g6
sa(dp704
S'EventTime'
p705
S'66562705'
p706
sg4
L1449974681671L
sS'recordCount'
p707
g6
sS'EventType'
p708
S'TYPE_WINDOW_CONTENT_CHANGED'
p709
sS'PackageName'
p710
S'com.xp.tugele'
p711
sS'OutBounds'
p712
S'Rect(0, 0 - 720, 1280)'
p713
sS'Action'
p714
S'[ ClassName: android.widget.FrameLayout; Text: []; ContentDescription: null; ItemCount: -1; CurrentItemIndex: -1; IsEnabled: true; IsPassword: false; IsChecked: false; IsFullScreen: false; Scrollable: false; BeforeText: null; FromIndex: -1; ToIndex: -1; ScrollX: -1; ScrollY: -1; MaxScrollX: -1; MaxScrollY: -1; AddedCount: -1; RemovedCount: -1; ParcelableData: null ]'
p715
sS'MovementGranularity'
p716
g6
sa(dp717
S'EventTime'
p718
S'66562799'
p719
sg4
L1449974681764L
sS'recordCount'
p720
g6
sS'EventType'
p721
S'TYPE_VIEW_SCROLLED'
p722
sS'PackageName'
p723
S'com.xp.tugele'
p724
sS'OutBounds'
p725
S'Rect(0, 50 - 720, 1280)'
p726
sS'Action'
p727
S'[ ClassName: android.support.v4.view.ViewPager; Text: []; ContentDescription: null; ItemCount: -1; CurrentItemIndex: -1; IsEnabled: true; IsPassword: false; IsChecked: false; IsFullScreen: false; Scrollable: false; BeforeText: null; FromIndex: -1; ToIndex: -1; ScrollX: -1; ScrollY: -1; MaxScrollX: -1; MaxScrollY: -1; AddedCount: -1; RemovedCount: -1; ParcelableData: null ]'
p728
sS'MovementGranularity'
p729
g6
sa(dp730
S'EventTime'
p731
S'66562890'
p732
sg4
L1449974681857L
sS'recordCount'
p733
g6
sS'EventType'
p734
S'TYPE_WINDOW_CONTENT_CHANGED'
p735
sS'PackageName'
p736
S'com.xp.tugele'
p737
sS'OutBounds'
p738
S'Rect(0, 0 - 720, 1280)'
p739
sS'Action'
p740
S'[ ClassName: android.widget.FrameLayout; Text: []; ContentDescription: null; ItemCount: -1; CurrentItemIndex: -1; IsEnabled: true; IsPassword: false; IsChecked: false; IsFullScreen: false; Scrollable: false; BeforeText: null; FromIndex: -1; ToIndex: -1; ScrollX: -1; ScrollY: -1; MaxScrollX: -1; MaxScrollY: -1; AddedCount: -1; RemovedCount: -1; ParcelableData: null ]'
p741
sS'MovementGranularity'
p742
g6
sa(dp743
S'EventTime'
p744
S'66562918'
p745
sg4
L1449974681883L
sS'recordCount'
p746
g6
sS'EventType'
p747
S'TYPE_VIEW_SCROLLED'
p748
sS'PackageName'
p749
S'com.xp.tugele'
p750
sS'OutBounds'
p751
S'Rect(0, 50 - 720, 1280)'
p752
sS'Action'
p753
S'[ ClassName: android.support.v4.view.ViewPager; Text: []; ContentDescription: null; ItemCount: -1; CurrentItemIndex: -1; IsEnabled: true; IsPassword: false; IsChecked: false; IsFullScreen: false; Scrollable: false; BeforeText: null; FromIndex: -1; ToIndex: -1; ScrollX: -1; ScrollY: -1; MaxScrollX: -1; MaxScrollY: -1; AddedCount: -1; RemovedCount: -1; ParcelableData: null ]'
p754
sS'MovementGranularity'
p755
g6
sa(dp756
S'EventTime'
p757
S'66563035'
p758
sg4
L1449974682001L
sS'recordCount'
p759
g6
sS'EventType'
p760
S'TYPE_VIEW_SCROLLED'
p761
sS'PackageName'
p762
S'com.xp.tugele'
p763
sS'OutBounds'
p764
S'Rect(0, 50 - 720, 1280)'
p765
sS'Action'
p766
S'[ ClassName: android.support.v4.view.ViewPager; Text: []; ContentDescription: null; ItemCount: -1; CurrentItemIndex: -1; IsEnabled: true; IsPassword: false; IsChecked: false; IsFullScreen: false; Scrollable: false; BeforeText: null; FromIndex: -1; ToIndex: -1; ScrollX: -1; ScrollY: -1; MaxScrollX: -1; MaxScrollY: -1; AddedCount: -1; RemovedCount: -1; ParcelableData: null ]'
p767
sS'MovementGranularity'
p768
g6
sa(dp769
S'EventTime'
p770
S'66563088'
p771
sg4
L1449974682055L
sS'recordCount'
p772
g6
sS'EventType'
p773
S'TYPE_WINDOW_CONTENT_CHANGED'
p774
sS'PackageName'
p775
S'com.xp.tugele'
p776
sS'OutBounds'
p777
S'Rect(0, 0 - 720, 1280)'
p778
sS'Action'
p779
S'[ ClassName: android.widget.FrameLayout; Text: []; ContentDescription: null; ItemCount: -1; CurrentItemIndex: -1; IsEnabled: true; IsPassword: false; IsChecked: false; IsFullScreen: false; Scrollable: false; BeforeText: null; FromIndex: -1; ToIndex: -1; ScrollX: -1; ScrollY: -1; MaxScrollX: -1; MaxScrollY: -1; AddedCount: -1; RemovedCount: -1; ParcelableData: null ]'
p780
sS'MovementGranularity'
p781
g6
sa(dp782
S'EventTime'
p783
S'66563149'
p784
sg4
L1449974682115L
sS'recordCount'
p785
g6
sS'EventType'
p786
S'TYPE_VIEW_SCROLLED'
p787
sS'PackageName'
p788
S'com.xp.tugele'
p789
sS'OutBounds'
p790
S'Rect(0, 50 - 720, 1280)'
p791
sS'Action'
p792
S'[ ClassName: android.support.v4.view.ViewPager; Text: []; ContentDescription: null; ItemCount: -1; CurrentItemIndex: -1; IsEnabled: true; IsPassword: false; IsChecked: false; IsFullScreen: false; Scrollable: false; BeforeText: null; FromIndex: -1; ToIndex: -1; ScrollX: -1; ScrollY: -1; MaxScrollX: -1; MaxScrollY: -1; AddedCount: -1; RemovedCount: -1; ParcelableData: null ]'
p793
sS'MovementGranularity'
p794
g6
sa(dp795
S'EventTime'
p796
S'66563263'
p797
sg4
L1449974682238L
sS'recordCount'
p798
g6
sS'EventType'
p799
S'TYPE_VIEW_SCROLLED'
p800
sS'PackageName'
p801
S'com.xp.tugele'
p802
sS'OutBounds'
p803
S'Rect(0, 50 - 720, 1280)'
p804
sS'Action'
p805
S'[ ClassName: android.support.v4.view.ViewPager; Text: []; ContentDescription: null; ItemCount: -1; CurrentItemIndex: -1; IsEnabled: true; IsPassword: false; IsChecked: false; IsFullScreen: false; Scrollable: false; BeforeText: null; FromIndex: -1; ToIndex: -1; ScrollX: -1; ScrollY: -1; MaxScrollX: -1; MaxScrollY: -1; AddedCount: -1; RemovedCount: -1; ParcelableData: null ]'
p806
sS'MovementGranularity'
p807
g6
sa(dp808
S'EventTime'
p809
S'66563285'
p810
sg4
L1449974682252L
sS'recordCount'
p811
g6
sS'EventType'
p812
S'TYPE_WINDOW_CONTENT_CHANGED'
p813
sS'PackageName'
p814
S'com.xp.tugele'
p815
sS'OutBounds'
p816
S'Rect(0, 0 - 720, 1280)'
p817
sS'Action'
p818
S'[ ClassName: android.widget.FrameLayout; Text: []; ContentDescription: null; ItemCount: -1; CurrentItemIndex: -1; IsEnabled: true; IsPassword: false; IsChecked: false; IsFullScreen: false; Scrollable: false; BeforeText: null; FromIndex: -1; ToIndex: -1; ScrollX: -1; ScrollY: -1; MaxScrollX: -1; MaxScrollY: -1; AddedCount: -1; RemovedCount: -1; ParcelableData: null ]'
p819
sS'MovementGranularity'
p820
g6
sa(dp821
S'EventTime'
p822
S'66563381'
p823
sg4
L1449974682347L
sS'recordCount'
p824
g6
sS'EventType'
p825
S'TYPE_VIEW_SCROLLED'
p826
sS'PackageName'
p827
S'com.xp.tugele'
p828
sS'OutBounds'
p829
S'Rect(0, 50 - 720, 1280)'
p830
sS'Action'
p831
S'[ ClassName: android.support.v4.view.ViewPager; Text: []; ContentDescription: null; ItemCount: -1; CurrentItemIndex: -1; IsEnabled: true; IsPassword: false; IsChecked: false; IsFullScreen: false; Scrollable: false; BeforeText: null; FromIndex: -1; ToIndex: -1; ScrollX: -1; ScrollY: -1; MaxScrollX: -1; MaxScrollY: -1; AddedCount: -1; RemovedCount: -1; ParcelableData: null ]'
p832
sS'MovementGranularity'
p833
g6
sa(dp834
S'EventTime'
p835
S'66563471'
p836
sg4
L1449974682451L
sS'recordCount'
p837
g6
sS'EventType'
p838
S'TYPE_WINDOW_CONTENT_CHANGED'
p839
sS'PackageName'
p840
S'com.xp.tugele'
p841
sS'OutBounds'
p842
S'Rect(0, 0 - 720, 1280)'
p843
sS'Action'
p844
S'[ ClassName: android.widget.FrameLayout; Text: []; ContentDescription: null; ItemCount: -1; CurrentItemIndex: -1; IsEnabled: true; IsPassword: false; IsChecked: false; IsFullScreen: false; Scrollable: false; BeforeText: null; FromIndex: -1; ToIndex: -1; ScrollX: -1; ScrollY: -1; MaxScrollX: -1; MaxScrollY: -1; AddedCount: -1; RemovedCount: -1; ParcelableData: null ]'
p845
sS'MovementGranularity'
p846
g6
sa(dp847
S'EventTime'
p848
S'66563511'
p849
sg4
L1449974682494L
sS'recordCount'
p850
g6
sS'EventType'
p851
S'TYPE_VIEW_SCROLLED'
p852
sS'PackageName'
p853
S'com.xp.tugele'
p854
sS'OutBounds'
p855
S'Rect(0, 50 - 720, 1280)'
p856
sS'Action'
p857
S'[ ClassName: android.support.v4.view.ViewPager; Text: []; ContentDescription: null; ItemCount: -1; CurrentItemIndex: -1; IsEnabled: true; IsPassword: false; IsChecked: false; IsFullScreen: false; Scrollable: false; BeforeText: null; FromIndex: -1; ToIndex: -1; ScrollX: -1; ScrollY: -1; MaxScrollX: -1; MaxScrollY: -1; AddedCount: -1; RemovedCount: -1; ParcelableData: null ]'
p858
sS'MovementGranularity'
p859
g6
sa(dp860
S'EventTime'
p861
S'66563636'
p862
sg4
L1449974682602L
sS'recordCount'
p863
g6
sS'EventType'
p864
S'TYPE_VIEW_SCROLLED'
p865
sS'PackageName'
p866
S'com.xp.tugele'
p867
sS'OutBounds'
p868
S'Rect(0, 50 - 720, 1280)'
p869
sS'Action'
p870
S'[ ClassName: android.support.v4.view.ViewPager; Text: []; ContentDescription: null; ItemCount: -1; CurrentItemIndex: -1; IsEnabled: true; IsPassword: false; IsChecked: false; IsFullScreen: false; Scrollable: false; BeforeText: null; FromIndex: -1; ToIndex: -1; ScrollX: -1; ScrollY: -1; MaxScrollX: -1; MaxScrollY: -1; AddedCount: -1; RemovedCount: -1; ParcelableData: null ]'
p871
sS'MovementGranularity'
p872
g6
sa(dp873
S'EventTime'
p874
S'66563682'
p875
sg4
L1449974682650L
sS'recordCount'
p876
g6
sS'EventType'
p877
S'TYPE_WINDOW_CONTENT_CHANGED'
p878
sS'PackageName'
p879
S'com.xp.tugele'
p880
sS'OutBounds'
p881
S'Rect(0, 0 - 720, 1280)'
p882
sS'Action'
p883
S'[ ClassName: android.widget.FrameLayout; Text: []; ContentDescription: null; ItemCount: -1; CurrentItemIndex: -1; IsEnabled: true; IsPassword: false; IsChecked: false; IsFullScreen: false; Scrollable: false; BeforeText: null; FromIndex: -1; ToIndex: -1; ScrollX: -1; ScrollY: -1; MaxScrollX: -1; MaxScrollY: -1; AddedCount: -1; RemovedCount: -1; ParcelableData: null ]'
p884
sS'MovementGranularity'
p885
g6
sa(dp886
S'EventTime'
p887
S'66563745'
p888
sg4
L1449974682711L
sS'recordCount'
p889
g6
sS'EventType'
p890
S'TYPE_VIEW_SCROLLED'
p891
sS'PackageName'
p892
S'com.xp.tugele'
p893
sS'OutBounds'
p894
S'Rect(0, 50 - 720, 1280)'
p895
sS'Action'
p896
S'[ ClassName: android.support.v4.view.ViewPager; Text: []; ContentDescription: null; ItemCount: -1; CurrentItemIndex: -1; IsEnabled: true; IsPassword: false; IsChecked: false; IsFullScreen: false; Scrollable: false; BeforeText: null; FromIndex: -1; ToIndex: -1; ScrollX: -1; ScrollY: -1; MaxScrollX: -1; MaxScrollY: -1; AddedCount: -1; RemovedCount: -1; ParcelableData: null ]'
p897
sS'MovementGranularity'
p898
g6
sa(dp899
S'EventTime'
p900
S'66563876'
p901
sg4
L1449974682844L
sS'recordCount'
p902
g6
sS'EventType'
p903
S'TYPE_WINDOW_CONTENT_CHANGED'
p904
sS'PackageName'
p905
S'com.xp.tugele'
p906
sS'OutBounds'
p907
S'Rect(0, 0 - 720, 1280)'
p908
sS'Action'
p909
S'[ ClassName: android.widget.FrameLayout; Text: []; ContentDescription: null; ItemCount: -1; CurrentItemIndex: -1; IsEnabled: true; IsPassword: false; IsChecked: false; IsFullScreen: false; Scrollable: false; BeforeText: null; FromIndex: -1; ToIndex: -1; ScrollX: -1; ScrollY: -1; MaxScrollX: -1; MaxScrollY: -1; AddedCount: -1; RemovedCount: -1; ParcelableData: null ]'
p910
sS'MovementGranularity'
p911
g6
sa(dp912
S'EventTime'
p913
S'66563905'
p914
sg4
L1449974682869L
sS'recordCount'
p915
g6
sS'EventType'
p916
S'TYPE_VIEW_SCROLLED'
p917
sS'PackageName'
p918
S'com.xp.tugele'
p919
sS'OutBounds'
p920
S'Rect(0, 50 - 720, 1280)'
p921
sS'Action'
p922
S'[ ClassName: android.support.v4.view.ViewPager; Text: []; ContentDescription: null; ItemCount: -1; CurrentItemIndex: -1; IsEnabled: true; IsPassword: false; IsChecked: false; IsFullScreen: false; Scrollable: false; BeforeText: null; FromIndex: -1; ToIndex: -1; ScrollX: -1; ScrollY: -1; MaxScrollX: -1; MaxScrollY: -1; AddedCount: -1; RemovedCount: -1; ParcelableData: null ]'
p923
sS'MovementGranularity'
p924
g6
sa(dp925
S'EventTime'
p926
S'66564074'
p927
sg4
L1449974683058L
sS'recordCount'
p928
g6
sS'EventType'
p929
S'TYPE_WINDOW_CONTENT_CHANGED'
p930
sS'PackageName'
p931
S'com.xp.tugele'
p932
sS'OutBounds'
p933
S'Rect(0, 0 - 720, 1280)'
p934
sS'Action'
p935
S'[ ClassName: android.widget.FrameLayout; Text: []; ContentDescription: null; ItemCount: -1; CurrentItemIndex: -1; IsEnabled: true; IsPassword: false; IsChecked: false; IsFullScreen: false; Scrollable: false; BeforeText: null; FromIndex: -1; ToIndex: -1; ScrollX: -1; ScrollY: -1; MaxScrollX: -1; MaxScrollY: -1; AddedCount: -1; RemovedCount: -1; ParcelableData: null ]'
p936
sS'MovementGranularity'
p937
g6
sa(dp938
S'EventTime'
p939
S'66564103'
p940
sg4
L1449974683071L
sS'recordCount'
p941
g6
sS'EventType'
p942
S'TYPE_VIEW_SCROLLED'
p943
sS'PackageName'
p944
S'com.xp.tugele'
p945
sS'OutBounds'
p946
S'Rect(0, 50 - 720, 1280)'
p947
sS'Action'
p948
S'[ ClassName: android.support.v4.view.ViewPager; Text: []; ContentDescription: null; ItemCount: -1; CurrentItemIndex: -1; IsEnabled: true; IsPassword: false; IsChecked: false; IsFullScreen: false; Scrollable: false; BeforeText: null; FromIndex: -1; ToIndex: -1; ScrollX: -1; ScrollY: -1; MaxScrollX: -1; MaxScrollY: -1; AddedCount: -1; RemovedCount: -1; ParcelableData: null ]'
p949
sS'MovementGranularity'
p950
g6
sa(dp951
S'EventTime'
p952
S'66564219'
p953
sg4
L1449974683185L
sS'recordCount'
p954
g6
sS'EventType'
p955
S'TYPE_VIEW_SCROLLED'
p956
sS'PackageName'
p957
S'com.xp.tugele'
p958
sS'OutBounds'
p959
S'Rect(0, 50 - 720, 1280)'
p960
sS'Action'
p961
S'[ ClassName: android.support.v4.view.ViewPager; Text: []; ContentDescription: null; ItemCount: -1; CurrentItemIndex: -1; IsEnabled: true; IsPassword: false; IsChecked: false; IsFullScreen: false; Scrollable: false; BeforeText: null; FromIndex: -1; ToIndex: -1; ScrollX: -1; ScrollY: -1; MaxScrollX: -1; MaxScrollY: -1; AddedCount: -1; RemovedCount: -1; ParcelableData: null ]'
p962
sS'MovementGranularity'
p963
g6
sa(dp964
S'EventTime'
p965
S'66564289'
p966
sg4
L1449974683256L
sS'recordCount'
p967
g6
sS'EventType'
p968
S'TYPE_WINDOW_CONTENT_CHANGED'
p969
sS'PackageName'
p970
S'com.xp.tugele'
p971
sS'OutBounds'
p972
S'Rect(0, 0 - 720, 1280)'
p973
sS'Action'
p974
S'[ ClassName: android.widget.FrameLayout; Text: []; ContentDescription: null; ItemCount: -1; CurrentItemIndex: -1; IsEnabled: true; IsPassword: false; IsChecked: false; IsFullScreen: false; Scrollable: false; BeforeText: null; FromIndex: -1; ToIndex: -1; ScrollX: -1; ScrollY: -1; MaxScrollX: -1; MaxScrollY: -1; AddedCount: -1; RemovedCount: -1; ParcelableData: null ]'
p975
sS'MovementGranularity'
p976
g6
sa(dp977
S'EventTime'
p978
S'66564333'
p979
sg4
L1449974683297L
sS'recordCount'
p980
g6
sS'EventType'
p981
S'TYPE_VIEW_SCROLLED'
p982
sS'PackageName'
p983
S'com.xp.tugele'
p984
sS'OutBounds'
p985
S'Rect(0, 50 - 720, 1280)'
p986
sS'Action'
p987
S'[ ClassName: android.support.v4.view.ViewPager; Text: []; ContentDescription: null; ItemCount: -1; CurrentItemIndex: -1; IsEnabled: true; IsPassword: false; IsChecked: false; IsFullScreen: false; Scrollable: false; BeforeText: null; FromIndex: -1; ToIndex: -1; ScrollX: -1; ScrollY: -1; MaxScrollX: -1; MaxScrollY: -1; AddedCount: -1; RemovedCount: -1; ParcelableData: null ]'
p988
sS'MovementGranularity'
p989
g6
sa(dp990
S'EventTime'
p991
S'66564448'
p992
sg4
L1449974683412L
sS'recordCount'
p993
g6
sS'EventType'
p994
S'TYPE_VIEW_SCROLLED'
p995
sS'PackageName'
p996
S'com.xp.tugele'
p997
sS'OutBounds'
p998
S'Rect(0, 50 - 720, 1280)'
p999
sS'Action'
p1000
S'[ ClassName: android.support.v4.view.ViewPager; Text: []; ContentDescription: null; ItemCount: -1; CurrentItemIndex: -1; IsEnabled: true; IsPassword: false; IsChecked: false; IsFullScreen: false; Scrollable: false; BeforeText: null; FromIndex: -1; ToIndex: -1; ScrollX: -1; ScrollY: -1; MaxScrollX: -1; MaxScrollY: -1; AddedCount: -1; RemovedCount: -1; ParcelableData: null ]'
p1001
sS'MovementGranularity'
p1002
g6
sa(dp1003
S'EventTime'
p1004
S'66564508'
p1005
sg4
L1449974683474L
sS'recordCount'
p1006
g6
sS'EventType'
p1007
S'TYPE_WINDOW_CONTENT_CHANGED'
p1008
sS'PackageName'
p1009
S'com.xp.tugele'
p1010
sS'OutBounds'
p1011
S'Rect(0, 0 - 720, 1280)'
p1012
sS'Action'
p1013
S'[ ClassName: android.widget.FrameLayout; Text: []; ContentDescription: null; ItemCount: -1; CurrentItemIndex: -1; IsEnabled: true; IsPassword: false; IsChecked: false; IsFullScreen: false; Scrollable: false; BeforeText: null; FromIndex: -1; ToIndex: -1; ScrollX: -1; ScrollY: -1; MaxScrollX: -1; MaxScrollY: -1; AddedCount: -1; RemovedCount: -1; ParcelableData: null ]'
p1014
sS'MovementGranularity'
p1015
g6
sa(dp1016
S'EventTime'
p1017
S'66577159'
p1018
sg4
L1449974696124L
sS'recordCount'
p1019
g6
sS'EventType'
p1020
S'TYPE_WINDOW_CONTENT_CHANGED'
p1021
sS'PackageName'
p1022
S'com.xp.tugele'
p1023
sS'OutBounds'
p1024
S'Rect(0, 0 - 720, 1280)'
p1025
sS'Action'
p1026
S'[ ClassName: android.widget.FrameLayout; Text: []; ContentDescription: null; ItemCount: -1; CurrentItemIndex: -1; IsEnabled: true; IsPassword: false; IsChecked: false; IsFullScreen: false; Scrollable: false; BeforeText: null; FromIndex: -1; ToIndex: -1; ScrollX: -1; ScrollY: -1; MaxScrollX: -1; MaxScrollY: -1; AddedCount: -1; RemovedCount: -1; ParcelableData: null ]'
p1027
sS'MovementGranularity'
p1028
g6
sa(dp1029
S'EventTime'
p1030
S'66578344'
p1031
sg4
L1449974697314L
sS'recordCount'
p1032
g6
sS'EventType'
p1033
S'TYPE_VIEW_SCROLLED'
p1034
sS'PackageName'
p1035
S'com.xp.tugele'
p1036
sS'OutBounds'
p1037
S'Rect(0, 50 - 720, 1280)'
p1038
sS'Action'
p1039
S'[ ClassName: android.support.v4.view.ViewPager; Text: []; ContentDescription: null; ItemCount: -1; CurrentItemIndex: -1; IsEnabled: true; IsPassword: false; IsChecked: false; IsFullScreen: false; Scrollable: false; BeforeText: null; FromIndex: -1; ToIndex: -1; ScrollX: -1; ScrollY: -1; MaxScrollX: -1; MaxScrollY: -1; AddedCount: -1; RemovedCount: -1; ParcelableData: null ]'
p1040
sS'MovementGranularity'
p1041
g6
sa(dp1042
S'EventTime'
p1043
S'66578623'
p1044
sg4
L1449974697595L
sS'recordCount'
p1045
g6
sS'EventType'
p1046
S'TYPE_VIEW_SCROLLED'
p1047
sS'PackageName'
p1048
S'com.xp.tugele'
p1049
sS'OutBounds'
p1050
S'Rect(0, 50 - 720, 1280)'
p1051
sS'Action'
p1052
S'[ ClassName: android.support.v4.view.ViewPager; Text: []; ContentDescription: null; ItemCount: -1; CurrentItemIndex: -1; IsEnabled: true; IsPassword: false; IsChecked: false; IsFullScreen: false; Scrollable: false; BeforeText: null; FromIndex: -1; ToIndex: -1; ScrollX: -1; ScrollY: -1; MaxScrollX: -1; MaxScrollY: -1; AddedCount: -1; RemovedCount: -1; ParcelableData: null ]'
p1053
sS'MovementGranularity'
p1054
g6
sa(dp1055
S'EventTime'
p1056
S'66579791'
p1057
sg4
L1449974698768L
sS'recordCount'
p1058
g6
sS'EventType'
p1059
S'TYPE_WINDOW_STATE_CHANGED'
p1060
sS'PackageName'
p1061
S'com.xp.tugele'
p1062
sS'OutBounds'
p1063
S'Rect(0, 0 - 720, 1280)'
p1064
sS'Action'
p1065
S'[ ClassName: com.xp.ui.activity.HotDetailsActivity; Text: [ClassifyImageActivity]; ContentDescription: null; ItemCount: -1; CurrentItemIndex: -1; IsEnabled: true; IsPassword: false; IsChecked: false; IsFullScreen: true; Scrollable: false; BeforeText: null; FromIndex: -1; ToIndex: -1; ScrollX: -1; ScrollY: -1; MaxScrollX: -1; MaxScrollY: -1; AddedCount: -1; RemovedCount: -1; ParcelableData: null ]'
p1066
sS'MovementGranularity'
p1067
g6
sa(dp1068
S'EventTime'
p1069
S'66579889'
p1070
sg4
L1449974698877L
sS'recordCount'
p1071
g6
sS'EventType'
p1072
S'TYPE_WINDOW_CONTENT_CHANGED'
p1073
sS'PackageName'
p1074
S'com.xp.tugele'
p1075
sS'OutBounds'
p1076
S'Rect(0, 0 - 720, 1280)'
p1077
sS'Action'
p1078
S'[ ClassName: android.widget.FrameLayout; Text: []; ContentDescription: null; ItemCount: -1; CurrentItemIndex: -1; IsEnabled: true; IsPassword: false; IsChecked: false; IsFullScreen: false; Scrollable: false; BeforeText: null; FromIndex: -1; ToIndex: -1; ScrollX: -1; ScrollY: -1; MaxScrollX: -1; MaxScrollY: -1; AddedCount: -1; RemovedCount: -1; ParcelableData: null ]'
p1079
sS'MovementGranularity'
p1080
g6
sa(dp1081
S'EventTime'
p1082
S'66581952'
p1083
sg4
L1449974700947L
sS'recordCount'
p1084
g6
sS'EventType'
p1085
S'TYPE_WINDOW_CONTENT_CHANGED'
p1086
sS'PackageName'
p1087
S'com.xp.tugele'
p1088
sS'OutBounds'
p1089
S'Rect(0, 0 - 720, 1280)'
p1090
sS'Action'
p1091
S'[ ClassName: android.widget.FrameLayout; Text: []; ContentDescription: null; ItemCount: -1; CurrentItemIndex: -1; IsEnabled: true; IsPassword: false; IsChecked: false; IsFullScreen: false; Scrollable: false; BeforeText: null; FromIndex: -1; ToIndex: -1; ScrollX: -1; ScrollY: -1; MaxScrollX: -1; MaxScrollY: -1; AddedCount: -1; RemovedCount: -1; ParcelableData: null ]'
p1092
sS'MovementGranularity'
p1093
g6
sa(dp1094
S'EventTime'
p1095
S'66582101'
p1096
sg4
L1449974701097L
sS'recordCount'
p1097
g6
sS'EventType'
p1098
S'TYPE_WINDOW_CONTENT_CHANGED'
p1099
sS'PackageName'
p1100
S'com.xp.tugele'
p1101
sS'OutBounds'
p1102
S'Rect(0, 0 - 720, 1280)'
p1103
sS'Action'
p1104
S'[ ClassName: android.widget.FrameLayout; Text: []; ContentDescription: null; ItemCount: -1; CurrentItemIndex: -1; IsEnabled: true; IsPassword: false; IsChecked: false; IsFullScreen: false; Scrollable: false; BeforeText: null; FromIndex: -1; ToIndex: -1; ScrollX: -1; ScrollY: -1; MaxScrollX: -1; MaxScrollY: -1; AddedCount: -1; RemovedCount: -1; ParcelableData: null ]'
p1105
sS'MovementGranularity'
p1106
g6
sa(dp1107
S'EventTime'
p1108
S'66582251'
p1109
sg4
L1449974701253L
sS'recordCount'
p1110
g6
sS'EventType'
p1111
S'TYPE_WINDOW_CONTENT_CHANGED'
p1112
sS'PackageName'
p1113
S'com.xp.tugele'
p1114
sS'OutBounds'
p1115
S'Rect(0, 0 - 720, 1280)'
p1116
sS'Action'
p1117
S'[ ClassName: android.widget.FrameLayout; Text: []; ContentDescription: null; ItemCount: -1; CurrentItemIndex: -1; IsEnabled: true; IsPassword: false; IsChecked: false; IsFullScreen: false; Scrollable: false; BeforeText: null; FromIndex: -1; ToIndex: -1; ScrollX: -1; ScrollY: -1; MaxScrollX: -1; MaxScrollY: -1; AddedCount: -1; RemovedCount: -1; ParcelableData: null ]'
p1118
sS'MovementGranularity'
p1119
g6
sa(dp1120
S'EventTime'
p1121
S'66582451'
p1122
sg4
L1449974701456L
sS'recordCount'
p1123
g6
sS'EventType'
p1124
S'TYPE_WINDOW_CONTENT_CHANGED'
p1125
sS'PackageName'
p1126
S'com.xp.tugele'
p1127
sS'OutBounds'
p1128
S'Rect(0, 0 - 720, 1280)'
p1129
sS'Action'
p1130
S'[ ClassName: android.widget.FrameLayout; Text: []; ContentDescription: null; ItemCount: -1; CurrentItemIndex: -1; IsEnabled: true; IsPassword: false; IsChecked: false; IsFullScreen: false; Scrollable: false; BeforeText: null; FromIndex: -1; ToIndex: -1; ScrollX: -1; ScrollY: -1; MaxScrollX: -1; MaxScrollY: -1; AddedCount: -1; RemovedCount: -1; ParcelableData: null ]'
p1131
sS'MovementGranularity'
p1132
g6
sa(dp1133
S'EventTime'
p1134
S'66583015'
p1135
sg4
L1449974702001L
sS'recordCount'
p1136
g6
sS'EventType'
p1137
S'TYPE_WINDOW_CONTENT_CHANGED'
p1138
sS'PackageName'
p1139
S'com.xp.tugele'
p1140
sS'OutBounds'
p1141
S'Rect(0, 0 - 720, 1280)'
p1142
sS'Action'
p1143
S'[ ClassName: android.widget.FrameLayout; Text: []; ContentDescription: null; ItemCount: -1; CurrentItemIndex: -1; IsEnabled: true; IsPassword: false; IsChecked: false; IsFullScreen: false; Scrollable: false; BeforeText: null; FromIndex: -1; ToIndex: -1; ScrollX: -1; ScrollY: -1; MaxScrollX: -1; MaxScrollY: -1; AddedCount: -1; RemovedCount: -1; ParcelableData: null ]'
p1144
sS'MovementGranularity'
p1145
g6
sa(dp1146
S'EventTime'
p1147
S'66583206'
p1148
sg4
L1449974702208L
sS'recordCount'
p1149
g6
sS'EventType'
p1150
S'TYPE_WINDOW_CONTENT_CHANGED'
p1151
sS'PackageName'
p1152
S'com.xp.tugele'
p1153
sS'OutBounds'
p1154
S'Rect(0, 0 - 720, 1280)'
p1155
sS'Action'
p1156
S'[ ClassName: android.widget.FrameLayout; Text: []; ContentDescription: null; ItemCount: -1; CurrentItemIndex: -1; IsEnabled: true; IsPassword: false; IsChecked: false; IsFullScreen: false; Scrollable: false; BeforeText: null; FromIndex: -1; ToIndex: -1; ScrollX: -1; ScrollY: -1; MaxScrollX: -1; MaxScrollY: -1; AddedCount: -1; RemovedCount: -1; ParcelableData: null ]'
p1157
sS'MovementGranularity'
p1158
g6
sa(dp1159
S'EventTime'
p1160
S'66583348'
p1161
sg4
L1449974702339L
sS'recordCount'
p1162
g6
sS'EventType'
p1163
S'TYPE_WINDOW_CONTENT_CHANGED'
p1164
sS'PackageName'
p1165
S'com.xp.tugele'
p1166
sS'OutBounds'
p1167
S'Rect(0, 0 - 720, 1280)'
p1168
sS'Action'
p1169
S'[ ClassName: android.widget.FrameLayout; Text: []; ContentDescription: null; ItemCount: -1; CurrentItemIndex: -1; IsEnabled: true; IsPassword: false; IsChecked: false; IsFullScreen: false; Scrollable: false; BeforeText: null; FromIndex: -1; ToIndex: -1; ScrollX: -1; ScrollY: -1; MaxScrollX: -1; MaxScrollY: -1; AddedCount: -1; RemovedCount: -1; ParcelableData: null ]'
p1170
sS'MovementGranularity'
p1171
g6
sa(dp1172
S'EventTime'
p1173
S'66583479'
p1174
sg4
L1449974702473L
sS'recordCount'
p1175
g6
sS'EventType'
p1176
S'TYPE_WINDOW_CONTENT_CHANGED'
p1177
sS'PackageName'
p1178
S'com.xp.tugele'
p1179
sS'OutBounds'
p1180
S'Rect(0, 0 - 720, 1280)'
p1181
sS'Action'
p1182
S'[ ClassName: android.widget.FrameLayout; Text: []; ContentDescription: null; ItemCount: -1; CurrentItemIndex: -1; IsEnabled: true; IsPassword: false; IsChecked: false; IsFullScreen: false; Scrollable: false; BeforeText: null; FromIndex: -1; ToIndex: -1; ScrollX: -1; ScrollY: -1; MaxScrollX: -1; MaxScrollY: -1; AddedCount: -1; RemovedCount: -1; ParcelableData: null ]'
p1183
sS'MovementGranularity'
p1184
g6
sa(dp1185
S'EventTime'
p1186
S'66583617'
p1187
sg4
L1449974702619L
sS'recordCount'
p1188
g6
sS'EventType'
p1189
S'TYPE_WINDOW_CONTENT_CHANGED'
p1190
sS'PackageName'
p1191
S'com.xp.tugele'
p1192
sS'OutBounds'
p1193
S'Rect(0, 0 - 720, 1280)'
p1194
sS'Action'
p1195
S'[ ClassName: android.widget.FrameLayout; Text: []; ContentDescription: null; ItemCount: -1; CurrentItemIndex: -1; IsEnabled: true; IsPassword: false; IsChecked: false; IsFullScreen: false; Scrollable: false; BeforeText: null; FromIndex: -1; ToIndex: -1; ScrollX: -1; ScrollY: -1; MaxScrollX: -1; MaxScrollY: -1; AddedCount: -1; RemovedCount: -1; ParcelableData: null ]'
p1196
sS'MovementGranularity'
p1197
g6
sa(dp1198
S'EventTime'
p1199
S'66583759'
p1200
sg4
L1449974702759L
sS'recordCount'
p1201
g6
sS'EventType'
p1202
S'TYPE_WINDOW_CONTENT_CHANGED'
p1203
sS'PackageName'
p1204
S'com.xp.tugele'
p1205
sS'OutBounds'
p1206
S'Rect(0, 0 - 720, 1280)'
p1207
sS'Action'
p1208
S'[ ClassName: android.widget.FrameLayout; Text: []; ContentDescription: null; ItemCount: -1; CurrentItemIndex: -1; IsEnabled: true; IsPassword: false; IsChecked: false; IsFullScreen: false; Scrollable: false; BeforeText: null; FromIndex: -1; ToIndex: -1; ScrollX: -1; ScrollY: -1; MaxScrollX: -1; MaxScrollY: -1; AddedCount: -1; RemovedCount: -1; ParcelableData: null ]'
p1209
sS'MovementGranularity'
p1210
g6
sa(dp1211
S'EventTime'
p1212
S'66583898'
p1213
sg4
L1449974702896L
sS'recordCount'
p1214
g6
sS'EventType'
p1215
S'TYPE_WINDOW_CONTENT_CHANGED'
p1216
sS'PackageName'
p1217
S'com.xp.tugele'
p1218
sS'OutBounds'
p1219
S'Rect(0, 0 - 720, 1280)'
p1220
sS'Action'
p1221
S'[ ClassName: android.widget.FrameLayout; Text: []; ContentDescription: null; ItemCount: -1; CurrentItemIndex: -1; IsEnabled: true; IsPassword: false; IsChecked: false; IsFullScreen: false; Scrollable: false; BeforeText: null; FromIndex: -1; ToIndex: -1; ScrollX: -1; ScrollY: -1; MaxScrollX: -1; MaxScrollY: -1; AddedCount: -1; RemovedCount: -1; ParcelableData: null ]'
p1222
sS'MovementGranularity'
p1223
g6
sa(dp1224
S'EventTime'
p1225
S'66584037'
p1226
sg4
L1449974703025L
sS'recordCount'
p1227
g6
sS'EventType'
p1228
S'TYPE_WINDOW_CONTENT_CHANGED'
p1229
sS'PackageName'
p1230
S'com.xp.tugele'
p1231
sS'OutBounds'
p1232
S'Rect(0, 0 - 720, 1280)'
p1233
sS'Action'
p1234
S'[ ClassName: android.widget.FrameLayout; Text: []; ContentDescription: null; ItemCount: -1; CurrentItemIndex: -1; IsEnabled: true; IsPassword: false; IsChecked: false; IsFullScreen: false; Scrollable: false; BeforeText: null; FromIndex: -1; ToIndex: -1; ScrollX: -1; ScrollY: -1; MaxScrollX: -1; MaxScrollY: -1; AddedCount: -1; RemovedCount: -1; ParcelableData: null ]'
p1235
sS'MovementGranularity'
p1236
g6
sa(dp1237
S'EventTime'
p1238
S'66584165'
p1239
sg4
L1449974703161L
sS'recordCount'
p1240
g6
sS'EventType'
p1241
S'TYPE_WINDOW_CONTENT_CHANGED'
p1242
sS'PackageName'
p1243
S'com.xp.tugele'
p1244
sS'OutBounds'
p1245
S'Rect(0, 0 - 720, 1280)'
p1246
sS'Action'
p1247
S'[ ClassName: android.widget.FrameLayout; Text: []; ContentDescription: null; ItemCount: -1; CurrentItemIndex: -1; IsEnabled: true; IsPassword: false; IsChecked: false; IsFullScreen: false; Scrollable: false; BeforeText: null; FromIndex: -1; ToIndex: -1; ScrollX: -1; ScrollY: -1; MaxScrollX: -1; MaxScrollY: -1; AddedCount: -1; RemovedCount: -1; ParcelableData: null ]'
p1248
sS'MovementGranularity'
p1249
g6
sa(dp1250
S'EventTime'
p1251
S'66584301'
p1252
sg4
L1449974703291L
sS'recordCount'
p1253
g6
sS'EventType'
p1254
S'TYPE_WINDOW_CONTENT_CHANGED'
p1255
sS'PackageName'
p1256
S'com.xp.tugele'
p1257
sS'OutBounds'
p1258
S'Rect(0, 0 - 720, 1280)'
p1259
sS'Action'
p1260
S'[ ClassName: android.widget.FrameLayout; Text: []; ContentDescription: null; ItemCount: -1; CurrentItemIndex: -1; IsEnabled: true; IsPassword: false; IsChecked: false; IsFullScreen: false; Scrollable: false; BeforeText: null; FromIndex: -1; ToIndex: -1; ScrollX: -1; ScrollY: -1; MaxScrollX: -1; MaxScrollY: -1; AddedCount: -1; RemovedCount: -1; ParcelableData: null ]'
p1261
sS'MovementGranularity'
p1262
g6
sa(dp1263
S'EventTime'
p1264
S'66584432'
p1265
sg4
L1449974703446L
sS'recordCount'
p1266
g6
sS'EventType'
p1267
S'TYPE_WINDOW_CONTENT_CHANGED'
p1268
sS'PackageName'
p1269
S'com.xp.tugele'
p1270
sS'OutBounds'
p1271
S'Rect(0, 0 - 720, 1280)'
p1272
sS'Action'
p1273
S'[ ClassName: android.widget.FrameLayout; Text: []; ContentDescription: null; ItemCount: -1; CurrentItemIndex: -1; IsEnabled: true; IsPassword: false; IsChecked: false; IsFullScreen: false; Scrollable: false; BeforeText: null; FromIndex: -1; ToIndex: -1; ScrollX: -1; ScrollY: -1; MaxScrollX: -1; MaxScrollY: -1; AddedCount: -1; RemovedCount: -1; ParcelableData: null ]'
p1274
sS'MovementGranularity'
p1275
g6
sa(dp1276
S'EventTime'
p1277
S'66584532'
p1278
sg4
L1449974703492L
sS'recordCount'
p1279
g6
sS'EventType'
p1280
S'TYPE_NOTIFICATION_STATE_CHANGED'
p1281
sS'PackageName'
p1282
S'com.xp.tugele'
p1283
sS'Action'
p1284
S'[ ClassName: android.widget.Toast$TN; Text: [\xe6\xb2\xa1\xe6\x9c\x89\xe6\x9b\xb4\xe5\xa4\x9a\xe5\x9b\xbe\xe7\x89\x87]; ContentDescription: null; ItemCount: -1; CurrentItemIndex: -1; IsEnabled: false; IsPassword: false; IsChecked: false; IsFullScreen: false; Scrollable: false; BeforeText: null; FromIndex: -1; ToIndex: -1; ScrollX: -1; ScrollY: -1; MaxScrollX: -1; MaxScrollY: -1; AddedCount: -1; RemovedCount: -1; ParcelableData: null ]'
p1285
sS'MovementGranularity'
p1286
g6
sa(dp1287
S'EventTime'
p1288
S'66584604'
p1289
sg4
L1449974703591L
sS'recordCount'
p1290
g6
sS'EventType'
p1291
S'TYPE_WINDOW_CONTENT_CHANGED'
p1292
sS'PackageName'
p1293
S'com.xp.tugele'
p1294
sS'OutBounds'
p1295
S'Rect(0, 0 - 720, 1280)'
p1296
sS'Action'
p1297
S'[ ClassName: android.widget.FrameLayout; Text: []; ContentDescription: null; ItemCount: -1; CurrentItemIndex: -1; IsEnabled: true; IsPassword: false; IsChecked: false; IsFullScreen: false; Scrollable: false; BeforeText: null; FromIndex: -1; ToIndex: -1; ScrollX: -1; ScrollY: -1; MaxScrollX: -1; MaxScrollY: -1; AddedCount: -1; RemovedCount: -1; ParcelableData: null ]'
p1298
sS'MovementGranularity'
p1299
g6
sa(dp1300
S'EventTime'
p1301
S'66584733'
p1302
sg4
L1449974703720L
sS'recordCount'
p1303
g6
sS'EventType'
p1304
S'TYPE_WINDOW_CONTENT_CHANGED'
p1305
sS'PackageName'
p1306
S'com.xp.tugele'
p1307
sS'OutBounds'
p1308
S'Rect(0, 0 - 720, 1280)'
p1309
sS'Action'
p1310
S'[ ClassName: android.widget.FrameLayout; Text: []; ContentDescription: null; ItemCount: -1; CurrentItemIndex: -1; IsEnabled: true; IsPassword: false; IsChecked: false; IsFullScreen: false; Scrollable: false; BeforeText: null; FromIndex: -1; ToIndex: -1; ScrollX: -1; ScrollY: -1; MaxScrollX: -1; MaxScrollY: -1; AddedCount: -1; RemovedCount: -1; ParcelableData: null ]'
p1311
sS'MovementGranularity'
p1312
g6
sa(dp1313
S'EventTime'
p1314
S'66584862'
p1315
sg4
L1449974703856L
sS'recordCount'
p1316
g6
sS'EventType'
p1317
S'TYPE_WINDOW_CONTENT_CHANGED'
p1318
sS'PackageName'
p1319
S'com.xp.tugele'
p1320
sS'OutBounds'
p1321
S'Rect(0, 0 - 720, 1280)'
p1322
sS'Action'
p1323
S'[ ClassName: android.widget.FrameLayout; Text: []; ContentDescription: null; ItemCount: -1; CurrentItemIndex: -1; IsEnabled: true; IsPassword: false; IsChecked: false; IsFullScreen: false; Scrollable: false; BeforeText: null; FromIndex: -1; ToIndex: -1; ScrollX: -1; ScrollY: -1; MaxScrollX: -1; MaxScrollY: -1; AddedCount: -1; RemovedCount: -1; ParcelableData: null ]'
p1324
sS'MovementGranularity'
p1325
g6
sa(dp1326
S'EventTime'
p1327
S'66584993'
p1328
sg4
L1449974703974L
sS'recordCount'
p1329
g6
sS'EventType'
p1330
S'TYPE_WINDOW_CONTENT_CHANGED'
p1331
sS'PackageName'
p1332
S'com.xp.tugele'
p1333
sS'OutBounds'
p1334
S'Rect(0, 0 - 720, 1280)'
p1335
sS'Action'
p1336
S'[ ClassName: android.widget.FrameLayout; Text: []; ContentDescription: null; ItemCount: -1; CurrentItemIndex: -1; IsEnabled: true; IsPassword: false; IsChecked: false; IsFullScreen: false; Scrollable: false; BeforeText: null; FromIndex: -1; ToIndex: -1; ScrollX: -1; ScrollY: -1; MaxScrollX: -1; MaxScrollY: -1; AddedCount: -1; RemovedCount: -1; ParcelableData: null ]'
p1337
sS'MovementGranularity'
p1338
g6
sa(dp1339
S'EventTime'
p1340
S'66585117'
p1341
sg4
L1449974704101L
sS'recordCount'
p1342
g6
sS'EventType'
p1343
S'TYPE_WINDOW_CONTENT_CHANGED'
p1344
sS'PackageName'
p1345
S'com.xp.tugele'
p1346
sS'OutBounds'
p1347
S'Rect(0, 0 - 720, 1280)'
p1348
sS'Action'
p1349
S'[ ClassName: android.widget.FrameLayout; Text: []; ContentDescription: null; ItemCount: -1; CurrentItemIndex: -1; IsEnabled: true; IsPassword: false; IsChecked: false; IsFullScreen: false; Scrollable: false; BeforeText: null; FromIndex: -1; ToIndex: -1; ScrollX: -1; ScrollY: -1; MaxScrollX: -1; MaxScrollY: -1; AddedCount: -1; RemovedCount: -1; ParcelableData: null ]'
p1350
sS'MovementGranularity'
p1351
g6
sa(dp1352
S'EventTime'
p1353
S'66585242'
p1354
sg4
L1449974704237L
sS'recordCount'
p1355
g6
sS'EventType'
p1356
S'TYPE_WINDOW_CONTENT_CHANGED'
p1357
sS'PackageName'
p1358
S'com.xp.tugele'
p1359
sS'OutBounds'
p1360
S'Rect(0, 0 - 720, 1280)'
p1361
sS'Action'
p1362
S'[ ClassName: android.widget.FrameLayout; Text: []; ContentDescription: null; ItemCount: -1; CurrentItemIndex: -1; IsEnabled: true; IsPassword: false; IsChecked: false; IsFullScreen: false; Scrollable: false; BeforeText: null; FromIndex: -1; ToIndex: -1; ScrollX: -1; ScrollY: -1; MaxScrollX: -1; MaxScrollY: -1; AddedCount: -1; RemovedCount: -1; ParcelableData: null ]'
p1363
sS'MovementGranularity'
p1364
g6
sa(dp1365
S'EventTime'
p1366
S'66585380'
p1367
sg4
L1449974704377L
sS'recordCount'
p1368
g6
sS'EventType'
p1369
S'TYPE_WINDOW_CONTENT_CHANGED'
p1370
sS'PackageName'
p1371
S'com.xp.tugele'
p1372
sS'OutBounds'
p1373
S'Rect(0, 0 - 720, 1280)'
p1374
sS'Action'
p1375
S'[ ClassName: android.widget.FrameLayout; Text: []; ContentDescription: null; ItemCount: -1; CurrentItemIndex: -1; IsEnabled: true; IsPassword: false; IsChecked: false; IsFullScreen: false; Scrollable: false; BeforeText: null; FromIndex: -1; ToIndex: -1; ScrollX: -1; ScrollY: -1; MaxScrollX: -1; MaxScrollY: -1; AddedCount: -1; RemovedCount: -1; ParcelableData: null ]'
p1376
sS'MovementGranularity'
p1377
g6
sa(dp1378
S'EventTime'
p1379
S'66585517'
p1380
sg4
L1449974704515L
sS'recordCount'
p1381
g6
sS'EventType'
p1382
S'TYPE_WINDOW_CONTENT_CHANGED'
p1383
sS'PackageName'
p1384
S'com.xp.tugele'
p1385
sS'OutBounds'
p1386
S'Rect(0, 0 - 720, 1280)'
p1387
sS'Action'
p1388
S'[ ClassName: android.widget.FrameLayout; Text: []; ContentDescription: null; ItemCount: -1; CurrentItemIndex: -1; IsEnabled: true; IsPassword: false; IsChecked: false; IsFullScreen: false; Scrollable: false; BeforeText: null; FromIndex: -1; ToIndex: -1; ScrollX: -1; ScrollY: -1; MaxScrollX: -1; MaxScrollY: -1; AddedCount: -1; RemovedCount: -1; ParcelableData: null ]'
p1389
sS'MovementGranularity'
p1390
g6
sa(dp1391
S'EventTime'
p1392
S'66585658'
p1393
sg4
L1449974704657L
sS'recordCount'
p1394
g6
sS'EventType'
p1395
S'TYPE_WINDOW_CONTENT_CHANGED'
p1396
sS'PackageName'
p1397
S'com.xp.tugele'
p1398
sS'OutBounds'
p1399
S'Rect(0, 0 - 720, 1280)'
p1400
sS'Action'
p1401
S'[ ClassName: android.widget.FrameLayout; Text: []; ContentDescription: null; ItemCount: -1; CurrentItemIndex: -1; IsEnabled: true; IsPassword: false; IsChecked: false; IsFullScreen: false; Scrollable: false; BeforeText: null; FromIndex: -1; ToIndex: -1; ScrollX: -1; ScrollY: -1; MaxScrollX: -1; MaxScrollY: -1; AddedCount: -1; RemovedCount: -1; ParcelableData: null ]'
p1402
sS'MovementGranularity'
p1403
g6
sa(dp1404
S'EventTime'
p1405
S'66585797'
p1406
sg4
L1449974704781L
sS'recordCount'
p1407
g6
sS'EventType'
p1408
S'TYPE_WINDOW_CONTENT_CHANGED'
p1409
sS'PackageName'
p1410
S'com.xp.tugele'
p1411
sS'OutBounds'
p1412
S'Rect(0, 0 - 720, 1280)'
p1413
sS'Action'
p1414
S'[ ClassName: android.widget.FrameLayout; Text: []; ContentDescription: null; ItemCount: -1; CurrentItemIndex: -1; IsEnabled: true; IsPassword: false; IsChecked: false; IsFullScreen: false; Scrollable: false; BeforeText: null; FromIndex: -1; ToIndex: -1; ScrollX: -1; ScrollY: -1; MaxScrollX: -1; MaxScrollY: -1; AddedCount: -1; RemovedCount: -1; ParcelableData: null ]'
p1415
sS'MovementGranularity'
p1416
g6
sa(dp1417
S'EventTime'
p1418
S'66585936'
p1419
sg4
L1449974704945L
sS'recordCount'
p1420
g6
sS'EventType'
p1421
S'TYPE_WINDOW_CONTENT_CHANGED'
p1422
sS'PackageName'
p1423
S'com.xp.tugele'
p1424
sS'OutBounds'
p1425
S'Rect(0, 0 - 720, 1280)'
p1426
sS'Action'
p1427
S'[ ClassName: android.widget.FrameLayout; Text: []; ContentDescription: null; ItemCount: -1; CurrentItemIndex: -1; IsEnabled: true; IsPassword: false; IsChecked: false; IsFullScreen: false; Scrollable: false; BeforeText: null; FromIndex: -1; ToIndex: -1; ScrollX: -1; ScrollY: -1; MaxScrollX: -1; MaxScrollY: -1; AddedCount: -1; RemovedCount: -1; ParcelableData: null ]'
p1428
sS'MovementGranularity'
p1429
g6
sa(dp1430
S'EventTime'
p1431
S'66586085'
p1432
sg4
L1449974705085L
sS'recordCount'
p1433
g6
sS'EventType'
p1434
S'TYPE_WINDOW_CONTENT_CHANGED'
p1435
sS'PackageName'
p1436
S'com.xp.tugele'
p1437
sS'OutBounds'
p1438
S'Rect(0, 0 - 720, 1280)'
p1439
sS'Action'
p1440
S'[ ClassName: android.widget.FrameLayout; Text: []; ContentDescription: null; ItemCount: -1; CurrentItemIndex: -1; IsEnabled: true; IsPassword: false; IsChecked: false; IsFullScreen: false; Scrollable: false; BeforeText: null; FromIndex: -1; ToIndex: -1; ScrollX: -1; ScrollY: -1; MaxScrollX: -1; MaxScrollY: -1; AddedCount: -1; RemovedCount: -1; ParcelableData: null ]'
p1441
sS'MovementGranularity'
p1442
g6
sa(dp1443
S'EventTime'
p1444
S'66586236'
p1445
sg4
L1449974705232L
sS'recordCount'
p1446
g6
sS'EventType'
p1447
S'TYPE_WINDOW_CONTENT_CHANGED'
p1448
sS'PackageName'
p1449
S'com.xp.tugele'
p1450
sS'OutBounds'
p1451
S'Rect(0, 0 - 720, 1280)'
p1452
sS'Action'
p1453
S'[ ClassName: android.widget.FrameLayout; Text: []; ContentDescription: null; ItemCount: -1; CurrentItemIndex: -1; IsEnabled: true; IsPassword: false; IsChecked: false; IsFullScreen: false; Scrollable: false; BeforeText: null; FromIndex: -1; ToIndex: -1; ScrollX: -1; ScrollY: -1; MaxScrollX: -1; MaxScrollY: -1; AddedCount: -1; RemovedCount: -1; ParcelableData: null ]'
p1454
sS'MovementGranularity'
p1455
g6
sa(dp1456
S'EventTime'
p1457
S'66586386'
p1458
sg4
L1449974705383L
sS'recordCount'
p1459
g6
sS'EventType'
p1460
S'TYPE_WINDOW_CONTENT_CHANGED'
p1461
sS'PackageName'
p1462
S'com.xp.tugele'
p1463
sS'OutBounds'
p1464
S'Rect(0, 0 - 720, 1280)'
p1465
sS'Action'
p1466
S'[ ClassName: android.widget.FrameLayout; Text: []; ContentDescription: null; ItemCount: -1; CurrentItemIndex: -1; IsEnabled: true; IsPassword: false; IsChecked: false; IsFullScreen: false; Scrollable: false; BeforeText: null; FromIndex: -1; ToIndex: -1; ScrollX: -1; ScrollY: -1; MaxScrollX: -1; MaxScrollY: -1; AddedCount: -1; RemovedCount: -1; ParcelableData: null ]'
p1467
sS'MovementGranularity'
p1468
g6
sa(dp1469
S'EventTime'
p1470
S'66586523'
p1471
sg4
L1449974705522L
sS'recordCount'
p1472
g6
sS'EventType'
p1473
S'TYPE_WINDOW_CONTENT_CHANGED'
p1474
sS'PackageName'
p1475
S'com.xp.tugele'
p1476
sS'OutBounds'
p1477
S'Rect(0, 0 - 720, 1280)'
p1478
sS'Action'
p1479
S'[ ClassName: android.widget.FrameLayout; Text: []; ContentDescription: null; ItemCount: -1; CurrentItemIndex: -1; IsEnabled: true; IsPassword: false; IsChecked: false; IsFullScreen: false; Scrollable: false; BeforeText: null; FromIndex: -1; ToIndex: -1; ScrollX: -1; ScrollY: -1; MaxScrollX: -1; MaxScrollY: -1; AddedCount: -1; RemovedCount: -1; ParcelableData: null ]'
p1480
sS'MovementGranularity'
p1481
g6
sa(dp1482
S'EventTime'
p1483
S'66586545'
p1484
sg4
L1449974705523L
sS'recordCount'
p1485
g6
sS'EventType'
p1486
S'TYPE_NOTIFICATION_STATE_CHANGED'
p1487
sS'PackageName'
p1488
S'com.xp.tugele'
p1489
sS'Action'
p1490
S'[ ClassName: android.widget.Toast$TN; Text: [\xe6\xb2\xa1\xe6\x9c\x89\xe6\x9b\xb4\xe5\xa4\x9a\xe5\x9b\xbe\xe7\x89\x87]; ContentDescription: null; ItemCount: -1; CurrentItemIndex: -1; IsEnabled: false; IsPassword: false; IsChecked: false; IsFullScreen: false; Scrollable: false; BeforeText: null; FromIndex: -1; ToIndex: -1; ScrollX: -1; ScrollY: -1; MaxScrollX: -1; MaxScrollY: -1; AddedCount: -1; RemovedCount: -1; ParcelableData: null ]'
p1491
sS'MovementGranularity'
p1492
g6
sa(dp1493
S'EventTime'
p1494
S'66586645'
p1495
sg4
L1449974705623L
sS'recordCount'
p1496
g6
sS'EventType'
p1497
S'TYPE_WINDOW_CONTENT_CHANGED'
p1498
sS'PackageName'
p1499
S'com.xp.tugele'
p1500
sS'OutBounds'
p1501
S'Rect(0, 0 - 720, 1280)'
p1502
sS'Action'
p1503
S'[ ClassName: android.widget.FrameLayout; Text: []; ContentDescription: null; ItemCount: -1; CurrentItemIndex: -1; IsEnabled: true; IsPassword: false; IsChecked: false; IsFullScreen: false; Scrollable: false; BeforeText: null; FromIndex: -1; ToIndex: -1; ScrollX: -1; ScrollY: -1; MaxScrollX: -1; MaxScrollY: -1; AddedCount: -1; RemovedCount: -1; ParcelableData: null ]'
p1504
sS'MovementGranularity'
p1505
g6
sa(dp1506
S'EventTime'
p1507
S'66586934'
p1508
sg4
L1449974705925L
sS'recordCount'
p1509
g6
sS'EventType'
p1510
S'TYPE_WINDOW_CONTENT_CHANGED'
p1511
sS'PackageName'
p1512
S'com.xp.tugele'
p1513
sS'OutBounds'
p1514
S'Rect(0, 0 - 720, 1280)'
p1515
sS'Action'
p1516
S'[ ClassName: android.widget.FrameLayout; Text: []; ContentDescription: null; ItemCount: -1; CurrentItemIndex: -1; IsEnabled: true; IsPassword: false; IsChecked: false; IsFullScreen: false; Scrollable: false; BeforeText: null; FromIndex: -1; ToIndex: -1; ScrollX: -1; ScrollY: -1; MaxScrollX: -1; MaxScrollY: -1; AddedCount: -1; RemovedCount: -1; ParcelableData: null ]'
p1517
sS'MovementGranularity'
p1518
g6
sa(dp1519
S'EventTime'
p1520
S'66587065'
p1521
sg4
L1449974706055L
sS'recordCount'
p1522
g6
sS'EventType'
p1523
S'TYPE_WINDOW_CONTENT_CHANGED'
p1524
sS'PackageName'
p1525
S'com.xp.tugele'
p1526
sS'OutBounds'
p1527
S'Rect(0, 0 - 720, 1280)'
p1528
sS'Action'
p1529
S'[ ClassName: android.widget.FrameLayout; Text: []; ContentDescription: null; ItemCount: -1; CurrentItemIndex: -1; IsEnabled: true; IsPassword: false; IsChecked: false; IsFullScreen: false; Scrollable: false; BeforeText: null; FromIndex: -1; ToIndex: -1; ScrollX: -1; ScrollY: -1; MaxScrollX: -1; MaxScrollY: -1; AddedCount: -1; RemovedCount: -1; ParcelableData: null ]'
p1530
sS'MovementGranularity'
p1531
g6
sa(dp1532
S'EventTime'
p1533
S'66587195'
p1534
sg4
L1449974706178L
sS'recordCount'
p1535
g6
sS'EventType'
p1536
S'TYPE_WINDOW_CONTENT_CHANGED'
p1537
sS'PackageName'
p1538
S'com.xp.tugele'
p1539
sS'OutBounds'
p1540
S'Rect(0, 0 - 720, 1280)'
p1541
sS'Action'
p1542
S'[ ClassName: android.widget.FrameLayout; Text: []; ContentDescription: null; ItemCount: -1; CurrentItemIndex: -1; IsEnabled: true; IsPassword: false; IsChecked: false; IsFullScreen: false; Scrollable: false; BeforeText: null; FromIndex: -1; ToIndex: -1; ScrollX: -1; ScrollY: -1; MaxScrollX: -1; MaxScrollY: -1; AddedCount: -1; RemovedCount: -1; ParcelableData: null ]'
p1543
sS'MovementGranularity'
p1544
g6
sa(dp1545
S'EventTime'
p1546
S'66587318'
p1547
sg4
L1449974706308L
sS'recordCount'
p1548
g6
sS'EventType'
p1549
S'TYPE_WINDOW_CONTENT_CHANGED'
p1550
sS'PackageName'
p1551
S'com.xp.tugele'
p1552
sS'OutBounds'
p1553
S'Rect(0, 0 - 720, 1280)'
p1554
sS'Action'
p1555
S'[ ClassName: android.widget.FrameLayout; Text: []; ContentDescription: null; ItemCount: -1; CurrentItemIndex: -1; IsEnabled: true; IsPassword: false; IsChecked: false; IsFullScreen: false; Scrollable: false; BeforeText: null; FromIndex: -1; ToIndex: -1; ScrollX: -1; ScrollY: -1; MaxScrollX: -1; MaxScrollY: -1; AddedCount: -1; RemovedCount: -1; ParcelableData: null ]'
p1556
sS'MovementGranularity'
p1557
g6
sa(dp1558
S'EventTime'
p1559
S'66588516'
p1560
sg4
L1449974707474L
sS'recordCount'
p1561
g6
sS'EventType'
p1562
S'TYPE_NOTIFICATION_STATE_CHANGED'
p1563
sS'PackageName'
p1564
S'com.xp.tugele'
p1565
sS'Action'
p1566
S'[ ClassName: android.widget.Toast$TN; Text: [\xe6\xb2\xa1\xe6\x9c\x89\xe6\x9b\xb4\xe5\xa4\x9a\xe5\x9b\xbe\xe7\x89\x87]; ContentDescription: null; ItemCount: -1; CurrentItemIndex: -1; IsEnabled: false; IsPassword: false; IsChecked: false; IsFullScreen: false; Scrollable: false; BeforeText: null; FromIndex: -1; ToIndex: -1; ScrollX: -1; ScrollY: -1; MaxScrollX: -1; MaxScrollY: -1; AddedCount: -1; RemovedCount: -1; ParcelableData: null ]'
p1567
sS'MovementGranularity'
p1568
g6
sa(dp1569
S'EventTime'
p1570
S'66590523'
p1571
sg4
L1449974709481L
sS'recordCount'
p1572
g6
sS'EventType'
p1573
S'TYPE_NOTIFICATION_STATE_CHANGED'
p1574
sS'PackageName'
p1575
S'com.xp.tugele'
p1576
sS'Action'
p1577
S'[ ClassName: android.widget.Toast$TN; Text: [\xe6\xb2\xa1\xe6\x9c\x89\xe6\x9b\xb4\xe5\xa4\x9a\xe5\x9b\xbe\xe7\x89\x87]; ContentDescription: null; ItemCount: -1; CurrentItemIndex: -1; IsEnabled: false; IsPassword: false; IsChecked: false; IsFullScreen: false; Scrollable: false; BeforeText: null; FromIndex: -1; ToIndex: -1; ScrollX: -1; ScrollY: -1; MaxScrollX: -1; MaxScrollY: -1; AddedCount: -1; RemovedCount: -1; ParcelableData: null ]'
p1578
sS'MovementGranularity'
p1579
g6
sa(dp1580
S'EventTime'
p1581
S'66592529'
p1582
sg4
L1449974711488L
sS'recordCount'
p1583
g6
sS'EventType'
p1584
S'TYPE_NOTIFICATION_STATE_CHANGED'
p1585
sS'PackageName'
p1586
S'com.xp.tugele'
p1587
sS'Action'
p1588
S'[ ClassName: android.widget.Toast$TN; Text: [\xe6\xb2\xa1\xe6\x9c\x89\xe6\x9b\xb4\xe5\xa4\x9a\xe5\x9b\xbe\xe7\x89\x87]; ContentDescription: null; ItemCount: -1; CurrentItemIndex: -1; IsEnabled: false; IsPassword: false; IsChecked: false; IsFullScreen: false; Scrollable: false; BeforeText: null; FromIndex: -1; ToIndex: -1; ScrollX: -1; ScrollY: -1; MaxScrollX: -1; MaxScrollY: -1; AddedCount: -1; RemovedCount: -1; ParcelableData: null ]'
p1589
sS'MovementGranularity'
p1590
g6
sa(dp1591
S'EventTime'
p1592
S'66593583'
p1593
sg4
L1449974712583L
sS'recordCount'
p1594
g6
sS'EventType'
p1595
S'TYPE_WINDOW_CONTENT_CHANGED'
p1596
sS'PackageName'
p1597
S'com.xp.tugele'
p1598
sS'OutBounds'
p1599
S'Rect(0, 0 - 720, 1280)'
p1600
sS'Action'
p1601
S'[ ClassName: android.widget.FrameLayout; Text: []; ContentDescription: null; ItemCount: -1; CurrentItemIndex: -1; IsEnabled: true; IsPassword: false; IsChecked: false; IsFullScreen: false; Scrollable: false; BeforeText: null; FromIndex: -1; ToIndex: -1; ScrollX: -1; ScrollY: -1; MaxScrollX: -1; MaxScrollY: -1; AddedCount: -1; RemovedCount: -1; ParcelableData: null ]'
p1602
sS'MovementGranularity'
p1603
g6
sa(dp1604
S'EventTime'
p1605
S'66593725'
p1606
sg4
L1449974712699L
sS'recordCount'
p1607
g6
sS'EventType'
p1608
S'TYPE_WINDOW_CONTENT_CHANGED'
p1609
sS'PackageName'
p1610
S'com.xp.tugele'
p1611
sS'OutBounds'
p1612
S'Rect(0, 0 - 720, 1280)'
p1613
sS'Action'
p1614
S'[ ClassName: android.widget.FrameLayout; Text: []; ContentDescription: null; ItemCount: -1; CurrentItemIndex: -1; IsEnabled: true; IsPassword: false; IsChecked: false; IsFullScreen: false; Scrollable: false; BeforeText: null; FromIndex: -1; ToIndex: -1; ScrollX: -1; ScrollY: -1; MaxScrollX: -1; MaxScrollY: -1; AddedCount: -1; RemovedCount: -1; ParcelableData: null ]'
p1615
sS'MovementGranularity'
p1616
g6
sa(dp1617
S'EventTime'
p1618
S'66593851'
p1619
sg4
L1449974712830L
sS'recordCount'
p1620
g6
sS'EventType'
p1621
S'TYPE_WINDOW_CONTENT_CHANGED'
p1622
sS'PackageName'
p1623
S'com.xp.tugele'
p1624
sS'OutBounds'
p1625
S'Rect(0, 0 - 720, 1280)'
p1626
sS'Action'
p1627
S'[ ClassName: android.widget.FrameLayout; Text: []; ContentDescription: null; ItemCount: -1; CurrentItemIndex: -1; IsEnabled: true; IsPassword: false; IsChecked: false; IsFullScreen: false; Scrollable: false; BeforeText: null; FromIndex: -1; ToIndex: -1; ScrollX: -1; ScrollY: -1; MaxScrollX: -1; MaxScrollY: -1; AddedCount: -1; RemovedCount: -1; ParcelableData: null ]'
p1628
sS'MovementGranularity'
p1629
g6
sa(dp1630
S'EventTime'
p1631
S'66593972'
p1632
sg4
L1449974712976L
sS'recordCount'
p1633
g6
sS'EventType'
p1634
S'TYPE_WINDOW_CONTENT_CHANGED'
p1635
sS'PackageName'
p1636
S'com.xp.tugele'
p1637
sS'OutBounds'
p1638
S'Rect(0, 0 - 720, 1280)'
p1639
sS'Action'
p1640
S'[ ClassName: android.widget.FrameLayout; Text: []; ContentDescription: null; ItemCount: -1; CurrentItemIndex: -1; IsEnabled: true; IsPassword: false; IsChecked: false; IsFullScreen: false; Scrollable: false; BeforeText: null; FromIndex: -1; ToIndex: -1; ScrollX: -1; ScrollY: -1; MaxScrollX: -1; MaxScrollY: -1; AddedCount: -1; RemovedCount: -1; ParcelableData: null ]'
p1641
sS'MovementGranularity'
p1642
g6
sa(dp1643
S'EventTime'
p1644
S'66594113'
p1645
sg4
L1449974713115L
sS'recordCount'
p1646
g6
sS'EventType'
p1647
S'TYPE_WINDOW_CONTENT_CHANGED'
p1648
sS'PackageName'
p1649
S'com.xp.tugele'
p1650
sS'OutBounds'
p1651
S'Rect(0, 0 - 720, 1280)'
p1652
sS'Action'
p1653
S'[ ClassName: android.widget.FrameLayout; Text: []; ContentDescription: null; ItemCount: -1; CurrentItemIndex: -1; IsEnabled: true; IsPassword: false; IsChecked: false; IsFullScreen: false; Scrollable: false; BeforeText: null; FromIndex: -1; ToIndex: -1; ScrollX: -1; ScrollY: -1; MaxScrollX: -1; MaxScrollY: -1; AddedCount: -1; RemovedCount: -1; ParcelableData: null ]'
p1654
sS'MovementGranularity'
p1655
g6
sa(dp1656
S'EventTime'
p1657
S'66594256'
p1658
sg4
L1449974713269L
sS'recordCount'
p1659
g6
sS'EventType'
p1660
S'TYPE_WINDOW_CONTENT_CHANGED'
p1661
sS'PackageName'
p1662
S'com.xp.tugele'
p1663
sS'OutBounds'
p1664
S'Rect(0, 0 - 720, 1280)'
p1665
sS'Action'
p1666
S'[ ClassName: android.widget.FrameLayout; Text: []; ContentDescription: null; ItemCount: -1; CurrentItemIndex: -1; IsEnabled: true; IsPassword: false; IsChecked: false; IsFullScreen: false; Scrollable: false; BeforeText: null; FromIndex: -1; ToIndex: -1; ScrollX: -1; ScrollY: -1; MaxScrollX: -1; MaxScrollY: -1; AddedCount: -1; RemovedCount: -1; ParcelableData: null ]'
p1667
sS'MovementGranularity'
p1668
g6
sa(dp1669
S'EventTime'
p1670
S'66594539'
p1671
sg4
L1449974713497L
sS'recordCount'
p1672
g6
sS'EventType'
p1673
S'TYPE_NOTIFICATION_STATE_CHANGED'
p1674
sS'PackageName'
p1675
S'com.xp.tugele'
p1676
sS'Action'
p1677
S'[ ClassName: android.widget.Toast$TN; Text: [\xe6\xb2\xa1\xe6\x9c\x89\xe6\x9b\xb4\xe5\xa4\x9a\xe5\x9b\xbe\xe7\x89\x87]; ContentDescription: null; ItemCount: -1; CurrentItemIndex: -1; IsEnabled: false; IsPassword: false; IsChecked: false; IsFullScreen: false; Scrollable: false; BeforeText: null; FromIndex: -1; ToIndex: -1; ScrollX: -1; ScrollY: -1; MaxScrollX: -1; MaxScrollY: -1; AddedCount: -1; RemovedCount: -1; ParcelableData: null ]'
p1678
sS'MovementGranularity'
p1679
g6
sa(dp1680
S'EventTime'
p1681
S'66594692'
p1682
sg4
L1449974713675L
sS'recordCount'
p1683
g6
sS'EventType'
p1684
S'TYPE_WINDOW_CONTENT_CHANGED'
p1685
sS'PackageName'
p1686
S'com.xp.tugele'
p1687
sS'OutBounds'
p1688
S'Rect(0, 0 - 720, 1280)'
p1689
sS'Action'
p1690
S'[ ClassName: android.widget.FrameLayout; Text: []; ContentDescription: null; ItemCount: -1; CurrentItemIndex: -1; IsEnabled: true; IsPassword: false; IsChecked: false; IsFullScreen: false; Scrollable: false; BeforeText: null; FromIndex: -1; ToIndex: -1; ScrollX: -1; ScrollY: -1; MaxScrollX: -1; MaxScrollY: -1; AddedCount: -1; RemovedCount: -1; ParcelableData: null ]'
p1691
sS'MovementGranularity'
p1692
g6
sa(dp1693
S'EventTime'
p1694
S'66594817'
p1695
sg4
L1449974713826L
sS'recordCount'
p1696
g6
sS'EventType'
p1697
S'TYPE_WINDOW_CONTENT_CHANGED'
p1698
sS'PackageName'
p1699
S'com.xp.tugele'
p1700
sS'OutBounds'
p1701
S'Rect(0, 0 - 720, 1280)'
p1702
sS'Action'
p1703
S'[ ClassName: android.widget.FrameLayout; Text: []; ContentDescription: null; ItemCount: -1; CurrentItemIndex: -1; IsEnabled: true; IsPassword: false; IsChecked: false; IsFullScreen: false; Scrollable: false; BeforeText: null; FromIndex: -1; ToIndex: -1; ScrollX: -1; ScrollY: -1; MaxScrollX: -1; MaxScrollY: -1; AddedCount: -1; RemovedCount: -1; ParcelableData: null ]'
p1704
sS'MovementGranularity'
p1705
g6
sa(dp1706
S'EventTime'
p1707
S'66594942'
p1708
sg4
L1449974713964L
sS'recordCount'
p1709
g6
sS'EventType'
p1710
S'TYPE_WINDOW_CONTENT_CHANGED'
p1711
sS'PackageName'
p1712
S'com.xp.tugele'
p1713
sS'OutBounds'
p1714
S'Rect(0, 0 - 720, 1280)'
p1715
sS'Action'
p1716
S'[ ClassName: android.widget.FrameLayout; Text: []; ContentDescription: null; ItemCount: -1; CurrentItemIndex: -1; IsEnabled: true; IsPassword: false; IsChecked: false; IsFullScreen: false; Scrollable: false; BeforeText: null; FromIndex: -1; ToIndex: -1; ScrollX: -1; ScrollY: -1; MaxScrollX: -1; MaxScrollY: -1; AddedCount: -1; RemovedCount: -1; ParcelableData: null ]'
p1717
sS'MovementGranularity'
p1718
g6
sa(dp1719
S'EventTime'
p1720
S'66595035'
p1721
sg4
L1449974713992L
sS'recordCount'
p1722
g6
sS'EventType'
p1723
S'TYPE_VIEW_CLICKED'
p1724
sS'PackageName'
p1725
S'com.xp.tugele'
p1726
sS'OutBounds'
p1727
S'Rect(364, 625 - 712, 847)'
p1728
sS'Action'
p1729
S'[ ClassName: android.widget.ImageView; Text: []; ContentDescription: null; ItemCount: -1; CurrentItemIndex: -1; IsEnabled: true; IsPassword: false; IsChecked: false; IsFullScreen: false; Scrollable: false; BeforeText: null; FromIndex: -1; ToIndex: -1; ScrollX: -1; ScrollY: -1; MaxScrollX: -1; MaxScrollY: -1; AddedCount: -1; RemovedCount: -1; ParcelableData: null ]'
p1730
sS'MovementGranularity'
p1731
g6
sa(dp1732
S'EventTime'
p1733
S'66595105'
p1734
sg4
L1449974714117L
sS'recordCount'
p1735
g6
sS'EventType'
p1736
S'TYPE_WINDOW_CONTENT_CHANGED'
p1737
sS'PackageName'
p1738
S'com.xp.tugele'
p1739
sS'OutBounds'
p1740
S'Rect(0, 0 - 720, 1280)'
p1741
sS'Action'
p1742
S'[ ClassName: android.widget.FrameLayout; Text: []; ContentDescription: null; ItemCount: -1; CurrentItemIndex: -1; IsEnabled: true; IsPassword: false; IsChecked: false; IsFullScreen: false; Scrollable: false; BeforeText: null; FromIndex: -1; ToIndex: -1; ScrollX: -1; ScrollY: -1; MaxScrollX: -1; MaxScrollY: -1; AddedCount: -1; RemovedCount: -1; ParcelableData: null ]'
p1743
sS'MovementGranularity'
p1744
g6
sa(dp1745
S'EventTime'
p1746
S'66595219'
p1747
sg4
L1449974714181L
sS'recordCount'
p1748
g6
sS'EventType'
p1749
S'TYPE_WINDOW_STATE_CHANGED'
p1750
sS'PackageName'
p1751
S'com.xp.tugele'
p1752
sS'OutBounds'
p1753
S'Rect(0, 0 - 720, 1280)'
p1754
sS'Action'
p1755
S'[ ClassName: com.xp.ui.activity.ImageScanningActivity; Text: [\xe5\x9b\xbe\xe4\xb8\xaa\xe4\xb9\x90]; ContentDescription: null; ItemCount: -1; CurrentItemIndex: -1; IsEnabled: true; IsPassword: false; IsChecked: false; IsFullScreen: true; Scrollable: false; BeforeText: null; FromIndex: -1; ToIndex: -1; ScrollX: -1; ScrollY: -1; MaxScrollX: -1; MaxScrollY: -1; AddedCount: -1; RemovedCount: -1; ParcelableData: null ]'
p1756
sS'MovementGranularity'
p1757
g6
sa(dp1758
S'EventTime'
p1759
S'66595270'
p1760
sg4
L1449974714235L
sS'recordCount'
p1761
g6
sS'EventType'
p1762
S'TYPE_WINDOW_CONTENT_CHANGED'
p1763
sS'PackageName'
p1764
S'com.xp.tugele'
p1765
sS'OutBounds'
p1766
S'Rect(0, 0 - 720, 1280)'
p1767
sS'Action'
p1768
S'[ ClassName: android.widget.FrameLayout; Text: []; ContentDescription: null; ItemCount: -1; CurrentItemIndex: -1; IsEnabled: true; IsPassword: false; IsChecked: false; IsFullScreen: false; Scrollable: false; BeforeText: null; FromIndex: -1; ToIndex: -1; ScrollX: -1; ScrollY: -1; MaxScrollX: -1; MaxScrollY: -1; AddedCount: -1; RemovedCount: -1; ParcelableData: null ]'
p1769
sS'MovementGranularity'
p1770
g6
sa(dp1771
S'EventTime'
p1772
S'66596541'
p1773
sg4
L1449974715499L
sS'recordCount'
p1774
g6
sS'EventType'
p1775
S'TYPE_NOTIFICATION_STATE_CHANGED'
p1776
sS'PackageName'
p1777
S'com.xp.tugele'
p1778
sS'Action'
p1779
S'[ ClassName: android.widget.Toast$TN; Text: [\xe6\xb2\xa1\xe6\x9c\x89\xe6\x9b\xb4\xe5\xa4\x9a\xe5\x9b\xbe\xe7\x89\x87]; ContentDescription: null; ItemCount: -1; CurrentItemIndex: -1; IsEnabled: false; IsPassword: false; IsChecked: false; IsFullScreen: false; Scrollable: false; BeforeText: null; FromIndex: -1; ToIndex: -1; ScrollX: -1; ScrollY: -1; MaxScrollX: -1; MaxScrollY: -1; AddedCount: -1; RemovedCount: -1; ParcelableData: null ]'
p1780
sS'MovementGranularity'
p1781
g6
sa(dp1782
S'EventTime'
p1783
S'66598799'
p1784
sg4
L1449974717805L
sS'recordCount'
p1785
g6
sS'EventType'
p1786
S'TYPE_WINDOW_STATE_CHANGED'
p1787
sS'PackageName'
p1788
S'com.xp.tugele'
p1789
sS'OutBounds'
p1790
S'Rect(0, 0 - 720, 1280)'
p1791
sS'Action'
p1792
S'[ ClassName: com.xp.ui.activity.HotDetailsActivity; Text: [ClassifyImageActivity]; ContentDescription: null; ItemCount: -1; CurrentItemIndex: -1; IsEnabled: true; IsPassword: false; IsChecked: false; IsFullScreen: true; Scrollable: false; BeforeText: null; FromIndex: -1; ToIndex: -1; ScrollX: -1; ScrollY: -1; MaxScrollX: -1; MaxScrollY: -1; AddedCount: -1; RemovedCount: -1; ParcelableData: null ]'
p1793
sS'MovementGranularity'
p1794
g6
sa(dp1795
S'EventTime'
p1796
S'66598922'
p1797
sg4
L1449974717913L
sS'recordCount'
p1798
g6
sS'EventType'
p1799
S'TYPE_WINDOW_CONTENT_CHANGED'
p1800
sS'PackageName'
p1801
S'com.xp.tugele'
p1802
sS'OutBounds'
p1803
S'Rect(0, 0 - 720, 1280)'
p1804
sS'Action'
p1805
S'[ ClassName: android.widget.FrameLayout; Text: []; ContentDescription: null; ItemCount: -1; CurrentItemIndex: -1; IsEnabled: true; IsPassword: false; IsChecked: false; IsFullScreen: false; Scrollable: false; BeforeText: null; FromIndex: -1; ToIndex: -1; ScrollX: -1; ScrollY: -1; MaxScrollX: -1; MaxScrollY: -1; AddedCount: -1; RemovedCount: -1; ParcelableData: null ]'
p1806
sS'MovementGranularity'
p1807
g6
sa(dp1808
S'EventTime'
p1809
S'66599819'
p1810
sg4
L1449974718802L
sS'recordCount'
p1811
g6
sS'EventType'
p1812
S'TYPE_WINDOW_CONTENT_CHANGED'
p1813
sS'PackageName'
p1814
S'com.xp.tugele'
p1815
sS'OutBounds'
p1816
S'Rect(0, 0 - 720, 1280)'
p1817
sS'Action'
p1818
S'[ ClassName: android.widget.FrameLayout; Text: []; ContentDescription: null; ItemCount: -1; CurrentItemIndex: -1; IsEnabled: true; IsPassword: false; IsChecked: false; IsFullScreen: false; Scrollable: false; BeforeText: null; FromIndex: -1; ToIndex: -1; ScrollX: -1; ScrollY: -1; MaxScrollX: -1; MaxScrollY: -1; AddedCount: -1; RemovedCount: -1; ParcelableData: null ]'
p1819
sS'MovementGranularity'
p1820
g6
sa(dp1821
S'EventTime'
p1822
S'66600589'
p1823
sg4
L1449974719547L
sS'recordCount'
p1824
g6
sS'EventType'
p1825
S'TYPE_VIEW_CLICKED'
p1826
sS'PackageName'
p1827
S'com.xp.tugele'
p1828
sS'OutBounds'
p1829
S'Rect(0, 50 - 58, 146)'
p1830
sS'Action'
p1831
S'[ ClassName: android.widget.FrameLayout; Text: []; ContentDescription: null; ItemCount: -1; CurrentItemIndex: -1; IsEnabled: true; IsPassword: false; IsChecked: false; IsFullScreen: false; Scrollable: false; BeforeText: null; FromIndex: -1; ToIndex: -1; ScrollX: -1; ScrollY: -1; MaxScrollX: -1; MaxScrollY: -1; AddedCount: -1; RemovedCount: -1; ParcelableData: null ]'
p1832
sS'MovementGranularity'
p1833
g6
sa(dp1834
S'EventTime'
p1835
S'66600687'
p1836
sg4
L1449974719656L
sS'recordCount'
p1837
g6
sS'EventType'
p1838
S'TYPE_WINDOW_STATE_CHANGED'
p1839
sS'PackageName'
p1840
S'com.xp.tugele'
p1841
sS'OutBounds'
p1842
S'Rect(0, 0 - 720, 1280)'
p1843
sS'Action'
p1844
S'[ ClassName: com.xp.ui.MainActivity; Text: [\xe5\x9b\xbe\xe4\xb8\xaa\xe4\xb9\x90]; ContentDescription: null; ItemCount: -1; CurrentItemIndex: -1; IsEnabled: true; IsPassword: false; IsChecked: false; IsFullScreen: true; Scrollable: false; BeforeText: null; FromIndex: -1; ToIndex: -1; ScrollX: -1; ScrollY: -1; MaxScrollX: -1; MaxScrollY: -1; AddedCount: -1; RemovedCount: -1; ParcelableData: null ]'
p1845
sS'MovementGranularity'
p1846
g6
sa(dp1847
S'EventTime'
p1848
S'66600786'
p1849
sg4
L1449974719752L
sS'recordCount'
p1850
g6
sS'EventType'
p1851
S'TYPE_WINDOW_CONTENT_CHANGED'
p1852
sS'PackageName'
p1853
S'com.xp.tugele'
p1854
sS'OutBounds'
p1855
S'Rect(0, 0 - 720, 1280)'
p1856
sS'Action'
p1857
S'[ ClassName: android.widget.FrameLayout; Text: []; ContentDescription: null; ItemCount: -1; CurrentItemIndex: -1; IsEnabled: true; IsPassword: false; IsChecked: false; IsFullScreen: false; Scrollable: false; BeforeText: null; FromIndex: -1; ToIndex: -1; ScrollX: -1; ScrollY: -1; MaxScrollX: -1; MaxScrollY: -1; AddedCount: -1; RemovedCount: -1; ParcelableData: null ]'
p1858
sS'MovementGranularity'
p1859
g6
sa(dp1860
S'EventTime'
p1861
S'66601858'
p1862
sg4
L1449974720838L
sS'recordCount'
p1863
g6
sS'EventType'
p1864
S'TYPE_VIEW_SCROLLED'
p1865
sS'PackageName'
p1866
S'com.xp.tugele'
p1867
sS'OutBounds'
p1868
S'Rect(0, 52 - 720, 1175)'
p1869
sS'Action'
p1870
S'[ ClassName: android.widget.ListView; Text: []; ContentDescription: null; ItemCount: 20; CurrentItemIndex: -1; IsEnabled: true; IsPassword: false; IsChecked: false; IsFullScreen: false; Scrollable: true; BeforeText: null; FromIndex: 16; ToIndex: 18; ScrollX: -1; ScrollY: -1; MaxScrollX: -1; MaxScrollY: -1; AddedCount: -1; RemovedCount: -1; ParcelableData: null ]'
p1871
sS'MovementGranularity'
p1872
g6
sa(dp1873
S'EventTime'
p1874
S'66601980'
p1875
sg4
L1449974720968L
sS'recordCount'
p1876
g6
sS'EventType'
p1877
S'TYPE_VIEW_SCROLLED'
p1878
sS'PackageName'
p1879
S'com.xp.tugele'
p1880
sS'OutBounds'
p1881
S'Rect(0, 52 - 720, 1175)'
p1882
sS'Action'
p1883
S'[ ClassName: android.widget.ListView; Text: []; ContentDescription: null; ItemCount: 20; CurrentItemIndex: -1; IsEnabled: true; IsPassword: false; IsChecked: false; IsFullScreen: false; Scrollable: true; BeforeText: null; FromIndex: 13; ToIndex: 15; ScrollX: -1; ScrollY: -1; MaxScrollX: -1; MaxScrollY: -1; AddedCount: -1; RemovedCount: -1; ParcelableData: null ]'
p1884
sS'MovementGranularity'
p1885
g6
sa(dp1886
S'EventTime'
p1887
S'66602110'
p1888
sg4
L1449974721109L
sS'recordCount'
p1889
g6
sS'EventType'
p1890
S'TYPE_VIEW_SCROLLED'
p1891
sS'PackageName'
p1892
S'com.xp.tugele'
p1893
sS'OutBounds'
p1894
S'Rect(0, 52 - 720, 1175)'
p1895
sS'Action'
p1896
S'[ ClassName: android.widget.ListView; Text: []; ContentDescription: null; ItemCount: 20; CurrentItemIndex: -1; IsEnabled: true; IsPassword: false; IsChecked: false; IsFullScreen: false; Scrollable: true; BeforeText: null; FromIndex: 11; ToIndex: 13; ScrollX: -1; ScrollY: -1; MaxScrollX: -1; MaxScrollY: -1; AddedCount: -1; RemovedCount: -1; ParcelableData: null ]'
p1897
sS'MovementGranularity'
p1898
g6
sa(dp1899
S'EventTime'
p1900
S'66602202'
p1901
sg4
L1449974721196L
sS'recordCount'
p1902
g6
sS'EventType'
p1903
S'TYPE_WINDOW_CONTENT_CHANGED'
p1904
sS'PackageName'
p1905
S'com.xp.tugele'
p1906
sS'OutBounds'
p1907
S'Rect(0, 0 - 720, 1280)'
p1908
sS'Action'
p1909
S'[ ClassName: android.widget.FrameLayout; Text: []; ContentDescription: null; ItemCount: -1; CurrentItemIndex: -1; IsEnabled: true; IsPassword: false; IsChecked: false; IsFullScreen: false; Scrollable: false; BeforeText: null; FromIndex: -1; ToIndex: -1; ScrollX: -1; ScrollY: -1; MaxScrollX: -1; MaxScrollY: -1; AddedCount: -1; RemovedCount: -1; ParcelableData: null ]'
p1910
sS'MovementGranularity'
p1911
g6
sa(dp1912
S'EventTime'
p1913
S'66602261'
p1914
sg4
L1449974721263L
sS'recordCount'
p1915
g6
sS'EventType'
p1916
S'TYPE_VIEW_SCROLLED'
p1917
sS'PackageName'
p1918
S'com.xp.tugele'
p1919
sS'OutBounds'
p1920
S'Rect(0, 52 - 720, 1175)'
p1921
sS'Action'
p1922
S'[ ClassName: android.widget.ListView; Text: []; ContentDescription: null; ItemCount: 20; CurrentItemIndex: -1; IsEnabled: true; IsPassword: false; IsChecked: false; IsFullScreen: false; Scrollable: true; BeforeText: null; FromIndex: 10; ToIndex: 13; ScrollX: -1; ScrollY: -1; MaxScrollX: -1; MaxScrollY: -1; AddedCount: -1; RemovedCount: -1; ParcelableData: null ]'
p1923
sS'MovementGranularity'
p1924
g6
sa(dp1925
S'EventTime'
p1926
S'66602405'
p1927
sg4
L1449974721388L
sS'recordCount'
p1928
g6
sS'EventType'
p1929
S'TYPE_VIEW_SCROLLED'
p1930
sS'PackageName'
p1931
S'com.xp.tugele'
p1932
sS'OutBounds'
p1933
S'Rect(0, 52 - 720, 1175)'
p1934
sS'Action'
p1935
S'[ ClassName: android.widget.ListView; Text: []; ContentDescription: null; ItemCount: 20; CurrentItemIndex: -1; IsEnabled: true; IsPassword: false; IsChecked: false; IsFullScreen: false; Scrollable: true; BeforeText: null; FromIndex: 10; ToIndex: 12; ScrollX: -1; ScrollY: -1; MaxScrollX: -1; MaxScrollY: -1; AddedCount: -1; RemovedCount: -1; ParcelableData: null ]'
p1936
sS'MovementGranularity'
p1937
g6
sa(dp1938
S'EventTime'
p1939
S'66602529'
p1940
sg4
L1449974721525L
sS'recordCount'
p1941
g6
sS'EventType'
p1942
S'TYPE_VIEW_SCROLLED'
p1943
sS'PackageName'
p1944
S'com.xp.tugele'
p1945
sS'OutBounds'
p1946
S'Rect(0, 52 - 720, 1175)'
p1947
sS'Action'
p1948
S'[ ClassName: android.widget.ListView; Text: []; ContentDescription: null; ItemCount: 20; CurrentItemIndex: -1; IsEnabled: true; IsPassword: false; IsChecked: false; IsFullScreen: false; Scrollable: true; BeforeText: null; FromIndex: 9; ToIndex: 11; ScrollX: -1; ScrollY: -1; MaxScrollX: -1; MaxScrollY: -1; AddedCount: -1; RemovedCount: -1; ParcelableData: null ]'
p1949
sS'MovementGranularity'
p1950
g6
sa(dp1951
S'EventTime'
p1952
S'66602666'
p1953
sg4
L1449974721723L
sS'recordCount'
p1954
g6
sS'EventType'
p1955
S'TYPE_VIEW_SCROLLED'
p1956
sS'PackageName'
p1957
S'com.xp.tugele'
p1958
sS'OutBounds'
p1959
S'Rect(0, 52 - 720, 1175)'
p1960
sS'Action'
p1961
S'[ ClassName: android.widget.ListView; Text: []; ContentDescription: null; ItemCount: 20; CurrentItemIndex: -1; IsEnabled: true; IsPassword: false; IsChecked: false; IsFullScreen: false; Scrollable: true; BeforeText: null; FromIndex: 7; ToIndex: 9; ScrollX: -1; ScrollY: -1; MaxScrollX: -1; MaxScrollY: -1; AddedCount: -1; RemovedCount: -1; ParcelableData: null ]'
p1962
sS'MovementGranularity'
p1963
g6
sa(dp1964
S'EventTime'
p1965
S'66602898'
p1966
sg4
L1449974721925L
sS'recordCount'
p1967
g6
sS'EventType'
p1968
S'TYPE_VIEW_SCROLLED'
p1969
sS'PackageName'
p1970
S'com.xp.tugele'
p1971
sS'OutBounds'
p1972
S'Rect(0, 52 - 720, 1175)'
p1973
sS'Action'
p1974
S'[ ClassName: android.widget.ListView; Text: []; ContentDescription: null; ItemCount: 20; CurrentItemIndex: -1; IsEnabled: true; IsPassword: false; IsChecked: false; IsFullScreen: false; Scrollable: true; BeforeText: null; FromIndex: 0; ToIndex: 2; ScrollX: -1; ScrollY: -1; MaxScrollX: -1; MaxScrollY: -1; AddedCount: -1; RemovedCount: -1; ParcelableData: null ]'
p1975
sS'MovementGranularity'
p1976
g6
sa(dp1977
S'EventTime'
p1978
S'66603135'
p1979
sg4
L1449974722131L
sS'recordCount'
p1980
g6
sS'EventType'
p1981
S'TYPE_WINDOW_CONTENT_CHANGED'
p1982
sS'PackageName'
p1983
S'com.xp.tugele'
p1984
sS'OutBounds'
p1985
S'Rect(0, 0 - 720, 1280)'
p1986
sS'Action'
p1987
S'[ ClassName: android.widget.FrameLayout; Text: []; ContentDescription: null; ItemCount: -1; CurrentItemIndex: -1; IsEnabled: true; IsPassword: false; IsChecked: false; IsFullScreen: false; Scrollable: false; BeforeText: null; FromIndex: -1; ToIndex: -1; ScrollX: -1; ScrollY: -1; MaxScrollX: -1; MaxScrollY: -1; AddedCount: -1; RemovedCount: -1; ParcelableData: null ]'
p1988
sS'MovementGranularity'
p1989
g6
sa(dp1990
S'EventTime'
p1991
S'66604177'
p1992
sg4
L1449974723136L
sS'recordCount'
p1993
g189
sS'EventType'
p1994
S'TYPE_VIEW_CLICKED'
p1995
sS'PackageName'
p1996
S'com.xp.tugele'
p1997
sS'OutBounds'
p1998
S'Rect(364, 578 - 604, 1011)'
p1999
sS'Action'
p2000
S'[ ClassName: android.widget.LinearLayout; Text: [\xe5\xa4\xb1\xe7\x9c\xa0\xe8\xbf\x99\xe4\xb8\xaa\xe5\xb0\x8f\xe8\xb4\xb1\xe4\xba\xba]; ContentDescription: null; ItemCount: -1; CurrentItemIndex: -1; IsEnabled: true; IsPassword: false; IsChecked: false; IsFullScreen: false; Scrollable: false; BeforeText: null; FromIndex: -1; ToIndex: -1; ScrollX: -1; ScrollY: -1; MaxScrollX: -1; MaxScrollY: -1; AddedCount: -1; RemovedCount: -1; ParcelableData: null ]'
p2001
sS'MovementGranularity'
p2002
g6
sa(dp2003
S'EventTime'
p2004
S'66604565'
p2005
sg4
L1449974723598L
sS'recordCount'
p2006
g6
sS'EventType'
p2007
S'TYPE_WINDOW_STATE_CHANGED'
p2008
sS'PackageName'
p2009
S'com.xp.tugele'
p2010
sS'OutBounds'
p2011
S'Rect(0, 0 - 720, 1280)'
p2012
sS'Action'
p2013
S'[ ClassName: com.xp.ui.activity.HotDetailsActivity; Text: [ClassifyImageActivity]; ContentDescription: null; ItemCount: -1; CurrentItemIndex: -1; IsEnabled: true; IsPassword: false; IsChecked: false; IsFullScreen: true; Scrollable: false; BeforeText: null; FromIndex: -1; ToIndex: -1; ScrollX: -1; ScrollY: -1; MaxScrollX: -1; MaxScrollY: -1; AddedCount: -1; RemovedCount: -1; ParcelableData: null ]'
p2014
sS'MovementGranularity'
p2015
g6
sa(dp2016
S'EventTime'
p2017
S'66604604'
p2018
sg4
L1449974723609L
sS'recordCount'
p2019
g6
sS'EventType'
p2020
S'TYPE_WINDOW_CONTENT_CHANGED'
p2021
sS'PackageName'
p2022
S'com.xp.tugele'
p2023
sS'OutBounds'
p2024
S'Rect(0, 0 - 720, 1280)'
p2025
sS'Action'
p2026
S'[ ClassName: android.widget.FrameLayout; Text: []; ContentDescription: null; ItemCount: -1; CurrentItemIndex: -1; IsEnabled: true; IsPassword: false; IsChecked: false; IsFullScreen: false; Scrollable: false; BeforeText: null; FromIndex: -1; ToIndex: -1; ScrollX: -1; ScrollY: -1; MaxScrollX: -1; MaxScrollY: -1; AddedCount: -1; RemovedCount: -1; ParcelableData: null ]'
p2027
sS'MovementGranularity'
p2028
g6
sa(dp2029
S'EventTime'
p2030
S'66604884'
p2031
sg4
L1449974723878L
sS'recordCount'
p2032
g6
sS'EventType'
p2033
S'TYPE_WINDOW_CONTENT_CHANGED'
p2034
sS'PackageName'
p2035
S'com.xp.tugele'
p2036
sS'OutBounds'
p2037
S'Rect(0, 0 - 720, 1280)'
p2038
sS'Action'
p2039
S'[ ClassName: android.widget.FrameLayout; Text: []; ContentDescription: null; ItemCount: -1; CurrentItemIndex: -1; IsEnabled: true; IsPassword: false; IsChecked: false; IsFullScreen: false; Scrollable: false; BeforeText: null; FromIndex: -1; ToIndex: -1; ScrollX: -1; ScrollY: -1; MaxScrollX: -1; MaxScrollY: -1; AddedCount: -1; RemovedCount: -1; ParcelableData: null ]'
p2040
sS'MovementGranularity'
p2041
g6
sa(dp2042
S'EventTime'
p2043
S'66604886'
p2044
sg4
L1449974723879L
sS'recordCount'
p2045
g6
sS'EventType'
p2046
S'TYPE_VIEW_CLICKED'
p2047
sS'PackageName'
p2048
S'com.xp.tugele'
p2049
sS'OutBounds'
p2050
S'Rect(364, 744 - 712, 1266)'
p2051
sS'Action'
p2052
S'[ ClassName: android.widget.ImageView; Text: []; ContentDescription: null; ItemCount: -1; CurrentItemIndex: -1; IsEnabled: true; IsPassword: false; IsChecked: false; IsFullScreen: false; Scrollable: false; BeforeText: null; FromIndex: -1; ToIndex: -1; ScrollX: -1; ScrollY: -1; MaxScrollX: -1; MaxScrollY: -1; AddedCount: -1; RemovedCount: -1; ParcelableData: null ]'
p2053
sS'MovementGranularity'
p2054
g6
sa(dp2055
S'EventTime'
p2056
S'66605092'
p2057
sg4
L1449974724057L
sS'recordCount'
p2058
g6
sS'EventType'
p2059
S'TYPE_WINDOW_STATE_CHANGED'
p2060
sS'PackageName'
p2061
S'com.xp.tugele'
p2062
sS'OutBounds'
p2063
S'Rect(0, 0 - 720, 1280)'
p2064
sS'Action'
p2065
S'[ ClassName: com.xp.ui.activity.ImageScanningActivity; Text: [\xe5\x9b\xbe\xe4\xb8\xaa\xe4\xb9\x90]; ContentDescription: null; ItemCount: -1; CurrentItemIndex: -1; IsEnabled: true; IsPassword: false; IsChecked: false; IsFullScreen: true; Scrollable: false; BeforeText: null; FromIndex: -1; ToIndex: -1; ScrollX: -1; ScrollY: -1; MaxScrollX: -1; MaxScrollY: -1; AddedCount: -1; RemovedCount: -1; ParcelableData: null ]'
p2066
sS'MovementGranularity'
p2067
g6
sa(dp2068
S'EventTime'
p2069
S'66605122'
p2070
sg4
L1449974724088L
sS'recordCount'
p2071
g6
sS'EventType'
p2072
S'TYPE_WINDOW_CONTENT_CHANGED'
p2073
sS'PackageName'
p2074
S'com.xp.tugele'
p2075
sS'OutBounds'
p2076
S'Rect(0, 0 - 720, 1280)'
p2077
sS'Action'
p2078
S'[ ClassName: android.widget.FrameLayout; Text: []; ContentDescription: null; ItemCount: -1; CurrentItemIndex: -1; IsEnabled: true; IsPassword: false; IsChecked: false; IsFullScreen: false; Scrollable: false; BeforeText: null; FromIndex: -1; ToIndex: -1; ScrollX: -1; ScrollY: -1; MaxScrollX: -1; MaxScrollY: -1; AddedCount: -1; RemovedCount: -1; ParcelableData: null ]'
p2079
sS'MovementGranularity'
p2080
g6
sa(dp2081
S'EventTime'
p2082
S'66605522'
p2083
sg4
L1449974724498L
sS'recordCount'
p2084
g6
sS'EventType'
p2085
S'TYPE_WINDOW_STATE_CHANGED'
p2086
sS'PackageName'
p2087
S'com.xp.tugele'
p2088
sS'OutBounds'
p2089
S'Rect(0, 0 - 720, 1280)'
p2090
sS'Action'
p2091
S'[ ClassName: com.xp.ui.activity.HotDetailsActivity; Text: [ClassifyImageActivity]; ContentDescription: null; ItemCount: -1; CurrentItemIndex: -1; IsEnabled: true; IsPassword: false; IsChecked: false; IsFullScreen: true; Scrollable: false; BeforeText: null; FromIndex: -1; ToIndex: -1; ScrollX: -1; ScrollY: -1; MaxScrollX: -1; MaxScrollY: -1; AddedCount: -1; RemovedCount: -1; ParcelableData: null ]'
p2092
sS'MovementGranularity'
p2093
g6
sa(dp2094
S'EventTime'
p2095
S'66605802'
p2096
sg4
L1449974724759L
sS'recordCount'
p2097
g6
sS'EventType'
p2098
S'TYPE_VIEW_CLICKED'
p2099
sS'PackageName'
p2100
S'com.xp.tugele'
p2101
sS'OutBounds'
p2102
S'Rect(364, 744 - 712, 1266)'
p2103
sS'Action'
p2104
S'[ ClassName: android.widget.ImageView; Text: []; ContentDescription: null; ItemCount: -1; CurrentItemIndex: -1; IsEnabled: true; IsPassword: false; IsChecked: false; IsFullScreen: false; Scrollable: false; BeforeText: null; FromIndex: -1; ToIndex: -1; ScrollX: -1; ScrollY: -1; MaxScrollX: -1; MaxScrollY: -1; AddedCount: -1; RemovedCount: -1; ParcelableData: null ]'
p2105
sS'MovementGranularity'
p2106
g6
sa(dp2107
S'EventTime'
p2108
S'66606161'
p2109
sg4
L1449974725127L
sS'recordCount'
p2110
g6
sS'EventType'
p2111
S'TYPE_WINDOW_STATE_CHANGED'
p2112
sS'PackageName'
p2113
S'com.xp.tugele'
p2114
sS'OutBounds'
p2115
S'Rect(0, 0 - 720, 1280)'
p2116
sS'Action'
p2117
S'[ ClassName: com.xp.ui.activity.ImageScanningActivity; Text: [\xe5\x9b\xbe\xe4\xb8\xaa\xe4\xb9\x90]; ContentDescription: null; ItemCount: -1; CurrentItemIndex: -1; IsEnabled: true; IsPassword: false; IsChecked: false; IsFullScreen: true; Scrollable: false; BeforeText: null; FromIndex: -1; ToIndex: -1; ScrollX: -1; ScrollY: -1; MaxScrollX: -1; MaxScrollY: -1; AddedCount: -1; RemovedCount: -1; ParcelableData: null ]'
p2118
sS'MovementGranularity'
p2119
g6
sa(dp2120
S'EventTime'
p2121
S'66606228'
p2122
sg4
L1449974725193L
sS'recordCount'
p2123
g6
sS'EventType'
p2124
S'TYPE_WINDOW_CONTENT_CHANGED'
p2125
sS'PackageName'
p2126
S'com.xp.tugele'
p2127
sS'OutBounds'
p2128
S'Rect(0, 0 - 720, 1280)'
p2129
sS'Action'
p2130
S'[ ClassName: android.widget.FrameLayout; Text: []; ContentDescription: null; ItemCount: -1; CurrentItemIndex: -1; IsEnabled: true; IsPassword: false; IsChecked: false; IsFullScreen: false; Scrollable: false; BeforeText: null; FromIndex: -1; ToIndex: -1; ScrollX: -1; ScrollY: -1; MaxScrollX: -1; MaxScrollY: -1; AddedCount: -1; RemovedCount: -1; ParcelableData: null ]'
p2131
sS'MovementGranularity'
p2132
g6
sa(dp2133
S'EventTime'
p2134
S'66624808'
p2135
sg4
L1449974743925L
sS'recordCount'
p2136
g6
sS'EventType'
p2137
S'TYPE_WINDOW_STATE_CHANGED'
p2138
sS'PackageName'
p2139
S'com.xp.tugele'
p2140
sS'OutBounds'
p2141
S'Rect(0, 0 - 720, 1280)'
p2142
sS'Action'
p2143
S'[ ClassName: com.xp.ui.activity.HotDetailsActivity; Text: [ClassifyImageActivity]; ContentDescription: null; ItemCount: -1; CurrentItemIndex: -1; IsEnabled: true; IsPassword: false; IsChecked: false; IsFullScreen: true; Scrollable: false; BeforeText: null; FromIndex: -1; ToIndex: -1; ScrollX: -1; ScrollY: -1; MaxScrollX: -1; MaxScrollY: -1; AddedCount: -1; RemovedCount: -1; ParcelableData: null ]'
p2144
sS'MovementGranularity'
p2145
g6
sa.