(lp0
(dp1
S'processID'
p2
S'3012'
p3
sS'SyscTime'
p4
L1449722426605L
sS'priority'
p5
S'D'
p6
sS'tag'
p7
S'dalvikvm'
p8
sS'threadID'
p9
S' 3012'
p10
sS'message'
p11
S'Late-enabling CheckJNI\n'
p12
sa(dp13
g2
S'3012'
p14
sg4
L1449722426635L
sg5
g6
sg7
S'ActivityThread'
p15
sg9
S' 3012'
p16
sg11
S'setTargetHeapUtilization:0.75\n'
p17
sa(dp18
g2
S'3012'
p19
sg4
L1449722426635L
sg5
g6
sg7
S'ActivityThread'
p20
sg9
S' 3012'
p21
sg11
S'setTargetHeapConcurrentStart:2097152\n'
p22
sa(dp23
g2
S'3012'
p24
sg4
L1449722426875L
sg5
g6
sg7
S'dalvikvm'
p25
sg9
S' 3012'
p26
sg11
S'GC_FOR_ALLOC freed 68K, 18% free 6596K/8040K, paused 9ms, total 9ms\n'
p27
sa(dp28
g2
S'3012'
p29
sg4
L1449722426895L
sg5
S'I'
p30
sg7
S'dalvikvm-heap'
p31
sg9
S' 3012'
p32
sg11
S'Grow heap (frag case) to 16.927MB for 8721484-byte allocation\n'
p33
sa(dp34
g2
S'3012'
p35
sg4
L1449722426905L
sg5
g6
sg7
S'dalvikvm'
p36
sg9
S' 3021'
p37
sg11
S'GC_CONCURRENT freed <1K, 9% free 15113K/16560K, paused 1ms+1ms, total 11ms\n'
p38
sa(dp39
g2
S'3041'
p40
sg4
L1449722427055L
sg5
g6
sg7
S'dalvikvm'
p41
sg9
S' 3041'
p42
sg11
S'Late-enabling CheckJNI\n'
p43
sa(dp44
g2
S'3041'
p45
sg4
L1449722427095L
sg5
g6
sg7
S'ActivityThread'
p46
sg9
S' 3041'
p47
sg11
S'setTargetHeapUtilization:0.75\n'
p48
sa(dp49
g2
S'3041'
p50
sg4
L1449722427095L
sg5
g6
sg7
S'ActivityThread'
p51
sg9
S' 3041'
p52
sg11
S'setTargetHeapConcurrentStart:2097152\n'
p53
sa(dp54
g2
S'3012'
p55
sg4
L1449722427115L
sg5
g6
sg7
S'libEGL  '
p56
sg9
S' 3012'
p57
sg11
S'loaded /vendor/lib/egl/libEGL_adreno.so\n'
p58
sa(dp59
g2
S'3012'
p60
sg4
L1449722427115L
sg5
g6
sg7
S'libEGL  '
p61
sg9
S' 3012'
p62
sg11
S'loaded /vendor/lib/egl/libGLESv1_CM_adreno.so\n'
p63
sa(dp64
g2
S'3012'
p65
sg4
L1449722427115L
sg5
g6
sg7
S'libEGL  '
p66
sg9
S' 3012'
p67
sg11
S'loaded /vendor/lib/egl/libGLESv2_adreno.so\n'
p68
sa(dp69
g2
S'3012'
p70
sg4
L1449722427125L
sg5
g30
sg7
S'Adreno-EGL'
p71
sg9
S' 3012'
p72
sg11
S'<qeglDrvAPI_eglInitialize:381>: EGL 1.4 QUALCOMM build: AU_LINUX_ANDROID_JB_3.2_RB2.04.03.00.129.095_msm8226_JB_3.2_RB2__release_AU ()\nOpenGL ES Shader Compiler Version: 20.00.08\nBuild Date: 01/30/14 Thu\nLocal Branch: \nRemote Branch: quic/jb_3.2_rb2.32\nLocal Patches: NONE\nReconstruct Branch: AU_LINUX_ANDROID_JB_3.2_RB2.04.03.00.129.095 + 16788c7 +  NOTHING\n'
p73
sa(dp74
g2
S'3041'
p75
sg4
L1449722427135L
sg5
g6
sg7
S'SocketService'
p76
sg9
S' 3041'
p77
sg11
S'onStartCommand : bLogin:false\n'
p78
sa(dp79
g2
S'3041'
p80
sg4
L1449722427135L
sg5
g6
sg7
S'SocketService'
p81
sg9
S' 3041'
p82
sg11
S'pid:3041 myPid:3041\n'
p83
sa(dp84
g2
S'3041'
p85
sg4
L1449722427165L
sg5
g6
sg7
S'SocketService'
p86
sg9
S' 3041'
p87
sg11
S'start to run current thread!id:14951\n'
p88
sa(dp89
g2
S'3012'
p90
sg4
L1449722427185L
sg5
g6
sg7
S'OpenGLRenderer'
p91
sg9
S' 3012'
p92
sg11
S'Enabling debug mode 0\n'
p93
sa(dp94
g2
S'3041'
p95
sg4
L1449722428265L
sg5
g6
sg7
S'SocketService'
p96
sg9
S' 3062'
p97
sg11
S'ip/192.168.191.3 lport:59708 p:143\n'
p98
sa(dp99
g2
S'3041'
p100
sg4
L1449722428295L
sg5
g6
sg7
S'ForegroundActivity'
p101
sg9
S' 3062'
p102
sg11
S'\xe6\x9c\xac\xe6\xac\xa1\xe5\x8f\x91\xe9\x80\x81\xe5\xb8\xa7\xe9\x95\xbf:34\t\xe6\x80\xbb\xe5\xb8\xa7\xe9\x95\xbf:34\n'
p103
sa(dp104
g2
S'3041'
p105
sg4
L1449722428295L
sg5
g6
sg7
S'SocketService'
p106
sg9
S' 3062'
p107
sg11
S'success to connect server!id:14951 bLogin:false\n'
p108
sa(dp109
g2
S'3041'
p110
sg4
L1449722428415L
sg5
g6
sg7
S'ForegroundActivity'
p111
sg9
S' 3078'
p112
sg11
S'\xe6\x9c\xac\xe6\xac\xa1\xe6\x94\xb6\xe5\x88\xb0\xe5\xb8\xa7\xe9\x95\xbf:13\t\xe6\x80\xbb\xe5\xb8\xa7\xe9\x95\xbf:13\n'
p113
sa(dp114
g2
S'3041'
p115
sg4
L1449722429185L
sg5
g6
sg7
S'SocketService1'
p116
sg9
S' 3060'
p117
sg11
S'\xe6\x9c\xac\xe6\xac\xa1\xe6\x8f\x90\xe5\x8f\x961:LoadPtr:13 HeadIndex:0 GetSize:13 13 0 \xe5\xa4\xb4\xe4\xbf\xa1\xe6\x81\xaf:EB 90 EB 90 EB 90 0D 00 0E 01 \n'
p118
sa(dp119
g2
S'3041'
p120
sg4
L1449722429295L
sg5
g6
sg7
S'ForegroundActivity'
p121
sg9
S' 3062'
p122
sg11
S'\xe6\x9c\xac\xe6\xac\xa1\xe5\x8f\x91\xe9\x80\x81\xe5\xb8\xa7\xe9\x95\xbf:11\t\xe6\x80\xbb\xe5\xb8\xa7\xe9\x95\xbf:45\n'
p123
sa(dp124
g2
S'3012'
p125
sg4
L1449722429315L
sg5
g6
sg7
S'MainActivity'
p126
sg9
S' 3012'
p127
sg11
S'Start One Client\n'
p128
sa(dp129
g2
S'3012'
p130
sg4
L1449722429315L
sg5
g6
sg7
S'StrictMode'
p131
sg9
S' 3012'
p132
sg11
S'StrictMode policy violation; ~duration=14 ms: android.os.StrictMode$StrictModeDiskReadViolation: policy=23 violation=2\n\tat android.os.StrictMode$AndroidBlockGuardPolicy.onReadFromDisk(StrictMode.java:1126)\n\tat android.app.SharedPreferencesImpl.awaitLoadedLocked(SharedPreferencesImpl.java:203)\n\tat android.app.SharedPreferencesImpl.edit(SharedPreferencesImpl.java:282)\n\tat com.example.myfristandroid.MainActivity.initCfg(MainActivity.java:454)\n\tat com.example.myfristandroid.MainActivity.onCreate(MainActivity.java:295)\n\tat android.app.Activity.performCreate(Activity.java:5234)\n\tat android.app.Instrumentation.callActivityOnCreate(Instrumentation.java:1087)\n\tat android.app.ActivityThread.performLaunchActivity(ActivityThread.java:2302)\n\tat android.app.ActivityThread.handleLaunchActivity(ActivityThread.java:2388)\n\tat android.app.ActivityThread.access$900(ActivityThread.java:148)\n\tat android.app.ActivityThread$H.handleMessage(ActivityThread.java:1319)\n\tat android.os.Handler.dispatchMessage(Handler.java:99)\n\tat android.os.Looper.loop(Looper.java:137)\n\tat android.app.ActivityThread.main(ActivityThread.java:5473)\n\tat java.lang.reflect.Method.invokeNative(Native Method)\n\tat java.lang.reflect.Method.invoke(Method.java:525)\n\tat com.android.internal.os.ZygoteInit$MethodAndArgsCaller.run(ZygoteInit.java:806)\n\tat com.android.internal.os.ZygoteInit.main(ZygoteInit.java:622)\n\tat dalvik.system.NativeStart.main(Native Method)\n'
p133
sa(dp134
g2
S'3012'
p135
sg4
L1449722429365L
sg5
g6
sg7
S'dalvikvm'
p136
sg9
S' 3021'
p137
sg11
S'GC_CONCURRENT freed 4296K, 26% free 13105K/17580K, paused 1ms+2ms, total 15ms\n'
p138
sa(dp139
g2
S'3012'
p140
sg4
L1449722429495L
sg5
g6
sg7
S'dalvikvm'
p141
sg9
S' 3021'
p142
sg11
S'GC_CONCURRENT freed 484K, 19% free 14245K/17580K, paused 2ms+3ms, total 18ms\n'
p143
sa(dp144
g2
S'3041'
p145
sg4
L1449722429985L
sg5
g6
sg7
S'ForegroundActivity'
p146
sg9
S' 3078'
p147
sg11
S'\xe6\x9c\xac\xe6\xac\xa1\xe6\x94\xb6\xe5\x88\xb0\xe5\xb8\xa7\xe9\x95\xbf:642\t\xe6\x80\xbb\xe5\xb8\xa7\xe9\x95\xbf:655\n'
p148
sa(dp149
g2
S'3041'
p150
sg4
L1449722430195L
sg5
g6
sg7
S'SocketService1'
p151
sg9
S' 3060'
p152
sg11
S'\xe6\x9c\xac\xe6\xac\xa1\xe6\x8f\x90\xe5\x8f\x961:LoadPtr:655 HeadIndex:13 GetSize:642 130 512 \xe5\xa4\xb4\xe4\xbf\xa1\xe6\x81\xaf:EB 90 EB 90 EB 90 82 02 14 0A \n'
p153
sa(dp154
g2
S'3012'
p155
sg4
L1449722430205L
sg5
g6
sg7
S'MainActivity'
p156
sg9
S' 3012'
p157
sg11
S'page0:http://oa.paneng.cn:1143/se9200/realdata/realdata.html\n'
p158
sa(dp159
g2
S'3012'
p160
sg4
L1449722430215L
sg5
g6
sg7
S'MainActivity'
p161
sg9
S' 3012'
p162
sg11
S'page1:http://oa.paneng.cn:1143/se9200/graph/gshow.jsp?mRID=1130000050\n'
p163
sa(dp164
g2
S'3012'
p165
sg4
L1449722430215L
sg5
g6
sg7
S'MainActivity'
p166
sg9
S' 3012'
p167
sg11
S'page2:http://oa.paneng.cn:1143/se9200/graph/gshow.jsp?mRID=1130000052\n'
p168
sa(dp169
g2
S'3012'
p170
sg4
L1449722430225L
sg5
g6
sg7
S'MainActivity'
p171
sg9
S' 3012'
p172
sg11
S'page3:http://oa.paneng.cn:1143/se9200/graph/gshow.jsp?mRID=1130000054\n'
p173
sa(dp174
g2
S'3012'
p175
sg4
L1449722430225L
sg5
g6
sg7
S'MainActivity'
p176
sg9
S' 3012'
p177
sg11
S'page4:http://oa.paneng.cn:1143/se9200/graph/gshow.jsp?mRID=1130000007\n'
p178
sa(dp179
g2
S'3012'
p180
sg4
L1449722430235L
sg5
g6
sg7
S'MainActivity'
p181
sg9
S' 3012'
p182
sg11
S'page5:http://oa.paneng.cn:1143/se9200/graph/gshow.jsp?mRID=1130000047\n'
p183
sa(dp184
g2
S'3012'
p185
sg4
L1449722430235L
sg5
g6
sg7
S'MainActivity'
p186
sg9
S' 3012'
p187
sg11
S'page6:http://oa.paneng.cn:1143/se9200/graph/gshow.jsp?mRID=1130000011\n'
p188
sa(dp189
g2
S'3012'
p190
sg4
L1449722430245L
sg5
g6
sg7
S'MainActivity'
p191
sg9
S' 3012'
p192
sg11
S'page7:http://oa.paneng.cn:1143/se9200/graph/gshow.jsp?mRID=1130000005\n'
p193
sa(dp194
g2
S'3012'
p195
sg4
L1449722430245L
sg5
g6
sg7
S'MainActivity'
p196
sg9
S' 3012'
p197
sg11
S'page8:http://oa.paneng.cn:1143/se9200/graph/gshow.jsp?mRID=1130000148\n'
p198
sa(dp199
g2
S'3012'
p200
sg4
L1449722430245L
sg5
g6
sg7
S'MainActivity'
p201
sg9
S' 3012'
p202
sg11
S'page9:http://oa.paneng.cn:1143/se9200/graph/gshow.jsp?mRID=1130000296\n'
p203
sa(dp204
g2
S'3041'
p205
sg4
L1449722430295L
sg5
g6
sg7
S'ForegroundActivity'
p206
sg9
S' 3062'
p207
sg11
S'\xe6\x9c\xac\xe6\xac\xa1\xe5\x8f\x91\xe9\x80\x81\xe5\xb8\xa7\xe9\x95\xbf:11\t\xe6\x80\xbb\xe5\xb8\xa7\xe9\x95\xbf:56\n'
p208
sa(dp209
g2
S'3041'
p210
sg4
L1449722430695L
sg5
g6
sg7
S'ForegroundActivity'
p211
sg9
S' 3078'
p212
sg11
S'\xe6\x9c\xac\xe6\xac\xa1\xe6\x94\xb6\xe5\x88\xb0\xe5\xb8\xa7\xe9\x95\xbf:67\t\xe6\x80\xbb\xe5\xb8\xa7\xe9\x95\xbf:722\n'
p213
sa(dp214
g2
S'3041'
p215
sg4
L1449722431225L
sg5
g6
sg7
S'SocketService1'
p216
sg9
S' 3060'
p217
sg11
S'\xe6\x9c\xac\xe6\xac\xa1\xe6\x8f\x90\xe5\x8f\x961:LoadPtr:722 HeadIndex:655 GetSize:67 67 0 \xe5\xa4\xb4\xe4\xbf\xa1\xe6\x81\xaf:EB 90 EB 90 EB 90 43 00 15 02 \n'
p218
sa(dp219
g2
S'3012'
p220
sg4
L1449722431235L
sg5
g6
sg7
S'MainActivity'
p221
sg9
S' 3012'
p222
sg11
S'ServerVersion:23 LocalVersion:12\n'
p223
sa(dp224
g2
S'3012'
p225
sg4
L1449722435715L
sg5
g6
sg7
S'MainActivity'
p226
sg9
S' 3012'
p227
sg11
S'V.getTag:null v.id:2131230740\n'
p228
sa(dp229
g2
S'3012'
p230
sg4
L1449722435795L
sg5
S'V'
p231
sg7
S'RenderScript'
p232
sg9
S' 3012'
p233
sg11
S'0x60007478 Launching thread(s), CPUs 4\n'
p234
sa(dp235
g2
S'3012'
p236
sg4
L1449722437545L
sg5
g6
sg7
S'MainActivity'
p237
sg9
S' 3012'
p238
sg11
S'V.getTag:null v.id:2131230734\n'
p239
sa(dp240
g2
S'3012'
p241
sg4
L1449722438745L
sg5
g6
sg7
S'webcoreglue'
p242
sg9
S' 3201'
p243
sg11
S'netstack: Memory Cache feature is ON\n'
p244
sa(dp245
g2
S'3012'
p246
sg4
L1449722438775L
sg5
g6
sg7
S'JSENGINE'
p247
sg9
S' 3201'
p248
sg11
S'qualcomm.jsengine.version:C.3-patch5-git:35c0a3d\n'
p249
sa(dp250
g2
S'3012'
p251
sg4
L1449722438845L
sg5
g6
sg7
S'HostStatisticManager'
p252
sg9
S' 3201'
p253
sg11
S'netstack: DNS Host Prioritization is: ON, Version: 5.0.2\n'
p254
sa(dp255
g2
S'3012'
p256
sg4
L1449722438845L
sg5
g30
sg7
S'        '
p257
sg9
S' 3201'
p258
sg11
S'netstack: LIB_MGR - Lib loaded: libdnshostprio.so\n'
p259
sa(dp260
g2
S'3012'
p261
sg4
L1449722438845L
sg5
g30
sg7
S'        '
p262
sg9
S' 3201'
p263
sg11
S'netstack: STAT_HUB - Succeeded to load plugin: libdnshostprio.so\n'
p264
sa(dp265
g2
S'3012'
p266
sg4
L1449722438845L
sg5
g30
sg7
S'        '
p267
sg9
S' 3201'
p268
sg11
S'netstack: LIB_MGR - Lib loaded: spl_proc_plugin.so\n'
p269
sa(dp270
g2
S'3012'
p271
sg4
L1449722438855L
sg5
g30
sg7
S'        '
p272
sg9
S' 3201'
p273
sg11
S'netstack: STAT_HUB - Succeeded to load plugin: spl_proc_plugin.so\n'
p274
sa(dp275
g2
S'3012'
p276
sg4
L1449722438855L
sg5
g30
sg7
S'        '
p277
sg9
S' 3201'
p278
sg11
S'netstack: LIB_MGR - Lib loaded: pp_proc_plugin.so\n'
p279
sa(dp280
g2
S'3012'
p281
sg4
L1449722438855L
sg5
g30
sg7
S'        '
p282
sg9
S' 3201'
p283
sg11
S'netstack: STAT_HUB - Succeeded to load plugin: pp_proc_plugin.so\n'
p284
sa(dp285
g2
S'3012'
p286
sg4
L1449722438855L
sg5
S'E'
p287
sg7
S'        '
p288
sg9
S' 3201'
p289
sg11
S"netstack:  STAT_HUB - App com.example.myfristandroid isn't supported\n"
p290
sa(dp291
g2
S'3012'
p292
sg4
L1449722438885L
sg5
g231
sg7
S'chromium_net'
p293
sg9
S' 3201'
p294
sg11
S'external/chromium/net/host_resolver_helper/host_resolver_helper.cc:66: [1210/124038:INFO:host_resolver_helper.cc(66)] DNSPreResolver::Init got hostprovider:0x633a000c\n'
p295
sa(dp296
g2
S'3012'
p297
sg4
L1449722438885L
sg5
g231
sg7
S'chromium_net'
p298
sg9
S' 3201'
p299
sg11
S'external/chromium/net/base/host_resolver_impl.cc:1510: [1210/124038:INFO:host_resolver_impl.cc(1510)] HostResolverImpl::SetPreresolver preresolver:0x6378c048\n'
p300
sa(dp301
g2
S'3012'
p302
sg4
L1449722438885L
sg5
g6
sg7
S'        '
p303
sg9
S' 3201'
p304
sg11
S'dl error message dlopen failed: library "libtcpfinaggr.so" not found\n'
p305
sa(dp306
g2
S'3012'
p307
sg4
L1449722438885L
sg5
g6
sg7
S'Socket_Pool'
p308
sg9
S' 3201'
p309
sg11
S'Failed to create TCP Fin Aggregation interface.\n'
p310
sa(dp311
g2
S'3012'
p312
sg4
L1449722438885L
sg5
g6
sg7
S'Socket_Pool'
p313
sg9
S' 3201'
p314
sg11
S'netstack: CloseUnusedSockets is ON\n'
p315
sa(dp316
g2
S'3012'
p317
sg4
L1449722438885L
sg5
g6
sg7
S'Socket_Pool'
p318
sg9
S' 3201'
p319
sg11
S'netstack: system net.statistics value: 0\n'
p320
sa(dp321
g2
S'3012'
p322
sg4
L1449722438895L
sg5
g6
sg7
S'Socket_Pool'
p323
sg9
S' 3201'
p324
sg11
S'netstack: CloseUnusedSockets is ON\n'
p325
sa(dp326
g2
S'3012'
p327
sg4
L1449722438895L
sg5
g6
sg7
S'Socket_Pool'
p328
sg9
S' 3201'
p329
sg11
S'netstack: system net.statistics value: 0\n'
p330
sa(dp331
g2
S'3012'
p332
sg4
L1449722438895L
sg5
g6
sg7
S'        '
p333
sg9
S' 3201'
p334
sg11
S"external/chromium/net/http/http_getzip_factory.cc: Failed to construct GETzip manager, didn't find the library!\n"
p335
sa(dp336
g2
S'3012'
p337
sg4
L1449722438915L
sg5
g6
sg7
S'netstack'
p338
sg9
S' 3201'
p339
sg11
S'netstack: Request Priority is ON\n'
p340
sa(dp341
g2
S'3012'
p342
sg4
L1449722438935L
sg5
g6
sg7
S'        '
p343
sg9
S' 3217'
p344
sg11
S'Failed to load DoObserveConnections symbol in tcp-connections.so\n'
p345
sa(dp346
g2
S'3012'
p347
sg4
L1449722439115L
sg5
g6
sg7
S'WebKit  '
p348
sg9
S' 3201'
p349
sg11
S'ERROR: \n'
p350
sa(dp351
g2
S'3012'
p352
sg4
L1449722439115L
sg5
g6
sg7
S'WebKit  '
p353
sg9
S' 3201'
p354
sg11
S'alias gb18030 maps to GB18030 already, but someone is trying to make it map to GBK\n'
p355
sa(dp356
g2
S'3012'
p357
sg4
L1449722439125L
sg5
g6
sg7
S'WebKit  '
p358
sg9
S' 3201'
p359
sg11
S''
p360
sa(dp361
g2
S'3012'
p362
sg4
L1449722439125L
sg5
g6
sg7
S'WebKit  '
p363
sg9
S' 3201'
p364
sg11
S'external/webkit/Source/WebCore/platform/text/TextEncodingRegistry.cpp(152) : void WebCore::checkExistingName(const char*, const char*)\n'
p365
sa(dp366
g2
S'3012'
p367
sg4
L1449722447235L
sg5
g6
sg7
S'dalvikvm'
p368
sg9
S' 3021'
p369
sg11
S'GC_CONCURRENT freed 1925K, 20% free 14105K/17576K, paused 3ms+2ms, total 31ms\n'
p370
sa(dp371
g2
S'3012'
p372
sg4
L1449722451775L
sg5
g287
sg7
S'cutils-trace'
p373
sg9
S' 3201'
p374
sg11
S'Error opening trace file: No such file or directory (2)\n'
p375
sa(dp376
g2
S'3012'
p377
sg4
L1449722455785L
sg5
g287
sg7
S'Web Console'
p378
sg9
S' 3012'
p379
sg11
S"Uncaught TypeError: Object [object Object] has no method 'startWait' at http://oa.paneng.cn:1143/se9200/realdata/js/realdata.js:80\n"
p380
sa(dp381
g2
S'3418'
p382
sg4
L1449722465785L
sg5
g6
sg7
S'dalvikvm'
p383
sg9
S' 3418'
p384
sg11
S'Late-enabling CheckJNI\n'
p385
sa(dp386
g2
S'3418'
p387
sg4
L1449722465815L
sg5
g6
sg7
S'ActivityThread'
p388
sg9
S' 3418'
p389
sg11
S'setTargetHeapUtilization:0.75\n'
p390
sa(dp391
g2
S'3418'
p392
sg4
L1449722465815L
sg5
g6
sg7
S'ActivityThread'
p393
sg9
S' 3418'
p394
sg11
S'setTargetHeapConcurrentStart:2097152\n'
p395
sa(dp396
g2
S'3418'
p397
sg4
L1449722466045L
sg5
g6
sg7
S'dalvikvm'
p398
sg9
S' 3418'
p399
sg11
S'GC_FOR_ALLOC freed 76K, 18% free 6596K/8040K, paused 9ms, total 9ms\n'
p400
sa(dp401
g2
S'3418'
p402
sg4
L1449722466065L
sg5
g30
sg7
S'dalvikvm-heap'
p403
sg9
S' 3418'
p404
sg11
S'Grow heap (frag case) to 16.926MB for 8721484-byte allocation\n'
p405
sa(dp406
g2
S'3418'
p407
sg4
L1449722466075L
sg5
g6
sg7
S'dalvikvm'
p408
sg9
S' 3420'
p409
sg11
S'GC_CONCURRENT freed <1K, 9% free 15113K/16560K, paused 2ms+1ms, total 14ms\n'
p410
sa(dp411
g2
S'3447'
p412
sg4
L1449722466235L
sg5
g6
sg7
S'dalvikvm'
p413
sg9
S' 3447'
p414
sg11
S'Late-enabling CheckJNI\n'
p415
sa(dp416
g2
S'3418'
p417
sg4
L1449722466275L
sg5
g6
sg7
S'libEGL  '
p418
sg9
S' 3418'
p419
sg11
S'loaded /vendor/lib/egl/libEGL_adreno.so\n'
p420
sa(dp421
g2
S'3418'
p422
sg4
L1449722466275L
sg5
g6
sg7
S'libEGL  '
p423
sg9
S' 3418'
p424
sg11
S'loaded /vendor/lib/egl/libGLESv1_CM_adreno.so\n'
p425
sa(dp426
g2
S'3447'
p427
sg4
L1449722466275L
sg5
g6
sg7
S'ActivityThread'
p428
sg9
S' 3447'
p429
sg11
S'setTargetHeapUtilization:0.75\n'
p430
sa(dp431
g2
S'3447'
p432
sg4
L1449722466275L
sg5
g6
sg7
S'ActivityThread'
p433
sg9
S' 3447'
p434
sg11
S'setTargetHeapConcurrentStart:2097152\n'
p435
sa(dp436
g2
S'3418'
p437
sg4
L1449722466285L
sg5
g6
sg7
S'libEGL  '
p438
sg9
S' 3418'
p439
sg11
S'loaded /vendor/lib/egl/libGLESv2_adreno.so\n'
p440
sa(dp441
g2
S'3418'
p442
sg4
L1449722466285L
sg5
g30
sg7
S'Adreno-EGL'
p443
sg9
S' 3418'
p444
sg11
S'<qeglDrvAPI_eglInitialize:381>: EGL 1.4 QUALCOMM build: AU_LINUX_ANDROID_JB_3.2_RB2.04.03.00.129.095_msm8226_JB_3.2_RB2__release_AU ()\nOpenGL ES Shader Compiler Version: 20.00.08\nBuild Date: 01/30/14 Thu\nLocal Branch: \nRemote Branch: quic/jb_3.2_rb2.32\nLocal Patches: NONE\nReconstruct Branch: AU_LINUX_ANDROID_JB_3.2_RB2.04.03.00.129.095 + 16788c7 +  NOTHING\n'
p445
sa(dp446
g2
S'3447'
p447
sg4
L1449722466305L
sg5
g6
sg7
S'SocketService'
p448
sg9
S' 3447'
p449
sg11
S'onStartCommand : bLogin:false\n'
p450
sa(dp451
g2
S'3447'
p452
sg4
L1449722466305L
sg5
g6
sg7
S'SocketService'
p453
sg9
S' 3447'
p454
sg11
S'pid:3447 myPid:3447\n'
p455
sa(dp456
g2
S'3447'
p457
sg4
L1449722466315L
sg5
g6
sg7
S'SocketService'
p458
sg9
S' 3447'
p459
sg11
S'start to run current thread!id:14957\n'
p460
sa(dp461
g2
S'3418'
p462
sg4
L1449722466325L
sg5
g6
sg7
S'OpenGLRenderer'
p463
sg9
S' 3418'
p464
sg11
S'Enabling debug mode 0\n'
p465
sa(dp466
g2
S'3447'
p467
sg4
L1449722467425L
sg5
g6
sg7
S'SocketService'
p468
sg9
S' 3468'
p469
sg11
S'ip/192.168.191.3 lport:41321 p:143\n'
p470
sa(dp471
g2
S'3447'
p472
sg4
L1449722467455L
sg5
g6
sg7
S'ForegroundActivity'
p473
sg9
S' 3468'
p474
sg11
S'\xe6\x9c\xac\xe6\xac\xa1\xe5\x8f\x91\xe9\x80\x81\xe5\xb8\xa7\xe9\x95\xbf:34\t\xe6\x80\xbb\xe5\xb8\xa7\xe9\x95\xbf:34\n'
p475
sa(dp476
g2
S'3447'
p477
sg4
L1449722467455L
sg5
g6
sg7
S'SocketService'
p478
sg9
S' 3468'
p479
sg11
S'success to connect server!id:14957 bLogin:false\n'
p480
sa(dp481
g2
S'3447'
p482
sg4
L1449722467665L
sg5
g6
sg7
S'ForegroundActivity'
p483
sg9
S' 3492'
p484
sg11
S'\xe6\x9c\xac\xe6\xac\xa1\xe6\x94\xb6\xe5\x88\xb0\xe5\xb8\xa7\xe9\x95\xbf:13\t\xe6\x80\xbb\xe5\xb8\xa7\xe9\x95\xbf:13\n'
p485
sa(dp486
g2
S'3447'
p487
sg4
L1449722468305L
sg5
g6
sg7
S'SocketService1'
p488
sg9
S' 3466'
p489
sg11
S'\xe6\x9c\xac\xe6\xac\xa1\xe6\x8f\x90\xe5\x8f\x961:LoadPtr:13 HeadIndex:0 GetSize:13 13 0 \xe5\xa4\xb4\xe4\xbf\xa1\xe6\x81\xaf:EB 90 EB 90 EB 90 0D 00 0E 01 \n'
p490
sa(dp491
g2
S'3447'
p492
sg4
L1449722468465L
sg5
g6
sg7
S'ForegroundActivity'
p493
sg9
S' 3468'
p494
sg11
S'\xe6\x9c\xac\xe6\xac\xa1\xe5\x8f\x91\xe9\x80\x81\xe5\xb8\xa7\xe9\x95\xbf:11\t\xe6\x80\xbb\xe5\xb8\xa7\xe9\x95\xbf:45\n'
p495
sa(dp496
g2
S'3418'
p497
sg4
L1449722468495L
sg5
g6
sg7
S'MainActivity'
p498
sg9
S' 3418'
p499
sg11
S'Start One Client\n'
p500
sa(dp501
g2
S'3418'
p502
sg4
L1449722468505L
sg5
g6
sg7
S'StrictMode'
p503
sg9
S' 3418'
p504
sg11
S'StrictMode policy violation; ~duration=13 ms: android.os.StrictMode$StrictModeDiskReadViolation: policy=23 violation=2\n\tat android.os.StrictMode$AndroidBlockGuardPolicy.onReadFromDisk(StrictMode.java:1126)\n\tat android.app.SharedPreferencesImpl.awaitLoadedLocked(SharedPreferencesImpl.java:203)\n\tat android.app.SharedPreferencesImpl.edit(SharedPreferencesImpl.java:282)\n\tat com.example.myfristandroid.MainActivity.initCfg(MainActivity.java:454)\n\tat com.example.myfristandroid.MainActivity.onCreate(MainActivity.java:295)\n\tat android.app.Activity.performCreate(Activity.java:5234)\n\tat android.app.Instrumentation.callActivityOnCreate(Instrumentation.java:1087)\n\tat android.app.ActivityThread.performLaunchActivity(ActivityThread.java:2302)\n\tat android.app.ActivityThread.handleLaunchActivity(ActivityThread.java:2388)\n\tat android.app.ActivityThread.access$900(ActivityThread.java:148)\n\tat android.app.ActivityThread$H.handleMessage(ActivityThread.java:1319)\n\tat android.os.Handler.dispatchMessage(Handler.java:99)\n\tat android.os.Looper.loop(Looper.java:137)\n\tat android.app.ActivityThread.main(ActivityThread.java:5473)\n\tat java.lang.reflect.Method.invokeNative(Native Method)\n\tat java.lang.reflect.Method.invoke(Method.java:525)\n\tat com.android.internal.os.ZygoteInit$MethodAndArgsCaller.run(ZygoteInit.java:806)\n\tat com.android.internal.os.ZygoteInit.main(ZygoteInit.java:622)\n\tat dalvik.system.NativeStart.main(Native Method)\n'
p505
sa(dp506
g2
S'3418'
p507
sg4
L1449722468545L
sg5
g6
sg7
S'dalvikvm'
p508
sg9
S' 3420'
p509
sg11
S'GC_CONCURRENT freed 4295K, 26% free 13105K/17576K, paused 1ms+1ms, total 14ms\n'
p510
sa(dp511
g2
S'3447'
p512
sg4
L1449722468595L
sg5
g6
sg7
S'ForegroundActivity'
p513
sg9
S' 3492'
p514
sg11
S'\xe6\x9c\xac\xe6\xac\xa1\xe6\x94\xb6\xe5\x88\xb0\xe5\xb8\xa7\xe9\x95\xbf:642\t\xe6\x80\xbb\xe5\xb8\xa7\xe9\x95\xbf:655\n'
p515
sa(dp516
g2
S'3418'
p517
sg4
L1449722468675L
sg5
g6
sg7
S'dalvikvm'
p518
sg9
S' 3420'
p519
sg11
S'GC_CONCURRENT freed 481K, 20% free 14182K/17576K, paused 1ms+3ms, total 14ms\n'
p520
sa(dp521
g2
S'3447'
p522
sg4
L1449722469405L
sg5
g6
sg7
S'SocketService1'
p523
sg9
S' 3466'
p524
sg11
S'\xe6\x9c\xac\xe6\xac\xa1\xe6\x8f\x90\xe5\x8f\x961:LoadPtr:655 HeadIndex:13 GetSize:642 130 512 \xe5\xa4\xb4\xe4\xbf\xa1\xe6\x81\xaf:EB 90 EB 90 EB 90 82 02 14 0A \n'
p525
sa(dp526
g2
S'3418'
p527
sg4
L1449722469425L
sg5
g6
sg7
S'MainActivity'
p528
sg9
S' 3418'
p529
sg11
S'page0:http://oa.paneng.cn:1143/se9200/realdata/realdata.html\n'
p530
sa(dp531
g2
S'3418'
p532
sg4
L1449722469435L
sg5
g6
sg7
S'MainActivity'
p533
sg9
S' 3418'
p534
sg11
S'page1:http://oa.paneng.cn:1143/se9200/graph/gshow.jsp?mRID=1130000050\n'
p535
sa(dp536
g2
S'3418'
p537
sg4
L1449722469445L
sg5
g6
sg7
S'MainActivity'
p538
sg9
S' 3418'
p539
sg11
S'page2:http://oa.paneng.cn:1143/se9200/graph/gshow.jsp?mRID=1130000052\n'
p540
sa(dp541
g2
S'3418'
p542
sg4
L1449722469445L
sg5
g6
sg7
S'MainActivity'
p543
sg9
S' 3418'
p544
sg11
S'page3:http://oa.paneng.cn:1143/se9200/graph/gshow.jsp?mRID=1130000054\n'
p545
sa(dp546
g2
S'3418'
p547
sg4
L1449722469445L
sg5
g6
sg7
S'MainActivity'
p548
sg9
S' 3418'
p549
sg11
S'page4:http://oa.paneng.cn:1143/se9200/graph/gshow.jsp?mRID=1130000007\n'
p550
sa(dp551
g2
S'3418'
p552
sg4
L1449722469445L
sg5
g6
sg7
S'MainActivity'
p553
sg9
S' 3418'
p554
sg11
S'page5:http://oa.paneng.cn:1143/se9200/graph/gshow.jsp?mRID=1130000047\n'
p555
sa(dp556
g2
S'3418'
p557
sg4
L1449722469455L
sg5
g6
sg7
S'MainActivity'
p558
sg9
S' 3418'
p559
sg11
S'page6:http://oa.paneng.cn:1143/se9200/graph/gshow.jsp?mRID=1130000011\n'
p560
sa(dp561
g2
S'3418'
p562
sg4
L1449722469455L
sg5
g6
sg7
S'MainActivity'
p563
sg9
S' 3418'
p564
sg11
S'page7:http://oa.paneng.cn:1143/se9200/graph/gshow.jsp?mRID=1130000005\n'
p565
sa(dp566
g2
S'3418'
p567
sg4
L1449722469455L
sg5
g6
sg7
S'MainActivity'
p568
sg9
S' 3418'
p569
sg11
S'page8:http://oa.paneng.cn:1143/se9200/graph/gshow.jsp?mRID=1130000148\n'
p570
sa(dp571
g2
S'3418'
p572
sg4
L1449722469455L
sg5
g6
sg7
S'MainActivity'
p573
sg9
S' 3418'
p574
sg11
S'page9:http://oa.paneng.cn:1143/se9200/graph/gshow.jsp?mRID=1130000296\n'
p575
sa(dp576
g2
S'3447'
p577
sg4
L1449722469465L
sg5
g6
sg7
S'ForegroundActivity'
p578
sg9
S' 3468'
p579
sg11
S'\xe6\x9c\xac\xe6\xac\xa1\xe5\x8f\x91\xe9\x80\x81\xe5\xb8\xa7\xe9\x95\xbf:11\t\xe6\x80\xbb\xe5\xb8\xa7\xe9\x95\xbf:56\n'
p580
sa(dp581
g2
S'3418'
p582
sg4
L1449722471345L
sg5
g6
sg7
S'webcoreglue'
p583
sg9
S' 3518'
p584
sg11
S'netstack: Memory Cache feature is ON\n'
p585
sa(dp586
g2
S'3418'
p587
sg4
L1449722471375L
sg5
g6
sg7
S'JSENGINE'
p588
sg9
S' 3518'
p589
sg11
S'qualcomm.jsengine.version:C.3-patch5-git:35c0a3d\n'
p590
sa(dp591
g2
S'3447'
p592
sg4
L1449722471455L
sg5
g6
sg7
S'ForegroundActivity'
p593
sg9
S' 3492'
p594
sg11
S'\xe6\x9c\xac\xe6\xac\xa1\xe6\x94\xb6\xe5\x88\xb0\xe5\xb8\xa7\xe9\x95\xbf:67\t\xe6\x80\xbb\xe5\xb8\xa7\xe9\x95\xbf:722\n'
p595
sa(dp596
g2
S'3418'
p597
sg4
L1449722471455L
sg5
g6
sg7
S'HostStatisticManager'
p598
sg9
S' 3518'
p599
sg11
S'netstack: DNS Host Prioritization is: ON, Version: 5.0.2\n'
p600
sa(dp601
g2
S'3418'
p602
sg4
L1449722471455L
sg5
g30
sg7
S'        '
p603
sg9
S' 3518'
p604
sg11
S'netstack: LIB_MGR - Lib loaded: libdnshostprio.so\n'
p605
sa(dp606
g2
S'3418'
p607
sg4
L1449722471455L
sg5
g30
sg7
S'        '
p608
sg9
S' 3518'
p609
sg11
S'netstack: STAT_HUB - Succeeded to load plugin: libdnshostprio.so\n'
p610
sa(dp611
g2
S'3418'
p612
sg4
L1449722471455L
sg5
g30
sg7
S'        '
p613
sg9
S' 3518'
p614
sg11
S'netstack: LIB_MGR - Lib loaded: spl_proc_plugin.so\n'
p615
sa(dp616
g2
S'3418'
p617
sg4
L1449722471455L
sg5
g30
sg7
S'        '
p618
sg9
S' 3518'
p619
sg11
S'netstack: STAT_HUB - Succeeded to load plugin: spl_proc_plugin.so\n'
p620
sa(dp621
g2
S'3447'
p622
sg4
L1449722471465L
sg5
g6
sg7
S'SocketService1'
p623
sg9
S' 3466'
p624
sg11
S'\xe6\x9c\xac\xe6\xac\xa1\xe6\x8f\x90\xe5\x8f\x961:LoadPtr:722 HeadIndex:655 GetSize:67 67 0 \xe5\xa4\xb4\xe4\xbf\xa1\xe6\x81\xaf:EB 90 EB 90 EB 90 43 00 15 02 \n'
p625
sa(dp626
g2
S'3418'
p627
sg4
L1449722471465L
sg5
g30
sg7
S'        '
p628
sg9
S' 3518'
p629
sg11
S'netstack: LIB_MGR - Lib loaded: pp_proc_plugin.so\n'
p630
sa(dp631
g2
S'3418'
p632
sg4
L1449722471465L
sg5
g30
sg7
S'        '
p633
sg9
S' 3518'
p634
sg11
S'netstack: STAT_HUB - Succeeded to load plugin: pp_proc_plugin.so\n'
p635
sa(dp636
g2
S'3418'
p637
sg4
L1449722471465L
sg5
g287
sg7
S'        '
p638
sg9
S' 3518'
p639
sg11
S"netstack:  STAT_HUB - App com.example.myfristandroid isn't supported\n"
p640
sa(dp641
g2
S'3418'
p642
sg4
L1449722471475L
sg5
g231
sg7
S'chromium_net'
p643
sg9
S' 3518'
p644
sg11
S'external/chromium/net/host_resolver_helper/host_resolver_helper.cc:66: [1210/124111:INFO:host_resolver_helper.cc(66)] DNSPreResolver::Init got hostprovider:0x5ff1c00c\n'
p645
sa(dp646
g2
S'3418'
p647
sg4
L1449722471475L
sg5
g231
sg7
S'chromium_net'
p648
sg9
S' 3518'
p649
sg11
S'external/chromium/net/base/host_resolver_impl.cc:1510: [1210/124111:INFO:host_resolver_impl.cc(1510)] HostResolverImpl::SetPreresolver preresolver:0x5ff34370\n'
p650
sa(dp651
g2
S'3418'
p652
sg4
L1449722471475L
sg5
g6
sg7
S'netstack'
p653
sg9
S' 3518'
p654
sg11
S'netstack: Request Priority is ON\n'
p655
sa(dp656
g2
S'3418'
p657
sg4
L1449722471475L
sg5
g6
sg7
S'        '
p658
sg9
S' 3518'
p659
sg11
S'dl error message dlopen failed: library "libtcpfinaggr.so" not found\n'
p660
sa(dp661
g2
S'3418'
p662
sg4
L1449722471475L
sg5
g6
sg7
S'Socket_Pool'
p663
sg9
S' 3518'
p664
sg11
S'Failed to create TCP Fin Aggregation interface.\n'
p665
sa(dp666
g2
S'3418'
p667
sg4
L1449722471475L
sg5
g6
sg7
S'Socket_Pool'
p668
sg9
S' 3518'
p669
sg11
S'netstack: CloseUnusedSockets is ON\n'
p670
sa(dp671
g2
S'3418'
p672
sg4
L1449722471475L
sg5
g6
sg7
S'Socket_Pool'
p673
sg9
S' 3518'
p674
sg11
S'netstack: system net.statistics value: 0\n'
p675
sa(dp676
g2
S'3418'
p677
sg4
L1449722471475L
sg5
g6
sg7
S'        '
p678
sg9
S' 3518'
p679
sg11
S"external/chromium/net/http/http_getzip_factory.cc: Failed to construct GETzip manager, didn't find the library!\n"
p680
sa(dp681
g2
S'3418'
p682
sg4
L1449722471495L
sg5
g6
sg7
S'        '
p683
sg9
S' 3535'
p684
sg11
S'Failed to load DoObserveConnections symbol in tcp-connections.so\n'
p685
sa(dp686
g2
S'3418'
p687
sg4
L1449722471515L
sg5
g6
sg7
S'MainActivity'
p688
sg9
S' 3418'
p689
sg11
S'ServerVersion:23 LocalVersion:12\n'
p690
sa(dp691
g2
S'3418'
p692
sg4
L1449722471575L
sg5
g6
sg7
S'WebKit  '
p693
sg9
S' 3518'
p694
sg11
S'ERROR: \n'
p695
sa(dp696
g2
S'3418'
p697
sg4
L1449722471575L
sg5
g6
sg7
S'WebKit  '
p698
sg9
S' 3518'
p699
sg11
S'alias gb18030 maps to GB18030 already, but someone is trying to make it map to GBK\n'
p700
sa(dp701
g2
S'3418'
p702
sg4
L1449722471575L
sg5
g6
sg7
S'WebKit  '
p703
sg9
S' 3518'
p704
sg11
g360
sa(dp705
g2
S'3418'
p706
sg4
L1449722471585L
sg5
g6
sg7
S'WebKit  '
p707
sg9
S' 3518'
p708
sg11
S'external/webkit/Source/WebCore/platform/text/TextEncodingRegistry.cpp(152) : void WebCore::checkExistingName(const char*, const char*)\n'
p709
sa(dp710
g2
S'3418'
p711
sg4
L1449722478615L
sg5
S'W'
p712
sg7
S'webview '
p713
sg9
S' 3418'
p714
sg11
S'mInputDispatcher rejected the event!\n'
p715
sa(dp716
g2
S'3418'
p717
sg4
L1449722489295L
sg5
g6
sg7
S'dalvikvm'
p718
sg9
S' 3418'
p719
sg11
S'GC_FOR_ALLOC freed 1532K, 20% free 14122K/17576K, paused 16ms, total 16ms\n'
p720
sa(dp721
g2
S'3418'
p722
sg4
L1449722489295L
sg5
g30
sg7
S'dalvikvm-heap'
p723
sg9
S' 3418'
p724
sg11
S'Grow heap (frag case) to 17.936MB for 2073616-byte allocation\n'
p725
sa(dp726
g2
S'3418'
p727
sg4
L1449722489325L
sg5
g6
sg7
S'dalvikvm'
p728
sg9
S' 3420'
p729
sg11
S'GC_CONCURRENT freed 119K, 19% free 16028K/19604K, paused 4ms+6ms, total 31ms\n'
p730
sa(dp731
g2
S'3418'
p732
sg4
L1449722489355L
sg5
g6
sg7
S'dalvikvm'
p733
sg9
S' 3418'
p734
sg11
S'GC_FOR_ALLOC freed 15K, 19% free 16013K/19604K, paused 13ms, total 14ms\n'
p735
sa(dp736
g2
S'3418'
p737
sg4
L1449722489355L
sg5
g30
sg7
S'dalvikvm-heap'
p738
sg9
S' 3418'
p739
sg11
S'Grow heap (frag case) to 19.783MB for 2073616-byte allocation\n'
p740
sa(dp741
g2
S'3418'
p742
sg4
L1449722489485L
sg5
g6
sg7
S'cn.edu.nju.ise.kikandroid'
p743
sg9
S' 3476'
p744
sg11
S'Screenshot:1449722489241\n'
p745
sa(dp746
g2
S'3418'
p747
sg4
L1449722491135L
sg5
g6
sg7
S'cn.edu.nju.ise.kikandroid'
p748
sg9
S' 3476'
p749
sg11
S'Log:1449722491141\n'
p750
sa(dp751
g2
S'3418'
p752
sg4
L1449722492605L
sg5
g6
sg7
S'MainActivity'
p753
sg9
S' 3518'
p754
sg11
S'h:910.5,w:1687.5\n'
p755
sa(dp756
g2
S'3418'
p757
sg4
L1449722492725L
sg5
g287
sg7
S'cutils-trace'
p758
sg9
S' 3518'
p759
sg11
S'Error opening trace file: No such file or directory (2)\n'
p760
sa(dp761
g2
S'3418'
p762
sg4
L1449722492745L
sg5
g287
sg7
S'        '
p763
sg9
S' 3535'
p764
sg11
S'netstack: LIB_MGR - Error loading lib qnet-plugin.so\n'
p765
sa(dp766
g2
S'3418'
p767
sg4
L1449722493705L
sg5
g6
sg7
S'MainActivity'
p768
sg9
S' 3518'
p769
sg11
S'h:910.5,w:1687.5\n'
p770
sa(dp771
g2
S'3418'
p772
sg4
L1449722494065L
sg5
g6
sg7
S'MainActivity'
p773
sg9
S' 3418'
p774
sg11
S'V.getTag:null v.id:2131230738\n'
p775
sa(dp776
g2
S'3418'
p777
sg4
L1449722494125L
sg5
g231
sg7
S'RenderScript'
p778
sg9
S' 3418'
p779
sg11
S'0x631fe3c0 Launching thread(s), CPUs 4\n'
p780
sa(dp781
g2
S'3418'
p782
sg4
L1449722494475L
sg5
g6
sg7
S'dalvikvm'
p783
sg9
S' 3420'
p784
sg11
S'GC_CONCURRENT freed 4364K, 17% free 14028K/16844K, paused 2ms+3ms, total 22ms\n'
p785
sa(dp786
g2
S'3418'
p787
sg4
L1449722495045L
sg5
g6
sg7
S'MainActivity'
p788
sg9
S' 3418'
p789
sg11
S'V.getTag:null v.id:2131230740\n'
p790
sa(dp791
g2
S'3418'
p792
sg4
L1449722496425L
sg5
g6
sg7
S'MainActivity'
p793
sg9
S' 3418'
p794
sg11
S'V.getTag:null v.id:2131230736\n'
p795
sa(dp796
g2
S'3418'
p797
sg4
L1449722499055L
sg5
g6
sg7
S'MainActivity'
p798
sg9
S' 3418'
p799
sg11
S'V.getTag:null v.id:2131230738\n'
p800
sa(dp801
g2
S'3418'
p802
sg4
L1449722501815L
sg5
g6
sg7
S'MainActivity'
p803
sg9
S' 3418'
p804
sg11
S'V.getTag:null v.id:2131230791\n'
p805
sa(dp806
g2
S'3418'
p807
sg4
L1449722504405L
sg5
g6
sg7
S'dalvikvm'
p808
sg9
S' 3418'
p809
sg11
S'GC_FOR_ALLOC freed 801K, 16% free 14257K/16844K, paused 22ms, total 22ms\n'
p810
sa(dp811
g2
S'3418'
p812
sg4
L1449722504425L
sg5
g30
sg7
S'dalvikvm-heap'
p813
sg9
S' 3418'
p814
sg11
S'Grow heap (frag case) to 18.068MB for 2073616-byte allocation\n'
p815
sa(dp816
g2
S'3418'
p817
sg4
L1449722504445L
sg5
g6
sg7
S'dalvikvm'
p818
sg9
S' 3420'
p819
sg11
S'GC_CONCURRENT freed 12K, 14% free 16270K/18872K, paused 3ms+3ms, total 22ms\n'
p820
sa(dp821
g2
S'3418'
p822
sg4
L1449722504445L
sg5
g6
sg7
S'dalvikvm'
p823
sg9
S' 3418'
p824
sg11
S'WAIT_FOR_CONCURRENT_GC blocked 5ms\n'
p825
sa(dp826
g2
S'3418'
p827
sg4
L1449722504535L
sg5
g6
sg7
S'cn.edu.nju.ise.kikandroid'
p828
sg9
S' 3476'
p829
sg11
S'Screenshot:1449722504329\n'
p830
sa(dp831
g2
S'3418'
p832
sg4
L1449722505985L
sg5
g6
sg7
S'cn.edu.nju.ise.kikandroid'
p833
sg9
S' 3476'
p834
sg11
S'Log:1449722505997\n'
p835
sa(dp836
g2
S'3447'
p837
sg4
L1449722506305L
sg5
g6
sg7
S'ForegroundActivity'
p838
sg9
S' 3464'
p839
sg11
S'\xe6\x9c\xac\xe6\xac\xa1\xe5\x8f\x91\xe9\x80\x81\xe5\xb8\xa7\xe9\x95\xbf:13\t\xe6\x80\xbb\xe5\xb8\xa7\xe9\x95\xbf:69\n'
p840
sa(dp841
g2
S'3447'
p842
sg4
L1449722506375L
sg5
g6
sg7
S'ForegroundActivity'
p843
sg9
S' 3492'
p844
sg11
S'\xe6\x9c\xac\xe6\xac\xa1\xe6\x94\xb6\xe5\x88\xb0\xe5\xb8\xa7\xe9\x95\xbf:13\t\xe6\x80\xbb\xe5\xb8\xa7\xe9\x95\xbf:735\n'
p845
sa(dp846
g2
S'3447'
p847
sg4
L1449722506575L
sg5
g6
sg7
S'SocketService1'
p848
sg9
S' 3466'
p849
sg11
S'\xe6\x9c\xac\xe6\xac\xa1\xe6\x8f\x90\xe5\x8f\x961:LoadPtr:735 HeadIndex:722 GetSize:13 13 0 \xe5\xa4\xb4\xe4\xbf\xa1\xe6\x81\xaf:EB 90 EB 90 EB 90 0D 00 10 01 \n'
p850
sa(dp851
g2
S'3418'
p852
sg4
L1449722508155L
sg5
g6
sg7
S'cn.edu.nju.ise.kikandroid'
p853
sg9
S' 3476'
p854
sg11
S'Log:1449722508161\n'
p855
sa(dp856
g2
S'3418'
p857
sg4
L1449722509625L
sg5
g6
sg7
S'MainActivity'
p858
sg9
S' 3418'
p859
sg11
S'logList.size2():0 com.example.myfristandroid.myListView{42d84918 V.ED.VC. ......ID 8,8-522,8 #7f08003c app:id/id_lv_logView}\n'
p860
sa(dp861
g2
S'3418'
p862
sg4
L1449722509625L
sg5
g6
sg7
S'MainActivity'
p863
sg9
S' 3418'
p864
sg11
S'MainActivity Send BroadCast Length:22\n'
p865
sa(dp866
g2
S'3447'
p867
sg4
L1449722509645L
sg5
g6
sg7
S'ForegroundActivity'
p868
sg9
S' 3447'
p869
sg11
S'\xe6\x9c\xac\xe6\xac\xa1\xe5\x8f\x91\xe9\x80\x81\xe5\xb8\xa7\xe9\x95\xbf:22\t\xe6\x80\xbb\xe5\xb8\xa7\xe9\x95\xbf:91\n'
p870
sa(dp871
g2
S'3447'
p872
sg4
L1449722509765L
sg5
g6
sg7
S'ForegroundActivity'
p873
sg9
S' 3492'
p874
sg11
S'\xe6\x9c\xac\xe6\xac\xa1\xe6\x94\xb6\xe5\x88\xb0\xe5\xb8\xa7\xe9\x95\xbf:17\t\xe6\x80\xbb\xe5\xb8\xa7\xe9\x95\xbf:752\n'
p875
sa(dp876
g2
S'3418'
p877
sg4
L1449722510185L
sg5
g6
sg7
S'MainActivity'
p878
sg9
S' 3418'
p879
sg11
S'V.getTag:null v.id:2131230734\n'
p880
sa(dp881
g2
S'3418'
p882
sg4
L1449722510245L
sg5
g6
sg7
S'dalvikvm'
p883
sg9
S' 3420'
p884
sg11
S'GC_CONCURRENT freed 4295K, 12% free 14958K/16844K, paused 2ms+2ms, total 35ms\n'
p885
sa(dp886
g2
S'3447'
p887
sg4
L1449722510625L
sg5
g6
sg7
S'SocketService1'
p888
sg9
S' 3466'
p889
sg11
S'\xe6\x9c\xac\xe6\xac\xa1\xe6\x8f\x90\xe5\x8f\x961:LoadPtr:752 HeadIndex:735 GetSize:17 17 0 \xe5\xa4\xb4\xe4\xbf\xa1\xe6\x81\xaf:EB 90 EB 90 EB 90 11 00 0D 01 \n'
p890
sa(dp891
g2
S'3418'
p892
sg4
L1449722516815L
sg5
g6
sg7
S'MainActivity'
p893
sg9
S' 3518'
p894
sg11
S'h:766.083,w:1687.5\n'
p895
sa(dp896
g2
S'3418'
p897
sg4
L1449722517125L
sg5
g6
sg7
S'TilesManager'
p898
sg9
S' 3418'
p899
sg11
S'Starting TG #0, 0x639ea2f0\n'
p900
sa(dp901
g2
S'3418'
p902
sg4
L1449722517125L
sg5
g6
sg7
S'TilesManager'
p903
sg9
S' 3418'
p904
sg11
S'new EGLContext from framework: 5fe781b8 \n'
p905
sa(dp906
g2
S'3418'
p907
sg4
L1449722517125L
sg5
g6
sg7
S'GLWebViewState'
p908
sg9
S' 3418'
p909
sg11
S'Reinit shader\n'
p910
sa(dp911
g2
S'3418'
p912
sg4
L1449722517265L
sg5
g6
sg7
S'GLWebViewState'
p913
sg9
S' 3418'
p914
sg11
S'Reinit transferQueue\n'
p915
sa(dp916
g2
S'3418'
p917
sg4
L1449722522605L
sg5
g6
sg7
S'cn.edu.nju.ise.kikandroid'
p918
sg9
S' 3476'
p919
sg11
S'Log:1449722522615\n'
p920
sa(dp921
g2
S'3418'
p922
sg4
L1449722524175L
sg5
g6
sg7
S'dalvikvm'
p923
sg9
S' 3420'
p924
sg11
S'GC_CONCURRENT freed 1386K, 14% free 16235K/18872K, paused 2ms+2ms, total 54ms\n'
p925
sa(dp926
g2
S'3418'
p927
sg4
L1449722524175L
sg5
g6
sg7
S'dalvikvm'
p928
sg9
S' 3418'
p929
sg11
S'WAIT_FOR_CONCURRENT_GC blocked 4ms\n'
p930
sa(dp931
g2
S'3418'
p932
sg4
L1449722524285L
sg5
g6
sg7
S'cn.edu.nju.ise.kikandroid'
p933
sg9
S' 3476'
p934
sg11
S'Screenshot:1449722524105\n'
p935
sa(dp936
g2
S'3418'
p937
sg4
L1449722526065L
sg5
g6
sg7
S'dalvikvm'
p938
sg9
S' 3418'
p939
sg11
S'GC_FOR_ALLOC freed 4139K, 16% free 14185K/16844K, paused 52ms, total 52ms\n'
p940
sa(dp941
g2
S'3418'
p942
sg4
L1449722526075L
sg5
g30
sg7
S'dalvikvm-heap'
p943
sg9
S' 3418'
p944
sg11
S'Grow heap (frag case) to 17.998MB for 2073616-byte allocation\n'
p945
sa(dp946
g2
S'3418'
p947
sg4
L1449722526095L
sg5
g6
sg7
S'dalvikvm'
p948
sg9
S' 3420'
p949
sg11
S'GC_CONCURRENT freed 1K, 15% free 16209K/18872K, paused 2ms+2ms, total 21ms\n'
p950
sa(dp951
g2
S'3418'
p952
sg4
L1449722526125L
sg5
g6
sg7
S'dalvikvm'
p953
sg9
S' 3418'
p954
sg11
S'GC_FOR_ALLOC freed <1K, 15% free 16209K/18872K, paused 18ms, total 18ms\n'
p955
sa(dp956
g2
S'3418'
p957
sg4
L1449722526125L
sg5
g30
sg7
S'dalvikvm-heap'
p958
sg9
S' 3418'
p959
sg11
S'Grow heap (frag case) to 19.974MB for 2073616-byte allocation\n'
p960
sa(dp961
g2
S'3418'
p962
sg4
L1449722526225L
sg5
g6
sg7
S'cn.edu.nju.ise.kikandroid'
p963
sg9
S' 3476'
p964
sg11
S'Screenshot:1449722526019\n'
p965
sa(dp966
g2
S'3418'
p967
sg4
L1449722530495L
sg5
g6
sg7
S'dalvikvm'
p968
sg9
S' 3420'
p969
sg11
S'GC_CONCURRENT freed 4192K, 12% free 14919K/16844K, paused 2ms+3ms, total 40ms\n'
p970
sa(dp971
g2
S'3447'
p972
sg4
L1449722546315L
sg5
g6
sg7
S'ForegroundActivity'
p973
sg9
S' 3464'
p974
sg11
S'\xe6\x9c\xac\xe6\xac\xa1\xe5\x8f\x91\xe9\x80\x81\xe5\xb8\xa7\xe9\x95\xbf:13\t\xe6\x80\xbb\xe5\xb8\xa7\xe9\x95\xbf:104\n'
p975
sa(dp976
g2
S'3447'
p977
sg4
L1449722546465L
sg5
g6
sg7
S'ForegroundActivity'
p978
sg9
S' 3492'
p979
sg11
S'\xe6\x9c\xac\xe6\xac\xa1\xe6\x94\xb6\xe5\x88\xb0\xe5\xb8\xa7\xe9\x95\xbf:13\t\xe6\x80\xbb\xe5\xb8\xa7\xe9\x95\xbf:765\n'
p980
sa(dp981
g2
S'3447'
p982
sg4
L1449722546715L
sg5
g6
sg7
S'SocketService1'
p983
sg9
S' 3466'
p984
sg11
S'\xe6\x9c\xac\xe6\xac\xa1\xe6\x8f\x90\xe5\x8f\x961:LoadPtr:765 HeadIndex:752 GetSize:13 13 0 \xe5\xa4\xb4\xe4\xbf\xa1\xe6\x81\xaf:EB 90 EB 90 EB 90 0D 00 10 01 \n'
p985
sa(dp986
g2
S'3447'
p987
sg4
L1449722586315L
sg5
g6
sg7
S'ForegroundActivity'
p988
sg9
S' 3464'
p989
sg11
S'\xe6\x9c\xac\xe6\xac\xa1\xe5\x8f\x91\xe9\x80\x81\xe5\xb8\xa7\xe9\x95\xbf:13\t\xe6\x80\xbb\xe5\xb8\xa7\xe9\x95\xbf:117\n'
p990
sa(dp991
g2
S'3447'
p992
sg4
L1449722587045L
sg5
g6
sg7
S'ForegroundActivity'
p993
sg9
S' 3492'
p994
sg11
S'\xe6\x9c\xac\xe6\xac\xa1\xe6\x94\xb6\xe5\x88\xb0\xe5\xb8\xa7\xe9\x95\xbf:13\t\xe6\x80\xbb\xe5\xb8\xa7\xe9\x95\xbf:778\n'
p995
sa(dp996
g2
S'3447'
p997
sg4
L1449722587785L
sg5
g6
sg7
S'SocketService1'
p998
sg9
S' 3466'
p999
sg11
S'\xe6\x9c\xac\xe6\xac\xa1\xe6\x8f\x90\xe5\x8f\x961:LoadPtr:778 HeadIndex:765 GetSize:13 13 0 \xe5\xa4\xb4\xe4\xbf\xa1\xe6\x81\xaf:EB 90 EB 90 EB 90 0D 00 10 01 \n'
p1000
sa(dp1001
g2
S'3447'
p1002
sg4
L1449722626315L
sg5
g6
sg7
S'ForegroundActivity'
p1003
sg9
S' 3464'
p1004
sg11
S'\xe6\x9c\xac\xe6\xac\xa1\xe5\x8f\x91\xe9\x80\x81\xe5\xb8\xa7\xe9\x95\xbf:13\t\xe6\x80\xbb\xe5\xb8\xa7\xe9\x95\xbf:130\n'
p1005
sa(dp1006
g2
S'3447'
p1007
sg4
L1449722628235L
sg5
g6
sg7
S'ForegroundActivity'
p1008
sg9
S' 3492'
p1009
sg11
S'\xe6\x9c\xac\xe6\xac\xa1\xe6\x94\xb6\xe5\x88\xb0\xe5\xb8\xa7\xe9\x95\xbf:13\t\xe6\x80\xbb\xe5\xb8\xa7\xe9\x95\xbf:791\n'
p1010
sa(dp1011
g2
S'3447'
p1012
sg4
L1449722628855L
sg5
g6
sg7
S'SocketService1'
p1013
sg9
S' 3466'
p1014
sg11
S'\xe6\x9c\xac\xe6\xac\xa1\xe6\x8f\x90\xe5\x8f\x961:LoadPtr:791 HeadIndex:778 GetSize:13 13 0 \xe5\xa4\xb4\xe4\xbf\xa1\xe6\x81\xaf:EB 90 EB 90 EB 90 0D 00 10 01 \n'
p1015
sa(dp1016
g2
S'3418'
p1017
sg4
L1449722632035L
sg5
g6
sg7
S'dalvikvm'
p1018
sg9
S' 3420'
p1019
sg11
S'GC_CONCURRENT freed 133K, 10% free 17046K/18872K, paused 2ms+2ms, total 32ms\n'
p1020
sa(dp1021
g2
S'3418'
p1022
sg4
L1449722632035L
sg5
g6
sg7
S'dalvikvm'
p1023
sg9
S' 3418'
p1024
sg11
S'WAIT_FOR_CONCURRENT_GC blocked 22ms\n'
p1025
sa(dp1026
g2
S'3418'
p1027
sg4
L1449722632115L
sg5
g6
sg7
S'cn.edu.nju.ise.kikandroid'
p1028
sg9
S' 3476'
p1029
sg11
S'Screenshot:1449722631996\n'
p1030
sa(dp1031
g2
S'3418'
p1032
sg4
L1449722633395L
sg5
g6
sg7
S'cn.edu.nju.ise.kikandroid'
p1033
sg9
S' 3476'
p1034
sg11
S'Log:1449722633405\n'
p1035
sa(dp1036
g2
S'3418'
p1037
sg4
L1449722640115L
sg5
g6
sg7
S'cn.edu.nju.ise.kikandroid'
p1038
sg9
S' 3476'
p1039
sg11
S'Log:1449722640124\n'
p1040
sa(dp1041
g2
S'3418'
p1042
sg4
L1449722640195L
sg5
g6
sg7
S'dalvikvm'
p1043
sg9
S' 3418'
p1044
sg11
S'GC_FOR_ALLOC freed 4251K, 11% free 15014K/16844K, paused 18ms, total 19ms\n'
p1045
sa(dp1046
g2
S'3418'
p1047
sg4
L1449722640265L
sg5
g6
sg7
S'dalvikvm'
p1048
sg9
S' 3418'
p1049
sg11
S'GC_FOR_ALLOC freed 10K, 10% free 17030K/18872K, paused 13ms, total 13ms\n'
p1050
sa(dp1051
g2
S'3418'
p1052
sg4
L1449722640365L
sg5
g6
sg7
S'cn.edu.nju.ise.kikandroid'
p1053
sg9
S' 3476'
p1054
sg11
S'Screenshot:1449722640156\n'
p1055
sa(dp1056
g2
S'3418'
p1057
sg4
L1449722640365L
sg5
g712
sg7
S'dalvikvm'
p1058
sg9
S' 3476'
p1059
sg11
S'threadid=14: thread exiting with uncaught exception (group=0x41d698e0)\n'
p1060
sa(dp1061
g2
S'3418'
p1062
sg4
L1449722640365L
sg5
g287
sg7
S'AndroidRuntime'
p1063
sg9
S' 3476'
p1064
sg11
S'FATAL EXCEPTION: Thread-14952\njava.lang.NullPointerException\n\tat android.app.Instrumentation.finish(Instrumentation.java:190)\n\tat cn.edu.nju.ise.kikandroid.AUTInstrument.quitInstr(AUTInstrument.java:195)\n\tat cn.edu.nju.ise.kikandroid.AUTInstrument.startServer(AUTInstrument.java:161)\n\tat cn.edu.nju.ise.kikandroid.AUTInstrument$1.run(AUTInstrument.java:107)\n\tat java.lang.Thread.run(Thread.java:841)\n'
p1065
sa(dp1066
g2
S'4178'
p1067
sg4
L1449722648235L
sg5
g6
sg7
S'dalvikvm'
p1068
sg9
S' 4178'
p1069
sg11
S'Late-enabling CheckJNI\n'
p1070
sa(dp1071
g2
S'4178'
p1072
sg4
L1449722648265L
sg5
g6
sg7
S'ActivityThread'
p1073
sg9
S' 4178'
p1074
sg11
S'setTargetHeapUtilization:0.75\n'
p1075
sa(dp1076
g2
S'4178'
p1077
sg4
L1449722648265L
sg5
g6
sg7
S'ActivityThread'
p1078
sg9
S' 4178'
p1079
sg11
S'setTargetHeapConcurrentStart:2097152\n'
p1080
sa(dp1081
g2
S'4178'
p1082
sg4
L1449722648505L
sg5
g6
sg7
S'dalvikvm'
p1083
sg9
S' 4178'
p1084
sg11
S'GC_FOR_ALLOC freed 83K, 18% free 6596K/8040K, paused 10ms, total 10ms\n'
p1085
sa(dp1086
g2
S'4178'
p1087
sg4
L1449722648525L
sg5
g30
sg7
S'dalvikvm-heap'
p1088
sg9
S' 4178'
p1089
sg11
S'Grow heap (frag case) to 16.926MB for 8721484-byte allocation\n'
p1090
sa(dp1091
g2
S'4178'
p1092
sg4
L1449722648535L
sg5
g6
sg7
S'dalvikvm'
p1093
sg9
S' 4182'
p1094
sg11
S'GC_CONCURRENT freed <1K, 9% free 15113K/16560K, paused 2ms+2ms, total 13ms\n'
p1095
sa(dp1096
g2
S'4204'
p1097
sg4
L1449722648685L
sg5
g6
sg7
S'dalvikvm'
p1098
sg9
S' 4204'
p1099
sg11
S'Late-enabling CheckJNI\n'
p1100
sa(dp1101
g2
S'4204'
p1102
sg4
L1449722648725L
sg5
g6
sg7
S'ActivityThread'
p1103
sg9
S' 4204'
p1104
sg11
S'setTargetHeapUtilization:0.75\n'
p1105
sa(dp1106
g2
S'4204'
p1107
sg4
L1449722648725L
sg5
g6
sg7
S'ActivityThread'
p1108
sg9
S' 4204'
p1109
sg11
S'setTargetHeapConcurrentStart:2097152\n'
p1110
sa(dp1111
g2
S'4178'
p1112
sg4
L1449722648745L
sg5
g6
sg7
S'libEGL  '
p1113
sg9
S' 4178'
p1114
sg11
S'loaded /vendor/lib/egl/libEGL_adreno.so\n'
p1115
sa(dp1116
g2
S'4178'
p1117
sg4
L1449722648745L
sg5
g6
sg7
S'libEGL  '
p1118
sg9
S' 4178'
p1119
sg11
S'loaded /vendor/lib/egl/libGLESv1_CM_adreno.so\n'
p1120
sa(dp1121
g2
S'4178'
p1122
sg4
L1449722648755L
sg5
g6
sg7
S'libEGL  '
p1123
sg9
S' 4178'
p1124
sg11
S'loaded /vendor/lib/egl/libGLESv2_adreno.so\n'
p1125
sa(dp1126
g2
S'4204'
p1127
sg4
L1449722648755L
sg5
g6
sg7
S'SocketService'
p1128
sg9
S' 4204'
p1129
sg11
S'onStartCommand : bLogin:false\n'
p1130
sa(dp1131
g2
S'4204'
p1132
sg4
L1449722648755L
sg5
g6
sg7
S'SocketService'
p1133
sg9
S' 4204'
p1134
sg11
S'pid:4204 myPid:4204\n'
p1135
sa(dp1136
g2
S'4204'
p1137
sg4
L1449722648755L
sg5
g6
sg7
S'SocketService'
p1138
sg9
S' 4204'
p1139
sg11
S'start to run current thread!id:14963\n'
p1140
sa(dp1141
g2
S'4178'
p1142
sg4
L1449722648755L
sg5
g30
sg7
S'Adreno-EGL'
p1143
sg9
S' 4178'
p1144
sg11
S'<qeglDrvAPI_eglInitialize:381>: EGL 1.4 QUALCOMM build: AU_LINUX_ANDROID_JB_3.2_RB2.04.03.00.129.095_msm8226_JB_3.2_RB2__release_AU ()\nOpenGL ES Shader Compiler Version: 20.00.08\nBuild Date: 01/30/14 Thu\nLocal Branch: \nRemote Branch: quic/jb_3.2_rb2.32\nLocal Patches: NONE\nReconstruct Branch: AU_LINUX_ANDROID_JB_3.2_RB2.04.03.00.129.095 + 16788c7 +  NOTHING\n'
p1145
sa(dp1146
g2
S'4204'
p1147
sg4
L1449722648785L
sg5
g6
sg7
S'SocketService'
p1148
sg9
S' 4222'
p1149
sg11
S'ip/192.168.191.3 lport:50760 p:143\n'
p1150
sa(dp1151
g2
S'4178'
p1152
sg4
L1449722648795L
sg5
g6
sg7
S'OpenGLRenderer'
p1153
sg9
S' 4178'
p1154
sg11
S'Enabling debug mode 0\n'
p1155
sa(dp1156
g2
S'4204'
p1157
sg4
L1449722648795L
sg5
g6
sg7
S'ForegroundActivity'
p1158
sg9
S' 4222'
p1159
sg11
S'\xe6\x9c\xac\xe6\xac\xa1\xe5\x8f\x91\xe9\x80\x81\xe5\xb8\xa7\xe9\x95\xbf:34\t\xe6\x80\xbb\xe5\xb8\xa7\xe9\x95\xbf:34\n'
p1160
sa(dp1161
g2
S'4204'
p1162
sg4
L1449722648795L
sg5
g6
sg7
S'SocketService'
p1163
sg9
S' 4222'
p1164
sg11
S'success to connect server!id:14963 bLogin:false\n'
p1165
sa(dp1166
g2
S'4204'
p1167
sg4
L1449722648885L
sg5
g6
sg7
S'ForegroundActivity'
p1168
sg9
S' 4224'
p1169
sg11
S'\xe6\x9c\xac\xe6\xac\xa1\xe6\x94\xb6\xe5\x88\xb0\xe5\xb8\xa7\xe9\x95\xbf:13\t\xe6\x80\xbb\xe5\xb8\xa7\xe9\x95\xbf:13\n'
p1170
sa(dp1171
g2
S'4204'
p1172
sg4
L1449722649755L
sg5
g6
sg7
S'SocketService1'
p1173
sg9
S' 4220'
p1174
sg11
S'\xe6\x9c\xac\xe6\xac\xa1\xe6\x8f\x90\xe5\x8f\x961:LoadPtr:13 HeadIndex:0 GetSize:13 13 0 \xe5\xa4\xb4\xe4\xbf\xa1\xe6\x81\xaf:EB 90 EB 90 EB 90 0D 00 0E 01 \n'
p1175
sa(dp1176
g2
S'4204'
p1177
sg4
L1449722649795L
sg5
g6
sg7
S'ForegroundActivity'
p1178
sg9
S' 4222'
p1179
sg11
S'\xe6\x9c\xac\xe6\xac\xa1\xe5\x8f\x91\xe9\x80\x81\xe5\xb8\xa7\xe9\x95\xbf:11\t\xe6\x80\xbb\xe5\xb8\xa7\xe9\x95\xbf:45\n'
p1180
sa(dp1181
g2
S'4204'
p1182
sg4
L1449722649865L
sg5
g6
sg7
S'ForegroundActivity'
p1183
sg9
S' 4224'
p1184
sg11
S'\xe6\x9c\xac\xe6\xac\xa1\xe6\x94\xb6\xe5\x88\xb0\xe5\xb8\xa7\xe9\x95\xbf:642\t\xe6\x80\xbb\xe5\xb8\xa7\xe9\x95\xbf:655\n'
p1185
sa(dp1186
g2
S'4204'
p1187
sg4
L1449722650795L
sg5
g6
sg7
S'SocketService1'
p1188
sg9
S' 4220'
p1189
sg11
S'\xe6\x9c\xac\xe6\xac\xa1\xe6\x8f\x90\xe5\x8f\x961:LoadPtr:655 HeadIndex:13 GetSize:642 130 512 \xe5\xa4\xb4\xe4\xbf\xa1\xe6\x81\xaf:EB 90 EB 90 EB 90 82 02 14 0A \n'
p1190
sa(dp1191
g2
S'4204'
p1192
sg4
L1449722650835L
sg5
g6
sg7
S'ForegroundActivity'
p1193
sg9
S' 4222'
p1194
sg11
S'\xe6\x9c\xac\xe6\xac\xa1\xe5\x8f\x91\xe9\x80\x81\xe5\xb8\xa7\xe9\x95\xbf:11\t\xe6\x80\xbb\xe5\xb8\xa7\xe9\x95\xbf:56\n'
p1195
sa(dp1196
g2
S'4204'
p1197
sg4
L1449722650855L
sg5
g6
sg7
S'ForegroundActivity'
p1198
sg9
S' 4224'
p1199
sg11
S'\xe6\x9c\xac\xe6\xac\xa1\xe6\x94\xb6\xe5\x88\xb0\xe5\xb8\xa7\xe9\x95\xbf:67\t\xe6\x80\xbb\xe5\xb8\xa7\xe9\x95\xbf:722\n'
p1200
sa(dp1201
g2
S'4204'
p1202
sg4
L1449722650875L
sg5
g6
sg7
S'SocketService1'
p1203
sg9
S' 4220'
p1204
sg11
S'\xe6\x9c\xac\xe6\xac\xa1\xe6\x8f\x90\xe5\x8f\x961:LoadPtr:722 HeadIndex:655 GetSize:67 67 0 \xe5\xa4\xb4\xe4\xbf\xa1\xe6\x81\xaf:EB 90 EB 90 EB 90 43 00 15 02 \n'
p1205
sa(dp1206
g2
S'4178'
p1207
sg4
L1449722650935L
sg5
g6
sg7
S'MainActivity'
p1208
sg9
S' 4178'
p1209
sg11
S'Start One Client\n'
p1210
sa(dp1211
g2
S'4178'
p1212
sg4
L1449722650945L
sg5
g6
sg7
S'StrictMode'
p1213
sg9
S' 4178'
p1214
sg11
S'StrictMode policy violation; ~duration=12 ms: android.os.StrictMode$StrictModeDiskReadViolation: policy=23 violation=2\n\tat android.os.StrictMode$AndroidBlockGuardPolicy.onReadFromDisk(StrictMode.java:1126)\n\tat android.app.SharedPreferencesImpl.awaitLoadedLocked(SharedPreferencesImpl.java:203)\n\tat android.app.SharedPreferencesImpl.edit(SharedPreferencesImpl.java:282)\n\tat com.example.myfristandroid.MainActivity.initCfg(MainActivity.java:454)\n\tat com.example.myfristandroid.MainActivity.onCreate(MainActivity.java:295)\n\tat android.app.Activity.performCreate(Activity.java:5234)\n\tat android.app.Instrumentation.callActivityOnCreate(Instrumentation.java:1087)\n\tat android.app.ActivityThread.performLaunchActivity(ActivityThread.java:2302)\n\tat android.app.ActivityThread.handleLaunchActivity(ActivityThread.java:2388)\n\tat android.app.ActivityThread.access$900(ActivityThread.java:148)\n\tat android.app.ActivityThread$H.handleMessage(ActivityThread.java:1319)\n\tat android.os.Handler.dispatchMessage(Handler.java:99)\n\tat android.os.Looper.loop(Looper.java:137)\n\tat android.app.ActivityThread.main(ActivityThread.java:5473)\n\tat java.lang.reflect.Method.invokeNative(Native Method)\n\tat java.lang.reflect.Method.invoke(Method.java:525)\n\tat com.android.internal.os.ZygoteInit$MethodAndArgsCaller.run(ZygoteInit.java:806)\n\tat com.android.internal.os.ZygoteInit.main(ZygoteInit.java:622)\n\tat dalvik.system.NativeStart.main(Native Method)\n'
p1215
sa(dp1216
g2
S'4178'
p1217
sg4
L1449722650985L
sg5
g6
sg7
S'dalvikvm'
p1218
sg9
S' 4182'
p1219
sg11
S'GC_CONCURRENT freed 4295K, 26% free 13105K/17576K, paused 1ms+1ms, total 14ms\n'
p1220
sa(dp1221
g2
S'4178'
p1222
sg4
L1449722651115L
sg5
g6
sg7
S'dalvikvm'
p1223
sg9
S' 4182'
p1224
sg11
S'GC_CONCURRENT freed 483K, 20% free 14184K/17576K, paused 1ms+2ms, total 14ms\n'
p1225
sa(dp1226
g2
S'4178'
p1227
sg4
L1449722653825L
sg5
g6
sg7
S'webcoreglue'
p1228
sg9
S' 4288'
p1229
sg11
S'netstack: Memory Cache feature is ON\n'
p1230
sa(dp1231
g2
S'4178'
p1232
sg4
L1449722653845L
sg5
g6
sg7
S'JSENGINE'
p1233
sg9
S' 4288'
p1234
sg11
S'qualcomm.jsengine.version:C.3-patch5-git:35c0a3d\n'
p1235
sa(dp1236
g2
S'4178'
p1237
sg4
L1449722653895L
sg5
g6
sg7
S'HostStatisticManager'
p1238
sg9
S' 4288'
p1239
sg11
S'netstack: DNS Host Prioritization is: ON, Version: 5.0.2\n'
p1240
sa(dp1241
g2
S'4178'
p1242
sg4
L1449722653895L
sg5
g30
sg7
S'        '
p1243
sg9
S' 4288'
p1244
sg11
S'netstack: LIB_MGR - Lib loaded: libdnshostprio.so\n'
p1245
sa(dp1246
g2
S'4178'
p1247
sg4
L1449722653895L
sg5
g30
sg7
S'        '
p1248
sg9
S' 4288'
p1249
sg11
S'netstack: STAT_HUB - Succeeded to load plugin: libdnshostprio.so\n'
p1250
sa(dp1251
g2
S'4178'
p1252
sg4
L1449722653895L
sg5
g30
sg7
S'        '
p1253
sg9
S' 4288'
p1254
sg11
S'netstack: LIB_MGR - Lib loaded: spl_proc_plugin.so\n'
p1255
sa(dp1256
g2
S'4178'
p1257
sg4
L1449722653905L
sg5
g30
sg7
S'        '
p1258
sg9
S' 4288'
p1259
sg11
S'netstack: STAT_HUB - Succeeded to load plugin: spl_proc_plugin.so\n'
p1260
sa(dp1261
g2
S'4178'
p1262
sg4
L1449722653905L
sg5
g30
sg7
S'        '
p1263
sg9
S' 4288'
p1264
sg11
S'netstack: LIB_MGR - Lib loaded: pp_proc_plugin.so\n'
p1265
sa(dp1266
g2
S'4178'
p1267
sg4
L1449722653905L
sg5
g30
sg7
S'        '
p1268
sg9
S' 4288'
p1269
sg11
S'netstack: STAT_HUB - Succeeded to load plugin: pp_proc_plugin.so\n'
p1270
sa(dp1271
g2
S'4178'
p1272
sg4
L1449722653905L
sg5
g287
sg7
S'        '
p1273
sg9
S' 4288'
p1274
sg11
S"netstack:  STAT_HUB - App com.example.myfristandroid isn't supported\n"
p1275
sa(dp1276
g2
S'4178'
p1277
sg4
L1449722653915L
sg5
g231
sg7
S'chromium_net'
p1278
sg9
S' 4288'
p1279
sg11
S'external/chromium/net/host_resolver_helper/host_resolver_helper.cc:66: [1210/124413:INFO:host_resolver_helper.cc(66)] DNSPreResolver::Init got hostprovider:0x5ff7100c\n'
p1280
sa(dp1281
g2
S'4178'
p1282
sg4
L1449722653915L
sg5
g231
sg7
S'chromium_net'
p1283
sg9
S' 4288'
p1284
sg11
S'external/chromium/net/base/host_resolver_impl.cc:1510: [1210/124413:INFO:host_resolver_impl.cc(1510)] HostResolverImpl::SetPreresolver preresolver:0x5ff77530\n'
p1285
sa(dp1286
g2
S'4178'
p1287
sg4
L1449722653915L
sg5
g6
sg7
S'        '
p1288
sg9
S' 4288'
p1289
sg11
S'dl error message dlopen failed: library "libtcpfinaggr.so" not found\n'
p1290
sa(dp1291
g2
S'4178'
p1292
sg4
L1449722653915L
sg5
g6
sg7
S'Socket_Pool'
p1293
sg9
S' 4288'
p1294
sg11
S'Failed to create TCP Fin Aggregation interface.\n'
p1295
sa(dp1296
g2
S'4178'
p1297
sg4
L1449722653915L
sg5
g6
sg7
S'Socket_Pool'
p1298
sg9
S' 4288'
p1299
sg11
S'netstack: CloseUnusedSockets is ON\n'
p1300
sa(dp1301
g2
S'4178'
p1302
sg4
L1449722653915L
sg5
g6
sg7
S'Socket_Pool'
p1303
sg9
S' 4288'
p1304
sg11
S'netstack: system net.statistics value: 0\n'
p1305
sa(dp1306
g2
S'4178'
p1307
sg4
L1449722653925L
sg5
g6
sg7
S'netstack'
p1308
sg9
S' 4288'
p1309
sg11
S'netstack: Request Priority is ON\n'
p1310
sa(dp1311
g2
S'4178'
p1312
sg4
L1449722653925L
sg5
g6
sg7
S'Socket_Pool'
p1313
sg9
S' 4288'
p1314
sg11
S'netstack: system net.statistics value: 0\n'
p1315
sa(dp1316
g2
S'4178'
p1317
sg4
L1449722653925L
sg5
g6
sg7
S'        '
p1318
sg9
S' 4288'
p1319
sg11
S"external/chromium/net/http/http_getzip_factory.cc: Failed to construct GETzip manager, didn't find the library!\n"
p1320
sa(dp1321
g2
S'4178'
p1322
sg4
L1449722653935L
sg5
g6
sg7
S'        '
p1323
sg9
S' 4308'
p1324
sg11
S'Failed to load DoObserveConnections symbol in tcp-connections.so\n'
p1325
sa(dp1326
g2
S'4178'
p1327
sg4
L1449722654045L
sg5
g6
sg7
S'WebKit  '
p1328
sg9
S' 4288'
p1329
sg11
S'ERROR: \n'
p1330
sa(dp1331
g2
S'4178'
p1332
sg4
L1449722654045L
sg5
g6
sg7
S'WebKit  '
p1333
sg9
S' 4288'
p1334
sg11
S'alias gb18030 maps to GB18030 already, but someone is trying to make it map to GBK\n'
p1335
sa(dp1336
g2
S'4178'
p1337
sg4
L1449722654045L
sg5
g6
sg7
S'WebKit  '
p1338
sg9
S' 4288'
p1339
sg11
g360
sa(dp1340
g2
S'4178'
p1341
sg4
L1449722654045L
sg5
g6
sg7
S'WebKit  '
p1342
sg9
S' 4288'
p1343
sg11
S'external/webkit/Source/WebCore/platform/text/TextEncodingRegistry.cpp(152) : void WebCore::checkExistingName(const char*, const char*)\n'
p1344
sa(dp1345
g2
S'4178'
p1346
sg4
L1449722655875L
sg5
g6
sg7
S'MainActivity'
p1347
sg9
S' 4288'
p1348
sg11
S'h:910.5,w:1687.5\n'
p1349
sa(dp1350
g2
S'4178'
p1351
sg4
L1449722656105L
sg5
g287
sg7
S'cutils-trace'
p1352
sg9
S' 4288'
p1353
sg11
S'Error opening trace file: No such file or directory (2)\n'
p1354
sa(dp1355
g2
S'4178'
p1356
sg4
L1449722656125L
sg5
g6
sg7
S'TilesManager'
p1357
sg9
S' 4178'
p1358
sg11
S'Starting TG #0, 0x626a0408\n'
p1359
sa(dp1360
g2
S'4178'
p1361
sg4
L1449722656125L
sg5
g6
sg7
S'TilesManager'
p1362
sg9
S' 4178'
p1363
sg11
S'new EGLContext from framework: 5fe781b8 \n'
p1364
sa(dp1365
g2
S'4178'
p1366
sg4
L1449722656125L
sg5
g6
sg7
S'GLWebViewState'
p1367
sg9
S' 4178'
p1368
sg11
S'Reinit shader\n'
p1369
sa(dp1370
g2
S'4178'
p1371
sg4
L1449722656175L
sg5
g6
sg7
S'GLWebViewState'
p1372
sg9
S' 4178'
p1373
sg11
S'Reinit transferQueue\n'
p1374
sa(dp1375
g2
S'4178'
p1376
sg4
L1449722659655L
sg5
g6
sg7
S'dalvikvm'
p1377
sg9
S' 4182'
p1378
sg11
S'GC_CONCURRENT freed 1270K, 9% free 16032K/17576K, paused 3ms+6ms, total 68ms\n'
p1379
sa(dp1380
g2
S'4178'
p1381
sg4
L1449722659785L
sg5
g6
sg7
S'cn.edu.nju.ise.kikandroid'
p1382
sg9
S' 4232'
p1383
sg11
S'Screenshot:1449722659579\n'
p1384
sa(dp1385
g2
S'4178'
p1386
sg4
L1449722661465L
sg5
g6
sg7
S'cn.edu.nju.ise.kikandroid'
p1387
sg9
S' 4232'
p1388
sg11
S'Log:1449722661472\n'
p1389
sa(dp1390
g2
S'4178'
p1391
sg4
L1449722669945L
sg5
g6
sg7
S'dalvikvm'
p1392
sg9
S' 4182'
p1393
sg11
S'GC_CONCURRENT freed 4250K, 25% free 14725K/19560K, paused 3ms+2ms, total 27ms\n'
p1394
sa(dp1395
g2
S'4178'
p1396
sg4
L1449722669955L
sg5
g287
sg7
S'        '
p1397
sg9
S' 4308'
p1398
sg11
S'netstack: LIB_MGR - Error loading lib qnet-plugin.so\n'
p1399
sa(dp1400
g2
S'4178'
p1401
sg4
L1449722670455L
sg5
g6
sg7
S'MainActivity'
p1402
sg9
S' 4288'
p1403
sg11
S'h:910.5,w:1687.5\n'
p1404
sa(dp1405
g2
S'4178'
p1406
sg4
L1449722674495L
sg5
g6
sg7
S'dalvikvm'
p1407
sg9
S' 4182'
p1408
sg11
S'GC_CONCURRENT freed 89K, 14% free 16856K/19560K, paused 2ms+2ms, total 53ms\n'
p1409
sa(dp1410
g2
S'4178'
p1411
sg4
L1449722674605L
sg5
g6
sg7
S'cn.edu.nju.ise.kikandroid'
p1412
sg9
S' 4232'
p1413
sg11
S'Screenshot:1449722674443\n'
p1414
sa(dp1415
g2
S'4178'
p1416
sg4
L1449722675995L
sg5
g6
sg7
S'cn.edu.nju.ise.kikandroid'
p1417
sg9
S' 4232'
p1418
sg11
S'Log:1449722675999\n'
p1419
sa(dp1420
g2
S'4178'
p1421
sg4
L1449722681255L
sg5
g6
sg7
S'dalvikvm'
p1422
sg9
S' 4182'
p1423
sg11
S'GC_CONCURRENT freed 4246K, 24% free 15553K/20248K, paused 2ms+2ms, total 29ms\n'
p1424
sa(dp1425
g2
S'4178'
p1426
sg4
L1449722687805L
sg5
g6
sg7
S'MainActivity'
p1427
sg9
S' 4178'
p1428
sg11
S'V.getTag:null v.id:2131230740\n'
p1429
sa(dp1430
g2
S'4178'
p1431
sg4
L1449722687885L
sg5
g231
sg7
S'RenderScript'
p1432
sg9
S' 4178'
p1433
sg11
S'0x62064f88 Launching thread(s), CPUs 4\n'
p1434
sa(dp1435
g2
S'4204'
p1436
sg4
L1449722688755L
sg5
g6
sg7
S'ForegroundActivity'
p1437
sg9
S' 4218'
p1438
sg11
S'\xe6\x9c\xac\xe6\xac\xa1\xe5\x8f\x91\xe9\x80\x81\xe5\xb8\xa7\xe9\x95\xbf:13\t\xe6\x80\xbb\xe5\xb8\xa7\xe9\x95\xbf:69\n'
p1439
sa(dp1440
g2
S'4204'
p1441
sg4
L1449722688865L
sg5
g6
sg7
S'ForegroundActivity'
p1442
sg9
S' 4224'
p1443
sg11
S'\xe6\x9c\xac\xe6\xac\xa1\xe6\x94\xb6\xe5\x88\xb0\xe5\xb8\xa7\xe9\x95\xbf:13\t\xe6\x80\xbb\xe5\xb8\xa7\xe9\x95\xbf:735\n'
p1444
sa(dp1445
g2
S'4204'
p1446
sg4
L1449722688925L
sg5
g6
sg7
S'SocketService1'
p1447
sg9
S' 4220'
p1448
sg11
S'\xe6\x9c\xac\xe6\xac\xa1\xe6\x8f\x90\xe5\x8f\x961:LoadPtr:735 HeadIndex:722 GetSize:13 13 0 \xe5\xa4\xb4\xe4\xbf\xa1\xe6\x81\xaf:EB 90 EB 90 EB 90 0D 00 10 01 \n'
p1449
sa(dp1450
g2
S'4178'
p1451
sg4
L1449722689775L
sg5
g6
sg7
S'dalvikvm'
p1452
sg9
S' 4182'
p1453
sg11
S'GC_CONCURRENT freed 569K, 13% free 17730K/20244K, paused 9ms+16ms, total 58ms\n'
p1454
sa(dp1455
g2
S'4178'
p1456
sg4
L1449722689875L
sg5
g6
sg7
S'cn.edu.nju.ise.kikandroid'
p1457
sg9
S' 4232'
p1458
sg11
S'Screenshot:1449722689669\n'
p1459
sa(dp1460
g2
S'4178'
p1461
sg4
L1449722693635L
sg5
g6
sg7
S'cn.edu.nju.ise.kikandroid'
p1462
sg9
S' 4232'
p1463
sg11
S'Log:1449722693648\n'
p1464
sa(dp1465
g2
S'4178'
p1466
sg4
L1449722693705L
sg5
g6
sg7
S'dalvikvm'
p1467
sg9
S' 4178'
p1468
sg11
S'GC_FOR_ALLOC freed 4193K, 30% free 15683K/22272K, paused 13ms, total 13ms\n'
p1469
sa(dp1470
g2
S'4178'
p1471
sg4
L1449722693735L
sg5
g6
sg7
S'dalvikvm'
p1472
sg9
S' 4182'
p1473
sg11
S'GC_CONCURRENT freed 2028K, 21% free 17712K/22272K, paused 2ms+2ms, total 22ms\n'
p1474
sa(dp1475
g2
S'4178'
p1476
sg4
L1449722693805L
sg5
g6
sg7
S'cn.edu.nju.ise.kikandroid'
p1477
sg9
S' 4232'
p1478
sg11
S'Screenshot:1449722693672\n'
p1479
sa(dp1480
g2
S'4178'
p1481
sg4
L1449722693805L
sg5
g712
sg7
S'dalvikvm'
p1482
sg9
S' 4232'
p1483
sg11
S'threadid=15: thread exiting with uncaught exception (group=0x41d698e0)\n'
p1484
sa(dp1485
g2
S'4178'
p1486
sg4
L1449722693805L
sg5
g287
sg7
S'AndroidRuntime'
p1487
sg9
S' 4232'
p1488
sg11
S'FATAL EXCEPTION: Thread-14959\njava.lang.NullPointerException\n\tat android.app.Instrumentation.finish(Instrumentation.java:190)\n\tat cn.edu.nju.ise.kikandroid.AUTInstrument.quitInstr(AUTInstrument.java:195)\n\tat cn.edu.nju.ise.kikandroid.AUTInstrument.startServer(AUTInstrument.java:161)\n\tat cn.edu.nju.ise.kikandroid.AUTInstrument$1.run(AUTInstrument.java:107)\n\tat java.lang.Thread.run(Thread.java:841)\n'
p1489
sa.