(lp0
(dp1
S'EventTime'
p2
S'101286840'
p3
sS'SyscTime'
p4
L1449713813552L
sS'recordCount'
p5
S'0'
p6
sS'EventType'
p7
S'TYPE_WINDOW_STATE_CHANGED'
p8
sS'PackageName'
p9
S'com.example.myfristandroid'
p10
sS'OutBounds'
p11
S'Rect(0, 0 - 720, 1184)'
p12
sS'Action'
p13
S'[ ClassName: com.example.myfristandroid.SplashActivity; Text: [SE-1800\xe7\xa7\xbb\xe5\x8a\xa8APP]; ContentDescription: null; ItemCount: -1; CurrentItemIndex: -1; IsEnabled: true; IsPassword: false; IsChecked: false; IsFullScreen: true; Scrollable: false; BeforeText: null; FromIndex: -1; ToIndex: -1; ScrollX: -1; ScrollY: -1; MaxScrollX: -1; MaxScrollY: -1; AddedCount: -1; RemovedCount: -1; ParcelableData: null ]'
p14
sS'MovementGranularity'
p15
g6
sa(dp16
S'EventTime'
p17
S'101286900'
p18
sg4
L1449713813605L
sS'recordCount'
p19
g6
sS'EventType'
p20
S'TYPE_WINDOW_CONTENT_CHANGED'
p21
sS'PackageName'
p22
S'com.example.myfristandroid'
p23
sS'OutBounds'
p24
S'Rect(0, 0 - 720, 1184)'
p25
sS'Action'
p26
S'[ ClassName: android.widget.FrameLayout; Text: []; ContentDescription: null; ItemCount: -1; CurrentItemIndex: -1; IsEnabled: true; IsPassword: false; IsChecked: false; IsFullScreen: false; Scrollable: false; BeforeText: null; FromIndex: -1; ToIndex: -1; ScrollX: -1; ScrollY: -1; MaxScrollX: -1; MaxScrollY: -1; AddedCount: -1; RemovedCount: -1; ParcelableData: null ]'
p27
sS'MovementGranularity'
p28
g6
sa(dp29
S'EventTime'
p30
S'101289376'
p31
sg4
L1449713816191L
sS'recordCount'
p32
g6
sS'EventType'
p33
S'TYPE_WINDOW_STATE_CHANGED'
p34
sS'PackageName'
p35
S'com.example.myfristandroid'
p36
sS'OutBounds'
p37
S'Rect(0, 0 - 720, 1184)'
p38
sS'Action'
p39
S'[ ClassName: com.example.myfristandroid.MainActivity; Text: [SE-1800\xe7\xa7\xbb\xe5\x8a\xa8APP]; ContentDescription: null; ItemCount: -1; CurrentItemIndex: -1; IsEnabled: true; IsPassword: false; IsChecked: false; IsFullScreen: true; Scrollable: false; BeforeText: null; FromIndex: -1; ToIndex: -1; ScrollX: -1; ScrollY: -1; MaxScrollX: -1; MaxScrollY: -1; AddedCount: -1; RemovedCount: -1; ParcelableData: null ]'
p40
sS'MovementGranularity'
p41
g6
sa(dp42
S'EventTime'
p43
S'101289424'
p44
sg4
L1449713816258L
sS'recordCount'
p45
g6
sS'EventType'
p46
S'TYPE_VIEW_SCROLLED'
p47
sS'PackageName'
p48
S'com.example.myfristandroid'
p49
sS'OutBounds'
p50
S'Rect(732, 416 - 1428, 416)'
p51
sS'Action'
p52
S'[ ClassName: android.widget.ListView; Text: []; ContentDescription: null; ItemCount: 0; CurrentItemIndex: -1; IsEnabled: true; IsPassword: false; IsChecked: false; IsFullScreen: false; Scrollable: false; BeforeText: null; FromIndex: 0; ToIndex: -1; ScrollX: -1; ScrollY: -1; MaxScrollX: -1; MaxScrollY: -1; AddedCount: -1; RemovedCount: -1; ParcelableData: null ]'
p53
sS'MovementGranularity'
p54
g6
sa(dp55
S'EventTime'
p56
S'101289575'
p57
sg4
L1449713816330L
sS'recordCount'
p58
g6
sS'EventType'
p59
S'TYPE_WINDOW_CONTENT_CHANGED'
p60
sS'PackageName'
p61
S'com.example.myfristandroid'
p62
sS'OutBounds'
p63
S'Rect(62, 1144 - 118, 1183)'
p64
sS'Action'
p65
S'[ ClassName: android.widget.TextView; Text: []; ContentDescription: null; ItemCount: -1; CurrentItemIndex: -1; IsEnabled: true; IsPassword: false; IsChecked: false; IsFullScreen: false; Scrollable: false; BeforeText: null; FromIndex: -1; ToIndex: -1; ScrollX: -1; ScrollY: -1; MaxScrollX: -1; MaxScrollY: -1; AddedCount: -1; RemovedCount: -1; ParcelableData: null ]'
p66
sS'MovementGranularity'
p67
g6
sa(dp68
S'EventTime'
p69
S'101290245'
p70
sg4
L1449713816971L
sS'recordCount'
p71
g6
sS'EventType'
p72
S'TYPE_WINDOW_STATE_CHANGED'
p73
sS'PackageName'
p74
S'com.example.myfristandroid'
p75
sS'OutBounds'
p76
S'Rect(0, 0 - 720, 1184)'
p77
sS'Action'
p78
S'[ ClassName: com.example.myfristandroid.HuzAlertDialog; Text: [\xe6\x8f\x90\xe7\xa4\xba, \xe7\x89\x88\xe6\x9c\xac\xe6\x9c\x89\xe6\x9b\xb4\xe6\x96\xb0\xef\xbc\x8c\xe6\x98\xaf\xe5\x90\xa6\xe9\x9c\x80\xe8\xa6\x81\xe6\x9b\xb4\xe6\x96\xb0, \xe7\xab\x8b\xe5\x8d\xb3\xe6\x9b\xb4\xe6\x96\xb0, \xe7\xa8\x8d\xe5\x90\x8e\xe6\x9b\xb4\xe6\x96\xb0]; ContentDescription: null; ItemCount: -1; CurrentItemIndex: -1; IsEnabled: true; IsPassword: false; IsChecked: false; IsFullScreen: true; Scrollable: false; BeforeText: null; FromIndex: -1; ToIndex: -1; ScrollX: -1; ScrollY: -1; MaxScrollX: -1; MaxScrollY: -1; AddedCount: -1; RemovedCount: -1; ParcelableData: null ]'
p79
sS'MovementGranularity'
p80
g6
sa(dp81
S'EventTime'
p82
S'101290342'
p83
sg4
L1449713817056L
sS'recordCount'
p84
g6
sS'EventType'
p85
S'TYPE_WINDOW_CONTENT_CHANGED'
p86
sS'PackageName'
p87
S'com.example.myfristandroid'
p88
sS'OutBounds'
p89
S'Rect(59, 562 - 673, 632)'
p90
sS'Action'
p91
S'[ ClassName: android.widget.TextView; Text: []; ContentDescription: null; ItemCount: -1; CurrentItemIndex: -1; IsEnabled: true; IsPassword: false; IsChecked: false; IsFullScreen: false; Scrollable: false; BeforeText: null; FromIndex: -1; ToIndex: -1; ScrollX: -1; ScrollY: -1; MaxScrollX: -1; MaxScrollY: -1; AddedCount: -1; RemovedCount: -1; ParcelableData: null ]'
p92
sS'MovementGranularity'
p93
g6
sa(dp94
S'EventTime'
p95
S'101290451'
p96
sg4
L1449713817171L
sS'recordCount'
p97
g6
sS'EventType'
p98
S'TYPE_WINDOW_CONTENT_CHANGED'
p99
sS'PackageName'
p100
S'com.example.myfristandroid'
p101
sS'OutBounds'
p102
S'Rect(59, 562 - 673, 632)'
p103
sS'Action'
p104
S'[ ClassName: android.widget.TextView; Text: []; ContentDescription: null; ItemCount: -1; CurrentItemIndex: -1; IsEnabled: true; IsPassword: false; IsChecked: false; IsFullScreen: false; Scrollable: false; BeforeText: null; FromIndex: -1; ToIndex: -1; ScrollX: -1; ScrollY: -1; MaxScrollX: -1; MaxScrollY: -1; AddedCount: -1; RemovedCount: -1; ParcelableData: null ]'
p105
sS'MovementGranularity'
p106
g6
sa(dp107
S'EventTime'
p108
S'101292774'
p109
sg4
L1449713819479L
sS'recordCount'
p110
g6
sS'EventType'
p111
S'TYPE_VIEW_CLICKED'
p112
sS'PackageName'
p113
S'com.example.myfristandroid'
p114
sS'OutBounds'
p115
S'Rect(372, 664 - 679, 760)'
p116
sS'Action'
p117
S'[ ClassName: android.widget.Button; Text: [\xe7\xa8\x8d\xe5\x90\x8e\xe6\x9b\xb4\xe6\x96\xb0]; ContentDescription: null; ItemCount: -1; CurrentItemIndex: -1; IsEnabled: true; IsPassword: false; IsChecked: false; IsFullScreen: false; Scrollable: false; BeforeText: null; FromIndex: -1; ToIndex: -1; ScrollX: -1; ScrollY: -1; MaxScrollX: -1; MaxScrollY: -1; AddedCount: -1; RemovedCount: -1; ParcelableData: null ]'
p118
sS'MovementGranularity'
p119
g6
sa(dp120
S'EventTime'
p121
S'101292806'
p122
sg4
L1449713819575L
sS'recordCount'
p123
g6
sS'EventType'
p124
S'TYPE_WINDOW_STATE_CHANGED'
p125
sS'PackageName'
p126
S'com.example.myfristandroid'
p127
sS'OutBounds'
p128
S'Rect(0, 0 - 720, 1184)'
p129
sS'Action'
p130
S'[ ClassName: com.example.myfristandroid.MainActivity; Text: [SE-1800\xe7\xa7\xbb\xe5\x8a\xa8APP]; ContentDescription: null; ItemCount: -1; CurrentItemIndex: -1; IsEnabled: true; IsPassword: false; IsChecked: false; IsFullScreen: true; Scrollable: false; BeforeText: null; FromIndex: -1; ToIndex: -1; ScrollX: -1; ScrollY: -1; MaxScrollX: -1; MaxScrollY: -1; AddedCount: -1; RemovedCount: -1; ParcelableData: null ]'
p131
sS'MovementGranularity'
p132
g6
sa(dp133
S'EventTime'
p134
S'101295785'
p135
sg4
L1449713822489L
sS'recordCount'
p136
S'1'
p137
sS'EventType'
p138
S'TYPE_VIEW_CLICKED'
p139
sS'PackageName'
p140
S'com.example.myfristandroid'
p141
sS'OutBounds'
p142
S'Rect(6, 146 - 240, 380)'
p143
sS'Action'
p144
S'[ ClassName: android.widget.RelativeLayout; Text: [\xe4\xb8\x80\xe6\xac\xa1\xe6\x8e\xa5\xe7\xba\xbf\xe5\x9b\xbe]; ContentDescription: null; ItemCount: -1; CurrentItemIndex: -1; IsEnabled: true; IsPassword: false; IsChecked: false; IsFullScreen: false; Scrollable: false; BeforeText: null; FromIndex: -1; ToIndex: -1; ScrollX: -1; ScrollY: -1; MaxScrollX: -1; MaxScrollY: -1; AddedCount: -1; RemovedCount: -1; ParcelableData: null ]'
p145
sS'MovementGranularity'
p146
g6
sa(dp147
S'EventTime'
p148
S'101296177'
p149
sg4
L1449713822915L
sS'recordCount'
p150
g6
sS'EventType'
p151
S'TYPE_WINDOW_STATE_CHANGED'
p152
sS'PackageName'
p153
S'com.example.myfristandroid'
p154
sS'OutBounds'
p155
S'Rect(0, 0 - 720, 1184)'
p156
sS'Action'
p157
S'[ ClassName: com.example.myfristandroid.graphWebShow; Text: [SE-1800\xe7\xa7\xbb\xe5\x8a\xa8APP]; ContentDescription: null; ItemCount: -1; CurrentItemIndex: -1; IsEnabled: true; IsPassword: false; IsChecked: false; IsFullScreen: true; Scrollable: false; BeforeText: null; FromIndex: -1; ToIndex: -1; ScrollX: -1; ScrollY: -1; MaxScrollX: -1; MaxScrollY: -1; AddedCount: -1; RemovedCount: -1; ParcelableData: null ]'
p158
sS'MovementGranularity'
p159
g6
sa(dp160
S'EventTime'
p161
S'101296313'
p162
sg4
L1449713823021L
sS'recordCount'
p163
g6
sS'EventType'
p164
S'TYPE_WINDOW_CONTENT_CHANGED'
p165
sS'PackageName'
p166
S'com.example.myfristandroid'
p167
sS'OutBounds'
p168
S'Rect(0, 140 - 720, 1184)'
p169
sS'Action'
p170
S'[ ClassName: com.android.org.chromium.content.browser.ContentViewCore; Text: []; ContentDescription: \xe7\xbd\x91\xe9\xa1\xb5\xe8\xa7\x86\xe5\x9b\xbe; ItemCount: -1; CurrentItemIndex: -1; IsEnabled: true; IsPassword: false; IsChecked: false; IsFullScreen: false; Scrollable: false; BeforeText: null; FromIndex: -1; ToIndex: -1; ScrollX: 0; ScrollY: 0; MaxScrollX: 0; MaxScrollY: 0; AddedCount: -1; RemovedCount: -1; ParcelableData: null ]'
p171
sS'MovementGranularity'
p172
g6
sa(dp173
S'EventTime'
p174
S'101296547'
p175
sg4
L1449713823253L
sS'recordCount'
p176
g6
sS'EventType'
p177
S'TYPE_WINDOW_CONTENT_CHANGED'
p178
sS'PackageName'
p179
S'com.example.myfristandroid'
p180
sS'OutBounds'
p181
S'Rect(0, 140 - 720, 1184)'
p182
sS'Action'
p183
S'[ ClassName: com.android.org.chromium.content.browser.ContentViewCore; Text: []; ContentDescription: \xe7\xbd\x91\xe9\xa1\xb5\xe8\xa7\x86\xe5\x9b\xbe; ItemCount: -1; CurrentItemIndex: -1; IsEnabled: true; IsPassword: false; IsChecked: false; IsFullScreen: false; Scrollable: false; BeforeText: null; FromIndex: -1; ToIndex: -1; ScrollX: 0; ScrollY: 0; MaxScrollX: 0; MaxScrollY: 0; AddedCount: -1; RemovedCount: -1; ParcelableData: null ]'
p184
sS'MovementGranularity'
p185
g6
sa(dp186
S'EventTime'
p187
S'101317950'
p188
sg4
L1449713844682L
sS'recordCount'
p189
g6
sS'EventType'
p190
S'TYPE_WINDOW_STATE_CHANGED'
p191
sS'PackageName'
p192
S'com.example.myfristandroid'
p193
sS'OutBounds'
p194
S'Rect(0, 0 - 720, 1184)'
p195
sS'Action'
p196
S'[ ClassName: com.example.myfristandroid.MainActivity; Text: [SE-1800\xe7\xa7\xbb\xe5\x8a\xa8APP]; ContentDescription: null; ItemCount: -1; CurrentItemIndex: -1; IsEnabled: true; IsPassword: false; IsChecked: false; IsFullScreen: true; Scrollable: false; BeforeText: null; FromIndex: -1; ToIndex: -1; ScrollX: -1; ScrollY: -1; MaxScrollX: -1; MaxScrollY: -1; AddedCount: -1; RemovedCount: -1; ParcelableData: null ]'
p197
sS'MovementGranularity'
p198
g6
sa(dp199
S'EventTime'
p200
S'101319199'
p201
sg4
L1449713845904L
sS'recordCount'
p202
g137
sS'EventType'
p203
S'TYPE_VIEW_CLICKED'
p204
sS'PackageName'
p205
S'com.example.myfristandroid'
p206
sS'OutBounds'
p207
S'Rect(6, 146 - 240, 380)'
p208
sS'Action'
p209
S'[ ClassName: android.widget.RelativeLayout; Text: [\xe4\xb8\x80\xe6\xac\xa1\xe6\x8e\xa5\xe7\xba\xbf\xe5\x9b\xbe]; ContentDescription: null; ItemCount: -1; CurrentItemIndex: -1; IsEnabled: true; IsPassword: false; IsChecked: false; IsFullScreen: false; Scrollable: false; BeforeText: null; FromIndex: -1; ToIndex: -1; ScrollX: -1; ScrollY: -1; MaxScrollX: -1; MaxScrollY: -1; AddedCount: -1; RemovedCount: -1; ParcelableData: null ]'
p210
sS'MovementGranularity'
p211
g6
sa(dp212
S'EventTime'
p213
S'101319516'
p214
sg4
L1449713846225L
sS'recordCount'
p215
g6
sS'EventType'
p216
S'TYPE_WINDOW_STATE_CHANGED'
p217
sS'PackageName'
p218
S'com.example.myfristandroid'
p219
sS'OutBounds'
p220
S'Rect(0, 0 - 720, 1184)'
p221
sS'Action'
p222
S'[ ClassName: com.example.myfristandroid.graphWebShow; Text: [SE-1800\xe7\xa7\xbb\xe5\x8a\xa8APP]; ContentDescription: null; ItemCount: -1; CurrentItemIndex: -1; IsEnabled: true; IsPassword: false; IsChecked: false; IsFullScreen: true; Scrollable: false; BeforeText: null; FromIndex: -1; ToIndex: -1; ScrollX: -1; ScrollY: -1; MaxScrollX: -1; MaxScrollY: -1; AddedCount: -1; RemovedCount: -1; ParcelableData: null ]'
p223
sS'MovementGranularity'
p224
g6
sa(dp225
S'EventTime'
p226
S'101319575'
p227
sg4
L1449713846285L
sS'recordCount'
p228
g6
sS'EventType'
p229
S'TYPE_WINDOW_CONTENT_CHANGED'
p230
sS'PackageName'
p231
S'com.example.myfristandroid'
p232
sS'OutBounds'
p233
S'Rect(0, 140 - 720, 1184)'
p234
sS'Action'
p235
S'[ ClassName: com.android.org.chromium.content.browser.ContentViewCore; Text: []; ContentDescription: \xe7\xbd\x91\xe9\xa1\xb5\xe8\xa7\x86\xe5\x9b\xbe; ItemCount: -1; CurrentItemIndex: -1; IsEnabled: true; IsPassword: false; IsChecked: false; IsFullScreen: false; Scrollable: false; BeforeText: null; FromIndex: -1; ToIndex: -1; ScrollX: 0; ScrollY: 0; MaxScrollX: 0; MaxScrollY: 0; AddedCount: -1; RemovedCount: -1; ParcelableData: null ]'
p236
sS'MovementGranularity'
p237
g6
sa(dp238
S'EventTime'
p239
S'101320840'
p240
sg4
L1449713847586L
sS'recordCount'
p241
g6
sS'EventType'
p242
S'TYPE_WINDOW_STATE_CHANGED'
p243
sS'PackageName'
p244
S'com.example.myfristandroid'
p245
sS'OutBounds'
p246
S'Rect(0, 0 - 720, 1184)'
p247
sS'Action'
p248
S'[ ClassName: com.example.myfristandroid.MainActivity; Text: [SE-1800\xe7\xa7\xbb\xe5\x8a\xa8APP]; ContentDescription: null; ItemCount: -1; CurrentItemIndex: -1; IsEnabled: true; IsPassword: false; IsChecked: false; IsFullScreen: true; Scrollable: false; BeforeText: null; FromIndex: -1; ToIndex: -1; ScrollX: -1; ScrollY: -1; MaxScrollX: -1; MaxScrollY: -1; AddedCount: -1; RemovedCount: -1; ParcelableData: null ]'
p249
sS'MovementGranularity'
p250
g6
sa(dp251
S'EventTime'
p252
S'101324897'
p253
sg4
L1449713851602L
sS'recordCount'
p254
g137
sS'EventType'
p255
S'TYPE_VIEW_CLICKED'
p256
sS'PackageName'
p257
S'com.example.myfristandroid'
p258
sS'OutBounds'
p259
S'Rect(242, 146 - 476, 380)'
p260
sS'Action'
p261
S'[ ClassName: android.widget.RelativeLayout; Text: [\xe6\x9b\xb2\xe7\xba\xbf\xe5\x9b\xbe]; ContentDescription: null; ItemCount: -1; CurrentItemIndex: -1; IsEnabled: true; IsPassword: false; IsChecked: false; IsFullScreen: false; Scrollable: false; BeforeText: null; FromIndex: -1; ToIndex: -1; ScrollX: -1; ScrollY: -1; MaxScrollX: -1; MaxScrollY: -1; AddedCount: -1; RemovedCount: -1; ParcelableData: null ]'
p262
sS'MovementGranularity'
p263
g6
sa(dp264
S'EventTime'
p265
S'101325227'
p266
sg4
L1449713851938L
sS'recordCount'
p267
g6
sS'EventType'
p268
S'TYPE_WINDOW_STATE_CHANGED'
p269
sS'PackageName'
p270
S'com.example.myfristandroid'
p271
sS'OutBounds'
p272
S'Rect(0, 0 - 720, 1184)'
p273
sS'Action'
p274
S'[ ClassName: com.example.myfristandroid.graphWebShow; Text: [SE-1800\xe7\xa7\xbb\xe5\x8a\xa8APP]; ContentDescription: null; ItemCount: -1; CurrentItemIndex: -1; IsEnabled: true; IsPassword: false; IsChecked: false; IsFullScreen: true; Scrollable: false; BeforeText: null; FromIndex: -1; ToIndex: -1; ScrollX: -1; ScrollY: -1; MaxScrollX: -1; MaxScrollY: -1; AddedCount: -1; RemovedCount: -1; ParcelableData: null ]'
p275
sS'MovementGranularity'
p276
g6
sa(dp277
S'EventTime'
p278
S'101325308'
p279
sg4
L1449713852015L
sS'recordCount'
p280
g6
sS'EventType'
p281
S'TYPE_WINDOW_CONTENT_CHANGED'
p282
sS'PackageName'
p283
S'com.example.myfristandroid'
p284
sS'OutBounds'
p285
S'Rect(0, 140 - 720, 1184)'
p286
sS'Action'
p287
S'[ ClassName: com.android.org.chromium.content.browser.ContentViewCore; Text: []; ContentDescription: \xe7\xbd\x91\xe9\xa1\xb5\xe8\xa7\x86\xe5\x9b\xbe; ItemCount: -1; CurrentItemIndex: -1; IsEnabled: true; IsPassword: false; IsChecked: false; IsFullScreen: false; Scrollable: false; BeforeText: null; FromIndex: -1; ToIndex: -1; ScrollX: 0; ScrollY: 0; MaxScrollX: 0; MaxScrollY: 0; AddedCount: -1; RemovedCount: -1; ParcelableData: null ]'
p288
sS'MovementGranularity'
p289
g6
sa(dp290
S'EventTime'
p291
S'101330251'
p292
sg4
L1449713856960L
sS'recordCount'
p293
g6
sS'EventType'
p294
S'TYPE_VIEW_SCROLLED'
p295
sS'PackageName'
p296
S'com.example.myfristandroid'
p297
sS'OutBounds'
p298
S'Rect(0, 140 - 720, 1184)'
p299
sS'Action'
p300
S'[ ClassName: com.android.org.chromium.content.browser.ContentViewCore; Text: []; ContentDescription: \xe7\xbd\x91\xe9\xa1\xb5\xe8\xa7\x86\xe5\x9b\xbe; ItemCount: -1; CurrentItemIndex: -1; IsEnabled: true; IsPassword: false; IsChecked: false; IsFullScreen: false; Scrollable: true; BeforeText: null; FromIndex: -1; ToIndex: -1; ScrollX: 90; ScrollY: 130; MaxScrollX: 180; MaxScrollY: 261; AddedCount: -1; RemovedCount: -1; ParcelableData: null ]'
p301
sS'MovementGranularity'
p302
g6
sa(dp303
S'EventTime'
p304
S'101331324'
p305
sg4
L1449713858034L
sS'recordCount'
p306
g6
sS'EventType'
p307
S'TYPE_VIEW_SCROLLED'
p308
sS'PackageName'
p309
S'com.example.myfristandroid'
p310
sS'OutBounds'
p311
S'Rect(0, 140 - 720, 1184)'
p312
sS'Action'
p313
S'[ ClassName: com.android.org.chromium.content.browser.ContentViewCore; Text: []; ContentDescription: \xe7\xbd\x91\xe9\xa1\xb5\xe8\xa7\x86\xe5\x9b\xbe; ItemCount: -1; CurrentItemIndex: -1; IsEnabled: true; IsPassword: false; IsChecked: false; IsFullScreen: false; Scrollable: false; BeforeText: null; FromIndex: -1; ToIndex: -1; ScrollX: 0; ScrollY: 0; MaxScrollX: 0; MaxScrollY: 0; AddedCount: -1; RemovedCount: -1; ParcelableData: null ]'
p314
sS'MovementGranularity'
p315
g6
sa(dp316
S'EventTime'
p317
S'101343734'
p318
sg4
L1449713870442L
sS'recordCount'
p319
g6
sS'EventType'
p320
S'TYPE_WINDOW_CONTENT_CHANGED'
p321
sS'PackageName'
p322
S'com.example.myfristandroid'
p323
sS'OutBounds'
p324
S'Rect(0, 0 - 1196, 720)'
p325
sS'Action'
p326
S'[ ClassName: android.widget.FrameLayout; Text: []; ContentDescription: null; ItemCount: -1; CurrentItemIndex: -1; IsEnabled: true; IsPassword: false; IsChecked: false; IsFullScreen: false; Scrollable: false; BeforeText: null; FromIndex: -1; ToIndex: -1; ScrollX: -1; ScrollY: -1; MaxScrollX: -1; MaxScrollY: -1; AddedCount: -1; RemovedCount: -1; ParcelableData: null ]'
p327
sS'MovementGranularity'
p328
g6
sa(dp329
S'EventTime'
p330
S'101343893'
p331
sg4
L1449713870599L
sS'recordCount'
p332
g6
sS'EventType'
p333
S'TYPE_WINDOW_CONTENT_CHANGED'
p334
sS'PackageName'
p335
S'com.example.myfristandroid'
p336
sS'OutBounds'
p337
S'Rect(0, 50 - 1196, 720)'
p338
sS'Action'
p339
S'[ ClassName: com.android.org.chromium.content.browser.ContentViewCore; Text: []; ContentDescription: \xe7\xbd\x91\xe9\xa1\xb5\xe8\xa7\x86\xe5\x9b\xbe; ItemCount: -1; CurrentItemIndex: -1; IsEnabled: true; IsPassword: false; IsChecked: false; IsFullScreen: false; Scrollable: true; BeforeText: null; FromIndex: -1; ToIndex: -1; ScrollX: 0; ScrollY: 0; MaxScrollX: 476; MaxScrollY: 0; AddedCount: -1; RemovedCount: -1; ParcelableData: null ]'
p340
sS'MovementGranularity'
p341
g6
sa(dp342
S'EventTime'
p343
S'101344057'
p344
sg4
L1449713870764L
sS'recordCount'
p345
g6
sS'EventType'
p346
S'TYPE_WINDOW_CONTENT_CHANGED'
p347
sS'PackageName'
p348
S'com.example.myfristandroid'
p349
sS'OutBounds'
p350
S'Rect(0, 50 - 1196, 720)'
p351
sS'Action'
p352
S'[ ClassName: com.android.org.chromium.content.browser.ContentViewCore; Text: []; ContentDescription: \xe7\xbd\x91\xe9\xa1\xb5\xe8\xa7\x86\xe5\x9b\xbe; ItemCount: -1; CurrentItemIndex: -1; IsEnabled: true; IsPassword: false; IsChecked: false; IsFullScreen: false; Scrollable: true; BeforeText: null; FromIndex: -1; ToIndex: -1; ScrollX: 0; ScrollY: 0; MaxScrollX: 476; MaxScrollY: 0; AddedCount: -1; RemovedCount: -1; ParcelableData: null ]'
p353
sS'MovementGranularity'
p354
g6
sa(dp355
S'EventTime'
p356
S'101346597'
p357
sg4
L1449713873306L
sS'recordCount'
p358
g6
sS'EventType'
p359
S'TYPE_WINDOW_CONTENT_CHANGED'
p360
sS'PackageName'
p361
S'com.example.myfristandroid'
p362
sS'OutBounds'
p363
S'Rect(1114, 690 - 1180, 712)'
p364
sS'Action'
p365
S'[ ClassName: android.view.View; Text: []; ContentDescription: null; ItemCount: 0; CurrentItemIndex: 0; IsEnabled: true; IsPassword: false; IsChecked: false; IsFullScreen: false; Scrollable: false; BeforeText: null; FromIndex: -1; ToIndex: -1; ScrollX: 0; ScrollY: 0; MaxScrollX: 0; MaxScrollY: 0; AddedCount: -1; RemovedCount: -1; ParcelableData: null ]'
p366
sS'MovementGranularity'
p367
g6
sa(dp368
S'EventTime'
p369
S'101349603'
p370
sg4
L1449713876310L
sS'recordCount'
p371
g6
sS'EventType'
p372
S'TYPE_WINDOW_CONTENT_CHANGED'
p373
sS'PackageName'
p374
S'com.example.myfristandroid'
p375
sS'OutBounds'
p376
S'Rect(1114, 690 - 1180, 712)'
p377
sS'Action'
p378
S'[ ClassName: android.view.View; Text: []; ContentDescription: null; ItemCount: 0; CurrentItemIndex: 0; IsEnabled: true; IsPassword: false; IsChecked: false; IsFullScreen: false; Scrollable: false; BeforeText: null; FromIndex: -1; ToIndex: -1; ScrollX: 0; ScrollY: 0; MaxScrollX: 0; MaxScrollY: 0; AddedCount: -1; RemovedCount: -1; ParcelableData: null ]'
p379
sS'MovementGranularity'
p380
g6
sa(dp381
S'EventTime'
p382
S'101352612'
p383
sg4
L1449713879318L
sS'recordCount'
p384
g6
sS'EventType'
p385
S'TYPE_WINDOW_CONTENT_CHANGED'
p386
sS'PackageName'
p387
S'com.example.myfristandroid'
p388
sS'OutBounds'
p389
S'Rect(1114, 690 - 1180, 712)'
p390
sS'Action'
p391
S'[ ClassName: android.view.View; Text: []; ContentDescription: null; ItemCount: 0; CurrentItemIndex: 0; IsEnabled: true; IsPassword: false; IsChecked: false; IsFullScreen: false; Scrollable: false; BeforeText: null; FromIndex: -1; ToIndex: -1; ScrollX: 0; ScrollY: 0; MaxScrollX: 0; MaxScrollY: 0; AddedCount: -1; RemovedCount: -1; ParcelableData: null ]'
p392
sS'MovementGranularity'
p393
g6
sa(dp394
S'EventTime'
p395
S'101355601'
p396
sg4
L1449713882307L
sS'recordCount'
p397
g6
sS'EventType'
p398
S'TYPE_WINDOW_CONTENT_CHANGED'
p399
sS'PackageName'
p400
S'com.example.myfristandroid'
p401
sS'OutBounds'
p402
S'Rect(1114, 690 - 1180, 712)'
p403
sS'Action'
p404
S'[ ClassName: android.view.View; Text: []; ContentDescription: null; ItemCount: 0; CurrentItemIndex: 0; IsEnabled: true; IsPassword: false; IsChecked: false; IsFullScreen: false; Scrollable: false; BeforeText: null; FromIndex: -1; ToIndex: -1; ScrollX: 0; ScrollY: 0; MaxScrollX: 0; MaxScrollY: 0; AddedCount: -1; RemovedCount: -1; ParcelableData: null ]'
p405
sS'MovementGranularity'
p406
g6
sa(dp407
S'EventTime'
p408
S'101358603'
p409
sg4
L1449713885310L
sS'recordCount'
p410
g6
sS'EventType'
p411
S'TYPE_WINDOW_CONTENT_CHANGED'
p412
sS'PackageName'
p413
S'com.example.myfristandroid'
p414
sS'OutBounds'
p415
S'Rect(1114, 690 - 1180, 712)'
p416
sS'Action'
p417
S'[ ClassName: android.view.View; Text: []; ContentDescription: null; ItemCount: 0; CurrentItemIndex: 0; IsEnabled: true; IsPassword: false; IsChecked: false; IsFullScreen: false; Scrollable: false; BeforeText: null; FromIndex: -1; ToIndex: -1; ScrollX: 0; ScrollY: 0; MaxScrollX: 0; MaxScrollY: 0; AddedCount: -1; RemovedCount: -1; ParcelableData: null ]'
p418
sS'MovementGranularity'
p419
g6
sa(dp420
S'EventTime'
p421
S'101361607'
p422
sg4
L1449713888314L
sS'recordCount'
p423
g6
sS'EventType'
p424
S'TYPE_WINDOW_CONTENT_CHANGED'
p425
sS'PackageName'
p426
S'com.example.myfristandroid'
p427
sS'OutBounds'
p428
S'Rect(1114, 690 - 1180, 712)'
p429
sS'Action'
p430
S'[ ClassName: android.view.View; Text: []; ContentDescription: null; ItemCount: 0; CurrentItemIndex: 0; IsEnabled: true; IsPassword: false; IsChecked: false; IsFullScreen: false; Scrollable: false; BeforeText: null; FromIndex: -1; ToIndex: -1; ScrollX: 0; ScrollY: 0; MaxScrollX: 0; MaxScrollY: 0; AddedCount: -1; RemovedCount: -1; ParcelableData: null ]'
p431
sS'MovementGranularity'
p432
g6
sa(dp433
S'EventTime'
p434
S'101364607'
p435
sg4
L1449713891314L
sS'recordCount'
p436
g6
sS'EventType'
p437
S'TYPE_WINDOW_CONTENT_CHANGED'
p438
sS'PackageName'
p439
S'com.example.myfristandroid'
p440
sS'OutBounds'
p441
S'Rect(1114, 690 - 1180, 712)'
p442
sS'Action'
p443
S'[ ClassName: android.view.View; Text: []; ContentDescription: null; ItemCount: 0; CurrentItemIndex: 0; IsEnabled: true; IsPassword: false; IsChecked: false; IsFullScreen: false; Scrollable: false; BeforeText: null; FromIndex: -1; ToIndex: -1; ScrollX: 0; ScrollY: 0; MaxScrollX: 0; MaxScrollY: 0; AddedCount: -1; RemovedCount: -1; ParcelableData: null ]'
p444
sS'MovementGranularity'
p445
g6
sa(dp446
S'EventTime'
p447
S'101367613'
p448
sg4
L1449713894321L
sS'recordCount'
p449
g6
sS'EventType'
p450
S'TYPE_WINDOW_CONTENT_CHANGED'
p451
sS'PackageName'
p452
S'com.example.myfristandroid'
p453
sS'OutBounds'
p454
S'Rect(1114, 690 - 1180, 712)'
p455
sS'Action'
p456
S'[ ClassName: android.view.View; Text: []; ContentDescription: null; ItemCount: 0; CurrentItemIndex: 0; IsEnabled: true; IsPassword: false; IsChecked: false; IsFullScreen: false; Scrollable: false; BeforeText: null; FromIndex: -1; ToIndex: -1; ScrollX: 0; ScrollY: 0; MaxScrollX: 0; MaxScrollY: 0; AddedCount: -1; RemovedCount: -1; ParcelableData: null ]'
p457
sS'MovementGranularity'
p458
g6
sa(dp459
S'EventTime'
p460
S'101369141'
p461
sg4
L1449713895849L
sS'recordCount'
p462
g6
sS'EventType'
p463
S'TYPE_WINDOW_CONTENT_CHANGED'
p464
sS'PackageName'
p465
S'com.example.myfristandroid'
p466
sS'OutBounds'
p467
S'Rect(0, 50 - 1196, 720)'
p468
sS'Action'
p469
S'[ ClassName: android.view.View; Text: []; ContentDescription: null; ItemCount: 0; CurrentItemIndex: 0; IsEnabled: true; IsPassword: false; IsChecked: false; IsFullScreen: false; Scrollable: true; BeforeText: null; FromIndex: -1; ToIndex: -1; ScrollX: 0; ScrollY: 0; MaxScrollX: 0; MaxScrollY: 0; AddedCount: -1; RemovedCount: -1; ParcelableData: null ]'
p470
sS'MovementGranularity'
p471
g6
sa(dp472
S'EventTime'
p473
S'101369142'
p474
sg4
L1449713895864L
sS'recordCount'
p475
g6
sS'EventType'
p476
S'TYPE_VIEW_TEXT_SELECTION_CHANGED'
p477
sS'PackageName'
p478
S'com.example.myfristandroid'
p479
sS'OutBounds'
p480
S'Rect(0, 50 - 1196, 720)'
p481
sS'Action'
p482
S'[ ClassName: android.view.View; Text: [\xe7\x94\xbb\xe9\x9d\xa2\xe6\xb5\x8f\xe8\xa7\x88]; ContentDescription: null; ItemCount: 0; CurrentItemIndex: 0; IsEnabled: true; IsPassword: false; IsChecked: false; IsFullScreen: false; Scrollable: true; BeforeText: null; FromIndex: 0; ToIndex: -1; ScrollX: 0; ScrollY: 0; MaxScrollX: 0; MaxScrollY: 0; AddedCount: 0; RemovedCount: -1; ParcelableData: null ]'
p483
sS'MovementGranularity'
p484
g6
sa(dp485
S'EventTime'
p486
S'101369824'
p487
sg4
L1449713896529L
sS'recordCount'
p488
g6
sS'EventType'
p489
S'TYPE_WINDOW_CONTENT_CHANGED'
p490
sS'PackageName'
p491
S'com.example.myfristandroid'
p492
sS'OutBounds'
p493
S'Rect(0, 50 - 1196, 720)'
p494
sS'Action'
p495
S'[ ClassName: android.view.View; Text: []; ContentDescription: null; ItemCount: 0; CurrentItemIndex: 0; IsEnabled: true; IsPassword: false; IsChecked: false; IsFullScreen: false; Scrollable: true; BeforeText: null; FromIndex: -1; ToIndex: -1; ScrollX: 0; ScrollY: 0; MaxScrollX: 0; MaxScrollY: 0; AddedCount: -1; RemovedCount: -1; ParcelableData: null ]'
p496
sS'MovementGranularity'
p497
g6
sa(dp498
S'EventTime'
p499
S'101369984'
p500
sg4
L1449713896691L
sS'recordCount'
p501
g6
sS'EventType'
p502
S'TYPE_WINDOW_CONTENT_CHANGED'
p503
sS'PackageName'
p504
S'com.example.myfristandroid'
p505
sS'OutBounds'
p506
S'Rect(0, 50 - 1196, 720)'
p507
sS'Action'
p508
S'[ ClassName: android.view.View; Text: []; ContentDescription: null; ItemCount: 0; CurrentItemIndex: 0; IsEnabled: true; IsPassword: false; IsChecked: false; IsFullScreen: false; Scrollable: true; BeforeText: null; FromIndex: -1; ToIndex: -1; ScrollX: 0; ScrollY: 0; MaxScrollX: 0; MaxScrollY: 0; AddedCount: -1; RemovedCount: -1; ParcelableData: null ]'
p509
sS'MovementGranularity'
p510
g6
sa(dp511
S'EventTime'
p512
S'101370171'
p513
sg4
L1449713896878L
sS'recordCount'
p514
g6
sS'EventType'
p515
S'TYPE_WINDOW_CONTENT_CHANGED'
p516
sS'PackageName'
p517
S'com.example.myfristandroid'
p518
sS'OutBounds'
p519
S'Rect(0, 50 - 1196, 720)'
p520
sS'Action'
p521
S'[ ClassName: android.view.View; Text: []; ContentDescription: null; ItemCount: 0; CurrentItemIndex: 0; IsEnabled: true; IsPassword: false; IsChecked: false; IsFullScreen: false; Scrollable: true; BeforeText: null; FromIndex: -1; ToIndex: -1; ScrollX: 0; ScrollY: 0; MaxScrollX: 0; MaxScrollY: 0; AddedCount: -1; RemovedCount: -1; ParcelableData: null ]'
p522
sS'MovementGranularity'
p523
g6
sa(dp524
S'EventTime'
p525
S'101370603'
p526
sg4
L1449713897310L
sS'recordCount'
p527
g6
sS'EventType'
p528
S'TYPE_WINDOW_CONTENT_CHANGED'
p529
sS'PackageName'
p530
S'com.example.myfristandroid'
p531
sS'OutBounds'
p532
S'Rect(1114, 690 - 1180, 712)'
p533
sS'Action'
p534
S'[ ClassName: android.view.View; Text: []; ContentDescription: null; ItemCount: 0; CurrentItemIndex: 0; IsEnabled: true; IsPassword: false; IsChecked: false; IsFullScreen: false; Scrollable: false; BeforeText: null; FromIndex: -1; ToIndex: -1; ScrollX: 0; ScrollY: 0; MaxScrollX: 0; MaxScrollY: 0; AddedCount: -1; RemovedCount: -1; ParcelableData: null ]'
p535
sS'MovementGranularity'
p536
g6
sa(dp537
S'EventTime'
p538
S'101371702'
p539
sg4
L1449713898430L
sS'recordCount'
p540
g6
sS'EventType'
p541
S'TYPE_WINDOW_STATE_CHANGED'
p542
sS'PackageName'
p543
S'com.example.myfristandroid'
p544
sS'OutBounds'
p545
S'Rect(498, 285 - 698, 485)'
p546
sS'Action'
p547
S'[ ClassName: com.example.myfristandroid.CustomProgressDialog; Text: []; ContentDescription: null; ItemCount: -1; CurrentItemIndex: -1; IsEnabled: true; IsPassword: false; IsChecked: false; IsFullScreen: false; Scrollable: false; BeforeText: null; FromIndex: -1; ToIndex: -1; ScrollX: -1; ScrollY: -1; MaxScrollX: -1; MaxScrollY: -1; AddedCount: -1; RemovedCount: -1; ParcelableData: null ]'
p548
sS'MovementGranularity'
p549
g6
sa(dp550
S'EventTime'
p551
S'101373105'
p552
sg4
L1449713899818L
sS'recordCount'
p553
g6
sS'EventType'
p554
S'TYPE_WINDOW_STATE_CHANGED'
p555
sS'PackageName'
p556
S'com.example.myfristandroid'
p557
sS'OutBounds'
p558
S'Rect(0, 0 - 1196, 720)'
p559
sS'Action'
p560
S'[ ClassName: com.example.myfristandroid.graphWebShow; Text: [SE-1800\xe7\xa7\xbb\xe5\x8a\xa8APP]; ContentDescription: null; ItemCount: -1; CurrentItemIndex: -1; IsEnabled: true; IsPassword: false; IsChecked: false; IsFullScreen: true; Scrollable: false; BeforeText: null; FromIndex: -1; ToIndex: -1; ScrollX: -1; ScrollY: -1; MaxScrollX: -1; MaxScrollY: -1; AddedCount: -1; RemovedCount: -1; ParcelableData: null ]'
p561
sS'MovementGranularity'
p562
g6
sa(dp563
S'EventTime'
p564
S'101373392'
p565
sg4
L1449713900098L
sS'recordCount'
p566
g6
sS'EventType'
p567
S'TYPE_WINDOW_CONTENT_CHANGED'
p568
sS'PackageName'
p569
S'com.example.myfristandroid'
p570
sS'OutBounds'
p571
S'Rect(0, 50 - 1196, 720)'
p572
sS'Action'
p573
S'[ ClassName: com.android.org.chromium.content.browser.ContentViewCore; Text: []; ContentDescription: \xe7\xbd\x91\xe9\xa1\xb5\xe8\xa7\x86\xe5\x9b\xbe; ItemCount: -1; CurrentItemIndex: -1; IsEnabled: true; IsPassword: false; IsChecked: false; IsFullScreen: false; Scrollable: false; BeforeText: null; FromIndex: -1; ToIndex: -1; ScrollX: 0; ScrollY: 0; MaxScrollX: 0; MaxScrollY: 0; AddedCount: -1; RemovedCount: -1; ParcelableData: null ]'
p574
sS'MovementGranularity'
p575
g6
sa(dp576
S'EventTime'
p577
S'101373647'
p578
sg4
L1449713900368L
sS'recordCount'
p579
g6
sS'EventType'
p580
S'TYPE_WINDOW_CONTENT_CHANGED'
p581
sS'PackageName'
p582
S'com.example.myfristandroid'
p583
sS'OutBounds'
p584
S'Rect(0, 50 - 1196, 720)'
p585
sS'Action'
p586
S'[ ClassName: android.view.View; Text: []; ContentDescription: null; ItemCount: 0; CurrentItemIndex: 0; IsEnabled: true; IsPassword: false; IsChecked: false; IsFullScreen: false; Scrollable: true; BeforeText: null; FromIndex: -1; ToIndex: -1; ScrollX: 0; ScrollY: 0; MaxScrollX: 0; MaxScrollY: 0; AddedCount: -1; RemovedCount: -1; ParcelableData: null ]'
p587
sS'MovementGranularity'
p588
g6
sa(dp589
S'EventTime'
p590
S'101374047'
p591
sg4
L1449713900755L
sS'recordCount'
p592
g6
sS'EventType'
p593
S'TYPE_WINDOW_CONTENT_CHANGED'
p594
sS'PackageName'
p595
S'com.example.myfristandroid'
p596
sS'OutBounds'
p597
S'Rect(0, 50 - 1196, 720)'
p598
sS'Action'
p599
S'[ ClassName: android.view.View; Text: []; ContentDescription: null; ItemCount: 0; CurrentItemIndex: 0; IsEnabled: true; IsPassword: false; IsChecked: false; IsFullScreen: false; Scrollable: true; BeforeText: null; FromIndex: -1; ToIndex: -1; ScrollX: 0; ScrollY: 0; MaxScrollX: 0; MaxScrollY: 0; AddedCount: -1; RemovedCount: -1; ParcelableData: null ]'
p600
sS'MovementGranularity'
p601
g6
sa(dp602
S'EventTime'
p603
S'101374557'
p604
sg4
L1449713901277L
sS'recordCount'
p605
g6
sS'EventType'
p606
S'TYPE_WINDOW_CONTENT_CHANGED'
p607
sS'PackageName'
p608
S'com.example.myfristandroid'
p609
sS'OutBounds'
p610
S'Rect(0, 50 - 1196, 720)'
p611
sS'Action'
p612
S'[ ClassName: android.view.View; Text: []; ContentDescription: null; ItemCount: 0; CurrentItemIndex: 0; IsEnabled: true; IsPassword: false; IsChecked: false; IsFullScreen: false; Scrollable: true; BeforeText: null; FromIndex: -1; ToIndex: -1; ScrollX: 0; ScrollY: 0; MaxScrollX: 0; MaxScrollY: 0; AddedCount: -1; RemovedCount: -1; ParcelableData: null ]'
p613
sS'MovementGranularity'
p614
g6
sa(dp615
S'EventTime'
p616
S'101375038'
p617
sg4
L1449713901745L
sS'recordCount'
p618
g6
sS'EventType'
p619
S'TYPE_WINDOW_CONTENT_CHANGED'
p620
sS'PackageName'
p621
S'com.example.myfristandroid'
p622
sS'OutBounds'
p623
S'Rect(0, 50 - 1196, 720)'
p624
sS'Action'
p625
S'[ ClassName: android.view.View; Text: []; ContentDescription: null; ItemCount: 0; CurrentItemIndex: 0; IsEnabled: true; IsPassword: false; IsChecked: false; IsFullScreen: false; Scrollable: true; BeforeText: null; FromIndex: -1; ToIndex: -1; ScrollX: 0; ScrollY: 0; MaxScrollX: 0; MaxScrollY: 0; AddedCount: -1; RemovedCount: -1; ParcelableData: null ]'
p626
sS'MovementGranularity'
p627
g6
sa(dp628
S'EventTime'
p629
S'101375547'
p630
sg4
L1449713902253L
sS'recordCount'
p631
g6
sS'EventType'
p632
S'TYPE_WINDOW_CONTENT_CHANGED'
p633
sS'PackageName'
p634
S'com.example.myfristandroid'
p635
sS'OutBounds'
p636
S'Rect(0, 50 - 1196, 720)'
p637
sS'Action'
p638
S'[ ClassName: android.view.View; Text: []; ContentDescription: null; ItemCount: 0; CurrentItemIndex: 0; IsEnabled: true; IsPassword: false; IsChecked: false; IsFullScreen: false; Scrollable: true; BeforeText: null; FromIndex: -1; ToIndex: -1; ScrollX: 0; ScrollY: 0; MaxScrollX: 0; MaxScrollY: 0; AddedCount: -1; RemovedCount: -1; ParcelableData: null ]'
p639
sS'MovementGranularity'
p640
g6
sa(dp641
S'EventTime'
p642
S'101376053'
p643
sg4
L1449713902760L
sS'recordCount'
p644
g6
sS'EventType'
p645
S'TYPE_WINDOW_CONTENT_CHANGED'
p646
sS'PackageName'
p647
S'com.example.myfristandroid'
p648
sS'OutBounds'
p649
S'Rect(0, 50 - 1196, 720)'
p650
sS'Action'
p651
S'[ ClassName: android.view.View; Text: []; ContentDescription: null; ItemCount: 0; CurrentItemIndex: 0; IsEnabled: true; IsPassword: false; IsChecked: false; IsFullScreen: false; Scrollable: true; BeforeText: null; FromIndex: -1; ToIndex: -1; ScrollX: 0; ScrollY: 0; MaxScrollX: 0; MaxScrollY: 0; AddedCount: -1; RemovedCount: -1; ParcelableData: null ]'
p652
sS'MovementGranularity'
p653
g6
sa(dp654
S'EventTime'
p655
S'101376552'
p656
sg4
L1449713903258L
sS'recordCount'
p657
g6
sS'EventType'
p658
S'TYPE_WINDOW_CONTENT_CHANGED'
p659
sS'PackageName'
p660
S'com.example.myfristandroid'
p661
sS'OutBounds'
p662
S'Rect(0, 50 - 1196, 720)'
p663
sS'Action'
p664
S'[ ClassName: android.view.View; Text: []; ContentDescription: null; ItemCount: 0; CurrentItemIndex: 0; IsEnabled: true; IsPassword: false; IsChecked: false; IsFullScreen: false; Scrollable: true; BeforeText: null; FromIndex: -1; ToIndex: -1; ScrollX: 0; ScrollY: 0; MaxScrollX: 0; MaxScrollY: 0; AddedCount: -1; RemovedCount: -1; ParcelableData: null ]'
p665
sS'MovementGranularity'
p666
g6
sa(dp667
S'EventTime'
p668
S'101376834'
p669
sg4
L1449713903540L
sS'recordCount'
p670
g6
sS'EventType'
p671
S'TYPE_WINDOW_CONTENT_CHANGED'
p672
sS'PackageName'
p673
S'com.example.myfristandroid'
p674
sS'OutBounds'
p675
S'Rect(0, 50 - 1196, 720)'
p676
sS'Action'
p677
S'[ ClassName: android.view.View; Text: []; ContentDescription: null; ItemCount: 0; CurrentItemIndex: 0; IsEnabled: true; IsPassword: false; IsChecked: false; IsFullScreen: false; Scrollable: true; BeforeText: null; FromIndex: -1; ToIndex: -1; ScrollX: 0; ScrollY: 0; MaxScrollX: 0; MaxScrollY: 0; AddedCount: -1; RemovedCount: -1; ParcelableData: null ]'
p678
sS'MovementGranularity'
p679
g6
sa(dp680
S'EventTime'
p681
S'101377032'
p682
sg4
L1449713903739L
sS'recordCount'
p683
g6
sS'EventType'
p684
S'TYPE_WINDOW_CONTENT_CHANGED'
p685
sS'PackageName'
p686
S'com.example.myfristandroid'
p687
sS'OutBounds'
p688
S'Rect(0, 50 - 1196, 720)'
p689
sS'Action'
p690
S'[ ClassName: android.view.View; Text: []; ContentDescription: null; ItemCount: 0; CurrentItemIndex: 0; IsEnabled: true; IsPassword: false; IsChecked: false; IsFullScreen: false; Scrollable: true; BeforeText: null; FromIndex: -1; ToIndex: -1; ScrollX: 0; ScrollY: 0; MaxScrollX: 0; MaxScrollY: 0; AddedCount: -1; RemovedCount: -1; ParcelableData: null ]'
p691
sS'MovementGranularity'
p692
g6
sa(dp693
S'EventTime'
p694
S'101377539'
p695
sg4
L1449713904246L
sS'recordCount'
p696
g6
sS'EventType'
p697
S'TYPE_WINDOW_CONTENT_CHANGED'
p698
sS'PackageName'
p699
S'com.example.myfristandroid'
p700
sS'OutBounds'
p701
S'Rect(0, 50 - 1196, 720)'
p702
sS'Action'
p703
S'[ ClassName: android.view.View; Text: []; ContentDescription: null; ItemCount: 0; CurrentItemIndex: 0; IsEnabled: true; IsPassword: false; IsChecked: false; IsFullScreen: false; Scrollable: true; BeforeText: null; FromIndex: -1; ToIndex: -1; ScrollX: 0; ScrollY: 0; MaxScrollX: 0; MaxScrollY: 0; AddedCount: -1; RemovedCount: -1; ParcelableData: null ]'
p704
sS'MovementGranularity'
p705
g6
sa(dp706
S'EventTime'
p707
S'101378082'
p708
sg4
L1449713904789L
sS'recordCount'
p709
g6
sS'EventType'
p710
S'TYPE_WINDOW_CONTENT_CHANGED'
p711
sS'PackageName'
p712
S'com.example.myfristandroid'
p713
sS'OutBounds'
p714
S'Rect(0, 50 - 1196, 720)'
p715
sS'Action'
p716
S'[ ClassName: android.view.View; Text: []; ContentDescription: null; ItemCount: 0; CurrentItemIndex: 0; IsEnabled: true; IsPassword: false; IsChecked: false; IsFullScreen: false; Scrollable: true; BeforeText: null; FromIndex: -1; ToIndex: -1; ScrollX: 0; ScrollY: 0; MaxScrollX: 0; MaxScrollY: 0; AddedCount: -1; RemovedCount: -1; ParcelableData: null ]'
p717
sS'MovementGranularity'
p718
g6
sa(dp719
S'EventTime'
p720
S'101378532'
p721
sg4
L1449713905238L
sS'recordCount'
p722
g6
sS'EventType'
p723
S'TYPE_WINDOW_CONTENT_CHANGED'
p724
sS'PackageName'
p725
S'com.example.myfristandroid'
p726
sS'OutBounds'
p727
S'Rect(0, 50 - 1196, 720)'
p728
sS'Action'
p729
S'[ ClassName: android.view.View; Text: []; ContentDescription: null; ItemCount: 0; CurrentItemIndex: 0; IsEnabled: true; IsPassword: false; IsChecked: false; IsFullScreen: false; Scrollable: true; BeforeText: null; FromIndex: -1; ToIndex: -1; ScrollX: 0; ScrollY: 0; MaxScrollX: 0; MaxScrollY: 0; AddedCount: -1; RemovedCount: -1; ParcelableData: null ]'
p730
sS'MovementGranularity'
p731
g6
sa(dp732
S'EventTime'
p733
S'101379052'
p734
sg4
L1449713905759L
sS'recordCount'
p735
g6
sS'EventType'
p736
S'TYPE_WINDOW_CONTENT_CHANGED'
p737
sS'PackageName'
p738
S'com.example.myfristandroid'
p739
sS'OutBounds'
p740
S'Rect(0, 50 - 1196, 720)'
p741
sS'Action'
p742
S'[ ClassName: android.view.View; Text: []; ContentDescription: null; ItemCount: 0; CurrentItemIndex: 0; IsEnabled: true; IsPassword: false; IsChecked: false; IsFullScreen: false; Scrollable: true; BeforeText: null; FromIndex: -1; ToIndex: -1; ScrollX: 0; ScrollY: 0; MaxScrollX: 0; MaxScrollY: 0; AddedCount: -1; RemovedCount: -1; ParcelableData: null ]'
p743
sS'MovementGranularity'
p744
g6
sa(dp745
S'EventTime'
p746
S'101379619'
p747
sg4
L1449713906324L
sS'recordCount'
p748
g6
sS'EventType'
p749
S'TYPE_WINDOW_CONTENT_CHANGED'
p750
sS'PackageName'
p751
S'com.example.myfristandroid'
p752
sS'OutBounds'
p753
S'Rect(0, 50 - 1196, 720)'
p754
sS'Action'
p755
S'[ ClassName: android.view.View; Text: []; ContentDescription: null; ItemCount: 0; CurrentItemIndex: 0; IsEnabled: true; IsPassword: false; IsChecked: false; IsFullScreen: false; Scrollable: true; BeforeText: null; FromIndex: -1; ToIndex: -1; ScrollX: 0; ScrollY: 0; MaxScrollX: 0; MaxScrollY: 0; AddedCount: -1; RemovedCount: -1; ParcelableData: null ]'
p756
sS'MovementGranularity'
p757
g6
sa(dp758
S'EventTime'
p759
S'101380298'
p760
sg4
L1449713907006L
sS'recordCount'
p761
g6
sS'EventType'
p762
S'TYPE_WINDOW_CONTENT_CHANGED'
p763
sS'PackageName'
p764
S'com.example.myfristandroid'
p765
sS'OutBounds'
p766
S'Rect(0, 50 - 1196, 720)'
p767
sS'Action'
p768
S'[ ClassName: com.android.org.chromium.content.browser.ContentViewCore; Text: []; ContentDescription: \xe7\xbd\x91\xe9\xa1\xb5\xe8\xa7\x86\xe5\x9b\xbe; ItemCount: -1; CurrentItemIndex: -1; IsEnabled: true; IsPassword: false; IsChecked: false; IsFullScreen: false; Scrollable: false; BeforeText: null; FromIndex: -1; ToIndex: -1; ScrollX: 0; ScrollY: 0; MaxScrollX: 0; MaxScrollY: 0; AddedCount: -1; RemovedCount: -1; ParcelableData: null ]'
p769
sS'MovementGranularity'
p770
g6
sa(dp771
S'EventTime'
p772
S'101382131'
p773
sg4
L1449713908837L
sS'recordCount'
p774
g6
sS'EventType'
p775
S'TYPE_WINDOW_CONTENT_CHANGED'
p776
sS'PackageName'
p777
S'com.example.myfristandroid'
p778
sS'Action'
p779
S'[ ClassName: android.widget.FrameLayout; Text: []; ContentDescription: null; ItemCount: -1; CurrentItemIndex: -1; IsEnabled: true; IsPassword: false; IsChecked: false; IsFullScreen: false; Scrollable: false; BeforeText: null; FromIndex: -1; ToIndex: -1; ScrollX: -1; ScrollY: -1; MaxScrollX: -1; MaxScrollY: -1; AddedCount: -1; RemovedCount: -1; ParcelableData: null ]'
p780
sS'MovementGranularity'
p781
g6
sa(dp782
S'EventTime'
p783
S'101382159'
p784
sg4
L1449713908898L
sS'recordCount'
p785
g6
sS'EventType'
p786
S'TYPE_WINDOW_STATE_CHANGED'
p787
sS'PackageName'
p788
S'com.example.myfristandroid'
p789
sS'OutBounds'
p790
S'Rect(0, 0 - 720, 1184)'
p791
sS'Action'
p792
S'[ ClassName: com.example.myfristandroid.MainActivity; Text: [SE-1800\xe7\xa7\xbb\xe5\x8a\xa8APP]; ContentDescription: null; ItemCount: -1; CurrentItemIndex: -1; IsEnabled: true; IsPassword: false; IsChecked: false; IsFullScreen: true; Scrollable: false; BeforeText: null; FromIndex: -1; ToIndex: -1; ScrollX: -1; ScrollY: -1; MaxScrollX: -1; MaxScrollY: -1; AddedCount: -1; RemovedCount: -1; ParcelableData: null ]'
p793
sS'MovementGranularity'
p794
g6
sa(dp795
S'EventTime'
p796
S'101382232'
p797
sg4
L1449713908959L
sS'recordCount'
p798
g6
sS'EventType'
p799
S'TYPE_WINDOW_CONTENT_CHANGED'
p800
sS'PackageName'
p801
S'com.example.myfristandroid'
p802
sS'OutBounds'
p803
S'Rect(0, 140 - 720, 1074)'
p804
sS'Action'
p805
S'[ ClassName: android.widget.GridView; Text: []; ContentDescription: null; ItemCount: 9; CurrentItemIndex: -1; IsEnabled: true; IsPassword: false; IsChecked: false; IsFullScreen: false; Scrollable: false; BeforeText: null; FromIndex: 0; ToIndex: 8; ScrollX: -1; ScrollY: -1; MaxScrollX: -1; MaxScrollY: -1; AddedCount: -1; RemovedCount: -1; ParcelableData: null ]'
p806
sS'MovementGranularity'
p807
g6
sa(dp808
S'EventTime'
p809
S'101383983'
p810
sg4
L1449713910688L
sS'recordCount'
p811
g137
sS'EventType'
p812
S'TYPE_VIEW_CLICKED'
p813
sS'PackageName'
p814
S'com.example.myfristandroid'
p815
sS'OutBounds'
p816
S'Rect(478, 618 - 712, 852)'
p817
sS'Action'
p818
S'[ ClassName: android.widget.RelativeLayout; Text: [\xe5\x85\xb6\xe4\xbb\x96\xe6\xbc\x94\xe7\xa4\xba\xe7\xb3\xbb\xe7\xbb\x9f]; ContentDescription: null; ItemCount: -1; CurrentItemIndex: -1; IsEnabled: true; IsPassword: false; IsChecked: false; IsFullScreen: false; Scrollable: false; BeforeText: null; FromIndex: -1; ToIndex: -1; ScrollX: -1; ScrollY: -1; MaxScrollX: -1; MaxScrollY: -1; AddedCount: -1; RemovedCount: -1; ParcelableData: null ]'
p819
sS'MovementGranularity'
p820
g6
sa(dp821
S'EventTime'
p822
S'101384295'
p823
sg4
L1449713911004L
sS'recordCount'
p824
g6
sS'EventType'
p825
S'TYPE_WINDOW_STATE_CHANGED'
p826
sS'PackageName'
p827
S'com.example.myfristandroid'
p828
sS'OutBounds'
p829
S'Rect(0, 0 - 720, 1184)'
p830
sS'Action'
p831
S'[ ClassName: com.example.myfristandroid.graphWebShow; Text: [SE-1800\xe7\xa7\xbb\xe5\x8a\xa8APP]; ContentDescription: null; ItemCount: -1; CurrentItemIndex: -1; IsEnabled: true; IsPassword: false; IsChecked: false; IsFullScreen: true; Scrollable: false; BeforeText: null; FromIndex: -1; ToIndex: -1; ScrollX: -1; ScrollY: -1; MaxScrollX: -1; MaxScrollY: -1; AddedCount: -1; RemovedCount: -1; ParcelableData: null ]'
p832
sS'MovementGranularity'
p833
g6
sa(dp834
S'EventTime'
p835
S'101384355'
p836
sg4
L1449713911061L
sS'recordCount'
p837
g6
sS'EventType'
p838
S'TYPE_WINDOW_CONTENT_CHANGED'
p839
sS'PackageName'
p840
S'com.example.myfristandroid'
p841
sS'OutBounds'
p842
S'Rect(0, 0 - 720, 1184)'
p843
sS'Action'
p844
S'[ ClassName: android.widget.FrameLayout; Text: []; ContentDescription: null; ItemCount: -1; CurrentItemIndex: -1; IsEnabled: true; IsPassword: false; IsChecked: false; IsFullScreen: false; Scrollable: false; BeforeText: null; FromIndex: -1; ToIndex: -1; ScrollX: -1; ScrollY: -1; MaxScrollX: -1; MaxScrollY: -1; AddedCount: -1; RemovedCount: -1; ParcelableData: null ]'
p845
sS'MovementGranularity'
p846
g6
sa(dp847
S'EventTime'
p848
S'101385214'
p849
sg4
L1449713911921L
sS'recordCount'
p850
g6
sS'EventType'
p851
S'TYPE_WINDOW_CONTENT_CHANGED'
p852
sS'PackageName'
p853
S'com.example.myfristandroid'
p854
sS'OutBounds'
p855
S'Rect(0, 0 - 1196, 720)'
p856
sS'Action'
p857
S'[ ClassName: android.widget.FrameLayout; Text: []; ContentDescription: null; ItemCount: -1; CurrentItemIndex: -1; IsEnabled: true; IsPassword: false; IsChecked: false; IsFullScreen: false; Scrollable: false; BeforeText: null; FromIndex: -1; ToIndex: -1; ScrollX: -1; ScrollY: -1; MaxScrollX: -1; MaxScrollY: -1; AddedCount: -1; RemovedCount: -1; ParcelableData: null ]'
p858
sS'MovementGranularity'
p859
g6
sa(dp860
S'EventTime'
p861
S'101385523'
p862
sg4
L1449713912286L
sS'recordCount'
p863
g6
sS'EventType'
p864
S'TYPE_WINDOW_CONTENT_CHANGED'
p865
sS'PackageName'
p866
S'com.example.myfristandroid'
p867
sS'OutBounds'
p868
S'Rect(0, 50 - 1196, 720)'
p869
sS'Action'
p870
S'[ ClassName: com.android.org.chromium.content.browser.ContentViewCore; Text: []; ContentDescription: \xe7\xbd\x91\xe9\xa1\xb5\xe8\xa7\x86\xe5\x9b\xbe; ItemCount: -1; CurrentItemIndex: -1; IsEnabled: true; IsPassword: false; IsChecked: false; IsFullScreen: false; Scrollable: true; BeforeText: null; FromIndex: -1; ToIndex: -1; ScrollX: 0; ScrollY: 0; MaxScrollX: 476; MaxScrollY: 0; AddedCount: -1; RemovedCount: -1; ParcelableData: null ]'
p871
sS'MovementGranularity'
p872
g6
sa(dp873
S'EventTime'
p874
S'101385673'
p875
sg4
L1449713912380L
sS'recordCount'
p876
g6
sS'EventType'
p877
S'TYPE_WINDOW_CONTENT_CHANGED'
p878
sS'PackageName'
p879
S'com.example.myfristandroid'
p880
sS'OutBounds'
p881
S'Rect(0, 50 - 1196, 720)'
p882
sS'Action'
p883
S'[ ClassName: android.view.View; Text: []; ContentDescription: null; ItemCount: 0; CurrentItemIndex: 0; IsEnabled: true; IsPassword: false; IsChecked: false; IsFullScreen: false; Scrollable: true; BeforeText: null; FromIndex: -1; ToIndex: -1; ScrollX: 0; ScrollY: 0; MaxScrollX: 0; MaxScrollY: 0; AddedCount: -1; RemovedCount: -1; ParcelableData: null ]'
p884
sS'MovementGranularity'
p885
g6
sa(dp886
S'EventTime'
p887
S'101388712'
p888
sg4
L1449713915418L
sS'recordCount'
p889
g6
sS'EventType'
p890
S'TYPE_WINDOW_CONTENT_CHANGED'
p891
sS'PackageName'
p892
S'com.example.myfristandroid'
p893
sS'OutBounds'
p894
S'Rect(0, 50 - 1196, 720)'
p895
sS'Action'
p896
S'[ ClassName: android.view.View; Text: []; ContentDescription: null; ItemCount: 0; CurrentItemIndex: 0; IsEnabled: true; IsPassword: false; IsChecked: false; IsFullScreen: false; Scrollable: true; BeforeText: null; FromIndex: -1; ToIndex: -1; ScrollX: 0; ScrollY: 0; MaxScrollX: 0; MaxScrollY: 0; AddedCount: -1; RemovedCount: -1; ParcelableData: null ]'
p897
sS'MovementGranularity'
p898
g6
sa(dp899
S'EventTime'
p900
S'101389567'
p901
sg4
L1449713916299L
sS'recordCount'
p902
g6
sS'EventType'
p903
S'TYPE_WINDOW_STATE_CHANGED'
p904
sS'PackageName'
p905
S'com.example.myfristandroid'
p906
sS'OutBounds'
p907
S'Rect(0, 0 - 720, 1184)'
p908
sS'Action'
p909
S'[ ClassName: com.example.myfristandroid.MainActivity; Text: [SE-1800\xe7\xa7\xbb\xe5\x8a\xa8APP]; ContentDescription: null; ItemCount: -1; CurrentItemIndex: -1; IsEnabled: true; IsPassword: false; IsChecked: false; IsFullScreen: true; Scrollable: false; BeforeText: null; FromIndex: -1; ToIndex: -1; ScrollX: -1; ScrollY: -1; MaxScrollX: -1; MaxScrollY: -1; AddedCount: -1; RemovedCount: -1; ParcelableData: null ]'
p910
sS'MovementGranularity'
p911
g6
sa(dp912
S'EventTime'
p913
S'101389608'
p914
sg4
L1449713916348L
sS'recordCount'
p915
g6
sS'EventType'
p916
S'TYPE_WINDOW_CONTENT_CHANGED'
p917
sS'PackageName'
p918
S'com.example.myfristandroid'
p919
sS'OutBounds'
p920
S'Rect(0, 140 - 720, 1074)'
p921
sS'Action'
p922
S'[ ClassName: android.widget.GridView; Text: []; ContentDescription: null; ItemCount: 9; CurrentItemIndex: -1; IsEnabled: true; IsPassword: false; IsChecked: false; IsFullScreen: false; Scrollable: false; BeforeText: null; FromIndex: 0; ToIndex: 8; ScrollX: -1; ScrollY: -1; MaxScrollX: -1; MaxScrollY: -1; AddedCount: -1; RemovedCount: -1; ParcelableData: null ]'
p923
sS'MovementGranularity'
p924
g6
sa(dp925
S'EventTime'
p926
S'101390982'
p927
sg4
L1449713917687L
sS'recordCount'
p928
g137
sS'EventType'
p929
S'TYPE_VIEW_CLICKED'
p930
sS'PackageName'
p931
S'com.example.myfristandroid'
p932
sS'OutBounds'
p933
S'Rect(242, 618 - 476, 852)'
p934
sS'Action'
p935
S'[ ClassName: android.widget.RelativeLayout; Text: [\xe5\x87\x8f\xe6\x8e\x92\xe9\x87\x8f\xe4\xbf\xa1\xe6\x81\xaf]; ContentDescription: null; ItemCount: -1; CurrentItemIndex: -1; IsEnabled: true; IsPassword: false; IsChecked: false; IsFullScreen: false; Scrollable: false; BeforeText: null; FromIndex: -1; ToIndex: -1; ScrollX: -1; ScrollY: -1; MaxScrollX: -1; MaxScrollY: -1; AddedCount: -1; RemovedCount: -1; ParcelableData: null ]'
p936
sS'MovementGranularity'
p937
g6
sa(dp938
S'EventTime'
p939
S'101391250'
p940
sg4
L1449713917957L
sS'recordCount'
p941
g6
sS'EventType'
p942
S'TYPE_WINDOW_STATE_CHANGED'
p943
sS'PackageName'
p944
S'com.example.myfristandroid'
p945
sS'OutBounds'
p946
S'Rect(0, 0 - 720, 1184)'
p947
sS'Action'
p948
S'[ ClassName: com.example.myfristandroid.graphWebShow; Text: [SE-1800\xe7\xa7\xbb\xe5\x8a\xa8APP]; ContentDescription: null; ItemCount: -1; CurrentItemIndex: -1; IsEnabled: true; IsPassword: false; IsChecked: false; IsFullScreen: true; Scrollable: false; BeforeText: null; FromIndex: -1; ToIndex: -1; ScrollX: -1; ScrollY: -1; MaxScrollX: -1; MaxScrollY: -1; AddedCount: -1; RemovedCount: -1; ParcelableData: null ]'
p949
sS'MovementGranularity'
p950
g6
sa(dp951
S'EventTime'
p952
S'101391318'
p953
sg4
L1449713918026L
sS'recordCount'
p954
g6
sS'EventType'
p955
S'TYPE_WINDOW_CONTENT_CHANGED'
p956
sS'PackageName'
p957
S'com.example.myfristandroid'
p958
sS'OutBounds'
p959
S'Rect(0, 140 - 720, 1184)'
p960
sS'Action'
p961
S'[ ClassName: com.android.org.chromium.content.browser.ContentViewCore; Text: []; ContentDescription: \xe7\xbd\x91\xe9\xa1\xb5\xe8\xa7\x86\xe5\x9b\xbe; ItemCount: -1; CurrentItemIndex: -1; IsEnabled: true; IsPassword: false; IsChecked: false; IsFullScreen: false; Scrollable: false; BeforeText: null; FromIndex: -1; ToIndex: -1; ScrollX: 0; ScrollY: 0; MaxScrollX: 0; MaxScrollY: 0; AddedCount: -1; RemovedCount: -1; ParcelableData: null ]'
p962
sS'MovementGranularity'
p963
g6
sa(dp964
S'EventTime'
p965
S'101400803'
p966
sg4
L1449713927544L
sS'recordCount'
p967
g6
sS'EventType'
p968
S'TYPE_WINDOW_STATE_CHANGED'
p969
sS'PackageName'
p970
S'com.example.myfristandroid'
p971
sS'OutBounds'
p972
S'Rect(0, 0 - 720, 1184)'
p973
sS'Action'
p974
S'[ ClassName: com.example.myfristandroid.MainActivity; Text: [SE-1800\xe7\xa7\xbb\xe5\x8a\xa8APP]; ContentDescription: null; ItemCount: -1; CurrentItemIndex: -1; IsEnabled: true; IsPassword: false; IsChecked: false; IsFullScreen: true; Scrollable: false; BeforeText: null; FromIndex: -1; ToIndex: -1; ScrollX: -1; ScrollY: -1; MaxScrollX: -1; MaxScrollY: -1; AddedCount: -1; RemovedCount: -1; ParcelableData: null ]'
p975
sS'MovementGranularity'
p976
g6
sa(dp977
S'EventTime'
p978
S'101402038'
p979
sg4
L1449713928744L
sS'recordCount'
p980
g137
sS'EventType'
p981
S'TYPE_VIEW_CLICKED'
p982
sS'PackageName'
p983
S'com.example.myfristandroid'
p984
sS'OutBounds'
p985
S'Rect(242, 382 - 476, 616)'
p986
sS'Action'
p987
S'[ ClassName: android.widget.RelativeLayout; Text: [\xe6\xb1\x87\xe6\xb5\x81\xe7\xae\xb1]; ContentDescription: null; ItemCount: -1; CurrentItemIndex: -1; IsEnabled: true; IsPassword: false; IsChecked: false; IsFullScreen: false; Scrollable: false; BeforeText: null; FromIndex: -1; ToIndex: -1; ScrollX: -1; ScrollY: -1; MaxScrollX: -1; MaxScrollY: -1; AddedCount: -1; RemovedCount: -1; ParcelableData: null ]'
p988
sS'MovementGranularity'
p989
g6
sa(dp990
S'EventTime'
p991
S'101402392'
p992
sg4
L1449713929099L
sS'recordCount'
p993
g6
sS'EventType'
p994
S'TYPE_WINDOW_STATE_CHANGED'
p995
sS'PackageName'
p996
S'com.example.myfristandroid'
p997
sS'OutBounds'
p998
S'Rect(0, 0 - 720, 1184)'
p999
sS'Action'
p1000
S'[ ClassName: com.example.myfristandroid.graphWebShow; Text: [SE-1800\xe7\xa7\xbb\xe5\x8a\xa8APP]; ContentDescription: null; ItemCount: -1; CurrentItemIndex: -1; IsEnabled: true; IsPassword: false; IsChecked: false; IsFullScreen: true; Scrollable: false; BeforeText: null; FromIndex: -1; ToIndex: -1; ScrollX: -1; ScrollY: -1; MaxScrollX: -1; MaxScrollY: -1; AddedCount: -1; RemovedCount: -1; ParcelableData: null ]'
p1001
sS'MovementGranularity'
p1002
g6
sa(dp1003
S'EventTime'
p1004
S'101402425'
p1005
sg4
L1449713929134L
sS'recordCount'
p1006
g6
sS'EventType'
p1007
S'TYPE_WINDOW_CONTENT_CHANGED'
p1008
sS'PackageName'
p1009
S'com.example.myfristandroid'
p1010
sS'OutBounds'
p1011
S'Rect(0, 0 - 720, 1184)'
p1012
sS'Action'
p1013
S'[ ClassName: android.widget.FrameLayout; Text: []; ContentDescription: null; ItemCount: -1; CurrentItemIndex: -1; IsEnabled: true; IsPassword: false; IsChecked: false; IsFullScreen: false; Scrollable: false; BeforeText: null; FromIndex: -1; ToIndex: -1; ScrollX: -1; ScrollY: -1; MaxScrollX: -1; MaxScrollY: -1; AddedCount: -1; RemovedCount: -1; ParcelableData: null ]'
p1014
sS'MovementGranularity'
p1015
g6
sa(dp1016
S'EventTime'
p1017
S'101403780'
p1018
sg4
L1449713930513L
sS'recordCount'
p1019
g6
sS'EventType'
p1020
S'TYPE_WINDOW_STATE_CHANGED'
p1021
sS'PackageName'
p1022
S'com.example.myfristandroid'
p1023
sS'OutBounds'
p1024
S'Rect(0, 0 - 720, 1184)'
p1025
sS'Action'
p1026
S'[ ClassName: com.example.myfristandroid.MainActivity; Text: [SE-1800\xe7\xa7\xbb\xe5\x8a\xa8APP]; ContentDescription: null; ItemCount: -1; CurrentItemIndex: -1; IsEnabled: true; IsPassword: false; IsChecked: false; IsFullScreen: true; Scrollable: false; BeforeText: null; FromIndex: -1; ToIndex: -1; ScrollX: -1; ScrollY: -1; MaxScrollX: -1; MaxScrollY: -1; AddedCount: -1; RemovedCount: -1; ParcelableData: null ]'
p1027
sS'MovementGranularity'
p1028
g6
sa(dp1029
S'EventTime'
p1030
S'101404668'
p1031
sg4
L1449713931373L
sS'recordCount'
p1032
g6
sS'EventType'
p1033
S'TYPE_VIEW_CLICKED'
p1034
sS'PackageName'
p1035
S'com.example.myfristandroid'
p1036
sS'OutBounds'
p1037
S'Rect(180, 1074 - 360, 1184)'
p1038
sS'Action'
p1039
S'[ ClassName: android.widget.LinearLayout; Text: [\xe6\x9f\xa5\xe7\x9c\x8b\xe5\xae\x9e\xe6\x97\xb6\xe6\x95\xb0\xe6\x8d\xae\xe4\xbf\xa1\xe6\x81\xaf, \xe6\x95\xb0\xe6\x8d\xae]; ContentDescription: null; ItemCount: -1; CurrentItemIndex: -1; IsEnabled: true; IsPassword: false; IsChecked: false; IsFullScreen: false; Scrollable: false; BeforeText: null; FromIndex: -1; ToIndex: -1; ScrollX: -1; ScrollY: -1; MaxScrollX: -1; MaxScrollY: -1; AddedCount: -1; RemovedCount: -1; ParcelableData: null ]'
p1040
sS'MovementGranularity'
p1041
g6
sa(dp1042
S'EventTime'
p1043
S'101404677'
p1044
sg4
L1449713931416L
sS'recordCount'
p1045
g6
sS'EventType'
p1046
S'TYPE_WINDOW_CONTENT_CHANGED'
p1047
sS'PackageName'
p1048
S'com.example.myfristandroid'
p1049
sS'OutBounds'
p1050
S'Rect(-714, 140 - -714, 140)'
p1051
sS'Action'
p1052
S'[ ClassName: android.widget.LinearLayout; Text: []; ContentDescription: null; ItemCount: -1; CurrentItemIndex: -1; IsEnabled: true; IsPassword: false; IsChecked: false; IsFullScreen: false; Scrollable: false; BeforeText: null; FromIndex: -1; ToIndex: -1; ScrollX: -1; ScrollY: -1; MaxScrollX: -1; MaxScrollY: -1; AddedCount: -1; RemovedCount: -1; ParcelableData: null ]'
p1053
sS'MovementGranularity'
p1054
g6
sa(dp1055
S'EventTime'
p1056
S'101404678'
p1057
sg4
L1449713931448L
sS'recordCount'
p1058
g6
sS'EventType'
p1059
S'TYPE_VIEW_FOCUSED'
p1060
sS'PackageName'
p1061
S'com.example.myfristandroid'
p1062
sS'OutBounds'
p1063
S'Rect(6, 300 - 714, 360)'
p1064
sS'Action'
p1065
S'[ ClassName: android.widget.EditText; Text: [\xe6\x90\x9c\xe7\xb4\xa2]; ContentDescription: null; ItemCount: 10; CurrentItemIndex: 4; IsEnabled: true; IsPassword: false; IsChecked: false; IsFullScreen: false; Scrollable: false; BeforeText: null; FromIndex: -1; ToIndex: -1; ScrollX: -1; ScrollY: -1; MaxScrollX: -1; MaxScrollY: -1; AddedCount: -1; RemovedCount: -1; ParcelableData: null ]'
p1066
sS'MovementGranularity'
p1067
g6
sa(dp1068
S'EventTime'
p1069
S'101404789'
p1070
sg4
L1449713931495L
sS'recordCount'
p1071
g6
sS'EventType'
p1072
S'TYPE_WINDOW_CONTENT_CHANGED'
p1073
sS'PackageName'
p1074
S'com.example.myfristandroid'
p1075
sS'OutBounds'
p1076
S'Rect(1090, 170 - 1330, 230)'
p1077
sS'Action'
p1078
S'[ ClassName: android.widget.Button; Text: []; ContentDescription: null; ItemCount: -1; CurrentItemIndex: -1; IsEnabled: true; IsPassword: false; IsChecked: false; IsFullScreen: false; Scrollable: false; BeforeText: null; FromIndex: -1; ToIndex: -1; ScrollX: -1; ScrollY: -1; MaxScrollX: -1; MaxScrollY: -1; AddedCount: -1; RemovedCount: -1; ParcelableData: null ]'
p1079
sS'MovementGranularity'
p1080
g6
sa(dp1081
S'EventTime'
p1082
S'101404807'
p1083
sg4
L1449713931546L
sS'recordCount'
p1084
g6
sS'EventType'
p1085
S'TYPE_VIEW_SCROLLED'
p1086
sS'PackageName'
p1087
S'com.example.myfristandroid'
p1088
sS'OutBounds'
p1089
S'Rect(0, 140 - 720, 1074)'
p1090
sS'Action'
p1091
S'[ ClassName: android.support.v4.view.ViewPager; Text: []; ContentDescription: null; ItemCount: -1; CurrentItemIndex: -1; IsEnabled: true; IsPassword: false; IsChecked: false; IsFullScreen: false; Scrollable: false; BeforeText: null; FromIndex: -1; ToIndex: -1; ScrollX: -1; ScrollY: -1; MaxScrollX: -1; MaxScrollY: -1; AddedCount: -1; RemovedCount: -1; ParcelableData: null ]'
p1092
sS'MovementGranularity'
p1093
g6
sa(dp1094
S'EventTime'
p1095
S'101404941'
p1096
sg4
L1449713931690L
sS'recordCount'
p1097
g6
sS'EventType'
p1098
S'TYPE_VIEW_SCROLLED'
p1099
sS'PackageName'
p1100
S'com.example.myfristandroid'
p1101
sS'OutBounds'
p1102
S'Rect(0, 140 - 720, 1074)'
p1103
sS'Action'
p1104
S'[ ClassName: android.support.v4.view.ViewPager; Text: []; ContentDescription: null; ItemCount: -1; CurrentItemIndex: -1; IsEnabled: true; IsPassword: false; IsChecked: false; IsFullScreen: false; Scrollable: false; BeforeText: null; FromIndex: -1; ToIndex: -1; ScrollX: -1; ScrollY: -1; MaxScrollX: -1; MaxScrollY: -1; AddedCount: -1; RemovedCount: -1; ParcelableData: null ]'
p1105
sS'MovementGranularity'
p1106
g6
sa(dp1107
S'EventTime'
p1108
S'101406838'
p1109
sg4
L1449713933542L
sS'recordCount'
p1110
g6
sS'EventType'
p1111
S'TYPE_VIEW_CLICKED'
p1112
sS'PackageName'
p1113
S'com.example.myfristandroid'
p1114
sS'OutBounds'
p1115
S'Rect(6, 300 - 714, 360)'
p1116
sS'Action'
p1117
S'[ ClassName: android.widget.EditText; Text: [\xe6\x90\x9c\xe7\xb4\xa2]; ContentDescription: null; ItemCount: -1; CurrentItemIndex: -1; IsEnabled: true; IsPassword: false; IsChecked: false; IsFullScreen: false; Scrollable: false; BeforeText: null; FromIndex: -1; ToIndex: -1; ScrollX: -1; ScrollY: -1; MaxScrollX: -1; MaxScrollY: -1; AddedCount: -1; RemovedCount: -1; ParcelableData: null ]'
p1118
sS'MovementGranularity'
p1119
g6
sa(dp1120
S'EventTime'
p1121
S'101406938'
p1122
sg4
L1449713933676L
sS'recordCount'
p1123
g6
sS'EventType'
p1124
S'TYPE_WINDOW_CONTENT_CHANGED'
p1125
sS'PackageName'
p1126
S'com.example.myfristandroid'
p1127
sS'OutBounds'
p1128
S'Rect(-719, 140 - 0, 503)'
p1129
sS'Action'
p1130
S'[ ClassName: android.widget.GridView; Text: []; ContentDescription: null; ItemCount: 9; CurrentItemIndex: -1; IsEnabled: true; IsPassword: false; IsChecked: false; IsFullScreen: false; Scrollable: false; BeforeText: null; FromIndex: 0; ToIndex: 8; ScrollX: -1; ScrollY: -1; MaxScrollX: -1; MaxScrollY: -1; AddedCount: -1; RemovedCount: -1; ParcelableData: null ]'
p1131
sS'MovementGranularity'
p1132
g6
sa(dp1133
S'EventTime'
p1134
S'101407042'
p1135
sg4
L1449713933777L
sS'recordCount'
p1136
g6
sS'EventType'
p1137
S'TYPE_WINDOW_CONTENT_CHANGED'
p1138
sS'PackageName'
p1139
S'com.example.myfristandroid'
p1140
sS'OutBounds'
p1141
S'Rect(-719, 140 - 0, 503)'
p1142
sS'Action'
p1143
S'[ ClassName: android.widget.GridView; Text: []; ContentDescription: null; ItemCount: 9; CurrentItemIndex: -1; IsEnabled: true; IsPassword: false; IsChecked: false; IsFullScreen: false; Scrollable: true; BeforeText: null; FromIndex: 0; ToIndex: 5; ScrollX: -1; ScrollY: -1; MaxScrollX: -1; MaxScrollY: -1; AddedCount: -1; RemovedCount: -1; ParcelableData: null ]'
p1144
sS'MovementGranularity'
p1145
g6
sa(dp1146
S'EventTime'
p1147
S'101407100'
p1148
sg4
L1449713933838L
sS'recordCount'
p1149
g6
sS'EventType'
p1150
S'TYPE_VIEW_SCROLLED'
p1151
sS'PackageName'
p1152
S'com.example.myfristandroid'
p1153
sS'OutBounds'
p1154
S'Rect(-719, 140 - 0, 503)'
p1155
sS'Action'
p1156
S'[ ClassName: android.widget.GridView; Text: []; ContentDescription: null; ItemCount: 9; CurrentItemIndex: -1; IsEnabled: true; IsPassword: false; IsChecked: false; IsFullScreen: false; Scrollable: true; BeforeText: null; FromIndex: 0; ToIndex: 5; ScrollX: -1; ScrollY: -1; MaxScrollX: -1; MaxScrollY: -1; AddedCount: -1; RemovedCount: -1; ParcelableData: null ]'
p1157
sS'MovementGranularity'
p1158
g6
sa(dp1159
S'EventTime'
p1160
S'101413855'
p1161
sg4
L1449713940564L
sS'recordCount'
p1162
g6
sS'EventType'
p1163
S'TYPE_VIEW_TEXT_CHANGED'
p1164
sS'PackageName'
p1165
S'com.example.myfristandroid'
p1166
sS'OutBounds'
p1167
S'Rect(6, 300 - 714, 360)'
p1168
sS'Action'
p1169
S'[ ClassName: android.widget.EditText; Text: [\xe4\xb8\xad]; ContentDescription: null; ItemCount: -1; CurrentItemIndex: -1; IsEnabled: true; IsPassword: false; IsChecked: false; IsFullScreen: false; Scrollable: false; BeforeText: ; FromIndex: 0; ToIndex: -1; ScrollX: -1; ScrollY: -1; MaxScrollX: -1; MaxScrollY: -1; AddedCount: 1; RemovedCount: 0; ParcelableData: null ]'
p1170
sS'MovementGranularity'
p1171
g6
sa(dp1172
S'EventTime'
p1173
S'101413856'
p1174
sg4
L1449713940604L
sS'recordCount'
p1175
g6
sS'EventType'
p1176
S'TYPE_VIEW_TEXT_SELECTION_CHANGED'
p1177
sS'PackageName'
p1178
S'com.example.myfristandroid'
p1179
sS'OutBounds'
p1180
S'Rect(6, 300 - 714, 360)'
p1181
sS'Action'
p1182
S'[ ClassName: android.widget.EditText; Text: [\xe4\xb8\xad]; ContentDescription: null; ItemCount: 1; CurrentItemIndex: -1; IsEnabled: true; IsPassword: false; IsChecked: false; IsFullScreen: false; Scrollable: false; BeforeText: null; FromIndex: 1; ToIndex: 1; ScrollX: -1; ScrollY: -1; MaxScrollX: -1; MaxScrollY: -1; AddedCount: -1; RemovedCount: -1; ParcelableData: null ]'
p1183
sS'MovementGranularity'
p1184
g6
sa(dp1185
S'EventTime'
p1186
S'101413864'
p1187
sg4
L1449713940657L
sS'recordCount'
p1188
g6
sS'EventType'
p1189
S'TYPE_WINDOW_CONTENT_CHANGED'
p1190
sS'PackageName'
p1191
S'com.example.myfristandroid'
p1192
sS'OutBounds'
p1193
S'Rect(664, 305 - 714, 355)'
p1194
sS'Action'
p1195
S'[ ClassName: android.widget.ImageButton; Text: []; ContentDescription: null; ItemCount: -1; CurrentItemIndex: -1; IsEnabled: true; IsPassword: false; IsChecked: false; IsFullScreen: false; Scrollable: false; BeforeText: null; FromIndex: -1; ToIndex: -1; ScrollX: -1; ScrollY: -1; MaxScrollX: -1; MaxScrollY: -1; AddedCount: -1; RemovedCount: -1; ParcelableData: null ]'
p1196
sS'MovementGranularity'
p1197
g6
sa(dp1198
S'EventTime'
p1199
S'101418001'
p1200
sg4
L1449713944711L
sS'recordCount'
p1201
g6
sS'EventType'
p1202
S'TYPE_VIEW_TEXT_CHANGED'
p1203
sS'PackageName'
p1204
S'com.example.myfristandroid'
p1205
sS'OutBounds'
p1206
S'Rect(6, 300 - 714, 360)'
p1207
sS'Action'
p1208
S'[ ClassName: android.widget.EditText; Text: [\xe4\xb8\xad\xe5\xbe\xb7]; ContentDescription: null; ItemCount: -1; CurrentItemIndex: -1; IsEnabled: true; IsPassword: false; IsChecked: false; IsFullScreen: false; Scrollable: false; BeforeText: \xe4\xb8\xad; FromIndex: 1; ToIndex: -1; ScrollX: -1; ScrollY: -1; MaxScrollX: -1; MaxScrollY: -1; AddedCount: 1; RemovedCount: 0; ParcelableData: null ]'
p1209
sS'MovementGranularity'
p1210
g6
sa(dp1211
S'EventTime'
p1212
S'101418003'
p1213
sg4
L1449713944746L
sS'recordCount'
p1214
g6
sS'EventType'
p1215
S'TYPE_VIEW_TEXT_SELECTION_CHANGED'
p1216
sS'PackageName'
p1217
S'com.example.myfristandroid'
p1218
sS'OutBounds'
p1219
S'Rect(6, 300 - 714, 360)'
p1220
sS'Action'
p1221
S'[ ClassName: android.widget.EditText; Text: [\xe4\xb8\xad\xe5\xbe\xb7]; ContentDescription: null; ItemCount: 2; CurrentItemIndex: -1; IsEnabled: true; IsPassword: false; IsChecked: false; IsFullScreen: false; Scrollable: false; BeforeText: null; FromIndex: 2; ToIndex: 2; ScrollX: -1; ScrollY: -1; MaxScrollX: -1; MaxScrollY: -1; AddedCount: -1; RemovedCount: -1; ParcelableData: null ]'
p1222
sS'MovementGranularity'
p1223
g6
sa(dp1224
S'EventTime'
p1225
S'101420016'
p1226
sg4
L1449713946722L
sS'recordCount'
p1227
g6
sS'EventType'
p1228
S'TYPE_VIEW_TEXT_CHANGED'
p1229
sS'PackageName'
p1230
S'com.example.myfristandroid'
p1231
sS'OutBounds'
p1232
S'Rect(6, 300 - 714, 360)'
p1233
sS'Action'
p1234
S'[ ClassName: android.widget.EditText; Text: [\xe4\xb8\xad]; ContentDescription: null; ItemCount: -1; CurrentItemIndex: -1; IsEnabled: true; IsPassword: false; IsChecked: false; IsFullScreen: false; Scrollable: false; BeforeText: \xe4\xb8\xad\xe5\xbe\xb7; FromIndex: 1; ToIndex: -1; ScrollX: -1; ScrollY: -1; MaxScrollX: -1; MaxScrollY: -1; AddedCount: 0; RemovedCount: 1; ParcelableData: null ]'
p1235
sS'MovementGranularity'
p1236
g6
sa(dp1237
S'EventTime'
p1238
S'101420018'
p1239
sg4
L1449713946754L
sS'recordCount'
p1240
g6
sS'EventType'
p1241
S'TYPE_VIEW_TEXT_SELECTION_CHANGED'
p1242
sS'PackageName'
p1243
S'com.example.myfristandroid'
p1244
sS'OutBounds'
p1245
S'Rect(6, 300 - 714, 360)'
p1246
sS'Action'
p1247
S'[ ClassName: android.widget.EditText; Text: [\xe4\xb8\xad]; ContentDescription: null; ItemCount: 1; CurrentItemIndex: -1; IsEnabled: true; IsPassword: false; IsChecked: false; IsFullScreen: false; Scrollable: false; BeforeText: null; FromIndex: 1; ToIndex: 1; ScrollX: -1; ScrollY: -1; MaxScrollX: -1; MaxScrollY: -1; AddedCount: -1; RemovedCount: -1; ParcelableData: null ]'
p1248
sS'MovementGranularity'
p1249
g6
sa(dp1250
S'EventTime'
p1251
S'101422248'
p1252
sg4
L1449713948957L
sS'recordCount'
p1253
g6
sS'EventType'
p1254
S'TYPE_VIEW_TEXT_CHANGED'
p1255
sS'PackageName'
p1256
S'com.example.myfristandroid'
p1257
sS'OutBounds'
p1258
S'Rect(6, 300 - 714, 360)'
p1259
sS'Action'
p1260
S'[ ClassName: android.widget.EditText; Text: [\xe4\xb8\xad\xe5\xa4\xa7]; ContentDescription: null; ItemCount: -1; CurrentItemIndex: -1; IsEnabled: true; IsPassword: false; IsChecked: false; IsFullScreen: false; Scrollable: false; BeforeText: \xe4\xb8\xad; FromIndex: 1; ToIndex: -1; ScrollX: -1; ScrollY: -1; MaxScrollX: -1; MaxScrollY: -1; AddedCount: 1; RemovedCount: 0; ParcelableData: null ]'
p1261
sS'MovementGranularity'
p1262
g6
sa(dp1263
S'EventTime'
p1264
S'101422249'
p1265
sg4
L1449713948988L
sS'recordCount'
p1266
g6
sS'EventType'
p1267
S'TYPE_VIEW_TEXT_SELECTION_CHANGED'
p1268
sS'PackageName'
p1269
S'com.example.myfristandroid'
p1270
sS'OutBounds'
p1271
S'Rect(6, 300 - 714, 360)'
p1272
sS'Action'
p1273
S'[ ClassName: android.widget.EditText; Text: [\xe4\xb8\xad\xe5\xa4\xa7]; ContentDescription: null; ItemCount: 2; CurrentItemIndex: -1; IsEnabled: true; IsPassword: false; IsChecked: false; IsFullScreen: false; Scrollable: false; BeforeText: null; FromIndex: 2; ToIndex: 2; ScrollX: -1; ScrollY: -1; MaxScrollX: -1; MaxScrollY: -1; AddedCount: -1; RemovedCount: -1; ParcelableData: null ]'
p1274
sS'MovementGranularity'
p1275
g6
sa(dp1276
S'EventTime'
p1277
S'101424603'
p1278
sg4
L1449713951311L
sS'recordCount'
p1279
g6
sS'EventType'
p1280
S'TYPE_VIEW_TEXT_CHANGED'
p1281
sS'PackageName'
p1282
S'com.example.myfristandroid'
p1283
sS'OutBounds'
p1284
S'Rect(6, 300 - 714, 360)'
p1285
sS'Action'
p1286
S'[ ClassName: android.widget.EditText; Text: [\xe4\xb8\xad\xe5\xa4\xa7\xe5\x8a\x9b]; ContentDescription: null; ItemCount: -1; CurrentItemIndex: -1; IsEnabled: true; IsPassword: false; IsChecked: false; IsFullScreen: false; Scrollable: false; BeforeText: \xe4\xb8\xad\xe5\xa4\xa7; FromIndex: 2; ToIndex: -1; ScrollX: -1; ScrollY: -1; MaxScrollX: -1; MaxScrollY: -1; AddedCount: 1; RemovedCount: 0; ParcelableData: null ]'
p1287
sS'MovementGranularity'
p1288
g6
sa(dp1289
S'EventTime'
p1290
S'101424604'
p1291
sg4
L1449713951343L
sS'recordCount'
p1292
g6
sS'EventType'
p1293
S'TYPE_VIEW_TEXT_SELECTION_CHANGED'
p1294
sS'PackageName'
p1295
S'com.example.myfristandroid'
p1296
sS'OutBounds'
p1297
S'Rect(6, 300 - 714, 360)'
p1298
sS'Action'
p1299
S'[ ClassName: android.widget.EditText; Text: [\xe4\xb8\xad\xe5\xa4\xa7\xe5\x8a\x9b]; ContentDescription: null; ItemCount: 3; CurrentItemIndex: -1; IsEnabled: true; IsPassword: false; IsChecked: false; IsFullScreen: false; Scrollable: false; BeforeText: null; FromIndex: 3; ToIndex: 3; ScrollX: -1; ScrollY: -1; MaxScrollX: -1; MaxScrollY: -1; AddedCount: -1; RemovedCount: -1; ParcelableData: null ]'
p1300
sS'MovementGranularity'
p1301
g6
sa(dp1302
S'EventTime'
p1303
S'101428035'
p1304
sg4
L1449713954744L
sS'recordCount'
p1305
g6
sS'EventType'
p1306
S'TYPE_VIEW_TEXT_CHANGED'
p1307
sS'PackageName'
p1308
S'com.example.myfristandroid'
p1309
sS'OutBounds'
p1310
S'Rect(6, 300 - 714, 360)'
p1311
sS'Action'
p1312
S'[ ClassName: android.widget.EditText; Text: [\xe4\xb8\xad\xe5\xa4\xa7\xe5\x8a\x9b\xe5\xbe\xb7]; ContentDescription: null; ItemCount: -1; CurrentItemIndex: -1; IsEnabled: true; IsPassword: false; IsChecked: false; IsFullScreen: false; Scrollable: false; BeforeText: \xe4\xb8\xad\xe5\xa4\xa7\xe5\x8a\x9b; FromIndex: 3; ToIndex: -1; ScrollX: -1; ScrollY: -1; MaxScrollX: -1; MaxScrollY: -1; AddedCount: 1; RemovedCount: 0; ParcelableData: null ]'
p1313
sS'MovementGranularity'
p1314
g6
sa(dp1315
S'EventTime'
p1316
S'101428037'
p1317
sg4
L1449713954774L
sS'recordCount'
p1318
g6
sS'EventType'
p1319
S'TYPE_VIEW_TEXT_SELECTION_CHANGED'
p1320
sS'PackageName'
p1321
S'com.example.myfristandroid'
p1322
sS'OutBounds'
p1323
S'Rect(6, 300 - 714, 360)'
p1324
sS'Action'
p1325
S'[ ClassName: android.widget.EditText; Text: [\xe4\xb8\xad\xe5\xa4\xa7\xe5\x8a\x9b\xe5\xbe\xb7]; ContentDescription: null; ItemCount: 4; CurrentItemIndex: -1; IsEnabled: true; IsPassword: false; IsChecked: false; IsFullScreen: false; Scrollable: false; BeforeText: null; FromIndex: 4; ToIndex: 4; ScrollX: -1; ScrollY: -1; MaxScrollX: -1; MaxScrollY: -1; AddedCount: -1; RemovedCount: -1; ParcelableData: null ]'
p1326
sS'MovementGranularity'
p1327
g6
sa(dp1328
S'EventTime'
p1329
S'101430325'
p1330
sg4
L1449713957030L
sS'recordCount'
p1331
g6
sS'EventType'
p1332
S'TYPE_VIEW_CLICKED'
p1333
sS'PackageName'
p1334
S'com.example.myfristandroid'
p1335
sS'OutBounds'
p1336
S'Rect(6, 300 - 714, 360)'
p1337
sS'Action'
p1338
S'[ ClassName: android.widget.EditText; Text: [\xe4\xb8\xad\xe5\xa4\xa7\xe5\x8a\x9b\xe5\xbe\xb7]; ContentDescription: null; ItemCount: -1; CurrentItemIndex: -1; IsEnabled: true; IsPassword: false; IsChecked: false; IsFullScreen: false; Scrollable: false; BeforeText: null; FromIndex: -1; ToIndex: -1; ScrollX: -1; ScrollY: -1; MaxScrollX: -1; MaxScrollY: -1; AddedCount: -1; RemovedCount: -1; ParcelableData: null ]'
p1339
sS'MovementGranularity'
p1340
g6
sa(dp1341
S'EventTime'
p1342
S'101431217'
p1343
sg4
L1449713957971L
sS'recordCount'
p1344
g6
sS'EventType'
p1345
S'TYPE_WINDOW_CONTENT_CHANGED'
p1346
sS'PackageName'
p1347
S'com.example.myfristandroid'
p1348
sS'OutBounds'
p1349
S'Rect(-719, 140 - 0, 1074)'
p1350
sS'Action'
p1351
S'[ ClassName: android.widget.GridView; Text: []; ContentDescription: null; ItemCount: 9; CurrentItemIndex: -1; IsEnabled: true; IsPassword: false; IsChecked: false; IsFullScreen: false; Scrollable: true; BeforeText: null; FromIndex: 0; ToIndex: 5; ScrollX: -1; ScrollY: -1; MaxScrollX: -1; MaxScrollY: -1; AddedCount: -1; RemovedCount: -1; ParcelableData: null ]'
p1352
sS'MovementGranularity'
p1353
g6
sa(dp1354
S'EventTime'
p1355
S'101431343'
p1356
sg4
L1449713958079L
sS'recordCount'
p1357
g6
sS'EventType'
p1358
S'TYPE_WINDOW_CONTENT_CHANGED'
p1359
sS'PackageName'
p1360
S'com.example.myfristandroid'
p1361
sS'OutBounds'
p1362
S'Rect(-719, 140 - 0, 1074)'
p1363
sS'Action'
p1364
S'[ ClassName: android.widget.GridView; Text: []; ContentDescription: null; ItemCount: 9; CurrentItemIndex: -1; IsEnabled: true; IsPassword: false; IsChecked: false; IsFullScreen: false; Scrollable: false; BeforeText: null; FromIndex: 0; ToIndex: 8; ScrollX: -1; ScrollY: -1; MaxScrollX: -1; MaxScrollY: -1; AddedCount: -1; RemovedCount: -1; ParcelableData: null ]'
p1365
sS'MovementGranularity'
p1366
g6
sa(dp1367
S'EventTime'
p1368
S'101431420'
p1369
sg4
L1449713958167L
sS'recordCount'
p1370
g6
sS'EventType'
p1371
S'TYPE_VIEW_SCROLLED'
p1372
sS'PackageName'
p1373
S'com.example.myfristandroid'
p1374
sS'OutBounds'
p1375
S'Rect(-719, 140 - 0, 1074)'
p1376
sS'Action'
p1377
S'[ ClassName: android.widget.GridView; Text: []; ContentDescription: null; ItemCount: 9; CurrentItemIndex: -1; IsEnabled: true; IsPassword: false; IsChecked: false; IsFullScreen: false; Scrollable: false; BeforeText: null; FromIndex: 0; ToIndex: 8; ScrollX: -1; ScrollY: -1; MaxScrollX: -1; MaxScrollY: -1; AddedCount: -1; RemovedCount: -1; ParcelableData: null ]'
p1378
sS'MovementGranularity'
p1379
g6
sa(dp1380
S'EventTime'
p1381
S'101435260'
p1382
sg4
L1449713961965L
sS'recordCount'
p1383
g6
sS'EventType'
p1384
S'TYPE_VIEW_CLICKED'
p1385
sS'PackageName'
p1386
S'com.example.myfristandroid'
p1387
sS'OutBounds'
p1388
S'Rect(260, 230 - 460, 290)'
p1389
sS'Action'
p1390
S'[ ClassName: android.widget.Button; Text: [\xe9\x81\xa5 \xe4\xbf\xa1]; ContentDescription: null; ItemCount: -1; CurrentItemIndex: -1; IsEnabled: true; IsPassword: false; IsChecked: false; IsFullScreen: false; Scrollable: false; BeforeText: null; FromIndex: -1; ToIndex: -1; ScrollX: -1; ScrollY: -1; MaxScrollX: -1; MaxScrollY: -1; AddedCount: -1; RemovedCount: -1; ParcelableData: null ]'
p1391
sS'MovementGranularity'
p1392
g6
sa(dp1393
S'EventTime'
p1394
S'101435365'
p1395
sg4
L1449713962076L
sS'recordCount'
p1396
g6
sS'EventType'
p1397
S'TYPE_WINDOW_STATE_CHANGED'
p1398
sS'PackageName'
p1399
S'com.example.myfristandroid'
p1400
sS'OutBounds'
p1401
S'Rect(0, 0 - 720, 1184)'
p1402
sS'Action'
p1403
S'[ ClassName: com.example.myfristandroid.HuzAlertDialog; Text: [\xe6\x8f\x90\xe7\xa4\xba, \xe8\xaf\xb7\xe5\x85\x88\xe9\x80\x89\xe6\x8b\xa9\xe5\x8e\x82\xe7\xab\x99, \xe7\xa1\xae\xe5\xae\x9a]; ContentDescription: null; ItemCount: -1; CurrentItemIndex: -1; IsEnabled: true; IsPassword: false; IsChecked: false; IsFullScreen: true; Scrollable: false; BeforeText: null; FromIndex: -1; ToIndex: -1; ScrollX: -1; ScrollY: -1; MaxScrollX: -1; MaxScrollY: -1; AddedCount: -1; RemovedCount: -1; ParcelableData: null ]'
p1404
sS'MovementGranularity'
p1405
g6
sa(dp1406
S'EventTime'
p1407
S'101435528'
p1408
sg4
L1449713962236L
sS'recordCount'
p1409
g6
sS'EventType'
p1410
S'TYPE_WINDOW_CONTENT_CHANGED'
p1411
sS'PackageName'
p1412
S'com.example.myfristandroid'
p1413
sS'OutBounds'
p1414
S'Rect(59, 562 - 673, 632)'
p1415
sS'Action'
p1416
S'[ ClassName: android.widget.TextView; Text: []; ContentDescription: null; ItemCount: -1; CurrentItemIndex: -1; IsEnabled: true; IsPassword: false; IsChecked: false; IsFullScreen: false; Scrollable: false; BeforeText: null; FromIndex: -1; ToIndex: -1; ScrollX: -1; ScrollY: -1; MaxScrollX: -1; MaxScrollY: -1; AddedCount: -1; RemovedCount: -1; ParcelableData: null ]'
p1417
sS'MovementGranularity'
p1418
g6
sa(dp1419
S'EventTime'
p1420
S'101436692'
p1421
sg4
L1449713963396L
sS'recordCount'
p1422
g6
sS'EventType'
p1423
S'TYPE_VIEW_CLICKED'
p1424
sS'PackageName'
p1425
S'com.example.myfristandroid'
p1426
sS'OutBounds'
p1427
S'Rect(203, 664 - 520, 760)'
p1428
sS'Action'
p1429
S'[ ClassName: android.widget.Button; Text: [\xe7\xa1\xae\xe5\xae\x9a]; ContentDescription: null; ItemCount: -1; CurrentItemIndex: -1; IsEnabled: true; IsPassword: false; IsChecked: false; IsFullScreen: false; Scrollable: false; BeforeText: null; FromIndex: -1; ToIndex: -1; ScrollX: -1; ScrollY: -1; MaxScrollX: -1; MaxScrollY: -1; AddedCount: -1; RemovedCount: -1; ParcelableData: null ]'
p1430
sS'MovementGranularity'
p1431
g6
sa(dp1432
S'EventTime'
p1433
S'101436731'
p1434
sg4
L1449713963474L
sS'recordCount'
p1435
g6
sS'EventType'
p1436
S'TYPE_WINDOW_STATE_CHANGED'
p1437
sS'PackageName'
p1438
S'com.example.myfristandroid'
p1439
sS'OutBounds'
p1440
S'Rect(0, 0 - 720, 1184)'
p1441
sS'Action'
p1442
S'[ ClassName: com.example.myfristandroid.MainActivity; Text: [SE-1800\xe7\xa7\xbb\xe5\x8a\xa8APP]; ContentDescription: null; ItemCount: -1; CurrentItemIndex: -1; IsEnabled: true; IsPassword: false; IsChecked: false; IsFullScreen: true; Scrollable: false; BeforeText: null; FromIndex: -1; ToIndex: -1; ScrollX: -1; ScrollY: -1; MaxScrollX: -1; MaxScrollY: -1; AddedCount: -1; RemovedCount: -1; ParcelableData: null ]'
p1443
sS'MovementGranularity'
p1444
g6
sa(dp1445
S'EventTime'
p1446
S'101437453'
p1447
sg4
L1449713964163L
sS'recordCount'
p1448
g6
sS'EventType'
p1449
S'TYPE_VIEW_CLICKED'
p1450
sS'PackageName'
p1451
S'com.example.myfristandroid'
p1452
sS'OutBounds'
p1453
S'Rect(260, 160 - 670, 220)'
p1454
sS'Action'
p1455
S'[ ClassName: android.widget.Button; Text: [\xe7\x82\xb9\xe5\x87\xbb\xe9\x80\x89\xe6\x8b\xa9\xe5\x8e\x82\xe7\xab\x99]; ContentDescription: null; ItemCount: -1; CurrentItemIndex: -1; IsEnabled: true; IsPassword: false; IsChecked: false; IsFullScreen: false; Scrollable: false; BeforeText: null; FromIndex: -1; ToIndex: -1; ScrollX: -1; ScrollY: -1; MaxScrollX: -1; MaxScrollY: -1; AddedCount: -1; RemovedCount: -1; ParcelableData: null ]'
p1456
sS'MovementGranularity'
p1457
g6
sa(dp1458
S'EventTime'
p1459
S'101437515'
p1460
sg4
L1449713964227L
sS'recordCount'
p1461
g6
sS'EventType'
p1462
S'TYPE_WINDOW_STATE_CHANGED'
p1463
sS'PackageName'
p1464
S'com.example.myfristandroid'
p1465
sS'OutBounds'
p1466
S'Rect(260, 517 - 460, 717)'
p1467
sS'Action'
p1468
S'[ ClassName: com.example.myfristandroid.CustomProgressDialog; Text: []; ContentDescription: null; ItemCount: -1; CurrentItemIndex: -1; IsEnabled: true; IsPassword: false; IsChecked: false; IsFullScreen: false; Scrollable: false; BeforeText: null; FromIndex: -1; ToIndex: -1; ScrollX: -1; ScrollY: -1; MaxScrollX: -1; MaxScrollY: -1; AddedCount: -1; RemovedCount: -1; ParcelableData: null ]'
p1469
sS'MovementGranularity'
p1470
g6
sa(dp1471
S'EventTime'
p1472
S'101438639'
p1473
sg4
L1449713965368L
sS'recordCount'
p1474
g6
sS'EventType'
p1475
S'TYPE_WINDOW_STATE_CHANGED'
p1476
sS'PackageName'
p1477
S'com.example.myfristandroid'
p1478
sS'OutBounds'
p1479
S'Rect(0, 0 - 720, 1184)'
p1480
sS'Action'
p1481
S'[ ClassName: com.example.myfristandroid.HuzAlertDialog; Text: [\xe6\x8f\x90\xe7\xa4\xba, \xe8\xaf\xb7\xe5\x85\x88\xe7\x99\xbb\xe5\xbd\x95, \xe7\xa1\xae\xe5\xae\x9a]; ContentDescription: null; ItemCount: -1; CurrentItemIndex: -1; IsEnabled: true; IsPassword: false; IsChecked: false; IsFullScreen: true; Scrollable: false; BeforeText: null; FromIndex: -1; ToIndex: -1; ScrollX: -1; ScrollY: -1; MaxScrollX: -1; MaxScrollY: -1; AddedCount: -1; RemovedCount: -1; ParcelableData: null ]'
p1482
sS'MovementGranularity'
p1483
g6
sa(dp1484
S'EventTime'
p1485
S'101438825'
p1486
sg4
L1449713965534L
sS'recordCount'
p1487
g6
sS'EventType'
p1488
S'TYPE_WINDOW_CONTENT_CHANGED'
p1489
sS'PackageName'
p1490
S'com.example.myfristandroid'
p1491
sS'OutBounds'
p1492
S'Rect(59, 562 - 673, 632)'
p1493
sS'Action'
p1494
S'[ ClassName: android.widget.TextView; Text: []; ContentDescription: null; ItemCount: -1; CurrentItemIndex: -1; IsEnabled: true; IsPassword: false; IsChecked: false; IsFullScreen: false; Scrollable: false; BeforeText: null; FromIndex: -1; ToIndex: -1; ScrollX: -1; ScrollY: -1; MaxScrollX: -1; MaxScrollY: -1; AddedCount: -1; RemovedCount: -1; ParcelableData: null ]'
p1495
sS'MovementGranularity'
p1496
g6
sa(dp1497
S'EventTime'
p1498
S'101439964'
p1499
sg4
L1449713966669L
sS'recordCount'
p1500
g6
sS'EventType'
p1501
S'TYPE_VIEW_CLICKED'
p1502
sS'PackageName'
p1503
S'com.example.myfristandroid'
p1504
sS'OutBounds'
p1505
S'Rect(203, 664 - 520, 760)'
p1506
sS'Action'
p1507
S'[ ClassName: android.widget.Button; Text: [\xe7\xa1\xae\xe5\xae\x9a]; ContentDescription: null; ItemCount: -1; CurrentItemIndex: -1; IsEnabled: true; IsPassword: false; IsChecked: false; IsFullScreen: false; Scrollable: false; BeforeText: null; FromIndex: -1; ToIndex: -1; ScrollX: -1; ScrollY: -1; MaxScrollX: -1; MaxScrollY: -1; AddedCount: -1; RemovedCount: -1; ParcelableData: null ]'
p1508
sS'MovementGranularity'
p1509
g6
sa(dp1510
S'EventTime'
p1511
S'101440015'
p1512
sg4
L1449713966757L
sS'recordCount'
p1513
g6
sS'EventType'
p1514
S'TYPE_WINDOW_STATE_CHANGED'
p1515
sS'PackageName'
p1516
S'com.example.myfristandroid'
p1517
sS'OutBounds'
p1518
S'Rect(0, 0 - 720, 1184)'
p1519
sS'Action'
p1520
S'[ ClassName: com.example.myfristandroid.MainActivity; Text: [SE-1800\xe7\xa7\xbb\xe5\x8a\xa8APP]; ContentDescription: null; ItemCount: -1; CurrentItemIndex: -1; IsEnabled: true; IsPassword: false; IsChecked: false; IsFullScreen: true; Scrollable: false; BeforeText: null; FromIndex: -1; ToIndex: -1; ScrollX: -1; ScrollY: -1; MaxScrollX: -1; MaxScrollY: -1; AddedCount: -1; RemovedCount: -1; ParcelableData: null ]'
p1521
sS'MovementGranularity'
p1522
g6
sa(dp1523
S'EventTime'
p1524
S'101441975'
p1525
sg4
L1449713968680L
sS'recordCount'
p1526
g6
sS'EventType'
p1527
S'TYPE_VIEW_CLICKED'
p1528
sS'PackageName'
p1529
S'com.example.myfristandroid'
p1530
sS'OutBounds'
p1531
S'Rect(260, 160 - 670, 220)'
p1532
sS'Action'
p1533
S'[ ClassName: android.widget.Button; Text: [\xe7\x82\xb9\xe5\x87\xbb\xe9\x80\x89\xe6\x8b\xa9\xe5\x8e\x82\xe7\xab\x99]; ContentDescription: null; ItemCount: -1; CurrentItemIndex: -1; IsEnabled: true; IsPassword: false; IsChecked: false; IsFullScreen: false; Scrollable: false; BeforeText: null; FromIndex: -1; ToIndex: -1; ScrollX: -1; ScrollY: -1; MaxScrollX: -1; MaxScrollY: -1; AddedCount: -1; RemovedCount: -1; ParcelableData: null ]'
p1534
sS'MovementGranularity'
p1535
g6
sa(dp1536
S'EventTime'
p1537
S'101442034'
p1538
sg4
L1449713968754L
sS'recordCount'
p1539
g6
sS'EventType'
p1540
S'TYPE_WINDOW_STATE_CHANGED'
p1541
sS'PackageName'
p1542
S'com.example.myfristandroid'
p1543
sS'OutBounds'
p1544
S'Rect(260, 517 - 460, 717)'
p1545
sS'Action'
p1546
S'[ ClassName: com.example.myfristandroid.CustomProgressDialog; Text: []; ContentDescription: null; ItemCount: -1; CurrentItemIndex: -1; IsEnabled: true; IsPassword: false; IsChecked: false; IsFullScreen: false; Scrollable: false; BeforeText: null; FromIndex: -1; ToIndex: -1; ScrollX: -1; ScrollY: -1; MaxScrollX: -1; MaxScrollY: -1; AddedCount: -1; RemovedCount: -1; ParcelableData: null ]'
p1547
sS'MovementGranularity'
p1548
g6
sa(dp1549
S'EventTime'
p1550
S'101442676'
p1551
sg4
L1449713969435L
sS'recordCount'
p1552
g6
sS'EventType'
p1553
S'TYPE_WINDOW_STATE_CHANGED'
p1554
sS'PackageName'
p1555
S'com.example.myfristandroid'
p1556
sS'OutBounds'
p1557
S'Rect(0, 0 - 720, 1184)'
p1558
sS'Action'
p1559
S'[ ClassName: com.example.myfristandroid.HuzAlertDialog; Text: [\xe6\x8f\x90\xe7\xa4\xba, \xe8\xaf\xb7\xe5\x85\x88\xe7\x99\xbb\xe5\xbd\x95, \xe7\xa1\xae\xe5\xae\x9a]; ContentDescription: null; ItemCount: -1; CurrentItemIndex: -1; IsEnabled: true; IsPassword: false; IsChecked: false; IsFullScreen: true; Scrollable: false; BeforeText: null; FromIndex: -1; ToIndex: -1; ScrollX: -1; ScrollY: -1; MaxScrollX: -1; MaxScrollY: -1; AddedCount: -1; RemovedCount: -1; ParcelableData: null ]'
p1560
sS'MovementGranularity'
p1561
g6
sa(dp1562
S'EventTime'
p1563
S'101442863'
p1564
sg4
L1449713969570L
sS'recordCount'
p1565
g6
sS'EventType'
p1566
S'TYPE_WINDOW_CONTENT_CHANGED'
p1567
sS'PackageName'
p1568
S'com.example.myfristandroid'
p1569
sS'OutBounds'
p1570
S'Rect(43, 469 - 693, 542)'
p1571
sS'Action'
p1572
S'[ ClassName: android.widget.TextView; Text: []; ContentDescription: null; ItemCount: -1; CurrentItemIndex: -1; IsEnabled: true; IsPassword: false; IsChecked: false; IsFullScreen: false; Scrollable: false; BeforeText: null; FromIndex: -1; ToIndex: -1; ScrollX: -1; ScrollY: -1; MaxScrollX: -1; MaxScrollY: -1; AddedCount: -1; RemovedCount: -1; ParcelableData: null ]'
p1573
sS'MovementGranularity'
p1574
g6
sa(dp1575
S'EventTime'
p1576
S'101448537'
p1577
sg4
L1449713975266L
sS'recordCount'
p1578
g6
sS'EventType'
p1579
S'TYPE_WINDOW_STATE_CHANGED'
p1580
sS'PackageName'
p1581
S'com.example.myfristandroid'
p1582
sS'OutBounds'
p1583
S'Rect(0, 0 - 720, 1184)'
p1584
sS'Action'
p1585
S'[ ClassName: com.example.myfristandroid.MainActivity; Text: [SE-1800\xe7\xa7\xbb\xe5\x8a\xa8APP]; ContentDescription: null; ItemCount: -1; CurrentItemIndex: -1; IsEnabled: true; IsPassword: false; IsChecked: false; IsFullScreen: true; Scrollable: false; BeforeText: null; FromIndex: -1; ToIndex: -1; ScrollX: -1; ScrollY: -1; MaxScrollX: -1; MaxScrollY: -1; AddedCount: -1; RemovedCount: -1; ParcelableData: null ]'
p1586
sS'MovementGranularity'
p1587
g6
sa(dp1588
S'EventTime'
p1589
S'101450272'
p1590
sg4
L1449713976977L
sS'recordCount'
p1591
g6
sS'EventType'
p1592
S'TYPE_VIEW_CLICKED'
p1593
sS'PackageName'
p1594
S'com.example.myfristandroid'
p1595
sS'OutBounds'
p1596
S'Rect(360, 1074 - 540, 1184)'
p1597
sS'Action'
p1598
S'[ ClassName: android.widget.LinearLayout; Text: [\xe6\x9f\xa5\xe7\x9c\x8b\xe5\xae\x9e\xe6\x97\xb6\xe5\x91\x8a\xe8\xad\xa6\xe4\xbf\xa1\xe6\x81\xaf, \xe5\x91\x8a\xe8\xad\xa6]; ContentDescription: null; ItemCount: -1; CurrentItemIndex: -1; IsEnabled: true; IsPassword: false; IsChecked: false; IsFullScreen: false; Scrollable: false; BeforeText: null; FromIndex: -1; ToIndex: -1; ScrollX: -1; ScrollY: -1; MaxScrollX: -1; MaxScrollY: -1; AddedCount: -1; RemovedCount: -1; ParcelableData: null ]'
p1599
sS'MovementGranularity'
p1600
g6
sa(dp1601
S'EventTime'
p1602
S'101450296'
p1603
sg4
L1449713977025L
sS'recordCount'
p1604
g6
sS'EventType'
p1605
S'TYPE_VIEW_FOCUSED'
p1606
sS'PackageName'
p1607
S'com.example.myfristandroid'
p1608
sS'OutBounds'
p1609
S'Rect(14, 250 - 722, 310)'
p1610
sS'Action'
p1611
S'[ ClassName: android.widget.EditText; Text: [\xe6\x90\x9c\xe7\xb4\xa2]; ContentDescription: null; ItemCount: 8; CurrentItemIndex: 2; IsEnabled: true; IsPassword: false; IsChecked: false; IsFullScreen: false; Scrollable: false; BeforeText: null; FromIndex: -1; ToIndex: -1; ScrollX: -1; ScrollY: -1; MaxScrollX: -1; MaxScrollY: -1; AddedCount: -1; RemovedCount: -1; ParcelableData: null ]'
p1612
sS'MovementGranularity'
p1613
g6
sa(dp1614
S'EventTime'
p1615
S'101450402'
p1616
sg4
L1449713977112L
sS'recordCount'
p1617
g6
sS'EventType'
p1618
S'TYPE_WINDOW_CONTENT_CHANGED'
p1619
sS'PackageName'
p1620
S'com.example.myfristandroid'
p1621
sS'OutBounds'
p1622
S'Rect(1220, 512 - 1430, 551)'
p1623
sS'Action'
p1624
S'[ ClassName: android.widget.TextView; Text: []; ContentDescription: null; ItemCount: -1; CurrentItemIndex: -1; IsEnabled: true; IsPassword: false; IsChecked: false; IsFullScreen: false; Scrollable: false; BeforeText: null; FromIndex: -1; ToIndex: -1; ScrollX: -1; ScrollY: -1; MaxScrollX: -1; MaxScrollY: -1; AddedCount: -1; RemovedCount: -1; ParcelableData: null ]'
p1625
sS'MovementGranularity'
p1626
g6
sa(dp1627
S'EventTime'
p1628
S'101450427'
p1629
sg4
L1449713977172L
sS'recordCount'
p1630
g6
sS'EventType'
p1631
S'TYPE_VIEW_SCROLLED'
p1632
sS'PackageName'
p1633
S'com.example.myfristandroid'
p1634
sS'OutBounds'
p1635
S'Rect(0, 140 - 720, 1074)'
p1636
sS'Action'
p1637
S'[ ClassName: android.support.v4.view.ViewPager; Text: []; ContentDescription: null; ItemCount: -1; CurrentItemIndex: -1; IsEnabled: true; IsPassword: false; IsChecked: false; IsFullScreen: false; Scrollable: false; BeforeText: null; FromIndex: -1; ToIndex: -1; ScrollX: -1; ScrollY: -1; MaxScrollX: -1; MaxScrollY: -1; AddedCount: -1; RemovedCount: -1; ParcelableData: null ]'
p1638
sS'MovementGranularity'
p1639
g6
sa(dp1640
S'EventTime'
p1641
S'101450547'
p1642
sg4
L1449713977276L
sS'recordCount'
p1643
g6
sS'EventType'
p1644
S'TYPE_VIEW_SCROLLED'
p1645
sS'PackageName'
p1646
S'com.example.myfristandroid'
p1647
sS'OutBounds'
p1648
S'Rect(0, 140 - 720, 1074)'
p1649
sS'Action'
p1650
S'[ ClassName: android.support.v4.view.ViewPager; Text: []; ContentDescription: null; ItemCount: -1; CurrentItemIndex: -1; IsEnabled: true; IsPassword: false; IsChecked: false; IsFullScreen: false; Scrollable: false; BeforeText: null; FromIndex: -1; ToIndex: -1; ScrollX: -1; ScrollY: -1; MaxScrollX: -1; MaxScrollY: -1; AddedCount: -1; RemovedCount: -1; ParcelableData: null ]'
p1651
sS'MovementGranularity'
p1652
g6
sa(dp1653
S'EventTime'
p1654
S'101452273'
p1655
sg4
L1449713978979L
sS'recordCount'
p1656
g6
sS'EventType'
p1657
S'TYPE_VIEW_CLICKED'
p1658
sS'PackageName'
p1659
S'com.example.myfristandroid'
p1660
sS'OutBounds'
p1661
S'Rect(110, 170 - 350, 230)'
p1662
sS'Action'
p1663
S'[ ClassName: android.widget.Button; Text: [\xe5\xae\x9e\xe6\x97\xb6]; ContentDescription: null; ItemCount: -1; CurrentItemIndex: -1; IsEnabled: true; IsPassword: false; IsChecked: false; IsFullScreen: false; Scrollable: false; BeforeText: null; FromIndex: -1; ToIndex: -1; ScrollX: -1; ScrollY: -1; MaxScrollX: -1; MaxScrollY: -1; AddedCount: -1; RemovedCount: -1; ParcelableData: null ]'
p1664
sS'MovementGranularity'
p1665
g6
sa(dp1666
S'EventTime'
p1667
S'101452464'
p1668
sg4
L1449713979170L
sS'recordCount'
p1669
g6
sS'EventType'
p1670
S'TYPE_VIEW_CLICKED'
p1671
sS'PackageName'
p1672
S'com.example.myfristandroid'
p1673
sS'OutBounds'
p1674
S'Rect(110, 170 - 350, 230)'
p1675
sS'Action'
p1676
S'[ ClassName: android.widget.Button; Text: [\xe5\xae\x9e\xe6\x97\xb6]; ContentDescription: null; ItemCount: -1; CurrentItemIndex: -1; IsEnabled: true; IsPassword: false; IsChecked: false; IsFullScreen: false; Scrollable: false; BeforeText: null; FromIndex: -1; ToIndex: -1; ScrollX: -1; ScrollY: -1; MaxScrollX: -1; MaxScrollY: -1; AddedCount: -1; RemovedCount: -1; ParcelableData: null ]'
p1677
sS'MovementGranularity'
p1678
g6
sa(dp1679
S'EventTime'
p1680
S'101452645'
p1681
sg4
L1449713979350L
sS'recordCount'
p1682
g6
sS'EventType'
p1683
S'TYPE_VIEW_CLICKED'
p1684
sS'PackageName'
p1685
S'com.example.myfristandroid'
p1686
sS'OutBounds'
p1687
S'Rect(110, 170 - 350, 230)'
p1688
sS'Action'
p1689
S'[ ClassName: android.widget.Button; Text: [\xe5\xae\x9e\xe6\x97\xb6]; ContentDescription: null; ItemCount: -1; CurrentItemIndex: -1; IsEnabled: true; IsPassword: false; IsChecked: false; IsFullScreen: false; Scrollable: false; BeforeText: null; FromIndex: -1; ToIndex: -1; ScrollX: -1; ScrollY: -1; MaxScrollX: -1; MaxScrollY: -1; AddedCount: -1; RemovedCount: -1; ParcelableData: null ]'
p1690
sS'MovementGranularity'
p1691
g6
sa(dp1692
S'EventTime'
p1693
S'101452818'
p1694
sg4
L1449713979525L
sS'recordCount'
p1695
g6
sS'EventType'
p1696
S'TYPE_VIEW_CLICKED'
p1697
sS'PackageName'
p1698
S'com.example.myfristandroid'
p1699
sS'OutBounds'
p1700
S'Rect(110, 170 - 350, 230)'
p1701
sS'Action'
p1702
S'[ ClassName: android.widget.Button; Text: [\xe5\xae\x9e\xe6\x97\xb6]; ContentDescription: null; ItemCount: -1; CurrentItemIndex: -1; IsEnabled: true; IsPassword: false; IsChecked: false; IsFullScreen: false; Scrollable: false; BeforeText: null; FromIndex: -1; ToIndex: -1; ScrollX: -1; ScrollY: -1; MaxScrollX: -1; MaxScrollY: -1; AddedCount: -1; RemovedCount: -1; ParcelableData: null ]'
p1703
sS'MovementGranularity'
p1704
g6
sa(dp1705
S'EventTime'
p1706
S'101454124'
p1707
sg4
L1449713980829L
sS'recordCount'
p1708
g6
sS'EventType'
p1709
S'TYPE_VIEW_CLICKED'
p1710
sS'PackageName'
p1711
S'com.example.myfristandroid'
p1712
sS'OutBounds'
p1713
S'Rect(110, 170 - 350, 230)'
p1714
sS'Action'
p1715
S'[ ClassName: android.widget.Button; Text: [\xe5\xae\x9e\xe6\x97\xb6]; ContentDescription: null; ItemCount: -1; CurrentItemIndex: -1; IsEnabled: true; IsPassword: false; IsChecked: false; IsFullScreen: false; Scrollable: false; BeforeText: null; FromIndex: -1; ToIndex: -1; ScrollX: -1; ScrollY: -1; MaxScrollX: -1; MaxScrollY: -1; AddedCount: -1; RemovedCount: -1; ParcelableData: null ]'
p1716
sS'MovementGranularity'
p1717
g6
sa(dp1718
S'EventTime'
p1719
S'101454284'
p1720
sg4
L1449713980989L
sS'recordCount'
p1721
g6
sS'EventType'
p1722
S'TYPE_VIEW_CLICKED'
p1723
sS'PackageName'
p1724
S'com.example.myfristandroid'
p1725
sS'OutBounds'
p1726
S'Rect(110, 170 - 350, 230)'
p1727
sS'Action'
p1728
S'[ ClassName: android.widget.Button; Text: [\xe5\xae\x9e\xe6\x97\xb6]; ContentDescription: null; ItemCount: -1; CurrentItemIndex: -1; IsEnabled: true; IsPassword: false; IsChecked: false; IsFullScreen: false; Scrollable: false; BeforeText: null; FromIndex: -1; ToIndex: -1; ScrollX: -1; ScrollY: -1; MaxScrollX: -1; MaxScrollY: -1; AddedCount: -1; RemovedCount: -1; ParcelableData: null ]'
p1729
sS'MovementGranularity'
p1730
g6
sa(dp1731
S'EventTime'
p1732
S'101454467'
p1733
sg4
L1449713981172L
sS'recordCount'
p1734
g6
sS'EventType'
p1735
S'TYPE_VIEW_CLICKED'
p1736
sS'PackageName'
p1737
S'com.example.myfristandroid'
p1738
sS'OutBounds'
p1739
S'Rect(110, 170 - 350, 230)'
p1740
sS'Action'
p1741
S'[ ClassName: android.widget.Button; Text: [\xe5\xae\x9e\xe6\x97\xb6]; ContentDescription: null; ItemCount: -1; CurrentItemIndex: -1; IsEnabled: true; IsPassword: false; IsChecked: false; IsFullScreen: false; Scrollable: false; BeforeText: null; FromIndex: -1; ToIndex: -1; ScrollX: -1; ScrollY: -1; MaxScrollX: -1; MaxScrollY: -1; AddedCount: -1; RemovedCount: -1; ParcelableData: null ]'
p1742
sS'MovementGranularity'
p1743
g6
sa(dp1744
S'EventTime'
p1745
S'101455181'
p1746
sg4
L1449713981886L
sS'recordCount'
p1747
g6
sS'EventType'
p1748
S'TYPE_VIEW_CLICKED'
p1749
sS'PackageName'
p1750
S'com.example.myfristandroid'
p1751
sS'OutBounds'
p1752
S'Rect(540, 1074 - 720, 1184)'
p1753
sS'Action'
p1754
S'[ ClassName: android.widget.LinearLayout; Text: [\xe8\xae\xbe\xe7\xbd\xae\xe7\xb3\xbb\xe7\xbb\x9f\xe8\xbf\x90\xe8\xa1\x8c\xe5\x8f\x82\xe6\x95\xb0, \xe8\xae\xbe\xe7\xbd\xae]; ContentDescription: null; ItemCount: -1; CurrentItemIndex: -1; IsEnabled: true; IsPassword: false; IsChecked: false; IsFullScreen: false; Scrollable: false; BeforeText: null; FromIndex: -1; ToIndex: -1; ScrollX: -1; ScrollY: -1; MaxScrollX: -1; MaxScrollY: -1; AddedCount: -1; RemovedCount: -1; ParcelableData: null ]'
p1755
sS'MovementGranularity'
p1756
g6
sa(dp1757
S'EventTime'
p1758
S'101455186'
p1759
sg4
L1449713981905L
sS'recordCount'
p1760
g6
sS'EventType'
p1761
S'TYPE_VIEW_FOCUSED'
p1762
sS'PackageName'
p1763
S'com.example.myfristandroid'
p1764
sS'OutBounds'
p1765
S'Rect(213, 150 - 723, 210)'
p1766
sS'Action'
p1767
S'[ ClassName: android.widget.EditText; Text: [\xe6\x9c\x8d\xe5\x8a\xa1\xe5\x99\xa8\xe5\x9c\xb0\xe5\x9d\x80]; ContentDescription: null; ItemCount: 10; CurrentItemIndex: 0; IsEnabled: true; IsPassword: false; IsChecked: false; IsFullScreen: false; Scrollable: false; BeforeText: null; FromIndex: -1; ToIndex: -1; ScrollX: -1; ScrollY: -1; MaxScrollX: -1; MaxScrollY: -1; AddedCount: -1; RemovedCount: -1; ParcelableData: null ]'
p1768
sS'MovementGranularity'
p1769
g6
sa(dp1770
S'EventTime'
p1771
S'101455205'
p1772
sg4
L1449713981923L
sS'recordCount'
p1773
g6
sS'EventType'
p1774
S'TYPE_VIEW_TEXT_SELECTION_CHANGED'
p1775
sS'PackageName'
p1776
S'com.example.myfristandroid'
p1777
sS'OutBounds'
p1778
S'Rect(204, 220 - 714, 280)'
p1779
sS'Action'
p1780
S'[ ClassName: android.widget.EditText; Text: [143]; ContentDescription: null; ItemCount: 3; CurrentItemIndex: -1; IsEnabled: true; IsPassword: false; IsChecked: false; IsFullScreen: false; Scrollable: false; BeforeText: null; FromIndex: 0; ToIndex: 0; ScrollX: -1; ScrollY: -1; MaxScrollX: -1; MaxScrollY: -1; AddedCount: -1; RemovedCount: -1; ParcelableData: null ]'
p1781
sS'MovementGranularity'
p1782
g6
sa(dp1783
S'EventTime'
p1784
S'101455208'
p1785
sg4
L1449713981950L
sS'recordCount'
p1786
g6
sS'EventType'
p1787
S'TYPE_WINDOW_CONTENT_CHANGED'
p1788
sS'PackageName'
p1789
S'com.example.myfristandroid'
p1790
sS'OutBounds'
p1791
S'Rect(220, 500 - 500, 560)'
p1792
sS'Action'
p1793
S'[ ClassName: android.widget.Button; Text: []; ContentDescription: null; ItemCount: -1; CurrentItemIndex: -1; IsEnabled: true; IsPassword: false; IsChecked: false; IsFullScreen: false; Scrollable: false; BeforeText: null; FromIndex: -1; ToIndex: -1; ScrollX: -1; ScrollY: -1; MaxScrollX: -1; MaxScrollY: -1; AddedCount: -1; RemovedCount: -1; ParcelableData: null ]'
p1794
sS'MovementGranularity'
p1795
g6
sa(dp1796
S'EventTime'
p1797
S'101455330'
p1798
sg4
L1449713982053L
sS'recordCount'
p1799
g6
sS'EventType'
p1800
S'TYPE_VIEW_SCROLLED'
p1801
sS'PackageName'
p1802
S'com.example.myfristandroid'
p1803
sS'OutBounds'
p1804
S'Rect(0, 140 - 720, 1074)'
p1805
sS'Action'
p1806
S'[ ClassName: android.support.v4.view.ViewPager; Text: []; ContentDescription: null; ItemCount: -1; CurrentItemIndex: -1; IsEnabled: true; IsPassword: false; IsChecked: false; IsFullScreen: false; Scrollable: false; BeforeText: null; FromIndex: -1; ToIndex: -1; ScrollX: -1; ScrollY: -1; MaxScrollX: -1; MaxScrollY: -1; AddedCount: -1; RemovedCount: -1; ParcelableData: null ]'
p1807
sS'MovementGranularity'
p1808
g6
sa(dp1809
S'EventTime'
p1810
S'101455446'
p1811
sg4
L1449713982165L
sS'recordCount'
p1812
g6
sS'EventType'
p1813
S'TYPE_VIEW_SCROLLED'
p1814
sS'PackageName'
p1815
S'com.example.myfristandroid'
p1816
sS'OutBounds'
p1817
S'Rect(0, 140 - 720, 1074)'
p1818
sS'Action'
p1819
S'[ ClassName: android.support.v4.view.ViewPager; Text: []; ContentDescription: null; ItemCount: -1; CurrentItemIndex: -1; IsEnabled: true; IsPassword: false; IsChecked: false; IsFullScreen: false; Scrollable: false; BeforeText: null; FromIndex: -1; ToIndex: -1; ScrollX: -1; ScrollY: -1; MaxScrollX: -1; MaxScrollY: -1; AddedCount: -1; RemovedCount: -1; ParcelableData: null ]'
p1820
sS'MovementGranularity'
p1821
g6
sa(dp1822
S'EventTime'
p1823
S'101456333'
p1824
sg4
L1449713983038L
sS'recordCount'
p1825
g6
sS'EventType'
p1826
S'TYPE_VIEW_CLICKED'
p1827
sS'PackageName'
p1828
S'com.example.myfristandroid'
p1829
sS'OutBounds'
p1830
S'Rect(220, 500 - 500, 560)'
p1831
sS'Action'
p1832
S'[ ClassName: android.widget.Button; Text: [\xe7\x99\xbb\xe5\xbd\x95]; ContentDescription: null; ItemCount: -1; CurrentItemIndex: -1; IsEnabled: true; IsPassword: false; IsChecked: false; IsFullScreen: false; Scrollable: false; BeforeText: null; FromIndex: -1; ToIndex: -1; ScrollX: -1; ScrollY: -1; MaxScrollX: -1; MaxScrollY: -1; AddedCount: -1; RemovedCount: -1; ParcelableData: null ]'
p1833
sS'MovementGranularity'
p1834
g6
sa(dp1835
S'EventTime'
p1836
S'101456755'
p1837
sg4
L1449713983470L
sS'recordCount'
p1838
g6
sS'EventType'
p1839
S'TYPE_WINDOW_STATE_CHANGED'
p1840
sS'PackageName'
p1841
S'com.example.myfristandroid'
p1842
sS'OutBounds'
p1843
S'Rect(0, 0 - 720, 1184)'
p1844
sS'Action'
p1845
S'[ ClassName: com.example.myfristandroid.HuzAlertDialog; Text: [\xe6\x8f\x90\xe7\xa4\xba, \xe7\x99\xbb\xe5\xbd\x95\xe5\xa4\xb1\xe8\xb4\xa5\xef\xbc\x8c\xe5\xaf\x86\xe7\xa0\x81\xe9\x94\x99\xe8\xaf\xaf, \xe7\xa1\xae\xe5\xae\x9a]; ContentDescription: null; ItemCount: -1; CurrentItemIndex: -1; IsEnabled: true; IsPassword: false; IsChecked: false; IsFullScreen: true; Scrollable: false; BeforeText: null; FromIndex: -1; ToIndex: -1; ScrollX: -1; ScrollY: -1; MaxScrollX: -1; MaxScrollY: -1; AddedCount: -1; RemovedCount: -1; ParcelableData: null ]'
p1846
sS'MovementGranularity'
p1847
g6
sa(dp1848
S'EventTime'
p1849
S'101456920'
p1850
sg4
L1449713983627L
sS'recordCount'
p1851
g6
sS'EventType'
p1852
S'TYPE_WINDOW_CONTENT_CHANGED'
p1853
sS'PackageName'
p1854
S'com.example.myfristandroid'
p1855
sS'OutBounds'
p1856
S'Rect(59, 562 - 673, 632)'
p1857
sS'Action'
p1858
S'[ ClassName: android.widget.TextView; Text: []; ContentDescription: null; ItemCount: -1; CurrentItemIndex: -1; IsEnabled: true; IsPassword: false; IsChecked: false; IsFullScreen: false; Scrollable: false; BeforeText: null; FromIndex: -1; ToIndex: -1; ScrollX: -1; ScrollY: -1; MaxScrollX: -1; MaxScrollY: -1; AddedCount: -1; RemovedCount: -1; ParcelableData: null ]'
p1859
sS'MovementGranularity'
p1860
g6
sa(dp1861
S'EventTime'
p1862
S'101458148'
p1863
sg4
L1449713984853L
sS'recordCount'
p1864
g6
sS'EventType'
p1865
S'TYPE_VIEW_CLICKED'
p1866
sS'PackageName'
p1867
S'com.example.myfristandroid'
p1868
sS'OutBounds'
p1869
S'Rect(203, 664 - 520, 760)'
p1870
sS'Action'
p1871
S'[ ClassName: android.widget.Button; Text: [\xe7\xa1\xae\xe5\xae\x9a]; ContentDescription: null; ItemCount: -1; CurrentItemIndex: -1; IsEnabled: true; IsPassword: false; IsChecked: false; IsFullScreen: false; Scrollable: false; BeforeText: null; FromIndex: -1; ToIndex: -1; ScrollX: -1; ScrollY: -1; MaxScrollX: -1; MaxScrollY: -1; AddedCount: -1; RemovedCount: -1; ParcelableData: null ]'
p1872
sS'MovementGranularity'
p1873
g6
sa(dp1874
S'EventTime'
p1875
S'101458196'
p1876
sg4
L1449713984924L
sS'recordCount'
p1877
g6
sS'EventType'
p1878
S'TYPE_WINDOW_STATE_CHANGED'
p1879
sS'PackageName'
p1880
S'com.example.myfristandroid'
p1881
sS'OutBounds'
p1882
S'Rect(0, 0 - 720, 1184)'
p1883
sS'Action'
p1884
S'[ ClassName: com.example.myfristandroid.MainActivity; Text: [SE-1800\xe7\xa7\xbb\xe5\x8a\xa8APP]; ContentDescription: null; ItemCount: -1; CurrentItemIndex: -1; IsEnabled: true; IsPassword: false; IsChecked: false; IsFullScreen: true; Scrollable: false; BeforeText: null; FromIndex: -1; ToIndex: -1; ScrollX: -1; ScrollY: -1; MaxScrollX: -1; MaxScrollY: -1; AddedCount: -1; RemovedCount: -1; ParcelableData: null ]'
p1885
sS'MovementGranularity'
p1886
g6
sa(dp1887
S'EventTime'
p1888
S'101459007'
p1889
sg4
L1449713985713L
sS'recordCount'
p1890
g6
sS'EventType'
p1891
S'TYPE_VIEW_CLICKED'
p1892
sS'PackageName'
p1893
S'com.example.myfristandroid'
p1894
sS'OutBounds'
p1895
S'Rect(220, 500 - 500, 560)'
p1896
sS'Action'
p1897
S'[ ClassName: android.widget.Button; Text: [\xe7\x99\xbb\xe5\xbd\x95]; ContentDescription: null; ItemCount: -1; CurrentItemIndex: -1; IsEnabled: true; IsPassword: false; IsChecked: false; IsFullScreen: false; Scrollable: false; BeforeText: null; FromIndex: -1; ToIndex: -1; ScrollX: -1; ScrollY: -1; MaxScrollX: -1; MaxScrollY: -1; AddedCount: -1; RemovedCount: -1; ParcelableData: null ]'
p1898
sS'MovementGranularity'
p1899
g6
sa(dp1900
S'EventTime'
p1901
S'101459522'
p1902
sg4
L1449713986227L
sS'recordCount'
p1903
g6
sS'EventType'
p1904
S'TYPE_VIEW_CLICKED'
p1905
sS'PackageName'
p1906
S'com.example.myfristandroid'
p1907
sS'OutBounds'
p1908
S'Rect(220, 500 - 500, 560)'
p1909
sS'Action'
p1910
S'[ ClassName: android.widget.Button; Text: [\xe7\x99\xbb\xe5\xbd\x95]; ContentDescription: null; ItemCount: -1; CurrentItemIndex: -1; IsEnabled: true; IsPassword: false; IsChecked: false; IsFullScreen: false; Scrollable: false; BeforeText: null; FromIndex: -1; ToIndex: -1; ScrollX: -1; ScrollY: -1; MaxScrollX: -1; MaxScrollY: -1; AddedCount: -1; RemovedCount: -1; ParcelableData: null ]'
p1911
sS'MovementGranularity'
p1912
g6
sa(dp1913
S'EventTime'
p1914
S'101459829'
p1915
sg4
L1449713986542L
sS'recordCount'
p1916
g6
sS'EventType'
p1917
S'TYPE_WINDOW_STATE_CHANGED'
p1918
sS'PackageName'
p1919
S'com.example.myfristandroid'
p1920
sS'OutBounds'
p1921
S'Rect(0, 0 - 720, 1184)'
p1922
sS'Action'
p1923
S'[ ClassName: com.example.myfristandroid.HuzAlertDialog; Text: [\xe6\x8f\x90\xe7\xa4\xba, \xe7\x99\xbb\xe5\xbd\x95\xe5\xa4\xb1\xe8\xb4\xa5\xef\xbc\x8c\xe5\xaf\x86\xe7\xa0\x81\xe9\x94\x99\xe8\xaf\xaf, \xe7\xa1\xae\xe5\xae\x9a]; ContentDescription: null; ItemCount: -1; CurrentItemIndex: -1; IsEnabled: true; IsPassword: false; IsChecked: false; IsFullScreen: true; Scrollable: false; BeforeText: null; FromIndex: -1; ToIndex: -1; ScrollX: -1; ScrollY: -1; MaxScrollX: -1; MaxScrollY: -1; AddedCount: -1; RemovedCount: -1; ParcelableData: null ]'
p1924
sS'MovementGranularity'
p1925
g6
sa(dp1926
S'EventTime'
p1927
S'101460002'
p1928
sg4
L1449713986709L
sS'recordCount'
p1929
g6
sS'EventType'
p1930
S'TYPE_WINDOW_CONTENT_CHANGED'
p1931
sS'PackageName'
p1932
S'com.example.myfristandroid'
p1933
sS'OutBounds'
p1934
S'Rect(59, 562 - 673, 632)'
p1935
sS'Action'
p1936
S'[ ClassName: android.widget.TextView; Text: []; ContentDescription: null; ItemCount: -1; CurrentItemIndex: -1; IsEnabled: true; IsPassword: false; IsChecked: false; IsFullScreen: false; Scrollable: false; BeforeText: null; FromIndex: -1; ToIndex: -1; ScrollX: -1; ScrollY: -1; MaxScrollX: -1; MaxScrollY: -1; AddedCount: -1; RemovedCount: -1; ParcelableData: null ]'
p1937
sS'MovementGranularity'
p1938
g6
sa(dp1939
S'EventTime'
p1940
S'101460804'
p1941
sg4
L1449713987510L
sS'recordCount'
p1942
g6
sS'EventType'
p1943
S'TYPE_VIEW_CLICKED'
p1944
sS'PackageName'
p1945
S'com.example.myfristandroid'
p1946
sS'OutBounds'
p1947
S'Rect(203, 664 - 520, 760)'
p1948
sS'Action'
p1949
S'[ ClassName: android.widget.Button; Text: [\xe7\xa1\xae\xe5\xae\x9a]; ContentDescription: null; ItemCount: -1; CurrentItemIndex: -1; IsEnabled: true; IsPassword: false; IsChecked: false; IsFullScreen: false; Scrollable: false; BeforeText: null; FromIndex: -1; ToIndex: -1; ScrollX: -1; ScrollY: -1; MaxScrollX: -1; MaxScrollY: -1; AddedCount: -1; RemovedCount: -1; ParcelableData: null ]'
p1950
sS'MovementGranularity'
p1951
g6
sa(dp1952
S'EventTime'
p1953
S'101460824'
p1954
sg4
L1449713987544L
sS'recordCount'
p1955
g6
sS'EventType'
p1956
S'TYPE_WINDOW_STATE_CHANGED'
p1957
sS'PackageName'
p1958
S'com.example.myfristandroid'
p1959
sS'OutBounds'
p1960
S'Rect(0, 0 - 720, 1184)'
p1961
sS'Action'
p1962
S'[ ClassName: com.example.myfristandroid.HuzAlertDialog; Text: [\xe6\x8f\x90\xe7\xa4\xba, \xe7\x99\xbb\xe5\xbd\x95\xe5\xa4\xb1\xe8\xb4\xa5\xef\xbc\x8c\xe5\xaf\x86\xe7\xa0\x81\xe9\x94\x99\xe8\xaf\xaf, \xe7\xa1\xae\xe5\xae\x9a]; ContentDescription: null; ItemCount: -1; CurrentItemIndex: -1; IsEnabled: true; IsPassword: false; IsChecked: false; IsFullScreen: true; Scrollable: false; BeforeText: null; FromIndex: -1; ToIndex: -1; ScrollX: -1; ScrollY: -1; MaxScrollX: -1; MaxScrollY: -1; AddedCount: -1; RemovedCount: -1; ParcelableData: null ]'
p1963
sS'MovementGranularity'
p1964
g6
sa(dp1965
S'EventTime'
p1966
S'101460916'
p1967
sg4
L1449713987642L
sS'recordCount'
p1968
g6
sS'EventType'
p1969
S'TYPE_WINDOW_CONTENT_CHANGED'
p1970
sS'PackageName'
p1971
S'com.example.myfristandroid'
p1972
sS'OutBounds'
p1973
S'Rect(203, 664 - 520, 760)'
p1974
sS'Action'
p1975
S'[ ClassName: android.widget.Button; Text: []; ContentDescription: null; ItemCount: -1; CurrentItemIndex: -1; IsEnabled: true; IsPassword: false; IsChecked: false; IsFullScreen: false; Scrollable: false; BeforeText: null; FromIndex: -1; ToIndex: -1; ScrollX: -1; ScrollY: -1; MaxScrollX: -1; MaxScrollY: -1; AddedCount: -1; RemovedCount: -1; ParcelableData: null ]'
p1976
sS'MovementGranularity'
p1977
g6
sa(dp1978
S'EventTime'
p1979
S'101464604'
p1980
sg4
L1449713991309L
sS'recordCount'
p1981
g6
sS'EventType'
p1982
S'TYPE_VIEW_CLICKED'
p1983
sS'PackageName'
p1984
S'com.example.myfristandroid'
p1985
sS'OutBounds'
p1986
S'Rect(203, 664 - 520, 760)'
p1987
sS'Action'
p1988
S'[ ClassName: android.widget.Button; Text: [\xe7\xa1\xae\xe5\xae\x9a]; ContentDescription: null; ItemCount: -1; CurrentItemIndex: -1; IsEnabled: true; IsPassword: false; IsChecked: false; IsFullScreen: false; Scrollable: false; BeforeText: null; FromIndex: -1; ToIndex: -1; ScrollX: -1; ScrollY: -1; MaxScrollX: -1; MaxScrollY: -1; AddedCount: -1; RemovedCount: -1; ParcelableData: null ]'
p1989
sS'MovementGranularity'
p1990
g6
sa(dp1991
S'EventTime'
p1992
S'101464628'
p1993
sg4
L1449713991348L
sS'recordCount'
p1994
g6
sS'EventType'
p1995
S'TYPE_WINDOW_STATE_CHANGED'
p1996
sS'PackageName'
p1997
S'com.example.myfristandroid'
p1998
sS'OutBounds'
p1999
S'Rect(0, 0 - 720, 1184)'
p2000
sS'Action'
p2001
S'[ ClassName: com.example.myfristandroid.MainActivity; Text: [SE-1800\xe7\xa7\xbb\xe5\x8a\xa8APP]; ContentDescription: null; ItemCount: -1; CurrentItemIndex: -1; IsEnabled: true; IsPassword: false; IsChecked: false; IsFullScreen: true; Scrollable: false; BeforeText: null; FromIndex: -1; ToIndex: -1; ScrollX: -1; ScrollY: -1; MaxScrollX: -1; MaxScrollY: -1; AddedCount: -1; RemovedCount: -1; ParcelableData: null ]'
p2002
sS'MovementGranularity'
p2003
g6
sa(dp2004
S'EventTime'
p2005
S'101465920'
p2006
sg4
L1449713992626L
sS'recordCount'
p2007
g6
sS'EventType'
p2008
S'TYPE_VIEW_CLICKED'
p2009
sS'PackageName'
p2010
S'com.example.myfristandroid'
p2011
sS'OutBounds'
p2012
S'Rect(220, 290 - 500, 350)'
p2013
sS'Action'
p2014
S'[ ClassName: android.widget.Button; Text: [\xe4\xbf\x9d\xe5\xad\x98]; ContentDescription: null; ItemCount: -1; CurrentItemIndex: -1; IsEnabled: true; IsPassword: false; IsChecked: false; IsFullScreen: false; Scrollable: false; BeforeText: null; FromIndex: -1; ToIndex: -1; ScrollX: -1; ScrollY: -1; MaxScrollX: -1; MaxScrollY: -1; AddedCount: -1; RemovedCount: -1; ParcelableData: null ]'
p2015
sS'MovementGranularity'
p2016
g6
sa(dp2017
S'EventTime'
p2018
S'101466013'
p2019
sg4
L1449713992721L
sS'recordCount'
p2020
g6
sS'EventType'
p2021
S'TYPE_WINDOW_STATE_CHANGED'
p2022
sS'PackageName'
p2023
S'com.example.myfristandroid'
p2024
sS'OutBounds'
p2025
S'Rect(0, 0 - 720, 1184)'
p2026
sS'Action'
p2027
S'[ ClassName: com.example.myfristandroid.HuzAlertDialog; Text: [\xe6\x8f\x90\xe7\xa4\xba, \xe4\xbf\x9d\xe5\xad\x98\xe9\x85\x8d\xe7\xbd\xae\xe6\x88\x90\xe5\x8a\x9f, \xe7\xa1\xae\xe5\xae\x9a]; ContentDescription: null; ItemCount: -1; CurrentItemIndex: -1; IsEnabled: true; IsPassword: false; IsChecked: false; IsFullScreen: true; Scrollable: false; BeforeText: null; FromIndex: -1; ToIndex: -1; ScrollX: -1; ScrollY: -1; MaxScrollX: -1; MaxScrollY: -1; AddedCount: -1; RemovedCount: -1; ParcelableData: null ]'
p2028
sS'MovementGranularity'
p2029
g6
sa(dp2030
S'EventTime'
p2031
S'101466081'
p2032
sg4
L1449713992791L
sS'recordCount'
p2033
g6
sS'EventType'
p2034
S'TYPE_WINDOW_CONTENT_CHANGED'
p2035
sS'PackageName'
p2036
S'com.example.myfristandroid'
p2037
sS'OutBounds'
p2038
S'Rect(59, 562 - 673, 632)'
p2039
sS'Action'
p2040
S'[ ClassName: android.widget.TextView; Text: []; ContentDescription: null; ItemCount: -1; CurrentItemIndex: -1; IsEnabled: true; IsPassword: false; IsChecked: false; IsFullScreen: false; Scrollable: false; BeforeText: null; FromIndex: -1; ToIndex: -1; ScrollX: -1; ScrollY: -1; MaxScrollX: -1; MaxScrollY: -1; AddedCount: -1; RemovedCount: -1; ParcelableData: null ]'
p2041
sS'MovementGranularity'
p2042
g6
sa(dp2043
S'EventTime'
p2044
S'101467063'
p2045
sg4
L1449713993770L
sS'recordCount'
p2046
g6
sS'EventType'
p2047
S'TYPE_VIEW_CLICKED'
p2048
sS'PackageName'
p2049
S'com.example.myfristandroid'
p2050
sS'OutBounds'
p2051
S'Rect(203, 664 - 520, 760)'
p2052
sS'Action'
p2053
S'[ ClassName: android.widget.Button; Text: [\xe7\xa1\xae\xe5\xae\x9a]; ContentDescription: null; ItemCount: -1; CurrentItemIndex: -1; IsEnabled: true; IsPassword: false; IsChecked: false; IsFullScreen: false; Scrollable: false; BeforeText: null; FromIndex: -1; ToIndex: -1; ScrollX: -1; ScrollY: -1; MaxScrollX: -1; MaxScrollY: -1; AddedCount: -1; RemovedCount: -1; ParcelableData: null ]'
p2054
sS'MovementGranularity'
p2055
g6
sa(dp2056
S'EventTime'
p2057
S'101467095'
p2058
sg4
L1449713993831L
sS'recordCount'
p2059
g6
sS'EventType'
p2060
S'TYPE_WINDOW_STATE_CHANGED'
p2061
sS'PackageName'
p2062
S'com.example.myfristandroid'
p2063
sS'OutBounds'
p2064
S'Rect(0, 0 - 720, 1184)'
p2065
sS'Action'
p2066
S'[ ClassName: com.example.myfristandroid.MainActivity; Text: [SE-1800\xe7\xa7\xbb\xe5\x8a\xa8APP]; ContentDescription: null; ItemCount: -1; CurrentItemIndex: -1; IsEnabled: true; IsPassword: false; IsChecked: false; IsFullScreen: true; Scrollable: false; BeforeText: null; FromIndex: -1; ToIndex: -1; ScrollX: -1; ScrollY: -1; MaxScrollX: -1; MaxScrollY: -1; AddedCount: -1; RemovedCount: -1; ParcelableData: null ]'
p2067
sS'MovementGranularity'
p2068
g6
sa(dp2069
S'EventTime'
p2070
S'101468576'
p2071
sg4
L1449713995281L
sS'recordCount'
p2072
g6
sS'EventType'
p2073
S'TYPE_VIEW_CLICKED'
p2074
sS'PackageName'
p2075
S'com.example.myfristandroid'
p2076
sS'OutBounds'
p2077
S'Rect(220, 500 - 500, 560)'
p2078
sS'Action'
p2079
S'[ ClassName: android.widget.Button; Text: [\xe7\x99\xbb\xe5\xbd\x95]; ContentDescription: null; ItemCount: -1; CurrentItemIndex: -1; IsEnabled: true; IsPassword: false; IsChecked: false; IsFullScreen: false; Scrollable: false; BeforeText: null; FromIndex: -1; ToIndex: -1; ScrollX: -1; ScrollY: -1; MaxScrollX: -1; MaxScrollY: -1; AddedCount: -1; RemovedCount: -1; ParcelableData: null ]'
p2080
sS'MovementGranularity'
p2081
g6
sa(dp2082
S'EventTime'
p2083
S'101468854'
p2084
sg4
L1449713995570L
sS'recordCount'
p2085
g6
sS'EventType'
p2086
S'TYPE_WINDOW_STATE_CHANGED'
p2087
sS'PackageName'
p2088
S'com.example.myfristandroid'
p2089
sS'OutBounds'
p2090
S'Rect(0, 0 - 720, 1184)'
p2091
sS'Action'
p2092
S'[ ClassName: com.example.myfristandroid.HuzAlertDialog; Text: [\xe6\x8f\x90\xe7\xa4\xba, \xe7\x99\xbb\xe5\xbd\x95\xe5\xa4\xb1\xe8\xb4\xa5\xef\xbc\x8c\xe5\xaf\x86\xe7\xa0\x81\xe9\x94\x99\xe8\xaf\xaf, \xe7\xa1\xae\xe5\xae\x9a]; ContentDescription: null; ItemCount: -1; CurrentItemIndex: -1; IsEnabled: true; IsPassword: false; IsChecked: false; IsFullScreen: true; Scrollable: false; BeforeText: null; FromIndex: -1; ToIndex: -1; ScrollX: -1; ScrollY: -1; MaxScrollX: -1; MaxScrollY: -1; AddedCount: -1; RemovedCount: -1; ParcelableData: null ]'
p2093
sS'MovementGranularity'
p2094
g6
sa(dp2095
S'EventTime'
p2096
S'101468925'
p2097
sg4
L1449713995639L
sS'recordCount'
p2098
g6
sS'EventType'
p2099
S'TYPE_WINDOW_CONTENT_CHANGED'
p2100
sS'PackageName'
p2101
S'com.example.myfristandroid'
p2102
sS'OutBounds'
p2103
S'Rect(59, 562 - 673, 632)'
p2104
sS'Action'
p2105
S'[ ClassName: android.widget.TextView; Text: []; ContentDescription: null; ItemCount: -1; CurrentItemIndex: -1; IsEnabled: true; IsPassword: false; IsChecked: false; IsFullScreen: false; Scrollable: false; BeforeText: null; FromIndex: -1; ToIndex: -1; ScrollX: -1; ScrollY: -1; MaxScrollX: -1; MaxScrollY: -1; AddedCount: -1; RemovedCount: -1; ParcelableData: null ]'
p2106
sS'MovementGranularity'
p2107
g6
sa(dp2108
S'EventTime'
p2109
S'101469033'
p2110
sg4
L1449713995741L
sS'recordCount'
p2111
g6
sS'EventType'
p2112
S'TYPE_WINDOW_CONTENT_CHANGED'
p2113
sS'PackageName'
p2114
S'com.example.myfristandroid'
p2115
sS'OutBounds'
p2116
S'Rect(59, 562 - 673, 632)'
p2117
sS'Action'
p2118
S'[ ClassName: android.widget.TextView; Text: []; ContentDescription: null; ItemCount: -1; CurrentItemIndex: -1; IsEnabled: true; IsPassword: false; IsChecked: false; IsFullScreen: false; Scrollable: false; BeforeText: null; FromIndex: -1; ToIndex: -1; ScrollX: -1; ScrollY: -1; MaxScrollX: -1; MaxScrollY: -1; AddedCount: -1; RemovedCount: -1; ParcelableData: null ]'
p2119
sS'MovementGranularity'
p2120
g6
sa(dp2121
S'EventTime'
p2122
S'101469539'
p2123
sg4
L1449713996245L
sS'recordCount'
p2124
g6
sS'EventType'
p2125
S'TYPE_VIEW_CLICKED'
p2126
sS'PackageName'
p2127
S'com.example.myfristandroid'
p2128
sS'OutBounds'
p2129
S'Rect(203, 664 - 520, 760)'
p2130
sS'Action'
p2131
S'[ ClassName: android.widget.Button; Text: [\xe7\xa1\xae\xe5\xae\x9a]; ContentDescription: null; ItemCount: -1; CurrentItemIndex: -1; IsEnabled: true; IsPassword: false; IsChecked: false; IsFullScreen: false; Scrollable: false; BeforeText: null; FromIndex: -1; ToIndex: -1; ScrollX: -1; ScrollY: -1; MaxScrollX: -1; MaxScrollY: -1; AddedCount: -1; RemovedCount: -1; ParcelableData: null ]'
p2132
sS'MovementGranularity'
p2133
g6
sa(dp2134
S'EventTime'
p2135
S'101469564'
p2136
sg4
L1449713996286L
sS'recordCount'
p2137
g6
sS'EventType'
p2138
S'TYPE_WINDOW_STATE_CHANGED'
p2139
sS'PackageName'
p2140
S'com.example.myfristandroid'
p2141
sS'OutBounds'
p2142
S'Rect(0, 0 - 720, 1184)'
p2143
sS'Action'
p2144
S'[ ClassName: com.example.myfristandroid.MainActivity; Text: [SE-1800\xe7\xa7\xbb\xe5\x8a\xa8APP]; ContentDescription: null; ItemCount: -1; CurrentItemIndex: -1; IsEnabled: true; IsPassword: false; IsChecked: false; IsFullScreen: true; Scrollable: false; BeforeText: null; FromIndex: -1; ToIndex: -1; ScrollX: -1; ScrollY: -1; MaxScrollX: -1; MaxScrollY: -1; AddedCount: -1; RemovedCount: -1; ParcelableData: null ]'
p2145
sS'MovementGranularity'
p2146
g6
sa(dp2147
S'EventTime'
p2148
S'101471251'
p2149
sg4
L1449713997956L
sS'recordCount'
p2150
g6
sS'EventType'
p2151
S'TYPE_VIEW_CLICKED'
p2152
sS'PackageName'
p2153
S'com.example.myfristandroid'
p2154
sS'OutBounds'
p2155
S'Rect(360, 1074 - 540, 1184)'
p2156
sS'Action'
p2157
S'[ ClassName: android.widget.LinearLayout; Text: [\xe6\x9f\xa5\xe7\x9c\x8b\xe5\xae\x9e\xe6\x97\xb6\xe5\x91\x8a\xe8\xad\xa6\xe4\xbf\xa1\xe6\x81\xaf, \xe5\x91\x8a\xe8\xad\xa6]; ContentDescription: null; ItemCount: -1; CurrentItemIndex: -1; IsEnabled: true; IsPassword: false; IsChecked: false; IsFullScreen: false; Scrollable: false; BeforeText: null; FromIndex: -1; ToIndex: -1; ScrollX: -1; ScrollY: -1; MaxScrollX: -1; MaxScrollY: -1; AddedCount: -1; RemovedCount: -1; ParcelableData: null ]'
p2158
sS'MovementGranularity'
p2159
g6
sa(dp2160
S'EventTime'
p2161
S'101471256'
p2162
sg4
L1449713997985L
sS'recordCount'
p2163
g6
sS'EventType'
p2164
S'TYPE_WINDOW_CONTENT_CHANGED'
p2165
sS'PackageName'
p2166
S'com.example.myfristandroid'
p2167
sS'OutBounds'
p2168
S'Rect(909, 150 - 1419, 210)'
p2169
sS'Action'
p2170
S'[ ClassName: android.widget.EditText; Text: []; ContentDescription: null; ItemCount: -1; CurrentItemIndex: -1; IsEnabled: true; IsPassword: false; IsChecked: false; IsFullScreen: false; Scrollable: false; BeforeText: null; FromIndex: -1; ToIndex: -1; ScrollX: -1; ScrollY: -1; MaxScrollX: -1; MaxScrollY: -1; AddedCount: -1; RemovedCount: -1; ParcelableData: null ]'
p2171
sS'MovementGranularity'
p2172
g6
sa(dp2173
S'EventTime'
p2174
S'101471258'
p2175
sg4
L1449713998006L
sS'recordCount'
p2176
g6
sS'EventType'
p2177
S'TYPE_VIEW_FOCUSED'
p2178
sS'PackageName'
p2179
S'com.example.myfristandroid'
p2180
sS'OutBounds'
p2181
S'Rect(4, 250 - 712, 310)'
p2182
sS'Action'
p2183
S'[ ClassName: android.widget.EditText; Text: [\xe6\x90\x9c\xe7\xb4\xa2]; ContentDescription: null; ItemCount: 8; CurrentItemIndex: 2; IsEnabled: true; IsPassword: false; IsChecked: false; IsFullScreen: false; Scrollable: false; BeforeText: null; FromIndex: -1; ToIndex: -1; ScrollX: -1; ScrollY: -1; MaxScrollX: -1; MaxScrollY: -1; AddedCount: -1; RemovedCount: -1; ParcelableData: null ]'
p2184
sS'MovementGranularity'
p2185
g6
sa(dp2186
S'EventTime'
p2187
S'101471372'
p2188
sg4
L1449713998099L
sS'recordCount'
p2189
g6
sS'EventType'
p2190
S'TYPE_VIEW_SCROLLED'
p2191
sS'PackageName'
p2192
S'com.example.myfristandroid'
p2193
sS'OutBounds'
p2194
S'Rect(0, 140 - 720, 1074)'
p2195
sS'Action'
p2196
S'[ ClassName: android.support.v4.view.ViewPager; Text: []; ContentDescription: null; ItemCount: -1; CurrentItemIndex: -1; IsEnabled: true; IsPassword: false; IsChecked: false; IsFullScreen: false; Scrollable: false; BeforeText: null; FromIndex: -1; ToIndex: -1; ScrollX: -1; ScrollY: -1; MaxScrollX: -1; MaxScrollY: -1; AddedCount: -1; RemovedCount: -1; ParcelableData: null ]'
p2197
sS'MovementGranularity'
p2198
g6
sa(dp2199
S'EventTime'
p2200
S'101471480'
p2201
sg4
L1449713998232L
sS'recordCount'
p2202
g6
sS'EventType'
p2203
S'TYPE_VIEW_SCROLLED'
p2204
sS'PackageName'
p2205
S'com.example.myfristandroid'
p2206
sS'OutBounds'
p2207
S'Rect(0, 140 - 720, 1074)'
p2208
sS'Action'
p2209
S'[ ClassName: android.support.v4.view.ViewPager; Text: []; ContentDescription: null; ItemCount: -1; CurrentItemIndex: -1; IsEnabled: true; IsPassword: false; IsChecked: false; IsFullScreen: false; Scrollable: false; BeforeText: null; FromIndex: -1; ToIndex: -1; ScrollX: -1; ScrollY: -1; MaxScrollX: -1; MaxScrollY: -1; AddedCount: -1; RemovedCount: -1; ParcelableData: null ]'
p2210
sS'MovementGranularity'
p2211
g6
sa(dp2212
S'EventTime'
p2213
S'101472034'
p2214
sg4
L1449713998738L
sS'recordCount'
p2215
g6
sS'EventType'
p2216
S'TYPE_VIEW_CLICKED'
p2217
sS'PackageName'
p2218
S'com.example.myfristandroid'
p2219
sS'OutBounds'
p2220
S'Rect(180, 1074 - 360, 1184)'
p2221
sS'Action'
p2222
S'[ ClassName: android.widget.LinearLayout; Text: [\xe6\x9f\xa5\xe7\x9c\x8b\xe5\xae\x9e\xe6\x97\xb6\xe6\x95\xb0\xe6\x8d\xae\xe4\xbf\xa1\xe6\x81\xaf, \xe6\x95\xb0\xe6\x8d\xae]; ContentDescription: null; ItemCount: -1; CurrentItemIndex: -1; IsEnabled: true; IsPassword: false; IsChecked: false; IsFullScreen: false; Scrollable: false; BeforeText: null; FromIndex: -1; ToIndex: -1; ScrollX: -1; ScrollY: -1; MaxScrollX: -1; MaxScrollY: -1; AddedCount: -1; RemovedCount: -1; ParcelableData: null ]'
p2223
sS'MovementGranularity'
p2224
g6
sa(dp2225
S'EventTime'
p2226
S'101472039'
p2227
sg4
L1449713998774L
sS'recordCount'
p2228
g6
sS'EventType'
p2229
S'TYPE_WINDOW_CONTENT_CHANGED'
p2230
sS'PackageName'
p2231
S'com.example.myfristandroid'
p2232
sS'OutBounds'
p2233
S'Rect(721, 250 - 1429, 310)'
p2234
sS'Action'
p2235
S'[ ClassName: android.widget.EditText; Text: []; ContentDescription: null; ItemCount: -1; CurrentItemIndex: -1; IsEnabled: true; IsPassword: false; IsChecked: false; IsFullScreen: false; Scrollable: false; BeforeText: null; FromIndex: -1; ToIndex: -1; ScrollX: -1; ScrollY: -1; MaxScrollX: -1; MaxScrollY: -1; AddedCount: -1; RemovedCount: -1; ParcelableData: null ]'
p2236
sS'MovementGranularity'
p2237
g6
sa(dp2238
S'EventTime'
p2239
S'101472040'
p2240
sg4
L1449713998796L
sS'recordCount'
p2241
g6
sS'EventType'
p2242
S'TYPE_VIEW_FOCUSED'
p2243
sS'PackageName'
p2244
S'com.example.myfristandroid'
p2245
sS'OutBounds'
p2246
S'Rect(5, 300 - 713, 360)'
p2247
sS'Action'
p2248
S'[ ClassName: android.widget.EditText; Text: [\xe4\xb8\xad\xe5\xa4\xa7\xe5\x8a\x9b\xe5\xbe\xb7]; ContentDescription: null; ItemCount: 11; CurrentItemIndex: 4; IsEnabled: true; IsPassword: false; IsChecked: false; IsFullScreen: false; Scrollable: false; BeforeText: null; FromIndex: -1; ToIndex: -1; ScrollX: -1; ScrollY: -1; MaxScrollX: -1; MaxScrollY: -1; AddedCount: -1; RemovedCount: -1; ParcelableData: null ]'
p2249
sS'MovementGranularity'
p2250
g6
sa(dp2251
S'EventTime'
p2252
S'101472169'
p2253
sg4
L1449713998891L
sS'recordCount'
p2254
g6
sS'EventType'
p2255
S'TYPE_VIEW_SCROLLED'
p2256
sS'PackageName'
p2257
S'com.example.myfristandroid'
p2258
sS'OutBounds'
p2259
S'Rect(0, 140 - 720, 1074)'
p2260
sS'Action'
p2261
S'[ ClassName: android.support.v4.view.ViewPager; Text: []; ContentDescription: null; ItemCount: -1; CurrentItemIndex: -1; IsEnabled: true; IsPassword: false; IsChecked: false; IsFullScreen: false; Scrollable: false; BeforeText: null; FromIndex: -1; ToIndex: -1; ScrollX: -1; ScrollY: -1; MaxScrollX: -1; MaxScrollY: -1; AddedCount: -1; RemovedCount: -1; ParcelableData: null ]'
p2262
sS'MovementGranularity'
p2263
g6
sa(dp2264
S'EventTime'
p2265
S'101472293'
p2266
sg4
L1449713999016L
sS'recordCount'
p2267
g6
sS'EventType'
p2268
S'TYPE_VIEW_SCROLLED'
p2269
sS'PackageName'
p2270
S'com.example.myfristandroid'
p2271
sS'OutBounds'
p2272
S'Rect(0, 140 - 720, 1074)'
p2273
sS'Action'
p2274
S'[ ClassName: android.support.v4.view.ViewPager; Text: []; ContentDescription: null; ItemCount: -1; CurrentItemIndex: -1; IsEnabled: true; IsPassword: false; IsChecked: false; IsFullScreen: false; Scrollable: false; BeforeText: null; FromIndex: -1; ToIndex: -1; ScrollX: -1; ScrollY: -1; MaxScrollX: -1; MaxScrollY: -1; AddedCount: -1; RemovedCount: -1; ParcelableData: null ]'
p2275
sS'MovementGranularity'
p2276
g6
sa(dp2277
S'EventTime'
p2278
S'101473061'
p2279
sg4
L1449713999765L
sS'recordCount'
p2280
g6
sS'EventType'
p2281
S'TYPE_VIEW_CLICKED'
p2282
sS'PackageName'
p2283
S'com.example.myfristandroid'
p2284
sS'OutBounds'
p2285
S'Rect(0, 1074 - 180, 1184)'
p2286
sS'Action'
p2287
S'[ ClassName: android.widget.LinearLayout; Text: [\xe7\x94\xbb\xe9\x9d\xa2\xe6\xb5\x8f\xe8\xa7\x88, \xe7\x94\xbb\xe9\x9d\xa2]; ContentDescription: null; ItemCount: -1; CurrentItemIndex: -1; IsEnabled: true; IsPassword: false; IsChecked: false; IsFullScreen: false; Scrollable: false; BeforeText: null; FromIndex: -1; ToIndex: -1; ScrollX: -1; ScrollY: -1; MaxScrollX: -1; MaxScrollY: -1; AddedCount: -1; RemovedCount: -1; ParcelableData: null ]'
p2288
sS'MovementGranularity'
p2289
g6
sa(dp2290
S'EventTime'
p2291
S'101473065'
p2292
sg4
L1449713999791L
sS'recordCount'
p2293
g6
sS'EventType'
p2294
S'TYPE_VIEW_FOCUSED'
p2295
sS'PackageName'
p2296
S'com.example.myfristandroid'
p2297
sS'OutBounds'
p2298
S'Rect(-7, 140 - 712, 1074)'
p2299
sS'Action'
p2300
S'[ ClassName: android.widget.GridView; Text: []; ContentDescription: null; ItemCount: 9; CurrentItemIndex: -1; IsEnabled: true; IsPassword: false; IsChecked: false; IsFullScreen: false; Scrollable: false; BeforeText: null; FromIndex: 0; ToIndex: 8; ScrollX: -1; ScrollY: -1; MaxScrollX: -1; MaxScrollY: -1; AddedCount: -1; RemovedCount: -1; ParcelableData: null ]'
p2301
sS'MovementGranularity'
p2302
g6
sa(dp2303
S'EventTime'
p2304
S'101473106'
p2305
sg4
L1449713999832L
sS'recordCount'
p2306
g6
sS'EventType'
p2307
S'TYPE_WINDOW_CONTENT_CHANGED'
p2308
sS'PackageName'
p2309
S'com.example.myfristandroid'
p2310
sS'OutBounds'
p2311
S'Rect(0, 140 - 719, 1074)'
p2312
sS'Action'
p2313
S'[ ClassName: android.widget.GridView; Text: []; ContentDescription: null; ItemCount: 9; CurrentItemIndex: -1; IsEnabled: true; IsPassword: false; IsChecked: false; IsFullScreen: false; Scrollable: false; BeforeText: null; FromIndex: 0; ToIndex: 8; ScrollX: -1; ScrollY: -1; MaxScrollX: -1; MaxScrollY: -1; AddedCount: -1; RemovedCount: -1; ParcelableData: null ]'
p2314
sS'MovementGranularity'
p2315
g6
sa(dp2316
S'EventTime'
p2317
S'101473214'
p2318
sg4
L1449713999952L
sS'recordCount'
p2319
g6
sS'EventType'
p2320
S'TYPE_WINDOW_CONTENT_CHANGED'
p2321
sS'PackageName'
p2322
S'com.example.myfristandroid'
p2323
sS'OutBounds'
p2324
S'Rect(0, 140 - 720, 1074)'
p2325
sS'Action'
p2326
S'[ ClassName: android.widget.GridView; Text: []; ContentDescription: null; ItemCount: 9; CurrentItemIndex: -1; IsEnabled: true; IsPassword: false; IsChecked: false; IsFullScreen: false; Scrollable: false; BeforeText: null; FromIndex: 0; ToIndex: 8; ScrollX: -1; ScrollY: -1; MaxScrollX: -1; MaxScrollY: -1; AddedCount: -1; RemovedCount: -1; ParcelableData: null ]'
p2327
sS'MovementGranularity'
p2328
g6
sa(dp2329
S'EventTime'
p2330
S'101473228'
p2331
sg4
L1449714000023L
sS'recordCount'
p2332
g6
sS'EventType'
p2333
S'TYPE_VIEW_SCROLLED'
p2334
sS'PackageName'
p2335
S'com.example.myfristandroid'
p2336
sS'OutBounds'
p2337
S'Rect(0, 140 - 720, 1074)'
p2338
sS'Action'
p2339
S'[ ClassName: android.support.v4.view.ViewPager; Text: []; ContentDescription: null; ItemCount: -1; CurrentItemIndex: -1; IsEnabled: true; IsPassword: false; IsChecked: false; IsFullScreen: false; Scrollable: false; BeforeText: null; FromIndex: -1; ToIndex: -1; ScrollX: -1; ScrollY: -1; MaxScrollX: -1; MaxScrollY: -1; AddedCount: -1; RemovedCount: -1; ParcelableData: null ]'
p2340
sS'MovementGranularity'
p2341
g6
sa(dp2342
S'EventTime'
p2343
S'101473352'
p2344
sg4
L1449714000097L
sS'recordCount'
p2345
g6
sS'EventType'
p2346
S'TYPE_VIEW_SCROLLED'
p2347
sS'PackageName'
p2348
S'com.example.myfristandroid'
p2349
sS'OutBounds'
p2350
S'Rect(0, 140 - 720, 1074)'
p2351
sS'Action'
p2352
S'[ ClassName: android.support.v4.view.ViewPager; Text: []; ContentDescription: null; ItemCount: -1; CurrentItemIndex: -1; IsEnabled: true; IsPassword: false; IsChecked: false; IsFullScreen: false; Scrollable: false; BeforeText: null; FromIndex: -1; ToIndex: -1; ScrollX: -1; ScrollY: -1; MaxScrollX: -1; MaxScrollY: -1; AddedCount: -1; RemovedCount: -1; ParcelableData: null ]'
p2353
sS'MovementGranularity'
p2354
g6
sa(dp2355
S'EventTime'
p2356
S'101474619'
p2357
sg4
L1449714001327L
sS'recordCount'
p2358
g137
sS'EventType'
p2359
S'TYPE_VIEW_CLICKED'
p2360
sS'PackageName'
p2361
S'com.example.myfristandroid'
p2362
sS'OutBounds'
p2363
S'Rect(242, 146 - 476, 380)'
p2364
sS'Action'
p2365
S'[ ClassName: android.widget.RelativeLayout; Text: [\xe6\x9b\xb2\xe7\xba\xbf\xe5\x9b\xbe]; ContentDescription: null; ItemCount: -1; CurrentItemIndex: -1; IsEnabled: true; IsPassword: false; IsChecked: false; IsFullScreen: false; Scrollable: false; BeforeText: null; FromIndex: -1; ToIndex: -1; ScrollX: -1; ScrollY: -1; MaxScrollX: -1; MaxScrollY: -1; AddedCount: -1; RemovedCount: -1; ParcelableData: null ]'
p2366
sS'MovementGranularity'
p2367
g6
sa(dp2368
S'EventTime'
p2369
S'101474951'
p2370
sg4
L1449714001659L
sS'recordCount'
p2371
g6
sS'EventType'
p2372
S'TYPE_WINDOW_STATE_CHANGED'
p2373
sS'PackageName'
p2374
S'com.example.myfristandroid'
p2375
sS'OutBounds'
p2376
S'Rect(0, 0 - 720, 1184)'
p2377
sS'Action'
p2378
S'[ ClassName: com.example.myfristandroid.graphWebShow; Text: [SE-1800\xe7\xa7\xbb\xe5\x8a\xa8APP]; ContentDescription: null; ItemCount: -1; CurrentItemIndex: -1; IsEnabled: true; IsPassword: false; IsChecked: false; IsFullScreen: true; Scrollable: false; BeforeText: null; FromIndex: -1; ToIndex: -1; ScrollX: -1; ScrollY: -1; MaxScrollX: -1; MaxScrollY: -1; AddedCount: -1; RemovedCount: -1; ParcelableData: null ]'
p2379
sS'MovementGranularity'
p2380
g6
sa(dp2381
S'EventTime'
p2382
S'101475019'
p2383
sg4
L1449714001725L
sS'recordCount'
p2384
g6
sS'EventType'
p2385
S'TYPE_WINDOW_CONTENT_CHANGED'
p2386
sS'PackageName'
p2387
S'com.example.myfristandroid'
p2388
sS'OutBounds'
p2389
S'Rect(0, 0 - 720, 1184)'
p2390
sS'Action'
p2391
S'[ ClassName: android.widget.FrameLayout; Text: []; ContentDescription: null; ItemCount: -1; CurrentItemIndex: -1; IsEnabled: true; IsPassword: false; IsChecked: false; IsFullScreen: false; Scrollable: false; BeforeText: null; FromIndex: -1; ToIndex: -1; ScrollX: -1; ScrollY: -1; MaxScrollX: -1; MaxScrollY: -1; AddedCount: -1; RemovedCount: -1; ParcelableData: null ]'
p2392
sS'MovementGranularity'
p2393
g6
sa(dp2394
S'EventTime'
p2395
S'101475813'
p2396
sg4
L1449714002526L
sS'recordCount'
p2397
g6
sS'EventType'
p2398
S'TYPE_WINDOW_CONTENT_CHANGED'
p2399
sS'PackageName'
p2400
S'com.example.myfristandroid'
p2401
sS'OutBounds'
p2402
S'Rect(0, 50 - 1196, 720)'
p2403
sS'Action'
p2404
S'[ ClassName: com.android.org.chromium.content.browser.ContentViewCore; Text: []; ContentDescription: \xe7\xbd\x91\xe9\xa1\xb5\xe8\xa7\x86\xe5\x9b\xbe; ItemCount: -1; CurrentItemIndex: -1; IsEnabled: true; IsPassword: false; IsChecked: false; IsFullScreen: false; Scrollable: false; BeforeText: null; FromIndex: -1; ToIndex: -1; ScrollX: 0; ScrollY: 0; MaxScrollX: 0; MaxScrollY: 0; AddedCount: -1; RemovedCount: -1; ParcelableData: null ]'
p2405
sS'MovementGranularity'
p2406
g6
sa(dp2407
S'EventTime'
p2408
S'101476069'
p2409
sg4
L1449714002798L
sS'recordCount'
p2410
g6
sS'EventType'
p2411
S'TYPE_WINDOW_CONTENT_CHANGED'
p2412
sS'PackageName'
p2413
S'com.example.myfristandroid'
p2414
sS'OutBounds'
p2415
S'Rect(0, 50 - 1196, 720)'
p2416
sS'Action'
p2417
S'[ ClassName: android.view.View; Text: []; ContentDescription: null; ItemCount: 0; CurrentItemIndex: 0; IsEnabled: true; IsPassword: false; IsChecked: false; IsFullScreen: false; Scrollable: true; BeforeText: null; FromIndex: -1; ToIndex: -1; ScrollX: 0; ScrollY: 0; MaxScrollX: 0; MaxScrollY: 0; AddedCount: -1; RemovedCount: -1; ParcelableData: null ]'
p2418
sS'MovementGranularity'
p2419
g6
sa(dp2420
S'EventTime'
p2421
S'101477384'
p2422
sg4
L1449714004090L
sS'recordCount'
p2423
g6
sS'EventType'
p2424
S'TYPE_WINDOW_CONTENT_CHANGED'
p2425
sS'PackageName'
p2426
S'com.example.myfristandroid'
p2427
sS'Action'
p2428
S'[ ClassName: android.widget.FrameLayout; Text: []; ContentDescription: null; ItemCount: -1; CurrentItemIndex: -1; IsEnabled: true; IsPassword: false; IsChecked: false; IsFullScreen: false; Scrollable: false; BeforeText: null; FromIndex: -1; ToIndex: -1; ScrollX: -1; ScrollY: -1; MaxScrollX: -1; MaxScrollY: -1; AddedCount: -1; RemovedCount: -1; ParcelableData: null ]'
p2429
sS'MovementGranularity'
p2430
g6
sa(dp2431
S'EventTime'
p2432
S'101477412'
p2433
sg4
L1449714004161L
sS'recordCount'
p2434
g6
sS'EventType'
p2435
S'TYPE_WINDOW_STATE_CHANGED'
p2436
sS'PackageName'
p2437
S'com.example.myfristandroid'
p2438
sS'OutBounds'
p2439
S'Rect(0, 0 - 720, 1184)'
p2440
sS'Action'
p2441
S'[ ClassName: com.example.myfristandroid.MainActivity; Text: [SE-1800\xe7\xa7\xbb\xe5\x8a\xa8APP]; ContentDescription: null; ItemCount: -1; CurrentItemIndex: -1; IsEnabled: true; IsPassword: false; IsChecked: false; IsFullScreen: true; Scrollable: false; BeforeText: null; FromIndex: -1; ToIndex: -1; ScrollX: -1; ScrollY: -1; MaxScrollX: -1; MaxScrollY: -1; AddedCount: -1; RemovedCount: -1; ParcelableData: null ]'
p2442
sS'MovementGranularity'
p2443
g6
sa(dp2444
S'EventTime'
p2445
S'101477506'
p2446
sg4
L1449714004226L
sS'recordCount'
p2447
g6
sS'EventType'
p2448
S'TYPE_WINDOW_CONTENT_CHANGED'
p2449
sS'PackageName'
p2450
S'com.example.myfristandroid'
p2451
sS'OutBounds'
p2452
S'Rect(0, 140 - 720, 1074)'
p2453
sS'Action'
p2454
S'[ ClassName: android.widget.GridView; Text: []; ContentDescription: null; ItemCount: 9; CurrentItemIndex: -1; IsEnabled: true; IsPassword: false; IsChecked: false; IsFullScreen: false; Scrollable: false; BeforeText: null; FromIndex: 0; ToIndex: 8; ScrollX: -1; ScrollY: -1; MaxScrollX: -1; MaxScrollY: -1; AddedCount: -1; RemovedCount: -1; ParcelableData: null ]'
p2455
sS'MovementGranularity'
p2456
g6
sa(dp2457
S'EventTime'
p2458
S'101478669'
p2459
sg4
L1449714005373L
sS'recordCount'
p2460
g137
sS'EventType'
p2461
S'TYPE_VIEW_CLICKED'
p2462
sS'PackageName'
p2463
S'com.example.myfristandroid'
p2464
sS'OutBounds'
p2465
S'Rect(478, 618 - 712, 852)'
p2466
sS'Action'
p2467
S'[ ClassName: android.widget.RelativeLayout; Text: [\xe5\x85\xb6\xe4\xbb\x96\xe6\xbc\x94\xe7\xa4\xba\xe7\xb3\xbb\xe7\xbb\x9f]; ContentDescription: null; ItemCount: -1; CurrentItemIndex: -1; IsEnabled: true; IsPassword: false; IsChecked: false; IsFullScreen: false; Scrollable: false; BeforeText: null; FromIndex: -1; ToIndex: -1; ScrollX: -1; ScrollY: -1; MaxScrollX: -1; MaxScrollY: -1; AddedCount: -1; RemovedCount: -1; ParcelableData: null ]'
p2468
sS'MovementGranularity'
p2469
g6
sa(dp2470
S'EventTime'
p2471
S'101478987'
p2472
sg4
L1449714005694L
sS'recordCount'
p2473
g6
sS'EventType'
p2474
S'TYPE_WINDOW_STATE_CHANGED'
p2475
sS'PackageName'
p2476
S'com.example.myfristandroid'
p2477
sS'OutBounds'
p2478
S'Rect(0, 0 - 720, 1184)'
p2479
sS'Action'
p2480
S'[ ClassName: com.example.myfristandroid.graphWebShow; Text: [SE-1800\xe7\xa7\xbb\xe5\x8a\xa8APP]; ContentDescription: null; ItemCount: -1; CurrentItemIndex: -1; IsEnabled: true; IsPassword: false; IsChecked: false; IsFullScreen: true; Scrollable: false; BeforeText: null; FromIndex: -1; ToIndex: -1; ScrollX: -1; ScrollY: -1; MaxScrollX: -1; MaxScrollY: -1; AddedCount: -1; RemovedCount: -1; ParcelableData: null ]'
p2481
sS'MovementGranularity'
p2482
g6
sa(dp2483
S'EventTime'
p2484
S'101479041'
p2485
sg4
L1449714005753L
sS'recordCount'
p2486
g6
sS'EventType'
p2487
S'TYPE_WINDOW_CONTENT_CHANGED'
p2488
sS'PackageName'
p2489
S'com.example.myfristandroid'
p2490
sS'OutBounds'
p2491
S'Rect(0, 140 - 720, 1184)'
p2492
sS'Action'
p2493
S'[ ClassName: com.android.org.chromium.content.browser.ContentViewCore; Text: []; ContentDescription: \xe7\xbd\x91\xe9\xa1\xb5\xe8\xa7\x86\xe5\x9b\xbe; ItemCount: -1; CurrentItemIndex: -1; IsEnabled: true; IsPassword: false; IsChecked: false; IsFullScreen: false; Scrollable: false; BeforeText: null; FromIndex: -1; ToIndex: -1; ScrollX: 0; ScrollY: 0; MaxScrollX: 0; MaxScrollY: 0; AddedCount: -1; RemovedCount: -1; ParcelableData: null ]'
p2494
sS'MovementGranularity'
p2495
g6
sa(dp2496
S'EventTime'
p2497
S'101479785'
p2498
sg4
L1449714006491L
sS'recordCount'
p2499
g6
sS'EventType'
p2500
S'TYPE_WINDOW_CONTENT_CHANGED'
p2501
sS'PackageName'
p2502
S'com.example.myfristandroid'
p2503
sS'OutBounds'
p2504
S'Rect(0, 0 - 1196, 720)'
p2505
sS'Action'
p2506
S'[ ClassName: android.widget.FrameLayout; Text: []; ContentDescription: null; ItemCount: -1; CurrentItemIndex: -1; IsEnabled: true; IsPassword: false; IsChecked: false; IsFullScreen: false; Scrollable: false; BeforeText: null; FromIndex: -1; ToIndex: -1; ScrollX: -1; ScrollY: -1; MaxScrollX: -1; MaxScrollY: -1; AddedCount: -1; RemovedCount: -1; ParcelableData: null ]'
p2507
sS'MovementGranularity'
p2508
g6
sa(dp2509
S'EventTime'
p2510
S'101480021'
p2511
sg4
L1449714006740L
sS'recordCount'
p2512
g6
sS'EventType'
p2513
S'TYPE_WINDOW_CONTENT_CHANGED'
p2514
sS'PackageName'
p2515
S'com.example.myfristandroid'
p2516
sS'OutBounds'
p2517
S'Rect(0, 50 - 1196, 720)'
p2518
sS'Action'
p2519
S'[ ClassName: com.android.org.chromium.content.browser.ContentViewCore; Text: []; ContentDescription: \xe7\xbd\x91\xe9\xa1\xb5\xe8\xa7\x86\xe5\x9b\xbe; ItemCount: -1; CurrentItemIndex: -1; IsEnabled: true; IsPassword: false; IsChecked: false; IsFullScreen: false; Scrollable: false; BeforeText: null; FromIndex: -1; ToIndex: -1; ScrollX: 0; ScrollY: 0; MaxScrollX: 0; MaxScrollY: 0; AddedCount: -1; RemovedCount: -1; ParcelableData: null ]'
p2520
sS'MovementGranularity'
p2521
g6
sa(dp2522
S'EventTime'
p2523
S'101480204'
p2524
sg4
L1449714006931L
sS'recordCount'
p2525
g6
sS'EventType'
p2526
S'TYPE_WINDOW_CONTENT_CHANGED'
p2527
sS'PackageName'
p2528
S'com.example.myfristandroid'
p2529
sS'OutBounds'
p2530
S'Rect(0, 50 - 1196, 720)'
p2531
sS'Action'
p2532
S'[ ClassName: com.android.org.chromium.content.browser.ContentViewCore; Text: []; ContentDescription: \xe7\xbd\x91\xe9\xa1\xb5\xe8\xa7\x86\xe5\x9b\xbe; ItemCount: -1; CurrentItemIndex: -1; IsEnabled: true; IsPassword: false; IsChecked: false; IsFullScreen: false; Scrollable: true; BeforeText: null; FromIndex: -1; ToIndex: -1; ScrollX: 0; ScrollY: 0; MaxScrollX: 476; MaxScrollY: 0; AddedCount: -1; RemovedCount: -1; ParcelableData: null ]'
p2533
sS'MovementGranularity'
p2534
g6
sa(dp2535
S'EventTime'
p2536
S'101480312'
p2537
sg4
L1449714007017L
sS'recordCount'
p2538
g6
sS'EventType'
p2539
S'TYPE_WINDOW_CONTENT_CHANGED'
p2540
sS'PackageName'
p2541
S'com.example.myfristandroid'
p2542
sS'OutBounds'
p2543
S'Rect(0, 50 - 1196, 720)'
p2544
sS'Action'
p2545
S'[ ClassName: android.view.View; Text: []; ContentDescription: null; ItemCount: 0; CurrentItemIndex: 0; IsEnabled: true; IsPassword: false; IsChecked: false; IsFullScreen: false; Scrollable: true; BeforeText: null; FromIndex: -1; ToIndex: -1; ScrollX: 0; ScrollY: 0; MaxScrollX: 0; MaxScrollY: 0; AddedCount: -1; RemovedCount: -1; ParcelableData: null ]'
p2546
sS'MovementGranularity'
p2547
g6
sa(dp2548
S'EventTime'
p2549
S'101482667'
p2550
sg4
L1449714009399L
sS'recordCount'
p2551
g6
sS'EventType'
p2552
S'TYPE_WINDOW_STATE_CHANGED'
p2553
sS'PackageName'
p2554
S'com.example.myfristandroid'
p2555
sS'OutBounds'
p2556
S'Rect(0, 0 - 720, 1184)'
p2557
sS'Action'
p2558
S'[ ClassName: com.example.myfristandroid.MainActivity; Text: [SE-1800\xe7\xa7\xbb\xe5\x8a\xa8APP]; ContentDescription: null; ItemCount: -1; CurrentItemIndex: -1; IsEnabled: true; IsPassword: false; IsChecked: false; IsFullScreen: true; Scrollable: false; BeforeText: null; FromIndex: -1; ToIndex: -1; ScrollX: -1; ScrollY: -1; MaxScrollX: -1; MaxScrollY: -1; AddedCount: -1; RemovedCount: -1; ParcelableData: null ]'
p2559
sS'MovementGranularity'
p2560
g6
sa(dp2561
S'EventTime'
p2562
S'101482709'
p2563
sg4
L1449714009456L
sS'recordCount'
p2564
g6
sS'EventType'
p2565
S'TYPE_WINDOW_CONTENT_CHANGED'
p2566
sS'PackageName'
p2567
S'com.example.myfristandroid'
p2568
sS'OutBounds'
p2569
S'Rect(0, 140 - 720, 1074)'
p2570
sS'Action'
p2571
S'[ ClassName: android.widget.GridView; Text: []; ContentDescription: null; ItemCount: 9; CurrentItemIndex: -1; IsEnabled: true; IsPassword: false; IsChecked: false; IsFullScreen: false; Scrollable: false; BeforeText: null; FromIndex: 0; ToIndex: 8; ScrollX: -1; ScrollY: -1; MaxScrollX: -1; MaxScrollY: -1; AddedCount: -1; RemovedCount: -1; ParcelableData: null ]'
p2572
sS'MovementGranularity'
p2573
g6
sa(dp2574
S'EventTime'
p2575
S'101483924'
p2576
sg4
L1449714010628L
sS'recordCount'
p2577
g6
sS'EventType'
p2578
S'TYPE_VIEW_CLICKED'
p2579
sS'PackageName'
p2580
S'com.example.myfristandroid'
p2581
sS'OutBounds'
p2582
S'Rect(360, 1074 - 540, 1184)'
p2583
sS'Action'
p2584
S'[ ClassName: android.widget.LinearLayout; Text: [\xe6\x9f\xa5\xe7\x9c\x8b\xe5\xae\x9e\xe6\x97\xb6\xe5\x91\x8a\xe8\xad\xa6\xe4\xbf\xa1\xe6\x81\xaf, \xe5\x91\x8a\xe8\xad\xa6]; ContentDescription: null; ItemCount: -1; CurrentItemIndex: -1; IsEnabled: true; IsPassword: false; IsChecked: false; IsFullScreen: false; Scrollable: false; BeforeText: null; FromIndex: -1; ToIndex: -1; ScrollX: -1; ScrollY: -1; MaxScrollX: -1; MaxScrollY: -1; AddedCount: -1; RemovedCount: -1; ParcelableData: null ]'
p2585
sS'MovementGranularity'
p2586
g6
sa(dp2587
S'EventTime'
p2588
S'101483939'
p2589
sg4
L1449714010682L
sS'recordCount'
p2590
g6
sS'EventType'
p2591
S'TYPE_WINDOW_CONTENT_CHANGED'
p2592
sS'PackageName'
p2593
S'com.example.myfristandroid'
p2594
sS'OutBounds'
p2595
S'Rect(-1352, 140 - -632, 1074)'
p2596
sS'Action'
p2597
S'[ ClassName: android.widget.GridView; Text: []; ContentDescription: null; ItemCount: 9; CurrentItemIndex: -1; IsEnabled: true; IsPassword: false; IsChecked: false; IsFullScreen: false; Scrollable: false; BeforeText: null; FromIndex: 0; ToIndex: 8; ScrollX: -1; ScrollY: -1; MaxScrollX: -1; MaxScrollY: -1; AddedCount: -1; RemovedCount: -1; ParcelableData: null ]'
p2598
sS'MovementGranularity'
p2599
g6
sa(dp2600
S'EventTime'
p2601
S'101483940'
p2602
sg4
L1449714010716L
sS'recordCount'
p2603
g6
sS'EventType'
p2604
S'TYPE_VIEW_FOCUSED'
p2605
sS'PackageName'
p2606
S'com.example.myfristandroid'
p2607
sS'OutBounds'
p2608
S'Rect(37, 250 - 745, 310)'
p2609
sS'Action'
p2610
S'[ ClassName: android.widget.EditText; Text: [\xe6\x90\x9c\xe7\xb4\xa2]; ContentDescription: null; ItemCount: 8; CurrentItemIndex: 2; IsEnabled: true; IsPassword: false; IsChecked: false; IsFullScreen: false; Scrollable: false; BeforeText: null; FromIndex: -1; ToIndex: -1; ScrollX: -1; ScrollY: -1; MaxScrollX: -1; MaxScrollY: -1; AddedCount: -1; RemovedCount: -1; ParcelableData: null ]'
p2611
sS'MovementGranularity'
p2612
g6
sa(dp2613
S'EventTime'
p2614
S'101484068'
p2615
sg4
L1449714010798L
sS'recordCount'
p2616
g6
sS'EventType'
p2617
S'TYPE_WINDOW_CONTENT_CHANGED'
p2618
sS'PackageName'
p2619
S'com.example.myfristandroid'
p2620
sS'OutBounds'
p2621
S'Rect(-1438, 140 - -718, 1074)'
p2622
sS'Action'
p2623
S'[ ClassName: android.widget.GridView; Text: []; ContentDescription: null; ItemCount: 9; CurrentItemIndex: -1; IsEnabled: true; IsPassword: false; IsChecked: false; IsFullScreen: false; Scrollable: false; BeforeText: null; FromIndex: 0; ToIndex: 8; ScrollX: -1; ScrollY: -1; MaxScrollX: -1; MaxScrollY: -1; AddedCount: -1; RemovedCount: -1; ParcelableData: null ]'
p2624
sS'MovementGranularity'
p2625
g6
sa(dp2626
S'EventTime'
p2627
S'101484069'
p2628
sg4
L1449714010858L
sS'recordCount'
p2629
g6
sS'EventType'
p2630
S'TYPE_VIEW_SCROLLED'
p2631
sS'PackageName'
p2632
S'com.example.myfristandroid'
p2633
sS'OutBounds'
p2634
S'Rect(0, 140 - 720, 1074)'
p2635
sS'Action'
p2636
S'[ ClassName: android.support.v4.view.ViewPager; Text: []; ContentDescription: null; ItemCount: -1; CurrentItemIndex: -1; IsEnabled: true; IsPassword: false; IsChecked: false; IsFullScreen: false; Scrollable: false; BeforeText: null; FromIndex: -1; ToIndex: -1; ScrollX: -1; ScrollY: -1; MaxScrollX: -1; MaxScrollY: -1; AddedCount: -1; RemovedCount: -1; ParcelableData: null ]'
p2637
sS'MovementGranularity'
p2638
g6
sa(dp2639
S'EventTime'
p2640
S'101484173'
p2641
sg4
L1449714010907L
sS'recordCount'
p2642
g6
sS'EventType'
p2643
S'TYPE_VIEW_SCROLLED'
p2644
sS'PackageName'
p2645
S'com.example.myfristandroid'
p2646
sS'OutBounds'
p2647
S'Rect(0, 140 - 720, 1074)'
p2648
sS'Action'
p2649
S'[ ClassName: android.support.v4.view.ViewPager; Text: []; ContentDescription: null; ItemCount: -1; CurrentItemIndex: -1; IsEnabled: true; IsPassword: false; IsChecked: false; IsFullScreen: false; Scrollable: false; BeforeText: null; FromIndex: -1; ToIndex: -1; ScrollX: -1; ScrollY: -1; MaxScrollX: -1; MaxScrollY: -1; AddedCount: -1; RemovedCount: -1; ParcelableData: null ]'
p2650
sS'MovementGranularity'
p2651
g6
sa(dp2652
S'EventTime'
p2653
S'101484307'
p2654
sg4
L1449714011036L
sS'recordCount'
p2655
g6
sS'EventType'
p2656
S'TYPE_VIEW_SCROLLED'
p2657
sS'PackageName'
p2658
S'com.example.myfristandroid'
p2659
sS'OutBounds'
p2660
S'Rect(0, 140 - 720, 1074)'
p2661
sS'Action'
p2662
S'[ ClassName: android.support.v4.view.ViewPager; Text: []; ContentDescription: null; ItemCount: -1; CurrentItemIndex: -1; IsEnabled: true; IsPassword: false; IsChecked: false; IsFullScreen: false; Scrollable: false; BeforeText: null; FromIndex: -1; ToIndex: -1; ScrollX: -1; ScrollY: -1; MaxScrollX: -1; MaxScrollY: -1; AddedCount: -1; RemovedCount: -1; ParcelableData: null ]'
p2663
sS'MovementGranularity'
p2664
g6
sa(dp2665
S'EventTime'
p2666
S'101484817'
p2667
sg4
L1449714011523L
sS'recordCount'
p2668
g6
sS'EventType'
p2669
S'TYPE_VIEW_CLICKED'
p2670
sS'PackageName'
p2671
S'com.example.myfristandroid'
p2672
sS'OutBounds'
p2673
S'Rect(540, 1074 - 720, 1184)'
p2674
sS'Action'
p2675
S'[ ClassName: android.widget.LinearLayout; Text: [\xe8\xae\xbe\xe7\xbd\xae\xe7\xb3\xbb\xe7\xbb\x9f\xe8\xbf\x90\xe8\xa1\x8c\xe5\x8f\x82\xe6\x95\xb0, \xe8\xae\xbe\xe7\xbd\xae]; ContentDescription: null; ItemCount: -1; CurrentItemIndex: -1; IsEnabled: true; IsPassword: false; IsChecked: false; IsFullScreen: false; Scrollable: false; BeforeText: null; FromIndex: -1; ToIndex: -1; ScrollX: -1; ScrollY: -1; MaxScrollX: -1; MaxScrollY: -1; AddedCount: -1; RemovedCount: -1; ParcelableData: null ]'
p2676
sS'MovementGranularity'
p2677
g6
sa(dp2678
S'EventTime'
p2679
S'101484823'
p2680
sg4
L1449714011547L
sS'recordCount'
p2681
g6
sS'EventType'
p2682
S'TYPE_VIEW_FOCUSED'
p2683
sS'PackageName'
p2684
S'com.example.myfristandroid'
p2685
sS'OutBounds'
p2686
S'Rect(211, 150 - 721, 210)'
p2687
sS'Action'
p2688
S'[ ClassName: android.widget.EditText; Text: [218.94.19.234]; ContentDescription: null; ItemCount: 10; CurrentItemIndex: 0; IsEnabled: true; IsPassword: false; IsChecked: false; IsFullScreen: false; Scrollable: false; BeforeText: null; FromIndex: -1; ToIndex: -1; ScrollX: -1; ScrollY: -1; MaxScrollX: -1; MaxScrollY: -1; AddedCount: -1; RemovedCount: -1; ParcelableData: null ]'
p2689
sS'MovementGranularity'
p2690
g6
sa(dp2691
S'EventTime'
p2692
S'101484831'
p2693
sg4
L1449714011566L
sS'recordCount'
p2694
g6
sS'EventType'
p2695
S'TYPE_WINDOW_CONTENT_CHANGED'
p2696
sS'PackageName'
p2697
S'com.example.myfristandroid'
p2698
sS'OutBounds'
p2699
S'Rect(223, 500 - 503, 560)'
p2700
sS'Action'
p2701
S'[ ClassName: android.widget.Button; Text: []; ContentDescription: null; ItemCount: -1; CurrentItemIndex: -1; IsEnabled: true; IsPassword: false; IsChecked: false; IsFullScreen: false; Scrollable: false; BeforeText: null; FromIndex: -1; ToIndex: -1; ScrollX: -1; ScrollY: -1; MaxScrollX: -1; MaxScrollY: -1; AddedCount: -1; RemovedCount: -1; ParcelableData: null ]'
p2702
sS'MovementGranularity'
p2703
g6
sa(dp2704
S'EventTime'
p2705
S'101484942'
p2706
sg4
L1449714011658L
sS'recordCount'
p2707
g6
sS'EventType'
p2708
S'TYPE_VIEW_SCROLLED'
p2709
sS'PackageName'
p2710
S'com.example.myfristandroid'
p2711
sS'OutBounds'
p2712
S'Rect(0, 140 - 720, 1074)'
p2713
sS'Action'
p2714
S'[ ClassName: android.support.v4.view.ViewPager; Text: []; ContentDescription: null; ItemCount: -1; CurrentItemIndex: -1; IsEnabled: true; IsPassword: false; IsChecked: false; IsFullScreen: false; Scrollable: false; BeforeText: null; FromIndex: -1; ToIndex: -1; ScrollX: -1; ScrollY: -1; MaxScrollX: -1; MaxScrollY: -1; AddedCount: -1; RemovedCount: -1; ParcelableData: null ]'
p2715
sS'MovementGranularity'
p2716
g6
sa(dp2717
S'EventTime'
p2718
S'101485068'
p2719
sg4
L1449714011794L
sS'recordCount'
p2720
g6
sS'EventType'
p2721
S'TYPE_VIEW_SCROLLED'
p2722
sS'PackageName'
p2723
S'com.example.myfristandroid'
p2724
sS'OutBounds'
p2725
S'Rect(0, 140 - 720, 1074)'
p2726
sS'Action'
p2727
S'[ ClassName: android.support.v4.view.ViewPager; Text: []; ContentDescription: null; ItemCount: -1; CurrentItemIndex: -1; IsEnabled: true; IsPassword: false; IsChecked: false; IsFullScreen: false; Scrollable: false; BeforeText: null; FromIndex: -1; ToIndex: -1; ScrollX: -1; ScrollY: -1; MaxScrollX: -1; MaxScrollY: -1; AddedCount: -1; RemovedCount: -1; ParcelableData: null ]'
p2728
sS'MovementGranularity'
p2729
g6
sa(dp2730
S'EventTime'
p2731
S'101485788'
p2732
sg4
L1449714012494L
sS'recordCount'
p2733
g6
sS'EventType'
p2734
S'TYPE_VIEW_CLICKED'
p2735
sS'PackageName'
p2736
S'com.example.myfristandroid'
p2737
sS'OutBounds'
p2738
S'Rect(220, 500 - 500, 560)'
p2739
sS'Action'
p2740
S'[ ClassName: android.widget.Button; Text: [\xe7\x99\xbb\xe5\xbd\x95]; ContentDescription: null; ItemCount: -1; CurrentItemIndex: -1; IsEnabled: true; IsPassword: false; IsChecked: false; IsFullScreen: false; Scrollable: false; BeforeText: null; FromIndex: -1; ToIndex: -1; ScrollX: -1; ScrollY: -1; MaxScrollX: -1; MaxScrollY: -1; AddedCount: -1; RemovedCount: -1; ParcelableData: null ]'
p2741
sS'MovementGranularity'
p2742
g6
sa(dp2743
S'EventTime'
p2744
S'101486910'
p2745
sg4
L1449714013624L
sS'recordCount'
p2746
g6
sS'EventType'
p2747
S'TYPE_WINDOW_STATE_CHANGED'
p2748
sS'PackageName'
p2749
S'com.example.myfristandroid'
p2750
sS'OutBounds'
p2751
S'Rect(0, 0 - 720, 1184)'
p2752
sS'Action'
p2753
S'[ ClassName: com.example.myfristandroid.HuzAlertDialog; Text: [\xe6\x8f\x90\xe7\xa4\xba, \xe7\x99\xbb\xe5\xbd\x95\xe5\xa4\xb1\xe8\xb4\xa5\xef\xbc\x8c\xe5\xaf\x86\xe7\xa0\x81\xe9\x94\x99\xe8\xaf\xaf, \xe7\xa1\xae\xe5\xae\x9a]; ContentDescription: null; ItemCount: -1; CurrentItemIndex: -1; IsEnabled: true; IsPassword: false; IsChecked: false; IsFullScreen: true; Scrollable: false; BeforeText: null; FromIndex: -1; ToIndex: -1; ScrollX: -1; ScrollY: -1; MaxScrollX: -1; MaxScrollY: -1; AddedCount: -1; RemovedCount: -1; ParcelableData: null ]'
p2754
sS'MovementGranularity'
p2755
g6
sa(dp2756
S'EventTime'
p2757
S'101487078'
p2758
sg4
L1449714013784L
sS'recordCount'
p2759
g6
sS'EventType'
p2760
S'TYPE_WINDOW_CONTENT_CHANGED'
p2761
sS'PackageName'
p2762
S'com.example.myfristandroid'
p2763
sS'OutBounds'
p2764
S'Rect(59, 562 - 673, 632)'
p2765
sS'Action'
p2766
S'[ ClassName: android.widget.TextView; Text: []; ContentDescription: null; ItemCount: -1; CurrentItemIndex: -1; IsEnabled: true; IsPassword: false; IsChecked: false; IsFullScreen: false; Scrollable: false; BeforeText: null; FromIndex: -1; ToIndex: -1; ScrollX: -1; ScrollY: -1; MaxScrollX: -1; MaxScrollY: -1; AddedCount: -1; RemovedCount: -1; ParcelableData: null ]'
p2767
sS'MovementGranularity'
p2768
g6
sa(dp2769
S'EventTime'
p2770
S'101488038'
p2771
sg4
L1449714014744L
sS'recordCount'
p2772
g6
sS'EventType'
p2773
S'TYPE_VIEW_CLICKED'
p2774
sS'PackageName'
p2775
S'com.example.myfristandroid'
p2776
sS'OutBounds'
p2777
S'Rect(203, 664 - 520, 760)'
p2778
sS'Action'
p2779
S'[ ClassName: android.widget.Button; Text: [\xe7\xa1\xae\xe5\xae\x9a]; ContentDescription: null; ItemCount: -1; CurrentItemIndex: -1; IsEnabled: true; IsPassword: false; IsChecked: false; IsFullScreen: false; Scrollable: false; BeforeText: null; FromIndex: -1; ToIndex: -1; ScrollX: -1; ScrollY: -1; MaxScrollX: -1; MaxScrollY: -1; AddedCount: -1; RemovedCount: -1; ParcelableData: null ]'
p2780
sS'MovementGranularity'
p2781
g6
sa(dp2782
S'EventTime'
p2783
S'101488059'
p2784
sg4
L1449714014910L
sS'recordCount'
p2785
g6
sS'EventType'
p2786
S'TYPE_WINDOW_STATE_CHANGED'
p2787
sS'PackageName'
p2788
S'com.example.myfristandroid'
p2789
sS'OutBounds'
p2790
S'Rect(0, 0 - 720, 1184)'
p2791
sS'Action'
p2792
S'[ ClassName: com.example.myfristandroid.MainActivity; Text: [SE-1800\xe7\xa7\xbb\xe5\x8a\xa8APP]; ContentDescription: null; ItemCount: -1; CurrentItemIndex: -1; IsEnabled: true; IsPassword: false; IsChecked: false; IsFullScreen: true; Scrollable: false; BeforeText: null; FromIndex: -1; ToIndex: -1; ScrollX: -1; ScrollY: -1; MaxScrollX: -1; MaxScrollY: -1; AddedCount: -1; RemovedCount: -1; ParcelableData: null ]'
p2793
sS'MovementGranularity'
p2794
g6
sa(dp2795
S'EventTime'
p2796
S'101489368'
p2797
sg4
L1449714016087L
sS'recordCount'
p2798
g6
sS'EventType'
p2799
S'TYPE_WINDOW_STATE_CHANGED'
p2800
sS'PackageName'
p2801
S'com.example.myfristandroid'
p2802
sS'OutBounds'
p2803
S'Rect(0, 0 - 720, 1184)'
p2804
sS'Action'
p2805
S'[ ClassName: com.example.myfristandroid.HuzAlertDialog; Text: [\xe9\x80\x80\xe5\x87\xba, \xe7\xa1\xae\xe5\xae\x9a\xe9\x80\x80\xe5\x87\xba\xe7\xb3\xbb\xe7\xbb\x9f\xe5\x90\x97\xef\xbc\x9f, \xe5\x90\x8e\xe5\x8f\xb0\xe8\xbf\x90\xe8\xa1\x8c, \xe9\x80\x80\xe5\x87\xba]; ContentDescription: null; ItemCount: -1; CurrentItemIndex: -1; IsEnabled: true; IsPassword: false; IsChecked: false; IsFullScreen: true; Scrollable: false; BeforeText: null; FromIndex: -1; ToIndex: -1; ScrollX: -1; ScrollY: -1; MaxScrollX: -1; MaxScrollY: -1; AddedCount: -1; RemovedCount: -1; ParcelableData: null ]'
p2806
sS'MovementGranularity'
p2807
g6
sa(dp2808
S'EventTime'
p2809
S'101489533'
p2810
sg4
L1449714016241L
sS'recordCount'
p2811
g6
sS'EventType'
p2812
S'TYPE_WINDOW_CONTENT_CHANGED'
p2813
sS'PackageName'
p2814
S'com.example.myfristandroid'
p2815
sS'OutBounds'
p2816
S'Rect(59, 562 - 673, 632)'
p2817
sS'Action'
p2818
S'[ ClassName: android.widget.TextView; Text: []; ContentDescription: null; ItemCount: -1; CurrentItemIndex: -1; IsEnabled: true; IsPassword: false; IsChecked: false; IsFullScreen: false; Scrollable: false; BeforeText: null; FromIndex: -1; ToIndex: -1; ScrollX: -1; ScrollY: -1; MaxScrollX: -1; MaxScrollY: -1; AddedCount: -1; RemovedCount: -1; ParcelableData: null ]'
p2819
sS'MovementGranularity'
p2820
g6
sa(dp2821
S'EventTime'
p2822
S'101491348'
p2823
sg4
L1449714018084L
sS'recordCount'
p2824
g6
sS'EventType'
p2825
S'TYPE_WINDOW_STATE_CHANGED'
p2826
sS'PackageName'
p2827
S'com.example.myfristandroid'
p2828
sS'OutBounds'
p2829
S'Rect(0, 0 - 720, 1184)'
p2830
sS'Action'
p2831
S'[ ClassName: com.example.myfristandroid.MainActivity; Text: [SE-1800\xe7\xa7\xbb\xe5\x8a\xa8APP]; ContentDescription: null; ItemCount: -1; CurrentItemIndex: -1; IsEnabled: true; IsPassword: false; IsChecked: false; IsFullScreen: true; Scrollable: false; BeforeText: null; FromIndex: -1; ToIndex: -1; ScrollX: -1; ScrollY: -1; MaxScrollX: -1; MaxScrollY: -1; AddedCount: -1; RemovedCount: -1; ParcelableData: null ]'
p2832
sS'MovementGranularity'
p2833
g6
sa(dp2834
S'EventTime'
p2835
S'101492374'
p2836
sg4
L1449714019078L
sS'recordCount'
p2837
g6
sS'EventType'
p2838
S'TYPE_VIEW_CLICKED'
p2839
sS'PackageName'
p2840
S'com.example.myfristandroid'
p2841
sS'OutBounds'
p2842
S'Rect(0, 1074 - 180, 1184)'
p2843
sS'Action'
p2844
S'[ ClassName: android.widget.LinearLayout; Text: [\xe7\x94\xbb\xe9\x9d\xa2\xe6\xb5\x8f\xe8\xa7\x88, \xe7\x94\xbb\xe9\x9d\xa2]; ContentDescription: null; ItemCount: -1; CurrentItemIndex: -1; IsEnabled: true; IsPassword: false; IsChecked: false; IsFullScreen: false; Scrollable: false; BeforeText: null; FromIndex: -1; ToIndex: -1; ScrollX: -1; ScrollY: -1; MaxScrollX: -1; MaxScrollY: -1; AddedCount: -1; RemovedCount: -1; ParcelableData: null ]'
p2845
sS'MovementGranularity'
p2846
g6
sa(dp2847
S'EventTime'
p2848
S'101492385'
p2849
sg4
L1449714019108L
sS'recordCount'
p2850
g6
sS'EventType'
p2851
S'TYPE_VIEW_FOCUSED'
p2852
sS'PackageName'
p2853
S'com.example.myfristandroid'
p2854
sS'OutBounds'
p2855
S'Rect(-403, 140 - 316, 1074)'
p2856
sS'Action'
p2857
S'[ ClassName: android.widget.GridView; Text: []; ContentDescription: null; ItemCount: 9; CurrentItemIndex: -1; IsEnabled: true; IsPassword: false; IsChecked: false; IsFullScreen: false; Scrollable: false; BeforeText: null; FromIndex: 0; ToIndex: 8; ScrollX: -1; ScrollY: -1; MaxScrollX: -1; MaxScrollY: -1; AddedCount: -1; RemovedCount: -1; ParcelableData: null ]'
p2858
sS'MovementGranularity'
p2859
g6
sa(dp2860
S'EventTime'
p2861
S'101492424'
p2862
sg4
L1449714019159L
sS'recordCount'
p2863
g6
sS'EventType'
p2864
S'TYPE_WINDOW_CONTENT_CHANGED'
p2865
sS'PackageName'
p2866
S'com.example.myfristandroid'
p2867
sS'OutBounds'
p2868
S'Rect(-231, 140 - 488, 1074)'
p2869
sS'Action'
p2870
S'[ ClassName: android.widget.GridView; Text: []; ContentDescription: null; ItemCount: 9; CurrentItemIndex: -1; IsEnabled: true; IsPassword: false; IsChecked: false; IsFullScreen: false; Scrollable: false; BeforeText: null; FromIndex: 0; ToIndex: 8; ScrollX: -1; ScrollY: -1; MaxScrollX: -1; MaxScrollY: -1; AddedCount: -1; RemovedCount: -1; ParcelableData: null ]'
p2871
sS'MovementGranularity'
p2872
g6
sa(dp2873
S'EventTime'
p2874
S'101492534'
p2875
sg4
L1449714019262L
sS'recordCount'
p2876
g6
sS'EventType'
p2877
S'TYPE_WINDOW_CONTENT_CHANGED'
p2878
sS'PackageName'
p2879
S'com.example.myfristandroid'
p2880
sS'OutBounds'
p2881
S'Rect(-19, 140 - 700, 1074)'
p2882
sS'Action'
p2883
S'[ ClassName: android.widget.GridView; Text: []; ContentDescription: null; ItemCount: 9; CurrentItemIndex: -1; IsEnabled: true; IsPassword: false; IsChecked: false; IsFullScreen: false; Scrollable: false; BeforeText: null; FromIndex: 0; ToIndex: 8; ScrollX: -1; ScrollY: -1; MaxScrollX: -1; MaxScrollY: -1; AddedCount: -1; RemovedCount: -1; ParcelableData: null ]'
p2884
sS'MovementGranularity'
p2885
g6
sa(dp2886
S'EventTime'
p2887
S'101492554'
p2888
sg4
L1449714019318L
sS'recordCount'
p2889
g6
sS'EventType'
p2890
S'TYPE_VIEW_SCROLLED'
p2891
sS'PackageName'
p2892
S'com.example.myfristandroid'
p2893
sS'OutBounds'
p2894
S'Rect(0, 140 - 720, 1074)'
p2895
sS'Action'
p2896
S'[ ClassName: android.support.v4.view.ViewPager; Text: []; ContentDescription: null; ItemCount: -1; CurrentItemIndex: -1; IsEnabled: true; IsPassword: false; IsChecked: false; IsFullScreen: false; Scrollable: false; BeforeText: null; FromIndex: -1; ToIndex: -1; ScrollX: -1; ScrollY: -1; MaxScrollX: -1; MaxScrollY: -1; AddedCount: -1; RemovedCount: -1; ParcelableData: null ]'
p2897
sS'MovementGranularity'
p2898
g6
sa(dp2899
S'EventTime'
p2900
S'101492660'
p2901
sg4
L1449714019391L
sS'recordCount'
p2902
g6
sS'EventType'
p2903
S'TYPE_VIEW_SCROLLED'
p2904
sS'PackageName'
p2905
S'com.example.myfristandroid'
p2906
sS'OutBounds'
p2907
S'Rect(0, 140 - 720, 1074)'
p2908
sS'Action'
p2909
S'[ ClassName: android.support.v4.view.ViewPager; Text: []; ContentDescription: null; ItemCount: -1; CurrentItemIndex: -1; IsEnabled: true; IsPassword: false; IsChecked: false; IsFullScreen: false; Scrollable: false; BeforeText: null; FromIndex: -1; ToIndex: -1; ScrollX: -1; ScrollY: -1; MaxScrollX: -1; MaxScrollY: -1; AddedCount: -1; RemovedCount: -1; ParcelableData: null ]'
p2910
sS'MovementGranularity'
p2911
g6
sa(dp2912
S'EventTime'
p2913
S'101492766'
p2914
sg4
L1449714019493L
sS'recordCount'
p2915
g6
sS'EventType'
p2916
S'TYPE_VIEW_SCROLLED'
p2917
sS'PackageName'
p2918
S'com.example.myfristandroid'
p2919
sS'OutBounds'
p2920
S'Rect(0, 140 - 720, 1074)'
p2921
sS'Action'
p2922
S'[ ClassName: android.support.v4.view.ViewPager; Text: []; ContentDescription: null; ItemCount: -1; CurrentItemIndex: -1; IsEnabled: true; IsPassword: false; IsChecked: false; IsFullScreen: false; Scrollable: false; BeforeText: null; FromIndex: -1; ToIndex: -1; ScrollX: -1; ScrollY: -1; MaxScrollX: -1; MaxScrollY: -1; AddedCount: -1; RemovedCount: -1; ParcelableData: null ]'
p2923
sS'MovementGranularity'
p2924
g6
sa(dp2925
S'EventTime'
p2926
S'101494548'
p2927
sg4
L1449714021253L
sS'recordCount'
p2928
g137
sS'EventType'
p2929
S'TYPE_VIEW_CLICKED'
p2930
sS'PackageName'
p2931
S'com.example.myfristandroid'
p2932
sS'OutBounds'
p2933
S'Rect(6, 382 - 240, 616)'
p2934
sS'Action'
p2935
S'[ ClassName: android.widget.RelativeLayout; Text: [\xe9\x80\x86\xe5\x8f\x98\xe5\x99\xa8]; ContentDescription: null; ItemCount: -1; CurrentItemIndex: -1; IsEnabled: true; IsPassword: false; IsChecked: false; IsFullScreen: false; Scrollable: false; BeforeText: null; FromIndex: -1; ToIndex: -1; ScrollX: -1; ScrollY: -1; MaxScrollX: -1; MaxScrollY: -1; AddedCount: -1; RemovedCount: -1; ParcelableData: null ]'
p2936
sS'MovementGranularity'
p2937
g6
sa(dp2938
S'EventTime'
p2939
S'101494847'
p2940
sg4
L1449714021555L
sS'recordCount'
p2941
g6
sS'EventType'
p2942
S'TYPE_WINDOW_STATE_CHANGED'
p2943
sS'PackageName'
p2944
S'com.example.myfristandroid'
p2945
sS'OutBounds'
p2946
S'Rect(0, 0 - 720, 1184)'
p2947
sS'Action'
p2948
S'[ ClassName: com.example.myfristandroid.graphWebShow; Text: [SE-1800\xe7\xa7\xbb\xe5\x8a\xa8APP]; ContentDescription: null; ItemCount: -1; CurrentItemIndex: -1; IsEnabled: true; IsPassword: false; IsChecked: false; IsFullScreen: true; Scrollable: false; BeforeText: null; FromIndex: -1; ToIndex: -1; ScrollX: -1; ScrollY: -1; MaxScrollX: -1; MaxScrollY: -1; AddedCount: -1; RemovedCount: -1; ParcelableData: null ]'
p2949
sS'MovementGranularity'
p2950
g6
sa(dp2951
S'EventTime'
p2952
S'101494934'
p2953
sg4
L1449714021641L
sS'recordCount'
p2954
g6
sS'EventType'
p2955
S'TYPE_WINDOW_CONTENT_CHANGED'
p2956
sS'PackageName'
p2957
S'com.example.myfristandroid'
p2958
sS'OutBounds'
p2959
S'Rect(0, 140 - 720, 1184)'
p2960
sS'Action'
p2961
S'[ ClassName: com.android.org.chromium.content.browser.ContentViewCore; Text: []; ContentDescription: \xe7\xbd\x91\xe9\xa1\xb5\xe8\xa7\x86\xe5\x9b\xbe; ItemCount: -1; CurrentItemIndex: -1; IsEnabled: true; IsPassword: false; IsChecked: false; IsFullScreen: false; Scrollable: false; BeforeText: null; FromIndex: -1; ToIndex: -1; ScrollX: 0; ScrollY: 0; MaxScrollX: 0; MaxScrollY: 0; AddedCount: -1; RemovedCount: -1; ParcelableData: null ]'
p2962
sS'MovementGranularity'
p2963
g6
sa(dp2964
S'EventTime'
p2965
S'101495615'
p2966
sg4
L1449714022344L
sS'recordCount'
p2967
g6
sS'EventType'
p2968
S'TYPE_WINDOW_CONTENT_CHANGED'
p2969
sS'PackageName'
p2970
S'com.example.myfristandroid'
p2971
sS'OutBounds'
p2972
S'Rect(0, 50 - 1196, 720)'
p2973
sS'Action'
p2974
S'[ ClassName: com.android.org.chromium.content.browser.ContentViewCore; Text: []; ContentDescription: \xe7\xbd\x91\xe9\xa1\xb5\xe8\xa7\x86\xe5\x9b\xbe; ItemCount: -1; CurrentItemIndex: -1; IsEnabled: true; IsPassword: false; IsChecked: false; IsFullScreen: false; Scrollable: false; BeforeText: null; FromIndex: -1; ToIndex: -1; ScrollX: 0; ScrollY: 0; MaxScrollX: 0; MaxScrollY: 0; AddedCount: -1; RemovedCount: -1; ParcelableData: null ]'
p2975
sS'MovementGranularity'
p2976
g6
sa(dp2977
S'EventTime'
p2978
S'101495737'
p2979
sg4
L1449714022444L
sS'recordCount'
p2980
g6
sS'EventType'
p2981
S'TYPE_WINDOW_CONTENT_CHANGED'
p2982
sS'PackageName'
p2983
S'com.example.myfristandroid'
p2984
sS'OutBounds'
p2985
S'Rect(0, 0 - 1196, 720)'
p2986
sS'Action'
p2987
S'[ ClassName: android.widget.FrameLayout; Text: []; ContentDescription: null; ItemCount: -1; CurrentItemIndex: -1; IsEnabled: true; IsPassword: false; IsChecked: false; IsFullScreen: false; Scrollable: false; BeforeText: null; FromIndex: -1; ToIndex: -1; ScrollX: -1; ScrollY: -1; MaxScrollX: -1; MaxScrollY: -1; AddedCount: -1; RemovedCount: -1; ParcelableData: null ]'
p2988
sS'MovementGranularity'
p2989
g6
sa(dp2990
S'EventTime'
p2991
S'101496170'
p2992
sg4
L1449714022879L
sS'recordCount'
p2993
g6
sS'EventType'
p2994
S'TYPE_WINDOW_CONTENT_CHANGED'
p2995
sS'PackageName'
p2996
S'com.example.myfristandroid'
p2997
sS'OutBounds'
p2998
S'Rect(1042, 210 - 1102, 232)'
p2999
sS'Action'
p3000
S'[ ClassName: android.view.View; Text: []; ContentDescription: null; ItemCount: 0; CurrentItemIndex: 0; IsEnabled: true; IsPassword: false; IsChecked: false; IsFullScreen: false; Scrollable: false; BeforeText: null; FromIndex: -1; ToIndex: -1; ScrollX: 0; ScrollY: 0; MaxScrollX: 0; MaxScrollY: 0; AddedCount: -1; RemovedCount: -1; ParcelableData: null ]'
p3001
sS'MovementGranularity'
p3002
g6
sa(dp3003
S'EventTime'
p3004
S'101499177'
p3005
sg4
L1449714025885L
sS'recordCount'
p3006
g6
sS'EventType'
p3007
S'TYPE_WINDOW_CONTENT_CHANGED'
p3008
sS'PackageName'
p3009
S'com.example.myfristandroid'
p3010
sS'OutBounds'
p3011
S'Rect(1042, 210 - 1102, 232)'
p3012
sS'Action'
p3013
S'[ ClassName: android.view.View; Text: []; ContentDescription: null; ItemCount: 0; CurrentItemIndex: 0; IsEnabled: true; IsPassword: false; IsChecked: false; IsFullScreen: false; Scrollable: false; BeforeText: null; FromIndex: -1; ToIndex: -1; ScrollX: 0; ScrollY: 0; MaxScrollX: 0; MaxScrollY: 0; AddedCount: -1; RemovedCount: -1; ParcelableData: null ]'
p3014
sS'MovementGranularity'
p3015
g6
sa.