(lp0
(dp1
S'processID'
p2
S'30103'
p3
sS'SyscTime'
p4
L1449716822744L
sS'priority'
p5
S'V'
p6
sS'tag'
p7
S'AudioManager'
p8
sS'threadID'
p9
S'30103'
p10
sS'message'
p11
S'playSoundEffect   effectType: 0\n'
p12
sa(dp13
g2
S'30103'
p14
sg4
L1449716822744L
sg5
g6
sg7
S'AudioManager'
p15
sg9
S'30103'
p16
sg11
S'querySoundEffectsEnabled...\n'
p17
sa(dp18
g2
S'30103'
p19
sg4
L1449716822754L
sg5
S'D'
p20
sg7
S'MainActivity'
p21
sg9
S'30103'
p22
sg11
S'V.getTag:null v.id:2131230791\n'
p23
sa(dp24
g2
S'30103'
p25
sg4
L1449716822814L
sg5
S'E'
p26
sg7
S'textview'
p27
sg9
S'30103'
p28
sg11
S'initAddtionalStyle default\n'
p29
sa(dp30
g2
S'30103'
p31
sg4
L1449716822824L
sg5
g26
sg7
S'textview'
p32
sg9
S'30103'
p33
sg11
S'initAddtionalStyle default\n'
p34
sa(dp35
g2
S'30103'
p36
sg4
L1449716822834L
sg5
g26
sg7
S'textview'
p37
sg9
S'30103'
p38
sg11
S'initAddtionalStyle default\n'
p39
sa(dp40
g2
S'30103'
p41
sg4
L1449716822994L
sg5
g6
sg7
S'AudioManager'
p42
sg9
S'30103'
p43
sg11
S'playSoundEffect   effectType: 0\n'
p44
sa(dp45
g2
S'30103'
p46
sg4
L1449716822994L
sg5
g6
sg7
S'AudioManager'
p47
sg9
S'30103'
p48
sg11
S'querySoundEffectsEnabled...\n'
p49
sa(dp50
g2
S'30103'
p51
sg4
L1449716823004L
sg5
g20
sg7
S'MainActivity'
p52
sg9
S'30103'
p53
sg11
S'V.getTag:null v.id:2131230791\n'
p54
sa(dp55
g2
S'30103'
p56
sg4
L1449716823034L
sg5
g26
sg7
S'textview'
p57
sg9
S'30103'
p58
sg11
S'initAddtionalStyle default\n'
p59
sa(dp60
g2
S'30103'
p61
sg4
L1449716823044L
sg5
g26
sg7
S'textview'
p62
sg9
S'30103'
p63
sg11
S'initAddtionalStyle default\n'
p64
sa(dp65
g2
S'30103'
p66
sg4
L1449716823174L
sg5
g20
sg7
S'dalvikvm'
p67
sg9
S'30107'
p68
sg11
S'GC_CONCURRENT freed 9294K, 35% free 24632K/37744K, paused 2ms+12ms, total 58ms\n'
p69
sa(dp70
g2
S'30125'
p71
sg4
L1449716827094L
sg5
g20
sg7
S'ForegroundActivity'
p72
sg9
S'30143'
p73
sg11
S'\xe6\x9c\xac\xe6\xac\xa1\xe5\x8f\x91\xe9\x80\x81\xe5\xb8\xa7\xe9\x95\xbf:13\t\xe6\x80\xbb\xe5\xb8\xa7\xe9\x95\xbf:181\n'
p74
sa(dp75
g2
S'30125'
p76
sg4
L1449716827174L
sg5
g20
sg7
S'ForegroundActivity'
p77
sg9
S'30148'
p78
sg11
S'\xe6\x9c\xac\xe6\xac\xa1\xe6\x94\xb6\xe5\x88\xb0\xe5\xb8\xa7\xe9\x95\xbf:13\t\xe6\x80\xbb\xe5\xb8\xa7\xe9\x95\xbf:1529\n'
p79
sa(dp80
g2
S'30125'
p81
sg4
L1449716827464L
sg5
g20
sg7
S'SocketService1'
p82
sg9
S'30145'
p83
sg11
S'\xe6\x9c\xac\xe6\xac\xa1\xe6\x8f\x90\xe5\x8f\x961:LoadPtr:1529 HeadIndex:1516 GetSize:13 13 0 \xe5\xa4\xb4\xe4\xbf\xa1\xe6\x81\xaf:EB 90 EB 90 EB 90 0D 00 10 01 \n'
p84
sa(dp85
g2
S'30103'
p86
sg4
L1449716828224L
sg5
g6
sg7
S'AudioManager'
p87
sg9
S'30103'
p88
sg11
S'playSoundEffect   effectType: 0\n'
p89
sa(dp90
g2
S'30103'
p91
sg4
L1449716828224L
sg5
g6
sg7
S'AudioManager'
p92
sg9
S'30103'
p93
sg11
S'querySoundEffectsEnabled...\n'
p94
sa(dp95
g2
S'30103'
p96
sg4
L1449716828254L
sg5
g20
sg7
S'MainActivity'
p97
sg9
S'30103'
p98
sg11
S'logList.size2():0 com.example.myfristandroid.myListView{42112010 V.ED.VC. ......ID 10,10-698,10 #7f08003c app:id/id_lv_logView}\n'
p99
sa(dp100
g2
S'30103'
p101
sg4
L1449716828254L
sg5
g20
sg7
S'MainActivity'
p102
sg9
S'30103'
p103
sg11
S'MainActivity Send BroadCast Length:22\n'
p104
sa(dp105
g2
S'30125'
p106
sg4
L1449716828274L
sg5
g20
sg7
S'ForegroundActivity'
p107
sg9
S'30125'
p108
sg11
S'\xe6\x9c\xac\xe6\xac\xa1\xe5\x8f\x91\xe9\x80\x81\xe5\xb8\xa7\xe9\x95\xbf:22\t\xe6\x80\xbb\xe5\xb8\xa7\xe9\x95\xbf:203\n'
p109
sa(dp110
g2
S'30103'
p111
sg4
L1449716830424L
sg5
g6
sg7
S'AudioManager'
p112
sg9
S'30103'
p113
sg11
S'playSoundEffect   effectType: 0\n'
p114
sa(dp115
g2
S'30103'
p116
sg4
L1449716830424L
sg5
g6
sg7
S'AudioManager'
p117
sg9
S'30103'
p118
sg11
S'querySoundEffectsEnabled...\n'
p119
sa(dp120
g2
S'30103'
p121
sg4
L1449716830444L
sg5
g20
sg7
S'MainActivity'
p122
sg9
S'30103'
p123
sg11
S'logList.size2():0 com.example.myfristandroid.myListView{42112010 V.ED.VC. ......ID 10,10-698,10 #7f08003c app:id/id_lv_logView}\n'
p124
sa(dp125
g2
S'30103'
p126
sg4
L1449716830444L
sg5
g20
sg7
S'MainActivity'
p127
sg9
S'30103'
p128
sg11
S'MainActivity Send BroadCast Length:22\n'
p129
sa(dp130
g2
S'30125'
p131
sg4
L1449716830464L
sg5
g20
sg7
S'ForegroundActivity'
p132
sg9
S'30125'
p133
sg11
S'\xe6\x9c\xac\xe6\xac\xa1\xe5\x8f\x91\xe9\x80\x81\xe5\xb8\xa7\xe9\x95\xbf:22\t\xe6\x80\xbb\xe5\xb8\xa7\xe9\x95\xbf:225\n'
p134
sa(dp135
g2
S'30103'
p136
sg4
L1449716832924L
sg5
g6
sg7
S'AudioManager'
p137
sg9
S'30103'
p138
sg11
S'playSoundEffect   effectType: 0\n'
p139
sa(dp140
g2
S'30103'
p141
sg4
L1449716832924L
sg5
g6
sg7
S'AudioManager'
p142
sg9
S'30103'
p143
sg11
S'querySoundEffectsEnabled...\n'
p144
sa(dp145
g2
S'30103'
p146
sg4
L1449716832924L
sg5
g20
sg7
S'MainActivity'
p147
sg9
S'30103'
p148
sg11
S'V.getTag:null v.id:2131230791\n'
p149
sa(dp150
g2
S'30103'
p151
sg4
L1449716832974L
sg5
g26
sg7
S'textview'
p152
sg9
S'30103'
p153
sg11
S'initAddtionalStyle default\n'
p154
sa(dp155
g2
S'30103'
p156
sg4
L1449716832984L
sg5
g26
sg7
S'textview'
p157
sg9
S'30103'
p158
sg11
S'initAddtionalStyle default\n'
p159
sa(dp160
g2
S'30103'
p161
sg4
L1449716835864L
sg5
g20
sg7
S'dalvikvm'
p162
sg9
S'30107'
p163
sg11
S'GC_CONCURRENT freed 1347K, 17% free 31338K/37744K, paused 3ms+4ms, total 32ms\n'
p164
sa(dp165
g2
S'30103'
p166
sg4
L1449716835944L
sg5
g20
sg7
S'cn.edu.nju.ise.kikandroid'
p167
sg9
S'30141'
p168
sg11
S'Screenshot:1449716835756\n'
p169
sa(dp170
g2
S'30103'
p171
sg4
L1449716837094L
sg5
g6
sg7
S'AudioManager'
p172
sg9
S'30103'
p173
sg11
S'playSoundEffect   effectType: 0\n'
p174
sa(dp175
g2
S'30103'
p176
sg4
L1449716837104L
sg5
g6
sg7
S'AudioManager'
p177
sg9
S'30103'
p178
sg11
S'querySoundEffectsEnabled...\n'
p179
sa(dp180
g2
S'30103'
p181
sg4
L1449716837114L
sg5
g20
sg7
S'MainActivity'
p182
sg9
S'30103'
p183
sg11
S'logList.size2():0 com.example.myfristandroid.myListView{42112010 V.ED.VC. ......ID 10,10-698,10 #7f08003c app:id/id_lv_logView}\n'
p184
sa(dp185
g2
S'30103'
p186
sg4
L1449716837114L
sg5
g20
sg7
S'MainActivity'
p187
sg9
S'30103'
p188
sg11
S'MainActivity Send BroadCast Length:22\n'
p189
sa(dp190
g2
S'30125'
p191
sg4
L1449716837154L
sg5
g20
sg7
S'ForegroundActivity'
p192
sg9
S'30125'
p193
sg11
S'\xe6\x9c\xac\xe6\xac\xa1\xe5\x8f\x91\xe9\x80\x81\xe5\xb8\xa7\xe9\x95\xbf:22\t\xe6\x80\xbb\xe5\xb8\xa7\xe9\x95\xbf:247\n'
p194
sa(dp195
g2
S'30103'
p196
sg4
L1449716839644L
sg5
g6
sg7
S'AudioManager'
p197
sg9
S'30103'
p198
sg11
S'playSoundEffect   effectType: 0\n'
p199
sa(dp200
g2
S'30103'
p201
sg4
L1449716839644L
sg5
g6
sg7
S'AudioManager'
p202
sg9
S'30103'
p203
sg11
S'querySoundEffectsEnabled...\n'
p204
sa(dp205
g2
S'30103'
p206
sg4
L1449716839654L
sg5
g20
sg7
S'MainActivity'
p207
sg9
S'30103'
p208
sg11
S'V.getTag:null v.id:2131230790\n'
p209
sa(dp210
g2
S'30103'
p211
sg4
L1449716840594L
sg5
g6
sg7
S'AudioManager'
p212
sg9
S'30103'
p213
sg11
S'playSoundEffect   effectType: 0\n'
p214
sa(dp215
g2
S'30103'
p216
sg4
L1449716840594L
sg5
g6
sg7
S'AudioManager'
p217
sg9
S'30103'
p218
sg11
S'querySoundEffectsEnabled...\n'
p219
sa(dp220
g2
S'30103'
p221
sg4
L1449716840604L
sg5
g20
sg7
S'MainActivity'
p222
sg9
S'30103'
p223
sg11
S'V.getTag:null v.id:2131230791\n'
p224
sa(dp225
g2
S'30103'
p226
sg4
L1449716840654L
sg5
g26
sg7
S'textview'
p227
sg9
S'30103'
p228
sg11
S'initAddtionalStyle default\n'
p229
sa(dp230
g2
S'30103'
p231
sg4
L1449716840664L
sg5
g26
sg7
S'textview'
p232
sg9
S'30103'
p233
sg11
S'initAddtionalStyle default\n'
p234
sa(dp235
g2
S'30103'
p236
sg4
L1449716840674L
sg5
g26
sg7
S'textview'
p237
sg9
S'30103'
p238
sg11
S'initAddtionalStyle default\n'
p239
sa(dp240
g2
S'30103'
p241
sg4
L1449716846174L
sg5
g6
sg7
S'AudioManager'
p242
sg9
S'30103'
p243
sg11
S'playSoundEffect   effectType: 0\n'
p244
sa(dp245
g2
S'30103'
p246
sg4
L1449716846174L
sg5
g6
sg7
S'AudioManager'
p247
sg9
S'30103'
p248
sg11
S'querySoundEffectsEnabled...\n'
p249
sa(dp250
g2
S'30103'
p251
sg4
L1449716846194L
sg5
g20
sg7
S'MainActivity'
p252
sg9
S'30103'
p253
sg11
S'logList.size2():0 com.example.myfristandroid.myListView{42112010 V.ED.VC. ......ID 10,10-698,10 #7f08003c app:id/id_lv_logView}\n'
p254
sa(dp255
g2
S'30103'
p256
sg4
L1449716846204L
sg5
g20
sg7
S'MainActivity'
p257
sg9
S'30103'
p258
sg11
S'MainActivity Send BroadCast Length:22\n'
p259
sa(dp260
g2
S'30125'
p261
sg4
L1449716846214L
sg5
g20
sg7
S'ForegroundActivity'
p262
sg9
S'30125'
p263
sg11
S'\xe6\x9c\xac\xe6\xac\xa1\xe5\x8f\x91\xe9\x80\x81\xe5\xb8\xa7\xe9\x95\xbf:22\t\xe6\x80\xbb\xe5\xb8\xa7\xe9\x95\xbf:269\n'
p264
sa(dp265
g2
S'30103'
p266
sg4
L1449716849244L
sg5
g6
sg7
S'AudioManager'
p267
sg9
S'30103'
p268
sg11
S'playSoundEffect   effectType: 0\n'
p269
sa(dp270
g2
S'30103'
p271
sg4
L1449716849244L
sg5
g6
sg7
S'AudioManager'
p272
sg9
S'30103'
p273
sg11
S'querySoundEffectsEnabled...\n'
p274
sa(dp275
g2
S'30103'
p276
sg4
L1449716849254L
sg5
g20
sg7
S'MainActivity'
p277
sg9
S'30103'
p278
sg11
S'V.getTag:null v.id:2131230738\n'
p279
sa(dp280
g2
S'30103'
p281
sg4
L1449716849734L
sg5
g6
sg7
S'AudioManager'
p282
sg9
S'30103'
p283
sg11
S'playSoundEffect   effectType: 0\n'
p284
sa(dp285
g2
S'30103'
p286
sg4
L1449716849734L
sg5
g6
sg7
S'AudioManager'
p287
sg9
S'30103'
p288
sg11
S'querySoundEffectsEnabled...\n'
p289
sa(dp290
g2
S'30103'
p291
sg4
L1449716849734L
sg5
g20
sg7
S'MainActivity'
p292
sg9
S'30103'
p293
sg11
S'V.getTag:null v.id:2131230738\n'
p294
sa(dp295
g2
S'30103'
p296
sg4
L1449716849914L
sg5
g6
sg7
S'AudioManager'
p297
sg9
S'30103'
p298
sg11
S'playSoundEffect   effectType: 0\n'
p299
sa(dp300
g2
S'30103'
p301
sg4
L1449716849914L
sg5
g6
sg7
S'AudioManager'
p302
sg9
S'30103'
p303
sg11
S'querySoundEffectsEnabled...\n'
p304
sa(dp305
g2
S'30103'
p306
sg4
L1449716849924L
sg5
g20
sg7
S'MainActivity'
p307
sg9
S'30103'
p308
sg11
S'V.getTag:null v.id:2131230738\n'
p309
sa(dp310
g2
S'30103'
p311
sg4
L1449716850344L
sg5
g6
sg7
S'AudioManager'
p312
sg9
S'30103'
p313
sg11
S'playSoundEffect   effectType: 0\n'
p314
sa(dp315
g2
S'30103'
p316
sg4
L1449716850354L
sg5
g6
sg7
S'AudioManager'
p317
sg9
S'30103'
p318
sg11
S'querySoundEffectsEnabled...\n'
p319
sa(dp320
g2
S'30103'
p321
sg4
L1449716850354L
sg5
g20
sg7
S'MainActivity'
p322
sg9
S'30103'
p323
sg11
S'V.getTag:null v.id:2131230736\n'
p324
sa(dp325
g2
S'30103'
p326
sg4
L1449716851624L
sg5
g6
sg7
S'AudioManager'
p327
sg9
S'30103'
p328
sg11
S'playSoundEffect   effectType: 0\n'
p329
sa(dp330
g2
S'30103'
p331
sg4
L1449716851624L
sg5
g6
sg7
S'AudioManager'
p332
sg9
S'30103'
p333
sg11
S'querySoundEffectsEnabled...\n'
p334
sa(dp335
g2
S'30103'
p336
sg4
L1449716851624L
sg5
g20
sg7
S'MainActivity'
p337
sg9
S'30103'
p338
sg11
S'V.getTag:null v.id:2131230738\n'
p339
sa(dp340
g2
S'30103'
p341
sg4
L1449716853044L
sg5
g6
sg7
S'AudioManager'
p342
sg9
S'30103'
p343
sg11
S'playSoundEffect   effectType: 0\n'
p344
sa(dp345
g2
S'30103'
p346
sg4
L1449716853044L
sg5
g6
sg7
S'AudioManager'
p347
sg9
S'30103'
p348
sg11
S'querySoundEffectsEnabled...\n'
p349
sa(dp350
g2
S'30103'
p351
sg4
L1449716853054L
sg5
g20
sg7
S'MainActivity'
p352
sg9
S'30103'
p353
sg11
S'V.getTag:null v.id:2131230736\n'
p354
sa(dp355
g2
S'30103'
p356
sg4
L1449716853814L
sg5
g6
sg7
S'AudioManager'
p357
sg9
S'30103'
p358
sg11
S'playSoundEffect   effectType: 0\n'
p359
sa(dp360
g2
S'30103'
p361
sg4
L1449716853814L
sg5
g6
sg7
S'AudioManager'
p362
sg9
S'30103'
p363
sg11
S'querySoundEffectsEnabled...\n'
p364
sa(dp365
g2
S'30103'
p366
sg4
L1449716853814L
sg5
g20
sg7
S'MainActivity'
p367
sg9
S'30103'
p368
sg11
S'V.getTag:null v.id:2131230787\n'
p369
sa(dp370
g2
S'30103'
p371
sg4
L1449716853834L
sg5
g20
sg7
S'MainActivity'
p372
sg9
S'30103'
p373
sg11
S'MainActivity Send BroadCast Length:11\n'
p374
sa(dp375
g2
S'30125'
p376
sg4
L1449716853854L
sg5
g20
sg7
S'ForegroundActivity'
p377
sg9
S'30125'
p378
sg11
S'\xe6\x9c\xac\xe6\xac\xa1\xe5\x8f\x91\xe9\x80\x81\xe5\xb8\xa7\xe9\x95\xbf:11\t\xe6\x80\xbb\xe5\xb8\xa7\xe9\x95\xbf:280\n'
p379
sa(dp380
g2
S'30125'
p381
sg4
L1449716853934L
sg5
g20
sg7
S'ForegroundActivity'
p382
sg9
S'30148'
p383
sg11
S'\xe6\x9c\xac\xe6\xac\xa1\xe6\x94\xb6\xe5\x88\xb0\xe5\xb8\xa7\xe9\x95\xbf:124\t\xe6\x80\xbb\xe5\xb8\xa7\xe9\x95\xbf:1653\n'
p384
sa(dp385
g2
S'30125'
p386
sg4
L1449716854494L
sg5
g20
sg7
S'SocketService1'
p387
sg9
S'30145'
p388
sg11
S'\xe6\x9c\xac\xe6\xac\xa1\xe6\x8f\x90\xe5\x8f\x961:LoadPtr:1653 HeadIndex:1529 GetSize:124 124 0 \xe5\xa4\xb4\xe4\xbf\xa1\xe6\x81\xaf:EB 90 EB 90 EB 90 7C 00 02 0C \n'
p389
sa(dp390
g2
S'30103'
p391
sg4
L1449716854504L
sg5
g20
sg7
S'dialog  '
p392
sg9
S'30103'
p393
sg11
S'createListView 1\n'
p394
sa(dp395
g2
S'30103'
p396
sg4
L1449716854514L
sg5
g20
sg7
S'dialog  '
p397
sg9
S'30103'
p398
sg11
S'createListView 2\n'
p399
sa(dp400
g2
S'30103'
p401
sg4
L1449716855984L
sg5
g6
sg7
S'AudioManager'
p402
sg9
S'30103'
p403
sg11
S'playSoundEffect   effectType: 0\n'
p404
sa(dp405
g2
S'30103'
p406
sg4
L1449716855994L
sg5
g6
sg7
S'AudioManager'
p407
sg9
S'30103'
p408
sg11
S'querySoundEffectsEnabled...\n'
p409
sa(dp410
g2
S'30103'
p411
sg4
L1449716858384L
sg5
g6
sg7
S'AudioManager'
p412
sg9
S'30103'
p413
sg11
S'playSoundEffect   effectType: 0\n'
p414
sa(dp415
g2
S'30103'
p416
sg4
L1449716858384L
sg5
g6
sg7
S'AudioManager'
p417
sg9
S'30103'
p418
sg11
S'querySoundEffectsEnabled...\n'
p419
sa(dp420
g2
S'30103'
p421
sg4
L1449716858394L
sg5
g20
sg7
S'MainActivity'
p422
sg9
S'30103'
p423
sg11
S'V.getTag:null v.id:2131230738\n'
p424
sa(dp425
g2
S'30103'
p426
sg4
L1449716859624L
sg5
g6
sg7
S'AudioManager'
p427
sg9
S'30103'
p428
sg11
S'playSoundEffect   effectType: 0\n'
p429
sa(dp430
g2
S'30103'
p431
sg4
L1449716859624L
sg5
g6
sg7
S'AudioManager'
p432
sg9
S'30103'
p433
sg11
S'querySoundEffectsEnabled...\n'
p434
sa(dp435
g2
S'30103'
p436
sg4
L1449716859634L
sg5
g20
sg7
S'MainActivity'
p437
sg9
S'30103'
p438
sg11
S'V.getTag:null v.id:2131230791\n'
p439
sa(dp440
g2
S'30103'
p441
sg4
L1449716859694L
sg5
g26
sg7
S'textview'
p442
sg9
S'30103'
p443
sg11
S'initAddtionalStyle default\n'
p444
sa(dp445
g2
S'30103'
p446
sg4
L1449716859704L
sg5
g26
sg7
S'textview'
p447
sg9
S'30103'
p448
sg11
S'initAddtionalStyle default\n'
p449
sa(dp450
g2
S'30103'
p451
sg4
L1449716862064L
sg5
g6
sg7
S'AudioManager'
p452
sg9
S'30103'
p453
sg11
S'playSoundEffect   effectType: 0\n'
p454
sa(dp455
g2
S'30103'
p456
sg4
L1449716862064L
sg5
g6
sg7
S'AudioManager'
p457
sg9
S'30103'
p458
sg11
S'querySoundEffectsEnabled...\n'
p459
sa(dp460
g2
S'30103'
p461
sg4
L1449716862104L
sg5
g20
sg7
S'MainActivity'
p462
sg9
S'30103'
p463
sg11
S'logList.size2():0 com.example.myfristandroid.myListView{42112010 V.ED.VC. ......ID 10,10-698,10 #7f08003c app:id/id_lv_logView}\n'
p464
sa(dp465
g2
S'30103'
p466
sg4
L1449716862104L
sg5
g20
sg7
S'MainActivity'
p467
sg9
S'30103'
p468
sg11
S'MainActivity Send BroadCast Length:22\n'
p469
sa(dp470
g2
S'30125'
p471
sg4
L1449716862124L
sg5
g20
sg7
S'ForegroundActivity'
p472
sg9
S'30125'
p473
sg11
S'\xe6\x9c\xac\xe6\xac\xa1\xe5\x8f\x91\xe9\x80\x81\xe5\xb8\xa7\xe9\x95\xbf:22\t\xe6\x80\xbb\xe5\xb8\xa7\xe9\x95\xbf:302\n'
p474
sa(dp475
g2
S'30103'
p476
sg4
L1449716864284L
sg5
g6
sg7
S'AudioManager'
p477
sg9
S'30103'
p478
sg11
S'playSoundEffect   effectType: 0\n'
p479
sa(dp480
g2
S'30103'
p481
sg4
L1449716864284L
sg5
g6
sg7
S'AudioManager'
p482
sg9
S'30103'
p483
sg11
S'querySoundEffectsEnabled...\n'
p484
sa(dp485
g2
S'30103'
p486
sg4
L1449716864284L
sg5
g20
sg7
S'MainActivity'
p487
sg9
S'30103'
p488
sg11
S'V.getTag:null v.id:2131230791\n'
p489
sa(dp490
g2
S'30103'
p491
sg4
L1449716864344L
sg5
g26
sg7
S'textview'
p492
sg9
S'30103'
p493
sg11
S'initAddtionalStyle default\n'
p494
sa(dp495
g2
S'30103'
p496
sg4
L1449716864354L
sg5
g26
sg7
S'textview'
p497
sg9
S'30103'
p498
sg11
S'initAddtionalStyle default\n'
p499
sa(dp500
g2
S'30103'
p501
sg4
L1449716867864L
sg5
g6
sg7
S'AudioManager'
p502
sg9
S'30103'
p503
sg11
S'playSoundEffect   effectType: 0\n'
p504
sa(dp505
g2
S'30103'
p506
sg4
L1449716867864L
sg5
g6
sg7
S'AudioManager'
p507
sg9
S'30103'
p508
sg11
S'querySoundEffectsEnabled...\n'
p509
sa(dp510
g2
S'30103'
p511
sg4
L1449716867884L
sg5
g20
sg7
S'MainActivity'
p512
sg9
S'30103'
p513
sg11
S'logList.size2():0 com.example.myfristandroid.myListView{42112010 V.ED.VC. ......ID 10,10-698,10 #7f08003c app:id/id_lv_logView}\n'
p514
sa(dp515
g2
S'30103'
p516
sg4
L1449716867884L
sg5
g20
sg7
S'MainActivity'
p517
sg9
S'30103'
p518
sg11
S'MainActivity Send BroadCast Length:22\n'
p519
sa(dp520
g2
S'30125'
p521
sg4
L1449716867894L
sg5
g20
sg7
S'ForegroundActivity'
p522
sg9
S'30125'
p523
sg11
S'\xe6\x9c\xac\xe6\xac\xa1\xe5\x8f\x91\xe9\x80\x81\xe5\xb8\xa7\xe9\x95\xbf:22\t\xe6\x80\xbb\xe5\xb8\xa7\xe9\x95\xbf:324\n'
p524
sa(dp525
g2
S'30103'
p526
sg4
L1449716871754L
sg5
g6
sg7
S'AudioManager'
p527
sg9
S'30103'
p528
sg11
S'playSoundEffect   effectType: 0\n'
p529
sa(dp530
g2
S'30103'
p531
sg4
L1449716871754L
sg5
g6
sg7
S'AudioManager'
p532
sg9
S'30103'
p533
sg11
S'querySoundEffectsEnabled...\n'
p534
sa(dp535
g2
S'30103'
p536
sg4
L1449716871754L
sg5
g20
sg7
S'MainActivity'
p537
sg9
S'30103'
p538
sg11
S'V.getTag:null v.id:2131230791\n'
p539
sa(dp540
g2
S'30103'
p541
sg4
L1449716871814L
sg5
g26
sg7
S'textview'
p542
sg9
S'30103'
p543
sg11
S'initAddtionalStyle default\n'
p544
sa(dp545
g2
S'30103'
p546
sg4
L1449716871824L
sg5
g26
sg7
S'textview'
p547
sg9
S'30103'
p548
sg11
S'initAddtionalStyle default\n'
p549
sa(dp550
g2
S'30103'
p551
sg4
L1449716874244L
sg5
g6
sg7
S'AudioManager'
p552
sg9
S'30103'
p553
sg11
S'playSoundEffect   effectType: 0\n'
p554
sa(dp555
g2
S'30103'
p556
sg4
L1449716874244L
sg5
g6
sg7
S'AudioManager'
p557
sg9
S'30103'
p558
sg11
S'querySoundEffectsEnabled...\n'
p559
sa(dp560
g2
S'30103'
p561
sg4
L1449716874274L
sg5
g20
sg7
S'MainActivity'
p562
sg9
S'30103'
p563
sg11
S'logList.size2():0 com.example.myfristandroid.myListView{42112010 V.ED.VC. ......ID 10,10-698,10 #7f08003c app:id/id_lv_logView}\n'
p564
sa(dp565
g2
S'30103'
p566
sg4
L1449716874274L
sg5
g20
sg7
S'MainActivity'
p567
sg9
S'30103'
p568
sg11
S'MainActivity Send BroadCast Length:22\n'
p569
sa(dp570
g2
S'30125'
p571
sg4
L1449716874284L
sg5
g20
sg7
S'ForegroundActivity'
p572
sg9
S'30125'
p573
sg11
S'\xe6\x9c\xac\xe6\xac\xa1\xe5\x8f\x91\xe9\x80\x81\xe5\xb8\xa7\xe9\x95\xbf:22\t\xe6\x80\xbb\xe5\xb8\xa7\xe9\x95\xbf:346\n'
p574
sa(dp575
g2
S'30103'
p576
sg4
L1449716875854L
sg5
g6
sg7
S'AudioManager'
p577
sg9
S'30103'
p578
sg11
S'playSoundEffect   effectType: 0\n'
p579
sa(dp580
g2
S'30103'
p581
sg4
L1449716875854L
sg5
g6
sg7
S'AudioManager'
p582
sg9
S'30103'
p583
sg11
S'querySoundEffectsEnabled...\n'
p584
sa(dp585
g2
S'30103'
p586
sg4
L1449716875854L
sg5
g20
sg7
S'MainActivity'
p587
sg9
S'30103'
p588
sg11
S'V.getTag:null v.id:2131230790\n'
p589
sa(dp590
g2
S'30103'
p591
sg4
L1449716877414L
sg5
g6
sg7
S'AudioManager'
p592
sg9
S'30103'
p593
sg11
S'playSoundEffect   effectType: 0\n'
p594
sa(dp595
g2
S'30103'
p596
sg4
L1449716877414L
sg5
g6
sg7
S'AudioManager'
p597
sg9
S'30103'
p598
sg11
S'querySoundEffectsEnabled...\n'
p599
sa(dp600
g2
S'30103'
p601
sg4
L1449716877424L
sg5
g20
sg7
S'MainActivity'
p602
sg9
S'30103'
p603
sg11
S'V.getTag:null v.id:2131230791\n'
p604
sa(dp605
g2
S'30103'
p606
sg4
L1449716877474L
sg5
g26
sg7
S'textview'
p607
sg9
S'30103'
p608
sg11
S'initAddtionalStyle default\n'
p609
sa(dp610
g2
S'30103'
p611
sg4
L1449716877484L
sg5
g26
sg7
S'textview'
p612
sg9
S'30103'
p613
sg11
S'initAddtionalStyle default\n'
p614
sa(dp615
g2
S'30103'
p616
sg4
L1449716880294L
sg5
g20
sg7
S'dalvikvm'
p617
sg9
S'30103'
p618
sg11
S'GC_FOR_ALLOC freed 11812K, 39% free 25376K/41028K, paused 64ms, total 64ms\n'
p619
sa(dp620
g2
S'30103'
p621
sg4
L1449716880344L
sg5
g20
sg7
S'dalvikvm'
p622
sg9
S'30107'
p623
sg11
S'GC_CONCURRENT freed 4275K, 33% free 27768K/41028K, paused 2ms+3ms, total 35ms\n'
p624
sa(dp625
g2
S'30103'
p626
sg4
L1449716880424L
sg5
g20
sg7
S'cn.edu.nju.ise.kikandroid'
p627
sg9
S'30141'
p628
sg11
S'Screenshot:1449716880227\n'
p629
sa(dp630
g2
S'30103'
p631
sg4
L1449716881894L
sg5
g6
sg7
S'AudioManager'
p632
sg9
S'30103'
p633
sg11
S'playSoundEffect   effectType: 0\n'
p634
sa(dp635
g2
S'30103'
p636
sg4
L1449716881894L
sg5
g6
sg7
S'AudioManager'
p637
sg9
S'30103'
p638
sg11
S'querySoundEffectsEnabled...\n'
p639
sa(dp640
g2
S'30103'
p641
sg4
L1449716882524L
sg5
g6
sg7
S'AudioManager'
p642
sg9
S'30103'
p643
sg11
S'playSoundEffect   effectType: 0\n'
p644
sa(dp645
g2
S'30103'
p646
sg4
L1449716882524L
sg5
g6
sg7
S'AudioManager'
p647
sg9
S'30103'
p648
sg11
S'querySoundEffectsEnabled...\n'
p649
sa(dp650
g2
S'30103'
p651
sg4
L1449716882524L
sg5
g20
sg7
S'MainActivity'
p652
sg9
S'30103'
p653
sg11
S'V.getTag:null v.id:2131230791\n'
p654
sa(dp655
g2
S'30103'
p656
sg4
L1449716882584L
sg5
g26
sg7
S'textview'
p657
sg9
S'30103'
p658
sg11
S'initAddtionalStyle default\n'
p659
sa(dp660
g2
S'30103'
p661
sg4
L1449716882594L
sg5
g26
sg7
S'textview'
p662
sg9
S'30103'
p663
sg11
S'initAddtionalStyle default\n'
p664
sa(dp665
g2
S'30103'
p666
sg4
L1449716882604L
sg5
g26
sg7
S'textview'
p667
sg9
S'30103'
p668
sg11
S'initAddtionalStyle default\n'
p669
sa(dp670
g2
S'30103'
p671
sg4
L1449716884644L
sg5
g6
sg7
S'AudioManager'
p672
sg9
S'30103'
p673
sg11
S'playSoundEffect   effectType: 0\n'
p674
sa(dp675
g2
S'30103'
p676
sg4
L1449716884644L
sg5
g6
sg7
S'AudioManager'
p677
sg9
S'30103'
p678
sg11
S'querySoundEffectsEnabled...\n'
p679
sa(dp680
g2
S'30103'
p681
sg4
L1449716884664L
sg5
g20
sg7
S'MainActivity'
p682
sg9
S'30103'
p683
sg11
S'logList.size2():0 com.example.myfristandroid.myListView{42112010 V.ED.VC. ......ID 10,10-698,10 #7f08003c app:id/id_lv_logView}\n'
p684
sa(dp685
g2
S'30103'
p686
sg4
L1449716884664L
sg5
g20
sg7
S'MainActivity'
p687
sg9
S'30103'
p688
sg11
S'MainActivity Send BroadCast Length:22\n'
p689
sa(dp690
g2
S'30125'
p691
sg4
L1449716884684L
sg5
g20
sg7
S'ForegroundActivity'
p692
sg9
S'30125'
p693
sg11
S'\xe6\x9c\xac\xe6\xac\xa1\xe5\x8f\x91\xe9\x80\x81\xe5\xb8\xa7\xe9\x95\xbf:22\t\xe6\x80\xbb\xe5\xb8\xa7\xe9\x95\xbf:368\n'
p694
sa(dp695
g2
S'30103'
p696
sg4
L1449716885804L
sg5
g6
sg7
S'AudioManager'
p697
sg9
S'30103'
p698
sg11
S'playSoundEffect   effectType: 0\n'
p699
sa(dp700
g2
S'30103'
p701
sg4
L1449716885804L
sg5
g6
sg7
S'AudioManager'
p702
sg9
S'30103'
p703
sg11
S'querySoundEffectsEnabled...\n'
p704
sa(dp705
g2
S'30103'
p706
sg4
L1449716885814L
sg5
g20
sg7
S'MainActivity'
p707
sg9
S'30103'
p708
sg11
S'V.getTag:null v.id:2131230790\n'
p709
sa(dp710
g2
S'30125'
p711
sg4
L1449716887104L
sg5
g20
sg7
S'ForegroundActivity'
p712
sg9
S'30143'
p713
sg11
S'\xe6\x9c\xac\xe6\xac\xa1\xe5\x8f\x91\xe9\x80\x81\xe5\xb8\xa7\xe9\x95\xbf:13\t\xe6\x80\xbb\xe5\xb8\xa7\xe9\x95\xbf:381\n'
p714
sa(dp715
g2
S'30125'
p716
sg4
L1449716887124L
sg5
g20
sg7
S'ForegroundActivity'
p717
sg9
S'30148'
p718
sg11
S'\xe6\x9c\xac\xe6\xac\xa1\xe6\x94\xb6\xe5\x88\xb0\xe5\xb8\xa7\xe9\x95\xbf:13\t\xe6\x80\xbb\xe5\xb8\xa7\xe9\x95\xbf:1666\n'
p719
sa(dp720
g2
S'30125'
p721
sg4
L1449716887534L
sg5
g20
sg7
S'SocketService1'
p722
sg9
S'30145'
p723
sg11
S'\xe6\x9c\xac\xe6\xac\xa1\xe6\x8f\x90\xe5\x8f\x961:LoadPtr:1666 HeadIndex:1653 GetSize:13 13 0 \xe5\xa4\xb4\xe4\xbf\xa1\xe6\x81\xaf:EB 90 EB 90 EB 90 0D 00 10 01 \n'
p724
sa(dp725
g2
S'30103'
p726
sg4
L1449716893044L
sg5
g6
sg7
S'AudioManager'
p727
sg9
S'30103'
p728
sg11
S'preDispatchKeyEvent keycode: 4  stream: -2147483648\n'
p729
sa(dp730
g2
S'30103'
p731
sg4
L1449716893114L
sg5
g6
sg7
S'AudioManager'
p732
sg9
S'30103'
p733
sg11
S'preDispatchKeyEvent keycode: 4  stream: -2147483648\n'
p734
sa(dp735
g2
S'30103'
p736
sg4
L1449716893154L
sg5
g6
sg7
S'AudioManager'
p737
sg9
S'30103'
p738
sg11
S'preDispatchKeyEvent keycode: 4  stream: -2147483648\n'
p739
sa(dp740
g2
S'30103'
p741
sg4
L1449716897404L
sg5
g6
sg7
S'AudioManager'
p742
sg9
S'30103'
p743
sg11
S'preDispatchKeyEvent keycode: 4  stream: -2147483648\n'
p744
sa(dp745
g2
S'30103'
p746
sg4
L1449716897484L
sg5
g6
sg7
S'AudioManager'
p747
sg9
S'30103'
p748
sg11
S'preDispatchKeyEvent keycode: 4  stream: -2147483648\n'
p749
sa(dp750
g2
S'30103'
p751
sg4
L1449716897504L
sg5
S'W'
p752
sg7
S'InputEventReceiver'
p753
sg9
S'30103'
p754
sg11
S'Attempted to finish an input event but the input event receiver has already been disposed.\n'
p755
sa(dp756
g2
S'30103'
p757
sg4
L1449716900484L
sg5
g6
sg7
S'AudioManager'
p758
sg9
S'30103'
p759
sg11
S'playSoundEffect   effectType: 0\n'
p760
sa(dp761
g2
S'30103'
p762
sg4
L1449716900484L
sg5
g6
sg7
S'AudioManager'
p763
sg9
S'30103'
p764
sg11
S'querySoundEffectsEnabled...\n'
p765
sa(dp766
g2
S'30103'
p767
sg4
L1449716900484L
sg5
g20
sg7
S'MainActivity'
p768
sg9
S'30103'
p769
sg11
S'V.getTag:null v.id:2131230734\n'
p770
sa(dp771
g2
S'30103'
p772
sg4
L1449716901474L
sg5
g6
sg7
S'AudioManager'
p773
sg9
S'30103'
p774
sg11
S'playSoundEffect   effectType: 0\n'
p775
sa(dp776
g2
S'30103'
p777
sg4
L1449716901474L
sg5
g6
sg7
S'AudioManager'
p778
sg9
S'30103'
p779
sg11
S'querySoundEffectsEnabled...\n'
p780
sa(dp781
g2
S'30103'
p782
sg4
L1449716901484L
sg5
S'I'
p783
sg7
S'Timeline'
p784
sg9
S'30103'
p785
sg11
S'Timeline: Activity_launch_request id:com.example.myfristandroid time:104374333\n'
p786
sa(dp787
g2
S'30103'
p788
sg4
L1449716901534L
sg5
g6
sg7
S'WebViewChromiumFactoryProvider'
p789
sg9
S'30103'
p790
sg11
S'Binding Chromium to main looper Looper (main, tid 1) {41d20078}\n'
p791
sa(dp792
g2
S'30103'
p793
sg4
L1449716901534L
sg5
g783
sg7
S'LibraryLoader'
p794
sg9
S'30103'
p795
sg11
S'Expected native library version number "",actual native library version number ""\n'
p796
sa(dp797
g2
S'30103'
p798
sg4
L1449716901534L
sg5
g783
sg7
S'chromium'
p799
sg9
S'30103'
p800
sg11
S'[INFO:library_loader_hooks.cc(116)] Chromium logging enabled: level = 0, default verbosity = 0\n'
p801
sa(dp802
g2
S'30103'
p803
sg4
L1449716901544L
sg5
g783
sg7
S'BrowserStartupController'
p804
sg9
S'30103'
p805
sg11
S'Initializing chromium process, renderers=0\n'
p806
sa(dp807
g2
S'30103'
p808
sg4
L1449716901544L
sg5
g783
sg7
S'chromium'
p809
sg9
S'30103'
p810
sg11
S'[INFO:url_util.cc(431)] AddStandardScheme is not supported\n'
p811
sa(dp812
g2
S'30103'
p813
sg4
L1449716901554L
sg5
g783
sg7
S'chromium'
p814
sg9
S'30103'
p815
sg11
S'[INFO:url_util.cc(431)] AddStandardScheme is not supported\n'
p816
sa(dp817
g2
S'30103'
p818
sg4
L1449716901554L
sg5
g6
sg7
S'AudioManager'
p819
sg9
S'30103'
p820
sg11
S'isSpeakerphoneOn...\n'
p821
sa(dp822
g2
S'30103'
p823
sg4
L1449716901554L
sg5
g6
sg7
S'AudioManager'
p824
sg9
S'30103'
p825
sg11
S'isMicrophoneMute... \n'
p826
sa(dp827
g2
S'30103'
p828
sg4
L1449716901564L
sg5
g26
sg7
S'AudioManagerAndroid'
p829
sg9
S'30103'
p830
sg11
S'BLUETOOTH permission is missing!\n'
p831
sa(dp832
g2
S'30103'
p833
sg4
L1449716901614L
sg5
g752
sg7
S'chromium'
p834
sg9
S'30246'
p835
sg11
S'[WARNING:proxy_service.cc(890)] PAC support disabled because there is no system implementation\n'
p836
sa(dp837
g2
S'30103'
p838
sg4
L1449716901794L
sg5
g20
sg7
S'StrictMode'
p839
sg9
S'30103'
p840
sg11
S'StrictMode policy violation; ~duration=23 ms: android.os.StrictMode$StrictModeDiskReadViolation: policy=23 violation=2\n\tat android.os.StrictMode$AndroidBlockGuardPolicy.onReadFromDisk(StrictMode.java:1138)\n\tat libcore.io.BlockGuardOs.open(BlockGuardOs.java:106)\n\tat libcore.io.IoBridge.open(IoBridge.java:398)\n\tat java.io.FileInputStream.<init>(FileInputStream.java:78)\n\tat java.io.FileInputStream.<init>(FileInputStream.java:105)\n\tat java.io.FileReader.<init>(FileReader.java:66)\n\tat com.android.org.chromium.base.SysUtils.amountOfPhysicalMemoryKB(SysUtils.java:56)\n\tat com.android.org.chromium.base.SysUtils.detectLowEndDevice(SysUtils.java:125)\n\tat com.android.org.chromium.base.SysUtils.isLowEndDevice(SysUtils.java:99)\n\tat com.android.org.chromium.content.browser.BindingManager.createBindingManager(BindingManager.java:126)\n\tat com.android.org.chromium.content.browser.ChildProcessLauncher.<clinit>(ChildProcessLauncher.java:211)\n\tat com.android.org.chromium.content.browser.ContentViewCore.onShow(ContentViewCore.java:1711)\n\tat com.android.org.chromium.android_webview.AwContents.setNewAwContents(AwContents.java:581)\n\tat com.android.org.chromium.android_webview.AwContents.<init>(AwContents.java:522)\n\tat com.android.org.chromium.android_webview.AwContents.<init>(AwContents.java:469)\n\tat com.android.webview.chromium.WebViewChromium.initForReal(WebViewChromium.java:255)\n\tat com.android.webview.chromium.WebViewChromium.access$100(WebViewChromium.java:89)\n\tat com.android.webview.chromium.WebViewChromium$1.run(WebViewChromium.java:242)\n\tat com.android.webview.chromium.WebViewChromium$WebViewChromiumRunQueue.drainQueue(WebViewChromium.java:116)\n\tat com.android.webview.chromium.WebViewChromium$WebViewChromiumRunQueue$1.run(WebViewChromium.java:103)\n\tat com.android.org.chromium.base.ThreadUtils.runOnUiThread(ThreadUtils.java:144)\n\tat com.android.webview.chromium.WebViewChromium$WebViewChromiumRunQueue.addTask(WebViewChromium.java:100)\n\tat com.android.webview.chromium.WebViewChromium.init(WebViewChromium.java:239)\n\tat android.webkit.WebView.<init>(WebView.java:514)\n\tat android.webkit.WebView.<init>(WebView.java:481)\n\tat android.webkit.WebView.<init>(WebView.java:461)\n\tat android.webkit.WebView.<init>(WebView.java:450)\n\tat com.example.myfristandroid.MyWebView.<init>(MyWebView.java:36)\n\tat java.lang.reflect.Constructor.constructNative(Native Method)\n\tat java.lang.reflect.Constructor.newInstance(Constructor.java:423)\n\tat android.view.LayoutInflater.createView(LayoutInflater.java:614)\n\tat android.view.LayoutInflater.createViewFromTag(LayoutInflater.java:716)\n\tat android.view.LayoutInflater.rInflate(LayoutInflater.java:775)\n\tat android.view.LayoutInflater.inflate(LayoutInflater.java:512)\n\tat android.view.LayoutInflater.inflate(LayoutInflater.java:409)\n\tat android.view.LayoutInflater.inflate(LayoutInflater.java:358)\n\tat com.android.internal.policy.impl.PhoneWindow.setContentView(PhoneWindow.java:290)\n\tat android.app.Activity.setContentView(Activity.java:1968)\n\tat com.example.myfristandroid.graphWebShow.onCreate(graphWebShow.java:42)\n\tat android.app.Activity.performCreate(Activity.java:5302)\n\tat android.app.Instrumentation.callActivityOnCreate(Instrumentation.java:1090)\n\tat android.app.ActivityThread.performLaunchActivity(ActivityThread.java:2228)\n\tat android.app.ActivityThread.handleLaunchActivity(ActivityThread.java:2313)\n\tat android.app.ActivityThread.access$1100(ActivityThread.java:141)\n\tat android.app.ActivityThread$H.handleMessage(ActivityThread.java:1238)\n\tat android.os.Handler.dispatchMessage(Handler.java:102)\n\tat android.os.Looper.loop(Looper.java:136)\n\tat android.app.ActivityThread.main(ActivityThread.java:5336)\n\tat java.lang.reflect.Method.invokeNative(Native Method)\n\tat java.lang.reflect.Method.invoke(Method.java:515)\n\tat com.android.internal.os.ZygoteInit$MethodAndArgsCaller.run(ZygoteInit.java:873)\n\tat com.android.internal.os.ZygoteInit.main(ZygoteInit.java:689)\n\tat dalvik.system.NativeStart.main(Native Method)\n'
p841
sa(dp842
g2
S'30103'
p843
sg4
L1449716901794L
sg5
g20
sg7
S'StrictMode'
p844
sg9
S'30103'
p845
sg11
S'StrictMode policy violation; ~duration=20 ms: android.os.StrictMode$StrictModeDiskReadViolation: policy=23 violation=2\n\tat android.os.StrictMode$AndroidBlockGuardPolicy.onReadFromDisk(StrictMode.java:1138)\n\tat libcore.io.BlockGuardOs.read(BlockGuardOs.java:148)\n\tat libcore.io.IoBridge.read(IoBridge.java:430)\n\tat java.io.FileInputStream.read(FileInputStream.java:179)\n\tat java.io.InputStreamReader.read(InputStreamReader.java:233)\n\tat java.io.BufferedReader.fillBuf(BufferedReader.java:145)\n\tat java.io.BufferedReader.readLine(BufferedReader.java:397)\n\tat com.android.org.chromium.base.SysUtils.amountOfPhysicalMemoryKB(SysUtils.java:62)\n\tat com.android.org.chromium.base.SysUtils.detectLowEndDevice(SysUtils.java:125)\n\tat com.android.org.chromium.base.SysUtils.isLowEndDevice(SysUtils.java:99)\n\tat com.android.org.chromium.content.browser.BindingManager.createBindingManager(BindingManager.java:126)\n\tat com.android.org.chromium.content.browser.ChildProcessLauncher.<clinit>(ChildProcessLauncher.java:211)\n\tat com.android.org.chromium.content.browser.ContentViewCore.onShow(ContentViewCore.java:1711)\n\tat com.android.org.chromium.android_webview.AwContents.setNewAwContents(AwContents.java:581)\n\tat com.android.org.chromium.android_webview.AwContents.<init>(AwContents.java:522)\n\tat com.android.org.chromium.android_webview.AwContents.<init>(AwContents.java:469)\n\tat com.android.webview.chromium.WebViewChromium.initForReal(WebViewChromium.java:255)\n\tat com.android.webview.chromium.WebViewChromium.access$100(WebViewChromium.java:89)\n\tat com.android.webview.chromium.WebViewChromium$1.run(WebViewChromium.java:242)\n\tat com.android.webview.chromium.WebViewChromium$WebViewChromiumRunQueue.drainQueue(WebViewChromium.java:116)\n\tat com.android.webview.chromium.WebViewChromium$WebViewChromiumRunQueue$1.run(WebViewChromium.java:103)\n\tat com.android.org.chromium.base.ThreadUtils.runOnUiThread(ThreadUtils.java:144)\n\tat com.android.webview.chromium.WebViewChromium$WebViewChromiumRunQueue.addTask(WebViewChromium.java:100)\n\tat com.android.webview.chromium.WebViewChromium.init(WebViewChromium.java:239)\n\tat android.webkit.WebView.<init>(WebView.java:514)\n\tat android.webkit.WebView.<init>(WebView.java:481)\n\tat android.webkit.WebView.<init>(WebView.java:461)\n\tat android.webkit.WebView.<init>(WebView.java:450)\n\tat com.example.myfristandroid.MyWebView.<init>(MyWebView.java:36)\n\tat java.lang.reflect.Constructor.constructNative(Native Method)\n\tat java.lang.reflect.Constructor.newInstance(Constructor.java:423)\n\tat android.view.LayoutInflater.createView(LayoutInflater.java:614)\n\tat android.view.LayoutInflater.createViewFromTag(LayoutInflater.java:716)\n\tat android.view.LayoutInflater.rInflate(LayoutInflater.java:775)\n\tat android.view.LayoutInflater.inflate(LayoutInflater.java:512)\n\tat android.view.LayoutInflater.inflate(LayoutInflater.java:409)\n\tat android.view.LayoutInflater.inflate(LayoutInflater.java:358)\n\tat com.android.internal.policy.impl.PhoneWindow.setContentView(PhoneWindow.java:290)\n\tat android.app.Activity.setContentView(Activity.java:1968)\n\tat com.example.myfristandroid.graphWebShow.onCreate(graphWebShow.java:42)\n\tat android.app.Activity.performCreate(Activity.java:5302)\n\tat android.app.Instrumentation.callActivityOnCreate(Instrumentation.java:1090)\n\tat android.app.ActivityThread.performLaunchActivity(ActivityThread.java:2228)\n\tat android.app.ActivityThread.handleLaunchActivity(ActivityThread.java:2313)\n\tat android.app.ActivityThread.access$1100(ActivityThread.java:141)\n\tat android.app.ActivityThread$H.handleMessage(ActivityThread.java:1238)\n\tat android.os.Handler.dispatchMessage(Handler.java:102)\n\tat android.os.Looper.loop(Looper.java:136)\n\tat android.app.ActivityThread.main(ActivityThread.java:5336)\n\tat java.lang.reflect.Method.invokeNative(Native Method)\n\tat java.lang.reflect.Method.invoke(Method.java:515)\n\tat com.android.internal.os.ZygoteInit$MethodAndArgsCaller.run(ZygoteInit.java:873)\n\tat com.android.internal.os.ZygoteInit.main(ZygoteInit.java:689)\n\tat dalvik.system.NativeStart.main(Native Method)\n'
p846
sa(dp847
g2
S'30103'
p848
sg4
L1449716901864L
sg5
g752
sg7
S'AwContents'
p849
sg9
S'30103'
p850
sg11
S'nativeOnDraw failed; clearing to background color.\n'
p851
sa(dp852
g2
S'30103'
p853
sg4
L1449716901894L
sg5
g752
sg7
S'AwContents'
p854
sg9
S'30103'
p855
sg11
S'nativeOnDraw failed; clearing to background color.\n'
p856
sa(dp857
g2
S'30103'
p858
sg4
L1449716901914L
sg5
g783
sg7
S'Timeline'
p859
sg9
S'30103'
p860
sg11
S'Timeline: Activity_idle id: android.os.BinderProxy@41efe0f8 time:104374762\n'
p861
sa(dp862
g2
S'30103'
p863
sg4
L1449716901924L
sg5
g783
sg7
S'chromium'
p864
sg9
S'30267'
p865
sg11
S'[INFO:simple_index_file.cc(437)] Simple Cache Index is being restored from disk.\n'
p866
sa(dp867
g2
S'30103'
p868
sg4
L1449716902744L
sg5
g20
sg7
S'MainActivity'
p869
sg9
S'30259'
p870
sg11
S'h:710.915,w:1183.07\n'
p871
sa(dp872
g2
S'30103'
p873
sg4
L1449716904254L
sg5
g6
sg7
S'AudioManager'
p874
sg9
S'30103'
p875
sg11
S'preDispatchKeyEvent keycode: 4  stream: -2147483648\n'
p876
sa(dp877
g2
S'30103'
p878
sg4
L1449716904254L
sg5
g752
sg7
S'UnimplementedWebViewApi'
p879
sg9
S'30103'
p880
sg11
S'Unimplemented WebView method onKeyDown called from: android.webkit.WebView.onKeyDown(WebView.java:2233)\n'
p881
sa(dp882
g2
S'30103'
p883
sg4
L1449716904464L
sg5
g6
sg7
S'AudioManager'
p884
sg9
S'30103'
p885
sg11
S'preDispatchKeyEvent keycode: 4  stream: -2147483648\n'
p886
sa(dp887
g2
S'30103'
p888
sg4
L1449716904494L
sg5
g783
sg7
S'Timeline'
p889
sg9
S'30103'
p890
sg11
S'Timeline: Activity_idle id: android.os.BinderProxy@41e7f770 time:104377347\n'
p891
sa(dp892
g2
S'30103'
p893
sg4
L1449716904504L
sg5
g20
sg7
S'WebView '
p894
sg9
S'30103'
p895
sg11
S'[WebView::mustAttachToEglContext] [android.view.ViewRootImpl@43d36d88] isHw=[true] eglContext=[com.google.android.gles_jni.EGLContextImpl@76223698]\n'
p896
sa(dp897
g2
S'30103'
p898
sg4
L1449716906114L
sg5
g6
sg7
S'AudioManager'
p899
sg9
S'30103'
p900
sg11
S'playSoundEffect   effectType: 0\n'
p901
sa(dp902
g2
S'30103'
p903
sg4
L1449716906114L
sg5
g6
sg7
S'AudioManager'
p904
sg9
S'30103'
p905
sg11
S'querySoundEffectsEnabled...\n'
p906
sa(dp907
g2
S'30103'
p908
sg4
L1449716906114L
sg5
g20
sg7
S'MainActivity'
p909
sg9
S'30103'
p910
sg11
S'V.getTag:null v.id:2131230738\n'
p911
sa(dp912
g2
S'30103'
p913
sg4
L1449716906464L
sg5
g783
sg7
S'dalvikvm'
p914
sg9
S'30110'
p915
sg11
S'Jit: resizing JitTable from 4096 to 8192\n'
p916
sa(dp917
g2
S'30103'
p918
sg4
L1449716907304L
sg5
g6
sg7
S'AudioManager'
p919
sg9
S'30103'
p920
sg11
S'playSoundEffect   effectType: 0\n'
p921
sa(dp922
g2
S'30103'
p923
sg4
L1449716907304L
sg5
g6
sg7
S'AudioManager'
p924
sg9
S'30103'
p925
sg11
S'querySoundEffectsEnabled...\n'
p926
sa(dp927
g2
S'30103'
p928
sg4
L1449716907304L
sg5
g20
sg7
S'MainActivity'
p929
sg9
S'30103'
p930
sg11
S'V.getTag:null v.id:2131230790\n'
p931
sa(dp932
g2
S'30103'
p933
sg4
L1449716907774L
sg5
g6
sg7
S'AudioManager'
p934
sg9
S'30103'
p935
sg11
S'playSoundEffect   effectType: 0\n'
p936
sa(dp937
g2
S'30103'
p938
sg4
L1449716907774L
sg5
g6
sg7
S'AudioManager'
p939
sg9
S'30103'
p940
sg11
S'querySoundEffectsEnabled...\n'
p941
sa(dp942
g2
S'30103'
p943
sg4
L1449716907774L
sg5
g20
sg7
S'MainActivity'
p944
sg9
S'30103'
p945
sg11
S'V.getTag:null v.id:2131230791\n'
p946
sa(dp947
g2
S'30103'
p948
sg4
L1449716907834L
sg5
g26
sg7
S'textview'
p949
sg9
S'30103'
p950
sg11
S'initAddtionalStyle default\n'
p951
sa(dp952
g2
S'30103'
p953
sg4
L1449716907844L
sg5
g26
sg7
S'textview'
p954
sg9
S'30103'
p955
sg11
S'initAddtionalStyle default\n'
p956
sa(dp957
g2
S'30103'
p958
sg4
L1449716911094L
sg5
g20
sg7
S'dalvikvm'
p959
sg9
S'30107'
p960
sg11
S'GC_CONCURRENT freed 8140K, 38% free 25798K/41028K, paused 4ms+8ms, total 55ms\n'
p961
sa(dp962
g2
S'30103'
p963
sg4
L1449716913644L
sg5
g6
sg7
S'AudioManager'
p964
sg9
S'30103'
p965
sg11
S'playSoundEffect   effectType: 0\n'
p966
sa(dp967
g2
S'30103'
p968
sg4
L1449716913644L
sg5
g6
sg7
S'AudioManager'
p969
sg9
S'30103'
p970
sg11
S'querySoundEffectsEnabled...\n'
p971
sa(dp972
g2
S'30103'
p973
sg4
L1449716913664L
sg5
g20
sg7
S'MainActivity'
p974
sg9
S'30103'
p975
sg11
S'logList.size2():0 com.example.myfristandroid.myListView{42112010 V.ED.VC. ......ID 10,10-698,10 #7f08003c app:id/id_lv_logView}\n'
p976
sa(dp977
g2
S'30103'
p978
sg4
L1449716913664L
sg5
g20
sg7
S'MainActivity'
p979
sg9
S'30103'
p980
sg11
S'MainActivity Send BroadCast Length:22\n'
p981
sa(dp982
g2
S'30125'
p983
sg4
L1449716913674L
sg5
g20
sg7
S'ForegroundActivity'
p984
sg9
S'30125'
p985
sg11
S'\xe6\x9c\xac\xe6\xac\xa1\xe5\x8f\x91\xe9\x80\x81\xe5\xb8\xa7\xe9\x95\xbf:22\t\xe6\x80\xbb\xe5\xb8\xa7\xe9\x95\xbf:403\n'
p986
sa(dp987
g2
S'30125'
p988
sg4
L1449716913794L
sg5
g20
sg7
S'ForegroundActivity'
p989
sg9
S'30148'
p990
sg11
S'\xe6\x9c\xac\xe6\xac\xa1\xe6\x94\xb6\xe5\x88\xb0\xe5\xb8\xa7\xe9\x95\xbf:126\t\xe6\x80\xbb\xe5\xb8\xa7\xe9\x95\xbf:1792\n'
p991
sa(dp992
g2
S'30125'
p993
sg4
L1449716913804L
sg5
g20
sg7
S'ForegroundActivity'
p994
sg9
S'30148'
p995
sg11
S'\xe6\x9c\xac\xe6\xac\xa1\xe6\x94\xb6\xe5\x88\xb0\xe5\xb8\xa7\xe9\x95\xbf:126\t\xe6\x80\xbb\xe5\xb8\xa7\xe9\x95\xbf:1918\n'
p996
sa(dp997
g2
S'30125'
p998
sg4
L1449716913804L
sg5
g20
sg7
S'ForegroundActivity'
p999
sg9
S'30148'
p1000
sg11
S'\xe6\x9c\xac\xe6\xac\xa1\xe6\x94\xb6\xe5\x88\xb0\xe5\xb8\xa7\xe9\x95\xbf:125\t\xe6\x80\xbb\xe5\xb8\xa7\xe9\x95\xbf:2043\n'
p1001
sa(dp1002
g2
S'30125'
p1003
sg4
L1449716913824L
sg5
g20
sg7
S'ForegroundActivity'
p1004
sg9
S'30148'
p1005
sg11
S'\xe6\x9c\xac\xe6\xac\xa1\xe6\x94\xb6\xe5\x88\xb0\xe5\xb8\xa7\xe9\x95\xbf:124\t\xe6\x80\xbb\xe5\xb8\xa7\xe9\x95\xbf:2167\n'
p1006
sa(dp1007
g2
S'30125'
p1008
sg4
L1449716913834L
sg5
g20
sg7
S'ForegroundActivity'
p1009
sg9
S'30148'
p1010
sg11
S'\xe6\x9c\xac\xe6\xac\xa1\xe6\x94\xb6\xe5\x88\xb0\xe5\xb8\xa7\xe9\x95\xbf:126\t\xe6\x80\xbb\xe5\xb8\xa7\xe9\x95\xbf:2293\n'
p1011
sa(dp1012
g2
S'30125'
p1013
sg4
L1449716913844L
sg5
g20
sg7
S'ForegroundActivity'
p1014
sg9
S'30148'
p1015
sg11
S'\xe6\x9c\xac\xe6\xac\xa1\xe6\x94\xb6\xe5\x88\xb0\xe5\xb8\xa7\xe9\x95\xbf:128\t\xe6\x80\xbb\xe5\xb8\xa7\xe9\x95\xbf:2421\n'
p1016
sa(dp1017
g2
S'30125'
p1018
sg4
L1449716914594L
sg5
g20
sg7
S'SocketService1'
p1019
sg9
S'30145'
p1020
sg11
S'\xe6\x9c\xac\xe6\xac\xa1\xe6\x8f\x90\xe5\x8f\x961:LoadPtr:1792 HeadIndex:1666 GetSize:126 126 0 \xe5\xa4\xb4\xe4\xbf\xa1\xe6\x81\xaf:EB 90 EB 90 EB 90 7E 00 0D 03 \n'
p1021
sa(dp1022
g2
S'30125'
p1023
sg4
L1449716914664L
sg5
g20
sg7
S'SocketService1'
p1024
sg9
S'30145'
p1025
sg11
S'\xe6\x9c\xac\xe6\xac\xa1\xe6\x8f\x90\xe5\x8f\x961:LoadPtr:1918 HeadIndex:1792 GetSize:126 126 0 \xe5\xa4\xb4\xe4\xbf\xa1\xe6\x81\xaf:EB 90 EB 90 EB 90 7E 00 0D 03 \n'
p1026
sa(dp1027
g2
S'30125'
p1028
sg4
L1449716914694L
sg5
g20
sg7
S'SocketService1'
p1029
sg9
S'30145'
p1030
sg11
S'\xe6\x9c\xac\xe6\xac\xa1\xe6\x8f\x90\xe5\x8f\x961:LoadPtr:2043 HeadIndex:1918 GetSize:125 125 0 \xe5\xa4\xb4\xe4\xbf\xa1\xe6\x81\xaf:EB 90 EB 90 EB 90 7D 00 0D 03 \n'
p1031
sa(dp1032
g2
S'30125'
p1033
sg4
L1449716914764L
sg5
g20
sg7
S'SocketService1'
p1034
sg9
S'30145'
p1035
sg11
S'\xe6\x9c\xac\xe6\xac\xa1\xe6\x8f\x90\xe5\x8f\x961:LoadPtr:2167 HeadIndex:2043 GetSize:124 124 0 \xe5\xa4\xb4\xe4\xbf\xa1\xe6\x81\xaf:EB 90 EB 90 EB 90 7C 00 0D 03 \n'
p1036
sa(dp1037
g2
S'30125'
p1038
sg4
L1449716914804L
sg5
g20
sg7
S'SocketService1'
p1039
sg9
S'30145'
p1040
sg11
S'\xe6\x9c\xac\xe6\xac\xa1\xe6\x8f\x90\xe5\x8f\x961:LoadPtr:2293 HeadIndex:2167 GetSize:126 126 0 \xe5\xa4\xb4\xe4\xbf\xa1\xe6\x81\xaf:EB 90 EB 90 EB 90 7E 00 0D 03 \n'
p1041
sa(dp1042
g2
S'30125'
p1043
sg4
L1449716914814L
sg5
g20
sg7
S'SocketService1'
p1044
sg9
S'30145'
p1045
sg11
S'\xe6\x9c\xac\xe6\xac\xa1\xe6\x8f\x90\xe5\x8f\x961:LoadPtr:2421 HeadIndex:2293 GetSize:128 128 0 \xe5\xa4\xb4\xe4\xbf\xa1\xe6\x81\xaf:EB 90 EB 90 EB 90 80 00 0D 03 \n'
p1046
sa(dp1047
g2
S'30103'
p1048
sg4
L1449716918944L
sg5
g20
sg7
S'dalvikvm'
p1049
sg9
S'30103'
p1050
sg11
S'GC_FOR_ALLOC freed 1453K, 30% free 28890K/41024K, paused 25ms, total 25ms\n'
p1051
sa(dp1052
g2
S'30103'
p1053
sg4
L1449716918944L
sg5
g783
sg7
S'dalvikvm-heap'
p1054
sg9
S'30103'
p1055
sg11
S'Grow heap (frag case) to 37.209MB for 3409936-byte allocation\n'
p1056
sa(dp1057
g2
S'30103'
p1058
sg4
L1449716919094L
sg5
g20
sg7
S'cn.edu.nju.ise.kikandroid'
p1059
sg9
S'30141'
p1060
sg11
S'Screenshot:1449716918859\n'
p1061
sa(dp1062
g2
S'30103'
p1063
sg4
L1449716919814L
sg5
g6
sg7
S'AudioManager'
p1064
sg9
S'30103'
p1065
sg11
S'playSoundEffect   effectType: 0\n'
p1066
sa(dp1067
g2
S'30103'
p1068
sg4
L1449716919814L
sg5
g6
sg7
S'AudioManager'
p1069
sg9
S'30103'
p1070
sg11
S'querySoundEffectsEnabled...\n'
p1071
sa(dp1072
g2
S'30103'
p1073
sg4
L1449716919814L
sg5
g20
sg7
S'MainActivity'
p1074
sg9
S'30103'
p1075
sg11
S'V.getTag:null v.id:2131230790\n'
p1076
sa(dp1077
g2
S'30103'
p1078
sg4
L1449716924784L
sg5
g20
sg7
S'dalvikvm'
p1079
sg9
S'30103'
p1080
sg11
S'GC_FOR_ALLOC freed 7154K, 39% free 25306K/41024K, paused 25ms, total 26ms\n'
p1081
sa(dp1082
g2
S'30103'
p1083
sg4
L1449716924814L
sg5
g20
sg7
S'dalvikvm'
p1084
sg9
S'30103'
p1085
sg11
S'GC_FOR_ALLOC freed 10K, 31% free 28626K/41024K, paused 19ms, total 20ms\n'
p1086
sa(dp1087
g2
S'30103'
p1088
sg4
L1449716924824L
sg5
g783
sg7
S'dalvikvm-heap'
p1089
sg9
S'30103'
p1090
sg11
S'Grow heap (frag case) to 36.952MB for 3409936-byte allocation\n'
p1091
sa(dp1092
g2
S'30103'
p1093
sg4
L1449716924934L
sg5
g20
sg7
S'cn.edu.nju.ise.kikandroid'
p1094
sg9
S'30141'
p1095
sg11
S'Screenshot:1449716924732\n'
p1096
sa(dp1097
g2
S'30103'
p1098
sg4
L1449716925534L
sg5
g6
sg7
S'AudioManager'
p1099
sg9
S'30103'
p1100
sg11
S'preDispatchKeyEvent keycode: 4  stream: -2147483648\n'
p1101
sa(dp1102
g2
S'30103'
p1103
sg4
L1449716925614L
sg5
g6
sg7
S'AudioManager'
p1104
sg9
S'30103'
p1105
sg11
S'preDispatchKeyEvent keycode: 4  stream: -2147483648\n'
p1106
sa(dp1107
g2
S'30103'
p1108
sg4
L1449716928644L
sg5
g6
sg7
S'AudioManager'
p1109
sg9
S'30103'
p1110
sg11
S'preDispatchKeyEvent keycode: 4  stream: -2147483648\n'
p1111
sa(dp1112
g2
S'30103'
p1113
sg4
L1449716928724L
sg5
g6
sg7
S'AudioManager'
p1114
sg9
S'30103'
p1115
sg11
S'preDispatchKeyEvent keycode: 4  stream: -2147483648\n'
p1116
sa(dp1117
g2
S'30103'
p1118
sg4
L1449716928774L
sg5
g752
sg7
S'InputEventReceiver'
p1119
sg9
S'30103'
p1120
sg11
S'Attempted to finish an input event but the input event receiver has already been disposed.\n'
p1121
sa(dp1122
g2
S'30103'
p1123
sg4
L1449716930934L
sg5
g20
sg7
S'cn.edu.nju.ise.kikandroid'
p1124
sg9
S'30141'
p1125
sg11
S'Log:1449716930940\n'
p1126
sa(dp1127
g2
S'30103'
p1128
sg4
L1449716933924L
sg5
g20
sg7
S'cn.edu.nju.ise.kikandroid'
p1129
sg9
S'30141'
p1130
sg11
S'Log:1449716933932\n'
p1131
sa(dp1132
g2
S'30103'
p1133
sg4
L1449716934054L
sg5
g20
sg7
S'dalvikvm'
p1134
sg9
S'30103'
p1135
sg11
S'GC_FOR_ALLOC freed 7022K, 38% free 25441K/41024K, paused 30ms, total 32ms\n'
p1136
sa(dp1137
g2
S'30103'
p1138
sg4
L1449716934104L
sg5
g20
sg7
S'dalvikvm'
p1139
sg9
S'30103'
p1140
sg11
S'GC_FOR_ALLOC freed 74K, 31% free 28698K/41024K, paused 27ms, total 27ms\n'
p1141
sa(dp1142
g2
S'30103'
p1143
sg4
L1449716934104L
sg5
g783
sg7
S'dalvikvm-heap'
p1144
sg9
S'30103'
p1145
sg11
S'Grow heap (frag case) to 37.022MB for 3409936-byte allocation\n'
p1146
sa(dp1147
g2
S'30103'
p1148
sg4
L1449716934204L
sg5
g20
sg7
S'cn.edu.nju.ise.kikandroid'
p1149
sg9
S'30141'
p1150
sg11
S'Screenshot:1449716933974\n'
p1151
sa(dp1152
g2
S'30103'
p1153
sg4
L1449716934204L
sg5
g752
sg7
S'dalvikvm'
p1154
sg9
S'30141'
p1155
sg11
S'threadid=14: thread exiting with uncaught exception (group=0x4162de18)\n'
p1156
sa(dp1157
g2
S'30103'
p1158
sg4
L1449716934204L
sg5
g26
sg7
S'AndroidRuntime'
p1159
sg9
S'30141'
p1160
sg11
S'FATAL EXCEPTION: Thread-3226\nProcess: com.example.myfristandroid, PID: 30103\njava.lang.NullPointerException\n\tat android.app.Instrumentation.finish(Instrumentation.java:191)\n\tat cn.edu.nju.ise.kikandroid.AUTInstrument.quitInstr(AUTInstrument.java:195)\n\tat cn.edu.nju.ise.kikandroid.AUTInstrument.startServer(AUTInstrument.java:161)\n\tat cn.edu.nju.ise.kikandroid.AUTInstrument$1.run(AUTInstrument.java:107)\n\tat java.lang.Thread.run(Thread.java:841)\n'
p1161
sa.