(lp0
(dp1
S'processID'
p2
S'3397'
p3
sS'SyscTime'
p4
L1449716588759L
sS'priority'
p5
S'D'
p6
sS'tag'
p7
S'ActivityThread'
p8
sS'threadID'
p9
S'0xd45'
p10
sS'message'
p11
S'ACT-STOP_ACTIVITY_HIDE handled : 0 / android.os.BinderProxy@41efc2f0\n'
p12
sa(dp13
g2
S'3397'
p14
sg4
L1449716613549L
sg5
g6
sg7
S'ActivityThread'
p15
sg9
S'0xd45'
p16
sg11
S'ACT-AM_ON_PAUSE_CALLED ActivityRecord{4224b060 token=android.os.BinderProxy@422759e0 {com.example.myfristandroid/com.example.myfristandroid.graphWebShow}}\n'
p17
sa(dp18
g2
S'3397'
p19
sg4
L1449716613558L
sg5
g6
sg7
S'ActivityThread'
p20
sg9
S'0xd45'
p21
sg11
S'ACT-PAUSE_ACTIVITY_FINISHING handled : 0 / android.os.BinderProxy@422759e0\n'
p22
sa(dp23
g2
S'3397'
p24
sg4
L1449716613559L
sg5
g6
sg7
S'ActivityThread'
p25
sg9
S'0xd45'
p26
sg11
S'ACT-AM_ON_RESUME_CALLED ActivityRecord{41efcb80 token=android.os.BinderProxy@41efc2f0 {com.example.myfristandroid/com.example.myfristandroid.MainActivity}}\n'
p27
sa(dp28
g2
S'3397'
p29
sg4
L1449716613565L
sg5
g6
sg7
S'ActivityThread'
p30
sg9
S'0xd45'
p31
sg11
S'ACT-RESUME_ACTIVITY handled : 0 / android.os.BinderProxy@41efc2f0\n'
p32
sa(dp33
g2
S'3397'
p34
sg4
L1449716614186L
sg5
g6
sg7
S'ActivityThread'
p35
sg9
S'0xd45'
p36
sg11
S'ACT-DESTROY_ACTIVITY handled : 1 / android.os.BinderProxy@422759e0\n'
p37
sa(dp38
g2
S'3397'
p39
sg4
L1449716615226L
sg5
g6
sg7
S'ActivityThread'
p40
sg9
S'0xd45'
p41
sg11
S'ACT-AM_ON_PAUSE_CALLED ActivityRecord{41efcb80 token=android.os.BinderProxy@41efc2f0 {com.example.myfristandroid/com.example.myfristandroid.MainActivity}}\n'
p42
sa(dp43
g2
S'3397'
p44
sg4
L1449716615234L
sg5
g6
sg7
S'ActivityThread'
p45
sg9
S'0xd45'
p46
sg11
S'ACT-PAUSE_ACTIVITY handled : 1 / android.os.BinderProxy@41efc2f0\n'
p47
sa(dp48
g2
S'3397'
p49
sg4
L1449716615286L
sg5
g6
sg7
S'ActivityThread'
p50
sg9
S'0xd45'
p51
sg11
S'ACT-AM_ON_RESUME_CALLED ActivityRecord{42037d70 token=android.os.BinderProxy@41fe0218 {com.example.myfristandroid/com.example.myfristandroid.graphWebShow}}\n'
p52
sa(dp53
g2
S'3397'
p54
sg4
L1449716615294L
sg5
g6
sg7
S'ActivityThread'
p55
sg9
S'0xd45'
p56
sg11
S'ACT-LAUNCH_ACTIVITY handled : 0 / ActivityRecord{42037d70 token=android.os.BinderProxy@41fe0218 {com.example.myfristandroid/com.example.myfristandroid.graphWebShow}}\n'
p57
sa(dp58
g2
S'3397'
p59
sg4
L1449716615722L
sg5
g6
sg7
S'ActivityThread'
p60
sg9
S'0xd45'
p61
sg11
S'ACT-STOP_ACTIVITY_HIDE handled : 0 / android.os.BinderProxy@41efc2f0\n'
p62
sa(dp63
g2
S'3397'
p64
sg4
L1449716634120L
sg5
g6
sg7
S'ActivityThread'
p65
sg9
S'0xd45'
p66
sg11
S'ACT-AM_ON_PAUSE_CALLED ActivityRecord{42037d70 token=android.os.BinderProxy@41fe0218 {com.example.myfristandroid/com.example.myfristandroid.graphWebShow}}\n'
p67
sa(dp68
g2
S'3397'
p69
sg4
L1449716634127L
sg5
g6
sg7
S'ActivityThread'
p70
sg9
S'0xd45'
p71
sg11
S'ACT-PAUSE_ACTIVITY_FINISHING handled : 0 / android.os.BinderProxy@41fe0218\n'
p72
sa(dp73
g2
S'3397'
p74
sg4
L1449716634128L
sg5
g6
sg7
S'ActivityThread'
p75
sg9
S'0xd45'
p76
sg11
S'ACT-AM_ON_RESUME_CALLED ActivityRecord{41efcb80 token=android.os.BinderProxy@41efc2f0 {com.example.myfristandroid/com.example.myfristandroid.MainActivity}}\n'
p77
sa(dp78
g2
S'3397'
p79
sg4
L1449716634130L
sg5
g6
sg7
S'ActivityThread'
p80
sg9
S'0xd45'
p81
sg11
S'ACT-RESUME_ACTIVITY handled : 0 / android.os.BinderProxy@41efc2f0\n'
p82
sa(dp83
g2
S'3397'
p84
sg4
L1449716634593L
sg5
g6
sg7
S'ActivityThread'
p85
sg9
S'0xd45'
p86
sg11
S'ACT-DESTROY_ACTIVITY handled : 1 / android.os.BinderProxy@41fe0218\n'
p87
sa(dp88
g2
S'3397'
p89
sg4
L1449716636362L
sg5
g6
sg7
S'ActivityThread'
p90
sg9
S'0xd45'
p91
sg11
S'ACT-AM_ON_PAUSE_CALLED ActivityRecord{41efcb80 token=android.os.BinderProxy@41efc2f0 {com.example.myfristandroid/com.example.myfristandroid.MainActivity}}\n'
p92
sa(dp93
g2
S'3397'
p94
sg4
L1449716636372L
sg5
g6
sg7
S'ActivityThread'
p95
sg9
S'0xd45'
p96
sg11
S'ACT-PAUSE_ACTIVITY handled : 1 / android.os.BinderProxy@41efc2f0\n'
p97
sa(dp98
g2
S'3397'
p99
sg4
L1449716636426L
sg5
g6
sg7
S'ActivityThread'
p100
sg9
S'0xd45'
p101
sg11
S'ACT-AM_ON_RESUME_CALLED ActivityRecord{42eee918 token=android.os.BinderProxy@42eee088 {com.example.myfristandroid/com.example.myfristandroid.graphWebShow}}\n'
p102
sa(dp103
g2
S'3397'
p104
sg4
L1449716636435L
sg5
g6
sg7
S'ActivityThread'
p105
sg9
S'0xd45'
p106
sg11
S'ACT-LAUNCH_ACTIVITY handled : 0 / ActivityRecord{42eee918 token=android.os.BinderProxy@42eee088 {com.example.myfristandroid/com.example.myfristandroid.graphWebShow}}\n'
p107
sa(dp108
g2
S'3397'
p109
sg4
L1449716636874L
sg5
g6
sg7
S'ActivityThread'
p110
sg9
S'0xd45'
p111
sg11
S'ACT-STOP_ACTIVITY_HIDE handled : 0 / android.os.BinderProxy@41efc2f0\n'
p112
sa(dp113
g2
S'3397'
p114
sg4
L1449716643415L
sg5
g6
sg7
S'MainActivity'
p115
sg9
S'0xdf0'
p116
sg11
S'h:5684.15,w:7950.53\n'
p117
sa(dp118
g2
S'3397'
p119
sg4
L1449716643480L
sg5
S'I'
p120
sg7
S'dumpMemoryUsage'
p121
sg9
S'0xded'
p122
sg11
S'[WebViewImpl::updateLayerTreeViewport] [0x666bd008] pageScaleFactor=[1.000000]\n'
p123
sa(dp124
g2
S'3397'
p125
sg4
L1449716643482L
sg5
g120
sg7
S'dumpMemoryUsage'
p126
sg9
S'0xded'
p127
sg11
S'[WebViewImpl::updateLayerTreeViewport] [0x666bd008] pageScaleFactor=[1.000000]\n'
p128
sa(dp129
g2
S'3397'
p130
sg4
L1449716643496L
sg5
g120
sg7
S'dumpMemoryUsage'
p131
sg9
S'0xded'
p132
sg11
S'[WebViewImpl::updateLayerTreeViewport] [0x666bd008] pageScaleFactor=[1.000000]\n'
p133
sa(dp134
g2
S'3397'
p135
sg4
L1449716643498L
sg5
g6
sg7
S'WebViewCallback'
p136
sg9
S'0xd45'
p137
sg11
S'onProgressChanged=100\n'
p138
sa(dp139
g2
S'3397'
p140
sg4
L1449716643500L
sg5
g6
sg7
S'WebViewCallback'
p141
sg9
S'0xd45'
p142
sg11
S'onPageFinished=http://oa.paneng.cn:1143/se9200/graph/gshow.jsp?mRID=1130000005\n'
p143
sa(dp144
g2
S'3397'
p145
sg4
L1449716643502L
sg5
S'W'
p146
sg7
S'chromium'
p147
sg9
S'0xd45'
p148
sg11
S'[WARNING:password_handler.cc(192)] OnPasswordFormsRendered called\n'
p149
sa(dp150
g2
S'3397'
p151
sg4
L1449716643502L
sg5
g6
sg7
S'AwPasswordHandler'
p152
sg9
S'0xd45'
p153
sg11
S'getSavePassword false\n'
p154
sa(dp155
g2
S'3397'
p156
sg4
L1449716643502L
sg5
g146
sg7
S'chromium'
p157
sg9
S'0xd45'
p158
sg11
S'[WARNING:aw_password_handler_delegate_impl.cc(201)] IsSavePasswordEnabled ret is \n'
p159
sa(dp160
g2
S'3397'
p161
sg4
L1449716643502L
sg5
g146
sg7
S'chromium'
p162
sg9
S'0xd45'
p163
sg11
S'[WARNING:password_handler.cc(194)] OnPasswordFormsRendered IsEnabledSavePassword is false\n'
p164
sa(dp165
g2
S'3397'
p166
sg4
L1449716643556L
sg5
g6
sg7
S'WebViewCallback'
p167
sg9
S'0xde5'
p168
sg11
S'shouldInterceptRequest=http://oa.paneng.cn:1143/se9200/dwr/call/plaincall/se9200dwr.getFloatValues.dwr\n'
p169
sa(dp170
g2
S'3397'
p171
sg4
L1449716643556L
sg5
g6
sg7
S'WebViewCallback'
p172
sg9
S'0xd45'
p173
sg11
S'onLoadResource=http://oa.paneng.cn:1143/se9200/dwr/call/plaincall/se9200dwr.getFloatValues.dwr\n'
p174
sa(dp175
g2
S'3397'
p176
sg4
L1449716643562L
sg5
g6
sg7
S'WebViewCallback'
p177
sg9
S'0xde5'
p178
sg11
S'shouldInterceptRequest=http://oa.paneng.cn:1143/se9200/dwr/call/plaincall/se9200dwr.getFloatValues.dwr\n'
p179
sa(dp180
g2
S'3397'
p181
sg4
L1449716643562L
sg5
g6
sg7
S'WebViewCallback'
p182
sg9
S'0xd45'
p183
sg11
S'onLoadResource=http://oa.paneng.cn:1143/se9200/dwr/call/plaincall/se9200dwr.getFloatValues.dwr\n'
p184
sa(dp185
g2
S'3397'
p186
sg4
L1449716643571L
sg5
g120
sg7
S'dumpMemoryUsage'
p187
sg9
S'0xded'
p188
sg11
S'[WebViewImpl::updateLayerTreeViewport] [0x652d8648] pageScaleFactor=[1.000000]\n'
p189
sa(dp190
g2
S'3397'
p191
sg4
L1449716643573L
sg5
g120
sg7
S'        '
p192
sg9
S'0xded'
p193
sg11
S'[custom_prop]custom_get_string->module[browser],key[UAProfileURL]\n'
p194
sa(dp195
g2
S'3397'
p196
sg4
L1449716643574L
sg5
g120
sg7
S'dumpMemoryUsage'
p197
sg9
S'0xded'
p198
sg11
S'[WebViewImpl::updateLayerTreeViewport] [0x652d8648] pageScaleFactor=[1.000000]\n'
p199
sa(dp200
g2
S'3397'
p201
sg4
L1449716643575L
sg5
g120
sg7
S'WebViewImpl'
p202
sg9
S'0xded'
p203
sg11
S'resetScrollAndScaleState reset page scale to 1\n'
p204
sa(dp205
g2
S'3397'
p206
sg4
L1449716643576L
sg5
g6
sg7
S'        '
p207
sg9
S'0xded'
p208
sg11
S'InternalDocumentStateData::InternalDocumentStateData, is_overriding_user_agent_ = 0\n'
p209
sa(dp210
g2
S'3397'
p211
sg4
L1449716643577L
sg5
g6
sg7
S'MotionEvent-JNI'
p212
sg9
S'0xd45'
p213
sg11
S'nativeGetAxisValue pointerIndex=0, pointerCount=1\n'
p214
sa(dp215
g2
S'3397'
p216
sg4
L1449716643580L
sg5
g6
sg7
S'WebViewCallback'
p217
sg9
S'0xd45'
p218
sg11
S'onProgressChanged=0\n'
p219
sa(dp220
g2
S'3397'
p221
sg4
L1449716643580L
sg5
g6
sg7
S'WebViewCallback'
p222
sg9
S'0xde5'
p223
sg11
S'shouldInterceptRequest=http://oa.paneng.cn:1143/se9200/graph/gshow.jsp?mRID=1130000148\n'
p224
sa(dp225
g2
S'3397'
p226
sg4
L1449716643580L
sg5
g6
sg7
S'WebViewCallback'
p227
sg9
S'0xd45'
p228
sg11
S'onPageStarted=http://oa.paneng.cn:1143/se9200/graph/gshow.jsp?mRID=1130000148\n'
p229
sa(dp230
g2
S'3397'
p231
sg4
L1449716643581L
sg5
g6
sg7
S'WebViewCallback'
p232
sg9
S'0xd45'
p233
sg11
S'onLoadResource=http://oa.paneng.cn:1143/se9200/graph/gshow.jsp?mRID=1130000148\n'
p234
sa(dp235
g2
S'3397'
p236
sg4
L1449716643583L
sg5
g120
sg7
S'dumpMemoryUsage'
p237
sg9
S'0xded'
p238
sg11
S'[WebViewImpl::updateLayerTreeViewport] [0x652d8648] pageScaleFactor=[1.000000]\n'
p239
sa(dp240
g2
S'3397'
p241
sg4
L1449716643584L
sg5
g120
sg7
S'dumpMemoryUsage'
p242
sg9
S'0xded'
p243
sg11
S'[WebViewImpl::updateLayerTreeViewport] [0x652d8648] pageScaleFactor=[1.000000]\n'
p244
sa(dp245
g2
S'3397'
p246
sg4
L1449716643586L
sg5
g120
sg7
S'dumpMemoryUsage'
p247
sg9
S'0xded'
p248
sg11
S'[WebViewImpl::updateLayerTreeViewport] [0x652d8648] pageScaleFactor=[1.000000]\n'
p249
sa(dp250
g2
S'3397'
p251
sg4
L1449716643587L
sg5
g120
sg7
S'dumpMemoryUsage'
p252
sg9
S'0xded'
p253
sg11
S'[WebViewImpl::updateLayerTreeViewport] [0x652d8648] pageScaleFactor=[1.000000]\n'
p254
sa(dp255
g2
S'3397'
p256
sg4
L1449716643594L
sg5
g120
sg7
S'dumpMemoryUsage'
p257
sg9
S'0xded'
p258
sg11
S'[WebViewImpl::updateLayerTreeViewport] [0x67d737b0] pageScaleFactor=[1.000000]\n'
p259
sa(dp260
g2
S'3397'
p261
sg4
L1449716643596L
sg5
g120
sg7
S'        '
p262
sg9
S'0xded'
p263
sg11
S'[custom_prop]custom_get_string->module[browser],key[UAProfileURL]\n'
p264
sa(dp265
g2
S'3397'
p266
sg4
L1449716643597L
sg5
g120
sg7
S'dumpMemoryUsage'
p267
sg9
S'0xded'
p268
sg11
S'[WebViewImpl::updateLayerTreeViewport] [0x67d737b0] pageScaleFactor=[1.000000]\n'
p269
sa(dp270
g2
S'3397'
p271
sg4
L1449716643599L
sg5
g120
sg7
S'WebViewImpl'
p272
sg9
S'0xded'
p273
sg11
S'resetScrollAndScaleState reset page scale to 1\n'
p274
sa(dp275
g2
S'3397'
p276
sg4
L1449716643600L
sg5
g6
sg7
S'        '
p277
sg9
S'0xded'
p278
sg11
S'InternalDocumentStateData::InternalDocumentStateData, is_overriding_user_agent_ = 0\n'
p279
sa(dp280
g2
S'3397'
p281
sg4
L1449716643601L
sg5
g6
sg7
S'MotionEvent-JNI'
p282
sg9
S'0xd45'
p283
sg11
S'nativeGetAxisValue pointerIndex=0, pointerCount=1\n'
p284
sa(dp285
g2
S'3397'
p286
sg4
L1449716643601L
sg5
g6
sg7
S'WebViewCallback'
p287
sg9
S'0xd45'
p288
sg11
S'onProgressChanged=0\n'
p289
sa(dp290
g2
S'3397'
p291
sg4
L1449716643602L
sg5
g6
sg7
S'WebViewCallback'
p292
sg9
S'0xd45'
p293
sg11
S'onPageStarted=http://oa.paneng.cn:1143/se9200/graph/gshow.jsp?mRID=1130000148\n'
p294
sa(dp295
g2
S'3397'
p296
sg4
L1449716643603L
sg5
g6
sg7
S'WebViewCallback'
p297
sg9
S'0xde5'
p298
sg11
S'shouldInterceptRequest=http://oa.paneng.cn:1143/se9200/graph/gshow.jsp?mRID=1130000148\n'
p299
sa(dp300
g2
S'3397'
p301
sg4
L1449716643604L
sg5
g6
sg7
S'WebViewCallback'
p302
sg9
S'0xd45'
p303
sg11
S'onLoadResource=http://oa.paneng.cn:1143/se9200/graph/gshow.jsp?mRID=1130000148\n'
p304
sa(dp305
g2
S'3397'
p306
sg4
L1449716643606L
sg5
g120
sg7
S'dumpMemoryUsage'
p307
sg9
S'0xded'
p308
sg11
S'[WebViewImpl::updateLayerTreeViewport] [0x67d737b0] pageScaleFactor=[1.000000]\n'
p309
sa(dp310
g2
S'3397'
p311
sg4
L1449716643607L
sg5
g120
sg7
S'dumpMemoryUsage'
p312
sg9
S'0xded'
p313
sg11
S'[WebViewImpl::updateLayerTreeViewport] [0x67d737b0] pageScaleFactor=[1.000000]\n'
p314
sa(dp315
g2
S'3397'
p316
sg4
L1449716643608L
sg5
g120
sg7
S'dumpMemoryUsage'
p317
sg9
S'0xded'
p318
sg11
S'[WebViewImpl::updateLayerTreeViewport] [0x67d737b0] pageScaleFactor=[1.000000]\n'
p319
sa(dp320
g2
S'3397'
p321
sg4
L1449716643609L
sg5
g120
sg7
S'dumpMemoryUsage'
p322
sg9
S'0xded'
p323
sg11
S'[WebViewImpl::updateLayerTreeViewport] [0x67d737b0] pageScaleFactor=[1.000000]\n'
p324
sa(dp325
g2
S'3397'
p326
sg4
L1449716643622L
sg5
g6
sg7
S'dalvikvm'
p327
sg9
S'0x1348'
p328
sg11
S'threadid=49: interp stack at 0x6883e000\n'
p329
sa(dp330
g2
S'3397'
p331
sg4
L1449716643979L
sg5
g120
sg7
S'dumpMemoryUsage'
p332
sg9
S'0xded'
p333
sg11
S'[WebViewImpl::updateLayerTreeViewport] [0x652d8648] pageScaleFactor=[1.000000]\n'
p334
sa(dp335
g2
S'3397'
p336
sg4
L1449716644032L
sg5
g120
sg7
S'dumpMemoryUsage'
p337
sg9
S'0xded'
p338
sg11
S'[WebViewImpl::updateLayerTreeViewport] [0x67d737b0] pageScaleFactor=[1.000000]\n'
p339
sa(dp340
g2
S'3397'
p341
sg4
L1449716644137L
sg5
g6
sg7
S'WebViewCallback'
p342
sg9
S'0xd45'
p343
sg11
S'onProgressChanged=16\n'
p344
sa(dp345
g2
S'3397'
p346
sg4
L1449716644139L
sg5
g6
sg7
S'WebViewCallback'
p347
sg9
S'0xd45'
p348
sg11
S'doUpdateVisitedHistory=http://oa.paneng.cn:1143/se9200/graph/gshow.jsp?mRID=1130000148 reload=false\n'
p349
sa(dp350
g2
S'3397'
p351
sg4
L1449716644139L
sg5
g146
sg7
S'chromium'
p352
sg9
S'0xd45'
p353
sg11
S'[WARNING:password_handler.cc(60)] DidNavigateAnyFrame can_save = 0\n'
p354
sa(dp355
g2
S'3397'
p356
sg4
L1449716644139L
sg5
g6
sg7
S'AwPasswordHandler'
p357
sg9
S'0xd45'
p358
sg11
S'getSavePassword false\n'
p359
sa(dp360
g2
S'3397'
p361
sg4
L1449716644139L
sg5
g146
sg7
S'chromium'
p362
sg9
S'0xd45'
p363
sg11
S'[WARNING:aw_password_handler_delegate_impl.cc(201)] IsSavePasswordEnabled ret is \n'
p364
sa(dp365
g2
S'3397'
p366
sg4
L1449716644139L
sg5
g146
sg7
S'chromium'
p367
sg9
S'0xd45'
p368
sg11
S'[WARNING:password_handler.cc(64)] DidNavigateAnyFrame IsEnabledSavePassword is false!!\n'
p369
sa(dp370
g2
S'3397'
p371
sg4
L1449716644141L
sg5
g6
sg7
S'WebViewCallback'
p372
sg9
S'0xd45'
p373
sg11
S'onProgressChanged=16\n'
p374
sa(dp375
g2
S'3397'
p376
sg4
L1449716644142L
sg5
g6
sg7
S'WebViewCallback'
p377
sg9
S'0xd45'
p378
sg11
S'doUpdateVisitedHistory=http://oa.paneng.cn:1143/se9200/graph/gshow.jsp?mRID=1130000148 reload=false\n'
p379
sa(dp380
g2
S'3397'
p381
sg4
L1449716644142L
sg5
g146
sg7
S'chromium'
p382
sg9
S'0xd45'
p383
sg11
S'[WARNING:password_handler.cc(60)] DidNavigateAnyFrame can_save = 0\n'
p384
sa(dp385
g2
S'3397'
p386
sg4
L1449716644143L
sg5
g6
sg7
S'AwPasswordHandler'
p387
sg9
S'0xd45'
p388
sg11
S'getSavePassword false\n'
p389
sa(dp390
g2
S'3397'
p391
sg4
L1449716644143L
sg5
g146
sg7
S'chromium'
p392
sg9
S'0xd45'
p393
sg11
S'[WARNING:aw_password_handler_delegate_impl.cc(201)] IsSavePasswordEnabled ret is \n'
p394
sa(dp395
g2
S'3397'
p396
sg4
L1449716644143L
sg5
g146
sg7
S'chromium'
p397
sg9
S'0xd45'
p398
sg11
S'[WARNING:password_handler.cc(64)] DidNavigateAnyFrame IsEnabledSavePassword is false!!\n'
p399
sa(dp400
g2
S'3397'
p401
sg4
L1449716644245L
sg5
g6
sg7
S'WebViewCallback'
p402
sg9
S'0xd45'
p403
sg11
S'onReceivedTitle\n'
p404
sa(dp405
g2
S'3397'
p406
sg4
L1449716644247L
sg5
g6
sg7
S'WebViewCallback'
p407
sg9
S'0xd45'
p408
sg11
S'onProgressChanged=50\n'
p409
sa(dp410
g2
S'3397'
p411
sg4
L1449716644269L
sg5
g6
sg7
S'WebViewCallback'
p412
sg9
S'0xde5'
p413
sg11
S'shouldInterceptRequest=http://oa.paneng.cn:1143/se9200/dwr/call/plaincall/__System.pageLoaded.dwr\n'
p414
sa(dp415
g2
S'3397'
p416
sg4
L1449716644269L
sg5
g6
sg7
S'WebViewCallback'
p417
sg9
S'0xd45'
p418
sg11
S'onLoadResource=http://oa.paneng.cn:1143/se9200/dwr/call/plaincall/__System.pageLoaded.dwr\n'
p419
sa(dp420
g2
S'3397'
p421
sg4
L1449716644280L
sg5
g6
sg7
S'WebViewCallback'
p422
sg9
S'0xd45'
p423
sg11
S'onReceivedTitle\n'
p424
sa(dp425
g2
S'3397'
p426
sg4
L1449716644283L
sg5
g6
sg7
S'WebViewCallback'
p427
sg9
S'0xd45'
p428
sg11
S'onProgressChanged=50\n'
p429
sa(dp430
g2
S'3397'
p431
sg4
L1449716644300L
sg5
g6
sg7
S'WebViewCallback'
p432
sg9
S'0xde5'
p433
sg11
S'shouldInterceptRequest=http://oa.paneng.cn:1143/se9200/dwr/call/plaincall/__System.pageLoaded.dwr\n'
p434
sa(dp435
g2
S'3397'
p436
sg4
L1449716644300L
sg5
g6
sg7
S'WebViewCallback'
p437
sg9
S'0xd45'
p438
sg11
S'onLoadResource=http://oa.paneng.cn:1143/se9200/dwr/call/plaincall/__System.pageLoaded.dwr\n'
p439
sa(dp440
g2
S'3397'
p441
sg4
L1449716644352L
sg5
g6
sg7
S'WebViewCallback'
p442
sg9
S'0xd45'
p443
sg11
S'onProgressChanged=50\n'
p444
sa(dp445
g2
S'3397'
p446
sg4
L1449716644369L
sg5
g6
sg7
S'WebViewCallback'
p447
sg9
S'0xde5'
p448
sg11
S'shouldInterceptRequest=http://oa.paneng.cn:1143/graph/icons.svg\n'
p449
sa(dp450
g2
S'3397'
p451
sg4
L1449716644372L
sg5
g6
sg7
S'WebViewCallback'
p452
sg9
S'0xd45'
p453
sg11
S'onLoadResource=http://oa.paneng.cn:1143/graph/icons.svg\n'
p454
sa(dp455
g2
S'3397'
p456
sg4
L1449716644805L
sg5
g6
sg7
S'WebViewCallback'
p457
sg9
S'0xde5'
p458
sg11
S'shouldInterceptRequest=http://oa.paneng.cn:1143/graph/1130000148.svg\n'
p459
sa(dp460
g2
S'3397'
p461
sg4
L1449716644805L
sg5
g6
sg7
S'WebViewCallback'
p462
sg9
S'0xd45'
p463
sg11
S'onLoadResource=http://oa.paneng.cn:1143/graph/1130000148.svg\n'
p464
sa(dp465
g2
S'3397'
p466
sg4
L1449716644820L
sg5
g6
sg7
S'WebViewCallback'
p467
sg9
S'0xd45'
p468
sg11
S'onProgressChanged=50\n'
p469
sa(dp470
g2
S'3397'
p471
sg4
L1449716644953L
sg5
g6
sg7
S'MainActivity'
p472
sg9
S'0xdf0'
p473
sg11
S'h:670.006,w:1569.5\n'
p474
sa(dp475
g2
S'3397'
p476
sg4
L1449716645045L
sg5
g120
sg7
S'dumpMemoryUsage'
p477
sg9
S'0xded'
p478
sg11
S'[WebViewImpl::updateLayerTreeViewport] [0x652d8648] pageScaleFactor=[1.000000]\n'
p479
sa(dp480
g2
S'3397'
p481
sg4
L1449716645137L
sg5
g120
sg7
S'dumpMemoryUsage'
p482
sg9
S'0xded'
p483
sg11
S'[WebViewImpl::updateLayerTreeViewport] [0x652d8648] pageScaleFactor=[1.000000]\n'
p484
sa(dp485
g2
S'3397'
p486
sg4
L1449716645139L
sg5
g6
sg7
S'WebViewCallback'
p487
sg9
S'0xd45'
p488
sg11
S'onProgressChanged=100\n'
p489
sa(dp490
g2
S'3397'
p491
sg4
L1449716645141L
sg5
g6
sg7
S'WebViewCallback'
p492
sg9
S'0xd45'
p493
sg11
S'onPageFinished=http://oa.paneng.cn:1143/se9200/graph/gshow.jsp?mRID=1130000148\n'
p494
sa(dp495
g2
S'3397'
p496
sg4
L1449716645143L
sg5
g146
sg7
S'chromium'
p497
sg9
S'0xd45'
p498
sg11
S'[WARNING:password_handler.cc(192)] OnPasswordFormsRendered called\n'
p499
sa(dp500
g2
S'3397'
p501
sg4
L1449716645144L
sg5
g6
sg7
S'AwPasswordHandler'
p502
sg9
S'0xd45'
p503
sg11
S'getSavePassword false\n'
p504
sa(dp505
g2
S'3397'
p506
sg4
L1449716645144L
sg5
g146
sg7
S'chromium'
p507
sg9
S'0xd45'
p508
sg11
S'[WARNING:aw_password_handler_delegate_impl.cc(201)] IsSavePasswordEnabled ret is \n'
p509
sa(dp510
g2
S'3397'
p511
sg4
L1449716645145L
sg5
g146
sg7
S'chromium'
p512
sg9
S'0xd45'
p513
sg11
S'[WARNING:password_handler.cc(194)] OnPasswordFormsRendered IsEnabledSavePassword is false\n'
p514
sa(dp515
g2
S'3397'
p516
sg4
L1449716645159L
sg5
g6
sg7
S'WebViewCallback'
p517
sg9
S'0xde5'
p518
sg11
S'shouldInterceptRequest=http://oa.paneng.cn:1143/se9200/dwr/call/plaincall/se9200dwr.getFloatValues.dwr\n'
p519
sa(dp520
g2
S'3397'
p521
sg4
L1449716645159L
sg5
g6
sg7
S'WebViewCallback'
p522
sg9
S'0xd45'
p523
sg11
S'onLoadResource=http://oa.paneng.cn:1143/se9200/dwr/call/plaincall/se9200dwr.getFloatValues.dwr\n'
p524
sa(dp525
g2
S'3397'
p526
sg4
L1449716645162L
sg5
g6
sg7
S'WebViewCallback'
p527
sg9
S'0xd45'
p528
sg11
S'onProgressChanged=50\n'
p529
sa(dp530
g2
S'3397'
p531
sg4
L1449716645175L
sg5
g6
sg7
S'WebViewCallback'
p532
sg9
S'0xde5'
p533
sg11
S'shouldInterceptRequest=http://oa.paneng.cn:1143/graph/icons.svg\n'
p534
sa(dp535
g2
S'3397'
p536
sg4
L1449716645176L
sg5
g6
sg7
S'WebViewCallback'
p537
sg9
S'0xd45'
p538
sg11
S'onLoadResource=http://oa.paneng.cn:1143/graph/icons.svg\n'
p539
sa(dp540
g2
S'3397'
p541
sg4
L1449716645597L
sg5
g6
sg7
S'WebViewCallback'
p542
sg9
S'0xde5'
p543
sg11
S'shouldInterceptRequest=http://oa.paneng.cn:1143/graph/1130000148.svg\n'
p544
sa(dp545
g2
S'3397'
p546
sg4
L1449716645597L
sg5
g6
sg7
S'WebViewCallback'
p547
sg9
S'0xd45'
p548
sg11
S'onLoadResource=http://oa.paneng.cn:1143/graph/1130000148.svg\n'
p549
sa(dp550
g2
S'3397'
p551
sg4
L1449716645611L
sg5
g6
sg7
S'WebViewCallback'
p552
sg9
S'0xd45'
p553
sg11
S'onProgressChanged=50\n'
p554
sa(dp555
g2
S'3397'
p556
sg4
L1449716645711L
sg5
g6
sg7
S'MainActivity'
p557
sg9
S'0xdf0'
p558
sg11
S'h:670.006,w:1569.5\n'
p559
sa(dp560
g2
S'3397'
p561
sg4
L1449716645764L
sg5
g6
sg7
S'OpenGLRenderer'
p562
sg9
S'0xd45'
p563
sg11
S'Flushing caches (mode 0)\n'
p564
sa(dp565
g2
S'3397'
p566
sg4
L1449716645778L
sg5
g120
sg7
S'BufferQueue'
p567
sg9
S'0xd45'
p568
sg11
S'[unnamed-3397-11](this:0x691f4b58,id:11,api:0,p:-1,c:3397) setDefaultBufferSize: w=480, h=762\n'
p569
sa(dp570
g2
S'3397'
p571
sg4
L1449716645785L
sg5
g146
sg7
S'AwContents'
p572
sg9
S'0xd45'
p573
sg11
S'nativeOnDraw failed; clearing to background color.\n'
p574
sa(dp575
g2
S'3397'
p576
sg4
L1449716645786L
sg5
g6
sg7
S'OpenGLRenderer'
p577
sg9
S'0xd45'
p578
sg11
S'prepareDirty (0.00, 0.00, 480.00, 800.00) opaque 1 <0x6a42d6d0>\n'
p579
sa(dp580
g2
S'3397'
p581
sg4
L1449716645786L
sg5
g6
sg7
S'OpenGLRenderer'
p582
sg9
S'0xd45'
p583
sg11
S'finish <0x6a42d6d0>\n'
p584
sa(dp585
g2
S'3397'
p586
sg4
L1449716645792L
sg5
g6
sg7
S'ActivityThread'
p587
sg9
S'0xd45'
p588
sg11
S'ACT-ACTIVITY_CONFIGURATION_CHANGED handled : 0 / android.os.BinderProxy@42eee088\n'
p589
sa(dp590
g2
S'3397'
p591
sg4
L1449716645823L
sg5
g6
sg7
S'OpenGLRenderer'
p592
sg9
S'0xd45'
p593
sg11
S'setViewport 800x480 <0x6a42d6d0>\n'
p594
sa(dp595
g2
S'3397'
p596
sg4
L1449716645823L
sg5
g6
sg7
S'GraphicBuffer'
p597
sg9
S'0xd45'
p598
sg11
S'close handle(0x68e35320) (w:480 h:800 f:1)\n'
p599
sa(dp600
g2
S'3397'
p601
sg4
L1449716645824L
sg5
g6
sg7
S'GraphicBuffer'
p602
sg9
S'0xd45'
p603
sg11
S'close handle(0x68e1d428) (w:480 h:800 f:1)\n'
p604
sa(dp605
g2
S'3397'
p606
sg4
L1449716645824L
sg5
g6
sg7
S'GraphicBuffer'
p607
sg9
S'0xd45'
p608
sg11
S'close handle(0x668422b8) (w:480 h:800 f:1)\n'
p609
sa(dp610
g2
S'3397'
p611
sg4
L1449716645824L
sg5
g6
sg7
S'GraphicBuffer'
p612
sg9
S'0xd45'
p613
sg11
S'close handle(0x66670e48) (w:480 h:800 f:1)\n'
p614
sa(dp615
g2
S'3397'
p616
sg4
L1449716645832L
sg5
g6
sg7
S'GraphicBuffer'
p617
sg9
S'0xd45'
p618
sg11
S'create handle(0x659499a0) (w:800, h:480, f:1)\n'
p619
sa(dp620
g2
S'3397'
p621
sg4
L1449716645833L
sg5
g120
sg7
S'MaliEGL '
p622
sg9
S'0xd45'
p623
sg11
S'[Mali]window_type=1, is_framebuffer=0, errnum = 0\n'
p624
sa(dp625
g2
S'3397'
p626
sg4
L1449716645833L
sg5
g120
sg7
S'MaliEGL '
p627
sg9
S'0xd45'
p628
sg11
S'[Mali]surface->num_buffers=4, surface->num_frames=3, win_min_undequeued=1\n'
p629
sa(dp630
g2
S'3397'
p631
sg4
L1449716645833L
sg5
g120
sg7
S'MaliEGL '
p632
sg9
S'0xd45'
p633
sg11
S'[Mali]max_allowed_dequeued_buffers=3\n'
p634
sa(dp635
g2
S'3397'
p636
sg4
L1449716645833L
sg5
g6
sg7
S'GraphicBuffer'
p637
sg9
S'0xd45'
p638
sg11
S'close handle(0x659499a0) (w:800 h:480 f:1)\n'
p639
sa(dp640
g2
S'3397'
p641
sg4
L1449716645836L
sg5
g6
sg7
S'GraphicBuffer'
p642
sg9
S'0xd45'
p643
sg11
S'create handle(0x65949718) (w:480, h:800, f:1)\n'
p644
sa(dp645
g2
S'3397'
p646
sg4
L1449716645838L
sg5
g120
sg7
S'BufferQueue'
p647
sg9
S'0xd45'
p648
sg11
S'[unnamed-3397-11](this:0x691f4b58,id:11,api:0,p:-1,c:3397) setDefaultBufferSize: w=800, h=442\n'
p649
sa(dp650
g2
S'3397'
p651
sg4
L1449716645841L
sg5
g146
sg7
S'AwContents'
p652
sg9
S'0xd45'
p653
sg11
S'nativeOnDraw failed; clearing to background color.\n'
p654
sa(dp655
g2
S'3397'
p656
sg4
L1449716645842L
sg5
g6
sg7
S'OpenGLRenderer'
p657
sg9
S'0xd45'
p658
sg11
S'prepareDirty (0.00, 0.00, 800.00, 480.00) opaque 1 <0x6a42d6d0>\n'
p659
sa(dp660
g2
S'3397'
p661
sg4
L1449716645844L
sg5
g6
sg7
S'OpenGLRenderer'
p662
sg9
S'0xd45'
p663
sg11
S'finish <0x6a42d6d0>\n'
p664
sa(dp665
g2
S'3397'
p666
sg4
L1449716645855L
sg5
g6
sg7
S'GraphicBuffer'
p667
sg9
S'0xd45'
p668
sg11
S'create handle(0x69020d48) (w:480, h:800, f:1)\n'
p669
sa(dp670
g2
S'3397'
p671
sg4
L1449716645857L
sg5
g6
sg7
S'OpenGLRenderer'
p672
sg9
S'0xd45'
p673
sg11
S'prepareDirty (0.00, 0.00, 800.00, 480.00) opaque 1 <0x6a42d6d0>\n'
p674
sa(dp675
g2
S'3397'
p676
sg4
L1449716645858L
sg5
g6
sg7
S'OpenGLRenderer'
p677
sg9
S'0xd45'
p678
sg11
S'finish <0x6a42d6d0>\n'
p679
sa(dp680
g2
S'3397'
p681
sg4
L1449716646011L
sg5
g120
sg7
S'dumpMemoryUsage'
p682
sg9
S'0xded'
p683
sg11
S'[WebViewImpl::updateLayerTreeViewport] [0x67d737b0] pageScaleFactor=[1.000000]\n'
p684
sa(dp685
g2
S'3397'
p686
sg4
L1449716646049L
sg5
g120
sg7
S'dumpMemoryUsage'
p687
sg9
S'0xded'
p688
sg11
S'[WebViewImpl::updateLayerTreeViewport] [0x67d737b0] pageScaleFactor=[1.000000]\n'
p689
sa(dp690
g2
S'3397'
p691
sg4
L1449716646051L
sg5
g6
sg7
S'WebViewCallback'
p692
sg9
S'0xd45'
p693
sg11
S'onProgressChanged=100\n'
p694
sa(dp695
g2
S'3397'
p696
sg4
L1449716646054L
sg5
g6
sg7
S'WebViewCallback'
p697
sg9
S'0xd45'
p698
sg11
S'onPageFinished=http://oa.paneng.cn:1143/se9200/graph/gshow.jsp?mRID=1130000148\n'
p699
sa(dp700
g2
S'3397'
p701
sg4
L1449716646054L
sg5
g146
sg7
S'chromium'
p702
sg9
S'0xd45'
p703
sg11
S'[WARNING:password_handler.cc(192)] OnPasswordFormsRendered called\n'
p704
sa(dp705
g2
S'3397'
p706
sg4
L1449716646054L
sg5
g6
sg7
S'AwPasswordHandler'
p707
sg9
S'0xd45'
p708
sg11
S'getSavePassword false\n'
p709
sa(dp710
g2
S'3397'
p711
sg4
L1449716646054L
sg5
g146
sg7
S'chromium'
p712
sg9
S'0xd45'
p713
sg11
S'[WARNING:aw_password_handler_delegate_impl.cc(201)] IsSavePasswordEnabled ret is \n'
p714
sa(dp715
g2
S'3397'
p716
sg4
L1449716646054L
sg5
g146
sg7
S'chromium'
p717
sg9
S'0xd45'
p718
sg11
S'[WARNING:password_handler.cc(194)] OnPasswordFormsRendered IsEnabledSavePassword is false\n'
p719
sa(dp720
g2
S'3397'
p721
sg4
L1449716646125L
sg5
g6
sg7
S'dalvikvm'
p722
sg9
S'0x1388'
p723
sg11
S'threadid=50: interp stack at 0x691a2000\n'
p724
sa(dp725
g2
S'3397'
p726
sg4
L1449716646283L
sg5
g6
sg7
S'WebViewCallback'
p727
sg9
S'0xde5'
p728
sg11
S'shouldInterceptRequest=http://oa.paneng.cn:1143/se9200/dwr/call/plaincall/se9200dwr.getFloatValues.dwr\n'
p729
sa(dp730
g2
S'3397'
p731
sg4
L1449716646283L
sg5
g6
sg7
S'WebViewCallback'
p732
sg9
S'0xd45'
p733
sg11
S'onLoadResource=http://oa.paneng.cn:1143/se9200/dwr/call/plaincall/se9200dwr.getFloatValues.dwr\n'
p734
sa(dp735
g2
S'3397'
p736
sg4
L1449716646435L
sg5
g6
sg7
S'dalvikvm'
p737
sg9
S'0x1389'
p738
sg11
S'threadid=51: interp stack at 0x69c83000\n'
p739
sa(dp740
g2
S'3397'
p741
sg4
L1449716646449L
sg5
g6
sg7
S'GraphicBuffer'
p742
sg9
S'0xd45'
p743
sg11
S'create handle(0x67fc1268) (w:480, h:800, f:1)\n'
p744
sa(dp745
g2
S'3397'
p746
sg4
L1449716646451L
sg5
g6
sg7
S'OpenGLRenderer'
p747
sg9
S'0xd45'
p748
sg11
S'prepareDirty (0.00, 0.00, 800.00, 480.00) opaque 1 <0x6a42d6d0>\n'
p749
sa(dp750
g2
S'3397'
p751
sg4
L1449716646492L
sg5
g120
sg7
S'GraphicBuffer'
p752
sg9
S'0xd45'
p753
sg11
S'allocate buffer (w:384 h:384 f:1) handle(0x69c81458) err(0)\n'
p754
sa(dp755
g2
S'3397'
p756
sg4
L1449716646493L
sg5
g120
sg7
S'GraphicBuffer'
p757
sg9
S'0xd45'
p758
sg11
S'allocate buffer (w:384 h:384 f:1) handle(0x68a756c8) err(0)\n'
p759
sa(dp760
g2
S'3397'
p761
sg4
L1449716646494L
sg5
g120
sg7
S'GraphicBuffer'
p762
sg9
S'0xd45'
p763
sg11
S'allocate buffer (w:384 h:384 f:1) handle(0x69cb8540) err(0)\n'
p764
sa(dp765
g2
S'3397'
p766
sg4
L1449716646495L
sg5
g120
sg7
S'GraphicBuffer'
p767
sg9
S'0xd45'
p768
sg11
S'allocate buffer (w:384 h:384 f:1) handle(0x693ae440) err(0)\n'
p769
sa(dp770
g2
S'3397'
p771
sg4
L1449716646496L
sg5
g120
sg7
S'GraphicBuffer'
p772
sg9
S'0xd45'
p773
sg11
S'allocate buffer (w:64 h:128 f:1) handle(0x693c0c80) err(0)\n'
p774
sa(dp775
g2
S'3397'
p776
sg4
L1449716646498L
sg5
g6
sg7
S'OpenGLRenderer'
p777
sg9
S'0xd45'
p778
sg11
S'finish <0x6a42d6d0>\n'
p779
sa(dp780
g2
S'3397'
p781
sg4
L1449716646505L
sg5
g6
sg7
S'GraphicBuffer'
p782
sg9
S'0xd45'
p783
sg11
S'create handle(0x6907fed8) (w:480, h:800, f:1)\n'
p784
sa(dp785
g2
S'3397'
p786
sg4
L1449716646506L
sg5
g6
sg7
S'OpenGLRenderer'
p787
sg9
S'0xd45'
p788
sg11
S'prepareDirty (0.00, 0.00, 800.00, 480.00) opaque 1 <0x6a42d6d0>\n'
p789
sa(dp790
g2
S'3397'
p791
sg4
L1449716646508L
sg5
g6
sg7
S'OpenGLRenderer'
p792
sg9
S'0xd45'
p793
sg11
S'finish <0x6a42d6d0>\n'
p794
sa(dp795
g2
S'3397'
p796
sg4
L1449716646510L
sg5
g6
sg7
S'OpenGLRenderer'
p797
sg9
S'0xd45'
p798
sg11
S'prepareDirty (0.00, 0.00, 800.00, 480.00) opaque 1 <0x6a42d6d0>\n'
p799
sa(dp800
g2
S'3397'
p801
sg4
L1449716646513L
sg5
g6
sg7
S'OpenGLRenderer'
p802
sg9
S'0xd45'
p803
sg11
S'finish <0x6a42d6d0>\n'
p804
sa(dp805
g2
S'3397'
p806
sg4
L1449716646527L
sg5
g6
sg7
S'OpenGLRenderer'
p807
sg9
S'0xd45'
p808
sg11
S'prepareDirty (0.00, 0.00, 800.00, 480.00) opaque 1 <0x6a42d6d0>\n'
p809
sa(dp810
g2
S'3397'
p811
sg4
L1449716646530L
sg5
g6
sg7
S'OpenGLRenderer'
p812
sg9
S'0xd45'
p813
sg11
S'finish <0x6a42d6d0>\n'
p814
sa(dp815
g2
S'3397'
p816
sg4
L1449716646543L
sg5
g6
sg7
S'OpenGLRenderer'
p817
sg9
S'0xd45'
p818
sg11
S'prepareDirty (0.00, 0.00, 800.00, 480.00) opaque 1 <0x6a42d6d0>\n'
p819
sa(dp820
g2
S'3397'
p821
sg4
L1449716646546L
sg5
g6
sg7
S'OpenGLRenderer'
p822
sg9
S'0xd45'
p823
sg11
S'finish <0x6a42d6d0>\n'
p824
sa(dp825
g2
S'3397'
p826
sg4
L1449716646558L
sg5
g6
sg7
S'OpenGLRenderer'
p827
sg9
S'0xd45'
p828
sg11
S'prepareDirty (0.00, 0.00, 800.00, 480.00) opaque 1 <0x6a42d6d0>\n'
p829
sa(dp830
g2
S'3397'
p831
sg4
L1449716646560L
sg5
g6
sg7
S'OpenGLRenderer'
p832
sg9
S'0xd45'
p833
sg11
S'finish <0x6a42d6d0>\n'
p834
sa(dp835
g2
S'3397'
p836
sg4
L1449716646574L
sg5
g6
sg7
S'OpenGLRenderer'
p837
sg9
S'0xd45'
p838
sg11
S'prepareDirty (0.00, 0.00, 800.00, 480.00) opaque 1 <0x6a42d6d0>\n'
p839
sa(dp840
g2
S'3397'
p841
sg4
L1449716646578L
sg5
g6
sg7
S'OpenGLRenderer'
p842
sg9
S'0xd45'
p843
sg11
S'finish <0x6a42d6d0>\n'
p844
sa(dp845
g2
S'3397'
p846
sg4
L1449716646590L
sg5
g6
sg7
S'OpenGLRenderer'
p847
sg9
S'0xd45'
p848
sg11
S'prepareDirty (0.00, 0.00, 800.00, 480.00) opaque 1 <0x6a42d6d0>\n'
p849
sa(dp850
g2
S'3397'
p851
sg4
L1449716646592L
sg5
g6
sg7
S'OpenGLRenderer'
p852
sg9
S'0xd45'
p853
sg11
S'finish <0x6a42d6d0>\n'
p854
sa(dp855
g2
S'3397'
p856
sg4
L1449716646605L
sg5
g6
sg7
S'OpenGLRenderer'
p857
sg9
S'0xd45'
p858
sg11
S'prepareDirty (0.00, 0.00, 800.00, 480.00) opaque 1 <0x6a42d6d0>\n'
p859
sa(dp860
g2
S'3397'
p861
sg4
L1449716646608L
sg5
g6
sg7
S'OpenGLRenderer'
p862
sg9
S'0xd45'
p863
sg11
S'finish <0x6a42d6d0>\n'
p864
sa(dp865
g2
S'3397'
p866
sg4
L1449716646621L
sg5
g6
sg7
S'OpenGLRenderer'
p867
sg9
S'0xd45'
p868
sg11
S'prepareDirty (0.00, 0.00, 800.00, 480.00) opaque 1 <0x6a42d6d0>\n'
p869
sa(dp870
g2
S'3397'
p871
sg4
L1449716646624L
sg5
g6
sg7
S'OpenGLRenderer'
p872
sg9
S'0xd45'
p873
sg11
S'finish <0x6a42d6d0>\n'
p874
sa(dp875
g2
S'3397'
p876
sg4
L1449716646636L
sg5
g6
sg7
S'OpenGLRenderer'
p877
sg9
S'0xd45'
p878
sg11
S'prepareDirty (0.00, 0.00, 800.00, 480.00) opaque 1 <0x6a42d6d0>\n'
p879
sa(dp880
g2
S'3397'
p881
sg4
L1449716646638L
sg5
g6
sg7
S'OpenGLRenderer'
p882
sg9
S'0xd45'
p883
sg11
S'finish <0x6a42d6d0>\n'
p884
sa(dp885
g2
S'3397'
p886
sg4
L1449716646652L
sg5
g6
sg7
S'OpenGLRenderer'
p887
sg9
S'0xd45'
p888
sg11
S'prepareDirty (0.00, 0.00, 800.00, 480.00) opaque 1 <0x6a42d6d0>\n'
p889
sa(dp890
g2
S'3397'
p891
sg4
L1449716646655L
sg5
g6
sg7
S'OpenGLRenderer'
p892
sg9
S'0xd45'
p893
sg11
S'finish <0x6a42d6d0>\n'
p894
sa(dp895
g2
S'3397'
p896
sg4
L1449716646669L
sg5
g6
sg7
S'OpenGLRenderer'
p897
sg9
S'0xd45'
p898
sg11
S'prepareDirty (0.00, 0.00, 800.00, 480.00) opaque 1 <0x6a42d6d0>\n'
p899
sa(dp900
g2
S'3397'
p901
sg4
L1449716646674L
sg5
g6
sg7
S'OpenGLRenderer'
p902
sg9
S'0xd45'
p903
sg11
S'finish <0x6a42d6d0>\n'
p904
sa(dp905
g2
S'3397'
p906
sg4
L1449716646684L
sg5
g6
sg7
S'OpenGLRenderer'
p907
sg9
S'0xd45'
p908
sg11
S'prepareDirty (0.00, 0.00, 800.00, 480.00) opaque 1 <0x6a42d6d0>\n'
p909
sa(dp910
g2
S'3397'
p911
sg4
L1449716646687L
sg5
g6
sg7
S'OpenGLRenderer'
p912
sg9
S'0xd45'
p913
sg11
S'finish <0x6a42d6d0>\n'
p914
sa(dp915
g2
S'3397'
p916
sg4
L1449716646699L
sg5
g6
sg7
S'OpenGLRenderer'
p917
sg9
S'0xd45'
p918
sg11
S'prepareDirty (0.00, 0.00, 800.00, 480.00) opaque 1 <0x6a42d6d0>\n'
p919
sa(dp920
g2
S'3397'
p921
sg4
L1449716646702L
sg5
g6
sg7
S'OpenGLRenderer'
p922
sg9
S'0xd45'
p923
sg11
S'finish <0x6a42d6d0>\n'
p924
sa(dp925
g2
S'3397'
p926
sg4
L1449716646715L
sg5
g6
sg7
S'OpenGLRenderer'
p927
sg9
S'0xd45'
p928
sg11
S'prepareDirty (0.00, 0.00, 800.00, 480.00) opaque 1 <0x6a42d6d0>\n'
p929
sa(dp930
g2
S'3397'
p931
sg4
L1449716646718L
sg5
g6
sg7
S'OpenGLRenderer'
p932
sg9
S'0xd45'
p933
sg11
S'finish <0x6a42d6d0>\n'
p934
sa(dp935
g2
S'3397'
p936
sg4
L1449716646731L
sg5
g6
sg7
S'OpenGLRenderer'
p937
sg9
S'0xd45'
p938
sg11
S'prepareDirty (0.00, 0.00, 800.00, 480.00) opaque 1 <0x6a42d6d0>\n'
p939
sa(dp940
g2
S'3397'
p941
sg4
L1449716646733L
sg5
g6
sg7
S'OpenGLRenderer'
p942
sg9
S'0xd45'
p943
sg11
S'finish <0x6a42d6d0>\n'
p944
sa(dp945
g2
S'3397'
p946
sg4
L1449716646747L
sg5
g6
sg7
S'OpenGLRenderer'
p947
sg9
S'0xd45'
p948
sg11
S'prepareDirty (0.00, 0.00, 800.00, 480.00) opaque 1 <0x6a42d6d0>\n'
p949
sa(dp950
g2
S'3397'
p951
sg4
L1449716646750L
sg5
g6
sg7
S'OpenGLRenderer'
p952
sg9
S'0xd45'
p953
sg11
S'finish <0x6a42d6d0>\n'
p954
sa(dp955
g2
S'3397'
p956
sg4
L1449716646764L
sg5
g6
sg7
S'OpenGLRenderer'
p957
sg9
S'0xd45'
p958
sg11
S'prepareDirty (0.00, 0.00, 800.00, 480.00) opaque 1 <0x6a42d6d0>\n'
p959
sa(dp960
g2
S'3397'
p961
sg4
L1449716646767L
sg5
g6
sg7
S'OpenGLRenderer'
p962
sg9
S'0xd45'
p963
sg11
S'finish <0x6a42d6d0>\n'
p964
sa(dp965
g2
S'3397'
p966
sg4
L1449716646778L
sg5
g6
sg7
S'OpenGLRenderer'
p967
sg9
S'0xd45'
p968
sg11
S'prepareDirty (0.00, 0.00, 800.00, 480.00) opaque 1 <0x6a42d6d0>\n'
p969
sa(dp970
g2
S'3397'
p971
sg4
L1449716646789L
sg5
g6
sg7
S'OpenGLRenderer'
p972
sg9
S'0xd45'
p973
sg11
S'finish <0x6a42d6d0>\n'
p974
sa(dp975
g2
S'3397'
p976
sg4
L1449716646794L
sg5
g6
sg7
S'OpenGLRenderer'
p977
sg9
S'0xd45'
p978
sg11
S'prepareDirty (0.00, 0.00, 800.00, 480.00) opaque 1 <0x6a42d6d0>\n'
p979
sa(dp980
g2
S'3397'
p981
sg4
L1449716646797L
sg5
g6
sg7
S'OpenGLRenderer'
p982
sg9
S'0xd45'
p983
sg11
S'finish <0x6a42d6d0>\n'
p984
sa(dp985
g2
S'3397'
p986
sg4
L1449716646812L
sg5
g6
sg7
S'OpenGLRenderer'
p987
sg9
S'0xd45'
p988
sg11
S'prepareDirty (0.00, 0.00, 800.00, 480.00) opaque 1 <0x6a42d6d0>\n'
p989
sa(dp990
g2
S'3397'
p991
sg4
L1449716646815L
sg5
g6
sg7
S'OpenGLRenderer'
p992
sg9
S'0xd45'
p993
sg11
S'finish <0x6a42d6d0>\n'
p994
sa(dp995
g2
S'3397'
p996
sg4
L1449716646825L
sg5
g6
sg7
S'OpenGLRenderer'
p997
sg9
S'0xd45'
p998
sg11
S'prepareDirty (0.00, 0.00, 800.00, 480.00) opaque 1 <0x6a42d6d0>\n'
p999
sa(dp1000
g2
S'3397'
p1001
sg4
L1449716646831L
sg5
g6
sg7
S'OpenGLRenderer'
p1002
sg9
S'0xd45'
p1003
sg11
S'finish <0x6a42d6d0>\n'
p1004
sa(dp1005
g2
S'3397'
p1006
sg4
L1449716646939L
sg5
g120
sg7
S'GraphicBuffer'
p1007
sg9
S'0xd45'
p1008
sg11
S'allocate buffer (w:384 h:384 f:1) handle(0x5cfdbc88) err(0)\n'
p1009
sa(dp1010
g2
S'3397'
p1011
sg4
L1449716646939L
sg5
g120
sg7
S'GraphicBuffer'
p1012
sg9
S'0xd45'
p1013
sg11
S'allocate buffer (w:384 h:384 f:1) handle(0x60f6ccd8) err(0)\n'
p1014
sa(dp1015
g2
S'3397'
p1016
sg4
L1449716646940L
sg5
g120
sg7
S'GraphicBuffer'
p1017
sg9
S'0xd45'
p1018
sg11
S'allocate buffer (w:384 h:384 f:1) handle(0x63718960) err(0)\n'
p1019
sa(dp1020
g2
S'3397'
p1021
sg4
L1449716646940L
sg5
g120
sg7
S'GraphicBuffer'
p1022
sg9
S'0xd45'
p1023
sg11
S'allocate buffer (w:384 h:384 f:1) handle(0x66822d98) err(0)\n'
p1024
sa(dp1025
g2
S'3397'
p1026
sg4
L1449716646940L
sg5
g120
sg7
S'GraphicBuffer'
p1027
sg9
S'0xd45'
p1028
sg11
S'allocate buffer (w:64 h:128 f:1) handle(0x65a41d18) err(0)\n'
p1029
sa(dp1030
g2
S'3397'
p1031
sg4
L1449716646952L
sg5
g6
sg7
S'OpenGLRenderer'
p1032
sg9
S'0xd45'
p1033
sg11
S'prepareDirty (0.00, 0.00, 800.00, 480.00) opaque 1 <0x6a42d6d0>\n'
p1034
sa(dp1035
g2
S'3397'
p1036
sg4
L1449716646955L
sg5
g6
sg7
S'OpenGLRenderer'
p1037
sg9
S'0xd45'
p1038
sg11
S'finish <0x6a42d6d0>\n'
p1039
sa(dp1040
g2
S'3397'
p1041
sg4
L1449716646975L
sg5
g120
sg7
S'dumpMemoryUsage'
p1042
sg9
S'0xded'
p1043
sg11
S'[WebViewImpl::updateLayerTreeViewport] [0x67d737b0] pageScaleFactor=[1.000000]\n'
p1044
sa(dp1045
g2
S'3397'
p1046
sg4
L1449716646999L
sg5
g6
sg7
S'OpenGLRenderer'
p1047
sg9
S'0xd45'
p1048
sg11
S'prepareDirty (0.00, 0.00, 800.00, 480.00) opaque 1 <0x6a42d6d0>\n'
p1049
sa(dp1050
g2
S'3397'
p1051
sg4
L1449716647003L
sg5
g6
sg7
S'OpenGLRenderer'
p1052
sg9
S'0xd45'
p1053
sg11
S'finish <0x6a42d6d0>\n'
p1054
sa(dp1055
g2
S'3397'
p1056
sg4
L1449716647030L
sg5
g120
sg7
S'dumpMemoryUsage'
p1057
sg9
S'0xded'
p1058
sg11
S'[WebViewImpl::updateLayerTreeViewport] [0x67d737b0] pageScaleFactor=[1.000000]\n'
p1059
sa(dp1060
g2
S'3397'
p1061
sg4
L1449716647073L
sg5
g6
sg7
S'WebViewCallback'
p1062
sg9
S'0xde5'
p1063
sg11
S'shouldInterceptRequest=http://oa.paneng.cn:1143/se9200/dwr/call/plaincall/se9200dwr.getFloatValues.dwr\n'
p1064
sa(dp1065
g2
S'3397'
p1066
sg4
L1449716647083L
sg5
g6
sg7
S'WebViewCallback'
p1067
sg9
S'0xde5'
p1068
sg11
S'shouldInterceptRequest=http://oa.paneng.cn:1143/se9200/dwr/call/plaincall/se9200dwr.getFloatValues.dwr\n'
p1069
sa(dp1070
g2
S'3397'
p1071
sg4
L1449716647131L
sg5
g6
sg7
S'WebViewCallback'
p1072
sg9
S'0xd45'
p1073
sg11
S'onLoadResource=http://oa.paneng.cn:1143/se9200/dwr/call/plaincall/se9200dwr.getFloatValues.dwr\n'
p1074
sa(dp1075
g2
S'3397'
p1076
sg4
L1449716647140L
sg5
g6
sg7
S'OpenGLRenderer'
p1077
sg9
S'0xd45'
p1078
sg11
S'prepareDirty (0.00, 0.00, 800.00, 480.00) opaque 1 <0x6a42d6d0>\n'
p1079
sa(dp1080
g2
S'3397'
p1081
sg4
L1449716647142L
sg5
g6
sg7
S'OpenGLRenderer'
p1082
sg9
S'0xd45'
p1083
sg11
S'finish <0x6a42d6d0>\n'
p1084
sa(dp1085
g2
S'3397'
p1086
sg4
L1449716647145L
sg5
g120
sg7
S'GraphicBuffer'
p1087
sg9
S'0xd45'
p1088
sg11
S'allocate buffer (w:384 h:384 f:1) handle(0x67f8bf68) err(0)\n'
p1089
sa(dp1090
g2
S'3397'
p1091
sg4
L1449716647146L
sg5
g120
sg7
S'GraphicBuffer'
p1092
sg9
S'0xd45'
p1093
sg11
S'allocate buffer (w:384 h:384 f:1) handle(0x690df770) err(0)\n'
p1094
sa(dp1095
g2
S'3397'
p1096
sg4
L1449716647147L
sg5
g120
sg7
S'GraphicBuffer'
p1097
sg9
S'0xd45'
p1098
sg11
S'allocate buffer (w:128 h:64 f:1) handle(0x62823df0) err(0)\n'
p1099
sa(dp1100
g2
S'3397'
p1101
sg4
L1449716647281L
sg5
g6
sg7
S'OpenGLRenderer'
p1102
sg9
S'0xd45'
p1103
sg11
S'prepareDirty (0.00, 0.00, 800.00, 480.00) opaque 1 <0x6a42d6d0>\n'
p1104
sa(dp1105
g2
S'3397'
p1106
sg4
L1449716647285L
sg5
g6
sg7
S'OpenGLRenderer'
p1107
sg9
S'0xd45'
p1108
sg11
S'finish <0x6a42d6d0>\n'
p1109
sa(dp1110
g2
S'3397'
p1111
sg4
L1449716649430L
sg5
g6
sg7
S'WebViewCallback'
p1112
sg9
S'0xde5'
p1113
sg11
S'shouldInterceptRequest=http://oa.paneng.cn:1143/se9200/dwr/call/plaincall/se9200dwr.getFloatValues.dwr\n'
p1114
sa(dp1115
g2
S'3397'
p1116
sg4
L1449716649430L
sg5
g6
sg7
S'WebViewCallback'
p1117
sg9
S'0xd45'
p1118
sg11
S'onLoadResource=http://oa.paneng.cn:1143/se9200/dwr/call/plaincall/se9200dwr.getFloatValues.dwr\n'
p1119
sa(dp1120
g2
S'3397'
p1121
sg4
L1449716649629L
sg5
g6
sg7
S'dalvikvm'
p1122
sg9
S'0xd45'
p1123
sg11
S'GC_FOR_ALLOC freed 4428K (25066), 34% free 14572K/22008K, paused 57ms, total 57ms\n'
p1124
sa(dp1125
g2
S'3397'
p1126
sg4
L1449716649661L
sg5
g120
sg7
S'System.out'
p1127
sg9
S'0xd94'
p1128
sg11
S'mkdir failed: EEXIST (File exists) path = /sdcard/kikbuglog\n'
p1129
sa(dp1130
g2
S'3397'
p1131
sg4
L1449716649792L
sg5
g6
sg7
S'cn.edu.nju.ise.kikandroid'
p1132
sg9
S'0xd7d'
p1133
sg11
S'Screenshot:1449716649566\n'
p1134
sa(dp1135
g2
S'3397'
p1136
sg4
L1449716649793L
sg5
g120
sg7
S'System.out'
p1137
sg9
S'0xd7d'
p1138
sg11
S'[CDS]close[10737]\n'
p1139
sa(dp1140
g2
S'3397'
p1141
sg4
L1449716649794L
sg5
g120
sg7
S'System.out'
p1142
sg9
S'0xd7d'
p1143
sg11
S'close [socket][/0.0.0.0:10737]\n'
p1144
sa(dp1145
g2
S'3397'
p1146
sg4
L1449716649878L
sg5
g6
sg7
S'WebViewCallback'
p1147
sg9
S'0xde5'
p1148
sg11
S'shouldInterceptRequest=http://oa.paneng.cn:1143/se9200/dwr/call/plaincall/se9200dwr.getFloatValues.dwr\n'
p1149
sa(dp1150
g2
S'3397'
p1151
sg4
L1449716649879L
sg5
g6
sg7
S'WebViewCallback'
p1152
sg9
S'0xd45'
p1153
sg11
S'onLoadResource=http://oa.paneng.cn:1143/se9200/dwr/call/plaincall/se9200dwr.getFloatValues.dwr\n'
p1154
sa(dp1155
g2
S'3397'
p1156
sg4
L1449716649968L
sg5
g120
sg7
S'GraphicBuffer'
p1157
sg9
S'0xd45'
p1158
sg11
S'allocate buffer (w:384 h:384 f:1) handle(0x658235f0) err(0)\n'
p1159
sa(dp1160
g2
S'3397'
p1161
sg4
L1449716649969L
sg5
g120
sg7
S'GraphicBuffer'
p1162
sg9
S'0xd45'
p1163
sg11
S'allocate buffer (w:128 h:64 f:1) handle(0x67e5bc18) err(0)\n'
p1164
sa(dp1165
g2
S'3397'
p1166
sg4
L1449716650018L
sg5
g6
sg7
S'OpenGLRenderer'
p1167
sg9
S'0xd45'
p1168
sg11
S'prepareDirty (0.00, 0.00, 800.00, 480.00) opaque 1 <0x6a42d6d0>\n'
p1169
sa(dp1170
g2
S'3397'
p1171
sg4
L1449716650021L
sg5
g6
sg7
S'OpenGLRenderer'
p1172
sg9
S'0xd45'
p1173
sg11
S'finish <0x6a42d6d0>\n'
p1174
sa(dp1175
g2
S'3397'
p1176
sg4
L1449716650049L
sg5
g6
sg7
S'OpenGLRenderer'
p1177
sg9
S'0xd45'
p1178
sg11
S'prepareDirty (0.00, 0.00, 800.00, 480.00) opaque 1 <0x6a42d6d0>\n'
p1179
sa(dp1180
g2
S'3397'
p1181
sg4
L1449716650053L
sg5
g6
sg7
S'OpenGLRenderer'
p1182
sg9
S'0xd45'
p1183
sg11
S'finish <0x6a42d6d0>\n'
p1184
sa(dp1185
g2
S'3397'
p1186
sg4
L1449716650063L
sg5
g6
sg7
S'OpenGLRenderer'
p1187
sg9
S'0xd45'
p1188
sg11
S'prepareDirty (0.00, 0.00, 800.00, 480.00) opaque 1 <0x6a42d6d0>\n'
p1189
sa(dp1190
g2
S'3397'
p1191
sg4
L1449716650065L
sg5
g6
sg7
S'OpenGLRenderer'
p1192
sg9
S'0xd45'
p1193
sg11
S'finish <0x6a42d6d0>\n'
p1194
sa(dp1195
g2
S'3397'
p1196
sg4
L1449716650181L
sg5
g6
sg7
S'WebViewCallback'
p1197
sg9
S'0xde5'
p1198
sg11
S'shouldInterceptRequest=http://oa.paneng.cn:1143/se9200/dwr/call/plaincall/se9200dwr.getFloatValues.dwr\n'
p1199
sa(dp1200
g2
S'3397'
p1201
sg4
L1449716650182L
sg5
g6
sg7
S'WebViewCallback'
p1202
sg9
S'0xd45'
p1203
sg11
S'onLoadResource=http://oa.paneng.cn:1143/se9200/dwr/call/plaincall/se9200dwr.getFloatValues.dwr\n'
p1204
sa(dp1205
g2
S'3397'
p1206
sg4
L1449716650190L
sg5
g6
sg7
S'WebViewCallback'
p1207
sg9
S'0xde5'
p1208
sg11
S'shouldInterceptRequest=http://oa.paneng.cn:1143/se9200/dwr/call/plaincall/se9200dwr.getFloatValues.dwr\n'
p1209
sa(dp1210
g2
S'3397'
p1211
sg4
L1449716650190L
sg5
g6
sg7
S'WebViewCallback'
p1212
sg9
S'0xd45'
p1213
sg11
S'onLoadResource=http://oa.paneng.cn:1143/se9200/dwr/call/plaincall/se9200dwr.getFloatValues.dwr\n'
p1214
sa(dp1215
g2
S'3397'
p1216
sg4
L1449716651956L
sg5
g6
sg7
S'MotionEvent-JNI'
p1217
sg9
S'0xd45'
p1218
sg11
S'nativeGetAxisValue pointerIndex=0, pointerCount=1\n'
p1219
sa(dp1220
g2
S'3397'
p1221
sg4
L1449716651957L
sg5
g6
sg7
S'MotionEvent-JNI'
p1222
sg9
S'0xd45'
p1223
sg11
S'nativeGetAxisValue pointerIndex=0, pointerCount=1\n'
p1224
sa(dp1225
g2
S'3397'
p1226
sg4
L1449716651957L
sg5
g120
sg7
S'View    '
p1227
sg9
S'0xd45'
p1228
sg11
S'Touch down dispatch to com.example.myfristandroid.MyWebView{4209a168 VFEDHVC. .F...... 0,0-800,442 #7f080022 app:id/id_view_graphWebview}, event = MotionEvent { action=ACTION_DOWN, id[0]=0, x[0]=619.22595, y[0]=318.25778, toolType[0]=TOOL_TYPE_FINGER, buttonState=0, metaState=0, flags=0x0, edgeFlags=0x0, pointerCount=1, historySize=0, eventTime=22080733, downTime=22080733, deviceId=3, source=0x1002 }\n'
p1229
sa(dp1230
g2
S'3397'
p1231
sg4
L1449716651962L
sg5
g6
sg7
S'MotionEvent-JNI'
p1232
sg9
S'0xd45'
p1233
sg11
S'nativeGetAxisValue pointerIndex=0, pointerCount=1\n'
p1234
sa(dp1235
g2
S'3397'
p1236
sg4
L1449716651963L
sg5
g6
sg7
S'MotionEvent-JNI'
p1237
sg9
S'0xd45'
p1238
sg11
S'nativeGetAxisValue pointerIndex=0, pointerCount=1\n'
p1239
sa(dp1240
g2
S'3397'
p1241
sg4
L1449716651964L
sg5
g6
sg7
S'MotionEvent-JNI'
p1242
sg9
S'0xd45'
p1243
sg11
S'nativeGetAxisValue pointerIndex=0, pointerCount=1\n'
p1244
sa(dp1245
g2
S'3397'
p1246
sg4
L1449716651975L
sg5
g6
sg7
S'MotionEvent-JNI'
p1247
sg9
S'0xd45'
p1248
sg11
S'nativeGetAxisValue pointerIndex=0, pointerCount=1\n'
p1249
sa(dp1250
g2
S'3397'
p1251
sg4
L1449716651976L
sg5
g6
sg7
S'MotionEvent-JNI'
p1252
sg9
S'0xd45'
p1253
sg11
S'nativeGetAxisValue pointerIndex=0, pointerCount=1\n'
p1254
sa(dp1255
g2
S'3397'
p1256
sg4
L1449716651979L
sg5
g6
sg7
S'VelocityTracker'
p1257
sg9
S'0xd45'
p1258
sg11
S"Couldn't open '/dev/touch' (Permission denied)\n"
p1259
sa(dp1260
g2
S'3397'
p1261
sg4
L1449716651979L
sg5
g6
sg7
S'VelocityTracker'
p1262
sg9
S'0xd45'
p1263
sg11
S'tpd read x fail: Bad file number\n'
p1264
sa(dp1265
g2
S'3397'
p1266
sg4
L1449716651979L
sg5
g6
sg7
S'VelocityTracker'
p1267
sg9
S'0xd45'
p1268
sg11
S'tpd read y fail: Bad file number\n'
p1269
sa(dp1270
g2
S'3397'
p1271
sg4
L1449716651979L
sg5
g6
sg7
S'MotionEvent-JNI'
p1272
sg9
S'0xd45'
p1273
sg11
S'nativeGetAxisValue pointerIndex=0, pointerCount=1\n'
p1274
sa(dp1275
g2
S'3397'
p1276
sg4
L1449716651990L
sg5
g6
sg7
S'MotionEvent-JNI'
p1277
sg9
S'0xd45'
p1278
sg11
S'nativeGetAxisValue pointerIndex=0, pointerCount=1\n'
p1279
sa(dp1280
g2
S'3397'
p1281
sg4
L1449716652001L
sg5
g6
sg7
S'MotionEvent-JNI'
p1282
sg9
S'0xd45'
p1283
sg11
S'nativeGetAxisValue pointerIndex=0, pointerCount=1\n'
p1284
sa(dp1285
g2
S'3397'
p1286
sg4
L1449716652006L
sg5
g6
sg7
S'MotionEvent-JNI'
p1287
sg9
S'0xd45'
p1288
sg11
S'nativeGetAxisValue pointerIndex=0, pointerCount=1\n'
p1289
sa(dp1290
g2
S'3397'
p1291
sg4
L1449716652007L
sg5
g6
sg7
S'MotionEvent-JNI'
p1292
sg9
S'0xd45'
p1293
sg11
S'nativeGetAxisValue pointerIndex=0, pointerCount=1\n'
p1294
sa(dp1295
g2
S'3397'
p1296
sg4
L1449716652010L
sg5
g6
sg7
S'MotionEvent-JNI'
p1297
sg9
S'0xd45'
p1298
sg11
S'nativeGetAxisValue pointerIndex=0, pointerCount=1\n'
p1299
sa(dp1300
g2
S'3397'
p1301
sg4
L1449716652011L
sg5
g6
sg7
S'MotionEvent-JNI'
p1302
sg9
S'0xd45'
p1303
sg11
S'nativeGetAxisValue pointerIndex=0, pointerCount=1\n'
p1304
sa(dp1305
g2
S'3397'
p1306
sg4
L1449716652022L
sg5
g6
sg7
S'MotionEvent-JNI'
p1307
sg9
S'0xd45'
p1308
sg11
S'nativeGetAxisValue pointerIndex=0, pointerCount=1\n'
p1309
sa(dp1310
g2
S'3397'
p1311
sg4
L1449716652025L
sg5
g6
sg7
S'MotionEvent-JNI'
p1312
sg9
S'0xd45'
p1313
sg11
S'nativeGetAxisValue pointerIndex=0, pointerCount=1\n'
p1314
sa(dp1315
g2
S'3397'
p1316
sg4
L1449716652037L
sg5
g6
sg7
S'MotionEvent-JNI'
p1317
sg9
S'0xd45'
p1318
sg11
S'nativeGetAxisValue pointerIndex=0, pointerCount=1\n'
p1319
sa(dp1320
g2
S'3397'
p1321
sg4
L1449716652038L
sg5
g6
sg7
S'MotionEvent-JNI'
p1322
sg9
S'0xd45'
p1323
sg11
S'nativeGetAxisValue pointerIndex=0, pointerCount=1\n'
p1324
sa(dp1325
g2
S'3397'
p1326
sg4
L1449716652040L
sg5
g6
sg7
S'MotionEvent-JNI'
p1327
sg9
S'0xd45'
p1328
sg11
S'nativeGetAxisValue pointerIndex=0, pointerCount=1\n'
p1329
sa(dp1330
g2
S'3397'
p1331
sg4
L1449716652041L
sg5
g6
sg7
S'MotionEvent-JNI'
p1332
sg9
S'0xd45'
p1333
sg11
S'nativeGetAxisValue pointerIndex=0, pointerCount=1\n'
p1334
sa(dp1335
g2
S'3397'
p1336
sg4
L1449716652053L
sg5
g6
sg7
S'MotionEvent-JNI'
p1337
sg9
S'0xd45'
p1338
sg11
S'nativeGetAxisValue pointerIndex=0, pointerCount=1\n'
p1339
sa(dp1340
g2
S'3397'
p1341
sg4
L1449716652057L
sg5
g6
sg7
S'MotionEvent-JNI'
p1342
sg9
S'0xd45'
p1343
sg11
S'nativeGetAxisValue pointerIndex=0, pointerCount=1\n'
p1344
sa(dp1345
g2
S'3397'
p1346
sg4
L1449716652058L
sg5
g6
sg7
S'MotionEvent-JNI'
p1347
sg9
S'0xd45'
p1348
sg11
S'nativeGetAxisValue pointerIndex=0, pointerCount=1\n'
p1349
sa(dp1350
g2
S'3397'
p1351
sg4
L1449716652069L
sg5
g6
sg7
S'MotionEvent-JNI'
p1352
sg9
S'0xd45'
p1353
sg11
S'nativeGetAxisValue pointerIndex=0, pointerCount=1\n'
p1354
sa(dp1355
g2
S'3397'
p1356
sg4
L1449716652084L
sg5
g6
sg7
S'MotionEvent-JNI'
p1357
sg9
S'0xd45'
p1358
sg11
S'nativeGetAxisValue pointerIndex=0, pointerCount=1\n'
p1359
sa(dp1360
g2
S'3397'
p1361
sg4
L1449716652100L
sg5
g6
sg7
S'MotionEvent-JNI'
p1362
sg9
S'0xd45'
p1363
sg11
S'nativeGetAxisValue pointerIndex=0, pointerCount=1\n'
p1364
sa(dp1365
g2
S'3397'
p1366
sg4
L1449716652105L
sg5
g120
sg7
S'GraphicBuffer'
p1367
sg9
S'0xd45'
p1368
sg11
S'allocate buffer (w:384 h:384 f:1) handle(0x690d16a0) err(0)\n'
p1369
sa(dp1370
g2
S'3397'
p1371
sg4
L1449716652107L
sg5
g6
sg7
S'MotionEvent-JNI'
p1372
sg9
S'0xd45'
p1373
sg11
S'nativeGetAxisValue pointerIndex=0, pointerCount=1\n'
p1374
sa(dp1375
g2
S'3397'
p1376
sg4
L1449716652108L
sg5
g6
sg7
S'MotionEvent-JNI'
p1377
sg9
S'0xd45'
p1378
sg11
S'nativeGetAxisValue pointerIndex=0, pointerCount=1\n'
p1379
sa(dp1380
g2
S'3397'
p1381
sg4
L1449716652117L
sg5
g6
sg7
S'MotionEvent-JNI'
p1382
sg9
S'0xd45'
p1383
sg11
S'nativeGetAxisValue pointerIndex=0, pointerCount=1\n'
p1384
sa(dp1385
g2
S'3397'
p1386
sg4
L1449716652118L
sg5
g6
sg7
S'MotionEvent-JNI'
p1387
sg9
S'0xd45'
p1388
sg11
S'nativeGetAxisValue pointerIndex=0, pointerCount=1\n'
p1389
sa(dp1390
g2
S'3397'
p1391
sg4
L1449716652124L
sg5
g6
sg7
S'MotionEvent-JNI'
p1392
sg9
S'0xd45'
p1393
sg11
S'nativeGetAxisValue pointerIndex=0, pointerCount=1\n'
p1394
sa(dp1395
g2
S'3397'
p1396
sg4
L1449716652132L
sg5
g6
sg7
S'MotionEvent-JNI'
p1397
sg9
S'0xd45'
p1398
sg11
S'nativeGetAxisValue pointerIndex=0, pointerCount=1\n'
p1399
sa(dp1400
g2
S'3397'
p1401
sg4
L1449716652135L
sg5
g6
sg7
S'MotionEvent-JNI'
p1402
sg9
S'0xd45'
p1403
sg11
S'nativeGetAxisValue pointerIndex=0, pointerCount=1\n'
p1404
sa(dp1405
g2
S'3397'
p1406
sg4
L1449716652136L
sg5
g6
sg7
S'MotionEvent-JNI'
p1407
sg9
S'0xd45'
p1408
sg11
S'nativeGetAxisValue pointerIndex=0, pointerCount=1\n'
p1409
sa(dp1410
g2
S'3397'
p1411
sg4
L1449716652147L
sg5
g6
sg7
S'MotionEvent-JNI'
p1412
sg9
S'0xd45'
p1413
sg11
S'nativeGetAxisValue pointerIndex=0, pointerCount=1\n'
p1414
sa(dp1415
g2
S'3397'
p1416
sg4
L1449716652150L
sg5
g6
sg7
S'MotionEvent-JNI'
p1417
sg9
S'0xd45'
p1418
sg11
S'nativeGetAxisValue pointerIndex=0, pointerCount=1\n'
p1419
sa(dp1420
g2
S'3397'
p1421
sg4
L1449716652163L
sg5
g6
sg7
S'MotionEvent-JNI'
p1422
sg9
S'0xd45'
p1423
sg11
S'nativeGetAxisValue pointerIndex=0, pointerCount=1\n'
p1424
sa(dp1425
g2
S'3397'
p1426
sg4
L1449716652166L
sg5
g6
sg7
S'OpenGLRenderer'
p1427
sg9
S'0xd45'
p1428
sg11
S'prepareDirty (0.00, 0.00, 800.00, 480.00) opaque 1 <0x6a42d6d0>\n'
p1429
sa(dp1430
g2
S'3397'
p1431
sg4
L1449716652170L
sg5
g6
sg7
S'OpenGLRenderer'
p1432
sg9
S'0xd45'
p1433
sg11
S'finish <0x6a42d6d0>\n'
p1434
sa(dp1435
g2
S'3397'
p1436
sg4
L1449716652173L
sg5
g6
sg7
S'MotionEvent-JNI'
p1437
sg9
S'0xd45'
p1438
sg11
S'nativeGetAxisValue pointerIndex=0, pointerCount=1\n'
p1439
sa(dp1440
g2
S'3397'
p1441
sg4
L1449716652179L
sg5
g6
sg7
S'MotionEvent-JNI'
p1442
sg9
S'0xd45'
p1443
sg11
S'nativeGetAxisValue pointerIndex=0, pointerCount=1\n'
p1444
sa(dp1445
g2
S'3397'
p1446
sg4
L1449716652183L
sg5
g6
sg7
S'MotionEvent-JNI'
p1447
sg9
S'0xd45'
p1448
sg11
S'nativeGetAxisValue pointerIndex=0, pointerCount=1\n'
p1449
sa(dp1450
g2
S'3397'
p1451
sg4
L1449716652194L
sg5
g6
sg7
S'MotionEvent-JNI'
p1452
sg9
S'0xd45'
p1453
sg11
S'nativeGetAxisValue pointerIndex=0, pointerCount=1\n'
p1454
sa(dp1455
g2
S'3397'
p1456
sg4
L1449716652197L
sg5
g6
sg7
S'MotionEvent-JNI'
p1457
sg9
S'0xd45'
p1458
sg11
S'nativeGetAxisValue pointerIndex=0, pointerCount=1\n'
p1459
sa(dp1460
g2
S'3397'
p1461
sg4
L1449716652210L
sg5
g6
sg7
S'MotionEvent-JNI'
p1462
sg9
S'0xd45'
p1463
sg11
S'nativeGetAxisValue pointerIndex=0, pointerCount=1\n'
p1464
sa(dp1465
g2
S'3397'
p1466
sg4
L1449716652213L
sg5
g6
sg7
S'MotionEvent-JNI'
p1467
sg9
S'0xd45'
p1468
sg11
S'nativeGetAxisValue pointerIndex=0, pointerCount=1\n'
p1469
sa(dp1470
g2
S'3397'
p1471
sg4
L1449716652226L
sg5
g6
sg7
S'MotionEvent-JNI'
p1472
sg9
S'0xd45'
p1473
sg11
S'nativeGetAxisValue pointerIndex=0, pointerCount=1\n'
p1474
sa(dp1475
g2
S'3397'
p1476
sg4
L1449716652228L
sg5
g6
sg7
S'MotionEvent-JNI'
p1477
sg9
S'0xd45'
p1478
sg11
S'nativeGetAxisValue pointerIndex=0, pointerCount=1\n'
p1479
sa(dp1480
g2
S'3397'
p1481
sg4
L1449716652229L
sg5
g6
sg7
S'MotionEvent-JNI'
p1482
sg9
S'0xd45'
p1483
sg11
S'nativeGetAxisValue pointerIndex=0, pointerCount=1\n'
p1484
sa(dp1485
g2
S'3397'
p1486
sg4
L1449716652242L
sg5
g6
sg7
S'MotionEvent-JNI'
p1487
sg9
S'0xd45'
p1488
sg11
S'nativeGetAxisValue pointerIndex=0, pointerCount=1\n'
p1489
sa(dp1490
g2
S'3397'
p1491
sg4
L1449716652244L
sg5
g6
sg7
S'MotionEvent-JNI'
p1492
sg9
S'0xd45'
p1493
sg11
S'nativeGetAxisValue pointerIndex=0, pointerCount=1\n'
p1494
sa(dp1495
g2
S'3397'
p1496
sg4
L1449716652245L
sg5
g6
sg7
S'MotionEvent-JNI'
p1497
sg9
S'0xd45'
p1498
sg11
S'nativeGetAxisValue pointerIndex=0, pointerCount=1\n'
p1499
sa(dp1500
g2
S'3397'
p1501
sg4
L1449716652258L
sg5
g6
sg7
S'MotionEvent-JNI'
p1502
sg9
S'0xd45'
p1503
sg11
S'nativeGetAxisValue pointerIndex=0, pointerCount=1\n'
p1504
sa(dp1505
g2
S'3397'
p1506
sg4
L1449716652261L
sg5
g6
sg7
S'MotionEvent-JNI'
p1507
sg9
S'0xd45'
p1508
sg11
S'nativeGetAxisValue pointerIndex=0, pointerCount=1\n'
p1509
sa(dp1510
g2
S'3397'
p1511
sg4
L1449716652273L
sg5
g6
sg7
S'MotionEvent-JNI'
p1512
sg9
S'0xd45'
p1513
sg11
S'nativeGetAxisValue pointerIndex=0, pointerCount=1\n'
p1514
sa(dp1515
g2
S'3397'
p1516
sg4
L1449716652274L
sg5
g6
sg7
S'MotionEvent-JNI'
p1517
sg9
S'0xd45'
p1518
sg11
S'nativeGetAxisValue pointerIndex=0, pointerCount=1\n'
p1519
sa(dp1520
g2
S'3397'
p1521
sg4
L1449716652275L
sg5
g6
sg7
S'MotionEvent-JNI'
p1522
sg9
S'0xd45'
p1523
sg11
S'nativeGetAxisValue pointerIndex=0, pointerCount=1\n'
p1524
sa(dp1525
g2
S'3397'
p1526
sg4
L1449716652276L
sg5
g6
sg7
S'MotionEvent-JNI'
p1527
sg9
S'0xd45'
p1528
sg11
S'nativeGetAxisValue pointerIndex=0, pointerCount=1\n'
p1529
sa(dp1530
g2
S'3397'
p1531
sg4
L1449716652289L
sg5
g6
sg7
S'MotionEvent-JNI'
p1532
sg9
S'0xd45'
p1533
sg11
S'nativeGetAxisValue pointerIndex=0, pointerCount=1\n'
p1534
sa(dp1535
g2
S'3397'
p1536
sg4
L1449716652291L
sg5
g6
sg7
S'MotionEvent-JNI'
p1537
sg9
S'0xd45'
p1538
sg11
S'nativeGetAxisValue pointerIndex=0, pointerCount=1\n'
p1539
sa(dp1540
g2
S'3397'
p1541
sg4
L1449716652305L
sg5
g6
sg7
S'MotionEvent-JNI'
p1542
sg9
S'0xd45'
p1543
sg11
S'nativeGetAxisValue pointerIndex=0, pointerCount=1\n'
p1544
sa(dp1545
g2
S'3397'
p1546
sg4
L1449716652307L
sg5
g6
sg7
S'MotionEvent-JNI'
p1547
sg9
S'0xd45'
p1548
sg11
S'nativeGetAxisValue pointerIndex=0, pointerCount=1\n'
p1549
sa(dp1550
g2
S'3397'
p1551
sg4
L1449716652308L
sg5
g6
sg7
S'MotionEvent-JNI'
p1552
sg9
S'0xd45'
p1553
sg11
S'nativeGetAxisValue pointerIndex=0, pointerCount=1\n'
p1554
sa(dp1555
g2
S'3397'
p1556
sg4
L1449716652321L
sg5
g6
sg7
S'MotionEvent-JNI'
p1557
sg9
S'0xd45'
p1558
sg11
S'nativeGetAxisValue pointerIndex=0, pointerCount=1\n'
p1559
sa(dp1560
g2
S'3397'
p1561
sg4
L1449716652351L
sg5
g6
sg7
S'MotionEvent-JNI'
p1562
sg9
S'0xd45'
p1563
sg11
S'nativeGetAxisValue pointerIndex=0, pointerCount=1\n'
p1564
sa(dp1565
g2
S'3397'
p1566
sg4
L1449716652361L
sg5
g6
sg7
S'MotionEvent-JNI'
p1567
sg9
S'0xd45'
p1568
sg11
S'nativeGetAxisValue pointerIndex=0, pointerCount=1\n'
p1569
sa(dp1570
g2
S'3397'
p1571
sg4
L1449716652363L
sg5
g6
sg7
S'MotionEvent-JNI'
p1572
sg9
S'0xd45'
p1573
sg11
S'nativeGetAxisValue pointerIndex=0, pointerCount=1\n'
p1574
sa(dp1575
g2
S'3397'
p1576
sg4
L1449716652368L
sg5
g6
sg7
S'MotionEvent-JNI'
p1577
sg9
S'0xd45'
p1578
sg11
S'nativeGetAxisValue pointerIndex=0, pointerCount=1\n'
p1579
sa(dp1580
g2
S'3397'
p1581
sg4
L1449716652369L
sg5
g6
sg7
S'MotionEvent-JNI'
p1582
sg9
S'0xd45'
p1583
sg11
S'nativeGetAxisValue pointerIndex=0, pointerCount=1\n'
p1584
sa(dp1585
g2
S'3397'
p1586
sg4
L1449716652371L
sg5
g6
sg7
S'MotionEvent-JNI'
p1587
sg9
S'0xd45'
p1588
sg11
S'nativeGetAxisValue pointerIndex=0, pointerCount=1\n'
p1589
sa(dp1590
g2
S'3397'
p1591
sg4
L1449716652383L
sg5
g6
sg7
S'MotionEvent-JNI'
p1592
sg9
S'0xd45'
p1593
sg11
S'nativeGetAxisValue pointerIndex=0, pointerCount=1\n'
p1594
sa(dp1595
g2
S'3397'
p1596
sg4
L1449716652384L
sg5
g6
sg7
S'MotionEvent-JNI'
p1597
sg9
S'0xd45'
p1598
sg11
S'nativeGetAxisValue pointerIndex=0, pointerCount=1\n'
p1599
sa(dp1600
g2
S'3397'
p1601
sg4
L1449716652387L
sg5
g6
sg7
S'MotionEvent-JNI'
p1602
sg9
S'0xd45'
p1603
sg11
S'nativeGetAxisValue pointerIndex=0, pointerCount=1\n'
p1604
sa(dp1605
g2
S'3397'
p1606
sg4
L1449716652399L
sg5
g6
sg7
S'MotionEvent-JNI'
p1607
sg9
S'0xd45'
p1608
sg11
S'nativeGetAxisValue pointerIndex=0, pointerCount=1\n'
p1609
sa(dp1610
g2
S'3397'
p1611
sg4
L1449716652403L
sg5
g6
sg7
S'OpenGLRenderer'
p1612
sg9
S'0xd45'
p1613
sg11
S'prepareDirty (0.00, 0.00, 800.00, 480.00) opaque 1 <0x6a42d6d0>\n'
p1614
sa(dp1615
g2
S'3397'
p1616
sg4
L1449716652407L
sg5
g6
sg7
S'OpenGLRenderer'
p1617
sg9
S'0xd45'
p1618
sg11
S'finish <0x6a42d6d0>\n'
p1619
sa(dp1620
g2
S'3397'
p1621
sg4
L1449716652409L
sg5
g6
sg7
S'MotionEvent-JNI'
p1622
sg9
S'0xd45'
p1623
sg11
S'nativeGetAxisValue pointerIndex=0, pointerCount=1\n'
p1624
sa(dp1625
g2
S'3397'
p1626
sg4
L1449716652410L
sg5
g6
sg7
S'MotionEvent-JNI'
p1627
sg9
S'0xd45'
p1628
sg11
S'nativeGetAxisValue pointerIndex=0, pointerCount=1\n'
p1629
sa(dp1630
g2
S'3397'
p1631
sg4
L1449716652415L
sg5
g6
sg7
S'MotionEvent-JNI'
p1632
sg9
S'0xd45'
p1633
sg11
S'nativeGetAxisValue pointerIndex=0, pointerCount=1\n'
p1634
sa(dp1635
g2
S'3397'
p1636
sg4
L1449716652419L
sg5
g6
sg7
S'MotionEvent-JNI'
p1637
sg9
S'0xd45'
p1638
sg11
S'nativeGetAxisValue pointerIndex=0, pointerCount=1\n'
p1639
sa(dp1640
g2
S'3397'
p1641
sg4
L1449716652431L
sg5
g6
sg7
S'MotionEvent-JNI'
p1642
sg9
S'0xd45'
p1643
sg11
S'nativeGetAxisValue pointerIndex=0, pointerCount=1\n'
p1644
sa(dp1645
g2
S'3397'
p1646
sg4
L1449716652434L
sg5
g6
sg7
S'MotionEvent-JNI'
p1647
sg9
S'0xd45'
p1648
sg11
S'nativeGetAxisValue pointerIndex=0, pointerCount=1\n'
p1649
sa(dp1650
g2
S'3397'
p1651
sg4
L1449716652435L
sg5
g6
sg7
S'MotionEvent-JNI'
p1652
sg9
S'0xd45'
p1653
sg11
S'nativeGetAxisValue pointerIndex=0, pointerCount=1\n'
p1654
sa(dp1655
g2
S'3397'
p1656
sg4
L1449716652446L
sg5
g6
sg7
S'MotionEvent-JNI'
p1657
sg9
S'0xd45'
p1658
sg11
S'nativeGetAxisValue pointerIndex=0, pointerCount=1\n'
p1659
sa(dp1660
g2
S'3397'
p1661
sg4
L1449716652448L
sg5
g6
sg7
S'MotionEvent-JNI'
p1662
sg9
S'0xd45'
p1663
sg11
S'nativeGetAxisValue pointerIndex=0, pointerCount=1\n'
p1664
sa(dp1665
g2
S'3397'
p1666
sg4
L1449716652462L
sg5
g6
sg7
S'MotionEvent-JNI'
p1667
sg9
S'0xd45'
p1668
sg11
S'nativeGetAxisValue pointerIndex=0, pointerCount=1\n'
p1669
sa(dp1670
g2
S'3397'
p1671
sg4
L1449716652465L
sg5
g6
sg7
S'MotionEvent-JNI'
p1672
sg9
S'0xd45'
p1673
sg11
S'nativeGetAxisValue pointerIndex=0, pointerCount=1\n'
p1674
sa(dp1675
g2
S'3397'
p1676
sg4
L1449716652478L
sg5
g6
sg7
S'MotionEvent-JNI'
p1677
sg9
S'0xd45'
p1678
sg11
S'nativeGetAxisValue pointerIndex=0, pointerCount=1\n'
p1679
sa(dp1680
g2
S'3397'
p1681
sg4
L1449716652481L
sg5
g6
sg7
S'MotionEvent-JNI'
p1682
sg9
S'0xd45'
p1683
sg11
S'nativeGetAxisValue pointerIndex=0, pointerCount=1\n'
p1684
sa(dp1685
g2
S'3397'
p1686
sg4
L1449716652493L
sg5
g6
sg7
S'MotionEvent-JNI'
p1687
sg9
S'0xd45'
p1688
sg11
S'nativeGetAxisValue pointerIndex=0, pointerCount=1\n'
p1689
sa(dp1690
g2
S'3397'
p1691
sg4
L1449716652498L
sg5
g6
sg7
S'MotionEvent-JNI'
p1692
sg9
S'0xd45'
p1693
sg11
S'nativeGetAxisValue pointerIndex=0, pointerCount=1\n'
p1694
sa(dp1695
g2
S'3397'
p1696
sg4
L1449716652509L
sg5
g6
sg7
S'MotionEvent-JNI'
p1697
sg9
S'0xd45'
p1698
sg11
S'nativeGetAxisValue pointerIndex=0, pointerCount=1\n'
p1699
sa(dp1700
g2
S'3397'
p1701
sg4
L1449716652512L
sg5
g6
sg7
S'MotionEvent-JNI'
p1702
sg9
S'0xd45'
p1703
sg11
S'nativeGetAxisValue pointerIndex=0, pointerCount=1\n'
p1704
sa(dp1705
g2
S'3397'
p1706
sg4
L1449716652513L
sg5
g6
sg7
S'MotionEvent-JNI'
p1707
sg9
S'0xd45'
p1708
sg11
S'nativeGetAxisValue pointerIndex=0, pointerCount=1\n'
p1709
sa(dp1710
g2
S'3397'
p1711
sg4
L1449716652525L
sg5
g6
sg7
S'MotionEvent-JNI'
p1712
sg9
S'0xd45'
p1713
sg11
S'nativeGetAxisValue pointerIndex=0, pointerCount=1\n'
p1714
sa(dp1715
g2
S'3397'
p1716
sg4
L1449716652631L
sg5
g6
sg7
S'WebViewCallback'
p1717
sg9
S'0xde5'
p1718
sg11
S'shouldInterceptRequest=http://oa.paneng.cn:1143/se9200/dwr/call/plaincall/se9200dwr.getFloatValues.dwr\n'
p1719
sa(dp1720
g2
S'3397'
p1721
sg4
L1449716652632L
sg5
g6
sg7
S'WebViewCallback'
p1722
sg9
S'0xd45'
p1723
sg11
S'onLoadResource=http://oa.paneng.cn:1143/se9200/dwr/call/plaincall/se9200dwr.getFloatValues.dwr\n'
p1724
sa(dp1725
g2
S'3397'
p1726
sg4
L1449716652633L
sg5
g6
sg7
S'MotionEvent-JNI'
p1727
sg9
S'0xd45'
p1728
sg11
S'nativeGetAxisValue pointerIndex=0, pointerCount=1\n'
p1729
sa(dp1730
g2
S'3397'
p1731
sg4
L1449716652637L
sg5
g6
sg7
S'MotionEvent-JNI'
p1732
sg9
S'0xd45'
p1733
sg11
S'nativeGetAxisValue pointerIndex=0, pointerCount=1\n'
p1734
sa(dp1735
g2
S'3397'
p1736
sg4
L1449716652677L
sg5
g6
sg7
S'MotionEvent-JNI'
p1737
sg9
S'0xd45'
p1738
sg11
S'nativeGetAxisValue pointerIndex=0, pointerCount=1\n'
p1739
sa(dp1740
g2
S'3397'
p1741
sg4
L1449716652678L
sg5
g6
sg7
S'MotionEvent-JNI'
p1742
sg9
S'0xd45'
p1743
sg11
S'nativeGetAxisValue pointerIndex=0, pointerCount=1\n'
p1744
sa(dp1745
g2
S'3397'
p1746
sg4
L1449716652700L
sg5
g6
sg7
S'MotionEvent-JNI'
p1747
sg9
S'0xd45'
p1748
sg11
S'nativeGetAxisValue pointerIndex=0, pointerCount=1\n'
p1749
sa(dp1750
g2
S'3397'
p1751
sg4
L1449716652703L
sg5
g6
sg7
S'MotionEvent-JNI'
p1752
sg9
S'0xd45'
p1753
sg11
S'nativeGetAxisValue pointerIndex=0, pointerCount=1\n'
p1754
sa(dp1755
g2
S'3397'
p1756
sg4
L1449716652705L
sg5
g6
sg7
S'MotionEvent-JNI'
p1757
sg9
S'0xd45'
p1758
sg11
S'nativeGetAxisValue pointerIndex=0, pointerCount=1\n'
p1759
sa(dp1760
g2
S'3397'
p1761
sg4
L1449716652710L
sg5
g6
sg7
S'MotionEvent-JNI'
p1762
sg9
S'0xd45'
p1763
sg11
S'nativeGetAxisValue pointerIndex=0, pointerCount=1\n'
p1764
sa(dp1765
g2
S'3397'
p1766
sg4
L1449716652711L
sg5
g6
sg7
S'MotionEvent-JNI'
p1767
sg9
S'0xd45'
p1768
sg11
S'nativeGetAxisValue pointerIndex=0, pointerCount=1\n'
p1769
sa(dp1770
g2
S'3397'
p1771
sg4
L1449716652712L
sg5
g6
sg7
S'MotionEvent-JNI'
p1772
sg9
S'0xd45'
p1773
sg11
S'nativeGetAxisValue pointerIndex=0, pointerCount=1\n'
p1774
sa(dp1775
g2
S'3397'
p1776
sg4
L1449716652714L
sg5
g6
sg7
S'MotionEvent-JNI'
p1777
sg9
S'0xd45'
p1778
sg11
S'nativeGetAxisValue pointerIndex=0, pointerCount=1\n'
p1779
sa(dp1780
g2
S'3397'
p1781
sg4
L1449716652747L
sg5
g6
sg7
S'OpenGLRenderer'
p1782
sg9
S'0xd45'
p1783
sg11
S'prepareDirty (0.00, 0.00, 800.00, 480.00) opaque 1 <0x6a42d6d0>\n'
p1784
sa(dp1785
g2
S'3397'
p1786
sg4
L1449716652751L
sg5
g6
sg7
S'OpenGLRenderer'
p1787
sg9
S'0xd45'
p1788
sg11
S'finish <0x6a42d6d0>\n'
p1789
sa(dp1790
g2
S'3397'
p1791
sg4
L1449716652764L
sg5
g6
sg7
S'MotionEvent-JNI'
p1792
sg9
S'0xd45'
p1793
sg11
S'nativeGetAxisValue pointerIndex=0, pointerCount=1\n'
p1794
sa(dp1795
g2
S'3397'
p1796
sg4
L1449716652765L
sg5
g6
sg7
S'MotionEvent-JNI'
p1797
sg9
S'0xd45'
p1798
sg11
S'nativeGetAxisValue pointerIndex=0, pointerCount=1\n'
p1799
sa(dp1800
g2
S'3397'
p1801
sg4
L1449716652796L
sg5
g6
sg7
S'MotionEvent-JNI'
p1802
sg9
S'0xd45'
p1803
sg11
S'nativeGetAxisValue pointerIndex=0, pointerCount=1\n'
p1804
sa(dp1805
g2
S'3397'
p1806
sg4
L1449716652799L
sg5
g6
sg7
S'MotionEvent-JNI'
p1807
sg9
S'0xd45'
p1808
sg11
S'nativeGetAxisValue pointerIndex=0, pointerCount=1\n'
p1809
sa(dp1810
g2
S'3397'
p1811
sg4
L1449716652800L
sg5
g6
sg7
S'MotionEvent-JNI'
p1812
sg9
S'0xd45'
p1813
sg11
S'nativeGetAxisValue pointerIndex=0, pointerCount=1\n'
p1814
sa(dp1815
g2
S'3397'
p1816
sg4
L1449716652801L
sg5
g6
sg7
S'MotionEvent-JNI'
p1817
sg9
S'0xd45'
p1818
sg11
S'nativeGetAxisValue pointerIndex=0, pointerCount=1\n'
p1819
sa(dp1820
g2
S'3397'
p1821
sg4
L1449716652825L
sg5
g6
sg7
S'OpenGLRenderer'
p1822
sg9
S'0xd45'
p1823
sg11
S'prepareDirty (0.00, 0.00, 800.00, 480.00) opaque 1 <0x6a42d6d0>\n'
p1824
sa(dp1825
g2
S'3397'
p1826
sg4
L1449716652829L
sg5
g6
sg7
S'OpenGLRenderer'
p1827
sg9
S'0xd45'
p1828
sg11
S'finish <0x6a42d6d0>\n'
p1829
sa(dp1830
g2
S'3397'
p1831
sg4
L1449716652866L
sg5
g6
sg7
S'MotionEvent-JNI'
p1832
sg9
S'0xd45'
p1833
sg11
S'nativeGetAxisValue pointerIndex=0, pointerCount=1\n'
p1834
sa(dp1835
g2
S'3397'
p1836
sg4
L1449716652867L
sg5
g6
sg7
S'MotionEvent-JNI'
p1837
sg9
S'0xd45'
p1838
sg11
S'nativeGetAxisValue pointerIndex=0, pointerCount=1\n'
p1839
sa(dp1840
g2
S'3397'
p1841
sg4
L1449716652888L
sg5
g6
sg7
S'MotionEvent-JNI'
p1842
sg9
S'0xd45'
p1843
sg11
S'nativeGetAxisValue pointerIndex=0, pointerCount=1\n'
p1844
sa(dp1845
g2
S'3397'
p1846
sg4
L1449716652889L
sg5
g6
sg7
S'MotionEvent-JNI'
p1847
sg9
S'0xd45'
p1848
sg11
S'nativeGetAxisValue pointerIndex=0, pointerCount=1\n'
p1849
sa(dp1850
g2
S'3397'
p1851
sg4
L1449716652890L
sg5
g6
sg7
S'MotionEvent-JNI'
p1852
sg9
S'0xd45'
p1853
sg11
S'nativeGetAxisValue pointerIndex=0, pointerCount=1\n'
p1854
sa(dp1855
g2
S'3397'
p1856
sg4
L1449716652891L
sg5
g6
sg7
S'MotionEvent-JNI'
p1857
sg9
S'0xd45'
p1858
sg11
S'nativeGetAxisValue pointerIndex=0, pointerCount=1\n'
p1859
sa(dp1860
g2
S'3397'
p1861
sg4
L1449716652892L
sg5
g6
sg7
S'MotionEvent-JNI'
p1862
sg9
S'0xd45'
p1863
sg11
S'nativeGetAxisValue pointerIndex=0, pointerCount=1\n'
p1864
sa(dp1865
g2
S'3397'
p1866
sg4
L1449716652920L
sg5
g6
sg7
S'OpenGLRenderer'
p1867
sg9
S'0xd45'
p1868
sg11
S'prepareDirty (0.00, 0.00, 800.00, 480.00) opaque 1 <0x6a42d6d0>\n'
p1869
sa(dp1870
g2
S'3397'
p1871
sg4
L1449716652923L
sg5
g6
sg7
S'OpenGLRenderer'
p1872
sg9
S'0xd45'
p1873
sg11
S'finish <0x6a42d6d0>\n'
p1874
sa(dp1875
g2
S'3397'
p1876
sg4
L1449716652932L
sg5
g6
sg7
S'MotionEvent-JNI'
p1877
sg9
S'0xd45'
p1878
sg11
S'nativeGetAxisValue pointerIndex=0, pointerCount=1\n'
p1879
sa(dp1880
g2
S'3397'
p1881
sg4
L1449716652933L
sg5
g6
sg7
S'MotionEvent-JNI'
p1882
sg9
S'0xd45'
p1883
sg11
S'nativeGetAxisValue pointerIndex=0, pointerCount=1\n'
p1884
sa(dp1885
g2
S'3397'
p1886
sg4
L1449716652934L
sg5
g6
sg7
S'MotionEvent-JNI'
p1887
sg9
S'0xd45'
p1888
sg11
S'nativeGetAxisValue pointerIndex=0, pointerCount=1\n'
p1889
sa(dp1890
g2
S'3397'
p1891
sg4
L1449716652969L
sg5
g6
sg7
S'WebViewCallback'
p1892
sg9
S'0xde5'
p1893
sg11
S'shouldInterceptRequest=http://oa.paneng.cn:1143/se9200/dwr/call/plaincall/se9200dwr.getFloatValues.dwr\n'
p1894
sa(dp1895
g2
S'3397'
p1896
sg4
L1449716652969L
sg5
g6
sg7
S'WebViewCallback'
p1897
sg9
S'0xd45'
p1898
sg11
S'onLoadResource=http://oa.paneng.cn:1143/se9200/dwr/call/plaincall/se9200dwr.getFloatValues.dwr\n'
p1899
sa(dp1900
g2
S'3397'
p1901
sg4
L1449716652979L
sg5
g6
sg7
S'MotionEvent-JNI'
p1902
sg9
S'0xd45'
p1903
sg11
S'nativeGetAxisValue pointerIndex=0, pointerCount=1\n'
p1904
sa(dp1905
g2
S'3397'
p1906
sg4
L1449716652984L
sg5
g6
sg7
S'OpenGLRenderer'
p1907
sg9
S'0xd45'
p1908
sg11
S'prepareDirty (0.00, 0.00, 800.00, 480.00) opaque 1 <0x6a42d6d0>\n'
p1909
sa(dp1910
g2
S'3397'
p1911
sg4
L1449716652987L
sg5
g6
sg7
S'OpenGLRenderer'
p1912
sg9
S'0xd45'
p1913
sg11
S'finish <0x6a42d6d0>\n'
p1914
sa(dp1915
g2
S'3397'
p1916
sg4
L1449716653019L
sg5
g6
sg7
S'MotionEvent-JNI'
p1917
sg9
S'0xd45'
p1918
sg11
S'nativeGetAxisValue pointerIndex=0, pointerCount=1\n'
p1919
sa(dp1920
g2
S'3397'
p1921
sg4
L1449716653021L
sg5
g6
sg7
S'MotionEvent-JNI'
p1922
sg9
S'0xd45'
p1923
sg11
S'nativeGetAxisValue pointerIndex=0, pointerCount=1\n'
p1924
sa(dp1925
g2
S'3397'
p1926
sg4
L1449716653030L
sg5
g6
sg7
S'MotionEvent-JNI'
p1927
sg9
S'0xd45'
p1928
sg11
S'nativeGetAxisValue pointerIndex=0, pointerCount=1\n'
p1929
sa(dp1930
g2
S'3397'
p1931
sg4
L1449716653030L
sg5
g120
sg7
S'View    '
p1932
sg9
S'0xd45'
p1933
sg11
S'Touch up dispatch to com.example.myfristandroid.MyWebView{4209a168 VFEDHVC. .F...... 0,0-800,442 #7f080022 app:id/id_view_graphWebview}, event = MotionEvent { action=ACTION_UP, id[0]=0, x[0]=657.50555, y[0]=87.13741, toolType[0]=TOOL_TYPE_FINGER, buttonState=0, metaState=0, flags=0x0, edgeFlags=0x0, pointerCount=1, historySize=0, eventTime=22081807, downTime=22080733, deviceId=3, source=0x1002 }\n'
p1934
sa(dp1935
g2
S'3397'
p1936
sg4
L1449716653092L
sg5
g6
sg7
S'OpenGLRenderer'
p1937
sg9
S'0xd45'
p1938
sg11
S'prepareDirty (0.00, 0.00, 800.00, 480.00) opaque 1 <0x6a42d6d0>\n'
p1939
sa(dp1940
g2
S'3397'
p1941
sg4
L1449716653096L
sg5
g6
sg7
S'OpenGLRenderer'
p1942
sg9
S'0xd45'
p1943
sg11
S'finish <0x6a42d6d0>\n'
p1944
sa(dp1945
g2
S'3397'
p1946
sg4
L1449716653098L
sg5
g6
sg7
S'MotionEvent-JNI'
p1947
sg9
S'0xd45'
p1948
sg11
S'nativeGetAxisValue pointerIndex=0, pointerCount=1\n'
p1949
sa(dp1950
g2
S'3397'
p1951
sg4
L1449716653099L
sg5
g6
sg7
S'MotionEvent-JNI'
p1952
sg9
S'0xd45'
p1953
sg11
S'nativeGetAxisValue pointerIndex=0, pointerCount=1\n'
p1954
sa(dp1955
g2
S'3397'
p1956
sg4
L1449716653124L
sg5
g6
sg7
S'OpenGLRenderer'
p1957
sg9
S'0xd45'
p1958
sg11
S'prepareDirty (0.00, 0.00, 800.00, 480.00) opaque 1 <0x6a42d6d0>\n'
p1959
sa(dp1960
g2
S'3397'
p1961
sg4
L1449716653127L
sg5
g6
sg7
S'OpenGLRenderer'
p1962
sg9
S'0xd45'
p1963
sg11
S'finish <0x6a42d6d0>\n'
p1964
sa(dp1965
g2
S'3397'
p1966
sg4
L1449716653139L
sg5
g6
sg7
S'MotionEvent-JNI'
p1967
sg9
S'0xd45'
p1968
sg11
S'nativeGetAxisValue pointerIndex=0, pointerCount=1\n'
p1969
sa(dp1970
g2
S'3397'
p1971
sg4
L1449716653140L
sg5
g6
sg7
S'MotionEvent-JNI'
p1972
sg9
S'0xd45'
p1973
sg11
S'nativeGetAxisValue pointerIndex=0, pointerCount=1\n'
p1974
sa(dp1975
g2
S'3397'
p1976
sg4
L1449716653233L
sg5
g6
sg7
S'OpenGLRenderer'
p1977
sg9
S'0xd45'
p1978
sg11
S'prepareDirty (0.00, 0.00, 800.00, 480.00) opaque 1 <0x6a42d6d0>\n'
p1979
sa(dp1980
g2
S'3397'
p1981
sg4
L1449716653237L
sg5
g6
sg7
S'OpenGLRenderer'
p1982
sg9
S'0xd45'
p1983
sg11
S'finish <0x6a42d6d0>\n'
p1984
sa(dp1985
g2
S'3397'
p1986
sg4
L1449716653245L
sg5
g6
sg7
S'WebViewCallback'
p1987
sg9
S'0xde5'
p1988
sg11
S'shouldInterceptRequest=http://oa.paneng.cn:1143/se9200/dwr/call/plaincall/se9200dwr.getFloatValues.dwr\n'
p1989
sa(dp1990
g2
S'3397'
p1991
sg4
L1449716653246L
sg5
g6
sg7
S'WebViewCallback'
p1992
sg9
S'0xd45'
p1993
sg11
S'onLoadResource=http://oa.paneng.cn:1143/se9200/dwr/call/plaincall/se9200dwr.getFloatValues.dwr\n'
p1994
sa(dp1995
g2
S'3397'
p1996
sg4
L1449716653274L
sg5
g6
sg7
S'WebViewCallback'
p1997
sg9
S'0xde5'
p1998
sg11
S'shouldInterceptRequest=http://oa.paneng.cn:1143/se9200/dwr/call/plaincall/se9200dwr.getFloatValues.dwr\n'
p1999
sa(dp2000
g2
S'3397'
p2001
sg4
L1449716653274L
sg5
g6
sg7
S'WebViewCallback'
p2002
sg9
S'0xd45'
p2003
sg11
S'onLoadResource=http://oa.paneng.cn:1143/se9200/dwr/call/plaincall/se9200dwr.getFloatValues.dwr\n'
p2004
sa(dp2005
g2
S'3424'
p2006
sg4
L1449716653466L
sg5
g6
sg7
S'ForegroundActivity'
p2007
sg9
S'0xd74'
p2008
sg11
S'\xe6\x9c\xac\xe6\xac\xa1\xe5\x8f\x91\xe9\x80\x81\xe5\xb8\xa7\xe9\x95\xbf:13\t\xe6\x80\xbb\xe5\xb8\xa7\xe9\x95\xbf:161\n'
p2009
sa(dp2010
g2
S'3424'
p2011
sg4
L1449716653547L
sg5
g6
sg7
S'ForegroundActivity'
p2012
sg9
S'0xd7a'
p2013
sg11
S'\xe6\x9c\xac\xe6\xac\xa1\xe6\x94\xb6\xe5\x88\xb0\xe5\xb8\xa7\xe9\x95\xbf:13\t\xe6\x80\xbb\xe5\xb8\xa7\xe9\x95\xbf:826\n'
p2014
sa(dp2015
g2
S'3424'
p2016
sg4
L1449716653988L
sg5
g6
sg7
S'SocketService1'
p2017
sg9
S'0xd76'
p2018
sg11
S'\xe6\x9c\xac\xe6\xac\xa1\xe6\x8f\x90\xe5\x8f\x961:LoadPtr:826 HeadIndex:813 GetSize:13 13 0 \xe5\xa4\xb4\xe4\xbf\xa1\xe6\x81\xaf:EB 90 EB 90 EB 90 0D 00 10 01 \n'
p2019
sa(dp2020
g2
S'3397'
p2021
sg4
L1449716655788L
sg5
g6
sg7
S'WebViewCallback'
p2022
sg9
S'0xde5'
p2023
sg11
S'shouldInterceptRequest=http://oa.paneng.cn:1143/se9200/dwr/call/plaincall/se9200dwr.getFloatValues.dwr\n'
p2024
sa(dp2025
g2
S'3397'
p2026
sg4
L1449716655789L
sg5
g6
sg7
S'WebViewCallback'
p2027
sg9
S'0xd45'
p2028
sg11
S'onLoadResource=http://oa.paneng.cn:1143/se9200/dwr/call/plaincall/se9200dwr.getFloatValues.dwr\n'
p2029
sa(dp2030
g2
S'3397'
p2031
sg4
L1449716656136L
sg5
g6
sg7
S'WebViewCallback'
p2032
sg9
S'0xde5'
p2033
sg11
S'shouldInterceptRequest=http://oa.paneng.cn:1143/se9200/dwr/call/plaincall/se9200dwr.getFloatValues.dwr\n'
p2034
sa(dp2035
g2
S'3397'
p2036
sg4
L1449716656136L
sg5
g6
sg7
S'WebViewCallback'
p2037
sg9
S'0xd45'
p2038
sg11
S'onLoadResource=http://oa.paneng.cn:1143/se9200/dwr/call/plaincall/se9200dwr.getFloatValues.dwr\n'
p2039
sa(dp2040
g2
S'3397'
p2041
sg4
L1449716656248L
sg5
g6
sg7
S'OpenGLRenderer'
p2042
sg9
S'0xd45'
p2043
sg11
S'prepareDirty (0.00, 0.00, 800.00, 480.00) opaque 1 <0x6a42d6d0>\n'
p2044
sa(dp2045
g2
S'3397'
p2046
sg4
L1449716656251L
sg5
g6
sg7
S'OpenGLRenderer'
p2047
sg9
S'0xd45'
p2048
sg11
S'finish <0x6a42d6d0>\n'
p2049
sa(dp2050
g2
S'3397'
p2051
sg4
L1449716656263L
sg5
g6
sg7
S'OpenGLRenderer'
p2052
sg9
S'0xd45'
p2053
sg11
S'prepareDirty (0.00, 0.00, 800.00, 480.00) opaque 1 <0x6a42d6d0>\n'
p2054
sa(dp2055
g2
S'3397'
p2056
sg4
L1449716656266L
sg5
g6
sg7
S'OpenGLRenderer'
p2057
sg9
S'0xd45'
p2058
sg11
S'finish <0x6a42d6d0>\n'
p2059
sa(dp2060
g2
S'3397'
p2061
sg4
L1449716656273L
sg5
g6
sg7
S'WebViewCallback'
p2062
sg9
S'0xde5'
p2063
sg11
S'shouldInterceptRequest=http://oa.paneng.cn:1143/se9200/dwr/call/plaincall/se9200dwr.getFloatValues.dwr\n'
p2064
sa(dp2065
g2
S'3397'
p2066
sg4
L1449716656275L
sg5
g6
sg7
S'WebViewCallback'
p2067
sg9
S'0xd45'
p2068
sg11
S'onLoadResource=http://oa.paneng.cn:1143/se9200/dwr/call/plaincall/se9200dwr.getFloatValues.dwr\n'
p2069
sa(dp2070
g2
S'3397'
p2071
sg4
L1449716656311L
sg5
g6
sg7
S'WebViewCallback'
p2072
sg9
S'0xde5'
p2073
sg11
S'shouldInterceptRequest=http://oa.paneng.cn:1143/se9200/dwr/call/plaincall/se9200dwr.getFloatValues.dwr\n'
p2074
sa(dp2075
g2
S'3397'
p2076
sg4
L1449716656312L
sg5
g6
sg7
S'WebViewCallback'
p2077
sg9
S'0xd45'
p2078
sg11
S'onLoadResource=http://oa.paneng.cn:1143/se9200/dwr/call/plaincall/se9200dwr.getFloatValues.dwr\n'
p2079
sa(dp2080
g2
S'3397'
p2081
sg4
L1449716658826L
sg5
g6
sg7
S'cn.edu.nju.ise.kikandroid'
p2082
sg9
S'0xd7d'
p2083
sg11
S'Log:1449716658826\n'
p2084
sa(dp2085
g2
S'3397'
p2086
sg4
L1449716658841L
sg5
g6
sg7
S'dalvikvm'
p2087
sg9
S'0xd7d'
p2088
sg11
S'create interp thread : stack size=128KB\n'
p2089
sa(dp2090
g2
S'3397'
p2091
sg4
L1449716658842L
sg5
g6
sg7
S'dalvikvm'
p2092
sg9
S'0xd7d'
p2093
sg11
S'create new thread\n'
p2094
sa(dp2095
g2
S'3397'
p2096
sg4
L1449716658843L
sg5
g6
sg7
S'dalvikvm'
p2097
sg9
S'0xd7d'
p2098
sg11
S'new thread created\n'
p2099
sa(dp2100
g2
S'3397'
p2101
sg4
L1449716658844L
sg5
g6
sg7
S'dalvikvm'
p2102
sg9
S'0xd7d'
p2103
sg11
S'update thread list\n'
p2104
sa(dp2105
g2
S'3397'
p2106
sg4
L1449716658845L
sg5
g6
sg7
S'dalvikvm'
p2107
sg9
S'0x13c0'
p2108
sg11
S'threadid=52: interp stack at 0x6b216000\n'
p2109
sa(dp2110
g2
S'3397'
p2111
sg4
L1449716658846L
sg5
g6
sg7
S'dalvikvm'
p2112
sg9
S'0x13c0'
p2113
sg11
S'threadid=52: created from interp\n'
p2114
sa(dp2115
g2
S'3397'
p2116
sg4
L1449716658847L
sg5
g6
sg7
S'dalvikvm'
p2117
sg9
S'0xd7d'
p2118
sg11
S'start new thread\n'
p2119
sa(dp2120
g2
S'3397'
p2121
sg4
L1449716658878L
sg5
g6
sg7
S'dalvikvm'
p2122
sg9
S'0x13c0'
p2123
sg11
S'threadid=52: notify debugger\n'
p2124
sa(dp2125
g2
S'3397'
p2126
sg4
L1449716658879L
sg5
g6
sg7
S'dalvikvm'
p2127
sg9
S'0x13c0'
p2128
sg11
S'threadid=52 (java.lang.ProcessManager): calling run()\n'
p2129
sa(dp2130
g2
S'3397'
p2131
sg4
L1449716658923L
sg5
g6
sg7
S'WebViewCallback'
p2132
sg9
S'0xde5'
p2133
sg11
S'shouldInterceptRequest=http://oa.paneng.cn:1143/se9200/dwr/call/plaincall/se9200dwr.getFloatValues.dwr\n'
p2134
sa(dp2135
g2
S'3397'
p2136
sg4
L1449716658923L
sg5
g6
sg7
S'WebViewCallback'
p2137
sg9
S'0xd45'
p2138
sg11
S'onLoadResource=http://oa.paneng.cn:1143/se9200/dwr/call/plaincall/se9200dwr.getFloatValues.dwr\n'
p2139
sa(dp2140
g2
S'3397'
p2141
sg4
L1449716658923L
sg5
g120
sg7
S'System.out'
p2142
sg9
S'0xd7d'
p2143
sg11
S'[CDS]close[10737]\n'
p2144
sa(dp2145
g2
S'3397'
p2146
sg4
L1449716658924L
sg5
g120
sg7
S'System.out'
p2147
sg9
S'0xd7d'
p2148
sg11
S'close [socket][/0.0.0.0:10737]\n'
p2149
sa(dp2150
g2
S'3397'
p2151
sg4
L1449716659230L
sg5
g6
sg7
S'WebViewCallback'
p2152
sg9
S'0xde5'
p2153
sg11
S'shouldInterceptRequest=http://oa.paneng.cn:1143/se9200/dwr/call/plaincall/se9200dwr.getFloatValues.dwr\n'
p2154
sa(dp2155
g2
S'3397'
p2156
sg4
L1449716659230L
sg5
g6
sg7
S'WebViewCallback'
p2157
sg9
S'0xd45'
p2158
sg11
S'onLoadResource=http://oa.paneng.cn:1143/se9200/dwr/call/plaincall/se9200dwr.getFloatValues.dwr\n'
p2159
sa(dp2160
g2
S'3397'
p2161
sg4
L1449716659302L
sg5
g6
sg7
S'WebViewCallback'
p2162
sg9
S'0xde5'
p2163
sg11
S'shouldInterceptRequest=http://oa.paneng.cn:1143/se9200/dwr/call/plaincall/se9200dwr.getFloatValues.dwr\n'
p2164
sa(dp2165
g2
S'3397'
p2166
sg4
L1449716659302L
sg5
g6
sg7
S'WebViewCallback'
p2167
sg9
S'0xd45'
p2168
sg11
S'onLoadResource=http://oa.paneng.cn:1143/se9200/dwr/call/plaincall/se9200dwr.getFloatValues.dwr\n'
p2169
sa(dp2170
g2
S'3397'
p2171
sg4
L1449716659341L
sg5
g6
sg7
S'WebViewCallback'
p2172
sg9
S'0xde5'
p2173
sg11
S'shouldInterceptRequest=http://oa.paneng.cn:1143/se9200/dwr/call/plaincall/se9200dwr.getFloatValues.dwr\n'
p2174
sa(dp2175
g2
S'3397'
p2176
sg4
L1449716659342L
sg5
g6
sg7
S'WebViewCallback'
p2177
sg9
S'0xd45'
p2178
sg11
S'onLoadResource=http://oa.paneng.cn:1143/se9200/dwr/call/plaincall/se9200dwr.getFloatValues.dwr\n'
p2179
sa(dp2180
g2
S'3397'
p2181
sg4
L1449716659437L
sg5
g6
sg7
S'OpenGLRenderer'
p2182
sg9
S'0xd45'
p2183
sg11
S'prepareDirty (0.00, 0.00, 800.00, 480.00) opaque 1 <0x6a42d6d0>\n'
p2184
sa(dp2185
g2
S'3397'
p2186
sg4
L1449716659441L
sg5
g6
sg7
S'OpenGLRenderer'
p2187
sg9
S'0xd45'
p2188
sg11
S'finish <0x6a42d6d0>\n'
p2189
sa(dp2190
g2
S'3397'
p2191
sg4
L1449716659499L
sg5
g6
sg7
S'OpenGLRenderer'
p2192
sg9
S'0xd45'
p2193
sg11
S'prepareDirty (0.00, 0.00, 800.00, 480.00) opaque 1 <0x6a42d6d0>\n'
p2194
sa(dp2195
g2
S'3397'
p2196
sg4
L1449716659502L
sg5
g6
sg7
S'OpenGLRenderer'
p2197
sg9
S'0xd45'
p2198
sg11
S'finish <0x6a42d6d0>\n'
p2199
sa(dp2200
g2
S'3397'
p2201
sg4
L1449716661625L
sg5
g6
sg7
S'cn.edu.nju.ise.kikandroid'
p2202
sg9
S'0xd7d'
p2203
sg11
S'Log:1449716661625\n'
p2204
sa(dp2205
g2
S'3397'
p2206
sg4
L1449716661766L
sg5
g6
sg7
S'dalvikvm'
p2207
sg9
S'0xd45'
p2208
sg11
S'GC_FOR_ALLOC freed 3356K (5544), 35% free 14519K/22008K, paused 47ms, total 47ms\n'
p2209
sa(dp2210
g2
S'3397'
p2211
sg4
L1449716661793L
sg5
g120
sg7
S'System.out'
p2212
sg9
S'0xd94'
p2213
sg11
S'mkdir failed: EEXIST (File exists) path = /sdcard/kikbuglog\n'
p2214
sa(dp2215
g2
S'3397'
p2216
sg4
L1449716661885L
sg5
g6
sg7
S'cn.edu.nju.ise.kikandroid'
p2217
sg9
S'0xd7d'
p2218
sg11
S'Screenshot:1449716661714\n'
p2219
sa(dp2220
g2
S'3397'
p2221
sg4
L1449716661885L
sg5
g120
sg7
S'System.out'
p2222
sg9
S'0xd7d'
p2223
sg11
S'[CDS]close[10737]\n'
p2224
sa(dp2225
g2
S'3397'
p2226
sg4
L1449716661887L
sg5
g120
sg7
S'System.out'
p2227
sg9
S'0xd7d'
p2228
sg11
S'close [socket][/0.0.0.0:10737]\n'
p2229
sa(dp2230
g2
S'3397'
p2231
sg4
L1449716661887L
sg5
g6
sg7
S'dalvikvm'
p2232
sg9
S'0xd7d'
p2233
sg11
S'threadid=15: exiting\n'
p2234
sa(dp2235
g2
S'3397'
p2236
sg4
L1449716661887L
sg5
g146
sg7
S'dalvikvm'
p2237
sg9
S'0xd7d'
p2238
sg11
S'threadid=15: thread exiting with uncaught exception (group=0x4198dc98)\n'
p2239
sa(dp2240
g2
S'3397'
p2241
sg4
L1449716661887L
sg5
g146
sg7
S'dalvikvm'
p2242
sg9
S'0xd7d'
p2243
sg11
S'threadid=15: uncaught exception occurred\n'
p2244
sa(dp2245
g2
S'3397'
p2246
sg4
L1449716661890L
sg5
g146
sg7
S'System.err'
p2247
sg9
S'0xd7d'
p2248
sg11
S'java.lang.NullPointerException\n'
p2249
sa(dp2250
g2
S'3397'
p2251
sg4
L1449716661892L
sg5
g146
sg7
S'System.err'
p2252
sg9
S'0xd7d'
p2253
sg11
S'\tat android.app.Instrumentation.finish(Instrumentation.java:190)\n'
p2254
sa(dp2255
g2
S'3397'
p2256
sg4
L1449716661893L
sg5
g146
sg7
S'System.err'
p2257
sg9
S'0xd7d'
p2258
sg11
S'\tat cn.edu.nju.ise.kikandroid.AUTInstrument.quitInstr(AUTInstrument.java:195)\n'
p2259
sa(dp2260
g2
S'3397'
p2261
sg4
L1449716661894L
sg5
g146
sg7
S'System.err'
p2262
sg9
S'0xd7d'
p2263
sg11
S'\tat cn.edu.nju.ise.kikandroid.AUTInstrument.startServer(AUTInstrument.java:161)\n'
p2264
sa(dp2265
g2
S'3397'
p2266
sg4
L1449716661895L
sg5
g146
sg7
S'System.err'
p2267
sg9
S'0xd7d'
p2268
sg11
S'\tat cn.edu.nju.ise.kikandroid.AUTInstrument$1.run(AUTInstrument.java:107)\n'
p2269
sa(dp2270
g2
S'3397'
p2271
sg4
L1449716661896L
sg5
g146
sg7
S'System.err'
p2272
sg9
S'0xd7d'
p2273
sg11
S'\tat java.lang.Thread.run(Thread.java:841)\n'
p2274
sa(dp2275
g2
S'3397'
p2276
sg4
L1449716661896L
sg5
g146
sg7
S'dalvikvm'
p2277
sg9
S'0xd7d'
p2278
sg11
S'threadid=15: calling UncaughtExceptionHandler\n'
p2279
sa(dp2280
g2
S'3397'
p2281
sg4
L1449716661899L
sg5
S'E'
p2282
sg7
S'AndroidRuntime'
p2283
sg9
S'0xd7d'
p2284
sg11
S'FATAL EXCEPTION: Thread-3733\nProcess: com.example.myfristandroid, PID: 3397\njava.lang.NullPointerException\n\tat android.app.Instrumentation.finish(Instrumentation.java:190)\n\tat cn.edu.nju.ise.kikandroid.AUTInstrument.quitInstr(AUTInstrument.java:195)\n\tat cn.edu.nju.ise.kikandroid.AUTInstrument.startServer(AUTInstrument.java:161)\n\tat cn.edu.nju.ise.kikandroid.AUTInstrument$1.run(AUTInstrument.java:107)\n\tat java.lang.Thread.run(Thread.java:841)\n'
p2285
sa.