(lp0
(dp1
S'processID'
p2
S'15365'
p3
sS'SyscTime'
p4
L1449716330782L
sS'priority'
p5
S'D'
p6
sS'tag'
p7
S'MainActivity'
p8
sS'threadID'
p9
S'16946'
p10
sS'message'
p11
S'h:910.5,w:1687.5\n'
p12
sa(dp13
g2
S'15388'
p14
sg4
L1449716332392L
sg5
g6
sg7
S'ForegroundActivity'
p15
sg9
S'15402'
p16
sg11
S'\xe6\x9c\xac\xe6\xac\xa1\xe5\x8f\x91\xe9\x80\x81\xe5\xb8\xa7\xe9\x95\xbf:13\t\xe6\x80\xbb\xe5\xb8\xa7\xe9\x95\xbf:240\n'
p17
sa(dp18
g2
S'15388'
p19
sg4
L1449716332592L
sg5
g6
sg7
S'ForegroundActivity'
p20
sg9
S'15408'
p21
sg11
S'\xe6\x9c\xac\xe6\xac\xa1\xe6\x94\xb6\xe5\x88\xb0\xe5\xb8\xa7\xe9\x95\xbf:13\t\xe6\x80\xbb\xe5\xb8\xa7\xe9\x95\xbf:1542\n'
p22
sa(dp23
g2
S'15388'
p24
sg4
L1449716332852L
sg5
g6
sg7
S'SocketService1'
p25
sg9
S'15404'
p26
sg11
S'\xe6\x9c\xac\xe6\xac\xa1\xe6\x8f\x90\xe5\x8f\x961:LoadPtr:1542 HeadIndex:1529 GetSize:13 13 0 \xe5\xa4\xb4\xe4\xbf\xa1\xe6\x81\xaf:EB 90 EB 90 EB 90 0D 00 10 01 \n'
p27
sa(dp28
g2
S'15365'
p29
sg4
L1449716336042L
sg5
g6
sg7
S'dalvikvm'
p30
sg9
S'15365'
p31
sg11
S'GC_FOR_ALLOC freed 2250K, 25% free 16984K/22604K, paused 49ms, total 49ms\n'
p32
sa(dp33
g2
S'15365'
p34
sg4
L1449716336102L
sg5
g6
sg7
S'dalvikvm'
p35
sg9
S'15365'
p36
sg11
S'GC_FOR_ALLOC freed 12K, 16% free 18997K/22604K, paused 24ms, total 25ms\n'
p37
sa(dp38
g2
S'15365'
p39
sg4
L1449716336242L
sg5
g6
sg7
S'cn.edu.nju.ise.kikandroid'
p40
sg9
S'15412'
p41
sg11
S'Screenshot:1449716335996\n'
p42
sa(dp43
g2
S'15365'
p44
sg4
L1449716339322L
sg5
S'E'
p45
sg7
S'Web Console'
p46
sg9
S'15365'
p47
sg11
S"Uncaught TypeError: Object [object Object] has no method 'startWait' at http://oa.paneng.cn:1143/se9200/realdata/js/realdata.js:80\n"
p48
sa(dp49
g2
S'15365'
p50
sg4
L1449716342042L
sg5
g6
sg7
S'MainActivity'
p51
sg9
S'16946'
p52
sg11
S'h:910.5,w:1687.5\n'
p53
sa(dp54
g2
S'15365'
p55
sg4
L1449716346482L
sg5
g6
sg7
S'dalvikvm'
p56
sg9
S'15365'
p57
sg11
S'GC_FOR_ALLOC freed 4268K, 28% free 17810K/24632K, paused 53ms, total 54ms\n'
p58
sa(dp59
g2
S'15365'
p60
sg4
L1449716346532L
sg5
g6
sg7
S'dalvikvm'
p61
sg9
S'15369'
p62
sg11
S'GC_CONCURRENT freed 2039K, 20% free 19828K/24632K, paused 2ms+3ms, total 23ms\n'
p63
sa(dp64
g2
S'15365'
p65
sg4
L1449716346632L
sg5
g6
sg7
S'cn.edu.nju.ise.kikandroid'
p66
sg9
S'15412'
p67
sg11
S'Screenshot:1449716346417\n'
p68
sa(dp69
g2
S'15365'
p70
sg4
L1449716368802L
sg5
g6
sg7
S'dalvikvm'
p71
sg9
S'15365'
p72
sg11
S'GC_FOR_ALLOC freed 2090K, 20% free 19824K/24628K, paused 23ms, total 24ms\n'
p73
sa(dp74
g2
S'15365'
p75
sg4
L1449716368912L
sg5
g6
sg7
S'cn.edu.nju.ise.kikandroid'
p76
sg9
S'15412'
p77
sg11
S'Screenshot:1449716368707\n'
p78
sa(dp79
g2
S'15388'
p80
sg4
L1449716372392L
sg5
g6
sg7
S'ForegroundActivity'
p81
sg9
S'15402'
p82
sg11
S'\xe6\x9c\xac\xe6\xac\xa1\xe5\x8f\x91\xe9\x80\x81\xe5\xb8\xa7\xe9\x95\xbf:13\t\xe6\x80\xbb\xe5\xb8\xa7\xe9\x95\xbf:253\n'
p83
sa(dp84
g2
S'15388'
p85
sg4
L1449716372952L
sg5
g6
sg7
S'ForegroundActivity'
p86
sg9
S'16332'
p87
sg11
S'\xe6\x9c\xac\xe6\xac\xa1\xe6\x94\xb6\xe5\x88\xb0\xe5\xb8\xa7\xe9\x95\xbf:13\t\xe6\x80\xbb\xe5\xb8\xa7\xe9\x95\xbf:1555\n'
p88
sa(dp89
g2
S'15388'
p90
sg4
L1449716373012L
sg5
g6
sg7
S'SocketService1'
p91
sg9
S'15404'
p92
sg11
S'\xe6\x9c\xac\xe6\xac\xa1\xe6\x8f\x90\xe5\x8f\x961:LoadPtr:1555 HeadIndex:1542 GetSize:13 13 0 \xe5\xa4\xb4\xe4\xbf\xa1\xe6\x81\xaf:EB 90 EB 90 EB 90 0D 00 10 01 \n'
p93
sa(dp94
g2
S'15365'
p95
sg4
L1449716374542L
sg5
g6
sg7
S'MainActivity'
p96
sg9
S'16946'
p97
sg11
S'h:766.083,w:1687.5\n'
p98
sa(dp99
g2
S'15365'
p100
sg4
L1449716378132L
sg5
g6
sg7
S'dalvikvm'
p101
sg9
S'15365'
p102
sg11
S'GC_FOR_ALLOC freed 4442K, 27% free 18635K/25252K, paused 29ms, total 29ms\n'
p103
sa(dp104
g2
S'15365'
p105
sg4
L1449716378192L
sg5
g6
sg7
S'dalvikvm'
p106
sg9
S'15369'
p107
sg11
S'GC_CONCURRENT freed 2039K, 19% free 20653K/25252K, paused 3ms+2ms, total 26ms\n'
p108
sa(dp109
g2
S'15365'
p110
sg4
L1449716378282L
sg5
g6
sg7
S'cn.edu.nju.ise.kikandroid'
p111
sg9
S'15412'
p112
sg11
S'Screenshot:1449716378081\n'
p113
sa(dp114
g2
S'15388'
p115
sg4
L1449716389402L
sg5
g6
sg7
S'dalvikvm'
p116
sg9
S'15392'
p117
sg11
S'GC_CONCURRENT freed 1478K, 36% free 3866K/5956K, paused 5ms+3ms, total 105ms\n'
p118
sa(dp119
g2
S'15388'
p120
sg4
L1449716412402L
sg5
g6
sg7
S'ForegroundActivity'
p121
sg9
S'15402'
p122
sg11
S'\xe6\x9c\xac\xe6\xac\xa1\xe5\x8f\x91\xe9\x80\x81\xe5\xb8\xa7\xe9\x95\xbf:13\t\xe6\x80\xbb\xe5\xb8\xa7\xe9\x95\xbf:266\n'
p123
sa(dp124
g2
S'15388'
p125
sg4
L1449716412532L
sg5
g6
sg7
S'ForegroundActivity'
p126
sg9
S'16332'
p127
sg11
S'\xe6\x9c\xac\xe6\xac\xa1\xe6\x94\xb6\xe5\x88\xb0\xe5\xb8\xa7\xe9\x95\xbf:13\t\xe6\x80\xbb\xe5\xb8\xa7\xe9\x95\xbf:1568\n'
p128
sa(dp129
g2
S'15388'
p130
sg4
L1449716413162L
sg5
g6
sg7
S'SocketService1'
p131
sg9
S'15404'
p132
sg11
S'\xe6\x9c\xac\xe6\xac\xa1\xe6\x8f\x90\xe5\x8f\x961:LoadPtr:1568 HeadIndex:1555 GetSize:13 13 0 \xe5\xa4\xb4\xe4\xbf\xa1\xe6\x81\xaf:EB 90 EB 90 EB 90 0D 00 10 01 \n'
p133
sa(dp134
g2
S'15388'
p135
sg4
L1449716452402L
sg5
g6
sg7
S'ForegroundActivity'
p136
sg9
S'15402'
p137
sg11
S'\xe6\x9c\xac\xe6\xac\xa1\xe5\x8f\x91\xe9\x80\x81\xe5\xb8\xa7\xe9\x95\xbf:13\t\xe6\x80\xbb\xe5\xb8\xa7\xe9\x95\xbf:279\n'
p138
sa(dp139
g2
S'15388'
p140
sg4
L1449716452602L
sg5
g6
sg7
S'ForegroundActivity'
p141
sg9
S'15408'
p142
sg11
S'\xe6\x9c\xac\xe6\xac\xa1\xe6\x94\xb6\xe5\x88\xb0\xe5\xb8\xa7\xe9\x95\xbf:13\t\xe6\x80\xbb\xe5\xb8\xa7\xe9\x95\xbf:1581\n'
p143
sa(dp144
g2
S'15388'
p145
sg4
L1449716453192L
sg5
g6
sg7
S'SocketService1'
p146
sg9
S'15404'
p147
sg11
S'\xe6\x9c\xac\xe6\xac\xa1\xe6\x8f\x90\xe5\x8f\x961:LoadPtr:1581 HeadIndex:1568 GetSize:13 13 0 \xe5\xa4\xb4\xe4\xbf\xa1\xe6\x81\xaf:EB 90 EB 90 EB 90 0D 00 10 01 \n'
p148
sa(dp149
g2
S'15365'
p150
sg4
L1449716458082L
sg5
g6
sg7
S'cn.edu.nju.ise.kikandroid'
p151
sg9
S'15412'
p152
sg11
S'Log:1449716458088\n'
p153
sa(dp154
g2
S'15365'
p155
sg4
L1449716458222L
sg5
g6
sg7
S'dalvikvm'
p156
sg9
S'15365'
p157
sg11
S'GC_FOR_ALLOC freed 2479K, 23% free 19517K/25248K, paused 29ms, total 30ms\n'
p158
sa(dp159
g2
S'15365'
p160
sg4
L1449716458282L
sg5
g6
sg7
S'dalvikvm'
p161
sg9
S'15365'
p162
sg11
S'GC_FOR_ALLOC freed 32K, 15% free 21510K/25248K, paused 19ms, total 19ms\n'
p163
sa(dp164
g2
S'15365'
p165
sg4
L1449716458402L
sg5
g6
sg7
S'cn.edu.nju.ise.kikandroid'
p166
sg9
S'15412'
p167
sg11
S'Screenshot:1449716458165\n'
p168
sa(dp169
g2
S'15365'
p170
sg4
L1449716458402L
sg5
S'W'
p171
sg7
S'dalvikvm'
p172
sg9
S'15412'
p173
sg11
S'threadid=15: thread exiting with uncaught exception (group=0x4164f8e0)\n'
p174
sa(dp175
g2
S'15365'
p176
sg4
L1449716458402L
sg5
g45
sg7
S'AndroidRuntime'
p177
sg9
S'15412'
p178
sg11
S'FATAL EXCEPTION: Thread-6210\njava.lang.NullPointerException\n\tat android.app.Instrumentation.finish(Instrumentation.java:190)\n\tat cn.edu.nju.ise.kikandroid.AUTInstrument.quitInstr(AUTInstrument.java:195)\n\tat cn.edu.nju.ise.kikandroid.AUTInstrument.startServer(AUTInstrument.java:161)\n\tat cn.edu.nju.ise.kikandroid.AUTInstrument$1.run(AUTInstrument.java:107)\n\tat java.lang.Thread.run(Thread.java:841)\n'
p179
sa.