(lp0
(dp1
S'processID'
p2
S'19365'
p3
sS'SyscTime'
p4
L1449970322804L
sS'priority'
p5
S'E'
p6
sS'tag'
p7
S'##IPC_io.rong.imkit.widget.provider.VoIPInputProvider:VoIPInputProvider'
p8
sS'threadID'
p9
S'19365'
p10
sS'message'
p11
S'----------\xe6\x9e\x84\xe9\x80\xa0\xe6\x96\xb9\xe6\xb3\x95----------\n'
p12
sa(dp13
g2
S'19365'
p14
sg4
L1449970322976L
sg5
g6
sg7
S'##KIT_com.xdf.ucan.BaseApplication:init'
p15
sg9
S'19365'
p16
sg11
S'before init\n'
p17
sa(dp18
g2
S'19365'
p19
sg4
L1449970323039L
sg5
S'W'
p20
sg7
S'SQLiteConnectionPool'
p21
sg9
S'19373'
p22
sg11
S"A SQLiteConnection object for database '/data/data/com.xdf.ucan/databases/rong_version' was leaked!  Please fix your application to end transactions in progress properly and to close the database when it is no longer needed.\n"
p23
sa(dp24
g2
S'19365'
p25
sg4
L1449970329945L
sg5
g20
sg7
S'IInputConnectionWrapper'
p26
sg9
S'19365'
p27
sg11
S'performPrivateCommand on inactive InputConnection\n'
p28
sa(dp29
g2
S'19365'
p30
sg4
L1449970405671L
sg5
g20
sg7
S'IInputConnectionWrapper'
p31
sg9
S'19365'
p32
sg11
S'performPrivateCommand on inactive InputConnection\n'
p33
sa(dp34
g2
S'19365'
p35
sg4
L1449970407617L
sg5
g20
sg7
S'IInputConnectionWrapper'
p36
sg9
S'19365'
p37
sg11
S'showStatusIcon on inactive InputConnection\n'
p38
sa(dp39
g2
S'20174'
p40
sg4
L1449970522328L
sg5
g20
sg7
S'WakefulBroadcastReceiver'
p41
sg9
S'20189'
p42
sg11
S'No active wake lock id #1\n'
p43
sa(dp44
g2
S'20438'
p45
sg4
L1449970604242L
sg5
g20
sg7
S'WakefulBroadcastReceiver'
p46
sg9
S'20453'
p47
sg11
S'No active wake lock id #1\n'
p48
sa(dp49
g2
S'20438'
p50
sg4
L1449970604257L
sg5
g20
sg7
S'WakefulBroadcastReceiver'
p51
sg9
S'20453'
p52
sg11
S'No active wake lock id #1\n'
p53
sa(dp54
g2
S'20910'
p55
sg4
L1449970784945L
sg5
g20
sg7
S'WakefulBroadcastReceiver'
p56
sg9
S'20925'
p57
sg11
S'No active wake lock id #1\n'
p58
sa(dp59
g2
S'20910'
p60
sg4
L1449970784984L
sg5
g20
sg7
S'WakefulBroadcastReceiver'
p61
sg9
S'20925'
p62
sg11
S'No active wake lock id #1\n'
p63
sa.