(lp0
(dp1
S'EventTime'
p2
S'225696965'
p3
sS'SyscTime'
p4
L1449626986749L
sS'recordCount'
p5
S'0'
p6
sS'EventType'
p7
S'TYPE_WINDOW_STATE_CHANGED'
p8
sS'PackageName'
p9
S'com.example.myfristandroid'
p10
sS'OutBounds'
p11
S'Rect(0, 0 - 720, 1280)'
p12
sS'Action'
p13
S'[ ClassName: com.example.myfristandroid.SplashActivity; Text: [SE-1800\xe7\xa7\xbb\xe5\x8a\xa8APP]; ContentDescription: null; ItemCount: -1; CurrentItemIndex: -1; IsEnabled: true; IsPassword: false; IsChecked: false; IsFullScreen: true; Scrollable: false; BeforeText: null; FromIndex: -1; ToIndex: -1; ScrollX: -1; ScrollY: -1; MaxScrollX: -1; MaxScrollY: -1; AddedCount: -1; RemovedCount: -1; ParcelableData: null ]'
p14
sS'MovementGranularity'
p15
g6
sa(dp16
S'EventTime'
p17
S'225697148'
p18
sg4
L1449626986848L
sS'recordCount'
p19
g6
sS'EventType'
p20
S'TYPE_WINDOW_CONTENT_CHANGED'
p21
sS'PackageName'
p22
S'com.example.myfristandroid'
p23
sS'OutBounds'
p24
S'Rect(0, 0 - 720, 1280)'
p25
sS'Action'
p26
S'[ ClassName: android.widget.FrameLayout; Text: []; ContentDescription: null; ItemCount: -1; CurrentItemIndex: -1; IsEnabled: true; IsPassword: false; IsChecked: false; IsFullScreen: false; Scrollable: false; BeforeText: null; FromIndex: -1; ToIndex: -1; ScrollX: -1; ScrollY: -1; MaxScrollX: -1; MaxScrollY: -1; AddedCount: -1; RemovedCount: -1; ParcelableData: null ]'
p27
sS'MovementGranularity'
p28
g6
sa(dp29
S'EventTime'
p30
S'225699377'
p31
sg4
L1449626989125L
sS'recordCount'
p32
g6
sS'EventType'
p33
S'TYPE_WINDOW_STATE_CHANGED'
p34
sS'PackageName'
p35
S'com.example.myfristandroid'
p36
sS'OutBounds'
p37
S'Rect(0, 0 - 720, 1280)'
p38
sS'Action'
p39
S'[ ClassName: com.example.myfristandroid.MainActivity; Text: [SE-1800\xe7\xa7\xbb\xe5\x8a\xa8APP]; ContentDescription: null; ItemCount: -1; CurrentItemIndex: -1; IsEnabled: true; IsPassword: false; IsChecked: false; IsFullScreen: true; Scrollable: false; BeforeText: null; FromIndex: -1; ToIndex: -1; ScrollX: -1; ScrollY: -1; MaxScrollX: -1; MaxScrollY: -1; AddedCount: -1; RemovedCount: -1; ParcelableData: null ]'
p40
sS'MovementGranularity'
p41
g6
sa(dp42
S'EventTime'
p43
S'225699378'
p44
sg4
L1449626989185L
sS'recordCount'
p45
g6
sS'EventType'
p46
S'TYPE_WINDOW_CONTENT_CHANGED'
p47
sS'PackageName'
p48
S'com.example.myfristandroid'
p49
sS'OutBounds'
p50
S'Rect(0, 0 - 720, 1280)'
p51
sS'Action'
p52
S'[ ClassName: android.widget.FrameLayout; Text: []; ContentDescription: null; ItemCount: -1; CurrentItemIndex: -1; IsEnabled: true; IsPassword: false; IsChecked: false; IsFullScreen: false; Scrollable: false; BeforeText: null; FromIndex: -1; ToIndex: -1; ScrollX: -1; ScrollY: -1; MaxScrollX: -1; MaxScrollY: -1; AddedCount: -1; RemovedCount: -1; ParcelableData: null ]'
p53
sS'MovementGranularity'
p54
g6
sa(dp55
S'EventTime'
p56
S'225699416'
p57
sg4
L1449626989209L
sS'recordCount'
p58
g6
sS'EventType'
p59
S'TYPE_VIEW_SCROLLED'
p60
sS'PackageName'
p61
S'com.example.myfristandroid'
p62
sS'OutBounds'
p63
S'Rect(732, 416 - 1428, 416)'
p64
sS'Action'
p65
S'[ ClassName: android.widget.ListView; Text: []; ContentDescription: null; ItemCount: 0; CurrentItemIndex: -1; IsEnabled: true; IsPassword: false; IsChecked: false; IsFullScreen: false; Scrollable: false; BeforeText: null; FromIndex: 0; ToIndex: -1; ScrollX: -1; ScrollY: -1; MaxScrollX: -1; MaxScrollY: -1; AddedCount: -1; RemovedCount: -1; ParcelableData: null ]'
p66
sS'MovementGranularity'
p67
g6
sa(dp68
S'EventTime'
p69
S'225699530'
p70
sg4
L1449626989251L
sS'recordCount'
p71
g6
sS'EventType'
p72
S'TYPE_WINDOW_CONTENT_CHANGED'
p73
sS'PackageName'
p74
S'com.example.myfristandroid'
p75
sS'OutBounds'
p76
S'Rect(0, 0 - 720, 1280)'
p77
sS'Action'
p78
S'[ ClassName: android.widget.FrameLayout; Text: []; ContentDescription: null; ItemCount: -1; CurrentItemIndex: -1; IsEnabled: true; IsPassword: false; IsChecked: false; IsFullScreen: false; Scrollable: false; BeforeText: null; FromIndex: -1; ToIndex: -1; ScrollX: -1; ScrollY: -1; MaxScrollX: -1; MaxScrollY: -1; AddedCount: -1; RemovedCount: -1; ParcelableData: null ]'
p79
sS'MovementGranularity'
p80
g6
sa(dp81
S'EventTime'
p82
S'225700143'
p83
sg4
L1449626989850L
sS'recordCount'
p84
g6
sS'EventType'
p85
S'TYPE_WINDOW_STATE_CHANGED'
p86
sS'PackageName'
p87
S'com.example.myfristandroid'
p88
sS'OutBounds'
p89
S'Rect(0, 0 - 720, 1280)'
p90
sS'Action'
p91
S'[ ClassName: com.example.myfristandroid.HuzAlertDialog; Text: [\xe6\x8f\x90\xe7\xa4\xba, \xe7\x89\x88\xe6\x9c\xac\xe6\x9c\x89\xe6\x9b\xb4\xe6\x96\xb0\xef\xbc\x8c\xe6\x98\xaf\xe5\x90\xa6\xe9\x9c\x80\xe8\xa6\x81\xe6\x9b\xb4\xe6\x96\xb0, \xe7\xab\x8b\xe5\x8d\xb3\xe6\x9b\xb4\xe6\x96\xb0, \xe7\xa8\x8d\xe5\x90\x8e\xe6\x9b\xb4\xe6\x96\xb0]; ContentDescription: null; ItemCount: -1; CurrentItemIndex: -1; IsEnabled: true; IsPassword: false; IsChecked: false; IsFullScreen: true; Scrollable: false; BeforeText: null; FromIndex: -1; ToIndex: -1; ScrollX: -1; ScrollY: -1; MaxScrollX: -1; MaxScrollY: -1; AddedCount: -1; RemovedCount: -1; ParcelableData: null ]'
p92
sS'MovementGranularity'
p93
g6
sa(dp94
S'EventTime'
p95
S'225700212'
p96
sg4
L1449626989916L
sS'recordCount'
p97
g6
sS'EventType'
p98
S'TYPE_WINDOW_CONTENT_CHANGED'
p99
sS'PackageName'
p100
S'com.example.myfristandroid'
p101
sS'OutBounds'
p102
S'Rect(0, 0 - 720, 1280)'
p103
sS'Action'
p104
S'[ ClassName: android.widget.FrameLayout; Text: []; ContentDescription: null; ItemCount: -1; CurrentItemIndex: -1; IsEnabled: true; IsPassword: false; IsChecked: false; IsFullScreen: false; Scrollable: false; BeforeText: null; FromIndex: -1; ToIndex: -1; ScrollX: -1; ScrollY: -1; MaxScrollX: -1; MaxScrollY: -1; AddedCount: -1; RemovedCount: -1; ParcelableData: null ]'
p105
sS'MovementGranularity'
p106
g6
sa(dp107
S'EventTime'
p108
S'225701256'
p109
sg4
L1449626990956L
sS'recordCount'
p110
g6
sS'EventType'
p111
S'TYPE_VIEW_CLICKED'
p112
sS'PackageName'
p113
S'com.example.myfristandroid'
p114
sS'OutBounds'
p115
S'Rect(372, 711 - 679, 807)'
p116
sS'Action'
p117
S'[ ClassName: android.widget.Button; Text: [\xe7\xa8\x8d\xe5\x90\x8e\xe6\x9b\xb4\xe6\x96\xb0]; ContentDescription: null; ItemCount: -1; CurrentItemIndex: -1; IsEnabled: true; IsPassword: false; IsChecked: false; IsFullScreen: false; Scrollable: false; BeforeText: null; FromIndex: -1; ToIndex: -1; ScrollX: -1; ScrollY: -1; MaxScrollX: -1; MaxScrollY: -1; AddedCount: -1; RemovedCount: -1; ParcelableData: null ]'
p118
sS'MovementGranularity'
p119
g6
sa(dp120
S'EventTime'
p121
S'225701292'
p122
sg4
L1449626991062L
sS'recordCount'
p123
g6
sS'EventType'
p124
S'TYPE_WINDOW_STATE_CHANGED'
p125
sS'PackageName'
p126
S'com.example.myfristandroid'
p127
sS'OutBounds'
p128
S'Rect(0, 0 - 720, 1280)'
p129
sS'Action'
p130
S'[ ClassName: com.example.myfristandroid.MainActivity; Text: [SE-1800\xe7\xa7\xbb\xe5\x8a\xa8APP]; ContentDescription: null; ItemCount: -1; CurrentItemIndex: -1; IsEnabled: true; IsPassword: false; IsChecked: false; IsFullScreen: true; Scrollable: false; BeforeText: null; FromIndex: -1; ToIndex: -1; ScrollX: -1; ScrollY: -1; MaxScrollX: -1; MaxScrollY: -1; AddedCount: -1; RemovedCount: -1; ParcelableData: null ]'
p131
sS'MovementGranularity'
p132
g6
sa(dp133
S'EventTime'
p134
S'225704529'
p135
sg4
L1449626994231L
sS'recordCount'
p136
g6
sS'EventType'
p137
S'TYPE_VIEW_CLICKED'
p138
sS'PackageName'
p139
S'com.example.myfristandroid'
p140
sS'OutBounds'
p141
S'Rect(0, 1170 - 180, 1280)'
p142
sS'Action'
p143
S'[ ClassName: android.widget.LinearLayout; Text: [\xe7\x94\xbb\xe9\x9d\xa2\xe6\xb5\x8f\xe8\xa7\x88, \xe7\x94\xbb\xe9\x9d\xa2]; ContentDescription: null; ItemCount: -1; CurrentItemIndex: -1; IsEnabled: true; IsPassword: false; IsChecked: false; IsFullScreen: false; Scrollable: false; BeforeText: null; FromIndex: -1; ToIndex: -1; ScrollX: -1; ScrollY: -1; MaxScrollX: -1; MaxScrollY: -1; AddedCount: -1; RemovedCount: -1; ParcelableData: null ]'
p144
sS'MovementGranularity'
p145
g6
sa(dp146
S'EventTime'
p147
S'225704664'
p148
sg4
L1449626994439L
sS'recordCount'
p149
g6
sS'EventType'
p150
S'TYPE_WINDOW_CONTENT_CHANGED'
p151
sS'PackageName'
p152
S'com.example.myfristandroid'
p153
sS'OutBounds'
p154
S'Rect(0, 0 - 720, 1280)'
p155
sS'Action'
p156
S'[ ClassName: android.widget.FrameLayout; Text: []; ContentDescription: null; ItemCount: -1; CurrentItemIndex: -1; IsEnabled: true; IsPassword: false; IsChecked: false; IsFullScreen: false; Scrollable: false; BeforeText: null; FromIndex: -1; ToIndex: -1; ScrollX: -1; ScrollY: -1; MaxScrollX: -1; MaxScrollY: -1; AddedCount: -1; RemovedCount: -1; ParcelableData: null ]'
p157
sS'MovementGranularity'
p158
g6
sa(dp159
S'EventTime'
p160
S'225706098'
p161
sg4
L1449626995802L
sS'recordCount'
p162
g6
sS'EventType'
p163
S'TYPE_VIEW_CLICKED'
p164
sS'PackageName'
p165
S'com.example.myfristandroid'
p166
sS'OutBounds'
p167
S'Rect(0, 1170 - 180, 1280)'
p168
sS'Action'
p169
S'[ ClassName: android.widget.LinearLayout; Text: [\xe7\x94\xbb\xe9\x9d\xa2\xe6\xb5\x8f\xe8\xa7\x88, \xe7\x94\xbb\xe9\x9d\xa2]; ContentDescription: null; ItemCount: -1; CurrentItemIndex: -1; IsEnabled: true; IsPassword: false; IsChecked: false; IsFullScreen: false; Scrollable: false; BeforeText: null; FromIndex: -1; ToIndex: -1; ScrollX: -1; ScrollY: -1; MaxScrollX: -1; MaxScrollY: -1; AddedCount: -1; RemovedCount: -1; ParcelableData: null ]'
p170
sS'MovementGranularity'
p171
g6
sa(dp172
S'EventTime'
p173
S'225706205'
p174
sg4
L1449626995953L
sS'recordCount'
p175
g6
sS'EventType'
p176
S'TYPE_WINDOW_CONTENT_CHANGED'
p177
sS'PackageName'
p178
S'com.example.myfristandroid'
p179
sS'OutBounds'
p180
S'Rect(0, 0 - 720, 1280)'
p181
sS'Action'
p182
S'[ ClassName: android.widget.FrameLayout; Text: []; ContentDescription: null; ItemCount: -1; CurrentItemIndex: -1; IsEnabled: true; IsPassword: false; IsChecked: false; IsFullScreen: false; Scrollable: false; BeforeText: null; FromIndex: -1; ToIndex: -1; ScrollX: -1; ScrollY: -1; MaxScrollX: -1; MaxScrollY: -1; AddedCount: -1; RemovedCount: -1; ParcelableData: null ]'
p183
sS'MovementGranularity'
p184
g6
sa(dp185
S'EventTime'
p186
S'225707105'
p187
sg4
L1449626996809L
sS'recordCount'
p188
g6
sS'EventType'
p189
S'TYPE_VIEW_CLICKED'
p190
sS'PackageName'
p191
S'com.example.myfristandroid'
p192
sS'OutBounds'
p193
S'Rect(0, 1170 - 180, 1280)'
p194
sS'Action'
p195
S'[ ClassName: android.widget.LinearLayout; Text: [\xe7\x94\xbb\xe9\x9d\xa2\xe6\xb5\x8f\xe8\xa7\x88, \xe7\x94\xbb\xe9\x9d\xa2]; ContentDescription: null; ItemCount: -1; CurrentItemIndex: -1; IsEnabled: true; IsPassword: false; IsChecked: false; IsFullScreen: false; Scrollable: false; BeforeText: null; FromIndex: -1; ToIndex: -1; ScrollX: -1; ScrollY: -1; MaxScrollX: -1; MaxScrollY: -1; AddedCount: -1; RemovedCount: -1; ParcelableData: null ]'
p196
sS'MovementGranularity'
p197
g6
sa(dp198
S'EventTime'
p199
S'225707261'
p200
sg4
L1449626996995L
sS'recordCount'
p201
g6
sS'EventType'
p202
S'TYPE_WINDOW_CONTENT_CHANGED'
p203
sS'PackageName'
p204
S'com.example.myfristandroid'
p205
sS'OutBounds'
p206
S'Rect(0, 0 - 720, 1280)'
p207
sS'Action'
p208
S'[ ClassName: android.widget.FrameLayout; Text: []; ContentDescription: null; ItemCount: -1; CurrentItemIndex: -1; IsEnabled: true; IsPassword: false; IsChecked: false; IsFullScreen: false; Scrollable: false; BeforeText: null; FromIndex: -1; ToIndex: -1; ScrollX: -1; ScrollY: -1; MaxScrollX: -1; MaxScrollY: -1; AddedCount: -1; RemovedCount: -1; ParcelableData: null ]'
p209
sS'MovementGranularity'
p210
g6
sa(dp211
S'EventTime'
p212
S'225707589'
p213
sg4
L1449626997294L
sS'recordCount'
p214
g6
sS'EventType'
p215
S'TYPE_VIEW_CLICKED'
p216
sS'PackageName'
p217
S'com.example.myfristandroid'
p218
sS'OutBounds'
p219
S'Rect(0, 1170 - 180, 1280)'
p220
sS'Action'
p221
S'[ ClassName: android.widget.LinearLayout; Text: [\xe7\x94\xbb\xe9\x9d\xa2\xe6\xb5\x8f\xe8\xa7\x88, \xe7\x94\xbb\xe9\x9d\xa2]; ContentDescription: null; ItemCount: -1; CurrentItemIndex: -1; IsEnabled: true; IsPassword: false; IsChecked: false; IsFullScreen: false; Scrollable: false; BeforeText: null; FromIndex: -1; ToIndex: -1; ScrollX: -1; ScrollY: -1; MaxScrollX: -1; MaxScrollY: -1; AddedCount: -1; RemovedCount: -1; ParcelableData: null ]'
p222
sS'MovementGranularity'
p223
g6
sa(dp224
S'EventTime'
p225
S'225707743'
p226
sg4
L1449626997466L
sS'recordCount'
p227
g6
sS'EventType'
p228
S'TYPE_WINDOW_CONTENT_CHANGED'
p229
sS'PackageName'
p230
S'com.example.myfristandroid'
p231
sS'OutBounds'
p232
S'Rect(0, 0 - 720, 1280)'
p233
sS'Action'
p234
S'[ ClassName: android.widget.FrameLayout; Text: []; ContentDescription: null; ItemCount: -1; CurrentItemIndex: -1; IsEnabled: true; IsPassword: false; IsChecked: false; IsFullScreen: false; Scrollable: false; BeforeText: null; FromIndex: -1; ToIndex: -1; ScrollX: -1; ScrollY: -1; MaxScrollX: -1; MaxScrollY: -1; AddedCount: -1; RemovedCount: -1; ParcelableData: null ]'
p235
sS'MovementGranularity'
p236
g6
sa(dp237
S'EventTime'
p238
S'225707798'
p239
sg4
L1449626997503L
sS'recordCount'
p240
g6
sS'EventType'
p241
S'TYPE_VIEW_CLICKED'
p242
sS'PackageName'
p243
S'com.example.myfristandroid'
p244
sS'OutBounds'
p245
S'Rect(0, 1170 - 180, 1280)'
p246
sS'Action'
p247
S'[ ClassName: android.widget.LinearLayout; Text: [\xe7\x94\xbb\xe9\x9d\xa2\xe6\xb5\x8f\xe8\xa7\x88, \xe7\x94\xbb\xe9\x9d\xa2]; ContentDescription: null; ItemCount: -1; CurrentItemIndex: -1; IsEnabled: true; IsPassword: false; IsChecked: false; IsFullScreen: false; Scrollable: false; BeforeText: null; FromIndex: -1; ToIndex: -1; ScrollX: -1; ScrollY: -1; MaxScrollX: -1; MaxScrollY: -1; AddedCount: -1; RemovedCount: -1; ParcelableData: null ]'
p248
sS'MovementGranularity'
p249
g6
sa(dp250
S'EventTime'
p251
S'225707907'
p252
sg4
L1449626997627L
sS'recordCount'
p253
g6
sS'EventType'
p254
S'TYPE_WINDOW_CONTENT_CHANGED'
p255
sS'PackageName'
p256
S'com.example.myfristandroid'
p257
sS'OutBounds'
p258
S'Rect(0, 0 - 720, 1280)'
p259
sS'Action'
p260
S'[ ClassName: android.widget.FrameLayout; Text: []; ContentDescription: null; ItemCount: -1; CurrentItemIndex: -1; IsEnabled: true; IsPassword: false; IsChecked: false; IsFullScreen: false; Scrollable: false; BeforeText: null; FromIndex: -1; ToIndex: -1; ScrollX: -1; ScrollY: -1; MaxScrollX: -1; MaxScrollY: -1; AddedCount: -1; RemovedCount: -1; ParcelableData: null ]'
p261
sS'MovementGranularity'
p262
g6
sa(dp263
S'EventTime'
p264
S'225707986'
p265
sg4
L1449626997690L
sS'recordCount'
p266
g6
sS'EventType'
p267
S'TYPE_VIEW_CLICKED'
p268
sS'PackageName'
p269
S'com.example.myfristandroid'
p270
sS'OutBounds'
p271
S'Rect(0, 1170 - 180, 1280)'
p272
sS'Action'
p273
S'[ ClassName: android.widget.LinearLayout; Text: [\xe7\x94\xbb\xe9\x9d\xa2\xe6\xb5\x8f\xe8\xa7\x88, \xe7\x94\xbb\xe9\x9d\xa2]; ContentDescription: null; ItemCount: -1; CurrentItemIndex: -1; IsEnabled: true; IsPassword: false; IsChecked: false; IsFullScreen: false; Scrollable: false; BeforeText: null; FromIndex: -1; ToIndex: -1; ScrollX: -1; ScrollY: -1; MaxScrollX: -1; MaxScrollY: -1; AddedCount: -1; RemovedCount: -1; ParcelableData: null ]'
p274
sS'MovementGranularity'
p275
g6
sa(dp276
S'EventTime'
p277
S'225708205'
p278
sg4
L1449626997941L
sS'recordCount'
p279
g6
sS'EventType'
p280
S'TYPE_WINDOW_CONTENT_CHANGED'
p281
sS'PackageName'
p282
S'com.example.myfristandroid'
p283
sS'OutBounds'
p284
S'Rect(0, 0 - 720, 1280)'
p285
sS'Action'
p286
S'[ ClassName: android.widget.FrameLayout; Text: []; ContentDescription: null; ItemCount: -1; CurrentItemIndex: -1; IsEnabled: true; IsPassword: false; IsChecked: false; IsFullScreen: false; Scrollable: false; BeforeText: null; FromIndex: -1; ToIndex: -1; ScrollX: -1; ScrollY: -1; MaxScrollX: -1; MaxScrollY: -1; AddedCount: -1; RemovedCount: -1; ParcelableData: null ]'
p287
sS'MovementGranularity'
p288
g6
sa(dp289
S'EventTime'
p290
S'225708207'
p291
sg4
L1449626997959L
sS'recordCount'
p292
g6
sS'EventType'
p293
S'TYPE_VIEW_CLICKED'
p294
sS'PackageName'
p295
S'com.example.myfristandroid'
p296
sS'OutBounds'
p297
S'Rect(0, 1170 - 180, 1280)'
p298
sS'Action'
p299
S'[ ClassName: android.widget.LinearLayout; Text: [\xe7\x94\xbb\xe9\x9d\xa2\xe6\xb5\x8f\xe8\xa7\x88, \xe7\x94\xbb\xe9\x9d\xa2]; ContentDescription: null; ItemCount: -1; CurrentItemIndex: -1; IsEnabled: true; IsPassword: false; IsChecked: false; IsFullScreen: false; Scrollable: false; BeforeText: null; FromIndex: -1; ToIndex: -1; ScrollX: -1; ScrollY: -1; MaxScrollX: -1; MaxScrollY: -1; AddedCount: -1; RemovedCount: -1; ParcelableData: null ]'
p300
sS'MovementGranularity'
p301
g6
sa(dp302
S'EventTime'
p303
S'225708340'
p304
sg4
L1449626998074L
sS'recordCount'
p305
g6
sS'EventType'
p306
S'TYPE_WINDOW_CONTENT_CHANGED'
p307
sS'PackageName'
p308
S'com.example.myfristandroid'
p309
sS'OutBounds'
p310
S'Rect(0, 0 - 720, 1280)'
p311
sS'Action'
p312
S'[ ClassName: android.widget.FrameLayout; Text: []; ContentDescription: null; ItemCount: -1; CurrentItemIndex: -1; IsEnabled: true; IsPassword: false; IsChecked: false; IsFullScreen: false; Scrollable: false; BeforeText: null; FromIndex: -1; ToIndex: -1; ScrollX: -1; ScrollY: -1; MaxScrollX: -1; MaxScrollY: -1; AddedCount: -1; RemovedCount: -1; ParcelableData: null ]'
p313
sS'MovementGranularity'
p314
g6
sa(dp315
S'EventTime'
p316
S'225708567'
p317
sg4
L1449626998268L
sS'recordCount'
p318
g6
sS'EventType'
p319
S'TYPE_VIEW_CLICKED'
p320
sS'PackageName'
p321
S'com.example.myfristandroid'
p322
sS'OutBounds'
p323
S'Rect(0, 1170 - 180, 1280)'
p324
sS'Action'
p325
S'[ ClassName: android.widget.LinearLayout; Text: [\xe7\x94\xbb\xe9\x9d\xa2\xe6\xb5\x8f\xe8\xa7\x88, \xe7\x94\xbb\xe9\x9d\xa2]; ContentDescription: null; ItemCount: -1; CurrentItemIndex: -1; IsEnabled: true; IsPassword: false; IsChecked: false; IsFullScreen: false; Scrollable: false; BeforeText: null; FromIndex: -1; ToIndex: -1; ScrollX: -1; ScrollY: -1; MaxScrollX: -1; MaxScrollY: -1; AddedCount: -1; RemovedCount: -1; ParcelableData: null ]'
p326
sS'MovementGranularity'
p327
g6
sa(dp328
S'EventTime'
p329
S'225708669'
p330
sg4
L1449626998401L
sS'recordCount'
p331
g6
sS'EventType'
p332
S'TYPE_WINDOW_CONTENT_CHANGED'
p333
sS'PackageName'
p334
S'com.example.myfristandroid'
p335
sS'OutBounds'
p336
S'Rect(0, 0 - 720, 1280)'
p337
sS'Action'
p338
S'[ ClassName: android.widget.FrameLayout; Text: []; ContentDescription: null; ItemCount: -1; CurrentItemIndex: -1; IsEnabled: true; IsPassword: false; IsChecked: false; IsFullScreen: false; Scrollable: false; BeforeText: null; FromIndex: -1; ToIndex: -1; ScrollX: -1; ScrollY: -1; MaxScrollX: -1; MaxScrollY: -1; AddedCount: -1; RemovedCount: -1; ParcelableData: null ]'
p339
sS'MovementGranularity'
p340
g6
sa(dp341
S'EventTime'
p342
S'225708728'
p343
sg4
L1449626998428L
sS'recordCount'
p344
g6
sS'EventType'
p345
S'TYPE_VIEW_CLICKED'
p346
sS'PackageName'
p347
S'com.example.myfristandroid'
p348
sS'OutBounds'
p349
S'Rect(0, 1170 - 180, 1280)'
p350
sS'Action'
p351
S'[ ClassName: android.widget.LinearLayout; Text: [\xe7\x94\xbb\xe9\x9d\xa2\xe6\xb5\x8f\xe8\xa7\x88, \xe7\x94\xbb\xe9\x9d\xa2]; ContentDescription: null; ItemCount: -1; CurrentItemIndex: -1; IsEnabled: true; IsPassword: false; IsChecked: false; IsFullScreen: false; Scrollable: false; BeforeText: null; FromIndex: -1; ToIndex: -1; ScrollX: -1; ScrollY: -1; MaxScrollX: -1; MaxScrollY: -1; AddedCount: -1; RemovedCount: -1; ParcelableData: null ]'
p352
sS'MovementGranularity'
p353
g6
sa(dp354
S'EventTime'
p355
S'225708844'
p356
sg4
L1449626998562L
sS'recordCount'
p357
g6
sS'EventType'
p358
S'TYPE_WINDOW_CONTENT_CHANGED'
p359
sS'PackageName'
p360
S'com.example.myfristandroid'
p361
sS'OutBounds'
p362
S'Rect(0, 0 - 720, 1280)'
p363
sS'Action'
p364
S'[ ClassName: android.widget.FrameLayout; Text: []; ContentDescription: null; ItemCount: -1; CurrentItemIndex: -1; IsEnabled: true; IsPassword: false; IsChecked: false; IsFullScreen: false; Scrollable: false; BeforeText: null; FromIndex: -1; ToIndex: -1; ScrollX: -1; ScrollY: -1; MaxScrollX: -1; MaxScrollY: -1; AddedCount: -1; RemovedCount: -1; ParcelableData: null ]'
p365
sS'MovementGranularity'
p366
g6
sa(dp367
S'EventTime'
p368
S'225708914'
p369
sg4
L1449626998614L
sS'recordCount'
p370
g6
sS'EventType'
p371
S'TYPE_VIEW_CLICKED'
p372
sS'PackageName'
p373
S'com.example.myfristandroid'
p374
sS'OutBounds'
p375
S'Rect(0, 1170 - 180, 1280)'
p376
sS'Action'
p377
S'[ ClassName: android.widget.LinearLayout; Text: [\xe7\x94\xbb\xe9\x9d\xa2\xe6\xb5\x8f\xe8\xa7\x88, \xe7\x94\xbb\xe9\x9d\xa2]; ContentDescription: null; ItemCount: -1; CurrentItemIndex: -1; IsEnabled: true; IsPassword: false; IsChecked: false; IsFullScreen: false; Scrollable: false; BeforeText: null; FromIndex: -1; ToIndex: -1; ScrollX: -1; ScrollY: -1; MaxScrollX: -1; MaxScrollY: -1; AddedCount: -1; RemovedCount: -1; ParcelableData: null ]'
p378
sS'MovementGranularity'
p379
g6
sa(dp380
S'EventTime'
p381
S'225709018'
p382
sg4
L1449626998750L
sS'recordCount'
p383
g6
sS'EventType'
p384
S'TYPE_WINDOW_CONTENT_CHANGED'
p385
sS'PackageName'
p386
S'com.example.myfristandroid'
p387
sS'OutBounds'
p388
S'Rect(0, 0 - 720, 1280)'
p389
sS'Action'
p390
S'[ ClassName: android.widget.FrameLayout; Text: []; ContentDescription: null; ItemCount: -1; CurrentItemIndex: -1; IsEnabled: true; IsPassword: false; IsChecked: false; IsFullScreen: false; Scrollable: false; BeforeText: null; FromIndex: -1; ToIndex: -1; ScrollX: -1; ScrollY: -1; MaxScrollX: -1; MaxScrollY: -1; AddedCount: -1; RemovedCount: -1; ParcelableData: null ]'
p391
sS'MovementGranularity'
p392
g6
sa(dp393
S'EventTime'
p394
S'225709087'
p395
sg4
L1449626998787L
sS'recordCount'
p396
g6
sS'EventType'
p397
S'TYPE_VIEW_CLICKED'
p398
sS'PackageName'
p399
S'com.example.myfristandroid'
p400
sS'OutBounds'
p401
S'Rect(0, 1170 - 180, 1280)'
p402
sS'Action'
p403
S'[ ClassName: android.widget.LinearLayout; Text: [\xe7\x94\xbb\xe9\x9d\xa2\xe6\xb5\x8f\xe8\xa7\x88, \xe7\x94\xbb\xe9\x9d\xa2]; ContentDescription: null; ItemCount: -1; CurrentItemIndex: -1; IsEnabled: true; IsPassword: false; IsChecked: false; IsFullScreen: false; Scrollable: false; BeforeText: null; FromIndex: -1; ToIndex: -1; ScrollX: -1; ScrollY: -1; MaxScrollX: -1; MaxScrollY: -1; AddedCount: -1; RemovedCount: -1; ParcelableData: null ]'
p404
sS'MovementGranularity'
p405
g6
sa(dp406
S'EventTime'
p407
S'225709212'
p408
sg4
L1449626998930L
sS'recordCount'
p409
g6
sS'EventType'
p410
S'TYPE_WINDOW_CONTENT_CHANGED'
p411
sS'PackageName'
p412
S'com.example.myfristandroid'
p413
sS'OutBounds'
p414
S'Rect(0, 0 - 720, 1280)'
p415
sS'Action'
p416
S'[ ClassName: android.widget.FrameLayout; Text: []; ContentDescription: null; ItemCount: -1; CurrentItemIndex: -1; IsEnabled: true; IsPassword: false; IsChecked: false; IsFullScreen: false; Scrollable: false; BeforeText: null; FromIndex: -1; ToIndex: -1; ScrollX: -1; ScrollY: -1; MaxScrollX: -1; MaxScrollY: -1; AddedCount: -1; RemovedCount: -1; ParcelableData: null ]'
p417
sS'MovementGranularity'
p418
g6
sa(dp419
S'EventTime'
p420
S'225709263'
p421
sg4
L1449626998962L
sS'recordCount'
p422
g6
sS'EventType'
p423
S'TYPE_VIEW_CLICKED'
p424
sS'PackageName'
p425
S'com.example.myfristandroid'
p426
sS'OutBounds'
p427
S'Rect(0, 1170 - 180, 1280)'
p428
sS'Action'
p429
S'[ ClassName: android.widget.LinearLayout; Text: [\xe7\x94\xbb\xe9\x9d\xa2\xe6\xb5\x8f\xe8\xa7\x88, \xe7\x94\xbb\xe9\x9d\xa2]; ContentDescription: null; ItemCount: -1; CurrentItemIndex: -1; IsEnabled: true; IsPassword: false; IsChecked: false; IsFullScreen: false; Scrollable: false; BeforeText: null; FromIndex: -1; ToIndex: -1; ScrollX: -1; ScrollY: -1; MaxScrollX: -1; MaxScrollY: -1; AddedCount: -1; RemovedCount: -1; ParcelableData: null ]'
p430
sS'MovementGranularity'
p431
g6
sa(dp432
S'EventTime'
p433
S'225709379'
p434
sg4
L1449626999093L
sS'recordCount'
p435
g6
sS'EventType'
p436
S'TYPE_WINDOW_CONTENT_CHANGED'
p437
sS'PackageName'
p438
S'com.example.myfristandroid'
p439
sS'OutBounds'
p440
S'Rect(0, 0 - 720, 1280)'
p441
sS'Action'
p442
S'[ ClassName: android.widget.FrameLayout; Text: []; ContentDescription: null; ItemCount: -1; CurrentItemIndex: -1; IsEnabled: true; IsPassword: false; IsChecked: false; IsFullScreen: false; Scrollable: false; BeforeText: null; FromIndex: -1; ToIndex: -1; ScrollX: -1; ScrollY: -1; MaxScrollX: -1; MaxScrollY: -1; AddedCount: -1; RemovedCount: -1; ParcelableData: null ]'
p443
sS'MovementGranularity'
p444
g6
sa(dp445
S'EventTime'
p446
S'225709436'
p447
sg4
L1449626999137L
sS'recordCount'
p448
g6
sS'EventType'
p449
S'TYPE_VIEW_CLICKED'
p450
sS'PackageName'
p451
S'com.example.myfristandroid'
p452
sS'OutBounds'
p453
S'Rect(0, 1170 - 180, 1280)'
p454
sS'Action'
p455
S'[ ClassName: android.widget.LinearLayout; Text: [\xe7\x94\xbb\xe9\x9d\xa2\xe6\xb5\x8f\xe8\xa7\x88, \xe7\x94\xbb\xe9\x9d\xa2]; ContentDescription: null; ItemCount: -1; CurrentItemIndex: -1; IsEnabled: true; IsPassword: false; IsChecked: false; IsFullScreen: false; Scrollable: false; BeforeText: null; FromIndex: -1; ToIndex: -1; ScrollX: -1; ScrollY: -1; MaxScrollX: -1; MaxScrollY: -1; AddedCount: -1; RemovedCount: -1; ParcelableData: null ]'
p456
sS'MovementGranularity'
p457
g6
sa(dp458
S'EventTime'
p459
S'225709561'
p460
sg4
L1449626999278L
sS'recordCount'
p461
g6
sS'EventType'
p462
S'TYPE_WINDOW_CONTENT_CHANGED'
p463
sS'PackageName'
p464
S'com.example.myfristandroid'
p465
sS'OutBounds'
p466
S'Rect(0, 0 - 720, 1280)'
p467
sS'Action'
p468
S'[ ClassName: android.widget.FrameLayout; Text: []; ContentDescription: null; ItemCount: -1; CurrentItemIndex: -1; IsEnabled: true; IsPassword: false; IsChecked: false; IsFullScreen: false; Scrollable: false; BeforeText: null; FromIndex: -1; ToIndex: -1; ScrollX: -1; ScrollY: -1; MaxScrollX: -1; MaxScrollY: -1; AddedCount: -1; RemovedCount: -1; ParcelableData: null ]'
p469
sS'MovementGranularity'
p470
g6
sa(dp471
S'EventTime'
p472
S'225709608'
p473
sg4
L1449626999307L
sS'recordCount'
p474
g6
sS'EventType'
p475
S'TYPE_VIEW_CLICKED'
p476
sS'PackageName'
p477
S'com.example.myfristandroid'
p478
sS'OutBounds'
p479
S'Rect(0, 1170 - 180, 1280)'
p480
sS'Action'
p481
S'[ ClassName: android.widget.LinearLayout; Text: [\xe7\x94\xbb\xe9\x9d\xa2\xe6\xb5\x8f\xe8\xa7\x88, \xe7\x94\xbb\xe9\x9d\xa2]; ContentDescription: null; ItemCount: -1; CurrentItemIndex: -1; IsEnabled: true; IsPassword: false; IsChecked: false; IsFullScreen: false; Scrollable: false; BeforeText: null; FromIndex: -1; ToIndex: -1; ScrollX: -1; ScrollY: -1; MaxScrollX: -1; MaxScrollY: -1; AddedCount: -1; RemovedCount: -1; ParcelableData: null ]'
p482
sS'MovementGranularity'
p483
g6
sa(dp484
S'EventTime'
p485
S'225709723'
p486
sg4
L1449626999437L
sS'recordCount'
p487
g6
sS'EventType'
p488
S'TYPE_WINDOW_CONTENT_CHANGED'
p489
sS'PackageName'
p490
S'com.example.myfristandroid'
p491
sS'OutBounds'
p492
S'Rect(0, 0 - 720, 1280)'
p493
sS'Action'
p494
S'[ ClassName: android.widget.FrameLayout; Text: []; ContentDescription: null; ItemCount: -1; CurrentItemIndex: -1; IsEnabled: true; IsPassword: false; IsChecked: false; IsFullScreen: false; Scrollable: false; BeforeText: null; FromIndex: -1; ToIndex: -1; ScrollX: -1; ScrollY: -1; MaxScrollX: -1; MaxScrollY: -1; AddedCount: -1; RemovedCount: -1; ParcelableData: null ]'
p495
sS'MovementGranularity'
p496
g6
sa(dp497
S'EventTime'
p498
S'225709982'
p499
sg4
L1449626999681L
sS'recordCount'
p500
g6
sS'EventType'
p501
S'TYPE_VIEW_CLICKED'
p502
sS'PackageName'
p503
S'com.example.myfristandroid'
p504
sS'OutBounds'
p505
S'Rect(0, 1170 - 180, 1280)'
p506
sS'Action'
p507
S'[ ClassName: android.widget.LinearLayout; Text: [\xe7\x94\xbb\xe9\x9d\xa2\xe6\xb5\x8f\xe8\xa7\x88, \xe7\x94\xbb\xe9\x9d\xa2]; ContentDescription: null; ItemCount: -1; CurrentItemIndex: -1; IsEnabled: true; IsPassword: false; IsChecked: false; IsFullScreen: false; Scrollable: false; BeforeText: null; FromIndex: -1; ToIndex: -1; ScrollX: -1; ScrollY: -1; MaxScrollX: -1; MaxScrollY: -1; AddedCount: -1; RemovedCount: -1; ParcelableData: null ]'
p508
sS'MovementGranularity'
p509
g6
sa(dp510
S'EventTime'
p511
S'225710097'
p512
sg4
L1449626999812L
sS'recordCount'
p513
g6
sS'EventType'
p514
S'TYPE_WINDOW_CONTENT_CHANGED'
p515
sS'PackageName'
p516
S'com.example.myfristandroid'
p517
sS'OutBounds'
p518
S'Rect(0, 0 - 720, 1280)'
p519
sS'Action'
p520
S'[ ClassName: android.widget.FrameLayout; Text: []; ContentDescription: null; ItemCount: -1; CurrentItemIndex: -1; IsEnabled: true; IsPassword: false; IsChecked: false; IsFullScreen: false; Scrollable: false; BeforeText: null; FromIndex: -1; ToIndex: -1; ScrollX: -1; ScrollY: -1; MaxScrollX: -1; MaxScrollY: -1; AddedCount: -1; RemovedCount: -1; ParcelableData: null ]'
p521
sS'MovementGranularity'
p522
g6
sa(dp523
S'EventTime'
p524
S'225710170'
p525
sg4
L1449626999870L
sS'recordCount'
p526
g6
sS'EventType'
p527
S'TYPE_VIEW_CLICKED'
p528
sS'PackageName'
p529
S'com.example.myfristandroid'
p530
sS'OutBounds'
p531
S'Rect(0, 1170 - 180, 1280)'
p532
sS'Action'
p533
S'[ ClassName: android.widget.LinearLayout; Text: [\xe7\x94\xbb\xe9\x9d\xa2\xe6\xb5\x8f\xe8\xa7\x88, \xe7\x94\xbb\xe9\x9d\xa2]; ContentDescription: null; ItemCount: -1; CurrentItemIndex: -1; IsEnabled: true; IsPassword: false; IsChecked: false; IsFullScreen: false; Scrollable: false; BeforeText: null; FromIndex: -1; ToIndex: -1; ScrollX: -1; ScrollY: -1; MaxScrollX: -1; MaxScrollY: -1; AddedCount: -1; RemovedCount: -1; ParcelableData: null ]'
p534
sS'MovementGranularity'
p535
g6
sa(dp536
S'EventTime'
p537
S'225710289'
p538
sg4
L1449627000004L
sS'recordCount'
p539
g6
sS'EventType'
p540
S'TYPE_WINDOW_CONTENT_CHANGED'
p541
sS'PackageName'
p542
S'com.example.myfristandroid'
p543
sS'OutBounds'
p544
S'Rect(0, 0 - 720, 1280)'
p545
sS'Action'
p546
S'[ ClassName: android.widget.FrameLayout; Text: []; ContentDescription: null; ItemCount: -1; CurrentItemIndex: -1; IsEnabled: true; IsPassword: false; IsChecked: false; IsFullScreen: false; Scrollable: false; BeforeText: null; FromIndex: -1; ToIndex: -1; ScrollX: -1; ScrollY: -1; MaxScrollX: -1; MaxScrollY: -1; AddedCount: -1; RemovedCount: -1; ParcelableData: null ]'
p547
sS'MovementGranularity'
p548
g6
sa(dp549
S'EventTime'
p550
S'225710342'
p551
sg4
L1449627000042L
sS'recordCount'
p552
g6
sS'EventType'
p553
S'TYPE_VIEW_CLICKED'
p554
sS'PackageName'
p555
S'com.example.myfristandroid'
p556
sS'OutBounds'
p557
S'Rect(0, 1170 - 180, 1280)'
p558
sS'Action'
p559
S'[ ClassName: android.widget.LinearLayout; Text: [\xe7\x94\xbb\xe9\x9d\xa2\xe6\xb5\x8f\xe8\xa7\x88, \xe7\x94\xbb\xe9\x9d\xa2]; ContentDescription: null; ItemCount: -1; CurrentItemIndex: -1; IsEnabled: true; IsPassword: false; IsChecked: false; IsFullScreen: false; Scrollable: false; BeforeText: null; FromIndex: -1; ToIndex: -1; ScrollX: -1; ScrollY: -1; MaxScrollX: -1; MaxScrollY: -1; AddedCount: -1; RemovedCount: -1; ParcelableData: null ]'
p560
sS'MovementGranularity'
p561
g6
sa(dp562
S'EventTime'
p563
S'225710462'
p564
sg4
L1449627000176L
sS'recordCount'
p565
g6
sS'EventType'
p566
S'TYPE_WINDOW_CONTENT_CHANGED'
p567
sS'PackageName'
p568
S'com.example.myfristandroid'
p569
sS'OutBounds'
p570
S'Rect(0, 0 - 720, 1280)'
p571
sS'Action'
p572
S'[ ClassName: android.widget.FrameLayout; Text: []; ContentDescription: null; ItemCount: -1; CurrentItemIndex: -1; IsEnabled: true; IsPassword: false; IsChecked: false; IsFullScreen: false; Scrollable: false; BeforeText: null; FromIndex: -1; ToIndex: -1; ScrollX: -1; ScrollY: -1; MaxScrollX: -1; MaxScrollY: -1; AddedCount: -1; RemovedCount: -1; ParcelableData: null ]'
p573
sS'MovementGranularity'
p574
g6
sa(dp575
S'EventTime'
p576
S'225710516'
p577
sg4
L1449627000215L
sS'recordCount'
p578
g6
sS'EventType'
p579
S'TYPE_VIEW_CLICKED'
p580
sS'PackageName'
p581
S'com.example.myfristandroid'
p582
sS'OutBounds'
p583
S'Rect(0, 1170 - 180, 1280)'
p584
sS'Action'
p585
S'[ ClassName: android.widget.LinearLayout; Text: [\xe7\x94\xbb\xe9\x9d\xa2\xe6\xb5\x8f\xe8\xa7\x88, \xe7\x94\xbb\xe9\x9d\xa2]; ContentDescription: null; ItemCount: -1; CurrentItemIndex: -1; IsEnabled: true; IsPassword: false; IsChecked: false; IsFullScreen: false; Scrollable: false; BeforeText: null; FromIndex: -1; ToIndex: -1; ScrollX: -1; ScrollY: -1; MaxScrollX: -1; MaxScrollY: -1; AddedCount: -1; RemovedCount: -1; ParcelableData: null ]'
p586
sS'MovementGranularity'
p587
g6
sa(dp588
S'EventTime'
p589
S'225710618'
p590
sg4
L1449627000347L
sS'recordCount'
p591
g6
sS'EventType'
p592
S'TYPE_WINDOW_CONTENT_CHANGED'
p593
sS'PackageName'
p594
S'com.example.myfristandroid'
p595
sS'OutBounds'
p596
S'Rect(0, 0 - 720, 1280)'
p597
sS'Action'
p598
S'[ ClassName: android.widget.FrameLayout; Text: []; ContentDescription: null; ItemCount: -1; CurrentItemIndex: -1; IsEnabled: true; IsPassword: false; IsChecked: false; IsFullScreen: false; Scrollable: false; BeforeText: null; FromIndex: -1; ToIndex: -1; ScrollX: -1; ScrollY: -1; MaxScrollX: -1; MaxScrollY: -1; AddedCount: -1; RemovedCount: -1; ParcelableData: null ]'
p599
sS'MovementGranularity'
p600
g6
sa(dp601
S'EventTime'
p602
S'225710663'
p603
sg4
L1449627000398L
sS'recordCount'
p604
g6
sS'EventType'
p605
S'TYPE_VIEW_CLICKED'
p606
sS'PackageName'
p607
S'com.example.myfristandroid'
p608
sS'OutBounds'
p609
S'Rect(0, 1170 - 180, 1280)'
p610
sS'Action'
p611
S'[ ClassName: android.widget.LinearLayout; Text: [\xe7\x94\xbb\xe9\x9d\xa2\xe6\xb5\x8f\xe8\xa7\x88, \xe7\x94\xbb\xe9\x9d\xa2]; ContentDescription: null; ItemCount: -1; CurrentItemIndex: -1; IsEnabled: true; IsPassword: false; IsChecked: false; IsFullScreen: false; Scrollable: false; BeforeText: null; FromIndex: -1; ToIndex: -1; ScrollX: -1; ScrollY: -1; MaxScrollX: -1; MaxScrollY: -1; AddedCount: -1; RemovedCount: -1; ParcelableData: null ]'
p612
sS'MovementGranularity'
p613
g6
sa(dp614
S'EventTime'
p615
S'225710791'
p616
sg4
L1449627000519L
sS'recordCount'
p617
g6
sS'EventType'
p618
S'TYPE_WINDOW_CONTENT_CHANGED'
p619
sS'PackageName'
p620
S'com.example.myfristandroid'
p621
sS'OutBounds'
p622
S'Rect(0, 0 - 720, 1280)'
p623
sS'Action'
p624
S'[ ClassName: android.widget.FrameLayout; Text: []; ContentDescription: null; ItemCount: -1; CurrentItemIndex: -1; IsEnabled: true; IsPassword: false; IsChecked: false; IsFullScreen: false; Scrollable: false; BeforeText: null; FromIndex: -1; ToIndex: -1; ScrollX: -1; ScrollY: -1; MaxScrollX: -1; MaxScrollY: -1; AddedCount: -1; RemovedCount: -1; ParcelableData: null ]'
p625
sS'MovementGranularity'
p626
g6
sa(dp627
S'EventTime'
p628
S'225711089'
p629
sg4
L1449627000791L
sS'recordCount'
p630
S'1'
p631
sS'EventType'
p632
S'TYPE_VIEW_CLICKED'
p633
sS'PackageName'
p634
S'com.example.myfristandroid'
p635
sS'OutBounds'
p636
S'Rect(6, 146 - 240, 380)'
p637
sS'Action'
p638
S'[ ClassName: android.widget.RelativeLayout; Text: [\xe4\xb8\x80\xe6\xac\xa1\xe6\x8e\xa5\xe7\xba\xbf\xe5\x9b\xbe]; ContentDescription: null; ItemCount: -1; CurrentItemIndex: -1; IsEnabled: true; IsPassword: false; IsChecked: false; IsFullScreen: false; Scrollable: false; BeforeText: null; FromIndex: -1; ToIndex: -1; ScrollX: -1; ScrollY: -1; MaxScrollX: -1; MaxScrollY: -1; AddedCount: -1; RemovedCount: -1; ParcelableData: null ]'
p639
sS'MovementGranularity'
p640
g6
sa(dp641
S'EventTime'
p642
S'225711277'
p643
sg4
L1449627000983L
sS'recordCount'
p644
g6
sS'EventType'
p645
S'TYPE_WINDOW_STATE_CHANGED'
p646
sS'PackageName'
p647
S'com.example.myfristandroid'
p648
sS'OutBounds'
p649
S'Rect(0, 0 - 720, 1280)'
p650
sS'Action'
p651
S'[ ClassName: com.example.myfristandroid.graphWebShow; Text: [SE-1800\xe7\xa7\xbb\xe5\x8a\xa8APP]; ContentDescription: null; ItemCount: -1; CurrentItemIndex: -1; IsEnabled: true; IsPassword: false; IsChecked: false; IsFullScreen: true; Scrollable: false; BeforeText: null; FromIndex: -1; ToIndex: -1; ScrollX: -1; ScrollY: -1; MaxScrollX: -1; MaxScrollY: -1; AddedCount: -1; RemovedCount: -1; ParcelableData: null ]'
p652
sS'MovementGranularity'
p653
g6
sa(dp654
S'EventTime'
p655
S'225711322'
p656
sg4
L1449627001026L
sS'recordCount'
p657
g6
sS'EventType'
p658
S'TYPE_WINDOW_CONTENT_CHANGED'
p659
sS'PackageName'
p660
S'com.example.myfristandroid'
p661
sS'OutBounds'
p662
S'Rect(0, 0 - 720, 1280)'
p663
sS'Action'
p664
S'[ ClassName: android.widget.FrameLayout; Text: []; ContentDescription: null; ItemCount: -1; CurrentItemIndex: -1; IsEnabled: true; IsPassword: false; IsChecked: false; IsFullScreen: false; Scrollable: false; BeforeText: null; FromIndex: -1; ToIndex: -1; ScrollX: -1; ScrollY: -1; MaxScrollX: -1; MaxScrollY: -1; AddedCount: -1; RemovedCount: -1; ParcelableData: null ]'
p665
sS'MovementGranularity'
p666
g6
sa(dp667
S'EventTime'
p668
S'225714535'
p669
sg4
L1449627004236L
sS'recordCount'
p670
g6
sS'EventType'
p671
S'TYPE_VIEW_CLICKED'
p672
sS'PackageName'
p673
S'com.example.myfristandroid'
p674
sS'OutBounds'
p675
S'Rect(0, 50 - 80, 140)'
p676
sS'Action'
p677
S'[ ClassName: android.widget.ImageButton; Text: []; ContentDescription: null; ItemCount: -1; CurrentItemIndex: -1; IsEnabled: true; IsPassword: false; IsChecked: false; IsFullScreen: false; Scrollable: false; BeforeText: null; FromIndex: -1; ToIndex: -1; ScrollX: -1; ScrollY: -1; MaxScrollX: -1; MaxScrollY: -1; AddedCount: -1; RemovedCount: -1; ParcelableData: null ]'
p678
sS'MovementGranularity'
p679
g6
sa(dp680
S'EventTime'
p681
S'225714610'
p682
sg4
L1449627004325L
sS'recordCount'
p683
g6
sS'EventType'
p684
S'TYPE_WINDOW_STATE_CHANGED'
p685
sS'PackageName'
p686
S'com.example.myfristandroid'
p687
sS'OutBounds'
p688
S'Rect(0, 0 - 720, 1280)'
p689
sS'Action'
p690
S'[ ClassName: com.example.myfristandroid.MainActivity; Text: [SE-1800\xe7\xa7\xbb\xe5\x8a\xa8APP]; ContentDescription: null; ItemCount: -1; CurrentItemIndex: -1; IsEnabled: true; IsPassword: false; IsChecked: false; IsFullScreen: true; Scrollable: false; BeforeText: null; FromIndex: -1; ToIndex: -1; ScrollX: -1; ScrollY: -1; MaxScrollX: -1; MaxScrollY: -1; AddedCount: -1; RemovedCount: -1; ParcelableData: null ]'
p691
sS'MovementGranularity'
p692
g6
sa(dp693
S'EventTime'
p694
S'225715648'
p695
sg4
L1449627005352L
sS'recordCount'
p696
g631
sS'EventType'
p697
S'TYPE_VIEW_CLICKED'
p698
sS'PackageName'
p699
S'com.example.myfristandroid'
p700
sS'OutBounds'
p701
S'Rect(242, 146 - 476, 380)'
p702
sS'Action'
p703
S'[ ClassName: android.widget.RelativeLayout; Text: [\xe6\x9b\xb2\xe7\xba\xbf\xe5\x9b\xbe]; ContentDescription: null; ItemCount: -1; CurrentItemIndex: -1; IsEnabled: true; IsPassword: false; IsChecked: false; IsFullScreen: false; Scrollable: false; BeforeText: null; FromIndex: -1; ToIndex: -1; ScrollX: -1; ScrollY: -1; MaxScrollX: -1; MaxScrollY: -1; AddedCount: -1; RemovedCount: -1; ParcelableData: null ]'
p704
sS'MovementGranularity'
p705
g6
sa(dp706
S'EventTime'
p707
S'225715959'
p708
sg4
L1449627005665L
sS'recordCount'
p709
g6
sS'EventType'
p710
S'TYPE_WINDOW_STATE_CHANGED'
p711
sS'PackageName'
p712
S'com.example.myfristandroid'
p713
sS'OutBounds'
p714
S'Rect(0, 0 - 720, 1280)'
p715
sS'Action'
p716
S'[ ClassName: com.example.myfristandroid.graphWebShow; Text: [SE-1800\xe7\xa7\xbb\xe5\x8a\xa8APP]; ContentDescription: null; ItemCount: -1; CurrentItemIndex: -1; IsEnabled: true; IsPassword: false; IsChecked: false; IsFullScreen: true; Scrollable: false; BeforeText: null; FromIndex: -1; ToIndex: -1; ScrollX: -1; ScrollY: -1; MaxScrollX: -1; MaxScrollY: -1; AddedCount: -1; RemovedCount: -1; ParcelableData: null ]'
p717
sS'MovementGranularity'
p718
g6
sa(dp719
S'EventTime'
p720
S'225717714'
p721
sg4
L1449627007420L
sS'recordCount'
p722
g6
sS'EventType'
p723
S'TYPE_WINDOW_CONTENT_CHANGED'
p724
sS'PackageName'
p725
S'com.example.myfristandroid'
p726
sS'OutBounds'
p727
S'Rect(0, 0 - 1280, 720)'
p728
sS'Action'
p729
S'[ ClassName: android.widget.FrameLayout; Text: []; ContentDescription: null; ItemCount: -1; CurrentItemIndex: -1; IsEnabled: true; IsPassword: false; IsChecked: false; IsFullScreen: false; Scrollable: false; BeforeText: null; FromIndex: -1; ToIndex: -1; ScrollX: -1; ScrollY: -1; MaxScrollX: -1; MaxScrollY: -1; AddedCount: -1; RemovedCount: -1; ParcelableData: null ]'
p730
sS'MovementGranularity'
p731
g6
sa(dp732
S'EventTime'
p733
S'225722722'
p734
sg4
L1449627012426L
sS'recordCount'
p735
g6
sS'EventType'
p736
S'TYPE_WINDOW_STATE_CHANGED'
p737
sS'PackageName'
p738
S'com.example.myfristandroid'
p739
sS'OutBounds'
p740
S'Rect(0, 0 - 1280, 720)'
p741
sS'Action'
p742
S'[ ClassName: com.example.myfristandroid.graphWebShow; Text: [SE-1800\xe7\xa7\xbb\xe5\x8a\xa8APP]; ContentDescription: null; ItemCount: -1; CurrentItemIndex: -1; IsEnabled: true; IsPassword: false; IsChecked: false; IsFullScreen: true; Scrollable: false; BeforeText: null; FromIndex: -1; ToIndex: -1; ScrollX: -1; ScrollY: -1; MaxScrollX: -1; MaxScrollY: -1; AddedCount: -1; RemovedCount: -1; ParcelableData: null ]'
p743
sS'MovementGranularity'
p744
g6
sa(dp745
S'EventTime'
p746
S'225723570'
p747
sg4
L1449627013310L
sS'recordCount'
p748
g6
sS'EventType'
p749
S'TYPE_WINDOW_STATE_CHANGED'
p750
sS'PackageName'
p751
S'com.example.myfristandroid'
p752
sS'OutBounds'
p753
S'Rect(0, 0 - 720, 1280)'
p754
sS'Action'
p755
S'[ ClassName: com.example.myfristandroid.MainActivity; Text: [SE-1800\xe7\xa7\xbb\xe5\x8a\xa8APP]; ContentDescription: null; ItemCount: -1; CurrentItemIndex: -1; IsEnabled: true; IsPassword: false; IsChecked: false; IsFullScreen: true; Scrollable: false; BeforeText: null; FromIndex: -1; ToIndex: -1; ScrollX: -1; ScrollY: -1; MaxScrollX: -1; MaxScrollY: -1; AddedCount: -1; RemovedCount: -1; ParcelableData: null ]'
p756
sS'MovementGranularity'
p757
g6
sa(dp758
S'EventTime'
p759
S'225724631'
p760
sg4
L1449627014334L
sS'recordCount'
p761
g631
sS'EventType'
p762
S'TYPE_VIEW_CLICKED'
p763
sS'PackageName'
p764
S'com.example.myfristandroid'
p765
sS'OutBounds'
p766
S'Rect(478, 146 - 712, 380)'
p767
sS'Action'
p768
S'[ ClassName: android.widget.RelativeLayout; Text: [\xe6\xa3\x92\xe5\x9b\xbe]; ContentDescription: null; ItemCount: -1; CurrentItemIndex: -1; IsEnabled: true; IsPassword: false; IsChecked: false; IsFullScreen: false; Scrollable: false; BeforeText: null; FromIndex: -1; ToIndex: -1; ScrollX: -1; ScrollY: -1; MaxScrollX: -1; MaxScrollY: -1; AddedCount: -1; RemovedCount: -1; ParcelableData: null ]'
p769
sS'MovementGranularity'
p770
g6
sa(dp771
S'EventTime'
p772
S'225724897'
p773
sg4
L1449627014599L
sS'recordCount'
p774
g6
sS'EventType'
p775
S'TYPE_WINDOW_STATE_CHANGED'
p776
sS'PackageName'
p777
S'com.example.myfristandroid'
p778
sS'OutBounds'
p779
S'Rect(0, 0 - 720, 1280)'
p780
sS'Action'
p781
S'[ ClassName: com.example.myfristandroid.graphWebShow; Text: [SE-1800\xe7\xa7\xbb\xe5\x8a\xa8APP]; ContentDescription: null; ItemCount: -1; CurrentItemIndex: -1; IsEnabled: true; IsPassword: false; IsChecked: false; IsFullScreen: true; Scrollable: false; BeforeText: null; FromIndex: -1; ToIndex: -1; ScrollX: -1; ScrollY: -1; MaxScrollX: -1; MaxScrollY: -1; AddedCount: -1; RemovedCount: -1; ParcelableData: null ]'
p782
sS'MovementGranularity'
p783
g6
sa(dp784
S'EventTime'
p785
S'225724929'
p786
sg4
L1449627014630L
sS'recordCount'
p787
g6
sS'EventType'
p788
S'TYPE_WINDOW_CONTENT_CHANGED'
p789
sS'PackageName'
p790
S'com.example.myfristandroid'
p791
sS'OutBounds'
p792
S'Rect(0, 0 - 720, 1280)'
p793
sS'Action'
p794
S'[ ClassName: android.widget.FrameLayout; Text: []; ContentDescription: null; ItemCount: -1; CurrentItemIndex: -1; IsEnabled: true; IsPassword: false; IsChecked: false; IsFullScreen: false; Scrollable: false; BeforeText: null; FromIndex: -1; ToIndex: -1; ScrollX: -1; ScrollY: -1; MaxScrollX: -1; MaxScrollY: -1; AddedCount: -1; RemovedCount: -1; ParcelableData: null ]'
p795
sS'MovementGranularity'
p796
g6
sa(dp797
S'EventTime'
p798
S'225725397'
p799
sg4
L1449627015098L
sS'recordCount'
p800
g6
sS'EventType'
p801
S'TYPE_WINDOW_CONTENT_CHANGED'
p802
sS'PackageName'
p803
S'com.example.myfristandroid'
p804
sS'OutBounds'
p805
S'Rect(0, 0 - 1280, 720)'
p806
sS'Action'
p807
S'[ ClassName: android.widget.FrameLayout; Text: []; ContentDescription: null; ItemCount: -1; CurrentItemIndex: -1; IsEnabled: true; IsPassword: false; IsChecked: false; IsFullScreen: false; Scrollable: false; BeforeText: null; FromIndex: -1; ToIndex: -1; ScrollX: -1; ScrollY: -1; MaxScrollX: -1; MaxScrollY: -1; AddedCount: -1; RemovedCount: -1; ParcelableData: null ]'
p808
sS'MovementGranularity'
p809
g6
sa(dp810
S'EventTime'
p811
S'225728071'
p812
sg4
L1449627017773L
sS'recordCount'
p813
g6
sS'EventType'
p814
S'TYPE_WINDOW_STATE_CHANGED'
p815
sS'PackageName'
p816
S'com.example.myfristandroid'
p817
sS'OutBounds'
p818
S'Rect(0, 0 - 1280, 720)'
p819
sS'Action'
p820
S'[ ClassName: com.example.myfristandroid.graphWebShow; Text: [SE-1800\xe7\xa7\xbb\xe5\x8a\xa8APP]; ContentDescription: null; ItemCount: -1; CurrentItemIndex: -1; IsEnabled: true; IsPassword: false; IsChecked: false; IsFullScreen: true; Scrollable: false; BeforeText: null; FromIndex: -1; ToIndex: -1; ScrollX: -1; ScrollY: -1; MaxScrollX: -1; MaxScrollY: -1; AddedCount: -1; RemovedCount: -1; ParcelableData: null ]'
p821
sS'MovementGranularity'
p822
g6
sa(dp823
S'EventTime'
p824
S'225729425'
p825
sg4
L1449627019128L
sS'recordCount'
p826
g6
sS'EventType'
p827
S'TYPE_WINDOW_STATE_CHANGED'
p828
sS'PackageName'
p829
S'com.example.myfristandroid'
p830
sS'OutBounds'
p831
S'Rect(0, 0 - 1280, 720)'
p832
sS'Action'
p833
S'[ ClassName: com.example.myfristandroid.graphWebShow; Text: [SE-1800\xe7\xa7\xbb\xe5\x8a\xa8APP]; ContentDescription: null; ItemCount: -1; CurrentItemIndex: -1; IsEnabled: true; IsPassword: false; IsChecked: false; IsFullScreen: true; Scrollable: false; BeforeText: null; FromIndex: -1; ToIndex: -1; ScrollX: -1; ScrollY: -1; MaxScrollX: -1; MaxScrollY: -1; AddedCount: -1; RemovedCount: -1; ParcelableData: null ]'
p834
sS'MovementGranularity'
p835
g6
sa(dp836
S'EventTime'
p837
S'225729912'
p838
sg4
L1449627019627L
sS'recordCount'
p839
g6
sS'EventType'
p840
S'TYPE_WINDOW_STATE_CHANGED'
p841
sS'PackageName'
p842
S'com.example.myfristandroid'
p843
sS'OutBounds'
p844
S'Rect(0, 0 - 720, 1280)'
p845
sS'Action'
p846
S'[ ClassName: com.example.myfristandroid.MainActivity; Text: [SE-1800\xe7\xa7\xbb\xe5\x8a\xa8APP]; ContentDescription: null; ItemCount: -1; CurrentItemIndex: -1; IsEnabled: true; IsPassword: false; IsChecked: false; IsFullScreen: true; Scrollable: false; BeforeText: null; FromIndex: -1; ToIndex: -1; ScrollX: -1; ScrollY: -1; MaxScrollX: -1; MaxScrollY: -1; AddedCount: -1; RemovedCount: -1; ParcelableData: null ]'
p847
sS'MovementGranularity'
p848
g6
sa(dp849
S'EventTime'
p850
S'225734422'
p851
sg4
L1449627024122L
sS'recordCount'
p852
g631
sS'EventType'
p853
S'TYPE_VIEW_CLICKED'
p854
sS'PackageName'
p855
S'com.example.myfristandroid'
p856
sS'OutBounds'
p857
S'Rect(6, 382 - 240, 616)'
p858
sS'Action'
p859
S'[ ClassName: android.widget.RelativeLayout; Text: [\xe9\x80\x86\xe5\x8f\x98\xe5\x99\xa8]; ContentDescription: null; ItemCount: -1; CurrentItemIndex: -1; IsEnabled: true; IsPassword: false; IsChecked: false; IsFullScreen: false; Scrollable: false; BeforeText: null; FromIndex: -1; ToIndex: -1; ScrollX: -1; ScrollY: -1; MaxScrollX: -1; MaxScrollY: -1; AddedCount: -1; RemovedCount: -1; ParcelableData: null ]'
p860
sS'MovementGranularity'
p861
g6
sa(dp862
S'EventTime'
p863
S'225734558'
p864
sg4
L1449627024260L
sS'recordCount'
p865
g6
sS'EventType'
p866
S'TYPE_WINDOW_STATE_CHANGED'
p867
sS'PackageName'
p868
S'com.example.myfristandroid'
p869
sS'OutBounds'
p870
S'Rect(0, 0 - 720, 1280)'
p871
sS'Action'
p872
S'[ ClassName: com.example.myfristandroid.graphWebShow; Text: [SE-1800\xe7\xa7\xbb\xe5\x8a\xa8APP]; ContentDescription: null; ItemCount: -1; CurrentItemIndex: -1; IsEnabled: true; IsPassword: false; IsChecked: false; IsFullScreen: true; Scrollable: false; BeforeText: null; FromIndex: -1; ToIndex: -1; ScrollX: -1; ScrollY: -1; MaxScrollX: -1; MaxScrollY: -1; AddedCount: -1; RemovedCount: -1; ParcelableData: null ]'
p873
sS'MovementGranularity'
p874
g6
sa(dp875
S'EventTime'
p876
S'225734608'
p877
sg4
L1449627024311L
sS'recordCount'
p878
g6
sS'EventType'
p879
S'TYPE_WINDOW_CONTENT_CHANGED'
p880
sS'PackageName'
p881
S'com.example.myfristandroid'
p882
sS'OutBounds'
p883
S'Rect(0, 0 - 720, 1280)'
p884
sS'Action'
p885
S'[ ClassName: android.widget.FrameLayout; Text: []; ContentDescription: null; ItemCount: -1; CurrentItemIndex: -1; IsEnabled: true; IsPassword: false; IsChecked: false; IsFullScreen: false; Scrollable: false; BeforeText: null; FromIndex: -1; ToIndex: -1; ScrollX: -1; ScrollY: -1; MaxScrollX: -1; MaxScrollY: -1; AddedCount: -1; RemovedCount: -1; ParcelableData: null ]'
p886
sS'MovementGranularity'
p887
g6
sa(dp888
S'EventTime'
p889
S'225735593'
p890
sg4
L1449627025295L
sS'recordCount'
p891
g6
sS'EventType'
p892
S'TYPE_WINDOW_CONTENT_CHANGED'
p893
sS'PackageName'
p894
S'com.example.myfristandroid'
p895
sS'OutBounds'
p896
S'Rect(0, 0 - 1280, 720)'
p897
sS'Action'
p898
S'[ ClassName: android.widget.FrameLayout; Text: []; ContentDescription: null; ItemCount: -1; CurrentItemIndex: -1; IsEnabled: true; IsPassword: false; IsChecked: false; IsFullScreen: false; Scrollable: false; BeforeText: null; FromIndex: -1; ToIndex: -1; ScrollX: -1; ScrollY: -1; MaxScrollX: -1; MaxScrollY: -1; AddedCount: -1; RemovedCount: -1; ParcelableData: null ]'
p899
sS'MovementGranularity'
p900
g6
sa(dp901
S'EventTime'
p902
S'225737610'
p903
sg4
L1449627027332L
sS'recordCount'
p904
g6
sS'EventType'
p905
S'TYPE_WINDOW_STATE_CHANGED'
p906
sS'PackageName'
p907
S'com.example.myfristandroid'
p908
sS'OutBounds'
p909
S'Rect(0, 0 - 720, 1280)'
p910
sS'Action'
p911
S'[ ClassName: com.example.myfristandroid.MainActivity; Text: [SE-1800\xe7\xa7\xbb\xe5\x8a\xa8APP]; ContentDescription: null; ItemCount: -1; CurrentItemIndex: -1; IsEnabled: true; IsPassword: false; IsChecked: false; IsFullScreen: true; Scrollable: false; BeforeText: null; FromIndex: -1; ToIndex: -1; ScrollX: -1; ScrollY: -1; MaxScrollX: -1; MaxScrollY: -1; AddedCount: -1; RemovedCount: -1; ParcelableData: null ]'
p912
sS'MovementGranularity'
p913
g6
sa(dp914
S'EventTime'
p915
S'225738593'
p916
sg4
L1449627028386L
sS'recordCount'
p917
g631
sS'EventType'
p918
S'TYPE_VIEW_CLICKED'
p919
sS'PackageName'
p920
S'com.example.myfristandroid'
p921
sS'OutBounds'
p922
S'Rect(242, 382 - 476, 616)'
p923
sS'Action'
p924
S'[ ClassName: android.widget.RelativeLayout; Text: [\xe6\xb1\x87\xe6\xb5\x81\xe7\xae\xb1]; ContentDescription: null; ItemCount: -1; CurrentItemIndex: -1; IsEnabled: true; IsPassword: false; IsChecked: false; IsFullScreen: false; Scrollable: false; BeforeText: null; FromIndex: -1; ToIndex: -1; ScrollX: -1; ScrollY: -1; MaxScrollX: -1; MaxScrollY: -1; AddedCount: -1; RemovedCount: -1; ParcelableData: null ]'
p925
sS'MovementGranularity'
p926
g6
sa(dp927
S'EventTime'
p928
S'225738910'
p929
sg4
L1449627028613L
sS'recordCount'
p930
g6
sS'EventType'
p931
S'TYPE_WINDOW_STATE_CHANGED'
p932
sS'PackageName'
p933
S'com.example.myfristandroid'
p934
sS'OutBounds'
p935
S'Rect(0, 0 - 720, 1280)'
p936
sS'Action'
p937
S'[ ClassName: com.example.myfristandroid.graphWebShow; Text: [SE-1800\xe7\xa7\xbb\xe5\x8a\xa8APP]; ContentDescription: null; ItemCount: -1; CurrentItemIndex: -1; IsEnabled: true; IsPassword: false; IsChecked: false; IsFullScreen: true; Scrollable: false; BeforeText: null; FromIndex: -1; ToIndex: -1; ScrollX: -1; ScrollY: -1; MaxScrollX: -1; MaxScrollY: -1; AddedCount: -1; RemovedCount: -1; ParcelableData: null ]'
p938
sS'MovementGranularity'
p939
g6
sa(dp940
S'EventTime'
p941
S'225738968'
p942
sg4
L1449627028670L
sS'recordCount'
p943
g6
sS'EventType'
p944
S'TYPE_WINDOW_CONTENT_CHANGED'
p945
sS'PackageName'
p946
S'com.example.myfristandroid'
p947
sS'OutBounds'
p948
S'Rect(0, 0 - 720, 1280)'
p949
sS'Action'
p950
S'[ ClassName: android.widget.FrameLayout; Text: []; ContentDescription: null; ItemCount: -1; CurrentItemIndex: -1; IsEnabled: true; IsPassword: false; IsChecked: false; IsFullScreen: false; Scrollable: false; BeforeText: null; FromIndex: -1; ToIndex: -1; ScrollX: -1; ScrollY: -1; MaxScrollX: -1; MaxScrollY: -1; AddedCount: -1; RemovedCount: -1; ParcelableData: null ]'
p951
sS'MovementGranularity'
p952
g6
sa(dp953
S'EventTime'
p954
S'225740228'
p955
sg4
L1449627029965L
sS'recordCount'
p956
g6
sS'EventType'
p957
S'TYPE_WINDOW_CONTENT_CHANGED'
p958
sS'PackageName'
p959
S'com.example.myfristandroid'
p960
sS'OutBounds'
p961
S'Rect(0, 0 - 1280, 720)'
p962
sS'Action'
p963
S'[ ClassName: android.widget.FrameLayout; Text: []; ContentDescription: null; ItemCount: -1; CurrentItemIndex: -1; IsEnabled: true; IsPassword: false; IsChecked: false; IsFullScreen: false; Scrollable: false; BeforeText: null; FromIndex: -1; ToIndex: -1; ScrollX: -1; ScrollY: -1; MaxScrollX: -1; MaxScrollY: -1; AddedCount: -1; RemovedCount: -1; ParcelableData: null ]'
p964
sS'MovementGranularity'
p965
g6
sa(dp966
S'EventTime'
p967
S'225744337'
p968
sg4
L1449627034039L
sS'recordCount'
p969
g6
sS'EventType'
p970
S'TYPE_WINDOW_STATE_CHANGED'
p971
sS'PackageName'
p972
S'com.example.myfristandroid'
p973
sS'OutBounds'
p974
S'Rect(540, 285 - 740, 485)'
p975
sS'Action'
p976
S'[ ClassName: com.example.myfristandroid.CustomProgressDialog; Text: []; ContentDescription: null; ItemCount: -1; CurrentItemIndex: -1; IsEnabled: true; IsPassword: false; IsChecked: false; IsFullScreen: false; Scrollable: false; BeforeText: null; FromIndex: -1; ToIndex: -1; ScrollX: -1; ScrollY: -1; MaxScrollX: -1; MaxScrollY: -1; AddedCount: -1; RemovedCount: -1; ParcelableData: null ]'
p977
sS'MovementGranularity'
p978
g6
sa(dp979
S'EventTime'
p980
S'225744398'
p981
sg4
L1449627034110L
sS'recordCount'
p982
g6
sS'EventType'
p983
S'TYPE_WINDOW_CONTENT_CHANGED'
p984
sS'PackageName'
p985
S'com.example.myfristandroid'
p986
sS'OutBounds'
p987
S'Rect(540, 285 - 740, 485)'
p988
sS'Action'
p989
S'[ ClassName: android.widget.FrameLayout; Text: []; ContentDescription: null; ItemCount: -1; CurrentItemIndex: -1; IsEnabled: true; IsPassword: false; IsChecked: false; IsFullScreen: false; Scrollable: false; BeforeText: null; FromIndex: -1; ToIndex: -1; ScrollX: -1; ScrollY: -1; MaxScrollX: -1; MaxScrollY: -1; AddedCount: -1; RemovedCount: -1; ParcelableData: null ]'
p990
sS'MovementGranularity'
p991
g6
sa(dp992
S'EventTime'
p993
S'225747342'
p994
sg4
L1449627037044L
sS'recordCount'
p995
g6
sS'EventType'
p996
S'TYPE_WINDOW_STATE_CHANGED'
p997
sS'PackageName'
p998
S'com.example.myfristandroid'
p999
sS'OutBounds'
p1000
S'Rect(0, 0 - 1280, 720)'
p1001
sS'Action'
p1002
S'[ ClassName: com.example.myfristandroid.graphWebShow; Text: [SE-1800\xe7\xa7\xbb\xe5\x8a\xa8APP]; ContentDescription: null; ItemCount: -1; CurrentItemIndex: -1; IsEnabled: true; IsPassword: false; IsChecked: false; IsFullScreen: true; Scrollable: false; BeforeText: null; FromIndex: -1; ToIndex: -1; ScrollX: -1; ScrollY: -1; MaxScrollX: -1; MaxScrollY: -1; AddedCount: -1; RemovedCount: -1; ParcelableData: null ]'
p1003
sS'MovementGranularity'
p1004
g6
sa(dp1005
S'EventTime'
p1006
S'225750009'
p1007
sg4
L1449627039732L
sS'recordCount'
p1008
g6
sS'EventType'
p1009
S'TYPE_WINDOW_STATE_CHANGED'
p1010
sS'PackageName'
p1011
S'com.example.myfristandroid'
p1012
sS'OutBounds'
p1013
S'Rect(0, 0 - 720, 1280)'
p1014
sS'Action'
p1015
S'[ ClassName: com.example.myfristandroid.MainActivity; Text: [SE-1800\xe7\xa7\xbb\xe5\x8a\xa8APP]; ContentDescription: null; ItemCount: -1; CurrentItemIndex: -1; IsEnabled: true; IsPassword: false; IsChecked: false; IsFullScreen: true; Scrollable: false; BeforeText: null; FromIndex: -1; ToIndex: -1; ScrollX: -1; ScrollY: -1; MaxScrollX: -1; MaxScrollY: -1; AddedCount: -1; RemovedCount: -1; ParcelableData: null ]'
p1016
sS'MovementGranularity'
p1017
g6
sa(dp1018
S'EventTime'
p1019
S'225753272'
p1020
sg4
L1449627042973L
sS'recordCount'
p1021
g631
sS'EventType'
p1022
S'TYPE_VIEW_CLICKED'
p1023
sS'PackageName'
p1024
S'com.example.myfristandroid'
p1025
sS'OutBounds'
p1026
S'Rect(478, 382 - 712, 616)'
p1027
sS'Action'
p1028
S'[ ClassName: android.widget.RelativeLayout; Text: [\xe7\x8e\xaf\xe5\xa2\x83\xe7\x9b\x91\xe6\xb5\x8b]; ContentDescription: null; ItemCount: -1; CurrentItemIndex: -1; IsEnabled: true; IsPassword: false; IsChecked: false; IsFullScreen: false; Scrollable: false; BeforeText: null; FromIndex: -1; ToIndex: -1; ScrollX: -1; ScrollY: -1; MaxScrollX: -1; MaxScrollY: -1; AddedCount: -1; RemovedCount: -1; ParcelableData: null ]'
p1029
sS'MovementGranularity'
p1030
g6
sa(dp1031
S'EventTime'
p1032
S'225753422'
p1033
sg4
L1449627043125L
sS'recordCount'
p1034
g6
sS'EventType'
p1035
S'TYPE_WINDOW_STATE_CHANGED'
p1036
sS'PackageName'
p1037
S'com.example.myfristandroid'
p1038
sS'OutBounds'
p1039
S'Rect(0, 0 - 720, 1280)'
p1040
sS'Action'
p1041
S'[ ClassName: com.example.myfristandroid.graphWebShow; Text: [SE-1800\xe7\xa7\xbb\xe5\x8a\xa8APP]; ContentDescription: null; ItemCount: -1; CurrentItemIndex: -1; IsEnabled: true; IsPassword: false; IsChecked: false; IsFullScreen: true; Scrollable: false; BeforeText: null; FromIndex: -1; ToIndex: -1; ScrollX: -1; ScrollY: -1; MaxScrollX: -1; MaxScrollY: -1; AddedCount: -1; RemovedCount: -1; ParcelableData: null ]'
p1042
sS'MovementGranularity'
p1043
g6
sa(dp1044
S'EventTime'
p1045
S'225753480'
p1046
sg4
L1449627043182L
sS'recordCount'
p1047
g6
sS'EventType'
p1048
S'TYPE_WINDOW_CONTENT_CHANGED'
p1049
sS'PackageName'
p1050
S'com.example.myfristandroid'
p1051
sS'OutBounds'
p1052
S'Rect(0, 0 - 720, 1280)'
p1053
sS'Action'
p1054
S'[ ClassName: android.widget.FrameLayout; Text: []; ContentDescription: null; ItemCount: -1; CurrentItemIndex: -1; IsEnabled: true; IsPassword: false; IsChecked: false; IsFullScreen: false; Scrollable: false; BeforeText: null; FromIndex: -1; ToIndex: -1; ScrollX: -1; ScrollY: -1; MaxScrollX: -1; MaxScrollY: -1; AddedCount: -1; RemovedCount: -1; ParcelableData: null ]'
p1055
sS'MovementGranularity'
p1056
g6
sa(dp1057
S'EventTime'
p1058
S'225754509'
p1059
sg4
L1449627044224L
sS'recordCount'
p1060
g6
sS'EventType'
p1061
S'TYPE_WINDOW_CONTENT_CHANGED'
p1062
sS'PackageName'
p1063
S'com.example.myfristandroid'
p1064
sS'OutBounds'
p1065
S'Rect(0, 0 - 1280, 720)'
p1066
sS'Action'
p1067
S'[ ClassName: android.widget.FrameLayout; Text: []; ContentDescription: null; ItemCount: -1; CurrentItemIndex: -1; IsEnabled: true; IsPassword: false; IsChecked: false; IsFullScreen: false; Scrollable: false; BeforeText: null; FromIndex: -1; ToIndex: -1; ScrollX: -1; ScrollY: -1; MaxScrollX: -1; MaxScrollY: -1; AddedCount: -1; RemovedCount: -1; ParcelableData: null ]'
p1068
sS'MovementGranularity'
p1069
g6
sa(dp1070
S'EventTime'
p1071
S'225756831'
p1072
sg4
L1449627046548L
sS'recordCount'
p1073
g6
sS'EventType'
p1074
S'TYPE_WINDOW_STATE_CHANGED'
p1075
sS'PackageName'
p1076
S'com.example.myfristandroid'
p1077
sS'OutBounds'
p1078
S'Rect(0, 0 - 720, 1280)'
p1079
sS'Action'
p1080
S'[ ClassName: com.example.myfristandroid.MainActivity; Text: [SE-1800\xe7\xa7\xbb\xe5\x8a\xa8APP]; ContentDescription: null; ItemCount: -1; CurrentItemIndex: -1; IsEnabled: true; IsPassword: false; IsChecked: false; IsFullScreen: true; Scrollable: false; BeforeText: null; FromIndex: -1; ToIndex: -1; ScrollX: -1; ScrollY: -1; MaxScrollX: -1; MaxScrollY: -1; AddedCount: -1; RemovedCount: -1; ParcelableData: null ]'
p1081
sS'MovementGranularity'
p1082
g6
sa(dp1083
S'EventTime'
p1084
S'225758608'
p1085
sg4
L1449627048309L
sS'recordCount'
p1086
g631
sS'EventType'
p1087
S'TYPE_VIEW_CLICKED'
p1088
sS'PackageName'
p1089
S'com.example.myfristandroid'
p1090
sS'OutBounds'
p1091
S'Rect(6, 618 - 240, 852)'
p1092
sS'Action'
p1093
S'[ ClassName: android.widget.RelativeLayout; Text: [\xe7\xb3\xbb\xe7\xbb\x9f\xe6\x8b\x93\xe6\x89\x91\xe5\x9b\xbe]; ContentDescription: null; ItemCount: -1; CurrentItemIndex: -1; IsEnabled: true; IsPassword: false; IsChecked: false; IsFullScreen: false; Scrollable: false; BeforeText: null; FromIndex: -1; ToIndex: -1; ScrollX: -1; ScrollY: -1; MaxScrollX: -1; MaxScrollY: -1; AddedCount: -1; RemovedCount: -1; ParcelableData: null ]'
p1094
sS'MovementGranularity'
p1095
g6
sa(dp1096
S'EventTime'
p1097
S'225758772'
p1098
sg4
L1449627048475L
sS'recordCount'
p1099
g6
sS'EventType'
p1100
S'TYPE_WINDOW_STATE_CHANGED'
p1101
sS'PackageName'
p1102
S'com.example.myfristandroid'
p1103
sS'OutBounds'
p1104
S'Rect(0, 0 - 720, 1280)'
p1105
sS'Action'
p1106
S'[ ClassName: com.example.myfristandroid.graphWebShow; Text: [SE-1800\xe7\xa7\xbb\xe5\x8a\xa8APP]; ContentDescription: null; ItemCount: -1; CurrentItemIndex: -1; IsEnabled: true; IsPassword: false; IsChecked: false; IsFullScreen: true; Scrollable: false; BeforeText: null; FromIndex: -1; ToIndex: -1; ScrollX: -1; ScrollY: -1; MaxScrollX: -1; MaxScrollY: -1; AddedCount: -1; RemovedCount: -1; ParcelableData: null ]'
p1107
sS'MovementGranularity'
p1108
g6
sa(dp1109
S'EventTime'
p1110
S'225758825'
p1111
sg4
L1449627048526L
sS'recordCount'
p1112
g6
sS'EventType'
p1113
S'TYPE_WINDOW_CONTENT_CHANGED'
p1114
sS'PackageName'
p1115
S'com.example.myfristandroid'
p1116
sS'OutBounds'
p1117
S'Rect(0, 0 - 720, 1280)'
p1118
sS'Action'
p1119
S'[ ClassName: android.widget.FrameLayout; Text: []; ContentDescription: null; ItemCount: -1; CurrentItemIndex: -1; IsEnabled: true; IsPassword: false; IsChecked: false; IsFullScreen: false; Scrollable: false; BeforeText: null; FromIndex: -1; ToIndex: -1; ScrollX: -1; ScrollY: -1; MaxScrollX: -1; MaxScrollY: -1; AddedCount: -1; RemovedCount: -1; ParcelableData: null ]'
p1120
sS'MovementGranularity'
p1121
g6
sa(dp1122
S'EventTime'
p1123
S'225760173'
p1124
sg4
L1449627049875L
sS'recordCount'
p1125
g6
sS'EventType'
p1126
S'TYPE_WINDOW_CONTENT_CHANGED'
p1127
sS'PackageName'
p1128
S'com.example.myfristandroid'
p1129
sS'OutBounds'
p1130
S'Rect(0, 0 - 1280, 720)'
p1131
sS'Action'
p1132
S'[ ClassName: android.widget.FrameLayout; Text: []; ContentDescription: null; ItemCount: -1; CurrentItemIndex: -1; IsEnabled: true; IsPassword: false; IsChecked: false; IsFullScreen: false; Scrollable: false; BeforeText: null; FromIndex: -1; ToIndex: -1; ScrollX: -1; ScrollY: -1; MaxScrollX: -1; MaxScrollY: -1; AddedCount: -1; RemovedCount: -1; ParcelableData: null ]'
p1133
sS'MovementGranularity'
p1134
g6
sa(dp1135
S'EventTime'
p1136
S'225764627'
p1137
sg4
L1449627054345L
sS'recordCount'
p1138
g6
sS'EventType'
p1139
S'TYPE_WINDOW_STATE_CHANGED'
p1140
sS'PackageName'
p1141
S'com.example.myfristandroid'
p1142
sS'OutBounds'
p1143
S'Rect(0, 0 - 720, 1280)'
p1144
sS'Action'
p1145
S'[ ClassName: com.example.myfristandroid.MainActivity; Text: [SE-1800\xe7\xa7\xbb\xe5\x8a\xa8APP]; ContentDescription: null; ItemCount: -1; CurrentItemIndex: -1; IsEnabled: true; IsPassword: false; IsChecked: false; IsFullScreen: true; Scrollable: false; BeforeText: null; FromIndex: -1; ToIndex: -1; ScrollX: -1; ScrollY: -1; MaxScrollX: -1; MaxScrollY: -1; AddedCount: -1; RemovedCount: -1; ParcelableData: null ]'
p1146
sS'MovementGranularity'
p1147
g6
sa(dp1148
S'EventTime'
p1149
S'225767615'
p1150
sg4
L1449627057317L
sS'recordCount'
p1151
g6
sS'EventType'
p1152
S'TYPE_VIEW_CLICKED'
p1153
sS'PackageName'
p1154
S'com.example.myfristandroid'
p1155
sS'OutBounds'
p1156
S'Rect(0, 1170 - 180, 1280)'
p1157
sS'Action'
p1158
S'[ ClassName: android.widget.LinearLayout; Text: [\xe7\x94\xbb\xe9\x9d\xa2\xe6\xb5\x8f\xe8\xa7\x88, \xe7\x94\xbb\xe9\x9d\xa2]; ContentDescription: null; ItemCount: -1; CurrentItemIndex: -1; IsEnabled: true; IsPassword: false; IsChecked: false; IsFullScreen: false; Scrollable: false; BeforeText: null; FromIndex: -1; ToIndex: -1; ScrollX: -1; ScrollY: -1; MaxScrollX: -1; MaxScrollY: -1; AddedCount: -1; RemovedCount: -1; ParcelableData: null ]'
p1159
sS'MovementGranularity'
p1160
g6
sa(dp1161
S'EventTime'
p1162
S'225767753'
p1163
sg4
L1449627057480L
sS'recordCount'
p1164
g6
sS'EventType'
p1165
S'TYPE_WINDOW_CONTENT_CHANGED'
p1166
sS'PackageName'
p1167
S'com.example.myfristandroid'
p1168
sS'OutBounds'
p1169
S'Rect(0, 0 - 720, 1280)'
p1170
sS'Action'
p1171
S'[ ClassName: android.widget.FrameLayout; Text: []; ContentDescription: null; ItemCount: -1; CurrentItemIndex: -1; IsEnabled: true; IsPassword: false; IsChecked: false; IsFullScreen: false; Scrollable: false; BeforeText: null; FromIndex: -1; ToIndex: -1; ScrollX: -1; ScrollY: -1; MaxScrollX: -1; MaxScrollY: -1; AddedCount: -1; RemovedCount: -1; ParcelableData: null ]'
p1172
sS'MovementGranularity'
p1173
g6
sa(dp1174
S'EventTime'
p1175
S'225768080'
p1176
sg4
L1449627057779L
sS'recordCount'
p1177
g6
sS'EventType'
p1178
S'TYPE_VIEW_CLICKED'
p1179
sS'PackageName'
p1180
S'com.example.myfristandroid'
p1181
sS'OutBounds'
p1182
S'Rect(0, 1170 - 180, 1280)'
p1183
sS'Action'
p1184
S'[ ClassName: android.widget.LinearLayout; Text: [\xe7\x94\xbb\xe9\x9d\xa2\xe6\xb5\x8f\xe8\xa7\x88, \xe7\x94\xbb\xe9\x9d\xa2]; ContentDescription: null; ItemCount: -1; CurrentItemIndex: -1; IsEnabled: true; IsPassword: false; IsChecked: false; IsFullScreen: false; Scrollable: false; BeforeText: null; FromIndex: -1; ToIndex: -1; ScrollX: -1; ScrollY: -1; MaxScrollX: -1; MaxScrollY: -1; AddedCount: -1; RemovedCount: -1; ParcelableData: null ]'
p1185
sS'MovementGranularity'
p1186
g6
sa(dp1187
S'EventTime'
p1188
S'225768198'
p1189
sg4
L1449627057923L
sS'recordCount'
p1190
g6
sS'EventType'
p1191
S'TYPE_WINDOW_CONTENT_CHANGED'
p1192
sS'PackageName'
p1193
S'com.example.myfristandroid'
p1194
sS'OutBounds'
p1195
S'Rect(0, 0 - 720, 1280)'
p1196
sS'Action'
p1197
S'[ ClassName: android.widget.FrameLayout; Text: []; ContentDescription: null; ItemCount: -1; CurrentItemIndex: -1; IsEnabled: true; IsPassword: false; IsChecked: false; IsFullScreen: false; Scrollable: false; BeforeText: null; FromIndex: -1; ToIndex: -1; ScrollX: -1; ScrollY: -1; MaxScrollX: -1; MaxScrollY: -1; AddedCount: -1; RemovedCount: -1; ParcelableData: null ]'
p1198
sS'MovementGranularity'
p1199
g6
sa(dp1200
S'EventTime'
p1201
S'225768340'
p1202
sg4
L1449627058051L
sS'recordCount'
p1203
g6
sS'EventType'
p1204
S'TYPE_VIEW_CLICKED'
p1205
sS'PackageName'
p1206
S'com.example.myfristandroid'
p1207
sS'OutBounds'
p1208
S'Rect(0, 1170 - 180, 1280)'
p1209
sS'Action'
p1210
S'[ ClassName: android.widget.LinearLayout; Text: [\xe7\x94\xbb\xe9\x9d\xa2\xe6\xb5\x8f\xe8\xa7\x88, \xe7\x94\xbb\xe9\x9d\xa2]; ContentDescription: null; ItemCount: -1; CurrentItemIndex: -1; IsEnabled: true; IsPassword: false; IsChecked: false; IsFullScreen: false; Scrollable: false; BeforeText: null; FromIndex: -1; ToIndex: -1; ScrollX: -1; ScrollY: -1; MaxScrollX: -1; MaxScrollY: -1; AddedCount: -1; RemovedCount: -1; ParcelableData: null ]'
p1211
sS'MovementGranularity'
p1212
g6
sa(dp1213
S'EventTime'
p1214
S'225768456'
p1215
sg4
L1449627058181L
sS'recordCount'
p1216
g6
sS'EventType'
p1217
S'TYPE_WINDOW_CONTENT_CHANGED'
p1218
sS'PackageName'
p1219
S'com.example.myfristandroid'
p1220
sS'OutBounds'
p1221
S'Rect(0, 0 - 720, 1280)'
p1222
sS'Action'
p1223
S'[ ClassName: android.widget.FrameLayout; Text: []; ContentDescription: null; ItemCount: -1; CurrentItemIndex: -1; IsEnabled: true; IsPassword: false; IsChecked: false; IsFullScreen: false; Scrollable: false; BeforeText: null; FromIndex: -1; ToIndex: -1; ScrollX: -1; ScrollY: -1; MaxScrollX: -1; MaxScrollY: -1; AddedCount: -1; RemovedCount: -1; ParcelableData: null ]'
p1224
sS'MovementGranularity'
p1225
g6
sa(dp1226
S'EventTime'
p1227
S'225768508'
p1228
sg4
L1449627058212L
sS'recordCount'
p1229
g6
sS'EventType'
p1230
S'TYPE_VIEW_CLICKED'
p1231
sS'PackageName'
p1232
S'com.example.myfristandroid'
p1233
sS'OutBounds'
p1234
S'Rect(0, 1170 - 180, 1280)'
p1235
sS'Action'
p1236
S'[ ClassName: android.widget.LinearLayout; Text: [\xe7\x94\xbb\xe9\x9d\xa2\xe6\xb5\x8f\xe8\xa7\x88, \xe7\x94\xbb\xe9\x9d\xa2]; ContentDescription: null; ItemCount: -1; CurrentItemIndex: -1; IsEnabled: true; IsPassword: false; IsChecked: false; IsFullScreen: false; Scrollable: false; BeforeText: null; FromIndex: -1; ToIndex: -1; ScrollX: -1; ScrollY: -1; MaxScrollX: -1; MaxScrollY: -1; AddedCount: -1; RemovedCount: -1; ParcelableData: null ]'
p1237
sS'MovementGranularity'
p1238
g6
sa(dp1239
S'EventTime'
p1240
S'225768632'
p1241
sg4
L1449627058351L
sS'recordCount'
p1242
g6
sS'EventType'
p1243
S'TYPE_WINDOW_CONTENT_CHANGED'
p1244
sS'PackageName'
p1245
S'com.example.myfristandroid'
p1246
sS'OutBounds'
p1247
S'Rect(0, 0 - 720, 1280)'
p1248
sS'Action'
p1249
S'[ ClassName: android.widget.FrameLayout; Text: []; ContentDescription: null; ItemCount: -1; CurrentItemIndex: -1; IsEnabled: true; IsPassword: false; IsChecked: false; IsFullScreen: false; Scrollable: false; BeforeText: null; FromIndex: -1; ToIndex: -1; ScrollX: -1; ScrollY: -1; MaxScrollX: -1; MaxScrollY: -1; AddedCount: -1; RemovedCount: -1; ParcelableData: null ]'
p1250
sS'MovementGranularity'
p1251
g6
sa(dp1252
S'EventTime'
p1253
S'225768683'
p1254
sg4
L1449627058384L
sS'recordCount'
p1255
g6
sS'EventType'
p1256
S'TYPE_VIEW_CLICKED'
p1257
sS'PackageName'
p1258
S'com.example.myfristandroid'
p1259
sS'OutBounds'
p1260
S'Rect(0, 1170 - 180, 1280)'
p1261
sS'Action'
p1262
S'[ ClassName: android.widget.LinearLayout; Text: [\xe7\x94\xbb\xe9\x9d\xa2\xe6\xb5\x8f\xe8\xa7\x88, \xe7\x94\xbb\xe9\x9d\xa2]; ContentDescription: null; ItemCount: -1; CurrentItemIndex: -1; IsEnabled: true; IsPassword: false; IsChecked: false; IsFullScreen: false; Scrollable: false; BeforeText: null; FromIndex: -1; ToIndex: -1; ScrollX: -1; ScrollY: -1; MaxScrollX: -1; MaxScrollY: -1; AddedCount: -1; RemovedCount: -1; ParcelableData: null ]'
p1263
sS'MovementGranularity'
p1264
g6
sa(dp1265
S'EventTime'
p1266
S'225768787'
p1267
sg4
L1449627058511L
sS'recordCount'
p1268
g6
sS'EventType'
p1269
S'TYPE_WINDOW_CONTENT_CHANGED'
p1270
sS'PackageName'
p1271
S'com.example.myfristandroid'
p1272
sS'OutBounds'
p1273
S'Rect(0, 0 - 720, 1280)'
p1274
sS'Action'
p1275
S'[ ClassName: android.widget.FrameLayout; Text: []; ContentDescription: null; ItemCount: -1; CurrentItemIndex: -1; IsEnabled: true; IsPassword: false; IsChecked: false; IsFullScreen: false; Scrollable: false; BeforeText: null; FromIndex: -1; ToIndex: -1; ScrollX: -1; ScrollY: -1; MaxScrollX: -1; MaxScrollY: -1; AddedCount: -1; RemovedCount: -1; ParcelableData: null ]'
p1276
sS'MovementGranularity'
p1277
g6
sa(dp1278
S'EventTime'
p1279
S'225768928'
p1280
sg4
L1449627058628L
sS'recordCount'
p1281
g6
sS'EventType'
p1282
S'TYPE_VIEW_CLICKED'
p1283
sS'PackageName'
p1284
S'com.example.myfristandroid'
p1285
sS'OutBounds'
p1286
S'Rect(0, 1170 - 180, 1280)'
p1287
sS'Action'
p1288
S'[ ClassName: android.widget.LinearLayout; Text: [\xe7\x94\xbb\xe9\x9d\xa2\xe6\xb5\x8f\xe8\xa7\x88, \xe7\x94\xbb\xe9\x9d\xa2]; ContentDescription: null; ItemCount: -1; CurrentItemIndex: -1; IsEnabled: true; IsPassword: false; IsChecked: false; IsFullScreen: false; Scrollable: false; BeforeText: null; FromIndex: -1; ToIndex: -1; ScrollX: -1; ScrollY: -1; MaxScrollX: -1; MaxScrollY: -1; AddedCount: -1; RemovedCount: -1; ParcelableData: null ]'
p1289
sS'MovementGranularity'
p1290
g6
sa(dp1291
S'EventTime'
p1292
S'225769036'
p1293
sg4
L1449627058756L
sS'recordCount'
p1294
g6
sS'EventType'
p1295
S'TYPE_WINDOW_CONTENT_CHANGED'
p1296
sS'PackageName'
p1297
S'com.example.myfristandroid'
p1298
sS'OutBounds'
p1299
S'Rect(0, 0 - 720, 1280)'
p1300
sS'Action'
p1301
S'[ ClassName: android.widget.FrameLayout; Text: []; ContentDescription: null; ItemCount: -1; CurrentItemIndex: -1; IsEnabled: true; IsPassword: false; IsChecked: false; IsFullScreen: false; Scrollable: false; BeforeText: null; FromIndex: -1; ToIndex: -1; ScrollX: -1; ScrollY: -1; MaxScrollX: -1; MaxScrollY: -1; AddedCount: -1; RemovedCount: -1; ParcelableData: null ]'
p1302
sS'MovementGranularity'
p1303
g6
sa(dp1304
S'EventTime'
p1305
S'225769072'
p1306
sg4
L1449627058779L
sS'recordCount'
p1307
g6
sS'EventType'
p1308
S'TYPE_VIEW_CLICKED'
p1309
sS'PackageName'
p1310
S'com.example.myfristandroid'
p1311
sS'OutBounds'
p1312
S'Rect(0, 1170 - 180, 1280)'
p1313
sS'Action'
p1314
S'[ ClassName: android.widget.LinearLayout; Text: [\xe7\x94\xbb\xe9\x9d\xa2\xe6\xb5\x8f\xe8\xa7\x88, \xe7\x94\xbb\xe9\x9d\xa2]; ContentDescription: null; ItemCount: -1; CurrentItemIndex: -1; IsEnabled: true; IsPassword: false; IsChecked: false; IsFullScreen: false; Scrollable: false; BeforeText: null; FromIndex: -1; ToIndex: -1; ScrollX: -1; ScrollY: -1; MaxScrollX: -1; MaxScrollY: -1; AddedCount: -1; RemovedCount: -1; ParcelableData: null ]'
p1315
sS'MovementGranularity'
p1316
g6
sa(dp1317
S'EventTime'
p1318
S'225769198'
p1319
sg4
L1449627058955L
sS'recordCount'
p1320
g6
sS'EventType'
p1321
S'TYPE_WINDOW_CONTENT_CHANGED'
p1322
sS'PackageName'
p1323
S'com.example.myfristandroid'
p1324
sS'OutBounds'
p1325
S'Rect(0, 0 - 720, 1280)'
p1326
sS'Action'
p1327
S'[ ClassName: android.widget.FrameLayout; Text: []; ContentDescription: null; ItemCount: -1; CurrentItemIndex: -1; IsEnabled: true; IsPassword: false; IsChecked: false; IsFullScreen: false; Scrollable: false; BeforeText: null; FromIndex: -1; ToIndex: -1; ScrollX: -1; ScrollY: -1; MaxScrollX: -1; MaxScrollY: -1; AddedCount: -1; RemovedCount: -1; ParcelableData: null ]'
p1328
sS'MovementGranularity'
p1329
g6
sa(dp1330
S'EventTime'
p1331
S'225770470'
p1332
sg4
L1449627060170L
sS'recordCount'
p1333
g6
sS'EventType'
p1334
S'TYPE_VIEW_CLICKED'
p1335
sS'PackageName'
p1336
S'com.example.myfristandroid'
p1337
sS'OutBounds'
p1338
S'Rect(0, 1170 - 180, 1280)'
p1339
sS'Action'
p1340
S'[ ClassName: android.widget.LinearLayout; Text: [\xe7\x94\xbb\xe9\x9d\xa2\xe6\xb5\x8f\xe8\xa7\x88, \xe7\x94\xbb\xe9\x9d\xa2]; ContentDescription: null; ItemCount: -1; CurrentItemIndex: -1; IsEnabled: true; IsPassword: false; IsChecked: false; IsFullScreen: false; Scrollable: false; BeforeText: null; FromIndex: -1; ToIndex: -1; ScrollX: -1; ScrollY: -1; MaxScrollX: -1; MaxScrollY: -1; AddedCount: -1; RemovedCount: -1; ParcelableData: null ]'
p1341
sS'MovementGranularity'
p1342
g6
sa(dp1343
S'EventTime'
p1344
S'225770588'
p1345
sg4
L1449627060307L
sS'recordCount'
p1346
g6
sS'EventType'
p1347
S'TYPE_WINDOW_CONTENT_CHANGED'
p1348
sS'PackageName'
p1349
S'com.example.myfristandroid'
p1350
sS'OutBounds'
p1351
S'Rect(0, 0 - 720, 1280)'
p1352
sS'Action'
p1353
S'[ ClassName: android.widget.FrameLayout; Text: []; ContentDescription: null; ItemCount: -1; CurrentItemIndex: -1; IsEnabled: true; IsPassword: false; IsChecked: false; IsFullScreen: false; Scrollable: false; BeforeText: null; FromIndex: -1; ToIndex: -1; ScrollX: -1; ScrollY: -1; MaxScrollX: -1; MaxScrollY: -1; AddedCount: -1; RemovedCount: -1; ParcelableData: null ]'
p1354
sS'MovementGranularity'
p1355
g6
sa(dp1356
S'EventTime'
p1357
S'225770681'
p1358
sg4
L1449627060381L
sS'recordCount'
p1359
g6
sS'EventType'
p1360
S'TYPE_VIEW_CLICKED'
p1361
sS'PackageName'
p1362
S'com.example.myfristandroid'
p1363
sS'OutBounds'
p1364
S'Rect(0, 1170 - 180, 1280)'
p1365
sS'Action'
p1366
S'[ ClassName: android.widget.LinearLayout; Text: [\xe7\x94\xbb\xe9\x9d\xa2\xe6\xb5\x8f\xe8\xa7\x88, \xe7\x94\xbb\xe9\x9d\xa2]; ContentDescription: null; ItemCount: -1; CurrentItemIndex: -1; IsEnabled: true; IsPassword: false; IsChecked: false; IsFullScreen: false; Scrollable: false; BeforeText: null; FromIndex: -1; ToIndex: -1; ScrollX: -1; ScrollY: -1; MaxScrollX: -1; MaxScrollY: -1; AddedCount: -1; RemovedCount: -1; ParcelableData: null ]'
p1367
sS'MovementGranularity'
p1368
g6
sa(dp1369
S'EventTime'
p1370
S'225770810'
p1371
sg4
L1449627060522L
sS'recordCount'
p1372
g6
sS'EventType'
p1373
S'TYPE_WINDOW_CONTENT_CHANGED'
p1374
sS'PackageName'
p1375
S'com.example.myfristandroid'
p1376
sS'OutBounds'
p1377
S'Rect(0, 0 - 720, 1280)'
p1378
sS'Action'
p1379
S'[ ClassName: android.widget.FrameLayout; Text: []; ContentDescription: null; ItemCount: -1; CurrentItemIndex: -1; IsEnabled: true; IsPassword: false; IsChecked: false; IsFullScreen: false; Scrollable: false; BeforeText: null; FromIndex: -1; ToIndex: -1; ScrollX: -1; ScrollY: -1; MaxScrollX: -1; MaxScrollY: -1; AddedCount: -1; RemovedCount: -1; ParcelableData: null ]'
p1380
sS'MovementGranularity'
p1381
g6
sa(dp1382
S'EventTime'
p1383
S'225770937'
p1384
sg4
L1449627060640L
sS'recordCount'
p1385
g6
sS'EventType'
p1386
S'TYPE_VIEW_CLICKED'
p1387
sS'PackageName'
p1388
S'com.example.myfristandroid'
p1389
sS'OutBounds'
p1390
S'Rect(0, 1170 - 180, 1280)'
p1391
sS'Action'
p1392
S'[ ClassName: android.widget.LinearLayout; Text: [\xe7\x94\xbb\xe9\x9d\xa2\xe6\xb5\x8f\xe8\xa7\x88, \xe7\x94\xbb\xe9\x9d\xa2]; ContentDescription: null; ItemCount: -1; CurrentItemIndex: -1; IsEnabled: true; IsPassword: false; IsChecked: false; IsFullScreen: false; Scrollable: false; BeforeText: null; FromIndex: -1; ToIndex: -1; ScrollX: -1; ScrollY: -1; MaxScrollX: -1; MaxScrollY: -1; AddedCount: -1; RemovedCount: -1; ParcelableData: null ]'
p1393
sS'MovementGranularity'
p1394
g6
sa(dp1395
S'EventTime'
p1396
S'225771092'
p1397
sg4
L1449627060803L
sS'recordCount'
p1398
g6
sS'EventType'
p1399
S'TYPE_WINDOW_CONTENT_CHANGED'
p1400
sS'PackageName'
p1401
S'com.example.myfristandroid'
p1402
sS'OutBounds'
p1403
S'Rect(0, 0 - 720, 1280)'
p1404
sS'Action'
p1405
S'[ ClassName: android.widget.FrameLayout; Text: []; ContentDescription: null; ItemCount: -1; CurrentItemIndex: -1; IsEnabled: true; IsPassword: false; IsChecked: false; IsFullScreen: false; Scrollable: false; BeforeText: null; FromIndex: -1; ToIndex: -1; ScrollX: -1; ScrollY: -1; MaxScrollX: -1; MaxScrollY: -1; AddedCount: -1; RemovedCount: -1; ParcelableData: null ]'
p1406
sS'MovementGranularity'
p1407
g6
sa(dp1408
S'EventTime'
p1409
S'225771163'
p1410
sg4
L1449627060866L
sS'recordCount'
p1411
g6
sS'EventType'
p1412
S'TYPE_VIEW_CLICKED'
p1413
sS'PackageName'
p1414
S'com.example.myfristandroid'
p1415
sS'OutBounds'
p1416
S'Rect(0, 1170 - 180, 1280)'
p1417
sS'Action'
p1418
S'[ ClassName: android.widget.LinearLayout; Text: [\xe7\x94\xbb\xe9\x9d\xa2\xe6\xb5\x8f\xe8\xa7\x88, \xe7\x94\xbb\xe9\x9d\xa2]; ContentDescription: null; ItemCount: -1; CurrentItemIndex: -1; IsEnabled: true; IsPassword: false; IsChecked: false; IsFullScreen: false; Scrollable: false; BeforeText: null; FromIndex: -1; ToIndex: -1; ScrollX: -1; ScrollY: -1; MaxScrollX: -1; MaxScrollY: -1; AddedCount: -1; RemovedCount: -1; ParcelableData: null ]'
p1419
sS'MovementGranularity'
p1420
g6
sa(dp1421
S'EventTime'
p1422
S'225771269'
p1423
sg4
L1449627061010L
sS'recordCount'
p1424
g6
sS'EventType'
p1425
S'TYPE_WINDOW_CONTENT_CHANGED'
p1426
sS'PackageName'
p1427
S'com.example.myfristandroid'
p1428
sS'OutBounds'
p1429
S'Rect(0, 0 - 720, 1280)'
p1430
sS'Action'
p1431
S'[ ClassName: android.widget.FrameLayout; Text: []; ContentDescription: null; ItemCount: -1; CurrentItemIndex: -1; IsEnabled: true; IsPassword: false; IsChecked: false; IsFullScreen: false; Scrollable: false; BeforeText: null; FromIndex: -1; ToIndex: -1; ScrollX: -1; ScrollY: -1; MaxScrollX: -1; MaxScrollY: -1; AddedCount: -1; RemovedCount: -1; ParcelableData: null ]'
p1432
sS'MovementGranularity'
p1433
g6
sa(dp1434
S'EventTime'
p1435
S'225771349'
p1436
sg4
L1449627061049L
sS'recordCount'
p1437
g6
sS'EventType'
p1438
S'TYPE_VIEW_CLICKED'
p1439
sS'PackageName'
p1440
S'com.example.myfristandroid'
p1441
sS'OutBounds'
p1442
S'Rect(0, 1170 - 180, 1280)'
p1443
sS'Action'
p1444
S'[ ClassName: android.widget.LinearLayout; Text: [\xe7\x94\xbb\xe9\x9d\xa2\xe6\xb5\x8f\xe8\xa7\x88, \xe7\x94\xbb\xe9\x9d\xa2]; ContentDescription: null; ItemCount: -1; CurrentItemIndex: -1; IsEnabled: true; IsPassword: false; IsChecked: false; IsFullScreen: false; Scrollable: false; BeforeText: null; FromIndex: -1; ToIndex: -1; ScrollX: -1; ScrollY: -1; MaxScrollX: -1; MaxScrollY: -1; AddedCount: -1; RemovedCount: -1; ParcelableData: null ]'
p1445
sS'MovementGranularity'
p1446
g6
sa(dp1447
S'EventTime'
p1448
S'225771480'
p1449
sg4
L1449627061203L
sS'recordCount'
p1450
g6
sS'EventType'
p1451
S'TYPE_WINDOW_CONTENT_CHANGED'
p1452
sS'PackageName'
p1453
S'com.example.myfristandroid'
p1454
sS'OutBounds'
p1455
S'Rect(0, 0 - 720, 1280)'
p1456
sS'Action'
p1457
S'[ ClassName: android.widget.FrameLayout; Text: []; ContentDescription: null; ItemCount: -1; CurrentItemIndex: -1; IsEnabled: true; IsPassword: false; IsChecked: false; IsFullScreen: false; Scrollable: false; BeforeText: null; FromIndex: -1; ToIndex: -1; ScrollX: -1; ScrollY: -1; MaxScrollX: -1; MaxScrollY: -1; AddedCount: -1; RemovedCount: -1; ParcelableData: null ]'
p1458
sS'MovementGranularity'
p1459
g6
sa(dp1460
S'EventTime'
p1461
S'225771576'
p1462
sg4
L1449627061276L
sS'recordCount'
p1463
g6
sS'EventType'
p1464
S'TYPE_VIEW_CLICKED'
p1465
sS'PackageName'
p1466
S'com.example.myfristandroid'
p1467
sS'OutBounds'
p1468
S'Rect(0, 1170 - 180, 1280)'
p1469
sS'Action'
p1470
S'[ ClassName: android.widget.LinearLayout; Text: [\xe7\x94\xbb\xe9\x9d\xa2\xe6\xb5\x8f\xe8\xa7\x88, \xe7\x94\xbb\xe9\x9d\xa2]; ContentDescription: null; ItemCount: -1; CurrentItemIndex: -1; IsEnabled: true; IsPassword: false; IsChecked: false; IsFullScreen: false; Scrollable: false; BeforeText: null; FromIndex: -1; ToIndex: -1; ScrollX: -1; ScrollY: -1; MaxScrollX: -1; MaxScrollY: -1; AddedCount: -1; RemovedCount: -1; ParcelableData: null ]'
p1471
sS'MovementGranularity'
p1472
g6
sa(dp1473
S'EventTime'
p1474
S'225771702'
p1475
sg4
L1449627061417L
sS'recordCount'
p1476
g6
sS'EventType'
p1477
S'TYPE_WINDOW_CONTENT_CHANGED'
p1478
sS'PackageName'
p1479
S'com.example.myfristandroid'
p1480
sS'OutBounds'
p1481
S'Rect(0, 0 - 720, 1280)'
p1482
sS'Action'
p1483
S'[ ClassName: android.widget.FrameLayout; Text: []; ContentDescription: null; ItemCount: -1; CurrentItemIndex: -1; IsEnabled: true; IsPassword: false; IsChecked: false; IsFullScreen: false; Scrollable: false; BeforeText: null; FromIndex: -1; ToIndex: -1; ScrollX: -1; ScrollY: -1; MaxScrollX: -1; MaxScrollY: -1; AddedCount: -1; RemovedCount: -1; ParcelableData: null ]'
p1484
sS'MovementGranularity'
p1485
g6
sa(dp1486
S'EventTime'
p1487
S'225771840'
p1488
sg4
L1449627061542L
sS'recordCount'
p1489
g6
sS'EventType'
p1490
S'TYPE_VIEW_CLICKED'
p1491
sS'PackageName'
p1492
S'com.example.myfristandroid'
p1493
sS'OutBounds'
p1494
S'Rect(0, 1170 - 180, 1280)'
p1495
sS'Action'
p1496
S'[ ClassName: android.widget.LinearLayout; Text: [\xe7\x94\xbb\xe9\x9d\xa2\xe6\xb5\x8f\xe8\xa7\x88, \xe7\x94\xbb\xe9\x9d\xa2]; ContentDescription: null; ItemCount: -1; CurrentItemIndex: -1; IsEnabled: true; IsPassword: false; IsChecked: false; IsFullScreen: false; Scrollable: false; BeforeText: null; FromIndex: -1; ToIndex: -1; ScrollX: -1; ScrollY: -1; MaxScrollX: -1; MaxScrollY: -1; AddedCount: -1; RemovedCount: -1; ParcelableData: null ]'
p1497
sS'MovementGranularity'
p1498
g6
sa(dp1499
S'EventTime'
p1500
S'225771979'
p1501
sg4
L1449627061691L
sS'recordCount'
p1502
g6
sS'EventType'
p1503
S'TYPE_WINDOW_CONTENT_CHANGED'
p1504
sS'PackageName'
p1505
S'com.example.myfristandroid'
p1506
sS'OutBounds'
p1507
S'Rect(0, 0 - 720, 1280)'
p1508
sS'Action'
p1509
S'[ ClassName: android.widget.FrameLayout; Text: []; ContentDescription: null; ItemCount: -1; CurrentItemIndex: -1; IsEnabled: true; IsPassword: false; IsChecked: false; IsFullScreen: false; Scrollable: false; BeforeText: null; FromIndex: -1; ToIndex: -1; ScrollX: -1; ScrollY: -1; MaxScrollX: -1; MaxScrollY: -1; AddedCount: -1; RemovedCount: -1; ParcelableData: null ]'
p1510
sS'MovementGranularity'
p1511
g6
sa(dp1512
S'EventTime'
p1513
S'225772030'
p1514
sg4
L1449627061731L
sS'recordCount'
p1515
g6
sS'EventType'
p1516
S'TYPE_VIEW_CLICKED'
p1517
sS'PackageName'
p1518
S'com.example.myfristandroid'
p1519
sS'OutBounds'
p1520
S'Rect(0, 1170 - 180, 1280)'
p1521
sS'Action'
p1522
S'[ ClassName: android.widget.LinearLayout; Text: [\xe7\x94\xbb\xe9\x9d\xa2\xe6\xb5\x8f\xe8\xa7\x88, \xe7\x94\xbb\xe9\x9d\xa2]; ContentDescription: null; ItemCount: -1; CurrentItemIndex: -1; IsEnabled: true; IsPassword: false; IsChecked: false; IsFullScreen: false; Scrollable: false; BeforeText: null; FromIndex: -1; ToIndex: -1; ScrollX: -1; ScrollY: -1; MaxScrollX: -1; MaxScrollY: -1; AddedCount: -1; RemovedCount: -1; ParcelableData: null ]'
p1523
sS'MovementGranularity'
p1524
g6
sa(dp1525
S'EventTime'
p1526
S'225772134'
p1527
sg4
L1449627061905L
sS'recordCount'
p1528
g6
sS'EventType'
p1529
S'TYPE_WINDOW_CONTENT_CHANGED'
p1530
sS'PackageName'
p1531
S'com.example.myfristandroid'
p1532
sS'OutBounds'
p1533
S'Rect(0, 0 - 720, 1280)'
p1534
sS'Action'
p1535
S'[ ClassName: android.widget.FrameLayout; Text: []; ContentDescription: null; ItemCount: -1; CurrentItemIndex: -1; IsEnabled: true; IsPassword: false; IsChecked: false; IsFullScreen: false; Scrollable: false; BeforeText: null; FromIndex: -1; ToIndex: -1; ScrollX: -1; ScrollY: -1; MaxScrollX: -1; MaxScrollY: -1; AddedCount: -1; RemovedCount: -1; ParcelableData: null ]'
p1536
sS'MovementGranularity'
p1537
g6
sa(dp1538
S'EventTime'
p1539
S'225772472'
p1540
sg4
L1449627062172L
sS'recordCount'
p1541
g6
sS'EventType'
p1542
S'TYPE_VIEW_CLICKED'
p1543
sS'PackageName'
p1544
S'com.example.myfristandroid'
p1545
sS'OutBounds'
p1546
S'Rect(180, 1170 - 360, 1280)'
p1547
sS'Action'
p1548
S'[ ClassName: android.widget.LinearLayout; Text: [\xe6\x9f\xa5\xe7\x9c\x8b\xe5\xae\x9e\xe6\x97\xb6\xe6\x95\xb0\xe6\x8d\xae\xe4\xbf\xa1\xe6\x81\xaf, \xe6\x95\xb0\xe6\x8d\xae]; ContentDescription: null; ItemCount: -1; CurrentItemIndex: -1; IsEnabled: true; IsPassword: false; IsChecked: false; IsFullScreen: false; Scrollable: false; BeforeText: null; FromIndex: -1; ToIndex: -1; ScrollX: -1; ScrollY: -1; MaxScrollX: -1; MaxScrollY: -1; AddedCount: -1; RemovedCount: -1; ParcelableData: null ]'
p1549
sS'MovementGranularity'
p1550
g6
sa(dp1551
S'EventTime'
p1552
S'225772525'
p1553
sg4
L1449627062240L
sS'recordCount'
p1554
g6
sS'EventType'
p1555
S'TYPE_VIEW_FOCUSED'
p1556
sS'PackageName'
p1557
S'com.example.myfristandroid'
p1558
sS'OutBounds'
p1559
S'Rect(30, 300 - 738, 360)'
p1560
sS'Action'
p1561
S'[ ClassName: android.widget.EditText; Text: [\xe6\x90\x9c\xe7\xb4\xa2]; ContentDescription: null; ItemCount: 10; CurrentItemIndex: 4; IsEnabled: true; IsPassword: false; IsChecked: false; IsFullScreen: false; Scrollable: false; BeforeText: null; FromIndex: -1; ToIndex: -1; ScrollX: -1; ScrollY: -1; MaxScrollX: -1; MaxScrollY: -1; AddedCount: -1; RemovedCount: -1; ParcelableData: null ]'
p1562
sS'MovementGranularity'
p1563
g6
sa(dp1564
S'EventTime'
p1565
S'225772630'
p1566
sg4
L1449627062351L
sS'recordCount'
p1567
g6
sS'EventType'
p1568
S'TYPE_WINDOW_CONTENT_CHANGED'
p1569
sS'PackageName'
p1570
S'com.example.myfristandroid'
p1571
sS'OutBounds'
p1572
S'Rect(0, 0 - 720, 1280)'
p1573
sS'Action'
p1574
S'[ ClassName: android.widget.FrameLayout; Text: []; ContentDescription: null; ItemCount: -1; CurrentItemIndex: -1; IsEnabled: true; IsPassword: false; IsChecked: false; IsFullScreen: false; Scrollable: false; BeforeText: null; FromIndex: -1; ToIndex: -1; ScrollX: -1; ScrollY: -1; MaxScrollX: -1; MaxScrollY: -1; AddedCount: -1; RemovedCount: -1; ParcelableData: null ]'
p1575
sS'MovementGranularity'
p1576
g6
sa(dp1577
S'EventTime'
p1578
S'225772659'
p1579
sg4
L1449627062399L
sS'recordCount'
p1580
g6
sS'EventType'
p1581
S'TYPE_VIEW_SCROLLED'
p1582
sS'PackageName'
p1583
S'com.example.myfristandroid'
p1584
sS'OutBounds'
p1585
S'Rect(0, 140 - 720, 1170)'
p1586
sS'Action'
p1587
S'[ ClassName: android.support.v4.view.ViewPager; Text: []; ContentDescription: null; ItemCount: -1; CurrentItemIndex: -1; IsEnabled: true; IsPassword: false; IsChecked: false; IsFullScreen: false; Scrollable: false; BeforeText: null; FromIndex: -1; ToIndex: -1; ScrollX: -1; ScrollY: -1; MaxScrollX: -1; MaxScrollY: -1; AddedCount: -1; RemovedCount: -1; ParcelableData: null ]'
p1588
sS'MovementGranularity'
p1589
g6
sa(dp1590
S'EventTime'
p1591
S'225772778'
p1592
sg4
L1449627062501L
sS'recordCount'
p1593
g6
sS'EventType'
p1594
S'TYPE_VIEW_SCROLLED'
p1595
sS'PackageName'
p1596
S'com.example.myfristandroid'
p1597
sS'OutBounds'
p1598
S'Rect(0, 140 - 720, 1170)'
p1599
sS'Action'
p1600
S'[ ClassName: android.support.v4.view.ViewPager; Text: []; ContentDescription: null; ItemCount: -1; CurrentItemIndex: -1; IsEnabled: true; IsPassword: false; IsChecked: false; IsFullScreen: false; Scrollable: false; BeforeText: null; FromIndex: -1; ToIndex: -1; ScrollX: -1; ScrollY: -1; MaxScrollX: -1; MaxScrollY: -1; AddedCount: -1; RemovedCount: -1; ParcelableData: null ]'
p1601
sS'MovementGranularity'
p1602
g6
sa(dp1603
S'EventTime'
p1604
S'225773864'
p1605
sg4
L1449627063571L
sS'recordCount'
p1606
g6
sS'EventType'
p1607
S'TYPE_WINDOW_STATE_CHANGED'
p1608
sS'PackageName'
p1609
S'com.example.myfristandroid'
p1610
sS'OutBounds'
p1611
S'Rect(0, 0 - 720, 1280)'
p1612
sS'Action'
p1613
S'[ ClassName: com.example.myfristandroid.HuzAlertDialog; Text: [\xe9\x80\x80\xe5\x87\xba, \xe7\xa1\xae\xe5\xae\x9a\xe9\x80\x80\xe5\x87\xba\xe7\xb3\xbb\xe7\xbb\x9f\xe5\x90\x97\xef\xbc\x9f, \xe5\x90\x8e\xe5\x8f\xb0\xe8\xbf\x90\xe8\xa1\x8c, \xe9\x80\x80\xe5\x87\xba]; ContentDescription: null; ItemCount: -1; CurrentItemIndex: -1; IsEnabled: true; IsPassword: false; IsChecked: false; IsFullScreen: true; Scrollable: false; BeforeText: null; FromIndex: -1; ToIndex: -1; ScrollX: -1; ScrollY: -1; MaxScrollX: -1; MaxScrollY: -1; AddedCount: -1; RemovedCount: -1; ParcelableData: null ]'
p1614
sS'MovementGranularity'
p1615
g6
sa(dp1616
S'EventTime'
p1617
S'225773927'
p1618
sg4
L1449627063630L
sS'recordCount'
p1619
g6
sS'EventType'
p1620
S'TYPE_WINDOW_CONTENT_CHANGED'
p1621
sS'PackageName'
p1622
S'com.example.myfristandroid'
p1623
sS'OutBounds'
p1624
S'Rect(0, 0 - 720, 1280)'
p1625
sS'Action'
p1626
S'[ ClassName: android.widget.FrameLayout; Text: []; ContentDescription: null; ItemCount: -1; CurrentItemIndex: -1; IsEnabled: true; IsPassword: false; IsChecked: false; IsFullScreen: false; Scrollable: false; BeforeText: null; FromIndex: -1; ToIndex: -1; ScrollX: -1; ScrollY: -1; MaxScrollX: -1; MaxScrollY: -1; AddedCount: -1; RemovedCount: -1; ParcelableData: null ]'
p1627
sS'MovementGranularity'
p1628
g6
sa(dp1629
S'EventTime'
p1630
S'225778422'
p1631
sg4
L1449627068123L
sS'recordCount'
p1632
g6
sS'EventType'
p1633
S'TYPE_VIEW_CLICKED'
p1634
sS'PackageName'
p1635
S'com.example.myfristandroid'
p1636
sS'OutBounds'
p1637
S'Rect(372, 711 - 679, 807)'
p1638
sS'Action'
p1639
S'[ ClassName: android.widget.Button; Text: [\xe9\x80\x80\xe5\x87\xba]; ContentDescription: null; ItemCount: -1; CurrentItemIndex: -1; IsEnabled: true; IsPassword: false; IsChecked: false; IsFullScreen: false; Scrollable: false; BeforeText: null; FromIndex: -1; ToIndex: -1; ScrollX: -1; ScrollY: -1; MaxScrollX: -1; MaxScrollY: -1; AddedCount: -1; RemovedCount: -1; ParcelableData: null ]'
p1640
sS'MovementGranularity'
p1641
g6
sa.