(lp0
(dp1
S'processID'
p2
S'29267'
p3
sS'SyscTime'
p4
L1449627019340L
sS'priority'
p5
S'W'
p6
sS'tag'
p7
S'PhoneWindow'
p8
sS'threadID'
p9
S'29267'
p10
sS'message'
p11
S'user consume KeyCode = 4 Action = 0 featureId = -1\n'
p12
sa(dp13
g2
S'29267'
p14
sg4
L1449627019510L
sg5
g6
sg7
S'PhoneWindow'
p15
sg9
S'29267'
p16
sg11
S'PhoneWindow consume KeyCode = 4 Action = 1 featureId = -1\n'
p17
sa(dp18
g2
S'29267'
p19
sg4
L1449627019590L
sg5
g6
sg7
S'PhoneWindow'
p20
sg9
S'29267'
p21
sg11
S'PhoneWindow consume KeyCode = 4 Action = 1 featureId = -1\n'
p22
sa(dp23
g2
S'29267'
p24
sg4
L1449627024950L
sg5
S'D'
p25
sg7
S'MainActivity'
p26
sg9
S'29429'
p27
sg11
S'h:710.915,w:1183.07\n'
p28
sa(dp29
g2
S'29283'
p30
sg4
L1449627026650L
sg5
g25
sg7
S'ForegroundActivity'
p31
sg9
S'29299'
p32
sg11
S'\xe6\x9c\xac\xe6\xac\xa1\xe5\x8f\x91\xe9\x80\x81\xe5\xb8\xa7\xe9\x95\xbf:13\t\xe6\x80\xbb\xe5\xb8\xa7\xe9\x95\xbf:70\n'
p33
sa(dp34
g2
S'29283'
p35
sg4
L1449627026810L
sg5
g25
sg7
S'ForegroundActivity'
p36
sg9
S'29307'
p37
sg11
S'\xe6\x9c\xac\xe6\xac\xa1\xe6\x94\xb6\xe5\x88\xb0\xe5\xb8\xa7\xe9\x95\xbf:13\t\xe6\x80\xbb\xe5\xb8\xa7\xe9\x95\xbf:735\n'
p38
sa(dp39
g2
S'29267'
p40
sg4
L1449627027030L
sg5
g6
sg7
S'PhoneWindow'
p41
sg9
S'29267'
p42
sg11
S'user consume KeyCode = 4 Action = 0 featureId = -1\n'
p43
sa(dp44
g2
S'29267'
p45
sg4
L1449627027210L
sg5
g6
sg7
S'PhoneWindow'
p46
sg9
S'29267'
p47
sg11
S'PhoneWindow consume KeyCode = 4 Action = 1 featureId = -1\n'
p48
sa(dp49
g2
S'29267'
p50
sg4
L1449627027290L
sg5
g6
sg7
S'PhoneWindow'
p51
sg9
S'29267'
p52
sg11
S'PhoneWindow consume KeyCode = 4 Action = 1 featureId = -1\n'
p53
sa(dp54
g2
S'29283'
p55
sg4
L1449627027720L
sg5
g25
sg7
S'SocketService1'
p56
sg9
S'29301'
p57
sg11
S'\xe6\x9c\xac\xe6\xac\xa1\xe6\x8f\x90\xe5\x8f\x961:LoadPtr:735 HeadIndex:722 GetSize:13 13 0 \xe5\xa4\xb4\xe4\xbf\xa1\xe6\x81\xaf:EB 90 EB 90 EB 90 0D 00 10 01 \n'
p58
sa(dp59
g2
S'29267'
p60
sg4
L1449627029570L
sg5
g25
sg7
S'MainActivity'
p61
sg9
S'29429'
p62
sg11
S'h:910.5,w:1687.5\n'
p63
sa(dp64
g2
S'29267'
p65
sg4
L1449627032470L
sg5
S'E'
p66
sg7
S'webcoreglue'
p67
sg9
S'29429'
p68
sg11
S'getAbsoluteBoundingBox failed for node 0x63b6c248, name RenderSVGContainer\n'
p69
sa(dp70
g2
S'29267'
p71
sg4
L1449627032470L
sg5
g66
sg7
S'webcoreglue'
p72
sg9
S'29429'
p73
sg11
S'getAbsoluteBoundingBox failed for node 0x63b6c468, name RenderSVGContainer\n'
p74
sa(dp75
g2
S'29267'
p76
sg4
L1449627032470L
sg5
g66
sg7
S'webcoreglue'
p77
sg9
S'29429'
p78
sg11
S'getAbsoluteBoundingBox failed for node 0x63b6c698, name RenderSVGContainer\n'
p79
sa(dp80
g2
S'29267'
p81
sg4
L1449627032470L
sg5
g66
sg7
S'webcoreglue'
p82
sg9
S'29429'
p83
sg11
S'getAbsoluteBoundingBox failed for node 0x63b6ce00, name RenderSVGPath\n'
p84
sa(dp85
g2
S'29267'
p86
sg4
L1449627033340L
sg5
g66
sg7
S'webcoreglue'
p87
sg9
S'29429'
p88
sg11
S'getAbsoluteBoundingBox failed for node 0x63b6c248, name RenderSVGContainer\n'
p89
sa(dp90
g2
S'29267'
p91
sg4
L1449627033340L
sg5
g66
sg7
S'webcoreglue'
p92
sg9
S'29429'
p93
sg11
S'getAbsoluteBoundingBox failed for node 0x63b6c468, name RenderSVGContainer\n'
p94
sa(dp95
g2
S'29267'
p96
sg4
L1449627033340L
sg5
g66
sg7
S'webcoreglue'
p97
sg9
S'29429'
p98
sg11
S'getAbsoluteBoundingBox failed for node 0x63b6c698, name RenderSVGContainer\n'
p99
sa(dp100
g2
S'29267'
p101
sg4
L1449627033340L
sg5
g66
sg7
S'webcoreglue'
p102
sg9
S'29429'
p103
sg11
S'getAbsoluteBoundingBox failed for node 0x63b6ce00, name RenderSVGPath\n'
p104
sa(dp105
g2
S'29267'
p106
sg4
L1449627035750L
sg5
g25
sg7
S'MainActivity'
p107
sg9
S'29429'
p108
sg11
S'h:844.958,w:1720.73\n'
p109
sa(dp110
g2
S'29267'
p111
sg4
L1449627038000L
sg5
g6
sg7
S'PhoneWindow'
p112
sg9
S'29267'
p113
sg11
S'user consume KeyCode = 4 Action = 0 featureId = -1\n'
p114
sa(dp115
g2
S'29267'
p116
sg4
L1449627038130L
sg5
g6
sg7
S'PhoneWindow'
p117
sg9
S'29267'
p118
sg11
S'PhoneWindow consume KeyCode = 4 Action = 1 featureId = -1\n'
p119
sa(dp120
g2
S'29267'
p121
sg4
L1449627038380L
sg5
g25
sg7
S'MainActivity'
p122
sg9
S'29429'
p123
sg11
S'h:910.5,w:1687.5\n'
p124
sa(dp125
g2
S'29267'
p126
sg4
L1449627039400L
sg5
g6
sg7
S'PhoneWindow'
p127
sg9
S'29267'
p128
sg11
S'user consume KeyCode = 4 Action = 0 featureId = -1\n'
p129
sa(dp130
g2
S'29267'
p131
sg4
L1449627039610L
sg5
g6
sg7
S'PhoneWindow'
p132
sg9
S'29267'
p133
sg11
S'PhoneWindow consume KeyCode = 4 Action = 1 featureId = -1\n'
p134
sa(dp135
g2
S'29267'
p136
sg4
L1449627039680L
sg5
g6
sg7
S'PhoneWindow'
p137
sg9
S'29267'
p138
sg11
S'PhoneWindow consume KeyCode = 4 Action = 1 featureId = -1\n'
p139
sa(dp140
g2
S'29267'
p141
sg4
L1449627042940L
sg5
g25
sg7
S'dalvikvm'
p142
sg9
S'29267'
p143
sg11
S'GC_FOR_ALLOC freed 1397K, 6% free 26762K/28384K, paused 16ms, total 16ms\n'
p144
sa(dp145
g2
S'29267'
p146
sg4
L1449627043880L
sg5
g25
sg7
S'MainActivity'
p147
sg9
S'29429'
p148
sg11
S'h:910.5,w:1687.5\n'
p149
sa(dp150
g2
S'29267'
p151
sg4
L1449627046260L
sg5
g6
sg7
S'PhoneWindow'
p152
sg9
S'29267'
p153
sg11
S'user consume KeyCode = 4 Action = 0 featureId = -1\n'
p154
sa(dp155
g2
S'29267'
p156
sg4
L1449627046440L
sg5
g6
sg7
S'PhoneWindow'
p157
sg9
S'29267'
p158
sg11
S'PhoneWindow consume KeyCode = 4 Action = 1 featureId = -1\n'
p159
sa(dp160
g2
S'29267'
p161
sg4
L1449627046530L
sg5
g6
sg7
S'PhoneWindow'
p162
sg9
S'29267'
p163
sg11
S'PhoneWindow consume KeyCode = 4 Action = 1 featureId = -1\n'
p164
sa(dp165
g2
S'29267'
p166
sg4
L1449627049460L
sg5
g25
sg7
S'MainActivity'
p167
sg9
S'29429'
p168
sg11
S'h:766.083,w:1687.5\n'
p169
sa(dp170
g2
S'29267'
p171
sg4
L1449627054010L
sg5
g6
sg7
S'PhoneWindow'
p172
sg9
S'29267'
p173
sg11
S'user consume KeyCode = 4 Action = 0 featureId = -1\n'
p174
sa(dp175
g2
S'29267'
p176
sg4
L1449627054210L
sg5
g6
sg7
S'PhoneWindow'
p177
sg9
S'29267'
p178
sg11
S'PhoneWindow consume KeyCode = 4 Action = 1 featureId = -1\n'
p179
sa(dp180
g2
S'29267'
p181
sg4
L1449627054310L
sg5
g6
sg7
S'PhoneWindow'
p182
sg9
S'29267'
p183
sg11
S'PhoneWindow consume KeyCode = 4 Action = 1 featureId = -1\n'
p184
sa(dp185
g2
S'29267'
p186
sg4
L1449627057200L
sg5
g25
sg7
S'MainActivity'
p187
sg9
S'29267'
p188
sg11
S'V.getTag:null v.id:2131230734\n'
p189
sa(dp190
g2
S'29267'
p191
sg4
L1449627057670L
sg5
g25
sg7
S'MainActivity'
p192
sg9
S'29267'
p193
sg11
S'V.getTag:null v.id:2131230734\n'
p194
sa(dp195
g2
S'29267'
p196
sg4
L1449627057930L
sg5
g25
sg7
S'MainActivity'
p197
sg9
S'29267'
p198
sg11
S'V.getTag:null v.id:2131230734\n'
p199
sa(dp200
g2
S'29267'
p201
sg4
L1449627058090L
sg5
g25
sg7
S'MainActivity'
p202
sg9
S'29267'
p203
sg11
S'V.getTag:null v.id:2131230734\n'
p204
sa(dp205
g2
S'29267'
p206
sg4
L1449627058270L
sg5
g25
sg7
S'MainActivity'
p207
sg9
S'29267'
p208
sg11
S'V.getTag:null v.id:2131230734\n'
p209
sa(dp210
g2
S'29267'
p211
sg4
L1449627058510L
sg5
g25
sg7
S'MainActivity'
p212
sg9
S'29267'
p213
sg11
S'V.getTag:null v.id:2131230734\n'
p214
sa(dp215
g2
S'29267'
p216
sg4
L1449627058660L
sg5
g25
sg7
S'MainActivity'
p217
sg9
S'29267'
p218
sg11
S'V.getTag:null v.id:2131230734\n'
p219
sa(dp220
g2
S'29267'
p221
sg4
L1449627060060L
sg5
g25
sg7
S'MainActivity'
p222
sg9
S'29267'
p223
sg11
S'V.getTag:null v.id:2131230734\n'
p224
sa(dp225
g2
S'29267'
p226
sg4
L1449627060270L
sg5
g25
sg7
S'MainActivity'
p227
sg9
S'29267'
p228
sg11
S'V.getTag:null v.id:2131230734\n'
p229
sa(dp230
g2
S'29267'
p231
sg4
L1449627060520L
sg5
g25
sg7
S'MainActivity'
p232
sg9
S'29267'
p233
sg11
S'V.getTag:null v.id:2131230734\n'
p234
sa(dp235
g2
S'29267'
p236
sg4
L1449627060750L
sg5
g25
sg7
S'MainActivity'
p237
sg9
S'29267'
p238
sg11
S'V.getTag:null v.id:2131230734\n'
p239
sa(dp240
g2
S'29267'
p241
sg4
L1449627060940L
sg5
g25
sg7
S'MainActivity'
p242
sg9
S'29267'
p243
sg11
S'V.getTag:null v.id:2131230734\n'
p244
sa(dp245
g2
S'29267'
p246
sg4
L1449627061160L
sg5
g25
sg7
S'MainActivity'
p247
sg9
S'29267'
p248
sg11
S'V.getTag:null v.id:2131230734\n'
p249
sa(dp250
g2
S'29267'
p251
sg4
L1449627061430L
sg5
g25
sg7
S'MainActivity'
p252
sg9
S'29267'
p253
sg11
S'V.getTag:null v.id:2131230734\n'
p254
sa(dp255
g2
S'29267'
p256
sg4
L1449627061620L
sg5
g25
sg7
S'MainActivity'
p257
sg9
S'29267'
p258
sg11
S'V.getTag:null v.id:2131230734\n'
p259
sa(dp260
g2
S'29267'
p261
sg4
L1449627062060L
sg5
g25
sg7
S'MainActivity'
p262
sg9
S'29267'
p263
sg11
S'V.getTag:null v.id:2131230736\n'
p264
sa(dp265
g2
S'29267'
p266
sg4
L1449627062170L
sg5
S'V'
p267
sg7
S'RenderScript'
p268
sg9
S'29267'
p269
sg11
S'0x665821a0 Launching thread(s), CPUs 4\n'
p270
sa(dp271
g2
S'29267'
p272
sg4
L1449627062200L
sg5
g66
sg7
S'Parcel  '
p273
sg9
S'29267'
p274
sg11
S'Reading a NULL string not supported here.\n'
p275
sa(dp276
g2
S'29267'
p277
sg4
L1449627063360L
sg5
g66
sg7
S'Parcel  '
p278
sg9
S'29267'
p279
sg11
S'Reading a NULL string not supported here.\n'
p280
sa(dp281
g2
S'29267'
p282
sg4
L1449627063410L
sg5
g6
sg7
S'PhoneWindow'
p283
sg9
S'29267'
p284
sg11
S'user consume KeyCode = 4 Action = 0 featureId = -1\n'
p285
sa(dp286
g2
S'29267'
p287
sg4
L1449627063410L
sg5
g6
sg7
S'PhoneWindow'
p288
sg9
S'29267'
p289
sg11
S'PhoneWindow consume KeyCode = 4 Action = 1 featureId = -1\n'
p290
sa(dp291
g2
S'29267'
p292
sg4
L1449627063450L
sg5
g6
sg7
S'PhoneWindow'
p293
sg9
S'29267'
p294
sg11
S'PhoneWindow consume KeyCode = 4 Action = 1 featureId = -1\n'
p295
sa(dp296
g2
S'29283'
p297
sg4
L1449627066650L
sg5
g25
sg7
S'ForegroundActivity'
p298
sg9
S'29299'
p299
sg11
S'\xe6\x9c\xac\xe6\xac\xa1\xe5\x8f\x91\xe9\x80\x81\xe5\xb8\xa7\xe9\x95\xbf:13\t\xe6\x80\xbb\xe5\xb8\xa7\xe9\x95\xbf:83\n'
p300
sa(dp301
g2
S'29283'
p302
sg4
L1449627067080L
sg5
g25
sg7
S'ForegroundActivity'
p303
sg9
S'29307'
p304
sg11
S'\xe6\x9c\xac\xe6\xac\xa1\xe6\x94\xb6\xe5\x88\xb0\xe5\xb8\xa7\xe9\x95\xbf:13\t\xe6\x80\xbb\xe5\xb8\xa7\xe9\x95\xbf:748\n'
p305
sa(dp306
g2
S'29283'
p307
sg4
L1449627067830L
sg5
g25
sg7
S'SocketService1'
p308
sg9
S'29301'
p309
sg11
S'\xe6\x9c\xac\xe6\xac\xa1\xe6\x8f\x90\xe5\x8f\x961:LoadPtr:748 HeadIndex:735 GetSize:13 13 0 \xe5\xa4\xb4\xe4\xbf\xa1\xe6\x81\xaf:EB 90 EB 90 EB 90 0D 00 10 01 \n'
p310
sa(dp311
g2
S'29267'
p312
sg4
L1449627068140L
sg5
g6
sg7
S'IInputConnectionWrapper'
p313
sg9
S'29267'
p314
sg11
S'showStatusIcon on inactive InputConnection\n'
p315
sa(dp316
g2
S'29267'
p317
sg4
L1449627068910L
sg5
g25
sg7
S'MainActivity'
p318
sg9
S'29267'
p319
sg11
S'MainActivity onDestroy\n'
p320
sa(dp321
g2
S'29283'
p322
sg4
L1449627068910L
sg5
g25
sg7
S'SocketService'
p323
sg9
S'29283'
p324
sg11
S'onStartCommand : bLogin:false\n'
p325
sa(dp326
g2
S'29267'
p327
sg4
L1449627068940L
sg5
g66
sg7
S'ActivityThread'
p328
sg9
S'29267'
p329
sg11
S'Activity com.example.myfristandroid.MainActivity has leaked IntentReceiver com.example.myfristandroid.MainActivity$CmdReceiver@422052a0 that was originally registered here. Are you missing a call to unregisterReceiver()?\nandroid.app.IntentReceiverLeaked: Activity com.example.myfristandroid.MainActivity has leaked IntentReceiver com.example.myfristandroid.MainActivity$CmdReceiver@422052a0 that was originally registered here. Are you missing a call to unregisterReceiver()?\n\tat android.app.LoadedApk$ReceiverDispatcher.<init>(LoadedApk.java:812)\n\tat android.app.LoadedApk.getReceiverDispatcher(LoadedApk.java:613)\n\tat android.app.ContextImpl.registerReceiverInternal(ContextImpl.java:1360)\n\tat android.app.ContextImpl.registerReceiver(ContextImpl.java:1340)\n\tat android.app.ContextImpl.registerReceiver(ContextImpl.java:1334)\n\tat android.content.ContextWrapper.registerReceiver(ContextWrapper.java:458)\n\tat com.example.myfristandroid.MainActivity.onCreate(MainActivity.java:311)\n\tat android.app.Activity.performCreate(Activity.java:5193)\n\tat android.app.Instrumentation.callActivityOnCreate(Instrumentation.java:1090)\n\tat com.qihoo360.mobilesafe.loader.c.callActivityOnCreate(SourceFile:98)\n\tat android.app.ActivityThread.performLaunchActivity(ActivityThread.java:2189)\n\tat android.app.ActivityThread.handleLaunchActivity(ActivityThread.java:2286)\n\tat android.app.ActivityThread.access$600(ActivityThread.java:144)\n\tat android.app.ActivityThread$H.handleMessage(ActivityThread.java:1259)\n\tat android.os.Handler.dispatchMessage(Handler.java:99)\n\tat android.os.Looper.loop(Looper.java:137)\n\tat android.app.ActivityThread.main(ActivityThread.java:5178)\n\tat java.lang.reflect.Method.invokeNative(Native Method)\n\tat java.lang.reflect.Method.invoke(Method.java:525)\n\tat com.android.internal.os.ZygoteInit$MethodAndArgsCaller.run(ZygoteInit.java:745)\n\tat com.android.internal.os.ZygoteInit.main(ZygoteInit.java:561)\n\tat dalvik.system.NativeStart.main(Native Method)\n'
p330
sa(dp331
g2
S'29267'
p332
sg4
L1449627089690L
sg5
g25
sg7
S'cn.edu.nju.ise.kikandroid'
p333
sg9
S'29306'
p334
sg11
S'Log:1449627089704\n'
p335
sa(dp336
g2
S'29267'
p337
sg4
L1449627099950L
sg5
g25
sg7
S'cn.edu.nju.ise.kikandroid'
p338
sg9
S'29306'
p339
sg11
S'Screenshot:1449627089752\n'
p340
sa(dp341
g2
S'29267'
p342
sg4
L1449627099950L
sg5
g6
sg7
S'dalvikvm'
p343
sg9
S'29306'
p344
sg11
S'threadid=15: thread exiting with uncaught exception (group=0x41eee898)\n'
p345
sa(dp346
g2
S'29267'
p347
sg4
L1449627099960L
sg5
g66
sg7
S'AndroidRuntime'
p348
sg9
S'29306'
p349
sg11
S'FATAL EXCEPTION: Thread-18154\njava.lang.NullPointerException\n\tat android.app.Instrumentation.finish(Instrumentation.java:193)\n\tat cn.edu.nju.ise.kikandroid.AUTInstrument.quitInstr(AUTInstrument.java:195)\n\tat cn.edu.nju.ise.kikandroid.AUTInstrument.startServer(AUTInstrument.java:161)\n\tat cn.edu.nju.ise.kikandroid.AUTInstrument$1.run(AUTInstrument.java:107)\n\tat java.lang.Thread.run(Thread.java:841)\n'
p350
sa.