(lp0
(dp1
S'processID'
p2
S'6495'
p3
sS'SyscTime'
p4
L1449650937921L
sS'priority'
p5
S'W'
p6
sS'tag'
p7
S'LoadedApk'
p8
sS'threadID'
p9
S' 6495'
p10
sS'message'
p11
S'perform long-running operations in onReceive, ordered=false ~duration=143ms: com.example.myfristandroid.MainActivity$CmdReceiver@42536be8 Intent { act=SocketService flg=0x10 (has extras) }\n'
p12
sa(dp13
g2
S'6495'
p14
sg4
L1449650943951L
sg5
g6
sg7
S'LoadedApk'
p15
sg9
S' 6495'
p16
sg11
S'perform long-running operations in onReceive, ordered=false ~duration=129ms: com.example.myfristandroid.MainActivity$CmdReceiver@42536be8 Intent { act=SocketService flg=0x10 (has extras) }\n'
p17
sa(dp18
g2
S'6495'
p19
sg4
L1449650967491L
sg5
S'E'
p20
sg7
S'ActivityThread'
p21
sg9
S' 6495'
p22
sg11
S'Activity com.example.myfristandroid.MainActivity has leaked IntentReceiver com.example.myfristandroid.MainActivity$CmdReceiver@42536be8 that was originally registered here. Are you missing a call to unregisterReceiver()?\nandroid.app.IntentReceiverLeaked: Activity com.example.myfristandroid.MainActivity has leaked IntentReceiver com.example.myfristandroid.MainActivity$CmdReceiver@42536be8 that was originally registered here. Are you missing a call to unregisterReceiver()?\n\tat android.app.LoadedApk$ReceiverDispatcher.<init>(LoadedApk.java:818)\n\tat android.app.LoadedApk.getReceiverDispatcher(LoadedApk.java:603)\n\tat android.app.ContextImpl.registerReceiverInternal(ContextImpl.java:1404)\n\tat android.app.ContextImpl.registerReceiver(ContextImpl.java:1384)\n\tat android.app.ContextImpl.registerReceiver(ContextImpl.java:1378)\n\tat android.content.ContextWrapper.registerReceiver(ContextWrapper.java:446)\n\tat com.example.myfristandroid.MainActivity.onCreate(MainActivity.java:311)\n\tat android.app.Activity.performCreate(Activity.java:5146)\n\tat android.app.Instrumentation.callActivityOnCreate(Instrumentation.java:1090)\n\tat android.app.ActivityThread.performLaunchActivity(ActivityThread.java:2191)\n\tat android.app.ActivityThread.handleLaunchActivity(ActivityThread.java:2282)\n\tat android.app.ActivityThread.access$600(ActivityThread.java:147)\n\tat android.app.ActivityThread$H.handleMessage(ActivityThread.java:1272)\n\tat android.os.Handler.dispatchMessage(Handler.java:99)\n\tat android.os.Looper.loop(Looper.java:137)\n\tat android.app.ActivityThread.main(ActivityThread.java:5265)\n\tat java.lang.reflect.Method.invokeNative(Native Method)\n\tat java.lang.reflect.Method.invoke(Method.java:525)\n\tat com.android.internal.os.ZygoteInit$MethodAndArgsCaller.run(ZygoteInit.java:760)\n\tat com.android.internal.os.ZygoteInit.main(ZygoteInit.java:576)\n\tat dalvik.system.NativeStart.main(Native Method)\n'
p23
sa(dp24
g2
S'9471'
p25
sg4
L1449651075551L
sg5
g20
sg7
S'external/chromium/net/disk_cache/stat_hub.cc'
p26
sg9
S'10491'
p27
sg11
S"netstack:  STAT_HUB - App com.example.myfristandroid isn't supported\n"
p28
sa(dp29
g2
S'9471'
p30
sg4
L1449651075691L
sg5
g20
sg7
S'external/chromium/net/host_resolver_helper/dyn_lib_loader.cc'
p31
sg9
S'10503'
p32
sg11
S'netstack: LIB_MGR - Error loading lib qnet-plugin.so\n'
p33
sa(dp34
g2
S'13471'
p35
sg4
L1449651218431L
sg5
g6
sg7
S'LoadedApk'
p36
sg9
S'13471'
p37
sg11
S'perform long-running operations in onReceive, ordered=false ~duration=123ms: com.example.myfristandroid.MainActivity$CmdReceiver@425495f0 Intent { act=SocketService flg=0x10 (has extras) }\n'
p38
sa(dp39
g2
S'13471'
p40
sg4
L1449651252521L
sg5
g20
sg7
S'external/chromium/net/disk_cache/stat_hub.cc'
p41
sg9
S'14352'
p42
sg11
S"netstack:  STAT_HUB - App com.example.myfristandroid isn't supported\n"
p43
sa(dp44
g2
S'13471'
p45
sg4
L1449651333281L
sg5
g20
sg7
S'ActivityThread'
p46
sg9
S'13471'
p47
sg11
S'Activity com.example.myfristandroid.MainActivity has leaked IntentReceiver com.example.myfristandroid.MainActivity$CmdReceiver@425495f0 that was originally registered here. Are you missing a call to unregisterReceiver()?\nandroid.app.IntentReceiverLeaked: Activity com.example.myfristandroid.MainActivity has leaked IntentReceiver com.example.myfristandroid.MainActivity$CmdReceiver@425495f0 that was originally registered here. Are you missing a call to unregisterReceiver()?\n\tat android.app.LoadedApk$ReceiverDispatcher.<init>(LoadedApk.java:818)\n\tat android.app.LoadedApk.getReceiverDispatcher(LoadedApk.java:603)\n\tat android.app.ContextImpl.registerReceiverInternal(ContextImpl.java:1404)\n\tat android.app.ContextImpl.registerReceiver(ContextImpl.java:1384)\n\tat android.app.ContextImpl.registerReceiver(ContextImpl.java:1378)\n\tat android.content.ContextWrapper.registerReceiver(ContextWrapper.java:446)\n\tat com.example.myfristandroid.MainActivity.onCreate(MainActivity.java:311)\n\tat android.app.Activity.performCreate(Activity.java:5146)\n\tat android.app.Instrumentation.callActivityOnCreate(Instrumentation.java:1090)\n\tat android.app.ActivityThread.performLaunchActivity(ActivityThread.java:2191)\n\tat android.app.ActivityThread.handleLaunchActivity(ActivityThread.java:2282)\n\tat android.app.ActivityThread.access$600(ActivityThread.java:147)\n\tat android.app.ActivityThread$H.handleMessage(ActivityThread.java:1272)\n\tat android.os.Handler.dispatchMessage(Handler.java:99)\n\tat android.os.Looper.loop(Looper.java:137)\n\tat android.app.ActivityThread.main(ActivityThread.java:5265)\n\tat java.lang.reflect.Method.invokeNative(Native Method)\n\tat java.lang.reflect.Method.invoke(Method.java:525)\n\tat com.android.internal.os.ZygoteInit$MethodAndArgsCaller.run(ZygoteInit.java:760)\n\tat com.android.internal.os.ZygoteInit.main(ZygoteInit.java:576)\n\tat dalvik.system.NativeStart.main(Native Method)\n'
p48
sa(dp49
g2
S'13471'
p50
sg4
L1449651358641L
sg5
g20
sg7
S'AndroidRuntime'
p51
sg9
S'13526'
p52
sg11
S'FATAL EXCEPTION: Thread-4683\njava.lang.NullPointerException\n\tat android.app.Instrumentation.finish(Instrumentation.java:190)\n\tat cn.edu.nju.ise.kikandroid.AUTInstrument.quitInstr(AUTInstrument.java:195)\n\tat cn.edu.nju.ise.kikandroid.AUTInstrument.startServer(AUTInstrument.java:161)\n\tat cn.edu.nju.ise.kikandroid.AUTInstrument$1.run(AUTInstrument.java:107)\n\tat java.lang.Thread.run(Thread.java:841)\n'
p53
sa(dp54
g2
S'18910'
p55
sg4
L1449651532611L
sg5
g20
sg7
S'external/chromium/net/disk_cache/stat_hub.cc'
p56
sg9
S'20896'
p57
sg11
S"netstack:  STAT_HUB - App com.example.myfristandroid isn't supported\n"
p58
sa(dp59
g2
S'18910'
p60
sg4
L1449651565941L
sg5
g20
sg7
S'ActivityThread'
p61
sg9
S'18910'
p62
sg11
S'Activity com.example.myfristandroid.MainActivity has leaked IntentReceiver com.example.myfristandroid.MainActivity$CmdReceiver@42549fc8 that was originally registered here. Are you missing a call to unregisterReceiver()?\nandroid.app.IntentReceiverLeaked: Activity com.example.myfristandroid.MainActivity has leaked IntentReceiver com.example.myfristandroid.MainActivity$CmdReceiver@42549fc8 that was originally registered here. Are you missing a call to unregisterReceiver()?\n\tat android.app.LoadedApk$ReceiverDispatcher.<init>(LoadedApk.java:818)\n\tat android.app.LoadedApk.getReceiverDispatcher(LoadedApk.java:603)\n\tat android.app.ContextImpl.registerReceiverInternal(ContextImpl.java:1404)\n\tat android.app.ContextImpl.registerReceiver(ContextImpl.java:1384)\n\tat android.app.ContextImpl.registerReceiver(ContextImpl.java:1378)\n\tat android.content.ContextWrapper.registerReceiver(ContextWrapper.java:446)\n\tat com.example.myfristandroid.MainActivity.onCreate(MainActivity.java:311)\n\tat android.app.Activity.performCreate(Activity.java:5146)\n\tat android.app.Instrumentation.callActivityOnCreate(Instrumentation.java:1090)\n\tat android.app.ActivityThread.performLaunchActivity(ActivityThread.java:2191)\n\tat android.app.ActivityThread.handleLaunchActivity(ActivityThread.java:2282)\n\tat android.app.ActivityThread.access$600(ActivityThread.java:147)\n\tat android.app.ActivityThread$H.handleMessage(ActivityThread.java:1272)\n\tat android.os.Handler.dispatchMessage(Handler.java:99)\n\tat android.os.Looper.loop(Looper.java:137)\n\tat android.app.ActivityThread.main(ActivityThread.java:5265)\n\tat java.lang.reflect.Method.invokeNative(Native Method)\n\tat java.lang.reflect.Method.invoke(Method.java:525)\n\tat com.android.internal.os.ZygoteInit$MethodAndArgsCaller.run(ZygoteInit.java:760)\n\tat com.android.internal.os.ZygoteInit.main(ZygoteInit.java:576)\n\tat dalvik.system.NativeStart.main(Native Method)\n'
p63
sa(dp64
g2
S'21614'
p65
sg4
L1449651603961L
sg5
g20
sg7
S'external/chromium/net/disk_cache/stat_hub.cc'
p66
sg9
S'22417'
p67
sg11
S"netstack:  STAT_HUB - App com.example.myfristandroid isn't supported\n"
p68
sa(dp69
g2
S'21614'
p70
sg4
L1449651616581L
sg5
g20
sg7
S'AndroidRuntime'
p71
sg9
S'21675'
p72
sg11
S'FATAL EXCEPTION: Thread-4971\njava.lang.NullPointerException\n\tat android.app.Instrumentation.finish(Instrumentation.java:190)\n\tat cn.edu.nju.ise.kikandroid.AUTInstrument.quitInstr(AUTInstrument.java:195)\n\tat cn.edu.nju.ise.kikandroid.AUTInstrument.startServer(AUTInstrument.java:161)\n\tat cn.edu.nju.ise.kikandroid.AUTInstrument$1.run(AUTInstrument.java:107)\n\tat java.lang.Thread.run(Thread.java:841)\n'
p73
sa(dp74
g2
S'22787'
p75
sg4
L1449651653461L
sg5
g20
sg7
S'ActivityThread'
p76
sg9
S'22787'
p77
sg11
S'Activity com.example.myfristandroid.MainActivity has leaked IntentReceiver com.example.myfristandroid.MainActivity$CmdReceiver@42541760 that was originally registered here. Are you missing a call to unregisterReceiver()?\nandroid.app.IntentReceiverLeaked: Activity com.example.myfristandroid.MainActivity has leaked IntentReceiver com.example.myfristandroid.MainActivity$CmdReceiver@42541760 that was originally registered here. Are you missing a call to unregisterReceiver()?\n\tat android.app.LoadedApk$ReceiverDispatcher.<init>(LoadedApk.java:818)\n\tat android.app.LoadedApk.getReceiverDispatcher(LoadedApk.java:603)\n\tat android.app.ContextImpl.registerReceiverInternal(ContextImpl.java:1404)\n\tat android.app.ContextImpl.registerReceiver(ContextImpl.java:1384)\n\tat android.app.ContextImpl.registerReceiver(ContextImpl.java:1378)\n\tat android.content.ContextWrapper.registerReceiver(ContextWrapper.java:446)\n\tat com.example.myfristandroid.MainActivity.onCreate(MainActivity.java:311)\n\tat android.app.Activity.performCreate(Activity.java:5146)\n\tat android.app.Instrumentation.callActivityOnCreate(Instrumentation.java:1090)\n\tat android.app.ActivityThread.performLaunchActivity(ActivityThread.java:2191)\n\tat android.app.ActivityThread.handleLaunchActivity(ActivityThread.java:2282)\n\tat android.app.ActivityThread.access$600(ActivityThread.java:147)\n\tat android.app.ActivityThread$H.handleMessage(ActivityThread.java:1272)\n\tat android.os.Handler.dispatchMessage(Handler.java:99)\n\tat android.os.Looper.loop(Looper.java:137)\n\tat android.app.ActivityThread.main(ActivityThread.java:5265)\n\tat java.lang.reflect.Method.invokeNative(Native Method)\n\tat java.lang.reflect.Method.invoke(Method.java:525)\n\tat com.android.internal.os.ZygoteInit$MethodAndArgsCaller.run(ZygoteInit.java:760)\n\tat com.android.internal.os.ZygoteInit.main(ZygoteInit.java:576)\n\tat dalvik.system.NativeStart.main(Native Method)\n'
p78
sa(dp79
g2
S'22787'
p80
sg4
L1449651719671L
sg5
g6
sg7
S'IInputConnectionWrapper'
p81
sg9
S'22787'
p82
sg11
S'performPrivateCommand on inactive InputConnection\n'
p83
sa(dp84
g2
S'22787'
p85
sg4
L1449651723761L
sg5
g6
sg7
S'IInputConnectionWrapper'
p86
sg9
S'22787'
p87
sg11
S'performPrivateCommand on inactive InputConnection\n'
p88
sa(dp89
g2
S'22787'
p90
sg4
L1449651724701L
sg5
g6
sg7
S'IInputConnectionWrapper'
p91
sg9
S'22787'
p92
sg11
S'performPrivateCommand on inactive InputConnection\n'
p93
sa(dp94
g2
S'22787'
p95
sg4
L1449651733901L
sg5
g6
sg7
S'IInputConnectionWrapper'
p96
sg9
S'22787'
p97
sg11
S'performPrivateCommand on inactive InputConnection\n'
p98
sa(dp99
g2
S'22787'
p100
sg4
L1449651757541L
sg5
g6
sg7
S'IInputConnectionWrapper'
p101
sg9
S'22787'
p102
sg11
S'performPrivateCommand on inactive InputConnection\n'
p103
sa(dp104
g2
S'22787'
p105
sg4
L1449651783911L
sg5
g6
sg7
S'IInputConnectionWrapper'
p106
sg9
S'22787'
p107
sg11
S'performPrivateCommand on inactive InputConnection\n'
p108
sa(dp109
g2
S'22787'
p110
sg4
L1449651786131L
sg5
g20
sg7
S'external/chromium/net/disk_cache/stat_hub.cc'
p111
sg9
S'26987'
p112
sg11
S"netstack:  STAT_HUB - App com.example.myfristandroid isn't supported\n"
p113
sa(dp114
g2
S'22787'
p115
sg4
L1449651786201L
sg5
g20
sg7
S'external/chromium/net/host_resolver_helper/dyn_lib_loader.cc'
p116
sg9
S'27010'
p117
sg11
S'netstack: LIB_MGR - Error loading lib qnet-plugin.so\n'
p118
sa(dp119
g2
S'22787'
p120
sg4
L1449651792871L
sg5
g20
sg7
S'webcoreglue'
p121
sg9
S'26987'
p122
sg11
S'getAbsoluteBoundingBox failed for node 0x635149a8, name RenderSVGContainer\n'
p123
sa(dp124
g2
S'22787'
p125
sg4
L1449651792871L
sg5
g20
sg7
S'webcoreglue'
p126
sg9
S'26987'
p127
sg11
S'getAbsoluteBoundingBox failed for node 0x63514bd8, name RenderSVGContainer\n'
p128
sa(dp129
g2
S'22787'
p130
sg4
L1449651792871L
sg5
g20
sg7
S'webcoreglue'
p131
sg9
S'26987'
p132
sg11
S'getAbsoluteBoundingBox failed for node 0x63514d50, name RenderSVGContainer\n'
p133
sa(dp134
g2
S'22787'
p135
sg4
L1449651792871L
sg5
g20
sg7
S'webcoreglue'
p136
sg9
S'26987'
p137
sg11
S'getAbsoluteBoundingBox failed for node 0x635153e0, name RenderSVGPath\n'
p138
sa(dp139
g2
S'22787'
p140
sg4
L1449651793341L
sg5
g6
sg7
S'IInputConnectionWrapper'
p141
sg9
S'22787'
p142
sg11
S'performPrivateCommand on inactive InputConnection\n'
p143
sa(dp144
g2
S'22787'
p145
sg4
L1449651808861L
sg5
g6
sg7
S'IInputConnectionWrapper'
p146
sg9
S'22787'
p147
sg11
S'performPrivateCommand on inactive InputConnection\n'
p148
sa(dp149
g2
S'22787'
p150
sg4
L1449651816141L
sg5
g6
sg7
S'LoadedApk'
p151
sg9
S'22787'
p152
sg11
S'perform long-running operations in onReceive, ordered=false ~duration=101ms: com.example.myfristandroid.MainActivity$CmdReceiver@427455d8 Intent { act=SocketService flg=0x10 (has extras) }\n'
p153
sa(dp154
g2
S'22787'
p155
sg4
L1449651818081L
sg5
g6
sg7
S'IInputConnectionWrapper'
p156
sg9
S'22787'
p157
sg11
S'performPrivateCommand on inactive InputConnection\n'
p158
sa(dp159
g2
S'22787'
p160
sg4
L1449651818101L
sg5
g6
sg7
S'IInputConnectionWrapper'
p161
sg9
S'22787'
p162
sg11
S'performPrivateCommand on inactive InputConnection\n'
p163
sa(dp164
g2
S'22787'
p165
sg4
L1449651834471L
sg5
g6
sg7
S'IInputConnectionWrapper'
p166
sg9
S'22787'
p167
sg11
S'performPrivateCommand on inactive InputConnection\n'
p168
sa(dp169
g2
S'22787'
p170
sg4
L1449651842491L
sg5
g6
sg7
S'IInputConnectionWrapper'
p171
sg9
S'22787'
p172
sg11
S'performPrivateCommand on inactive InputConnection\n'
p173
sa(dp174
g2
S'22787'
p175
sg4
L1449651849471L
sg5
g6
sg7
S'IInputConnectionWrapper'
p176
sg9
S'22787'
p177
sg11
S'performPrivateCommand on inactive InputConnection\n'
p178
sa(dp179
g2
S'22787'
p180
sg4
L1449651853921L
sg5
g6
sg7
S'IInputConnectionWrapper'
p181
sg9
S'22787'
p182
sg11
S'performPrivateCommand on inactive InputConnection\n'
p183
sa(dp184
g2
S'22787'
p185
sg4
L1449651855111L
sg5
g6
sg7
S'IInputConnectionWrapper'
p186
sg9
S'22787'
p187
sg11
S'performPrivateCommand on inactive InputConnection\n'
p188
sa(dp189
g2
S'22787'
p190
sg4
L1449651858551L
sg5
g6
sg7
S'IInputConnectionWrapper'
p191
sg9
S'22787'
p192
sg11
S'performPrivateCommand on inactive InputConnection\n'
p193
sa(dp194
g2
S'22787'
p195
sg4
L1449651861531L
sg5
g6
sg7
S'IInputConnectionWrapper'
p196
sg9
S'22787'
p197
sg11
S'performPrivateCommand on inactive InputConnection\n'
p198
sa(dp199
g2
S'22787'
p200
sg4
L1449651863201L
sg5
g6
sg7
S'IInputConnectionWrapper'
p201
sg9
S'22787'
p202
sg11
S'performPrivateCommand on inactive InputConnection\n'
p203
sa(dp204
g2
S'22787'
p205
sg4
L1449651872961L
sg5
g20
sg7
S'webcoreglue'
p206
sg9
S'26987'
p207
sg11
S'getAbsoluteBoundingBox failed for node 0x64d375c0, name RenderSVGContainer\n'
p208
sa(dp209
g2
S'22787'
p210
sg4
L1449651872961L
sg5
g20
sg7
S'webcoreglue'
p211
sg9
S'26987'
p212
sg11
S'getAbsoluteBoundingBox failed for node 0x64d37830, name RenderSVGContainer\n'
p213
sa(dp214
g2
S'22787'
p215
sg4
L1449651872961L
sg5
g20
sg7
S'webcoreglue'
p216
sg9
S'26987'
p217
sg11
S'getAbsoluteBoundingBox failed for node 0x64d36308, name RenderSVGContainer\n'
p218
sa(dp219
g2
S'22787'
p220
sg4
L1449651872961L
sg5
g20
sg7
S'webcoreglue'
p221
sg9
S'26987'
p222
sg11
S'getAbsoluteBoundingBox failed for node 0x64d36420, name RenderSVGPath\n'
p223
sa(dp224
g2
S'22787'
p225
sg4
L1449651874061L
sg5
g6
sg7
S'IInputConnectionWrapper'
p226
sg9
S'22787'
p227
sg11
S'performPrivateCommand on inactive InputConnection\n'
p228
sa(dp229
g2
S'22787'
p230
sg4
L1449651890071L
sg5
g6
sg7
S'IInputConnectionWrapper'
p231
sg9
S'22787'
p232
sg11
S'performPrivateCommand on inactive InputConnection\n'
p233
sa(dp234
g2
S'22787'
p235
sg4
L1449651893721L
sg5
g6
sg7
S'IInputConnectionWrapper'
p236
sg9
S'22787'
p237
sg11
S'performPrivateCommand on inactive InputConnection\n'
p238
sa(dp239
g2
S'22787'
p240
sg4
L1449651895981L
sg5
g6
sg7
S'IInputConnectionWrapper'
p241
sg9
S'22787'
p242
sg11
S'performPrivateCommand on inactive InputConnection\n'
p243
sa(dp244
g2
S'22787'
p245
sg4
L1449651904901L
sg5
g6
sg7
S'dalvikvm'
p246
sg9
S'22842'
p247
sg11
S'threadid=14: thread exiting with uncaught exception (group=0x417b7940)\n'
p248
sa(dp249
g2
S'22787'
p250
sg4
L1449651904901L
sg5
g20
sg7
S'AndroidRuntime'
p251
sg9
S'22842'
p252
sg11
S'FATAL EXCEPTION: Thread-5013\njava.lang.NullPointerException\n\tat android.app.Instrumentation.finish(Instrumentation.java:190)\n\tat cn.edu.nju.ise.kikandroid.AUTInstrument.quitInstr(AUTInstrument.java:195)\n\tat cn.edu.nju.ise.kikandroid.AUTInstrument.startServer(AUTInstrument.java:161)\n\tat cn.edu.nju.ise.kikandroid.AUTInstrument$1.run(AUTInstrument.java:107)\n\tat java.lang.Thread.run(Thread.java:841)\n'
p253
sa(dp254
g2
S'31563'
p255
sg4
L1449651933631L
sg5
g6
sg7
S'IInputConnectionWrapper'
p256
sg9
S'31563'
p257
sg11
S'performPrivateCommand on inactive InputConnection\n'
p258
sa(dp259
g2
S'31563'
p260
sg4
L1449651938311L
sg5
g6
sg7
S'IInputConnectionWrapper'
p261
sg9
S'31563'
p262
sg11
S'performPrivateCommand on inactive InputConnection\n'
p263
sa(dp264
g2
S'31563'
p265
sg4
L1449651940091L
sg5
g6
sg7
S'IInputConnectionWrapper'
p266
sg9
S'31563'
p267
sg11
S'performPrivateCommand on inactive InputConnection\n'
p268
sa(dp269
g2
S'31563'
p270
sg4
L1449651946531L
sg5
g6
sg7
S'IInputConnectionWrapper'
p271
sg9
S'31563'
p272
sg11
S'performPrivateCommand on inactive InputConnection\n'
p273
sa(dp274
g2
S'31563'
p275
sg4
L1449651971561L
sg5
g6
sg7
S'IInputConnectionWrapper'
p276
sg9
S'31563'
p277
sg11
S'performPrivateCommand on inactive InputConnection\n'
p278
sa(dp279
g2
S'31563'
p280
sg4
L1449651972831L
sg5
g20
sg7
S'external/chromium/net/disk_cache/stat_hub.cc'
p281
sg9
S'32676'
p282
sg11
S"netstack:  STAT_HUB - App com.example.myfristandroid isn't supported\n"
p283
sa(dp284
g2
S'31563'
p285
sg4
L1449651972881L
sg5
g20
sg7
S'external/chromium/net/host_resolver_helper/dyn_lib_loader.cc'
p286
sg9
S'32689'
p287
sg11
S'netstack: LIB_MGR - Error loading lib qnet-plugin.so\n'
p288
sa(dp289
g2
S'31563'
p290
sg4
L1449651982361L
sg5
g20
sg7
S'webcoreglue'
p291
sg9
S'32676'
p292
sg11
S'getAbsoluteBoundingBox failed for node 0x5ffb3bc0, name RenderSVGContainer\n'
p293
sa(dp294
g2
S'31563'
p295
sg4
L1449651982361L
sg5
g20
sg7
S'webcoreglue'
p296
sg9
S'32676'
p297
sg11
S'getAbsoluteBoundingBox failed for node 0x5ffb3e60, name RenderSVGContainer\n'
p298
sa(dp299
g2
S'31563'
p300
sg4
L1449651982361L
sg5
g20
sg7
S'webcoreglue'
p301
sg9
S'32676'
p302
sg11
S'getAbsoluteBoundingBox failed for node 0x5ffb4020, name RenderSVGContainer\n'
p303
sa(dp304
g2
S'31563'
p305
sg4
L1449651982361L
sg5
g20
sg7
S'webcoreglue'
p306
sg9
S'32676'
p307
sg11
S'getAbsoluteBoundingBox failed for node 0x5ffb46c8, name RenderSVGPath\n'
p308
sa(dp309
g2
S'31563'
p310
sg4
L1449651982841L
sg5
g6
sg7
S'IInputConnectionWrapper'
p311
sg9
S'31563'
p312
sg11
S'performPrivateCommand on inactive InputConnection\n'
p313
sa(dp314
g2
S'31563'
p315
sg4
L1449652003181L
sg5
g6
sg7
S'IInputConnectionWrapper'
p316
sg9
S'31563'
p317
sg11
S'performPrivateCommand on inactive InputConnection\n'
p318
sa(dp319
g2
S'31563'
p320
sg4
L1449652003201L
sg5
g6
sg7
S'IInputConnectionWrapper'
p321
sg9
S'31563'
p322
sg11
S'performPrivateCommand on inactive InputConnection\n'
p323
sa(dp324
g2
S'31563'
p325
sg4
L1449652005751L
sg5
g6
sg7
S'IInputConnectionWrapper'
p326
sg9
S'31563'
p327
sg11
S'performPrivateCommand on inactive InputConnection\n'
p328
sa(dp329
g2
S'31563'
p330
sg4
L1449652010681L
sg5
g6
sg7
S'IInputConnectionWrapper'
p331
sg9
S'31563'
p332
sg11
S'performPrivateCommand on inactive InputConnection\n'
p333
sa(dp334
g2
S'31563'
p335
sg4
L1449652030421L
sg5
g20
sg7
S'webcoreglue'
p336
sg9
S'32676'
p337
sg11
S'getAbsoluteBoundingBox failed for node 0x601d3ac0, name RenderSVGContainer\n'
p338
sa(dp339
g2
S'31563'
p340
sg4
L1449652030421L
sg5
g20
sg7
S'webcoreglue'
p341
sg9
S'32676'
p342
sg11
S'getAbsoluteBoundingBox failed for node 0x601d3d30, name RenderSVGContainer\n'
p343
sa(dp344
g2
S'31563'
p345
sg4
L1449652030421L
sg5
g20
sg7
S'webcoreglue'
p346
sg9
S'32676'
p347
sg11
S'getAbsoluteBoundingBox failed for node 0x601d2808, name RenderSVGContainer\n'
p348
sa(dp349
g2
S'31563'
p350
sg4
L1449652030421L
sg5
g20
sg7
S'webcoreglue'
p351
sg9
S'32676'
p352
sg11
S'getAbsoluteBoundingBox failed for node 0x601d2920, name RenderSVGPath\n'
p353
sa(dp354
g2
S'31563'
p355
sg4
L1449652030911L
sg5
g6
sg7
S'IInputConnectionWrapper'
p356
sg9
S'31563'
p357
sg11
S'performPrivateCommand on inactive InputConnection\n'
p358
sa(dp359
g2
S'31563'
p360
sg4
L1449652046821L
sg5
g6
sg7
S'IInputConnectionWrapper'
p361
sg9
S'31563'
p362
sg11
S'performPrivateCommand on inactive InputConnection\n'
p363
sa(dp364
g2
S'31563'
p365
sg4
L1449652050391L
sg5
g6
sg7
S'dalvikvm'
p366
sg9
S'31619'
p367
sg11
S'threadid=14: thread exiting with uncaught exception (group=0x417b7940)\n'
p368
sa(dp369
g2
S'31563'
p370
sg4
L1449652050391L
sg5
g20
sg7
S'AndroidRuntime'
p371
sg9
S'31619'
p372
sg11
S'FATAL EXCEPTION: Thread-5337\njava.lang.NullPointerException\n\tat android.app.Instrumentation.finish(Instrumentation.java:190)\n\tat cn.edu.nju.ise.kikandroid.AUTInstrument.quitInstr(AUTInstrument.java:195)\n\tat cn.edu.nju.ise.kikandroid.AUTInstrument.startServer(AUTInstrument.java:161)\n\tat cn.edu.nju.ise.kikandroid.AUTInstrument$1.run(AUTInstrument.java:107)\n\tat java.lang.Thread.run(Thread.java:841)\n'
p373
sa.