(lp0
(dp1
S'EventTime'
p2
S'13733003'
p3
sS'SyscTime'
p4
L1449728826133L
sS'recordCount'
p5
S'0'
p6
sS'EventType'
p7
S'TYPE_WINDOW_STATE_CHANGED'
p8
sS'PackageName'
p9
S'com.example.myfristandroid'
p10
sS'OutBounds'
p11
S'Rect(0, 0 - 540, 960)'
p12
sS'Action'
p13
S'[ ClassName: com.example.myfristandroid.SplashActivity; Text: [SE-1800\xe7\xa7\xbb\xe5\x8a\xa8APP]; ContentDescription: null; ItemCount: -1; CurrentItemIndex: -1; IsEnabled: true; IsPassword: false; IsChecked: false; IsFullScreen: true; Scrollable: false; BeforeText: null; FromIndex: -1; ToIndex: -1; ScrollX: -1; ScrollY: -1; MaxScrollX: -1; MaxScrollY: -1; AddedCount: -1; RemovedCount: -1; ParcelableData: null ]'
p14
sS'MovementGranularity'
p15
g6
sa(dp16
S'EventTime'
p17
S'13733086'
p18
sg4
L1449728826193L
sS'recordCount'
p19
g6
sS'EventType'
p20
S'TYPE_WINDOW_CONTENT_CHANGED'
p21
sS'PackageName'
p22
S'com.example.myfristandroid'
p23
sS'OutBounds'
p24
S'Rect(0, 0 - 540, 960)'
p25
sS'Action'
p26
S'[ ClassName: android.widget.FrameLayout; Text: []; ContentDescription: null; ItemCount: -1; CurrentItemIndex: -1; IsEnabled: true; IsPassword: false; IsChecked: false; IsFullScreen: false; Scrollable: false; BeforeText: null; FromIndex: -1; ToIndex: -1; ScrollX: -1; ScrollY: -1; MaxScrollX: -1; MaxScrollY: -1; AddedCount: -1; RemovedCount: -1; ParcelableData: null ]'
p27
sS'MovementGranularity'
p28
g6
sa(dp29
S'EventTime'
p30
S'13733263'
p31
sg4
L1449728826339L
sS'recordCount'
p32
g6
sS'EventType'
p33
S'TYPE_WINDOW_CONTENT_CHANGED'
p34
sS'PackageName'
p35
S'com.example.myfristandroid'
p36
sS'OutBounds'
p37
S'Rect(0, 0 - 540, 960)'
p38
sS'Action'
p39
S'[ ClassName: android.widget.FrameLayout; Text: []; ContentDescription: null; ItemCount: -1; CurrentItemIndex: -1; IsEnabled: true; IsPassword: false; IsChecked: false; IsFullScreen: false; Scrollable: false; BeforeText: null; FromIndex: -1; ToIndex: -1; ScrollX: -1; ScrollY: -1; MaxScrollX: -1; MaxScrollY: -1; AddedCount: -1; RemovedCount: -1; ParcelableData: null ]'
p40
sS'MovementGranularity'
p41
g6
sa(dp42
S'EventTime'
p43
S'13735708'
p44
sg4
L1449728828784L
sS'recordCount'
p45
g6
sS'EventType'
p46
S'TYPE_VIEW_FOCUSED'
p47
sS'PackageName'
p48
S'com.example.myfristandroid'
p49
sS'Action'
p50
S'[ ClassName: android.widget.LinearLayout; Text: []; ContentDescription: null; ItemCount: 6; CurrentItemIndex: 0; IsEnabled: true; IsPassword: false; IsChecked: false; IsFullScreen: false; Scrollable: false; BeforeText: null; FromIndex: -1; ToIndex: -1; ScrollX: -1; ScrollY: -1; MaxScrollX: -1; MaxScrollY: -1; AddedCount: -1; RemovedCount: -1; ParcelableData: null ]'
p51
sS'MovementGranularity'
p52
g6
sa(dp53
S'EventTime'
p54
S'13735914'
p55
sg4
L1449728829036L
sS'recordCount'
p56
g6
sS'EventType'
p57
S'TYPE_WINDOW_STATE_CHANGED'
p58
sS'PackageName'
p59
S'com.example.myfristandroid'
p60
sS'OutBounds'
p61
S'Rect(0, 0 - 540, 960)'
p62
sS'Action'
p63
S'[ ClassName: com.example.myfristandroid.MainActivity; Text: [SE-1800\xe7\xa7\xbb\xe5\x8a\xa8APP]; ContentDescription: null; ItemCount: -1; CurrentItemIndex: -1; IsEnabled: true; IsPassword: false; IsChecked: false; IsFullScreen: true; Scrollable: false; BeforeText: null; FromIndex: -1; ToIndex: -1; ScrollX: -1; ScrollY: -1; MaxScrollX: -1; MaxScrollY: -1; AddedCount: -1; RemovedCount: -1; ParcelableData: null ]'
p64
sS'MovementGranularity'
p65
g6
sa(dp66
S'EventTime'
p67
S'13735919'
p68
sg4
L1449728829042L
sS'recordCount'
p69
g6
sS'EventType'
p70
S'TYPE_VIEW_SCROLLED'
p71
sS'PackageName'
p72
S'com.example.myfristandroid'
p73
sS'OutBounds'
p74
S'Rect(550, 315 - 1070, 315)'
p75
sS'Action'
p76
S'[ ClassName: android.widget.ListView; Text: []; ContentDescription: null; ItemCount: 0; CurrentItemIndex: -1; IsEnabled: true; IsPassword: false; IsChecked: false; IsFullScreen: false; Scrollable: false; BeforeText: null; FromIndex: 0; ToIndex: -1; ScrollX: -1; ScrollY: -1; MaxScrollX: -1; MaxScrollY: -1; AddedCount: -1; RemovedCount: -1; ParcelableData: null ]'
p77
sS'MovementGranularity'
p78
g6
sa(dp79
S'EventTime'
p80
S'13736062'
p81
sg4
L1449728829175L
sS'recordCount'
p82
g6
sS'EventType'
p83
S'TYPE_WINDOW_CONTENT_CHANGED'
p84
sS'PackageName'
p85
S'com.example.myfristandroid'
p86
sS'OutBounds'
p87
S'Rect(0, 0 - 540, 960)'
p88
sS'Action'
p89
S'[ ClassName: android.widget.FrameLayout; Text: []; ContentDescription: null; ItemCount: -1; CurrentItemIndex: -1; IsEnabled: true; IsPassword: false; IsChecked: false; IsFullScreen: false; Scrollable: false; BeforeText: null; FromIndex: -1; ToIndex: -1; ScrollX: -1; ScrollY: -1; MaxScrollX: -1; MaxScrollY: -1; AddedCount: -1; RemovedCount: -1; ParcelableData: null ]'
p90
sS'MovementGranularity'
p91
g6
sa(dp92
S'EventTime'
p93
S'13738214'
p94
sg4
L1449728831308L
sS'recordCount'
p95
g6
sS'EventType'
p96
S'TYPE_WINDOW_STATE_CHANGED'
p97
sS'PackageName'
p98
S'com.example.myfristandroid'
p99
sS'OutBounds'
p100
S'Rect(0, 0 - 540, 960)'
p101
sS'Action'
p102
S'[ ClassName: com.example.myfristandroid.HuzAlertDialog; Text: [\xe6\x8f\x90\xe7\xa4\xba, \xe7\x89\x88\xe6\x9c\xac\xe6\x9c\x89\xe6\x9b\xb4\xe6\x96\xb0\xef\xbc\x8c\xe6\x98\xaf\xe5\x90\xa6\xe9\x9c\x80\xe8\xa6\x81\xe6\x9b\xb4\xe6\x96\xb0, \xe7\xab\x8b\xe5\x8d\xb3\xe6\x9b\xb4\xe6\x96\xb0, \xe7\xa8\x8d\xe5\x90\x8e\xe6\x9b\xb4\xe6\x96\xb0]; ContentDescription: null; ItemCount: -1; CurrentItemIndex: -1; IsEnabled: true; IsPassword: false; IsChecked: false; IsFullScreen: true; Scrollable: false; BeforeText: null; FromIndex: -1; ToIndex: -1; ScrollX: -1; ScrollY: -1; MaxScrollX: -1; MaxScrollY: -1; AddedCount: -1; RemovedCount: -1; ParcelableData: null ]'
p103
sS'MovementGranularity'
p104
g6
sa(dp105
S'EventTime'
p106
S'13738293'
p107
sg4
L1449728831391L
sS'recordCount'
p108
g6
sS'EventType'
p109
S'TYPE_WINDOW_CONTENT_CHANGED'
p110
sS'PackageName'
p111
S'com.example.myfristandroid'
p112
sS'OutBounds'
p113
S'Rect(0, 0 - 540, 960)'
p114
sS'Action'
p115
S'[ ClassName: android.widget.FrameLayout; Text: []; ContentDescription: null; ItemCount: -1; CurrentItemIndex: -1; IsEnabled: true; IsPassword: false; IsChecked: false; IsFullScreen: false; Scrollable: false; BeforeText: null; FromIndex: -1; ToIndex: -1; ScrollX: -1; ScrollY: -1; MaxScrollX: -1; MaxScrollY: -1; AddedCount: -1; RemovedCount: -1; ParcelableData: null ]'
p116
sS'MovementGranularity'
p117
g6
sa(dp118
S'EventTime'
p119
S'13739363'
p120
sg4
L1449728832441L
sS'recordCount'
p121
g6
sS'EventType'
p122
S'TYPE_VIEW_CLICKED'
p123
sS'PackageName'
p124
S'com.example.myfristandroid'
p125
sS'OutBounds'
p126
S'Rect(279, 532 - 508, 604)'
p127
sS'Action'
p128
S'[ ClassName: android.widget.Button; Text: [\xe7\xa8\x8d\xe5\x90\x8e\xe6\x9b\xb4\xe6\x96\xb0]; ContentDescription: null; ItemCount: -1; CurrentItemIndex: -1; IsEnabled: true; IsPassword: false; IsChecked: false; IsFullScreen: false; Scrollable: false; BeforeText: null; FromIndex: -1; ToIndex: -1; ScrollX: -1; ScrollY: -1; MaxScrollX: -1; MaxScrollY: -1; AddedCount: -1; RemovedCount: -1; ParcelableData: null ]'
p129
sS'MovementGranularity'
p130
g6
sa(dp131
S'EventTime'
p132
S'13739418'
p133
sg4
L1449728832527L
sS'recordCount'
p134
g6
sS'EventType'
p135
S'TYPE_WINDOW_STATE_CHANGED'
p136
sS'PackageName'
p137
S'com.example.myfristandroid'
p138
sS'OutBounds'
p139
S'Rect(0, 0 - 540, 960)'
p140
sS'Action'
p141
S'[ ClassName: com.example.myfristandroid.MainActivity; Text: [SE-1800\xe7\xa7\xbb\xe5\x8a\xa8APP]; ContentDescription: null; ItemCount: -1; CurrentItemIndex: -1; IsEnabled: true; IsPassword: false; IsChecked: false; IsFullScreen: true; Scrollable: false; BeforeText: null; FromIndex: -1; ToIndex: -1; ScrollX: -1; ScrollY: -1; MaxScrollX: -1; MaxScrollY: -1; AddedCount: -1; RemovedCount: -1; ParcelableData: null ]'
p142
sS'MovementGranularity'
p143
g6
sa(dp144
S'EventTime'
p145
S'13741149'
p146
sg4
L1449728834221L
sS'recordCount'
p147
S'1'
p148
sS'EventType'
p149
S'TYPE_VIEW_CLICKED'
p150
sS'PackageName'
p151
S'com.example.myfristandroid'
p152
sS'OutBounds'
p153
S'Rect(182, 288 - 358, 464)'
p154
sS'Action'
p155
S'[ ClassName: android.widget.RelativeLayout; Text: [\xe6\xb1\x87\xe6\xb5\x81\xe7\xae\xb1]; ContentDescription: null; ItemCount: -1; CurrentItemIndex: -1; IsEnabled: true; IsPassword: false; IsChecked: false; IsFullScreen: false; Scrollable: false; BeforeText: null; FromIndex: -1; ToIndex: -1; ScrollX: -1; ScrollY: -1; MaxScrollX: -1; MaxScrollY: -1; AddedCount: -1; RemovedCount: -1; ParcelableData: null ]'
p156
sS'MovementGranularity'
p157
g6
sa(dp158
S'EventTime'
p159
S'13741373'
p160
sg4
L1449728834456L
sS'recordCount'
p161
g6
sS'EventType'
p162
S'TYPE_VIEW_FOCUSED'
p163
sS'PackageName'
p164
S'com.example.myfristandroid'
p165
sS'OutBounds'
p166
S'Rect(0, 106 - 540, 960)'
p167
sS'Action'
p168
S'[ ClassName: android.webkit.WebView; Text: []; ContentDescription: null; ItemCount: 2; CurrentItemIndex: 1; IsEnabled: true; IsPassword: false; IsChecked: false; IsFullScreen: false; Scrollable: false; BeforeText: null; FromIndex: -1; ToIndex: -1; ScrollX: 0; ScrollY: 0; MaxScrollX: 0; MaxScrollY: 0; AddedCount: -1; RemovedCount: -1; ParcelableData: null ]'
p169
sS'MovementGranularity'
p170
g6
sa(dp171
S'EventTime'
p172
S'13741421'
p173
sg4
L1449728834498L
sS'recordCount'
p174
g6
sS'EventType'
p175
S'TYPE_WINDOW_STATE_CHANGED'
p176
sS'PackageName'
p177
S'com.example.myfristandroid'
p178
sS'OutBounds'
p179
S'Rect(0, 0 - 540, 960)'
p180
sS'Action'
p181
S'[ ClassName: com.example.myfristandroid.graphWebShow; Text: [SE-1800\xe7\xa7\xbb\xe5\x8a\xa8APP]; ContentDescription: null; ItemCount: -1; CurrentItemIndex: -1; IsEnabled: true; IsPassword: false; IsChecked: false; IsFullScreen: true; Scrollable: false; BeforeText: null; FromIndex: -1; ToIndex: -1; ScrollX: -1; ScrollY: -1; MaxScrollX: -1; MaxScrollY: -1; AddedCount: -1; RemovedCount: -1; ParcelableData: null ]'
p182
sS'MovementGranularity'
p183
g6
sa(dp184
S'EventTime'
p185
S'13741432'
p186
sg4
L1449728834508L
sS'recordCount'
p187
g6
sS'EventType'
p188
S'TYPE_WINDOW_CONTENT_CHANGED'
p189
sS'PackageName'
p190
S'com.example.myfristandroid'
p191
sS'OutBounds'
p192
S'Rect(0, 0 - 540, 960)'
p193
sS'Action'
p194
S'[ ClassName: android.widget.FrameLayout; Text: []; ContentDescription: null; ItemCount: -1; CurrentItemIndex: -1; IsEnabled: true; IsPassword: false; IsChecked: false; IsFullScreen: false; Scrollable: false; BeforeText: null; FromIndex: -1; ToIndex: -1; ScrollX: -1; ScrollY: -1; MaxScrollX: -1; MaxScrollY: -1; AddedCount: -1; RemovedCount: -1; ParcelableData: null ]'
p195
sS'MovementGranularity'
p196
g6
sa(dp197
S'EventTime'
p198
S'13741467'
p199
sg4
L1449728834536L
sS'recordCount'
p200
g6
sS'EventType'
p201
S'TYPE_VIEW_TEXT_SELECTION_CHANGED'
p202
sS'PackageName'
p203
S'com.example.myfristandroid'
p204
sS'Action'
p205
S'[ ClassName: android.widget.EditText; Text: [\xe6\x90\x9c\xe7\xb4\xa2]; ContentDescription: null; ItemCount: 0; CurrentItemIndex: -1; IsEnabled: true; IsPassword: false; IsChecked: false; IsFullScreen: false; Scrollable: false; BeforeText: null; FromIndex: 0; ToIndex: 0; ScrollX: -1; ScrollY: -1; MaxScrollX: -1; MaxScrollY: -1; AddedCount: -1; RemovedCount: -1; ParcelableData: null ]'
p206
sS'MovementGranularity'
p207
g6
sa(dp208
S'EventTime'
p209
S'13741539'
p210
sg4
L1449728834611L
sS'recordCount'
p211
g6
sS'EventType'
p212
S'TYPE_WINDOW_CONTENT_CHANGED'
p213
sS'PackageName'
p214
S'com.example.myfristandroid'
p215
sS'OutBounds'
p216
S'Rect(0, 0 - 540, 960)'
p217
sS'Action'
p218
S'[ ClassName: android.widget.FrameLayout; Text: []; ContentDescription: null; ItemCount: -1; CurrentItemIndex: -1; IsEnabled: true; IsPassword: false; IsChecked: false; IsFullScreen: false; Scrollable: false; BeforeText: null; FromIndex: -1; ToIndex: -1; ScrollX: -1; ScrollY: -1; MaxScrollX: -1; MaxScrollY: -1; AddedCount: -1; RemovedCount: -1; ParcelableData: null ]'
p219
sS'MovementGranularity'
p220
g6
sa(dp221
S'EventTime'
p222
S'13745055'
p223
sg4
L1449728838272L
sS'recordCount'
p224
g6
sS'EventType'
p225
S'TYPE_WINDOW_CONTENT_CHANGED'
p226
sS'PackageName'
p227
S'com.example.myfristandroid'
p228
sS'OutBounds'
p229
S'Rect(0, 0 - 960, 540)'
p230
sS'Action'
p231
S'[ ClassName: android.widget.FrameLayout; Text: []; ContentDescription: null; ItemCount: -1; CurrentItemIndex: -1; IsEnabled: true; IsPassword: false; IsChecked: false; IsFullScreen: false; Scrollable: false; BeforeText: null; FromIndex: -1; ToIndex: -1; ScrollX: -1; ScrollY: -1; MaxScrollX: -1; MaxScrollY: -1; AddedCount: -1; RemovedCount: -1; ParcelableData: null ]'
p232
sS'MovementGranularity'
p233
g6
sa(dp234
S'EventTime'
p235
S'13745826'
p236
sg4
L1449728838913L
sS'recordCount'
p237
g6
sS'EventType'
p238
S'TYPE_WINDOW_STATE_CHANGED'
p239
sS'PackageName'
p240
S'com.example.myfristandroid'
p241
sS'OutBounds'
p242
S'Rect(405, 214 - 555, 364)'
p243
sS'Action'
p244
S'[ ClassName: com.example.myfristandroid.CustomProgressDialog; Text: []; ContentDescription: null; ItemCount: -1; CurrentItemIndex: -1; IsEnabled: true; IsPassword: false; IsChecked: false; IsFullScreen: false; Scrollable: false; BeforeText: null; FromIndex: -1; ToIndex: -1; ScrollX: -1; ScrollY: -1; MaxScrollX: -1; MaxScrollY: -1; AddedCount: -1; RemovedCount: -1; ParcelableData: null ]'
p245
sS'MovementGranularity'
p246
g6
sa(dp247
S'EventTime'
p248
S'13745875'
p249
sg4
L1449728838948L
sS'recordCount'
p250
g6
sS'EventType'
p251
S'TYPE_WINDOW_CONTENT_CHANGED'
p252
sS'PackageName'
p253
S'com.example.myfristandroid'
p254
sS'OutBounds'
p255
S'Rect(405, 214 - 555, 364)'
p256
sS'Action'
p257
S'[ ClassName: android.widget.FrameLayout; Text: []; ContentDescription: null; ItemCount: -1; CurrentItemIndex: -1; IsEnabled: true; IsPassword: false; IsChecked: false; IsFullScreen: false; Scrollable: false; BeforeText: null; FromIndex: -1; ToIndex: -1; ScrollX: -1; ScrollY: -1; MaxScrollX: -1; MaxScrollY: -1; AddedCount: -1; RemovedCount: -1; ParcelableData: null ]'
p258
sS'MovementGranularity'
p259
g6
sa(dp260
S'EventTime'
p261
S'13749703'
p262
sg4
L1449728842776L
sS'recordCount'
p263
g6
sS'EventType'
p264
S'TYPE_WINDOW_STATE_CHANGED'
p265
sS'PackageName'
p266
S'com.example.myfristandroid'
p267
sS'OutBounds'
p268
S'Rect(0, 0 - 960, 540)'
p269
sS'Action'
p270
S'[ ClassName: com.example.myfristandroid.graphWebShow; Text: [SE-1800\xe7\xa7\xbb\xe5\x8a\xa8APP]; ContentDescription: null; ItemCount: -1; CurrentItemIndex: -1; IsEnabled: true; IsPassword: false; IsChecked: false; IsFullScreen: true; Scrollable: false; BeforeText: null; FromIndex: -1; ToIndex: -1; ScrollX: -1; ScrollY: -1; MaxScrollX: -1; MaxScrollY: -1; AddedCount: -1; RemovedCount: -1; ParcelableData: null ]'
p271
sS'MovementGranularity'
p272
g6
sa(dp273
S'EventTime'
p274
S'13753794'
p275
sg4
L1449728846886L
sS'recordCount'
p276
g6
sS'EventType'
p277
S'TYPE_WINDOW_STATE_CHANGED'
p278
sS'PackageName'
p279
S'com.example.myfristandroid'
p280
sS'OutBounds'
p281
S'Rect(0, 0 - 540, 960)'
p282
sS'Action'
p283
S'[ ClassName: com.example.myfristandroid.MainActivity; Text: [SE-1800\xe7\xa7\xbb\xe5\x8a\xa8APP]; ContentDescription: null; ItemCount: -1; CurrentItemIndex: -1; IsEnabled: true; IsPassword: false; IsChecked: false; IsFullScreen: true; Scrollable: false; BeforeText: null; FromIndex: -1; ToIndex: -1; ScrollX: -1; ScrollY: -1; MaxScrollX: -1; MaxScrollY: -1; AddedCount: -1; RemovedCount: -1; ParcelableData: null ]'
p284
sS'MovementGranularity'
p285
g6
sa(dp286
S'EventTime'
p287
S'13755009'
p288
sg4
L1449728848081L
sS'recordCount'
p289
g148
sS'EventType'
p290
S'TYPE_VIEW_CLICKED'
p291
sS'PackageName'
p292
S'com.example.myfristandroid'
p293
sS'OutBounds'
p294
S'Rect(359, 288 - 535, 464)'
p295
sS'Action'
p296
S'[ ClassName: android.widget.RelativeLayout; Text: [\xe7\x8e\xaf\xe5\xa2\x83\xe7\x9b\x91\xe6\xb5\x8b]; ContentDescription: null; ItemCount: -1; CurrentItemIndex: -1; IsEnabled: true; IsPassword: false; IsChecked: false; IsFullScreen: false; Scrollable: false; BeforeText: null; FromIndex: -1; ToIndex: -1; ScrollX: -1; ScrollY: -1; MaxScrollX: -1; MaxScrollY: -1; AddedCount: -1; RemovedCount: -1; ParcelableData: null ]'
p297
sS'MovementGranularity'
p298
g6
sa(dp299
S'EventTime'
p300
S'13755212'
p301
sg4
L1449728848293L
sS'recordCount'
p302
g6
sS'EventType'
p303
S'TYPE_VIEW_FOCUSED'
p304
sS'PackageName'
p305
S'com.example.myfristandroid'
p306
sS'OutBounds'
p307
S'Rect(0, 106 - 540, 960)'
p308
sS'Action'
p309
S'[ ClassName: android.webkit.WebView; Text: []; ContentDescription: null; ItemCount: 2; CurrentItemIndex: 1; IsEnabled: true; IsPassword: false; IsChecked: false; IsFullScreen: false; Scrollable: false; BeforeText: null; FromIndex: -1; ToIndex: -1; ScrollX: 0; ScrollY: 0; MaxScrollX: 0; MaxScrollY: 0; AddedCount: -1; RemovedCount: -1; ParcelableData: null ]'
p310
sS'MovementGranularity'
p311
g6
sa(dp312
S'EventTime'
p313
S'13755248'
p314
sg4
L1449728848323L
sS'recordCount'
p315
g6
sS'EventType'
p316
S'TYPE_WINDOW_STATE_CHANGED'
p317
sS'PackageName'
p318
S'com.example.myfristandroid'
p319
sS'OutBounds'
p320
S'Rect(0, 0 - 540, 960)'
p321
sS'Action'
p322
S'[ ClassName: com.example.myfristandroid.graphWebShow; Text: [SE-1800\xe7\xa7\xbb\xe5\x8a\xa8APP]; ContentDescription: null; ItemCount: -1; CurrentItemIndex: -1; IsEnabled: true; IsPassword: false; IsChecked: false; IsFullScreen: true; Scrollable: false; BeforeText: null; FromIndex: -1; ToIndex: -1; ScrollX: -1; ScrollY: -1; MaxScrollX: -1; MaxScrollY: -1; AddedCount: -1; RemovedCount: -1; ParcelableData: null ]'
p323
sS'MovementGranularity'
p324
g6
sa(dp325
S'EventTime'
p326
S'13755291'
p327
sg4
L1449728848363L
sS'recordCount'
p328
g6
sS'EventType'
p329
S'TYPE_WINDOW_CONTENT_CHANGED'
p330
sS'PackageName'
p331
S'com.example.myfristandroid'
p332
sS'OutBounds'
p333
S'Rect(0, 0 - 540, 960)'
p334
sS'Action'
p335
S'[ ClassName: android.widget.FrameLayout; Text: []; ContentDescription: null; ItemCount: -1; CurrentItemIndex: -1; IsEnabled: true; IsPassword: false; IsChecked: false; IsFullScreen: false; Scrollable: false; BeforeText: null; FromIndex: -1; ToIndex: -1; ScrollX: -1; ScrollY: -1; MaxScrollX: -1; MaxScrollY: -1; AddedCount: -1; RemovedCount: -1; ParcelableData: null ]'
p336
sS'MovementGranularity'
p337
g6
sa(dp338
S'EventTime'
p339
S'13755312'
p340
sg4
L1449728848382L
sS'recordCount'
p341
g6
sS'EventType'
p342
S'TYPE_VIEW_TEXT_SELECTION_CHANGED'
p343
sS'PackageName'
p344
S'com.example.myfristandroid'
p345
sS'Action'
p346
S'[ ClassName: android.widget.EditText; Text: [\xe6\x90\x9c\xe7\xb4\xa2]; ContentDescription: null; ItemCount: 0; CurrentItemIndex: -1; IsEnabled: true; IsPassword: false; IsChecked: false; IsFullScreen: false; Scrollable: false; BeforeText: null; FromIndex: 0; ToIndex: 0; ScrollX: -1; ScrollY: -1; MaxScrollX: -1; MaxScrollY: -1; AddedCount: -1; RemovedCount: -1; ParcelableData: null ]'
p347
sS'MovementGranularity'
p348
g6
sa(dp349
S'EventTime'
p350
S'13756325'
p351
sg4
L1449728849428L
sS'recordCount'
p352
g6
sS'EventType'
p353
S'TYPE_WINDOW_CONTENT_CHANGED'
p354
sS'PackageName'
p355
S'com.example.myfristandroid'
p356
sS'OutBounds'
p357
S'Rect(0, 0 - 960, 540)'
p358
sS'Action'
p359
S'[ ClassName: android.widget.FrameLayout; Text: []; ContentDescription: null; ItemCount: -1; CurrentItemIndex: -1; IsEnabled: true; IsPassword: false; IsChecked: false; IsFullScreen: false; Scrollable: false; BeforeText: null; FromIndex: -1; ToIndex: -1; ScrollX: -1; ScrollY: -1; MaxScrollX: -1; MaxScrollY: -1; AddedCount: -1; RemovedCount: -1; ParcelableData: null ]'
p360
sS'MovementGranularity'
p361
g6
sa(dp362
S'EventTime'
p363
S'13758509'
p364
sg4
L1449728851582L
sS'recordCount'
p365
g6
sS'EventType'
p366
S'TYPE_WINDOW_STATE_CHANGED'
p367
sS'PackageName'
p368
S'com.example.myfristandroid'
p369
sS'OutBounds'
p370
S'Rect(0, 0 - 960, 540)'
p371
sS'Action'
p372
S'[ ClassName: com.example.myfristandroid.graphWebShow; Text: [SE-1800\xe7\xa7\xbb\xe5\x8a\xa8APP]; ContentDescription: null; ItemCount: -1; CurrentItemIndex: -1; IsEnabled: true; IsPassword: false; IsChecked: false; IsFullScreen: true; Scrollable: false; BeforeText: null; FromIndex: -1; ToIndex: -1; ScrollX: -1; ScrollY: -1; MaxScrollX: -1; MaxScrollY: -1; AddedCount: -1; RemovedCount: -1; ParcelableData: null ]'
p373
sS'MovementGranularity'
p374
g6
sa(dp375
S'EventTime'
p376
S'13764061'
p377
sg4
L1449728857180L
sS'recordCount'
p378
g6
sS'EventType'
p379
S'TYPE_WINDOW_STATE_CHANGED'
p380
sS'PackageName'
p381
S'com.example.myfristandroid'
p382
sS'OutBounds'
p383
S'Rect(0, 0 - 540, 960)'
p384
sS'Action'
p385
S'[ ClassName: com.example.myfristandroid.MainActivity; Text: [SE-1800\xe7\xa7\xbb\xe5\x8a\xa8APP]; ContentDescription: null; ItemCount: -1; CurrentItemIndex: -1; IsEnabled: true; IsPassword: false; IsChecked: false; IsFullScreen: true; Scrollable: false; BeforeText: null; FromIndex: -1; ToIndex: -1; ScrollX: -1; ScrollY: -1; MaxScrollX: -1; MaxScrollY: -1; AddedCount: -1; RemovedCount: -1; ParcelableData: null ]'
p386
sS'MovementGranularity'
p387
g6
sa(dp388
S'EventTime'
p389
S'13765468'
p390
sg4
L1449728858537L
sS'recordCount'
p391
g148
sS'EventType'
p392
S'TYPE_VIEW_CLICKED'
p393
sS'PackageName'
p394
S'com.example.myfristandroid'
p395
sS'OutBounds'
p396
S'Rect(5, 465 - 181, 641)'
p397
sS'Action'
p398
S'[ ClassName: android.widget.RelativeLayout; Text: [\xe7\xb3\xbb\xe7\xbb\x9f\xe6\x8b\x93\xe6\x89\x91\xe5\x9b\xbe]; ContentDescription: null; ItemCount: -1; CurrentItemIndex: -1; IsEnabled: true; IsPassword: false; IsChecked: false; IsFullScreen: false; Scrollable: false; BeforeText: null; FromIndex: -1; ToIndex: -1; ScrollX: -1; ScrollY: -1; MaxScrollX: -1; MaxScrollY: -1; AddedCount: -1; RemovedCount: -1; ParcelableData: null ]'
p399
sS'MovementGranularity'
p400
g6
sa(dp401
S'EventTime'
p402
S'13765658'
p403
sg4
L1449728858730L
sS'recordCount'
p404
g6
sS'EventType'
p405
S'TYPE_VIEW_FOCUSED'
p406
sS'PackageName'
p407
S'com.example.myfristandroid'
p408
sS'OutBounds'
p409
S'Rect(0, 106 - 540, 960)'
p410
sS'Action'
p411
S'[ ClassName: android.webkit.WebView; Text: []; ContentDescription: null; ItemCount: 2; CurrentItemIndex: 1; IsEnabled: true; IsPassword: false; IsChecked: false; IsFullScreen: false; Scrollable: false; BeforeText: null; FromIndex: -1; ToIndex: -1; ScrollX: 0; ScrollY: 0; MaxScrollX: 0; MaxScrollY: 0; AddedCount: -1; RemovedCount: -1; ParcelableData: null ]'
p412
sS'MovementGranularity'
p413
g6
sa(dp414
S'EventTime'
p415
S'13765688'
p416
sg4
L1449728858761L
sS'recordCount'
p417
g6
sS'EventType'
p418
S'TYPE_WINDOW_STATE_CHANGED'
p419
sS'PackageName'
p420
S'com.example.myfristandroid'
p421
sS'OutBounds'
p422
S'Rect(0, 0 - 540, 960)'
p423
sS'Action'
p424
S'[ ClassName: com.example.myfristandroid.graphWebShow; Text: [SE-1800\xe7\xa7\xbb\xe5\x8a\xa8APP]; ContentDescription: null; ItemCount: -1; CurrentItemIndex: -1; IsEnabled: true; IsPassword: false; IsChecked: false; IsFullScreen: true; Scrollable: false; BeforeText: null; FromIndex: -1; ToIndex: -1; ScrollX: -1; ScrollY: -1; MaxScrollX: -1; MaxScrollY: -1; AddedCount: -1; RemovedCount: -1; ParcelableData: null ]'
p425
sS'MovementGranularity'
p426
g6
sa(dp427
S'EventTime'
p428
S'13765725'
p429
sg4
L1449728858800L
sS'recordCount'
p430
g6
sS'EventType'
p431
S'TYPE_WINDOW_CONTENT_CHANGED'
p432
sS'PackageName'
p433
S'com.example.myfristandroid'
p434
sS'OutBounds'
p435
S'Rect(0, 0 - 540, 960)'
p436
sS'Action'
p437
S'[ ClassName: android.widget.FrameLayout; Text: []; ContentDescription: null; ItemCount: -1; CurrentItemIndex: -1; IsEnabled: true; IsPassword: false; IsChecked: false; IsFullScreen: false; Scrollable: false; BeforeText: null; FromIndex: -1; ToIndex: -1; ScrollX: -1; ScrollY: -1; MaxScrollX: -1; MaxScrollY: -1; AddedCount: -1; RemovedCount: -1; ParcelableData: null ]'
p438
sS'MovementGranularity'
p439
g6
sa(dp440
S'EventTime'
p441
S'13765730'
p442
sg4
L1449728858802L
sS'recordCount'
p443
g6
sS'EventType'
p444
S'TYPE_VIEW_TEXT_SELECTION_CHANGED'
p445
sS'PackageName'
p446
S'com.example.myfristandroid'
p447
sS'Action'
p448
S'[ ClassName: android.widget.EditText; Text: [\xe6\x90\x9c\xe7\xb4\xa2]; ContentDescription: null; ItemCount: 0; CurrentItemIndex: -1; IsEnabled: true; IsPassword: false; IsChecked: false; IsFullScreen: false; Scrollable: false; BeforeText: null; FromIndex: 0; ToIndex: 0; ScrollX: -1; ScrollY: -1; MaxScrollX: -1; MaxScrollY: -1; AddedCount: -1; RemovedCount: -1; ParcelableData: null ]'
p449
sS'MovementGranularity'
p450
g6
sa(dp451
S'EventTime'
p452
S'13767023'
p453
sg4
L1449728860097L
sS'recordCount'
p454
g6
sS'EventType'
p455
S'TYPE_WINDOW_CONTENT_CHANGED'
p456
sS'PackageName'
p457
S'com.example.myfristandroid'
p458
sS'OutBounds'
p459
S'Rect(0, 0 - 960, 540)'
p460
sS'Action'
p461
S'[ ClassName: android.widget.FrameLayout; Text: []; ContentDescription: null; ItemCount: -1; CurrentItemIndex: -1; IsEnabled: true; IsPassword: false; IsChecked: false; IsFullScreen: false; Scrollable: false; BeforeText: null; FromIndex: -1; ToIndex: -1; ScrollX: -1; ScrollY: -1; MaxScrollX: -1; MaxScrollY: -1; AddedCount: -1; RemovedCount: -1; ParcelableData: null ]'
p462
sS'MovementGranularity'
p463
g6
sa(dp464
S'EventTime'
p465
S'13767163'
p466
sg4
L1449728860250L
sS'recordCount'
p467
g6
sS'EventType'
p468
S'TYPE_WINDOW_CONTENT_CHANGED'
p469
sS'PackageName'
p470
S'com.example.myfristandroid'
p471
sS'OutBounds'
p472
S'Rect(0, 0 - 960, 540)'
p473
sS'Action'
p474
S'[ ClassName: android.widget.FrameLayout; Text: []; ContentDescription: null; ItemCount: -1; CurrentItemIndex: -1; IsEnabled: true; IsPassword: false; IsChecked: false; IsFullScreen: false; Scrollable: false; BeforeText: null; FromIndex: -1; ToIndex: -1; ScrollX: -1; ScrollY: -1; MaxScrollX: -1; MaxScrollY: -1; AddedCount: -1; RemovedCount: -1; ParcelableData: null ]'
p475
sS'MovementGranularity'
p476
g6
sa(dp477
S'EventTime'
p478
S'13771612'
p479
sg4
L1449728864711L
sS'recordCount'
p480
g6
sS'EventType'
p481
S'TYPE_WINDOW_STATE_CHANGED'
p482
sS'PackageName'
p483
S'com.example.myfristandroid'
p484
sS'OutBounds'
p485
S'Rect(0, 0 - 540, 960)'
p486
sS'Action'
p487
S'[ ClassName: com.example.myfristandroid.MainActivity; Text: [SE-1800\xe7\xa7\xbb\xe5\x8a\xa8APP]; ContentDescription: null; ItemCount: -1; CurrentItemIndex: -1; IsEnabled: true; IsPassword: false; IsChecked: false; IsFullScreen: true; Scrollable: false; BeforeText: null; FromIndex: -1; ToIndex: -1; ScrollX: -1; ScrollY: -1; MaxScrollX: -1; MaxScrollY: -1; AddedCount: -1; RemovedCount: -1; ParcelableData: null ]'
p488
sS'MovementGranularity'
p489
g6
sa(dp490
S'EventTime'
p491
S'13772660'
p492
sg4
L1449728865729L
sS'recordCount'
p493
g148
sS'EventType'
p494
S'TYPE_VIEW_CLICKED'
p495
sS'PackageName'
p496
S'com.example.myfristandroid'
p497
sS'OutBounds'
p498
S'Rect(182, 465 - 358, 641)'
p499
sS'Action'
p500
S'[ ClassName: android.widget.RelativeLayout; Text: [\xe5\x87\x8f\xe6\x8e\x92\xe9\x87\x8f\xe4\xbf\xa1\xe6\x81\xaf]; ContentDescription: null; ItemCount: -1; CurrentItemIndex: -1; IsEnabled: true; IsPassword: false; IsChecked: false; IsFullScreen: false; Scrollable: false; BeforeText: null; FromIndex: -1; ToIndex: -1; ScrollX: -1; ScrollY: -1; MaxScrollX: -1; MaxScrollY: -1; AddedCount: -1; RemovedCount: -1; ParcelableData: null ]'
p501
sS'MovementGranularity'
p502
g6
sa(dp503
S'EventTime'
p504
S'13772824'
p505
sg4
L1449728865975L
sS'recordCount'
p506
g6
sS'EventType'
p507
S'TYPE_VIEW_FOCUSED'
p508
sS'PackageName'
p509
S'com.example.myfristandroid'
p510
sS'OutBounds'
p511
S'Rect(0, 106 - 540, 960)'
p512
sS'Action'
p513
S'[ ClassName: android.webkit.WebView; Text: []; ContentDescription: null; ItemCount: 2; CurrentItemIndex: 1; IsEnabled: true; IsPassword: false; IsChecked: false; IsFullScreen: false; Scrollable: false; BeforeText: null; FromIndex: -1; ToIndex: -1; ScrollX: 0; ScrollY: 0; MaxScrollX: 0; MaxScrollY: 0; AddedCount: -1; RemovedCount: -1; ParcelableData: null ]'
p514
sS'MovementGranularity'
p515
g6
sa(dp516
S'EventTime'
p517
S'13772940'
p518
sg4
L1449728866014L
sS'recordCount'
p519
g6
sS'EventType'
p520
S'TYPE_WINDOW_STATE_CHANGED'
p521
sS'PackageName'
p522
S'com.example.myfristandroid'
p523
sS'OutBounds'
p524
S'Rect(0, 0 - 540, 960)'
p525
sS'Action'
p526
S'[ ClassName: com.example.myfristandroid.graphWebShow; Text: [SE-1800\xe7\xa7\xbb\xe5\x8a\xa8APP]; ContentDescription: null; ItemCount: -1; CurrentItemIndex: -1; IsEnabled: true; IsPassword: false; IsChecked: false; IsFullScreen: true; Scrollable: false; BeforeText: null; FromIndex: -1; ToIndex: -1; ScrollX: -1; ScrollY: -1; MaxScrollX: -1; MaxScrollY: -1; AddedCount: -1; RemovedCount: -1; ParcelableData: null ]'
p527
sS'MovementGranularity'
p528
g6
sa(dp529
S'EventTime'
p530
S'13772942'
p531
sg4
L1449728866018L
sS'recordCount'
p532
g6
sS'EventType'
p533
S'TYPE_WINDOW_CONTENT_CHANGED'
p534
sS'PackageName'
p535
S'com.example.myfristandroid'
p536
sS'OutBounds'
p537
S'Rect(0, 0 - 540, 960)'
p538
sS'Action'
p539
S'[ ClassName: android.widget.FrameLayout; Text: []; ContentDescription: null; ItemCount: -1; CurrentItemIndex: -1; IsEnabled: true; IsPassword: false; IsChecked: false; IsFullScreen: false; Scrollable: false; BeforeText: null; FromIndex: -1; ToIndex: -1; ScrollX: -1; ScrollY: -1; MaxScrollX: -1; MaxScrollY: -1; AddedCount: -1; RemovedCount: -1; ParcelableData: null ]'
p540
sS'MovementGranularity'
p541
g6
sa(dp542
S'EventTime'
p543
S'13772982'
p544
sg4
L1449728866051L
sS'recordCount'
p545
g6
sS'EventType'
p546
S'TYPE_VIEW_TEXT_SELECTION_CHANGED'
p547
sS'PackageName'
p548
S'com.example.myfristandroid'
p549
sS'Action'
p550
S'[ ClassName: android.widget.EditText; Text: [\xe6\x90\x9c\xe7\xb4\xa2]; ContentDescription: null; ItemCount: 0; CurrentItemIndex: -1; IsEnabled: true; IsPassword: false; IsChecked: false; IsFullScreen: false; Scrollable: false; BeforeText: null; FromIndex: 0; ToIndex: 0; ScrollX: -1; ScrollY: -1; MaxScrollX: -1; MaxScrollY: -1; AddedCount: -1; RemovedCount: -1; ParcelableData: null ]'
p551
sS'MovementGranularity'
p552
g6
sa(dp553
S'EventTime'
p554
S'13773064'
p555
sg4
L1449728866135L
sS'recordCount'
p556
g6
sS'EventType'
p557
S'TYPE_WINDOW_CONTENT_CHANGED'
p558
sS'PackageName'
p559
S'com.example.myfristandroid'
p560
sS'OutBounds'
p561
S'Rect(0, 0 - 540, 960)'
p562
sS'Action'
p563
S'[ ClassName: android.widget.FrameLayout; Text: []; ContentDescription: null; ItemCount: -1; CurrentItemIndex: -1; IsEnabled: true; IsPassword: false; IsChecked: false; IsFullScreen: false; Scrollable: false; BeforeText: null; FromIndex: -1; ToIndex: -1; ScrollX: -1; ScrollY: -1; MaxScrollX: -1; MaxScrollY: -1; AddedCount: -1; RemovedCount: -1; ParcelableData: null ]'
p564
sS'MovementGranularity'
p565
g6
sa(dp566
S'EventTime'
p567
S'13775834'
p568
sg4
L1449728868946L
sS'recordCount'
p569
g6
sS'EventType'
p570
S'TYPE_WINDOW_STATE_CHANGED'
p571
sS'PackageName'
p572
S'com.example.myfristandroid'
p573
sS'OutBounds'
p574
S'Rect(0, 0 - 540, 960)'
p575
sS'Action'
p576
S'[ ClassName: com.example.myfristandroid.MainActivity; Text: [SE-1800\xe7\xa7\xbb\xe5\x8a\xa8APP]; ContentDescription: null; ItemCount: -1; CurrentItemIndex: -1; IsEnabled: true; IsPassword: false; IsChecked: false; IsFullScreen: true; Scrollable: false; BeforeText: null; FromIndex: -1; ToIndex: -1; ScrollX: -1; ScrollY: -1; MaxScrollX: -1; MaxScrollY: -1; AddedCount: -1; RemovedCount: -1; ParcelableData: null ]'
p577
sS'MovementGranularity'
p578
g6
sa.