(lp0
(dp1
S'processID'
p2
S'20307'
p3
sS'SyscTime'
p4
L1449728834210L
sS'priority'
p5
S'D'
p6
sS'tag'
p7
S'webcoreglue'
p8
sS'threadID'
p9
S'20389'
p10
sS'message'
p11
S'netstack: Memory Cache feature is ON\n'
p12
sa(dp13
g2
S'20307'
p14
sg4
L1449728834410L
sg5
g6
sg7
S'HostStatisticManager'
p15
sg9
S'20389'
p16
sg11
S'netstack: DNS Host Prioritization is: ON, Version: 5.0.1\n'
p17
sa(dp18
g2
S'20307'
p19
sg4
L1449728834440L
sg5
g6
sg7
S'external/chromium/net/socket/tcp_fin_aggregation_factory.cc'
p20
sg9
S'20389'
p21
sg11
S'external/chromium/net/socket/tcp_fin_aggregation_factory.cc: libtcpfinaggr.so successfully loaded\n'
p22
sa(dp23
g2
S'20307'
p24
sg4
L1449728834440L
sg5
g6
sg7
S'external/chromium/net/socket/tcp_fin_aggregation_factory.cc'
p25
sg9
S'20389'
p26
sg11
S'external/chromium/net/socket/tcp_fin_aggregation_factory.cc,: TCP Fin Aggregation initializing method was found in libtcpfinaggr.so\n'
p27
sa(dp28
g2
S'20307'
p29
sg4
L1449728834440L
sg5
g6
sg7
S'TCPFinAggregation'
p30
sg9
S'20389'
p31
sg11
S'netstack: TCPFinAggregation is 1, Version 5.0.1\n'
p32
sa(dp33
g2
S'20307'
p34
sg4
L1449728834440L
sg5
g6
sg7
S'TCPFinAggregation'
p35
sg9
S'20389'
p36
sg11
S'system property net.tcp.fin.aggregation.wait was set, value: 20\n'
p37
sa(dp38
g2
S'20307'
p39
sg4
L1449728834440L
sg5
g6
sg7
S'TCPFinAggregation'
p40
sg9
S'20389'
p41
sg11
S'system property net.tcp.fin.aggregation.close was set, value: 300\n'
p42
sa(dp43
g2
S'20307'
p44
sg4
L1449728834440L
sg5
g6
sg7
S'TCPFinAggregation'
p45
sg9
S'20389'
p46
sg11
S'netstack: CloseUnusedSockets is ON, (TCPFinAggregation), Version 5.0.1\n'
p47
sa(dp48
g2
S'20307'
p49
sg4
L1449728834440L
sg5
g6
sg7
S'TCPFinAggregation'
p50
sg9
S'20389'
p51
sg11
S'Failed to get network status! received ret: -2\n'
p52
sa(dp53
g2
S'20307'
p54
sg4
L1449728834440L
sg5
g6
sg7
S'Socket_Pool'
p55
sg9
S'20389'
p56
sg11
S'netstack: CloseUnusedSockets is ON\n'
p57
sa(dp58
g2
S'20307'
p59
sg4
L1449728834440L
sg5
g6
sg7
S'Socket_Pool'
p60
sg9
S'20389'
p61
sg11
S'netstack: system net.statistics value: 0\n'
p62
sa(dp63
g2
S'20307'
p64
sg4
L1449728834450L
sg5
g6
sg7
S'external/chromium/net/http/http_getzip_factory.cc'
p65
sg9
S'20389'
p66
sg11
S'external/chromium/net/http/http_getzip_factory.cc: libgetzip.so successfully loaded\n'
p67
sa(dp68
g2
S'20307'
p69
sg4
L1449728834450L
sg5
g6
sg7
S'external/chromium/net/http/http_getzip_factory.cc'
p70
sg9
S'20389'
p71
sg11
S'external/chromium/net/http/http_getzip_factory.cc,: GETzip initializing method was found in libgetzip.so\n'
p72
sa(dp73
g2
S'20307'
p74
sg4
L1449728834450L
sg5
g6
sg7
S'        '
p75
sg9
S'20389'
p76
sg11
S'netstack: Getzip is: ON, Version: 5.0.1\n'
p77
sa(dp78
g2
S'20307'
p79
sg4
L1449728834490L
sg5
g6
sg7
S'        '
p80
sg9
S'20405'
p81
sg11
S'netstack: Early Connections is: ON, Version: 5.0.1, Param: 3\n'
p82
sa(dp83
g2
S'20307'
p84
sg4
L1449728840690L
sg5
S'V'
p85
sg7
S'AudioManager'
p86
sg9
S'20307'
p87
sg11
S'AudioManager ctor mUseMasterVolume:false\n'
p88
sa(dp89
g2
S'20307'
p90
sg4
L1449728841340L
sg5
g6
sg7
S'MainActivity'
p91
sg9
S'20389'
p92
sg11
S'h:847.943,w:1722.73\n'
p93
sa(dp94
g2
S'20307'
p95
sg4
L1449728843120L
sg5
g6
sg7
S'[encoding]'
p96
sg9
S'20389'
p97
sg11
S'detectTextEncoding encoding=UTF-8\n'
p98
sa(dp99
g2
S'20307'
p100
sg4
L1449728843690L
sg5
g6
sg7
S'MainActivity'
p101
sg9
S'20389'
p102
sg11
S'h:910.5,w:1687.5\n'
p103
sa(dp104
g2
S'20307'
p105
sg4
L1449728845260L
sg5
g6
sg7
S'cn.edu.nju.ise.kikandroid'
p106
sg9
S'20348'
p107
sg11
S'Screenshot:1449728845273\n'
p108
sa(dp109
g2
S'20307'
p110
sg4
L1449728846900L
sg5
S'W'
p111
sg7
S'InputEventReceiver'
p112
sg9
S'20307'
p113
sg11
S'Attempted to finish an input event but the input event receiver has already been disposed.\n'
p114
sa(dp115
g2
S'20307'
p116
sg4
L1449728846910L
sg5
g111
sg7
S'IInputConnectionWrapper'
p117
sg9
S'20307'
p118
sg11
S'performPrivateCommand on inactive InputConnection\n'
p119
sa(dp120
g2
S'20307'
p121
sg4
L1449728848140L
sg5
S'I'
p122
sg7
S'TextToSpeech'
p123
sg9
S'20307'
p124
sg11
S'Sucessfully bound to com.svox.pico\n'
p125
sa(dp126
g2
S'20307'
p127
sg4
L1449728848200L
sg5
g122
sg7
S'TextToSpeech'
p128
sg9
S'20307'
p129
sg11
S'Connected to ComponentInfo{com.svox.pico/com.svox.pico.PicoService}\n'
p130
sa(dp131
g2
S'20307'
p132
sg4
L1449728848260L
sg5
g6
sg7
S'[encoding]'
p133
sg9
S'20389'
p134
sg11
S'detectTextEncoding encoding=UTF-8\n'
p135
sa(dp136
g2
S'20307'
p137
sg4
L1449728849120L
sg5
g6
sg7
S'MainActivity'
p138
sg9
S'20389'
p139
sg11
S'h:910.5,w:1687.5\n'
p140
sa(dp141
g2
S'20307'
p142
sg4
L1449728851470L
sg5
g111
sg7
S'IInputConnectionWrapper'
p143
sg9
S'20307'
p144
sg11
S'performPrivateCommand on inactive InputConnection\n'
p145
sa(dp146
g2
S'20307'
p147
sg4
L1449728855760L
sg5
g6
sg7
S'cn.edu.nju.ise.kikandroid'
p148
sg9
S'20348'
p149
sg11
S'Screenshot:1449728855772\n'
p150
sa(dp151
g2
S'20307'
p152
sg4
L1449728855840L
sg5
g6
sg7
S'dalvikvm'
p153
sg9
S'20307'
p154
sg11
S'GC_FOR_ALLOC freed 6561K, 36% free 20253K/31239K, paused 65ms, total 72ms\n'
p155
sa(dp156
g2
S'20307'
p157
sg4
L1449728856740L
sg5
g85
sg7
S'AudioManager'
p158
sg9
S'20307'
p159
sg11
S'AudioManager ctor mUseMasterVolume:false\n'
p160
sa(dp161
g2
S'20307'
p162
sg4
L1449728857160L
sg5
g111
sg7
S'InputEventReceiver'
p163
sg9
S'20307'
p164
sg11
S'Attempted to finish an input event but the input event receiver has already been disposed.\n'
p165
sa(dp166
g2
S'20307'
p167
sg4
L1449728857160L
sg5
g111
sg7
S'IInputConnectionWrapper'
p168
sg9
S'20307'
p169
sg11
S'performPrivateCommand on inactive InputConnection\n'
p170
sa(dp171
g2
S'20307'
p172
sg4
L1449728858580L
sg5
g122
sg7
S'TextToSpeech'
p173
sg9
S'20307'
p174
sg11
S'Sucessfully bound to com.svox.pico\n'
p175
sa(dp176
g2
S'20307'
p177
sg4
L1449728858640L
sg5
g122
sg7
S'TextToSpeech'
p178
sg9
S'20307'
p179
sg11
S'Connected to ComponentInfo{com.svox.pico/com.svox.pico.PicoService}\n'
p180
sa(dp181
g2
S'20307'
p182
sg4
L1449728858720L
sg5
g6
sg7
S'[encoding]'
p183
sg9
S'20389'
p184
sg11
S'detectTextEncoding encoding=UTF-8\n'
p185
sa(dp186
g2
S'20307'
p187
sg4
L1449728859750L
sg5
g6
sg7
S'MainActivity'
p188
sg9
S'20389'
p189
sg11
S'h:766.083,w:1687.5\n'
p190
sa(dp191
g2
S'20307'
p192
sg4
L1449728863870L
sg5
g6
sg7
S'cn.edu.nju.ise.kikandroid'
p193
sg9
S'20348'
p194
sg11
S'Screenshot:1449728863885\n'
p195
sa(dp196
g2
S'20307'
p197
sg4
L1449728864000L
sg5
g6
sg7
S'dalvikvm'
p198
sg9
S'20310'
p199
sg11
S'GC_CONCURRENT freed 4482K, 29% free 22206K/31239K, paused 2ms+22ms, total 114ms\n'
p200
sa(dp201
g2
S'20307'
p202
sg4
L1449728864340L
sg5
g85
sg7
S'AudioManager'
p203
sg9
S'20307'
p204
sg11
S'AudioManager ctor mUseMasterVolume:false\n'
p205
sa(dp206
g2
S'20307'
p207
sg4
L1449728864720L
sg5
g111
sg7
S'InputEventReceiver'
p208
sg9
S'20307'
p209
sg11
S'Attempted to finish an input event but the input event receiver has already been disposed.\n'
p210
sa(dp211
g2
S'20307'
p212
sg4
L1449728864720L
sg5
g111
sg7
S'IInputConnectionWrapper'
p213
sg9
S'20307'
p214
sg11
S'performPrivateCommand on inactive InputConnection\n'
p215
sa(dp216
g2
S'20307'
p217
sg4
L1449728865760L
sg5
g122
sg7
S'TextToSpeech'
p218
sg9
S'20307'
p219
sg11
S'Sucessfully bound to com.svox.pico\n'
p220
sa(dp221
g2
S'20307'
p222
sg4
L1449728865790L
sg5
g6
sg7
S'[encoding]'
p223
sg9
S'20389'
p224
sg11
S'detectTextEncoding encoding=UTF-8\n'
p225
sa(dp226
g2
S'20307'
p227
sg4
L1449728865900L
sg5
g122
sg7
S'TextToSpeech'
p228
sg9
S'20307'
p229
sg11
S'Connected to ComponentInfo{com.svox.pico/com.svox.pico.PicoService}\n'
p230
sa(dp231
g2
S'20325'
p232
sg4
L1449728865970L
sg5
g6
sg7
S'ForegroundActivity'
p233
sg9
S'20341'
p234
sg11
S'\xe6\x9c\xac\xe6\xac\xa1\xe5\x8f\x91\xe9\x80\x81\xe5\xb8\xa7\xe9\x95\xbf:13\t\xe6\x80\xbb\xe5\xb8\xa7\xe9\x95\xbf:70\n'
p235
sa(dp236
g2
S'20325'
p237
sg4
L1449728866190L
sg5
g6
sg7
S'ForegroundActivity'
p238
sg9
S'20351'
p239
sg11
S'\xe6\x9c\xac\xe6\xac\xa1\xe6\x94\xb6\xe5\x88\xb0\xe5\xb8\xa7\xe9\x95\xbf:13\t\xe6\x80\xbb\xe5\xb8\xa7\xe9\x95\xbf:735\n'
p240
sa(dp241
g2
S'20325'
p242
sg4
L1449728866220L
sg5
g6
sg7
S'SocketService1'
p243
sg9
S'20343'
p244
sg11
S'\xe6\x9c\xac\xe6\xac\xa1\xe6\x8f\x90\xe5\x8f\x961:LoadPtr:735 HeadIndex:722 GetSize:13 13 0 \xe5\xa4\xb4\xe4\xbf\xa1\xe6\x81\xaf:EB 90 EB 90 EB 90 0D 00 10 01 \n'
p245
sa(dp246
g2
S'20307'
p247
sg4
L1449728868690L
sg5
g85
sg7
S'AudioManager'
p248
sg9
S'20307'
p249
sg11
S'AudioManager ctor mUseMasterVolume:false\n'
p250
sa(dp251
g2
S'20307'
p252
sg4
L1449728868810L
sg5
g111
sg7
S'IInputConnectionWrapper'
p253
sg9
S'20307'
p254
sg11
S'performPrivateCommand on inactive InputConnection\n'
p255
sa(dp256
g2
S'20307'
p257
sg4
L1449728873750L
sg5
g6
sg7
S'cn.edu.nju.ise.kikandroid'
p258
sg9
S'20348'
p259
sg11
S'Screenshot:1449728873760\n'
p260
sa(dp261
g2
S'20307'
p262
sg4
L1449728873940L
sg5
g6
sg7
S'dalvikvm'
p263
sg9
S'20307'
p264
sg11
S'GC_FOR_ALLOC freed 4236K, 29% free 22242K/31239K, paused 27ms, total 27ms\n'
p265
sa(dp266
g2
S'20325'
p267
sg4
L1449728876280L
sg5
g6
sg7
S'dalvikvm'
p268
sg9
S'20342'
p269
sg11
S'GC_FOR_ALLOC freed 960K, 20% free 10606K/13191K, paused 50ms, total 50ms\n'
p270
sa(dp271
g2
S'20307'
p272
sg4
L1449728879060L
sg5
g6
sg7
S'cn.edu.nju.ise.kikandroid'
p273
sg9
S'20348'
p274
sg11
S'Log:1449728879071\n'
p275
sa(dp276
g2
S'20307'
p277
sg4
L1449728879100L
sg5
g6
sg7
S'cn.edu.nju.ise.kikandroid'
p278
sg9
S'20348'
p279
sg11
S'Screenshot:1449728879114\n'
p280
sa(dp281
g2
S'20307'
p282
sg4
L1449728879180L
sg5
g6
sg7
S'dalvikvm'
p283
sg9
S'20307'
p284
sg11
S'GC_FOR_ALLOC freed 4179K, 29% free 22232K/31239K, paused 19ms, total 19ms\n'
p285
sa(dp286
g2
S'20307'
p287
sg4
L1449728879290L
sg5
g111
sg7
S'dalvikvm'
p288
sg9
S'20348'
p289
sg11
S'threadid=14: thread exiting with uncaught exception (group=0x40c19588)\n'
p290
sa(dp291
g2
S'20307'
p292
sg4
L1449728879300L
sg5
S'E'
p293
sg7
S'AndroidRuntime'
p294
sg9
S'20348'
p295
sg11
S'FATAL EXCEPTION: Thread-948\njava.lang.NullPointerException\n\tat android.app.Instrumentation.finish(Instrumentation.java:191)\n\tat cn.edu.nju.ise.kikandroid.AUTInstrument.quitInstr(AUTInstrument.java:195)\n\tat cn.edu.nju.ise.kikandroid.AUTInstrument.startServer(AUTInstrument.java:161)\n\tat cn.edu.nju.ise.kikandroid.AUTInstrument$1.run(AUTInstrument.java:107)\n\tat java.lang.Thread.run(Thread.java:856)\n'
p296
sa.