(lp0
(dp1
S'EventTime'
p2
S'47088353'
p3
sS'SyscTime'
p4
L1449651634913L
sS'recordCount'
p5
S'0'
p6
sS'EventType'
p7
S'TYPE_WINDOW_STATE_CHANGED'
p8
sS'PackageName'
p9
S'com.example.myfristandroid'
p10
sS'OutBounds'
p11
S'Rect(0, 0 - 720, 1280)'
p12
sS'Action'
p13
S'[ ClassName: com.example.myfristandroid.SplashActivity; Text: [SE-1800\xe7\xa7\xbb\xe5\x8a\xa8APP]; ContentDescription: null; ItemCount: -1; CurrentItemIndex: -1; IsEnabled: true; IsPassword: false; IsChecked: false; IsFullScreen: true; Scrollable: false; BeforeText: null; FromIndex: -1; ToIndex: -1; ScrollX: -1; ScrollY: -1; MaxScrollX: -1; MaxScrollY: -1; AddedCount: -1; RemovedCount: -1; ParcelableData: null ]'
p14
sS'MovementGranularity'
p15
g6
sa(dp16
S'EventTime'
p17
S'47088413'
p18
sg4
L1449651634969L
sS'recordCount'
p19
g6
sS'EventType'
p20
S'TYPE_WINDOW_CONTENT_CHANGED'
p21
sS'PackageName'
p22
S'com.example.myfristandroid'
p23
sS'OutBounds'
p24
S'Rect(0, 0 - 720, 1280)'
p25
sS'Action'
p26
S'[ ClassName: android.widget.FrameLayout; Text: []; ContentDescription: null; ItemCount: -1; CurrentItemIndex: -1; IsEnabled: true; IsPassword: false; IsChecked: false; IsFullScreen: false; Scrollable: false; BeforeText: null; FromIndex: -1; ToIndex: -1; ScrollX: -1; ScrollY: -1; MaxScrollX: -1; MaxScrollY: -1; AddedCount: -1; RemovedCount: -1; ParcelableData: null ]'
p27
sS'MovementGranularity'
p28
g6
sa(dp29
S'EventTime'
p30
S'47090803'
p31
sg4
L1449651637448L
sS'recordCount'
p32
g6
sS'EventType'
p33
S'TYPE_WINDOW_STATE_CHANGED'
p34
sS'PackageName'
p35
S'com.example.myfristandroid'
p36
sS'OutBounds'
p37
S'Rect(0, 0 - 720, 1280)'
p38
sS'Action'
p39
S'[ ClassName: com.example.myfristandroid.MainActivity; Text: [SE-1800\xe7\xa7\xbb\xe5\x8a\xa8APP]; ContentDescription: null; ItemCount: -1; CurrentItemIndex: -1; IsEnabled: true; IsPassword: false; IsChecked: false; IsFullScreen: true; Scrollable: false; BeforeText: null; FromIndex: -1; ToIndex: -1; ScrollX: -1; ScrollY: -1; MaxScrollX: -1; MaxScrollY: -1; AddedCount: -1; RemovedCount: -1; ParcelableData: null ]'
p40
sS'MovementGranularity'
p41
g6
sa(dp42
S'EventTime'
p43
S'47090862'
p44
sg4
L1449651637488L
sS'recordCount'
p45
g6
sS'EventType'
p46
S'TYPE_VIEW_SCROLLED'
p47
sS'PackageName'
p48
S'com.example.myfristandroid'
p49
sS'OutBounds'
p50
S'Rect(732, 416 - 1428, 416)'
p51
sS'Action'
p52
S'[ ClassName: android.widget.ListView; Text: []; ContentDescription: null; ItemCount: 0; CurrentItemIndex: -1; IsEnabled: true; IsPassword: false; IsChecked: false; IsFullScreen: false; Scrollable: false; BeforeText: null; FromIndex: 0; ToIndex: -1; ScrollX: -1; ScrollY: -1; MaxScrollX: -1; MaxScrollY: -1; AddedCount: -1; RemovedCount: -1; ParcelableData: null ]'
p53
sS'MovementGranularity'
p54
g6
sa(dp55
S'EventTime'
p56
S'47090999'
p57
sg4
L1449651637559L
sS'recordCount'
p58
S'1'
p59
sS'EventType'
p60
S'TYPE_WINDOW_CONTENT_CHANGED'
p61
sS'PackageName'
p62
S'com.example.myfristandroid'
p63
sS'OutBounds'
p64
S'Rect(478, 795 - 712, 834)'
p65
sS'Action'
p66
S'[ ClassName: android.widget.TextView; Text: []; ContentDescription: null; ItemCount: -1; CurrentItemIndex: -1; IsEnabled: true; IsPassword: false; IsChecked: false; IsFullScreen: false; Scrollable: false; BeforeText: null; FromIndex: -1; ToIndex: -1; ScrollX: -1; ScrollY: -1; MaxScrollX: -1; MaxScrollY: -1; AddedCount: -1; RemovedCount: -1; ParcelableData: null ]'
p67
sS'MovementGranularity'
p68
g6
sa(dp69
S'EventTime'
p70
S'47091485'
p71
sg4
L1449651638053L
sS'recordCount'
p72
g6
sS'EventType'
p73
S'TYPE_WINDOW_STATE_CHANGED'
p74
sS'PackageName'
p75
S'com.example.myfristandroid'
p76
sS'OutBounds'
p77
S'Rect(0, 0 - 720, 1280)'
p78
sS'Action'
p79
S'[ ClassName: com.example.myfristandroid.HuzAlertDialog; Text: [\xe6\x8f\x90\xe7\xa4\xba, \xe7\x89\x88\xe6\x9c\xac\xe6\x9c\x89\xe6\x9b\xb4\xe6\x96\xb0\xef\xbc\x8c\xe6\x98\xaf\xe5\x90\xa6\xe9\x9c\x80\xe8\xa6\x81\xe6\x9b\xb4\xe6\x96\xb0, \xe7\xab\x8b\xe5\x8d\xb3\xe6\x9b\xb4\xe6\x96\xb0, \xe7\xa8\x8d\xe5\x90\x8e\xe6\x9b\xb4\xe6\x96\xb0]; ContentDescription: null; ItemCount: -1; CurrentItemIndex: -1; IsEnabled: true; IsPassword: false; IsChecked: false; IsFullScreen: true; Scrollable: false; BeforeText: null; FromIndex: -1; ToIndex: -1; ScrollX: -1; ScrollY: -1; MaxScrollX: -1; MaxScrollY: -1; AddedCount: -1; RemovedCount: -1; ParcelableData: null ]'
p80
sS'MovementGranularity'
p81
g6
sa(dp82
S'EventTime'
p83
S'47091660'
p84
sg4
L1449651638232L
sS'recordCount'
p85
g6
sS'EventType'
p86
S'TYPE_WINDOW_CONTENT_CHANGED'
p87
sS'PackageName'
p88
S'com.example.myfristandroid'
p89
sS'OutBounds'
p90
S'Rect(59, 610 - 673, 680)'
p91
sS'Action'
p92
S'[ ClassName: android.widget.TextView; Text: []; ContentDescription: null; ItemCount: -1; CurrentItemIndex: -1; IsEnabled: true; IsPassword: false; IsChecked: false; IsFullScreen: false; Scrollable: false; BeforeText: null; FromIndex: -1; ToIndex: -1; ScrollX: -1; ScrollY: -1; MaxScrollX: -1; MaxScrollY: -1; AddedCount: -1; RemovedCount: -1; ParcelableData: null ]'
p93
sS'MovementGranularity'
p94
g6
sa(dp95
S'EventTime'
p96
S'47092168'
p97
sg4
L1449651638725L
sS'recordCount'
p98
g6
sS'EventType'
p99
S'TYPE_VIEW_CLICKED'
p100
sS'PackageName'
p101
S'com.example.myfristandroid'
p102
sS'OutBounds'
p103
S'Rect(372, 712 - 679, 808)'
p104
sS'Action'
p105
S'[ ClassName: android.widget.Button; Text: [\xe7\xa8\x8d\xe5\x90\x8e\xe6\x9b\xb4\xe6\x96\xb0]; ContentDescription: null; ItemCount: -1; CurrentItemIndex: -1; IsEnabled: true; IsPassword: false; IsChecked: false; IsFullScreen: false; Scrollable: false; BeforeText: null; FromIndex: -1; ToIndex: -1; ScrollX: -1; ScrollY: -1; MaxScrollX: -1; MaxScrollY: -1; AddedCount: -1; RemovedCount: -1; ParcelableData: null ]'
p106
sS'MovementGranularity'
p107
g6
sa(dp108
S'EventTime'
p109
S'47092202'
p110
sg4
L1449651638803L
sS'recordCount'
p111
g6
sS'EventType'
p112
S'TYPE_WINDOW_STATE_CHANGED'
p113
sS'PackageName'
p114
S'com.example.myfristandroid'
p115
sS'OutBounds'
p116
S'Rect(0, 0 - 720, 1280)'
p117
sS'Action'
p118
S'[ ClassName: com.example.myfristandroid.MainActivity; Text: [SE-1800\xe7\xa7\xbb\xe5\x8a\xa8APP]; ContentDescription: null; ItemCount: -1; CurrentItemIndex: -1; IsEnabled: true; IsPassword: false; IsChecked: false; IsFullScreen: true; Scrollable: false; BeforeText: null; FromIndex: -1; ToIndex: -1; ScrollX: -1; ScrollY: -1; MaxScrollX: -1; MaxScrollY: -1; AddedCount: -1; RemovedCount: -1; ParcelableData: null ]'
p119
sS'MovementGranularity'
p120
g6
sa(dp121
S'EventTime'
p122
S'47092905'
p123
sg4
L1449651639482L
sS'recordCount'
p124
g6
sS'EventType'
p125
S'TYPE_WINDOW_STATE_CHANGED'
p126
sS'PackageName'
p127
S'com.example.myfristandroid'
p128
sS'OutBounds'
p129
S'Rect(0, 0 - 720, 1280)'
p130
sS'Action'
p131
S'[ ClassName: com.example.myfristandroid.HuzAlertDialog; Text: [\xe9\x80\x80\xe5\x87\xba, \xe7\xa1\xae\xe5\xae\x9a\xe9\x80\x80\xe5\x87\xba\xe7\xb3\xbb\xe7\xbb\x9f\xe5\x90\x97\xef\xbc\x9f, \xe5\x90\x8e\xe5\x8f\xb0\xe8\xbf\x90\xe8\xa1\x8c, \xe9\x80\x80\xe5\x87\xba]; ContentDescription: null; ItemCount: -1; CurrentItemIndex: -1; IsEnabled: true; IsPassword: false; IsChecked: false; IsFullScreen: true; Scrollable: false; BeforeText: null; FromIndex: -1; ToIndex: -1; ScrollX: -1; ScrollY: -1; MaxScrollX: -1; MaxScrollY: -1; AddedCount: -1; RemovedCount: -1; ParcelableData: null ]'
p132
sS'MovementGranularity'
p133
g6
sa(dp134
S'EventTime'
p135
S'47092978'
p136
sg4
L1449651639539L
sS'recordCount'
p137
g6
sS'EventType'
p138
S'TYPE_WINDOW_CONTENT_CHANGED'
p139
sS'PackageName'
p140
S'com.example.myfristandroid'
p141
sS'OutBounds'
p142
S'Rect(59, 610 - 673, 680)'
p143
sS'Action'
p144
S'[ ClassName: android.widget.TextView; Text: []; ContentDescription: null; ItemCount: -1; CurrentItemIndex: -1; IsEnabled: true; IsPassword: false; IsChecked: false; IsFullScreen: false; Scrollable: false; BeforeText: null; FromIndex: -1; ToIndex: -1; ScrollX: -1; ScrollY: -1; MaxScrollX: -1; MaxScrollY: -1; AddedCount: -1; RemovedCount: -1; ParcelableData: null ]'
p145
sS'MovementGranularity'
p146
g6
sa(dp147
S'EventTime'
p148
S'47093083'
p149
sg4
L1449651639642L
sS'recordCount'
p150
g6
sS'EventType'
p151
S'TYPE_WINDOW_CONTENT_CHANGED'
p152
sS'PackageName'
p153
S'com.example.myfristandroid'
p154
sS'OutBounds'
p155
S'Rect(59, 610 - 673, 680)'
p156
sS'Action'
p157
S'[ ClassName: android.widget.TextView; Text: []; ContentDescription: null; ItemCount: -1; CurrentItemIndex: -1; IsEnabled: true; IsPassword: false; IsChecked: false; IsFullScreen: false; Scrollable: false; BeforeText: null; FromIndex: -1; ToIndex: -1; ScrollX: -1; ScrollY: -1; MaxScrollX: -1; MaxScrollY: -1; AddedCount: -1; RemovedCount: -1; ParcelableData: null ]'
p158
sS'MovementGranularity'
p159
g6
sa(dp160
S'EventTime'
p161
S'47093459'
p162
sg4
L1449651640015L
sS'recordCount'
p163
g6
sS'EventType'
p164
S'TYPE_VIEW_CLICKED'
p165
sS'PackageName'
p166
S'com.example.myfristandroid'
p167
sS'OutBounds'
p168
S'Rect(372, 712 - 679, 808)'
p169
sS'Action'
p170
S'[ ClassName: android.widget.Button; Text: [\xe9\x80\x80\xe5\x87\xba]; ContentDescription: null; ItemCount: -1; CurrentItemIndex: -1; IsEnabled: true; IsPassword: false; IsChecked: false; IsFullScreen: false; Scrollable: false; BeforeText: null; FromIndex: -1; ToIndex: -1; ScrollX: -1; ScrollY: -1; MaxScrollX: -1; MaxScrollY: -1; AddedCount: -1; RemovedCount: -1; ParcelableData: null ]'
p171
sS'MovementGranularity'
p172
g6
sa(dp173
S'EventTime'
p174
S'47093500'
p175
sg4
L1449651640057L
sS'recordCount'
p176
g6
sS'EventType'
p177
S'TYPE_WINDOW_STATE_CHANGED'
p178
sS'PackageName'
p179
S'com.example.myfristandroid'
p180
sS'Action'
p181
S'[ ClassName: com.example.myfristandroid.MainActivity; Text: [SE-1800\xe7\xa7\xbb\xe5\x8a\xa8APP]; ContentDescription: null; ItemCount: -1; CurrentItemIndex: -1; IsEnabled: true; IsPassword: false; IsChecked: false; IsFullScreen: true; Scrollable: false; BeforeText: null; FromIndex: -1; ToIndex: -1; ScrollX: -1; ScrollY: -1; MaxScrollX: -1; MaxScrollY: -1; AddedCount: -1; RemovedCount: -1; ParcelableData: null ]'
p182
sS'MovementGranularity'
p183
g6
sa.