(lp0
(dp1
S'processID'
p2
S'17425'
p3
sS'SyscTime'
p4
L1449725780100L
sS'priority'
p5
S'D'
p6
sS'tag'
p7
S'dalvikvm'
p8
sS'threadID'
p9
S'17425'
p10
sS'message'
p11
S'Late-enabling CheckJNI\n'
p12
sa(dp13
g2
S'17425'
p14
sg4
L1449725780160L
sg5
g6
sg7
S'ActivityThread'
p15
sg9
S'17425'
p16
sg11
S'setTargetHeapUtilization:0.75\n'
p17
sa(dp18
g2
S'17425'
p19
sg4
L1449725780160L
sg5
g6
sg7
S'ActivityThread'
p20
sg9
S'17425'
p21
sg11
S'setTargetHeapConcurrentStart:2097152\n'
p22
sa(dp23
g2
S'17425'
p24
sg4
L1449725780310L
sg5
g6
sg7
S'dalvikvm'
p25
sg9
S'17425'
p26
sg11
S'GC_FOR_ALLOC freed 85K, 28% free 2844K/3900K, paused 10ms, total 10ms\n'
p27
sa(dp28
g2
S'17425'
p29
sg4
L1449725780320L
sg5
S'I'
p30
sg7
S'dalvikvm-heap'
p31
sg9
S'17425'
p32
sg11
S'Grow heap (frag case) to 9.067MB for 3876232-byte allocation\n'
p33
sa(dp34
g2
S'17425'
p35
sg4
L1449725780440L
sg5
g6
sg7
S'dalvikvm'
p36
sg9
S'17425'
p37
sg11
S'GC_FOR_ALLOC freed <1K, 14% free 6629K/7688K, paused 9ms, total 9ms\n'
p38
sa(dp39
g2
S'17425'
p40
sg4
L1449725780460L
sg5
g30
sg7
S'dalvikvm-heap'
p41
sg9
S'17425'
p42
sg11
S'Grow heap (frag case) to 17.383MB for 8721492-byte allocation\n'
p43
sa(dp44
g2
S'17425'
p45
sg4
L1449725780480L
sg5
g6
sg7
S'dalvikvm'
p46
sg9
S'17429'
p47
sg11
S'GC_CONCURRENT freed <1K, 7% free 15146K/16208K, paused 2ms+1ms, total 16ms\n'
p48
sa(dp49
g2
S'17452'
p50
sg4
L1449725780630L
sg5
g6
sg7
S'dalvikvm'
p51
sg9
S'17452'
p52
sg11
S'Late-enabling CheckJNI\n'
p53
sa(dp54
g2
S'17452'
p55
sg4
L1449725780660L
sg5
g6
sg7
S'ActivityThread'
p56
sg9
S'17452'
p57
sg11
S'setTargetHeapUtilization:0.75\n'
p58
sa(dp59
g2
S'17452'
p60
sg4
L1449725780660L
sg5
g6
sg7
S'ActivityThread'
p61
sg9
S'17452'
p62
sg11
S'setTargetHeapConcurrentStart:2097152\n'
p63
sa(dp64
g2
S'17452'
p65
sg4
L1449725780680L
sg5
g6
sg7
S'SocketService'
p66
sg9
S'17452'
p67
sg11
S'onStartCommand : bLogin:false\n'
p68
sa(dp69
g2
S'17425'
p70
sg4
L1449725780680L
sg5
g30
sg7
S'Adreno-EGL'
p71
sg9
S'17425'
p72
sg11
S'<qeglDrvAPI_eglInitialize:381>: EGL 1.4 QUALCOMM build: AU_LINUX_ANDROID_JB_3.2.1_RB1.04.03.00.101.057_msm8610_JB_3.2.1_RB1__release_AU ()\nOpenGL ES Shader Compiler Version: 20.00.05\nBuild Date: 12/24/13 Tue\nLocal Branch: \nRemote Branch: quic/jb_3.2.1_rb1.31\nLocal Patches: NONE\nReconstruct Branch: AU_LINUX_ANDROID_JB_3.2.1_RB1.04.03.00.101.057 +  NOTHING\n'
p73
sa(dp74
g2
S'17452'
p75
sg4
L1449725780680L
sg5
g6
sg7
S'SocketService'
p76
sg9
S'17452'
p77
sg11
S'pid:17452 myPid:17452\n'
p78
sa(dp79
g2
S'17452'
p80
sg4
L1449725780680L
sg5
g6
sg7
S'dalvikvm'
p81
sg9
S'17459'
p82
sg11
S'dvmCompilerArchVariantInit: gDvmJit.codeCacheSize pre-set -1.\n'
p83
sa(dp84
g2
S'17452'
p85
sg4
L1449725780680L
sg5
g6
sg7
S'dalvikvm'
p86
sg9
S'17459'
p87
sg11
S'dvmCompilerArchVariantInit: gDvmJit.codeCacheSize post-set 1048576.\n'
p88
sa(dp89
g2
S'17452'
p90
sg4
L1449725780680L
sg5
g6
sg7
S'SocketService'
p91
sg9
S'17452'
p92
sg11
S'start to run current thread!id:7348\n'
p93
sa(dp94
g2
S'17425'
p95
sg4
L1449725780730L
sg5
g6
sg7
S'OpenGLRenderer'
p96
sg9
S'17425'
p97
sg11
S'Enabling debug mode 0\n'
p98
sa(dp99
g2
S'17425'
p100
sg4
L1449725780840L
sg5
g6
sg7
S'dalvikvm'
p101
sg9
S'17432'
p102
sg11
S'dvmCompilerArchVariantInit: gDvmJit.codeCacheSize pre-set -1.\n'
p103
sa(dp104
g2
S'17425'
p105
sg4
L1449725780840L
sg5
g6
sg7
S'dalvikvm'
p106
sg9
S'17432'
p107
sg11
S'dvmCompilerArchVariantInit: gDvmJit.codeCacheSize post-set 1048576.\n'
p108
sa(dp109
g2
S'17452'
p110
sg4
L1449725782930L
sg5
g6
sg7
S'SocketService'
p111
sg9
S'17474'
p112
sg11
S'ip/10.46.21.151 lport:35801 p:143\n'
p113
sa(dp114
g2
S'17452'
p115
sg4
L1449725782930L
sg5
g6
sg7
S'ForegroundActivity'
p116
sg9
S'17474'
p117
sg11
S'\xe6\x9c\xac\xe6\xac\xa1\xe5\x8f\x91\xe9\x80\x81\xe5\xb8\xa7\xe9\x95\xbf:35\t\xe6\x80\xbb\xe5\xb8\xa7\xe9\x95\xbf:35\n'
p118
sa(dp119
g2
S'17452'
p120
sg4
L1449725782930L
sg5
g6
sg7
S'SocketService'
p121
sg9
S'17474'
p122
sg11
S'success to connect server!id:7348 bLogin:false\n'
p123
sa(dp124
g2
S'17425'
p125
sg4
L1449725783000L
sg5
g6
sg7
S'MainActivity'
p126
sg9
S'17425'
p127
sg11
S'Start One Client\n'
p128
sa(dp129
g2
S'17425'
p130
sg4
L1449725783000L
sg5
g6
sg7
S'StrictMode'
p131
sg9
S'17425'
p132
sg11
S'StrictMode policy violation; ~duration=17 ms: android.os.StrictMode$StrictModeDiskReadViolation: policy=23 violation=2\n\tat android.os.StrictMode$AndroidBlockGuardPolicy.onReadFromDisk(StrictMode.java:1126)\n\tat android.app.SharedPreferencesImpl.awaitLoadedLocked(SharedPreferencesImpl.java:203)\n\tat android.app.SharedPreferencesImpl.edit(SharedPreferencesImpl.java:282)\n\tat com.example.myfristandroid.MainActivity.initCfg(MainActivity.java:454)\n\tat com.example.myfristandroid.MainActivity.onCreate(MainActivity.java:295)\n\tat android.app.Activity.performCreate(Activity.java:5234)\n\tat android.app.Instrumentation.callActivityOnCreate(Instrumentation.java:1087)\n\tat android.app.ActivityThread.performLaunchActivity(ActivityThread.java:2302)\n\tat android.app.ActivityThread.handleLaunchActivity(ActivityThread.java:2388)\n\tat android.app.ActivityThread.access$900(ActivityThread.java:148)\n\tat android.app.ActivityThread$H.handleMessage(ActivityThread.java:1319)\n\tat android.os.Handler.dispatchMessage(Handler.java:99)\n\tat android.os.Looper.loop(Looper.java:137)\n\tat android.app.ActivityThread.main(ActivityThread.java:5457)\n\tat java.lang.reflect.Method.invokeNative(Native Method)\n\tat java.lang.reflect.Method.invoke(Method.java:525)\n\tat com.android.internal.os.ZygoteInit$MethodAndArgsCaller.run(ZygoteInit.java:875)\n\tat com.android.internal.os.ZygoteInit.main(ZygoteInit.java:691)\n\tat dalvik.system.NativeStart.main(Native Method)\n'
p133
sa(dp134
g2
S'17425'
p135
sg4
L1449725783050L
sg5
g6
sg7
S'dalvikvm'
p136
sg9
S'17429'
p137
sg11
S'GC_CONCURRENT freed 4296K, 28% free 13136K/18044K, paused 1ms+3ms, total 15ms\n'
p138
sa(dp139
g2
S'17452'
p140
sg4
L1449725783170L
sg5
g6
sg7
S'ForegroundActivity'
p141
sg9
S'17530'
p142
sg11
S'\xe6\x9c\xac\xe6\xac\xa1\xe6\x94\xb6\xe5\x88\xb0\xe5\xb8\xa7\xe9\x95\xbf:13\t\xe6\x80\xbb\xe5\xb8\xa7\xe9\x95\xbf:13\n'
p143
sa(dp144
g2
S'17425'
p145
sg4
L1449725783220L
sg5
g6
sg7
S'dalvikvm'
p146
sg9
S'17429'
p147
sg11
S'GC_CONCURRENT freed 476K, 22% free 14214K/18044K, paused 3ms+3ms, total 21ms\n'
p148
sa(dp149
g2
S'17452'
p150
sg4
L1449725783690L
sg5
g6
sg7
S'SocketService1'
p151
sg9
S'17472'
p152
sg11
S'\xe6\x9c\xac\xe6\xac\xa1\xe6\x8f\x90\xe5\x8f\x961:LoadPtr:13 HeadIndex:0 GetSize:13 13 0 \xe5\xa4\xb4\xe4\xbf\xa1\xe6\x81\xaf:EB 90 EB 90 EB 90 0D 00 0E 01 \n'
p153
sa(dp154
g2
S'17425'
p155
sg4
L1449725783690L
sg5
g6
sg7
S'MainActivity'
p156
sg9
S'17425'
p157
sg11
S'Unkown Report:ffffffeb ffffff90 ffffffeb ffffff90 ffffffeb ffffff90 d 0 e 1 1 0 ffffff81 \n'
p158
sa(dp159
g2
S'17452'
p160
sg4
L1449725783930L
sg5
g6
sg7
S'ForegroundActivity'
p161
sg9
S'17474'
p162
sg11
S'\xe6\x9c\xac\xe6\xac\xa1\xe5\x8f\x91\xe9\x80\x81\xe5\xb8\xa7\xe9\x95\xbf:11\t\xe6\x80\xbb\xe5\xb8\xa7\xe9\x95\xbf:46\n'
p163
sa(dp164
g2
S'17452'
p165
sg4
L1449725784030L
sg5
g6
sg7
S'ForegroundActivity'
p166
sg9
S'17530'
p167
sg11
S'\xe6\x9c\xac\xe6\xac\xa1\xe6\x94\xb6\xe5\x88\xb0\xe5\xb8\xa7\xe9\x95\xbf:642\t\xe6\x80\xbb\xe5\xb8\xa7\xe9\x95\xbf:655\n'
p168
sa(dp169
g2
S'17452'
p170
sg4
L1449725784700L
sg5
g6
sg7
S'SocketService1'
p171
sg9
S'17472'
p172
sg11
S'\xe6\x9c\xac\xe6\xac\xa1\xe6\x8f\x90\xe5\x8f\x961:LoadPtr:655 HeadIndex:13 GetSize:642 130 512 \xe5\xa4\xb4\xe4\xbf\xa1\xe6\x81\xaf:EB 90 EB 90 EB 90 82 02 14 0A \n'
p173
sa(dp174
g2
S'17425'
p175
sg4
L1449725784740L
sg5
g6
sg7
S'MainActivity'
p176
sg9
S'17425'
p177
sg11
S'page0:http://oa.paneng.cn:1143/se9200/realdata/realdata.html\n'
p178
sa(dp179
g2
S'17425'
p180
sg4
L1449725784740L
sg5
g6
sg7
S'MainActivity'
p181
sg9
S'17425'
p182
sg11
S'page1:http://oa.paneng.cn:1143/se9200/graph/gshow.jsp?mRID=1130000050\n'
p183
sa(dp184
g2
S'17425'
p185
sg4
L1449725784740L
sg5
g6
sg7
S'MainActivity'
p186
sg9
S'17425'
p187
sg11
S'page2:http://oa.paneng.cn:1143/se9200/graph/gshow.jsp?mRID=1130000052\n'
p188
sa(dp189
g2
S'17425'
p190
sg4
L1449725784740L
sg5
g6
sg7
S'MainActivity'
p191
sg9
S'17425'
p192
sg11
S'page3:http://oa.paneng.cn:1143/se9200/graph/gshow.jsp?mRID=1130000054\n'
p193
sa(dp194
g2
S'17425'
p195
sg4
L1449725784750L
sg5
g6
sg7
S'MainActivity'
p196
sg9
S'17425'
p197
sg11
S'page4:http://oa.paneng.cn:1143/se9200/graph/gshow.jsp?mRID=1130000007\n'
p198
sa(dp199
g2
S'17425'
p200
sg4
L1449725784750L
sg5
g6
sg7
S'MainActivity'
p201
sg9
S'17425'
p202
sg11
S'page5:http://oa.paneng.cn:1143/se9200/graph/gshow.jsp?mRID=1130000047\n'
p203
sa(dp204
g2
S'17425'
p205
sg4
L1449725784760L
sg5
g6
sg7
S'MainActivity'
p206
sg9
S'17425'
p207
sg11
S'page6:http://oa.paneng.cn:1143/se9200/graph/gshow.jsp?mRID=1130000011\n'
p208
sa(dp209
g2
S'17425'
p210
sg4
L1449725784760L
sg5
g6
sg7
S'MainActivity'
p211
sg9
S'17425'
p212
sg11
S'page7:http://oa.paneng.cn:1143/se9200/graph/gshow.jsp?mRID=1130000005\n'
p213
sa(dp214
g2
S'17425'
p215
sg4
L1449725784760L
sg5
g6
sg7
S'MainActivity'
p216
sg9
S'17425'
p217
sg11
S'page8:http://oa.paneng.cn:1143/se9200/graph/gshow.jsp?mRID=1130000148\n'
p218
sa(dp219
g2
S'17425'
p220
sg4
L1449725784760L
sg5
g6
sg7
S'MainActivity'
p221
sg9
S'17425'
p222
sg11
S'page9:http://oa.paneng.cn:1143/se9200/graph/gshow.jsp?mRID=1130000296\n'
p223
sa(dp224
g2
S'17452'
p225
sg4
L1449725784980L
sg5
g6
sg7
S'ForegroundActivity'
p226
sg9
S'17474'
p227
sg11
S'\xe6\x9c\xac\xe6\xac\xa1\xe5\x8f\x91\xe9\x80\x81\xe5\xb8\xa7\xe9\x95\xbf:11\t\xe6\x80\xbb\xe5\xb8\xa7\xe9\x95\xbf:57\n'
p228
sa(dp229
g2
S'17425'
p230
sg4
L1449725785010L
sg5
g6
sg7
S'JSENGINE'
p231
sg9
S'17549'
p232
sg11
S'qualcomm.jsengine.version:C.3-patch5-git:35c0a3d\n'
p233
sa(dp234
g2
S'17425'
p235
sg4
L1449725785090L
sg5
S'V'
p236
sg7
S'chromium_net'
p237
sg9
S'17549'
p238
sg11
S'external/chromium/net/host_resolver_helper/host_resolver_helper.cc:66: [1210/133625:INFO:host_resolver_helper.cc(66)] DNSPreResolver::Init got hostprovider:0x00000000\n'
p239
sa(dp240
g2
S'17425'
p241
sg4
L1449725785090L
sg5
g236
sg7
S'chromium_net'
p242
sg9
S'17549'
p243
sg11
S'external/chromium/net/base/host_resolver_impl.cc:1510: [1210/133625:INFO:host_resolver_impl.cc(1510)] HostResolverImpl::SetPreresolver preresolver:0x601990d8\n'
p244
sa(dp245
g2
S'17425'
p246
sg4
L1449725785100L
sg5
g6
sg7
S'netstack'
p247
sg9
S'17549'
p248
sg11
S'netstack: Request Priority is ON\n'
p249
sa(dp250
g2
S'17452'
p251
sg4
L1449725786710L
sg5
g6
sg7
S'ForegroundActivity'
p252
sg9
S'17530'
p253
sg11
S'\xe6\x9c\xac\xe6\xac\xa1\xe6\x94\xb6\xe5\x88\xb0\xe5\xb8\xa7\xe9\x95\xbf:67\t\xe6\x80\xbb\xe5\xb8\xa7\xe9\x95\xbf:722\n'
p254
sa(dp255
g2
S'17452'
p256
sg4
L1449725786800L
sg5
g6
sg7
S'SocketService1'
p257
sg9
S'17472'
p258
sg11
S'\xe6\x9c\xac\xe6\xac\xa1\xe6\x8f\x90\xe5\x8f\x961:LoadPtr:722 HeadIndex:655 GetSize:67 67 0 \xe5\xa4\xb4\xe4\xbf\xa1\xe6\x81\xaf:EB 90 EB 90 EB 90 43 00 15 02 \n'
p259
sa(dp260
g2
S'17425'
p261
sg4
L1449725786810L
sg5
g6
sg7
S'MainActivity'
p262
sg9
S'17425'
p263
sg11
S'ServerVersion:23 LocalVersion:12\n'
p264
sa(dp265
g2
S'17425'
p266
sg4
L1449725788010L
sg5
g6
sg7
S'WebKit  '
p267
sg9
S'17549'
p268
sg11
S'ERROR: \n'
p269
sa(dp270
g2
S'17425'
p271
sg4
L1449725788010L
sg5
g6
sg7
S'WebKit  '
p272
sg9
S'17549'
p273
sg11
S'alias gb18030 maps to GB18030 already, but someone is trying to make it map to GBK\n'
p274
sa(dp275
g2
S'17425'
p276
sg4
L1449725788010L
sg5
g6
sg7
S'WebKit  '
p277
sg9
S'17549'
p278
sg11
S''
p279
sa(dp280
g2
S'17425'
p281
sg4
L1449725788040L
sg5
g6
sg7
S'WebKit  '
p282
sg9
S'17549'
p283
sg11
S'external/webkit/Source/WebCore/platform/text/TextEncodingRegistry.cpp(152) : void WebCore::checkExistingName(const char*, const char*)\n'
p284
sa(dp285
g2
S'17425'
p286
sg4
L1449725788190L
sg5
S'E'
p287
sg7
S'cutils-trace'
p288
sg9
S'17549'
p289
sg11
S'Error opening trace file: No such file or directory (2)\n'
p290
sa(dp291
g2
S'17425'
p292
sg4
L1449725788190L
sg5
g6
sg7
S'TilesManager'
p293
sg9
S'17425'
p294
sg11
S'Starting TG #0, 0x621904a8\n'
p295
sa(dp296
g2
S'17425'
p297
sg4
L1449725788190L
sg5
g6
sg7
S'TilesManager'
p298
sg9
S'17425'
p299
sg11
S'new EGLContext from framework: 6011e450 \n'
p300
sa(dp301
g2
S'17425'
p302
sg4
L1449725788190L
sg5
g6
sg7
S'GLWebViewState'
p303
sg9
S'17425'
p304
sg11
S'Reinit shader\n'
p305
sa(dp306
g2
S'17425'
p307
sg4
L1449725788240L
sg5
g6
sg7
S'GLWebViewState'
p308
sg9
S'17425'
p309
sg11
S'Reinit transferQueue\n'
p310
sa(dp311
g2
S'17425'
p312
sg4
L1449725788740L
sg5
g6
sg7
S'MainActivity'
p313
sg9
S'17549'
p314
sg11
S'h:910.5,w:1687.5\n'
p315
sa(dp316
g2
S'17425'
p317
sg4
L1449725792520L
sg5
g6
sg7
S'dalvikvm'
p318
sg9
S'17425'
p319
sg11
S'GC_FOR_ALLOC freed 1328K, 22% free 14136K/18044K, paused 54ms, total 54ms\n'
p320
sa(dp321
g2
S'17425'
p322
sg4
L1449725792520L
sg5
g30
sg7
S'dalvikvm-heap'
p323
sg9
S'17425'
p324
sg11
S'Grow heap (frag case) to 18.375MB for 2073624-byte allocation\n'
p325
sa(dp326
g2
S'17425'
p327
sg4
L1449725792560L
sg5
g6
sg7
S'dalvikvm'
p328
sg9
S'17429'
p329
sg11
S'GC_CONCURRENT freed 20K, 20% free 16140K/20072K, paused 17ms+3ms, total 40ms\n'
p330
sa(dp331
g2
S'17425'
p332
sg4
L1449725792580L
sg5
g6
sg7
S'dalvikvm'
p333
sg9
S'17425'
p334
sg11
S'GC_FOR_ALLOC freed <1K, 20% free 16139K/20072K, paused 15ms, total 15ms\n'
p335
sa(dp336
g2
S'17425'
p337
sg4
L1449725792590L
sg5
g30
sg7
S'dalvikvm-heap'
p338
sg9
S'17425'
p339
sg11
S'Grow heap (frag case) to 20.332MB for 2073624-byte allocation\n'
p340
sa(dp341
g2
S'17425'
p342
sg4
L1449725792710L
sg5
g6
sg7
S'cn.edu.nju.ise.kikandroid'
p343
sg9
S'17491'
p344
sg11
S'Screenshot:1449725792449\n'
p345
sa(dp346
g2
S'17425'
p347
sg4
L1449725800660L
sg5
g6
sg7
S'dalvikvm'
p348
sg9
S'17429'
p349
sg11
S'GC_CONCURRENT freed 4204K, 15% free 14856K/17312K, paused 4ms+3ms, total 24ms\n'
p350
sa(dp351
g2
S'17425'
p352
sg4
L1449725803770L
sg5
g6
sg7
S'MainActivity'
p353
sg9
S'17549'
p354
sg11
S'h:766.083,w:1687.5\n'
p355
sa(dp356
g2
S'17425'
p357
sg4
L1449725806490L
sg5
g6
sg7
S'dalvikvm'
p358
sg9
S'17429'
p359
sg11
S'GC_CONCURRENT freed 274K, 13% free 16983K/19340K, paused 3ms+3ms, total 58ms\n'
p360
sa(dp361
g2
S'17425'
p362
sg4
L1449725806610L
sg5
g6
sg7
S'cn.edu.nju.ise.kikandroid'
p363
sg9
S'17491'
p364
sg11
S'Screenshot:1449725806387\n'
p365
sa(dp366
g2
S'17425'
p367
sg4
L1449725814950L
sg5
g6
sg7
S'dalvikvm'
p368
sg9
S'17429'
p369
sg11
S'GC_CONCURRENT freed 4197K, 10% free 15690K/17312K, paused 3ms+8ms, total 58ms\n'
p370
sa(dp371
g2
S'17425'
p372
sg4
L1449725816290L
sg5
S'W'
p373
sg7
S'chromium_net'
p374
sg9
S'17568'
p375
sg11
S'external/chromium/net/disk_cache/backend_impl.cc:1554: [1210/133656:WARNING:backend_impl.cc(1554)] Messed up entry found.\n'
p376
sa(dp377
g2
S'17425'
p378
sg4
L1449725816290L
sg5
g373
sg7
S'chromium_net'
p379
sg9
S'17568'
p380
sg11
S'external/chromium/net/disk_cache/backend_impl.cc:1835: [1210/133656:WARNING:backend_impl.cc(1835)] Destroying invalid entry.\n'
p381
sa(dp382
g2
S'17452'
p383
sg4
L1449725820680L
sg5
g6
sg7
S'ForegroundActivity'
p384
sg9
S'17470'
p385
sg11
S'\xe6\x9c\xac\xe6\xac\xa1\xe5\x8f\x91\xe9\x80\x81\xe5\xb8\xa7\xe9\x95\xbf:13\t\xe6\x80\xbb\xe5\xb8\xa7\xe9\x95\xbf:70\n'
p386
sa(dp387
g2
S'17452'
p388
sg4
L1449725820860L
sg5
g6
sg7
S'ForegroundActivity'
p389
sg9
S'17530'
p390
sg11
S'\xe6\x9c\xac\xe6\xac\xa1\xe6\x94\xb6\xe5\x88\xb0\xe5\xb8\xa7\xe9\x95\xbf:13\t\xe6\x80\xbb\xe5\xb8\xa7\xe9\x95\xbf:735\n'
p391
sa(dp392
g2
S'17452'
p393
sg4
L1449725820940L
sg5
g6
sg7
S'SocketService1'
p394
sg9
S'17472'
p395
sg11
S'\xe6\x9c\xac\xe6\xac\xa1\xe6\x8f\x90\xe5\x8f\x961:LoadPtr:735 HeadIndex:722 GetSize:13 13 0 \xe5\xa4\xb4\xe4\xbf\xa1\xe6\x81\xaf:EB 90 EB 90 EB 90 0D 00 10 01 \n'
p396
sa(dp397
g2
S'17452'
p398
sg4
L1449725822890L
sg5
g6
sg7
S'dalvikvm'
p399
sg9
S'17456'
p400
sg11
S'GC_CONCURRENT freed 864K, 28% free 3849K/5324K, paused 5ms+4ms, total 49ms\n'
p401
sa(dp402
g2
S'17425'
p403
sg4
L1449725848060L
sg5
g6
sg7
S'dalvikvm'
p404
sg9
S'17429'
p405
sg11
S'GC_CONCURRENT freed 300K, 8% free 17909K/19340K, paused 8ms+2ms, total 83ms\n'
p406
sa(dp407
g2
S'17425'
p408
sg4
L1449725848070L
sg5
g6
sg7
S'dalvikvm'
p409
sg9
S'17425'
p410
sg11
S'WAIT_FOR_CONCURRENT_GC blocked 18ms\n'
p411
sa(dp412
g2
S'17425'
p413
sg4
L1449725848160L
sg5
g6
sg7
S'cn.edu.nju.ise.kikandroid'
p414
sg9
S'17491'
p415
sg11
S'Screenshot:1449725847952\n'
p416
sa(dp417
g2
S'17452'
p418
sg4
L1449725860680L
sg5
g6
sg7
S'ForegroundActivity'
p419
sg9
S'17470'
p420
sg11
S'\xe6\x9c\xac\xe6\xac\xa1\xe5\x8f\x91\xe9\x80\x81\xe5\xb8\xa7\xe9\x95\xbf:13\t\xe6\x80\xbb\xe5\xb8\xa7\xe9\x95\xbf:83\n'
p421
sa(dp422
g2
S'17452'
p423
sg4
L1449725865880L
sg5
g6
sg7
S'ForegroundActivity'
p424
sg9
S'17530'
p425
sg11
S'\xe6\x9c\xac\xe6\xac\xa1\xe6\x94\xb6\xe5\x88\xb0\xe5\xb8\xa7\xe9\x95\xbf:13\t\xe6\x80\xbb\xe5\xb8\xa7\xe9\x95\xbf:748\n'
p426
sa(dp427
g2
S'17452'
p428
sg4
L1449725866020L
sg5
g6
sg7
S'SocketService1'
p429
sg9
S'17472'
p430
sg11
S'\xe6\x9c\xac\xe6\xac\xa1\xe6\x8f\x90\xe5\x8f\x961:LoadPtr:748 HeadIndex:735 GetSize:13 13 0 \xe5\xa4\xb4\xe4\xbf\xa1\xe6\x81\xaf:EB 90 EB 90 EB 90 0D 00 10 01 \n'
p431
sa(dp432
g2
S'17425'
p433
sg4
L1449725869420L
sg5
g6
sg7
S'cn.edu.nju.ise.kikandroid'
p434
sg9
S'17491'
p435
sg11
S'Log:1449725869423\n'
p436
sa(dp437
g2
S'17452'
p438
sg4
L1449725873090L
sg5
g6
sg7
S'SocketService'
p439
sg9
S'17452'
p440
sg11
S'onStartCommand : bLogin:false\n'
p441
sa(dp442
g2
S'17425'
p443
sg4
L1449725873090L
sg5
g6
sg7
S'MainActivity'
p444
sg9
S'17425'
p445
sg11
S'MainActivity onDestroy\n'
p446
sa(dp447
g2
S'17425'
p448
sg4
L1449725873120L
sg5
g287
sg7
S'ActivityThread'
p449
sg9
S'17425'
p450
sg11
S'Activity com.example.myfristandroid.MainActivity has leaked IntentReceiver com.example.myfristandroid.MainActivity$CmdReceiver@4271af18 that was originally registered here. Are you missing a call to unregisterReceiver()?\nandroid.app.IntentReceiverLeaked: Activity com.example.myfristandroid.MainActivity has leaked IntentReceiver com.example.myfristandroid.MainActivity$CmdReceiver@4271af18 that was originally registered here. Are you missing a call to unregisterReceiver()?\n\tat android.app.LoadedApk$ReceiverDispatcher.<init>(LoadedApk.java:850)\n\tat android.app.LoadedApk.getReceiverDispatcher(LoadedApk.java:616)\n\tat android.app.ContextImpl.registerReceiverInternal(ContextImpl.java:1391)\n\tat android.app.ContextImpl.registerReceiver(ContextImpl.java:1371)\n\tat android.app.ContextImpl.registerReceiver(ContextImpl.java:1365)\n\tat android.content.ContextWrapper.registerReceiver(ContextWrapper.java:446)\n\tat com.example.myfristandroid.MainActivity.onCreate(MainActivity.java:311)\n\tat android.app.Activity.performCreate(Activity.java:5234)\n\tat android.app.Instrumentation.callActivityOnCreate(Instrumentation.java:1087)\n\tat android.app.ActivityThread.performLaunchActivity(ActivityThread.java:2302)\n\tat android.app.ActivityThread.handleLaunchActivity(ActivityThread.java:2388)\n\tat android.app.ActivityThread.access$900(ActivityThread.java:148)\n\tat android.app.ActivityThread$H.handleMessage(ActivityThread.java:1319)\n\tat android.os.Handler.dispatchMessage(Handler.java:99)\n\tat android.os.Looper.loop(Looper.java:137)\n\tat android.app.ActivityThread.main(ActivityThread.java:5457)\n\tat java.lang.reflect.Method.invokeNative(Native Method)\n\tat java.lang.reflect.Method.invoke(Method.java:525)\n\tat com.android.internal.os.ZygoteInit$MethodAndArgsCaller.run(ZygoteInit.java:875)\n\tat com.android.internal.os.ZygoteInit.main(ZygoteInit.java:691)\n\tat dalvik.system.NativeStart.main(Native Method)\n'
p451
sa(dp452
g2
S'17452'
p453
sg4
L1449725900690L
sg5
g6
sg7
S'ForegroundActivity'
p454
sg9
S'17470'
p455
sg11
S'\xe6\x9c\xac\xe6\xac\xa1\xe5\x8f\x91\xe9\x80\x81\xe5\xb8\xa7\xe9\x95\xbf:13\t\xe6\x80\xbb\xe5\xb8\xa7\xe9\x95\xbf:96\n'
p456
sa(dp457
g2
S'17452'
p458
sg4
L1449725900930L
sg5
g6
sg7
S'ForegroundActivity'
p459
sg9
S'17530'
p460
sg11
S'\xe6\x9c\xac\xe6\xac\xa1\xe6\x94\xb6\xe5\x88\xb0\xe5\xb8\xa7\xe9\x95\xbf:13\t\xe6\x80\xbb\xe5\xb8\xa7\xe9\x95\xbf:761\n'
p461
sa(dp462
g2
S'17452'
p463
sg4
L1449725901160L
sg5
g6
sg7
S'SocketService1'
p464
sg9
S'17472'
p465
sg11
S'\xe6\x9c\xac\xe6\xac\xa1\xe6\x8f\x90\xe5\x8f\x961:LoadPtr:761 HeadIndex:748 GetSize:13 13 0 \xe5\xa4\xb4\xe4\xbf\xa1\xe6\x81\xaf:EB 90 EB 90 EB 90 0D 00 10 01 \n'
p466
sa(dp467
g2
S'17452'
p468
sg4
L1449725903370L
sg5
g6
sg7
S'dalvikvm'
p469
sg9
S'17456'
p470
sg11
S'GC_CONCURRENT freed 1439K, 35% free 3848K/5900K, paused 5ms+4ms, total 52ms\n'
p471
sa(dp472
g2
S'17425'
p473
sg4
L1449725909270L
sg5
g6
sg7
S'dalvikvm'
p474
sg9
S'17429'
p475
sg11
S'GC_CONCURRENT freed 4936K, 26% free 16102K/21660K, paused 3ms+9ms, total 42ms\n'
p476
sa(dp477
g2
S'17425'
p478
sg4
L1449725911070L
sg5
g6
sg7
S'dalvikvm'
p479
sg9
S'17429'
p480
sg11
S'GC_CONCURRENT freed 2509K, 26% free 16184K/21660K, paused 12ms+7ms, total 75ms\n'
p481
sa(dp482
g2
S'17425'
p483
sg4
L1449725911280L
sg5
g6
sg7
S'MainActivity'
p484
sg9
S'17549'
p485
sg11
S'h:5684.15,w:7950.53\n'
p486
sa(dp487
g2
S'17452'
p488
sg4
L1449725940700L
sg5
g6
sg7
S'ForegroundActivity'
p489
sg9
S'17470'
p490
sg11
S'\xe6\x9c\xac\xe6\xac\xa1\xe5\x8f\x91\xe9\x80\x81\xe5\xb8\xa7\xe9\x95\xbf:13\t\xe6\x80\xbb\xe5\xb8\xa7\xe9\x95\xbf:109\n'
p491
sa(dp492
g2
S'17452'
p493
sg4
L1449725940850L
sg5
g6
sg7
S'ForegroundActivity'
p494
sg9
S'17530'
p495
sg11
S'\xe6\x9c\xac\xe6\xac\xa1\xe6\x94\xb6\xe5\x88\xb0\xe5\xb8\xa7\xe9\x95\xbf:13\t\xe6\x80\xbb\xe5\xb8\xa7\xe9\x95\xbf:774\n'
p496
sa(dp497
g2
S'17452'
p498
sg4
L1449725941220L
sg5
g6
sg7
S'SocketService1'
p499
sg9
S'17472'
p500
sg11
S'\xe6\x9c\xac\xe6\xac\xa1\xe6\x8f\x90\xe5\x8f\x961:LoadPtr:774 HeadIndex:761 GetSize:13 13 0 \xe5\xa4\xb4\xe4\xbf\xa1\xe6\x81\xaf:EB 90 EB 90 EB 90 0D 00 10 01 \n'
p501
sa.