(lp0
(dp1
S'processID'
p2
S'11087'
p3
sS'SyscTime'
p4
L1449639025483L
sS'priority'
p5
S'W'
p6
sS'tag'
p7
S'IInputConnectionWrapper'
p8
sS'threadID'
p9
S'11087'
p10
sS'message'
p11
S'performPrivateCommand on inactive InputConnection\n'
p12
sa(dp13
g2
S'11087'
p14
sg4
L1449639086433L
sg5
g6
sg7
S'dalvikvm'
p15
sg9
S'11187'
p16
sg11
S'threadid=14: thread exiting with uncaught exception (group=0x417b7940)\n'
p17
sa(dp18
g2
S'11087'
p19
sg4
L1449639086443L
sg5
S'E'
p20
sg7
S'AndroidRuntime'
p21
sg9
S'11187'
p22
sg11
S'FATAL EXCEPTION: Thread-2556\njava.lang.NullPointerException\n\tat android.app.Instrumentation.finish(Instrumentation.java:190)\n\tat cn.edu.nju.ise.kikandroid.AUTInstrument.quitInstr(AUTInstrument.java:195)\n\tat cn.edu.nju.ise.kikandroid.AUTInstrument.startServer(AUTInstrument.java:161)\n\tat cn.edu.nju.ise.kikandroid.AUTInstrument$1.run(AUTInstrument.java:107)\n\tat java.lang.Thread.run(Thread.java:841)\n'
p23
sa(dp24
g2
S'20331'
p25
sg4
L1449639442043L
sg5
g6
sg7
S'IInputConnectionWrapper'
p26
sg9
S'20331'
p27
sg11
S'performPrivateCommand on inactive InputConnection\n'
p28
sa(dp29
g2
S'20331'
p30
sg4
L1449639453173L
sg5
g6
sg7
S'dalvikvm'
p31
sg9
S'20404'
p32
sg11
S'threadid=14: thread exiting with uncaught exception (group=0x417b7940)\n'
p33
sa(dp34
g2
S'20331'
p35
sg4
L1449639453173L
sg5
g20
sg7
S'AndroidRuntime'
p36
sg9
S'20404'
p37
sg11
S'FATAL EXCEPTION: Thread-2958\njava.lang.NullPointerException\n\tat android.app.Instrumentation.finish(Instrumentation.java:190)\n\tat cn.edu.nju.ise.kikandroid.AUTInstrument.quitInstr(AUTInstrument.java:195)\n\tat cn.edu.nju.ise.kikandroid.AUTInstrument.startServer(AUTInstrument.java:161)\n\tat cn.edu.nju.ise.kikandroid.AUTInstrument$1.run(AUTInstrument.java:107)\n\tat java.lang.Thread.run(Thread.java:841)\n'
p38
sa(dp39
g2
S'22980'
p40
sg4
L1449639594063L
sg5
g6
sg7
S'IInputConnectionWrapper'
p41
sg9
S'22980'
p42
sg11
S'performPrivateCommand on inactive InputConnection\n'
p43
sa(dp44
g2
S'22980'
p45
sg4
L1449639594073L
sg5
g6
sg7
S'IInputConnectionWrapper'
p46
sg9
S'22980'
p47
sg11
S'performPrivateCommand on inactive InputConnection\n'
p48
sa(dp49
g2
S'22980'
p50
sg4
L1449639599693L
sg5
g6
sg7
S'IInputConnectionWrapper'
p51
sg9
S'22980'
p52
sg11
S'performPrivateCommand on inactive InputConnection\n'
p53
sa(dp54
g2
S'22980'
p55
sg4
L1449639602673L
sg5
g20
sg7
S'external/chromium/net/disk_cache/stat_hub.cc'
p56
sg9
S'23398'
p57
sg11
S"netstack:  STAT_HUB - App com.example.myfristandroid isn't supported\n"
p58
sa(dp59
g2
S'22980'
p60
sg4
L1449639604613L
sg5
g20
sg7
S'Web Console'
p61
sg9
S'22980'
p62
sg11
S"Uncaught TypeError: Object [object Object] has no method 'startWait' at http://oa.paneng.cn:1143/se9200/realdata/js/realdata.js:80\n"
p63
sa(dp64
g2
S'22980'
p65
sg4
L1449639605653L
sg5
g6
sg7
S'IInputConnectionWrapper'
p66
sg9
S'22980'
p67
sg11
S'performPrivateCommand on inactive InputConnection\n'
p68
sa(dp69
g2
S'22980'
p70
sg4
L1449639616923L
sg5
g6
sg7
S'dalvikvm'
p71
sg9
S'23027'
p72
sg11
S'threadid=14: thread exiting with uncaught exception (group=0x417b7940)\n'
p73
sa(dp74
g2
S'22980'
p75
sg4
L1449639616923L
sg5
g20
sg7
S'AndroidRuntime'
p76
sg9
S'23027'
p77
sg11
S'FATAL EXCEPTION: Thread-3024\njava.lang.NullPointerException\n\tat android.app.Instrumentation.finish(Instrumentation.java:190)\n\tat cn.edu.nju.ise.kikandroid.AUTInstrument.quitInstr(AUTInstrument.java:195)\n\tat cn.edu.nju.ise.kikandroid.AUTInstrument.startServer(AUTInstrument.java:161)\n\tat cn.edu.nju.ise.kikandroid.AUTInstrument$1.run(AUTInstrument.java:107)\n\tat java.lang.Thread.run(Thread.java:841)\n'
p78
sa.