(lp0
(dp1
S'processID'
p2
S'19328'
p3
sS'SyscTime'
p4
L1449631437116L
sS'priority'
p5
S'D'
p6
sS'tag'
p7
S'MainActivity'
p8
sS'threadID'
p9
S'19328'
p10
sS'message'
p11
S'V.getTag:null v.id:2131230790\n'
p12
sa(dp13
g2
S'19328'
p14
sg4
L1449631438006L
sg5
g6
sg7
S'MainActivity'
p15
sg9
S'19328'
p16
sg11
S'V.getTag:null v.id:2131230791\n'
p17
sa(dp18
g2
S'19328'
p19
sg4
L1449631442336L
sg5
S'W'
p20
sg7
S'IInputConnectionWrapper'
p21
sg9
S'19328'
p22
sg11
S'showStatusIcon on inactive InputConnection\n'
p23
sa(dp24
g2
S'19328'
p25
sg4
L1449631453426L
sg5
g6
sg7
S'MainActivity'
p26
sg9
S'19328'
p27
sg11
S'V.getTag:null v.id:2131230790\n'
p28
sa(dp29
g2
S'19328'
p30
sg4
L1449631453566L
sg5
g6
sg7
S'MainActivity'
p31
sg9
S'19328'
p32
sg11
S'V.getTag:null v.id:2131230790\n'
p33
sa(dp34
g2
S'19328'
p35
sg4
L1449631453956L
sg5
g6
sg7
S'MainActivity'
p36
sg9
S'19328'
p37
sg11
S'V.getTag:null v.id:2131230791\n'
p38
sa(dp39
g2
S'19328'
p40
sg4
L1449631458846L
sg5
g6
sg7
S'dalvikvm'
p41
sg9
S'19328'
p42
sg11
S'GC_FOR_ALLOC freed 1387K, 7% free 26582K/28448K, paused 24ms, total 26ms\n'
p43
sa(dp44
g2
S'19328'
p45
sg4
L1449631458976L
sg5
g6
sg7
S'cn.edu.nju.ise.kikandroid'
p46
sg9
S'19369'
p47
sg11
S'Screenshot:1449631458742\n'
p48
sa(dp49
g2
S'19328'
p50
sg4
L1449631461346L
sg5
g6
sg7
S'MainActivity'
p51
sg9
S'19328'
p52
sg11
S'V.getTag:null v.id:2131230790\n'
p53
sa(dp54
g2
S'19328'
p55
sg4
L1449631463886L
sg5
g6
sg7
S'dalvikvm'
p56
sg9
S'19328'
p57
sg11
S'GC_FOR_ALLOC freed 7903K, 21% free 22682K/28444K, paused 14ms, total 14ms\n'
p58
sa(dp59
g2
S'19328'
p60
sg4
L1449631463916L
sg5
g6
sg7
S'dalvikvm'
p61
sg9
S'19328'
p62
sg11
S'GC_FOR_ALLOC freed 300K, 9% free 25983K/28444K, paused 15ms, total 15ms\n'
p63
sa(dp64
g2
S'19328'
p65
sg4
L1449631464026L
sg5
g6
sg7
S'cn.edu.nju.ise.kikandroid'
p66
sg9
S'19369'
p67
sg11
S'Screenshot:1449631463793\n'
p68
sa(dp69
g2
S'19346'
p70
sg4
L1449631464726L
sg5
g6
sg7
S'ForegroundActivity'
p71
sg9
S'19362'
p72
sg11
S'\xe6\x9c\xac\xe6\xac\xa1\xe5\x8f\x91\xe9\x80\x81\xe5\xb8\xa7\xe9\x95\xbf:13\t\xe6\x80\xbb\xe5\xb8\xa7\xe9\x95\xbf:70\n'
p73
sa(dp74
g2
S'19346'
p75
sg4
L1449631464916L
sg5
g6
sg7
S'ForegroundActivity'
p76
sg9
S'19370'
p77
sg11
S'\xe6\x9c\xac\xe6\xac\xa1\xe6\x94\xb6\xe5\x88\xb0\xe5\xb8\xa7\xe9\x95\xbf:13\t\xe6\x80\xbb\xe5\xb8\xa7\xe9\x95\xbf:735\n'
p78
sa(dp79
g2
S'19346'
p80
sg4
L1449631465806L
sg5
g6
sg7
S'SocketService1'
p81
sg9
S'19364'
p82
sg11
S'\xe6\x9c\xac\xe6\xac\xa1\xe6\x8f\x90\xe5\x8f\x961:LoadPtr:735 HeadIndex:722 GetSize:13 13 0 \xe5\xa4\xb4\xe4\xbf\xa1\xe6\x81\xaf:EB 90 EB 90 EB 90 0D 00 10 01 \n'
p83
sa(dp84
g2
S'19328'
p85
sg4
L1449631465926L
sg5
g6
sg7
S'MainActivity'
p86
sg9
S'19328'
p87
sg11
S'V.getTag:null v.id:2131230738\n'
p88
sa(dp89
g2
S'19328'
p90
sg4
L1449631466146L
sg5
g6
sg7
S'MainActivity'
p91
sg9
S'19328'
p92
sg11
S'V.getTag:null v.id:2131230738\n'
p93
sa(dp94
g2
S'19328'
p95
sg4
L1449631466286L
sg5
g6
sg7
S'MainActivity'
p96
sg9
S'19328'
p97
sg11
S'V.getTag:null v.id:2131230738\n'
p98
sa(dp99
g2
S'19328'
p100
sg4
L1449631467166L
sg5
g6
sg7
S'MainActivity'
p101
sg9
S'19328'
p102
sg11
S'V.getTag:null v.id:2131230734\n'
p103
sa(dp104
g2
S'19328'
p105
sg4
L1449631469236L
sg5
g6
sg7
S'MainActivity'
p106
sg9
S'19328'
p107
sg11
S'V.getTag:null v.id:2131230734\n'
p108
sa(dp109
g2
S'19328'
p110
sg4
L1449631469846L
sg5
g6
sg7
S'MainActivity'
p111
sg9
S'19328'
p112
sg11
S'V.getTag:null v.id:2131230736\n'
p113
sa(dp114
g2
S'19328'
p115
sg4
L1449631470606L
sg5
g6
sg7
S'MainActivity'
p116
sg9
S'19328'
p117
sg11
S'V.getTag:null v.id:2131230734\n'
p118
sa(dp119
g2
S'19328'
p120
sg4
L1449631471486L
sg5
g6
sg7
S'MainActivity'
p121
sg9
S'19328'
p122
sg11
S'V.getTag:null v.id:2131230738\n'
p123
sa(dp124
g2
S'19328'
p125
sg4
L1449631471956L
sg5
g6
sg7
S'MainActivity'
p126
sg9
S'19328'
p127
sg11
S'V.getTag:null v.id:2131230734\n'
p128
sa(dp129
g2
S'19328'
p130
sg4
L1449631474996L
sg5
g6
sg7
S'cn.edu.nju.ise.kikandroid'
p131
sg9
S'19369'
p132
sg11
S'Log:1449631474997\n'
p133
sa(dp134
g2
S'19328'
p135
sg4
L1449631475046L
sg5
S'I'
p136
sg7
S'dalvikvm'
p137
sg9
S'19335'
p138
sg11
S'Jit: resizing JitTable from 4096 to 8192\n'
p139
sa(dp140
g2
S'19328'
p141
sg4
L1449631475086L
sg5
g6
sg7
S'dalvikvm'
p142
sg9
S'19328'
p143
sg11
S'GC_FOR_ALLOC freed 9012K, 21% free 22554K/28444K, paused 19ms, total 20ms\n'
p144
sa(dp145
g2
S'19328'
p146
sg4
L1449631475126L
sg5
g6
sg7
S'dalvikvm'
p147
sg9
S'19328'
p148
sg11
S'GC_FOR_ALLOC freed 9K, 9% free 26145K/28444K, paused 11ms, total 11ms\n'
p149
sa(dp150
g2
S'19328'
p151
sg4
L1449631475276L
sg5
g6
sg7
S'cn.edu.nju.ise.kikandroid'
p152
sg9
S'19369'
p153
sg11
S'Screenshot:1449631475035\n'
p154
sa(dp155
g2
S'19328'
p156
sg4
L1449631475276L
sg5
g20
sg7
S'dalvikvm'
p157
sg9
S'19369'
p158
sg11
S'threadid=15: thread exiting with uncaught exception (group=0x41eee898)\n'
p159
sa(dp160
g2
S'19328'
p161
sg4
L1449631475276L
sg5
S'E'
p162
sg7
S'AndroidRuntime'
p163
sg9
S'19369'
p164
sg11
S'FATAL EXCEPTION: Thread-18928\njava.lang.NullPointerException\n\tat android.app.Instrumentation.finish(Instrumentation.java:193)\n\tat cn.edu.nju.ise.kikandroid.AUTInstrument.quitInstr(AUTInstrument.java:195)\n\tat cn.edu.nju.ise.kikandroid.AUTInstrument.startServer(AUTInstrument.java:161)\n\tat cn.edu.nju.ise.kikandroid.AUTInstrument$1.run(AUTInstrument.java:107)\n\tat java.lang.Thread.run(Thread.java:841)\n'
p165
sa(dp166
g2
S'19773'
p167
sg4
L1449631480916L
sg5
g6
sg7
S'dalvikvm'
p168
sg9
S'19773'
p169
sg11
S'Late-enabling CheckJNI\n'
p170
sa(dp171
g2
S'19773'
p172
sg4
L1449631480936L
sg5
g6
sg7
S'dalvikvm'
p173
sg9
S'19773'
p174
sg11
S'Trying to load lib /data/user/0/com.qihoo360.mobilesafe/files/libavb.so.4x.so 0x421cf720\n'
p175
sa(dp176
g2
S'19773'
p177
sg4
L1449631480936L
sg5
g6
sg7
S'dalvikvm'
p178
sg9
S'19773'
p179
sg11
S'Added shared lib /data/user/0/com.qihoo360.mobilesafe/files/libavb.so.4x.so 0x421cf720\n'
p180
sa(dp181
g2
S'19773'
p182
sg4
L1449631480936L
sg5
g6
sg7
S'dalvikvm'
p183
sg9
S'19773'
p184
sg11
S"Shared lib '/data/user/0/com.qihoo360.mobilesafe/files/libavb.so.4x.so' already loaded in same CL 0x421cf720\n"
p185
sa(dp186
g2
S'19773'
p187
sg4
L1449631480986L
sg5
g6
sg7
S'dalvikvm'
p188
sg9
S'19773'
p189
sg11
S'GetMethodID: not returning static method Landroid/os/SystemProperties;.native_get (Ljava/lang/String;)Ljava/lang/String;\n'
p190
sa(dp191
g2
S'19773'
p192
sg4
L1449631480986L
sg5
g6
sg7
S'dalvikvm'
p193
sg9
S'19773'
p194
sg11
S'GetMethodID: not returning static method Ljava/lang/ProcessManager;.exec ([Ljava/lang/String;[Ljava/lang/String;Ljava/lang/String;Ljava/io/FileDescriptor;Ljava/io/FileDescriptor;Ljava/io/FileDescriptor;Z)I\n'
p195
sa(dp196
g2
S'19773'
p197
sg4
L1449631480986L
sg5
g6
sg7
S'dalvikvm'
p198
sg9
S'19773'
p199
sg11
S'GetMethodID: not returning static method Ljava/lang/Class;.classForName (Ljava/lang/String;ZLjava/lang/ClassLoader;)Ljava/lang/Class;\n'
p200
sa(dp201
g2
S'19773'
p202
sg4
L1449631480996L
sg5
g162
sg7
S'Parcel  '
p203
sg9
S'19773'
p204
sg11
S'Reading a NULL string not supported here.\n'
p205
sa(dp206
g2
S'19773'
p207
sg4
L1449631481006L
sg5
g162
sg7
S'Parcel  '
p208
sg9
S'19773'
p209
sg11
S'Reading a NULL string not supported here.\n'
p210
sa(dp211
g2
S'19773'
p212
sg4
L1449631481016L
sg5
g162
sg7
S'Parcel  '
p213
sg9
S'19773'
p214
sg11
S'Reading a NULL string not supported here.\n'
p215
sa(dp216
g2
S'19773'
p217
sg4
L1449631481226L
sg5
g162
sg7
S'Parcel  '
p218
sg9
S'19773'
p219
sg11
S'Reading a NULL string not supported here.\n'
p220
sa(dp221
g2
S'19773'
p222
sg4
L1449631481356L
sg5
g6
sg7
S'dalvikvm'
p223
sg9
S'19773'
p224
sg11
S'GC_FOR_ALLOC freed 888K, 39% free 6838K/11168K, paused 11ms, total 11ms\n'
p225
sa(dp226
g2
S'19773'
p227
sg4
L1449631481366L
sg5
g136
sg7
S'dalvikvm-heap'
p228
sg9
S'19773'
p229
sg11
S'Grow heap (frag case) to 23.604MB for 15504856-byte allocation\n'
p230
sa(dp231
g2
S'19773'
p232
sg4
L1449631481386L
sg5
g6
sg7
S'dalvikvm'
p233
sg9
S'19777'
p234
sg11
S'GC_CONCURRENT freed 2K, 17% free 21977K/26312K, paused 3ms+1ms, total 15ms\n'
p235
sa(dp236
g2
S'19773'
p237
sg4
L1449631481606L
sg5
g162
sg7
S'Parcel  '
p238
sg9
S'19773'
p239
sg11
S'Reading a NULL string not supported here.\n'
p240
sa(dp241
g2
S'19790'
p242
sg4
L1449631481616L
sg5
g6
sg7
S'dalvikvm'
p243
sg9
S'19790'
p244
sg11
S'Late-enabling CheckJNI\n'
p245
sa(dp246
g2
S'19790'
p247
sg4
L1449631481626L
sg5
g6
sg7
S'dalvikvm'
p248
sg9
S'19790'
p249
sg11
S'Trying to load lib /data/user/0/com.qihoo360.mobilesafe/files/libavb.so.4x.so 0x421d0a18\n'
p250
sa(dp251
g2
S'19790'
p252
sg4
L1449631481626L
sg5
g6
sg7
S'dalvikvm'
p253
sg9
S'19790'
p254
sg11
S'Added shared lib /data/user/0/com.qihoo360.mobilesafe/files/libavb.so.4x.so 0x421d0a18\n'
p255
sa(dp256
g2
S'19790'
p257
sg4
L1449631481636L
sg5
g6
sg7
S'dalvikvm'
p258
sg9
S'19790'
p259
sg11
S'Trying to load lib /data/user/0/com.qihoo360.mobilesafe/files/libavb.so.4x.so 0x421d0a18\n'
p260
sa(dp261
g2
S'19790'
p262
sg4
L1449631481636L
sg5
g6
sg7
S'dalvikvm'
p263
sg9
S'19790'
p264
sg11
S"Shared lib '/data/user/0/com.qihoo360.mobilesafe/files/libavb.so.4x.so' already loaded in same CL 0x421d0a18\n"
p265
sa(dp266
g2
S'19773'
p267
sg4
L1449631481646L
sg5
g6
sg7
S'libEGL  '
p268
sg9
S'19773'
p269
sg11
S'loaded /vendor/lib/egl/libEGL_adreno.so\n'
p270
sa(dp271
g2
S'19773'
p272
sg4
L1449631481646L
sg5
g6
sg7
S'libEGL  '
p273
sg9
S'19773'
p274
sg11
S'loaded /vendor/lib/egl/libGLESv1_CM_adreno.so\n'
p275
sa(dp276
g2
S'19773'
p277
sg4
L1449631481656L
sg5
g6
sg7
S'libEGL  '
p278
sg9
S'19773'
p279
sg11
S'loaded /vendor/lib/egl/libGLESv2_adreno.so\n'
p280
sa(dp281
g2
S'19773'
p282
sg4
L1449631481656L
sg5
g136
sg7
S'Adreno-EGL'
p283
sg9
S'19773'
p284
sg11
S'<qeglDrvAPI_eglInitialize:381>: EGL 1.4 QUALCOMM build: AU_LINUX_ANDROID_JB_3.2_RB2.04.03.00.129.099_msm8226_JB_3.2_RB2__release_AU ()\nOpenGL ES Shader Compiler Version: 20.00.08\nBuild Date: 03/06/14 Thu\nLocal Branch: mybranch2706508\nRemote Branch: quic/jb_3.2_rb2.32\nLocal Patches: NONE\nReconstruct Branch: AU_LINUX_ANDROID_JB_3.2_RB2.04.03.00.129.099 +  NOTHING\n'
p285
sa(dp286
g2
S'19773'
p287
sg4
L1449631481686L
sg5
g6
sg7
S'OpenGLRenderer'
p288
sg9
S'19773'
p289
sg11
S'Enabling debug mode 0\n'
p290
sa(dp291
g2
S'19790'
p292
sg4
L1449631481696L
sg5
g6
sg7
S'dalvikvm'
p293
sg9
S'19790'
p294
sg11
S'GetMethodID: not returning static method Landroid/os/SystemProperties;.native_get (Ljava/lang/String;)Ljava/lang/String;\n'
p295
sa(dp296
g2
S'19790'
p297
sg4
L1449631481696L
sg5
g6
sg7
S'dalvikvm'
p298
sg9
S'19790'
p299
sg11
S'GetMethodID: not returning static method Ljava/lang/ProcessManager;.exec ([Ljava/lang/String;[Ljava/lang/String;Ljava/lang/String;Ljava/io/FileDescriptor;Ljava/io/FileDescriptor;Ljava/io/FileDescriptor;Z)I\n'
p300
sa(dp301
g2
S'19790'
p302
sg4
L1449631481696L
sg5
g6
sg7
S'dalvikvm'
p303
sg9
S'19790'
p304
sg11
S'GetMethodID: not returning static method Ljava/lang/Class;.classForName (Ljava/lang/String;ZLjava/lang/ClassLoader;)Ljava/lang/Class;\n'
p305
sa(dp306
g2
S'19790'
p307
sg4
L1449631481706L
sg5
g162
sg7
S'Parcel  '
p308
sg9
S'19790'
p309
sg11
S'Reading a NULL string not supported here.\n'
p310
sa(dp311
g2
S'19790'
p312
sg4
L1449631481716L
sg5
g162
sg7
S'Parcel  '
p313
sg9
S'19790'
p314
sg11
S'Reading a NULL string not supported here.\n'
p315
sa(dp316
g2
S'19790'
p317
sg4
L1449631481736L
sg5
g162
sg7
S'Parcel  '
p318
sg9
S'19790'
p319
sg11
S'Reading a NULL string not supported here.\n'
p320
sa(dp321
g2
S'19790'
p322
sg4
L1449631481746L
sg5
g162
sg7
S'Parcel  '
p323
sg9
S'19790'
p324
sg11
S'Reading a NULL string not supported here.\n'
p325
sa(dp326
g2
S'19790'
p327
sg4
L1449631481796L
sg5
g6
sg7
S'SocketService'
p328
sg9
S'19790'
p329
sg11
S'onStartCommand : bLogin:false\n'
p330
sa(dp331
g2
S'19790'
p332
sg4
L1449631481796L
sg5
g6
sg7
S'SocketService'
p333
sg9
S'19790'
p334
sg11
S'pid:19790 myPid:19790\n'
p335
sa(dp336
g2
S'19790'
p337
sg4
L1449631481796L
sg5
g6
sg7
S'SocketService'
p338
sg9
S'19790'
p339
sg11
S'start to run current thread!id:18942\n'
p340
sa(dp341
g2
S'19790'
p342
sg4
L1449631481846L
sg5
g6
sg7
S'SocketService'
p343
sg9
S'19810'
p344
sg11
S'ip/172.20.10.11 lport:56463 p:143\n'
p345
sa(dp346
g2
S'19790'
p347
sg4
L1449631481856L
sg5
g162
sg7
S'Parcel  '
p348
sg9
S'19810'
p349
sg11
S'Reading a NULL string not supported here.\n'
p350
sa(dp351
g2
S'19790'
p352
sg4
L1449631481856L
sg5
g6
sg7
S'ForegroundActivity'
p353
sg9
S'19810'
p354
sg11
S'\xe6\x9c\xac\xe6\xac\xa1\xe5\x8f\x91\xe9\x80\x81\xe5\xb8\xa7\xe9\x95\xbf:35\t\xe6\x80\xbb\xe5\xb8\xa7\xe9\x95\xbf:35\n'
p355
sa(dp356
g2
S'19790'
p357
sg4
L1449631481856L
sg5
g6
sg7
S'SocketService'
p358
sg9
S'19810'
p359
sg11
S'success to connect server!id:18942 bLogin:false\n'
p360
sa(dp361
g2
S'19790'
p362
sg4
L1449631481956L
sg5
g6
sg7
S'ForegroundActivity'
p363
sg9
S'19811'
p364
sg11
S'\xe6\x9c\xac\xe6\xac\xa1\xe6\x94\xb6\xe5\x88\xb0\xe5\xb8\xa7\xe9\x95\xbf:13\t\xe6\x80\xbb\xe5\xb8\xa7\xe9\x95\xbf:13\n'
p365
sa(dp366
g2
S'19790'
p367
sg4
L1449631482806L
sg5
g6
sg7
S'SocketService1'
p368
sg9
S'19808'
p369
sg11
S'\xe6\x9c\xac\xe6\xac\xa1\xe6\x8f\x90\xe5\x8f\x961:LoadPtr:13 HeadIndex:0 GetSize:13 13 0 \xe5\xa4\xb4\xe4\xbf\xa1\xe6\x81\xaf:EB 90 EB 90 EB 90 0D 00 0E 01 \n'
p370
sa(dp371
g2
S'19790'
p372
sg4
L1449631482856L
sg5
g6
sg7
S'ForegroundActivity'
p373
sg9
S'19810'
p374
sg11
S'\xe6\x9c\xac\xe6\xac\xa1\xe5\x8f\x91\xe9\x80\x81\xe5\xb8\xa7\xe9\x95\xbf:11\t\xe6\x80\xbb\xe5\xb8\xa7\xe9\x95\xbf:46\n'
p375
sa(dp376
g2
S'19790'
p377
sg4
L1449631483096L
sg5
g6
sg7
S'ForegroundActivity'
p378
sg9
S'19811'
p379
sg11
S'\xe6\x9c\xac\xe6\xac\xa1\xe6\x94\xb6\xe5\x88\xb0\xe5\xb8\xa7\xe9\x95\xbf:642\t\xe6\x80\xbb\xe5\xb8\xa7\xe9\x95\xbf:655\n'
p380
sa(dp381
g2
S'19790'
p382
sg4
L1449631483776L
sg5
g162
sg7
S'Parcel  '
p383
sg9
S'19790'
p384
sg11
S'Reading a NULL string not supported here.\n'
p385
sa(dp386
g2
S'19790'
p387
sg4
L1449631483826L
sg5
g6
sg7
S'SocketService1'
p388
sg9
S'19808'
p389
sg11
S'\xe6\x9c\xac\xe6\xac\xa1\xe6\x8f\x90\xe5\x8f\x961:LoadPtr:655 HeadIndex:13 GetSize:642 130 512 \xe5\xa4\xb4\xe4\xbf\xa1\xe6\x81\xaf:EB 90 EB 90 EB 90 82 02 14 0A \n'
p390
sa(dp391
g2
S'19790'
p392
sg4
L1449631483856L
sg5
g6
sg7
S'ForegroundActivity'
p393
sg9
S'19810'
p394
sg11
S'\xe6\x9c\xac\xe6\xac\xa1\xe5\x8f\x91\xe9\x80\x81\xe5\xb8\xa7\xe9\x95\xbf:11\t\xe6\x80\xbb\xe5\xb8\xa7\xe9\x95\xbf:57\n'
p395
sa(dp396
g2
S'19790'
p397
sg4
L1449631483976L
sg5
g162
sg7
S'Parcel  '
p398
sg9
S'19790'
p399
sg11
S'Reading a NULL string not supported here.\n'
p400
sa(dp401
g2
S'19790'
p402
sg4
L1449631484026L
sg5
g6
sg7
S'ForegroundActivity'
p403
sg9
S'19811'
p404
sg11
S'\xe6\x9c\xac\xe6\xac\xa1\xe6\x94\xb6\xe5\x88\xb0\xe5\xb8\xa7\xe9\x95\xbf:67\t\xe6\x80\xbb\xe5\xb8\xa7\xe9\x95\xbf:722\n'
p405
sa(dp406
g2
S'19773'
p407
sg4
L1449631484346L
sg5
g162
sg7
S'Parcel  '
p408
sg9
S'19773'
p409
sg11
S'Reading a NULL string not supported here.\n'
p410
sa(dp411
g2
S'19773'
p412
sg4
L1449631484346L
sg5
g6
sg7
S'MainActivity'
p413
sg9
S'19773'
p414
sg11
S'Start One Client\n'
p415
sa(dp416
g2
S'19773'
p417
sg4
L1449631484356L
sg5
g6
sg7
S'StrictMode'
p418
sg9
S'19773'
p419
sg11
S'StrictMode policy violation; ~duration=15 ms: android.os.StrictMode$StrictModeDiskReadViolation: policy=23 violation=2\n\tat android.os.StrictMode$AndroidBlockGuardPolicy.onReadFromDisk(StrictMode.java:1123)\n\tat android.app.SharedPreferencesImpl.awaitLoadedLocked(SharedPreferencesImpl.java:203)\n\tat android.app.SharedPreferencesImpl.edit(SharedPreferencesImpl.java:282)\n\tat com.example.myfristandroid.MainActivity.initCfg(MainActivity.java:454)\n\tat com.example.myfristandroid.MainActivity.onCreate(MainActivity.java:295)\n\tat android.app.Activity.performCreate(Activity.java:5193)\n\tat android.app.Instrumentation.callActivityOnCreate(Instrumentation.java:1090)\n\tat com.qihoo360.mobilesafe.loader.c.callActivityOnCreate(SourceFile:98)\n\tat android.app.ActivityThread.performLaunchActivity(ActivityThread.java:2189)\n\tat android.app.ActivityThread.handleLaunchActivity(ActivityThread.java:2286)\n\tat android.app.ActivityThread.access$600(ActivityThread.java:144)\n\tat android.app.ActivityThread$H.handleMessage(ActivityThread.java:1259)\n\tat android.os.Handler.dispatchMessage(Handler.java:99)\n\tat android.os.Looper.loop(Looper.java:137)\n\tat android.app.ActivityThread.main(ActivityThread.java:5178)\n\tat java.lang.reflect.Method.invokeNative(Native Method)\n\tat java.lang.reflect.Method.invoke(Method.java:525)\n\tat com.android.internal.os.ZygoteInit$MethodAndArgsCaller.run(ZygoteInit.java:745)\n\tat com.android.internal.os.ZygoteInit.main(ZygoteInit.java:561)\n\tat dalvik.system.NativeStart.main(Native Method)\n'
p420
sa(dp421
g2
S'19773'
p422
sg4
L1449631484366L
sg5
g162
sg7
S'Parcel  '
p423
sg9
S'19773'
p424
sg11
S'Reading a NULL string not supported here.\n'
p425
sa(dp426
g2
S'19790'
p427
sg4
L1449631485026L
sg5
g6
sg7
S'SocketService1'
p428
sg9
S'19808'
p429
sg11
S'\xe6\x9c\xac\xe6\xac\xa1\xe6\x8f\x90\xe5\x8f\x961:LoadPtr:722 HeadIndex:655 GetSize:67 67 0 \xe5\xa4\xb4\xe4\xbf\xa1\xe6\x81\xaf:EB 90 EB 90 EB 90 43 00 15 02 \n'
p430
sa(dp431
g2
S'19773'
p432
sg4
L1449631485036L
sg5
g6
sg7
S'MainActivity'
p433
sg9
S'19773'
p434
sg11
S'ServerVersion:22 LocalVersion:12\n'
p435
sa(dp436
g2
S'19773'
p437
sg4
L1449631491466L
sg5
g6
sg7
S'MainActivity'
p438
sg9
S'19773'
p439
sg11
S'V.getTag:null v.id:2131230738\n'
p440
sa(dp441
g2
S'19773'
p442
sg4
L1449631491516L
sg5
S'V'
p443
sg7
S'RenderScript'
p444
sg9
S'19773'
p445
sg11
S'0x5e457df8 Launching thread(s), CPUs 4\n'
p446
sa(dp447
g2
S'19773'
p448
sg4
L1449631491576L
sg5
g162
sg7
S'Parcel  '
p449
sg9
S'19773'
p450
sg11
S'Reading a NULL string not supported here.\n'
p451
sa(dp452
g2
S'19773'
p453
sg4
L1449631491786L
sg5
g6
sg7
S'dalvikvm'
p454
sg9
S'19777'
p455
sg11
S'GC_CONCURRENT freed 5777K, 21% free 22462K/28384K, paused 2ms+4ms, total 23ms\n'
p456
sa(dp457
g2
S'19773'
p458
sg4
L1449631492586L
sg5
g6
sg7
S'MainActivity'
p459
sg9
S'19773'
p460
sg11
S'V.getTag:null v.id:2131230790\n'
p461
sa(dp462
g2
S'19773'
p463
sg4
L1449631494356L
sg5
g6
sg7
S'cn.edu.nju.ise.kikandroid'
p464
sg9
S'19814'
p465
sg11
S'Log:1449631494360\n'
p466
sa(dp467
g2
S'19773'
p468
sg4
L1449631494446L
sg5
g6
sg7
S'dalvikvm'
p469
sg9
S'19773'
p470
sg11
S'GC_FOR_ALLOC freed 427K, 9% free 25934K/28384K, paused 12ms, total 12ms\n'
p471
sa(dp472
g2
S'19773'
p473
sg4
L1449631494556L
sg5
g6
sg7
S'cn.edu.nju.ise.kikandroid'
p474
sg9
S'19814'
p475
sg11
S'Screenshot:1449631494386\n'
p476
sa(dp477
g2
S'19773'
p478
sg4
L1449631494556L
sg5
g20
sg7
S'dalvikvm'
p479
sg9
S'19814'
p480
sg11
S'threadid=15: thread exiting with uncaught exception (group=0x41eee898)\n'
p481
sa(dp482
g2
S'19773'
p483
sg4
L1449631494556L
sg5
g162
sg7
S'AndroidRuntime'
p484
sg9
S'19814'
p485
sg11
S'FATAL EXCEPTION: Thread-18937\njava.lang.NullPointerException\n\tat android.app.Instrumentation.finish(Instrumentation.java:193)\n\tat cn.edu.nju.ise.kikandroid.AUTInstrument.quitInstr(AUTInstrument.java:195)\n\tat cn.edu.nju.ise.kikandroid.AUTInstrument.startServer(AUTInstrument.java:161)\n\tat cn.edu.nju.ise.kikandroid.AUTInstrument$1.run(AUTInstrument.java:107)\n\tat java.lang.Thread.run(Thread.java:841)\n'
p486
sa.