(lp0
(dp1
S'EventTime'
p2
S'359348781'
p3
sS'SyscTime'
p4
L1449736917559L
sS'recordCount'
p5
S'0'
p6
sS'EventType'
p7
S'TYPE_WINDOW_STATE_CHANGED'
p8
sS'PackageName'
p9
S'com.xdf.ucan'
p10
sS'OutBounds'
p11
S'Rect(0, 0 - 480, 800)'
p12
sS'Action'
p13
S'[ ClassName: com.xdf.ucan.ui.login.StartActivity; Text: [\xe4\xbc\x98\xe6\x92\xad\xe8\xaf\xbe]; ContentDescription: null; ItemCount: -1; CurrentItemIndex: -1; IsEnabled: true; IsPassword: false; IsChecked: false; IsFullScreen: true; Scrollable: false; BeforeText: null; FromIndex: -1; ToIndex: -1; ScrollX: -1; ScrollY: -1; MaxScrollX: -1; MaxScrollY: -1; AddedCount: -1; RemovedCount: -1; ParcelableData: null ]'
p14
sS'MovementGranularity'
p15
g6
sa(dp16
S'EventTime'
p17
S'359348902'
p18
sg4
L1449736917668L
sS'recordCount'
p19
g6
sS'EventType'
p20
S'TYPE_WINDOW_CONTENT_CHANGED'
p21
sS'PackageName'
p22
S'com.xdf.ucan'
p23
sS'OutBounds'
p24
S'Rect(0, 0 - 480, 800)'
p25
sS'Action'
p26
S'[ ClassName: android.widget.FrameLayout; Text: []; ContentDescription: null; ItemCount: -1; CurrentItemIndex: -1; IsEnabled: true; IsPassword: false; IsChecked: false; IsFullScreen: false; Scrollable: false; BeforeText: null; FromIndex: -1; ToIndex: -1; ScrollX: -1; ScrollY: -1; MaxScrollX: -1; MaxScrollY: -1; AddedCount: -1; RemovedCount: -1; ParcelableData: null ]'
p27
sS'MovementGranularity'
p28
g6
sa(dp29
S'EventTime'
p30
S'359349127'
p31
sg4
L1449736917930L
sS'recordCount'
p32
g6
sS'EventType'
p33
S'TYPE_WINDOW_CONTENT_CHANGED'
p34
sS'PackageName'
p35
S'com.xdf.ucan'
p36
sS'OutBounds'
p37
S'Rect(0, 0 - 480, 800)'
p38
sS'Action'
p39
S'[ ClassName: android.widget.FrameLayout; Text: []; ContentDescription: null; ItemCount: -1; CurrentItemIndex: -1; IsEnabled: true; IsPassword: false; IsChecked: false; IsFullScreen: false; Scrollable: false; BeforeText: null; FromIndex: -1; ToIndex: -1; ScrollX: -1; ScrollY: -1; MaxScrollX: -1; MaxScrollY: -1; AddedCount: -1; RemovedCount: -1; ParcelableData: null ]'
p40
sS'MovementGranularity'
p41
g6
sa(dp42
S'EventTime'
p43
S'359350107'
p44
sg4
L1449736918825L
sS'recordCount'
p45
g6
sS'EventType'
p46
S'TYPE_WINDOW_STATE_CHANGED'
p47
sS'PackageName'
p48
S'com.xdf.ucan'
p49
sS'OutBounds'
p50
S'Rect(0, 0 - 480, 800)'
p51
sS'Action'
p52
S'[ ClassName: com.xdf.ucan.MainActivity; Text: [\xe4\xbc\x98\xe6\x92\xad\xe8\xaf\xbe]; ContentDescription: null; ItemCount: -1; CurrentItemIndex: -1; IsEnabled: true; IsPassword: false; IsChecked: false; IsFullScreen: true; Scrollable: false; BeforeText: null; FromIndex: -1; ToIndex: -1; ScrollX: -1; ScrollY: -1; MaxScrollX: -1; MaxScrollY: -1; AddedCount: -1; RemovedCount: -1; ParcelableData: null ]'
p53
sS'MovementGranularity'
p54
g6
sa(dp55
S'EventTime'
p56
S'359350287'
p57
sg4
L1449736918980L
sS'recordCount'
p58
g6
sS'EventType'
p59
S'TYPE_WINDOW_CONTENT_CHANGED'
p60
sS'PackageName'
p61
S'com.xdf.ucan'
p62
sS'OutBounds'
p63
S'Rect(0, 0 - 480, 800)'
p64
sS'Action'
p65
S'[ ClassName: android.widget.FrameLayout; Text: []; ContentDescription: null; ItemCount: -1; CurrentItemIndex: -1; IsEnabled: true; IsPassword: false; IsChecked: false; IsFullScreen: false; Scrollable: false; BeforeText: null; FromIndex: -1; ToIndex: -1; ScrollX: -1; ScrollY: -1; MaxScrollX: -1; MaxScrollY: -1; AddedCount: -1; RemovedCount: -1; ParcelableData: null ]'
p66
sS'MovementGranularity'
p67
g6
sa(dp68
S'EventTime'
p69
S'359362936'
p70
sg4
L1449736931575L
sS'recordCount'
p71
g6
sS'EventType'
p72
S'TYPE_VIEW_CLICKED'
p73
sS'PackageName'
p74
S'com.xdf.ucan'
p75
sS'OutBounds'
p76
S'Rect(0, 729 - 160, 800)'
p77
sS'Action'
p78
S'[ ClassName: android.widget.RelativeLayout; Text: [\xe5\xad\xa6\xe4\xb9\xa0]; ContentDescription: null; ItemCount: -1; CurrentItemIndex: -1; IsEnabled: true; IsPassword: false; IsChecked: false; IsFullScreen: false; Scrollable: false; BeforeText: null; FromIndex: -1; ToIndex: -1; ScrollX: -1; ScrollY: -1; MaxScrollX: -1; MaxScrollY: -1; AddedCount: -1; RemovedCount: -1; ParcelableData: null ]'
p79
sS'MovementGranularity'
p80
g6
sa(dp81
S'EventTime'
p82
S'359363588'
p83
sg4
L1449736932227L
sS'recordCount'
p84
g6
sS'EventType'
p85
S'TYPE_VIEW_CLICKED'
p86
sS'PackageName'
p87
S'com.xdf.ucan'
p88
sS'OutBounds'
p89
S'Rect(0, 392 - 480, 488)'
p90
sS'Action'
p91
S'[ ClassName: android.widget.RelativeLayout; Text: [\xe8\xa7\x86\xe9\xa2\x91, \xe6\x8d\xae\xe8\xaf\xb4\xef\xbc\x8c\xe6\x9c\x89\xe4\xba\x86spoc\xe6\x8f\x90\xe5\x88\x86\xe4\xb8\x8d\xe6\x98\xaf\xe9\x97\xae\xe9\xa2\x98]; ContentDescription: null; ItemCount: -1; CurrentItemIndex: -1; IsEnabled: true; IsPassword: false; IsChecked: false; IsFullScreen: false; Scrollable: false; BeforeText: null; FromIndex: -1; ToIndex: -1; ScrollX: -1; ScrollY: -1; MaxScrollX: -1; MaxScrollY: -1; AddedCount: -1; RemovedCount: -1; ParcelableData: null ]'
p92
sS'MovementGranularity'
p93
g6
sa(dp94
S'EventTime'
p95
S'359364170'
p96
sg4
L1449736932922L
sS'recordCount'
p97
g6
sS'EventType'
p98
S'TYPE_WINDOW_STATE_CHANGED'
p99
sS'PackageName'
p100
S'com.xdf.ucan'
p101
sS'OutBounds'
p102
S'Rect(0, 38 - 480, 800)'
p103
sS'Action'
p104
S'[ ClassName: com.xdf.ucan.views.LoadingDialog; Text: []; ContentDescription: null; ItemCount: -1; CurrentItemIndex: -1; IsEnabled: true; IsPassword: false; IsChecked: false; IsFullScreen: false; Scrollable: false; BeforeText: null; FromIndex: -1; ToIndex: -1; ScrollX: -1; ScrollY: -1; MaxScrollX: -1; MaxScrollY: -1; AddedCount: -1; RemovedCount: -1; ParcelableData: null ]'
p105
sS'MovementGranularity'
p106
g6
sa(dp107
S'EventTime'
p108
S'359364171'
p109
sg4
L1449736933047L
sS'recordCount'
p110
g6
sS'EventType'
p111
S'TYPE_WINDOW_CONTENT_CHANGED'
p112
sS'PackageName'
p113
S'com.xdf.ucan'
p114
sS'OutBounds'
p115
S'Rect(0, 38 - 480, 800)'
p116
sS'Action'
p117
S'[ ClassName: android.widget.FrameLayout; Text: []; ContentDescription: null; ItemCount: -1; CurrentItemIndex: -1; IsEnabled: true; IsPassword: false; IsChecked: false; IsFullScreen: false; Scrollable: false; BeforeText: null; FromIndex: -1; ToIndex: -1; ScrollX: -1; ScrollY: -1; MaxScrollX: -1; MaxScrollY: -1; AddedCount: -1; RemovedCount: -1; ParcelableData: null ]'
p118
sS'MovementGranularity'
p119
g6
sa(dp120
S'EventTime'
p121
S'359364390'
p122
sg4
L1449736933059L
sS'recordCount'
p123
g6
sS'EventType'
p124
S'TYPE_WINDOW_CONTENT_CHANGED'
p125
sS'PackageName'
p126
S'com.xdf.ucan'
p127
sS'OutBounds'
p128
S'Rect(0, 38 - 480, 800)'
p129
sS'Action'
p130
S'[ ClassName: android.widget.FrameLayout; Text: []; ContentDescription: null; ItemCount: -1; CurrentItemIndex: -1; IsEnabled: true; IsPassword: false; IsChecked: false; IsFullScreen: false; Scrollable: false; BeforeText: null; FromIndex: -1; ToIndex: -1; ScrollX: -1; ScrollY: -1; MaxScrollX: -1; MaxScrollY: -1; AddedCount: -1; RemovedCount: -1; ParcelableData: null ]'
p131
sS'MovementGranularity'
p132
g6
sa(dp133
S'EventTime'
p134
S'359366503'
p135
sg4
L1449736935167L
sS'recordCount'
p136
g6
sS'EventType'
p137
S'TYPE_WINDOW_STATE_CHANGED'
p138
sS'PackageName'
p139
S'com.xdf.ucan'
p140
sS'OutBounds'
p141
S'Rect(0, 0 - 480, 800)'
p142
sS'Action'
p143
S'[ ClassName: com.xdf.ucan.ui.video.VideoListActivity; Text: [\xe4\xbc\x98\xe6\x92\xad\xe8\xaf\xbe]; ContentDescription: null; ItemCount: -1; CurrentItemIndex: -1; IsEnabled: true; IsPassword: false; IsChecked: false; IsFullScreen: true; Scrollable: false; BeforeText: null; FromIndex: -1; ToIndex: -1; ScrollX: -1; ScrollY: -1; MaxScrollX: -1; MaxScrollY: -1; AddedCount: -1; RemovedCount: -1; ParcelableData: null ]'
p144
sS'MovementGranularity'
p145
g6
sa(dp146
S'EventTime'
p147
S'359373236'
p148
sg4
L1449736941874L
sS'recordCount'
p149
g6
sS'EventType'
p150
S'TYPE_VIEW_CLICKED'
p151
sS'PackageName'
p152
S'com.xdf.ucan'
p153
sS'OutBounds'
p154
S'Rect(116, 689 - 364, 755)'
p155
sS'Action'
p156
S'[ ClassName: android.widget.Button; Text: [\xe5\x85\xb3\xe6\xb3\xa8\xe8\xae\xa2\xe9\x98\x85\xe5\x8f\xb7]; ContentDescription: null; ItemCount: -1; CurrentItemIndex: -1; IsEnabled: true; IsPassword: false; IsChecked: false; IsFullScreen: false; Scrollable: false; BeforeText: null; FromIndex: -1; ToIndex: -1; ScrollX: -1; ScrollY: -1; MaxScrollX: -1; MaxScrollY: -1; AddedCount: -1; RemovedCount: -1; ParcelableData: null ]'
p157
sS'MovementGranularity'
p158
g6
sa(dp159
S'EventTime'
p160
S'359373506'
p161
sg4
L1449736942403L
sS'recordCount'
p162
g6
sS'EventType'
p163
S'TYPE_WINDOW_STATE_CHANGED'
p164
sS'PackageName'
p165
S'com.xdf.ucan'
p166
sS'Action'
p167
S'[ ClassName: com.xdf.ucan.views.LoadingDialog; Text: []; ContentDescription: null; ItemCount: -1; CurrentItemIndex: -1; IsEnabled: true; IsPassword: false; IsChecked: false; IsFullScreen: false; Scrollable: false; BeforeText: null; FromIndex: -1; ToIndex: -1; ScrollX: -1; ScrollY: -1; MaxScrollX: -1; MaxScrollY: -1; AddedCount: -1; RemovedCount: -1; ParcelableData: null ]'
p168
sS'MovementGranularity'
p169
g6
sa(dp170
S'EventTime'
p171
S'359373636'
p172
sg4
L1449736942594L
sS'recordCount'
p173
g6
sS'EventType'
p174
S'TYPE_WINDOW_CONTENT_CHANGED'
p175
sS'PackageName'
p176
S'com.xdf.ucan'
p177
sS'Action'
p178
S'[ ClassName: android.widget.FrameLayout; Text: []; ContentDescription: null; ItemCount: -1; CurrentItemIndex: -1; IsEnabled: true; IsPassword: false; IsChecked: false; IsFullScreen: false; Scrollable: false; BeforeText: null; FromIndex: -1; ToIndex: -1; ScrollX: -1; ScrollY: -1; MaxScrollX: -1; MaxScrollY: -1; AddedCount: -1; RemovedCount: -1; ParcelableData: null ]'
p179
sS'MovementGranularity'
p180
g6
sa(dp181
S'EventTime'
p182
S'359374068'
p183
sg4
L1449736942746L
sS'recordCount'
p184
g6
sS'EventType'
p185
S'TYPE_WINDOW_STATE_CHANGED'
p186
sS'PackageName'
p187
S'com.xdf.ucan'
p188
sS'OutBounds'
p189
S'Rect(0, 0 - 480, 800)'
p190
sS'Action'
p191
S'[ ClassName: com.xdf.ucan.ui.subscript.AddSubscriptionActivity; Text: [\xe4\xbc\x98\xe6\x92\xad\xe8\xaf\xbe]; ContentDescription: null; ItemCount: -1; CurrentItemIndex: -1; IsEnabled: true; IsPassword: false; IsChecked: false; IsFullScreen: true; Scrollable: false; BeforeText: null; FromIndex: -1; ToIndex: -1; ScrollX: -1; ScrollY: -1; MaxScrollX: -1; MaxScrollY: -1; AddedCount: -1; RemovedCount: -1; ParcelableData: null ]'
p192
sS'MovementGranularity'
p193
g6
sa(dp194
S'EventTime'
p195
S'359374092'
p196
sg4
L1449736942769L
sS'recordCount'
p197
g6
sS'EventType'
p198
S'TYPE_VIEW_SCROLLED'
p199
sS'PackageName'
p200
S'com.xdf.ucan'
p201
sS'OutBounds'
p202
S'Rect(0, 235 - 480, 800)'
p203
sS'Action'
p204
S'[ ClassName: android.widget.ListView; Text: []; ContentDescription: null; ItemCount: 20; CurrentItemIndex: -1; IsEnabled: true; IsPassword: false; IsChecked: false; IsFullScreen: false; Scrollable: true; BeforeText: null; FromIndex: 0; ToIndex: 7; ScrollX: -1; ScrollY: -1; MaxScrollX: -1; MaxScrollY: -1; AddedCount: -1; RemovedCount: -1; ParcelableData: null ]'
p205
sS'MovementGranularity'
p206
g6
sa(dp207
S'EventTime'
p208
S'359374096'
p209
sg4
L1449736942792L
sS'recordCount'
p210
g6
sS'EventType'
p211
S'TYPE_WINDOW_CONTENT_CHANGED'
p212
sS'PackageName'
p213
S'com.xdf.ucan'
p214
sS'OutBounds'
p215
S'Rect(0, 0 - 480, 800)'
p216
sS'Action'
p217
S'[ ClassName: android.widget.FrameLayout; Text: []; ContentDescription: null; ItemCount: -1; CurrentItemIndex: -1; IsEnabled: true; IsPassword: false; IsChecked: false; IsFullScreen: false; Scrollable: false; BeforeText: null; FromIndex: -1; ToIndex: -1; ScrollX: -1; ScrollY: -1; MaxScrollX: -1; MaxScrollY: -1; AddedCount: -1; RemovedCount: -1; ParcelableData: null ]'
p218
sS'MovementGranularity'
p219
g6
sa(dp220
S'EventTime'
p221
S'359377191'
p222
sg4
L1449736945834L
sS'recordCount'
p223
S'1'
p224
sS'EventType'
p225
S'TYPE_VIEW_CLICKED'
p226
sS'PackageName'
p227
S'com.xdf.ucan'
p228
sS'OutBounds'
p229
S'Rect(352, 256 - 457, 300)'
p230
sS'Action'
p231
S'[ ClassName: android.widget.TextView; Text: []; ContentDescription: null; ItemCount: -1; CurrentItemIndex: -1; IsEnabled: true; IsPassword: false; IsChecked: false; IsFullScreen: false; Scrollable: false; BeforeText: null; FromIndex: -1; ToIndex: -1; ScrollX: -1; ScrollY: -1; MaxScrollX: -1; MaxScrollY: -1; AddedCount: -1; RemovedCount: -1; ParcelableData: null ]'
p232
sS'MovementGranularity'
p233
g6
sa(dp234
S'EventTime'
p235
S'359377251'
p236
sg4
L1449736945896L
sS'recordCount'
p237
g6
sS'EventType'
p238
S'TYPE_WINDOW_STATE_CHANGED'
p239
sS'PackageName'
p240
S'com.xdf.ucan'
p241
sS'OutBounds'
p242
S'Rect(0, 38 - 480, 800)'
p243
sS'Action'
p244
S'[ ClassName: com.xdf.ucan.views.LoadingDialog; Text: []; ContentDescription: null; ItemCount: -1; CurrentItemIndex: -1; IsEnabled: true; IsPassword: false; IsChecked: false; IsFullScreen: false; Scrollable: false; BeforeText: null; FromIndex: -1; ToIndex: -1; ScrollX: -1; ScrollY: -1; MaxScrollX: -1; MaxScrollY: -1; AddedCount: -1; RemovedCount: -1; ParcelableData: null ]'
p245
sS'MovementGranularity'
p246
g6
sa(dp247
S'EventTime'
p248
S'359377341'
p249
sg4
L1449736945994L
sS'recordCount'
p250
g6
sS'EventType'
p251
S'TYPE_WINDOW_CONTENT_CHANGED'
p252
sS'PackageName'
p253
S'com.xdf.ucan'
p254
sS'OutBounds'
p255
S'Rect(0, 38 - 480, 800)'
p256
sS'Action'
p257
S'[ ClassName: android.widget.FrameLayout; Text: []; ContentDescription: null; ItemCount: -1; CurrentItemIndex: -1; IsEnabled: true; IsPassword: false; IsChecked: false; IsFullScreen: false; Scrollable: false; BeforeText: null; FromIndex: -1; ToIndex: -1; ScrollX: -1; ScrollY: -1; MaxScrollX: -1; MaxScrollY: -1; AddedCount: -1; RemovedCount: -1; ParcelableData: null ]'
p258
sS'MovementGranularity'
p259
g6
sa(dp260
S'EventTime'
p261
S'359378004'
p262
sg4
L1449736946699L
sS'recordCount'
p263
g6
sS'EventType'
p264
S'TYPE_WINDOW_STATE_CHANGED'
p265
sS'PackageName'
p266
S'com.xdf.ucan'
p267
sS'OutBounds'
p268
S'Rect(0, 0 - 480, 800)'
p269
sS'Action'
p270
S'[ ClassName: com.xdf.ucan.ui.subscript.AddSubscriptionActivity; Text: [\xe4\xbc\x98\xe6\x92\xad\xe8\xaf\xbe]; ContentDescription: null; ItemCount: -1; CurrentItemIndex: -1; IsEnabled: true; IsPassword: false; IsChecked: false; IsFullScreen: true; Scrollable: false; BeforeText: null; FromIndex: -1; ToIndex: -1; ScrollX: -1; ScrollY: -1; MaxScrollX: -1; MaxScrollY: -1; AddedCount: -1; RemovedCount: -1; ParcelableData: null ]'
p271
sS'MovementGranularity'
p272
g6
sa(dp273
S'EventTime'
p274
S'359378021'
p275
sg4
L1449736946731L
sS'recordCount'
p276
g6
sS'EventType'
p277
S'TYPE_WINDOW_CONTENT_CHANGED'
p278
sS'PackageName'
p279
S'com.xdf.ucan'
p280
sS'OutBounds'
p281
S'Rect(0, 0 - 480, 800)'
p282
sS'Action'
p283
S'[ ClassName: android.widget.FrameLayout; Text: []; ContentDescription: null; ItemCount: -1; CurrentItemIndex: -1; IsEnabled: true; IsPassword: false; IsChecked: false; IsFullScreen: false; Scrollable: false; BeforeText: null; FromIndex: -1; ToIndex: -1; ScrollX: -1; ScrollY: -1; MaxScrollX: -1; MaxScrollY: -1; AddedCount: -1; RemovedCount: -1; ParcelableData: null ]'
p284
sS'MovementGranularity'
p285
g6
sa(dp286
S'EventTime'
p287
S'359379712'
p288
sg4
L1449736948351L
sS'recordCount'
p289
g6
sS'EventType'
p290
S'TYPE_VIEW_CLICKED'
p291
sS'PackageName'
p292
S'com.xdf.ucan'
p293
sS'OutBounds'
p294
S'Rect(15, 38 - 91, 104)'
p295
sS'Action'
p296
S'[ ClassName: android.widget.TextView; Text: [\xe8\xbf\x94\xe5\x9b\x9e]; ContentDescription: null; ItemCount: -1; CurrentItemIndex: -1; IsEnabled: true; IsPassword: false; IsChecked: false; IsFullScreen: false; Scrollable: false; BeforeText: null; FromIndex: -1; ToIndex: -1; ScrollX: -1; ScrollY: -1; MaxScrollX: -1; MaxScrollY: -1; AddedCount: -1; RemovedCount: -1; ParcelableData: null ]'
p297
sS'MovementGranularity'
p298
g6
sa(dp299
S'EventTime'
p300
S'359379801'
p301
sg4
L1449736948454L
sS'recordCount'
p302
g6
sS'EventType'
p303
S'TYPE_WINDOW_STATE_CHANGED'
p304
sS'PackageName'
p305
S'com.xdf.ucan'
p306
sS'OutBounds'
p307
S'Rect(0, 0 - 480, 800)'
p308
sS'Action'
p309
S'[ ClassName: com.xdf.ucan.ui.video.VideoListActivity; Text: [\xe4\xbc\x98\xe6\x92\xad\xe8\xaf\xbe]; ContentDescription: null; ItemCount: -1; CurrentItemIndex: -1; IsEnabled: true; IsPassword: false; IsChecked: false; IsFullScreen: true; Scrollable: false; BeforeText: null; FromIndex: -1; ToIndex: -1; ScrollX: -1; ScrollY: -1; MaxScrollX: -1; MaxScrollY: -1; AddedCount: -1; RemovedCount: -1; ParcelableData: null ]'
p310
sS'MovementGranularity'
p311
g6
sa(dp312
S'EventTime'
p313
S'359381287'
p314
sg4
L1449736949925L
sS'recordCount'
p315
g6
sS'EventType'
p316
S'TYPE_VIEW_CLICKED'
p317
sS'PackageName'
p318
S'com.xdf.ucan'
p319
sS'OutBounds'
p320
S'Rect(15, 38 - 91, 104)'
p321
sS'Action'
p322
S'[ ClassName: android.widget.TextView; Text: [\xe8\xbf\x94\xe5\x9b\x9e]; ContentDescription: null; ItemCount: -1; CurrentItemIndex: -1; IsEnabled: true; IsPassword: false; IsChecked: false; IsFullScreen: false; Scrollable: false; BeforeText: null; FromIndex: -1; ToIndex: -1; ScrollX: -1; ScrollY: -1; MaxScrollX: -1; MaxScrollY: -1; AddedCount: -1; RemovedCount: -1; ParcelableData: null ]'
p323
sS'MovementGranularity'
p324
g6
sa(dp325
S'EventTime'
p326
S'359381694'
p327
sg4
L1449736950371L
sS'recordCount'
p328
g6
sS'EventType'
p329
S'TYPE_WINDOW_STATE_CHANGED'
p330
sS'PackageName'
p331
S'com.xdf.ucan'
p332
sS'OutBounds'
p333
S'Rect(0, 0 - 480, 800)'
p334
sS'Action'
p335
S'[ ClassName: com.xdf.ucan.MainActivity; Text: [\xe4\xbc\x98\xe6\x92\xad\xe8\xaf\xbe]; ContentDescription: null; ItemCount: -1; CurrentItemIndex: -1; IsEnabled: true; IsPassword: false; IsChecked: false; IsFullScreen: true; Scrollable: false; BeforeText: null; FromIndex: -1; ToIndex: -1; ScrollX: -1; ScrollY: -1; MaxScrollX: -1; MaxScrollY: -1; AddedCount: -1; RemovedCount: -1; ParcelableData: null ]'
p336
sS'MovementGranularity'
p337
g6
sa(dp338
S'EventTime'
p339
S'359381699'
p340
sg4
L1449736950403L
sS'recordCount'
p341
g6
sS'EventType'
p342
S'TYPE_WINDOW_CONTENT_CHANGED'
p343
sS'PackageName'
p344
S'com.xdf.ucan'
p345
sS'OutBounds'
p346
S'Rect(0, 0 - 480, 800)'
p347
sS'Action'
p348
S'[ ClassName: android.widget.FrameLayout; Text: []; ContentDescription: null; ItemCount: -1; CurrentItemIndex: -1; IsEnabled: true; IsPassword: false; IsChecked: false; IsFullScreen: false; Scrollable: false; BeforeText: null; FromIndex: -1; ToIndex: -1; ScrollX: -1; ScrollY: -1; MaxScrollX: -1; MaxScrollY: -1; AddedCount: -1; RemovedCount: -1; ParcelableData: null ]'
p349
sS'MovementGranularity'
p350
g6
sa(dp351
S'EventTime'
p352
S'359383992'
p353
sg4
L1449736952631L
sS'recordCount'
p354
g6
sS'EventType'
p355
S'TYPE_VIEW_CLICKED'
p356
sS'PackageName'
p357
S'com.xdf.ucan'
p358
sS'OutBounds'
p359
S'Rect(0, 392 - 480, 488)'
p360
sS'Action'
p361
S'[ ClassName: android.widget.RelativeLayout; Text: [\xe8\xa7\x86\xe9\xa2\x91, \xe6\x8d\xae\xe8\xaf\xb4\xef\xbc\x8c\xe6\x9c\x89\xe4\xba\x86spoc\xe6\x8f\x90\xe5\x88\x86\xe4\xb8\x8d\xe6\x98\xaf\xe9\x97\xae\xe9\xa2\x98]; ContentDescription: null; ItemCount: -1; CurrentItemIndex: -1; IsEnabled: true; IsPassword: false; IsChecked: false; IsFullScreen: false; Scrollable: false; BeforeText: null; FromIndex: -1; ToIndex: -1; ScrollX: -1; ScrollY: -1; MaxScrollX: -1; MaxScrollY: -1; AddedCount: -1; RemovedCount: -1; ParcelableData: null ]'
p362
sS'MovementGranularity'
p363
g6
sa(dp364
S'EventTime'
p365
S'359384409'
p366
sg4
L1449736953103L
sS'recordCount'
p367
g6
sS'EventType'
p368
S'TYPE_WINDOW_STATE_CHANGED'
p369
sS'PackageName'
p370
S'com.xdf.ucan'
p371
sS'OutBounds'
p372
S'Rect(0, 38 - 480, 800)'
p373
sS'Action'
p374
S'[ ClassName: com.xdf.ucan.views.LoadingDialog; Text: []; ContentDescription: null; ItemCount: -1; CurrentItemIndex: -1; IsEnabled: true; IsPassword: false; IsChecked: false; IsFullScreen: false; Scrollable: false; BeforeText: null; FromIndex: -1; ToIndex: -1; ScrollX: -1; ScrollY: -1; MaxScrollX: -1; MaxScrollY: -1; AddedCount: -1; RemovedCount: -1; ParcelableData: null ]'
p375
sS'MovementGranularity'
p376
g6
sa(dp377
S'EventTime'
p378
S'359384410'
p379
sg4
L1449736953246L
sS'recordCount'
p380
g6
sS'EventType'
p381
S'TYPE_WINDOW_CONTENT_CHANGED'
p382
sS'PackageName'
p383
S'com.xdf.ucan'
p384
sS'OutBounds'
p385
S'Rect(0, 38 - 480, 800)'
p386
sS'Action'
p387
S'[ ClassName: android.widget.FrameLayout; Text: []; ContentDescription: null; ItemCount: -1; CurrentItemIndex: -1; IsEnabled: true; IsPassword: false; IsChecked: false; IsFullScreen: false; Scrollable: false; BeforeText: null; FromIndex: -1; ToIndex: -1; ScrollX: -1; ScrollY: -1; MaxScrollX: -1; MaxScrollY: -1; AddedCount: -1; RemovedCount: -1; ParcelableData: null ]'
p388
sS'MovementGranularity'
p389
g6
sa(dp390
S'EventTime'
p391
S'359384566'
p392
sg4
L1449736953261L
sS'recordCount'
p393
g6
sS'EventType'
p394
S'TYPE_WINDOW_CONTENT_CHANGED'
p395
sS'PackageName'
p396
S'com.xdf.ucan'
p397
sS'OutBounds'
p398
S'Rect(0, 38 - 480, 800)'
p399
sS'Action'
p400
S'[ ClassName: android.widget.FrameLayout; Text: []; ContentDescription: null; ItemCount: -1; CurrentItemIndex: -1; IsEnabled: true; IsPassword: false; IsChecked: false; IsFullScreen: false; Scrollable: false; BeforeText: null; FromIndex: -1; ToIndex: -1; ScrollX: -1; ScrollY: -1; MaxScrollX: -1; MaxScrollY: -1; AddedCount: -1; RemovedCount: -1; ParcelableData: null ]'
p401
sS'MovementGranularity'
p402
g6
sa(dp403
S'EventTime'
p404
S'359392359'
p405
sg4
L1449736961110L
sS'recordCount'
p406
g6
sS'EventType'
p407
S'TYPE_WINDOW_STATE_CHANGED'
p408
sS'PackageName'
p409
S'com.xdf.ucan'
p410
sS'OutBounds'
p411
S'Rect(0, 0 - 480, 800)'
p412
sS'Action'
p413
S'[ ClassName: com.xdf.ucan.ui.video.VideoListActivity; Text: [\xe4\xbc\x98\xe6\x92\xad\xe8\xaf\xbe]; ContentDescription: null; ItemCount: -1; CurrentItemIndex: -1; IsEnabled: true; IsPassword: false; IsChecked: false; IsFullScreen: true; Scrollable: false; BeforeText: null; FromIndex: -1; ToIndex: -1; ScrollX: -1; ScrollY: -1; MaxScrollX: -1; MaxScrollY: -1; AddedCount: -1; RemovedCount: -1; ParcelableData: null ]'
p414
sS'MovementGranularity'
p415
g6
sa(dp416
S'EventTime'
p417
S'359392517'
p418
sg4
L1449736961237L
sS'recordCount'
p419
g6
sS'EventType'
p420
S'TYPE_VIEW_SCROLLED'
p421
sS'PackageName'
p422
S'com.xdf.ucan'
p423
sS'OutBounds'
p424
S'Rect(0, 104 - 480, 800)'
p425
sS'Action'
p426
S'[ ClassName: android.widget.ListView; Text: []; ContentDescription: null; ItemCount: 5; CurrentItemIndex: -1; IsEnabled: true; IsPassword: false; IsChecked: false; IsFullScreen: false; Scrollable: false; BeforeText: null; FromIndex: 0; ToIndex: 4; ScrollX: -1; ScrollY: -1; MaxScrollX: -1; MaxScrollY: -1; AddedCount: -1; RemovedCount: -1; ParcelableData: null ]'
p427
sS'MovementGranularity'
p428
g6
sa(dp429
S'EventTime'
p430
S'359392520'
p431
sg4
L1449736961286L
sS'recordCount'
p432
g6
sS'EventType'
p433
S'TYPE_WINDOW_CONTENT_CHANGED'
p434
sS'PackageName'
p435
S'com.xdf.ucan'
p436
sS'OutBounds'
p437
S'Rect(0, 0 - 480, 800)'
p438
sS'Action'
p439
S'[ ClassName: android.widget.FrameLayout; Text: []; ContentDescription: null; ItemCount: -1; CurrentItemIndex: -1; IsEnabled: true; IsPassword: false; IsChecked: false; IsFullScreen: false; Scrollable: false; BeforeText: null; FromIndex: -1; ToIndex: -1; ScrollX: -1; ScrollY: -1; MaxScrollX: -1; MaxScrollY: -1; AddedCount: -1; RemovedCount: -1; ParcelableData: null ]'
p440
sS'MovementGranularity'
p441
g6
sa(dp442
S'EventTime'
p443
S'359392748'
p444
sg4
L1449736961446L
sS'recordCount'
p445
g6
sS'EventType'
p446
S'TYPE_WINDOW_CONTENT_CHANGED'
p447
sS'PackageName'
p448
S'com.xdf.ucan'
p449
sS'OutBounds'
p450
S'Rect(0, 0 - 480, 800)'
p451
sS'Action'
p452
S'[ ClassName: android.widget.FrameLayout; Text: []; ContentDescription: null; ItemCount: -1; CurrentItemIndex: -1; IsEnabled: true; IsPassword: false; IsChecked: false; IsFullScreen: false; Scrollable: false; BeforeText: null; FromIndex: -1; ToIndex: -1; ScrollX: -1; ScrollY: -1; MaxScrollX: -1; MaxScrollY: -1; AddedCount: -1; RemovedCount: -1; ParcelableData: null ]'
p453
sS'MovementGranularity'
p454
g6
sa(dp455
S'EventTime'
p456
S'359392936'
p457
sg4
L1449736961699L
sS'recordCount'
p458
g6
sS'EventType'
p459
S'TYPE_WINDOW_CONTENT_CHANGED'
p460
sS'PackageName'
p461
S'com.xdf.ucan'
p462
sS'OutBounds'
p463
S'Rect(0, 0 - 480, 800)'
p464
sS'Action'
p465
S'[ ClassName: android.widget.FrameLayout; Text: []; ContentDescription: null; ItemCount: -1; CurrentItemIndex: -1; IsEnabled: true; IsPassword: false; IsChecked: false; IsFullScreen: false; Scrollable: false; BeforeText: null; FromIndex: -1; ToIndex: -1; ScrollX: -1; ScrollY: -1; MaxScrollX: -1; MaxScrollY: -1; AddedCount: -1; RemovedCount: -1; ParcelableData: null ]'
p466
sS'MovementGranularity'
p467
g6
sa(dp468
S'EventTime'
p469
S'359393192'
p470
sg4
L1449736961884L
sS'recordCount'
p471
g6
sS'EventType'
p472
S'TYPE_WINDOW_CONTENT_CHANGED'
p473
sS'PackageName'
p474
S'com.xdf.ucan'
p475
sS'OutBounds'
p476
S'Rect(0, 0 - 480, 800)'
p477
sS'Action'
p478
S'[ ClassName: android.widget.FrameLayout; Text: []; ContentDescription: null; ItemCount: -1; CurrentItemIndex: -1; IsEnabled: true; IsPassword: false; IsChecked: false; IsFullScreen: false; Scrollable: false; BeforeText: null; FromIndex: -1; ToIndex: -1; ScrollX: -1; ScrollY: -1; MaxScrollX: -1; MaxScrollY: -1; AddedCount: -1; RemovedCount: -1; ParcelableData: null ]'
p479
sS'MovementGranularity'
p480
g6
sa(dp481
S'EventTime'
p482
S'359396401'
p483
sg4
L1449736965040L
sS'recordCount'
p484
g224
sS'EventType'
p485
S'TYPE_VIEW_CLICKED'
p486
sS'PackageName'
p487
S'com.xdf.ucan'
p488
sS'OutBounds'
p489
S'Rect(15, 203 - 465, 346)'
p490
sS'Action'
p491
S'[ ClassName: android.widget.LinearLayout; Text: [SPOC\xe7\xac\xac\xe4\xba\x8c\xe5\x8d\x81\xe4\xb8\x83\xe8\xae\xb2\xe7\x89\xa9\xe8\xb4\xa8\xe7\x9a\x84\xe9\x89\xb4\xe5\x88\xab\xe2\x80\x94\xe2\x80\x94\xe8\xb0\xad\xe9\xbe\x99, \xe5\x88\x9d\xe5\x8c\x96, \xe5\x88\x9d\xe4\xb8\xad\xe5\x8c\x96\xe5\xad\xa6, \xe3\x80\x90\xe8\xae\xa2\xe9\x98\x85\xe3\x80\x91\xe8\xa7\x82\xe7\x9c\x8b138\xe6\xac\xa1]; ContentDescription: null; ItemCount: -1; CurrentItemIndex: -1; IsEnabled: true; IsPassword: false; IsChecked: false; IsFullScreen: false; Scrollable: false; BeforeText: null; FromIndex: -1; ToIndex: -1; ScrollX: -1; ScrollY: -1; MaxScrollX: -1; MaxScrollY: -1; AddedCount: -1; RemovedCount: -1; ParcelableData: null ]'
p492
sS'MovementGranularity'
p493
g6
sa(dp494
S'EventTime'
p495
S'359397121'
p496
sg4
L1449736966111L
sS'recordCount'
p497
g6
sS'EventType'
p498
S'TYPE_WINDOW_CONTENT_CHANGED'
p499
sS'PackageName'
p500
S'com.xdf.ucan'
p501
sS'OutBounds'
p502
S'Rect(0, 0 - 480, 800)'
p503
sS'Action'
p504
S'[ ClassName: android.widget.FrameLayout; Text: []; ContentDescription: null; ItemCount: -1; CurrentItemIndex: -1; IsEnabled: true; IsPassword: false; IsChecked: false; IsFullScreen: false; Scrollable: false; BeforeText: null; FromIndex: -1; ToIndex: -1; ScrollX: -1; ScrollY: -1; MaxScrollX: -1; MaxScrollY: -1; AddedCount: -1; RemovedCount: -1; ParcelableData: null ]'
p505
sS'MovementGranularity'
p506
g6
sa(dp507
S'EventTime'
p508
S'359397497'
p509
sg4
L1449736966879L
sS'recordCount'
p510
g6
sS'EventType'
p511
S'TYPE_WINDOW_STATE_CHANGED'
p512
sS'PackageName'
p513
S'com.xdf.ucan'
p514
sS'OutBounds'
p515
S'Rect(0, 0 - 480, 800)'
p516
sS'Action'
p517
S'[ ClassName: com.xdf.ucan.ui.video.VideoPlayerActivity; Text: [\xe4\xbc\x98\xe6\x92\xad\xe8\xaf\xbe]; ContentDescription: null; ItemCount: -1; CurrentItemIndex: -1; IsEnabled: true; IsPassword: false; IsChecked: false; IsFullScreen: true; Scrollable: false; BeforeText: null; FromIndex: -1; ToIndex: -1; ScrollX: -1; ScrollY: -1; MaxScrollX: -1; MaxScrollY: -1; AddedCount: -1; RemovedCount: -1; ParcelableData: null ]'
p518
sS'MovementGranularity'
p519
g6
sa(dp520
S'EventTime'
p521
S'359397499'
p522
sg4
L1449736967424L
sS'recordCount'
p523
g6
sS'EventType'
p524
S'TYPE_WINDOW_CONTENT_CHANGED'
p525
sS'PackageName'
p526
S'com.xdf.ucan'
p527
sS'OutBounds'
p528
S'Rect(0, 0 - 480, 800)'
p529
sS'Action'
p530
S'[ ClassName: android.widget.FrameLayout; Text: []; ContentDescription: null; ItemCount: -1; CurrentItemIndex: -1; IsEnabled: true; IsPassword: false; IsChecked: false; IsFullScreen: false; Scrollable: false; BeforeText: null; FromIndex: -1; ToIndex: -1; ScrollX: -1; ScrollY: -1; MaxScrollX: -1; MaxScrollY: -1; AddedCount: -1; RemovedCount: -1; ParcelableData: null ]'
p531
sS'MovementGranularity'
p532
g6
sa(dp533
S'EventTime'
p534
S'359397590'
p535
sg4
L1449736967632L
sS'recordCount'
p536
g6
sS'EventType'
p537
S'TYPE_VIEW_SCROLLED'
p538
sS'PackageName'
p539
S'com.xdf.ucan'
p540
sS'OutBounds'
p541
S'Rect(0, 416 - 480, 722)'
p542
sS'Action'
p543
S'[ ClassName: android.widget.ListView; Text: []; ContentDescription: null; ItemCount: 12; CurrentItemIndex: -1; IsEnabled: true; IsPassword: false; IsChecked: false; IsFullScreen: false; Scrollable: true; BeforeText: null; FromIndex: 0; ToIndex: -1; ScrollX: -1; ScrollY: -1; MaxScrollX: -1; MaxScrollY: -1; AddedCount: -1; RemovedCount: -1; ParcelableData: null ]'
p544
sS'MovementGranularity'
p545
g6
sa(dp546
S'EventTime'
p547
S'359398113'
p548
sg4
L1449736969644L
sS'recordCount'
p549
g6
sS'EventType'
p550
S'TYPE_VIEW_SELECTED'
p551
sS'PackageName'
p552
S'com.xdf.ucan'
p553
sS'Action'
p554
S'[ ClassName: android.widget.SeekBar; Text: []; ContentDescription: null; ItemCount: 100; CurrentItemIndex: 20; IsEnabled: true; IsPassword: false; IsChecked: false; IsFullScreen: false; Scrollable: false; BeforeText: null; FromIndex: -1; ToIndex: -1; ScrollX: -1; ScrollY: -1; MaxScrollX: -1; MaxScrollY: -1; AddedCount: -1; RemovedCount: -1; ParcelableData: null ]'
p555
sS'MovementGranularity'
p556
g6
sa(dp557
S'EventTime'
p558
S'359398433'
p559
sg4
L1449736969743L
sS'recordCount'
p560
g6
sS'EventType'
p561
S'TYPE_VIEW_SCROLLED'
p562
sS'PackageName'
p563
S'com.xdf.ucan'
p564
sS'OutBounds'
p565
S'Rect(0, 416 - 480, 722)'
p566
sS'Action'
p567
S'[ ClassName: android.widget.ListView; Text: []; ContentDescription: null; ItemCount: 12; CurrentItemIndex: -1; IsEnabled: true; IsPassword: false; IsChecked: false; IsFullScreen: false; Scrollable: true; BeforeText: null; FromIndex: 0; ToIndex: 3; ScrollX: -1; ScrollY: -1; MaxScrollX: -1; MaxScrollY: -1; AddedCount: -1; RemovedCount: -1; ParcelableData: null ]'
p568
sS'MovementGranularity'
p569
g6
sa(dp570
S'EventTime'
p571
S'359398434'
p572
sg4
L1449736969842L
sS'recordCount'
p573
g6
sS'EventType'
p574
S'TYPE_WINDOW_CONTENT_CHANGED'
p575
sS'PackageName'
p576
S'com.xdf.ucan'
p577
sS'OutBounds'
p578
S'Rect(0, 0 - 480, 800)'
p579
sS'Action'
p580
S'[ ClassName: android.widget.FrameLayout; Text: []; ContentDescription: null; ItemCount: -1; CurrentItemIndex: -1; IsEnabled: true; IsPassword: false; IsChecked: false; IsFullScreen: false; Scrollable: false; BeforeText: null; FromIndex: -1; ToIndex: -1; ScrollX: -1; ScrollY: -1; MaxScrollX: -1; MaxScrollY: -1; AddedCount: -1; RemovedCount: -1; ParcelableData: null ]'
p581
sS'MovementGranularity'
p582
g6
sa(dp583
S'EventTime'
p584
S'359398980'
p585
sg4
L1449736969898L
sS'recordCount'
p586
g6
sS'EventType'
p587
S'TYPE_WINDOW_CONTENT_CHANGED'
p588
sS'PackageName'
p589
S'com.xdf.ucan'
p590
sS'OutBounds'
p591
S'Rect(0, 0 - 480, 800)'
p592
sS'Action'
p593
S'[ ClassName: android.widget.FrameLayout; Text: []; ContentDescription: null; ItemCount: -1; CurrentItemIndex: -1; IsEnabled: true; IsPassword: false; IsChecked: false; IsFullScreen: false; Scrollable: false; BeforeText: null; FromIndex: -1; ToIndex: -1; ScrollX: -1; ScrollY: -1; MaxScrollX: -1; MaxScrollY: -1; AddedCount: -1; RemovedCount: -1; ParcelableData: null ]'
p594
sS'MovementGranularity'
p595
g6
sa(dp596
S'EventTime'
p597
S'359401121'
p598
sg4
L1449736970005L
sS'recordCount'
p599
g6
sS'EventType'
p600
S'TYPE_WINDOW_CONTENT_CHANGED'
p601
sS'PackageName'
p602
S'com.xdf.ucan'
p603
sS'OutBounds'
p604
S'Rect(0, 0 - 480, 800)'
p605
sS'Action'
p606
S'[ ClassName: android.widget.FrameLayout; Text: []; ContentDescription: null; ItemCount: -1; CurrentItemIndex: -1; IsEnabled: true; IsPassword: false; IsChecked: false; IsFullScreen: false; Scrollable: false; BeforeText: null; FromIndex: -1; ToIndex: -1; ScrollX: -1; ScrollY: -1; MaxScrollX: -1; MaxScrollY: -1; AddedCount: -1; RemovedCount: -1; ParcelableData: null ]'
p607
sS'MovementGranularity'
p608
g6
sa(dp609
S'EventTime'
p610
S'359402198'
p611
sg4
L1449736970946L
sS'recordCount'
p612
g6
sS'EventType'
p613
S'TYPE_WINDOW_CONTENT_CHANGED'
p614
sS'PackageName'
p615
S'com.xdf.ucan'
p616
sS'OutBounds'
p617
S'Rect(0, 0 - 480, 800)'
p618
sS'Action'
p619
S'[ ClassName: android.widget.FrameLayout; Text: []; ContentDescription: null; ItemCount: -1; CurrentItemIndex: -1; IsEnabled: true; IsPassword: false; IsChecked: false; IsFullScreen: false; Scrollable: false; BeforeText: null; FromIndex: -1; ToIndex: -1; ScrollX: -1; ScrollY: -1; MaxScrollX: -1; MaxScrollY: -1; AddedCount: -1; RemovedCount: -1; ParcelableData: null ]'
p620
sS'MovementGranularity'
p621
g6
sa(dp622
S'EventTime'
p623
S'359403855'
p624
sg4
L1449736972494L
sS'recordCount'
p625
g6
sS'EventType'
p626
S'TYPE_VIEW_CLICKED'
p627
sS'PackageName'
p628
S'com.xdf.ucan'
p629
sS'OutBounds'
p630
S'Rect(0, 723 - 239, 799)'
p631
sS'Action'
p632
S'[ ClassName: android.widget.LinearLayout; Text: [\xe8\xaf\x84\xe8\xae\xba]; ContentDescription: null; ItemCount: -1; CurrentItemIndex: -1; IsEnabled: true; IsPassword: false; IsChecked: false; IsFullScreen: false; Scrollable: false; BeforeText: null; FromIndex: -1; ToIndex: -1; ScrollX: -1; ScrollY: -1; MaxScrollX: -1; MaxScrollY: -1; AddedCount: -1; RemovedCount: -1; ParcelableData: null ]'
p633
sS'MovementGranularity'
p634
g6
sa(dp635
S'EventTime'
p636
S'359403880'
p637
sg4
L1449736972589L
sS'recordCount'
p638
g6
sS'EventType'
p639
S'TYPE_VIEW_FOCUSED'
p640
sS'PackageName'
p641
S'com.xdf.ucan'
p642
sS'OutBounds'
p643
S'Rect(23, 740 - 382, 777)'
p644
sS'Action'
p645
S'[ ClassName: android.widget.EditText; Text: []; ContentDescription: null; ItemCount: 3; CurrentItemIndex: 2; IsEnabled: true; IsPassword: false; IsChecked: false; IsFullScreen: false; Scrollable: false; BeforeText: null; FromIndex: -1; ToIndex: -1; ScrollX: -1; ScrollY: -1; MaxScrollX: -1; MaxScrollY: -1; AddedCount: -1; RemovedCount: -1; ParcelableData: null ]'
p646
sS'MovementGranularity'
p647
g6
sa(dp648
S'EventTime'
p649
S'359404023'
p650
sg4
L1449736973007L
sS'recordCount'
p651
g6
sS'EventType'
p652
S'TYPE_WINDOW_CONTENT_CHANGED'
p653
sS'PackageName'
p654
S'com.xdf.ucan'
p655
sS'OutBounds'
p656
S'Rect(0, 0 - 480, 800)'
p657
sS'Action'
p658
S'[ ClassName: android.widget.FrameLayout; Text: []; ContentDescription: null; ItemCount: -1; CurrentItemIndex: -1; IsEnabled: true; IsPassword: false; IsChecked: false; IsFullScreen: false; Scrollable: false; BeforeText: null; FromIndex: -1; ToIndex: -1; ScrollX: -1; ScrollY: -1; MaxScrollX: -1; MaxScrollY: -1; AddedCount: -1; RemovedCount: -1; ParcelableData: null ]'
p659
sS'MovementGranularity'
p660
g6
sa(dp661
S'EventTime'
p662
S'359404477'
p663
sg4
L1449736973191L
sS'recordCount'
p664
g6
sS'EventType'
p665
S'TYPE_WINDOW_CONTENT_CHANGED'
p666
sS'PackageName'
p667
S'com.xdf.ucan'
p668
sS'OutBounds'
p669
S'Rect(0, 0 - 480, 800)'
p670
sS'Action'
p671
S'[ ClassName: android.widget.FrameLayout; Text: []; ContentDescription: null; ItemCount: -1; CurrentItemIndex: -1; IsEnabled: true; IsPassword: false; IsChecked: false; IsFullScreen: false; Scrollable: false; BeforeText: null; FromIndex: -1; ToIndex: -1; ScrollX: -1; ScrollY: -1; MaxScrollX: -1; MaxScrollY: -1; AddedCount: -1; RemovedCount: -1; ParcelableData: null ]'
p672
sS'MovementGranularity'
p673
g6
sa(dp674
S'EventTime'
p675
S'359410039'
p676
sg4
L1449736978703L
sS'recordCount'
p677
g6
sS'EventType'
p678
S'TYPE_VIEW_FOCUSED'
p679
sS'PackageName'
p680
S'com.xdf.ucan'
p681
sS'OutBounds'
p682
S'Rect(0, 104 - 480, 416)'
p683
sS'Action'
p684
S'[ ClassName: com.xdf.ucan.views.VideoView; Text: []; ContentDescription: null; ItemCount: 2; CurrentItemIndex: 0; IsEnabled: true; IsPassword: false; IsChecked: false; IsFullScreen: false; Scrollable: false; BeforeText: null; FromIndex: -1; ToIndex: -1; ScrollX: -1; ScrollY: -1; MaxScrollX: -1; MaxScrollY: -1; AddedCount: -1; RemovedCount: -1; ParcelableData: null ]'
p685
sS'MovementGranularity'
p686
g6
sa(dp687
S'EventTime'
p688
S'359410109'
p689
sg4
L1449736978748L
sS'recordCount'
p690
g224
sS'EventType'
p691
S'TYPE_VIEW_CLICKED'
p692
sS'PackageName'
p693
S'com.xdf.ucan'
p694
sS'OutBounds'
p695
S'Rect(366, 417 - 415, 466)'
p696
sS'Action'
p697
S'[ ClassName: android.widget.LinearLayout; Text: []; ContentDescription: null; ItemCount: -1; CurrentItemIndex: -1; IsEnabled: true; IsPassword: false; IsChecked: false; IsFullScreen: false; Scrollable: false; BeforeText: null; FromIndex: -1; ToIndex: -1; ScrollX: -1; ScrollY: -1; MaxScrollX: -1; MaxScrollY: -1; AddedCount: -1; RemovedCount: -1; ParcelableData: null ]'
p698
sS'MovementGranularity'
p699
g6
sa(dp700
S'EventTime'
p701
S'359410162'
p702
sg4
L1449736979041L
sS'recordCount'
p703
g6
sS'EventType'
p704
S'TYPE_WINDOW_CONTENT_CHANGED'
p705
sS'PackageName'
p706
S'com.xdf.ucan'
p707
sS'OutBounds'
p708
S'Rect(0, 0 - 480, 800)'
p709
sS'Action'
p710
S'[ ClassName: android.widget.FrameLayout; Text: []; ContentDescription: null; ItemCount: -1; CurrentItemIndex: -1; IsEnabled: true; IsPassword: false; IsChecked: false; IsFullScreen: false; Scrollable: false; BeforeText: null; FromIndex: -1; ToIndex: -1; ScrollX: -1; ScrollY: -1; MaxScrollX: -1; MaxScrollY: -1; AddedCount: -1; RemovedCount: -1; ParcelableData: null ]'
p711
sS'MovementGranularity'
p712
g6
sa(dp713
S'EventTime'
p714
S'359410848'
p715
sg4
L1449736979569L
sS'recordCount'
p716
g6
sS'EventType'
p717
S'TYPE_WINDOW_CONTENT_CHANGED'
p718
sS'PackageName'
p719
S'com.xdf.ucan'
p720
sS'OutBounds'
p721
S'Rect(0, 0 - 480, 800)'
p722
sS'Action'
p723
S'[ ClassName: android.widget.FrameLayout; Text: []; ContentDescription: null; ItemCount: -1; CurrentItemIndex: -1; IsEnabled: true; IsPassword: false; IsChecked: false; IsFullScreen: false; Scrollable: false; BeforeText: null; FromIndex: -1; ToIndex: -1; ScrollX: -1; ScrollY: -1; MaxScrollX: -1; MaxScrollY: -1; AddedCount: -1; RemovedCount: -1; ParcelableData: null ]'
p724
sS'MovementGranularity'
p725
g6
sa(dp726
S'EventTime'
p727
S'359411159'
p728
sg4
L1449736979797L
sS'recordCount'
p729
g6
sS'EventType'
p730
S'TYPE_VIEW_CLICKED'
p731
sS'PackageName'
p732
S'com.xdf.ucan'
p733
sS'OutBounds'
p734
S'Rect(433, 38 - 465, 104)'
p735
sS'Action'
p736
S'[ ClassName: android.widget.TextView; Text: []; ContentDescription: null; ItemCount: -1; CurrentItemIndex: -1; IsEnabled: true; IsPassword: false; IsChecked: false; IsFullScreen: false; Scrollable: false; BeforeText: null; FromIndex: -1; ToIndex: -1; ScrollX: -1; ScrollY: -1; MaxScrollX: -1; MaxScrollY: -1; AddedCount: -1; RemovedCount: -1; ParcelableData: null ]'
p737
sS'MovementGranularity'
p738
g6
sa(dp739
S'EventTime'
p740
S'359411247'
p741
sg4
L1449736979931L
sS'recordCount'
p742
g6
sS'EventType'
p743
S'TYPE_WINDOW_STATE_CHANGED'
p744
sS'PackageName'
p745
S'com.xdf.ucan'
p746
sS'OutBounds'
p747
S'Rect(0, 38 - 480, 800)'
p748
sS'Action'
p749
S'[ ClassName: com.xdf.ucan.views.LoadingDialog; Text: []; ContentDescription: null; ItemCount: -1; CurrentItemIndex: -1; IsEnabled: true; IsPassword: false; IsChecked: false; IsFullScreen: false; Scrollable: false; BeforeText: null; FromIndex: -1; ToIndex: -1; ScrollX: -1; ScrollY: -1; MaxScrollX: -1; MaxScrollY: -1; AddedCount: -1; RemovedCount: -1; ParcelableData: null ]'
p750
sS'MovementGranularity'
p751
g6
sa(dp752
S'EventTime'
p753
S'359411304'
p754
sg4
L1449736981043L
sS'recordCount'
p755
g6
sS'EventType'
p756
S'TYPE_WINDOW_CONTENT_CHANGED'
p757
sS'PackageName'
p758
S'com.xdf.ucan'
p759
sS'Action'
p760
S'[ ClassName: android.widget.FrameLayout; Text: []; ContentDescription: null; ItemCount: -1; CurrentItemIndex: -1; IsEnabled: true; IsPassword: false; IsChecked: false; IsFullScreen: false; Scrollable: false; BeforeText: null; FromIndex: -1; ToIndex: -1; ScrollX: -1; ScrollY: -1; MaxScrollX: -1; MaxScrollY: -1; AddedCount: -1; RemovedCount: -1; ParcelableData: null ]'
p761
sS'MovementGranularity'
p762
g6
sa(dp763
S'EventTime'
p764
S'359412667'
p765
sg4
L1449736982005L
sS'recordCount'
p766
g6
sS'EventType'
p767
S'TYPE_WINDOW_STATE_CHANGED'
p768
sS'PackageName'
p769
S'com.xdf.ucan'
p770
sS'OutBounds'
p771
S'Rect(0, 0 - 480, 800)'
p772
sS'Action'
p773
S'[ ClassName: com.xdf.ucan.ui.video.VideoPlayerActivity; Text: [\xe4\xbc\x98\xe6\x92\xad\xe8\xaf\xbe]; ContentDescription: null; ItemCount: -1; CurrentItemIndex: -1; IsEnabled: true; IsPassword: false; IsChecked: false; IsFullScreen: true; Scrollable: false; BeforeText: null; FromIndex: -1; ToIndex: -1; ScrollX: -1; ScrollY: -1; MaxScrollX: -1; MaxScrollY: -1; AddedCount: -1; RemovedCount: -1; ParcelableData: null ]'
p774
sS'MovementGranularity'
p775
g6
sa(dp776
S'EventTime'
p777
S'359413818'
p778
sg4
L1449736982471L
sS'recordCount'
p779
g6
sS'EventType'
p780
S'TYPE_WINDOW_STATE_CHANGED'
p781
sS'PackageName'
p782
S'com.xdf.ucan'
p783
sS'OutBounds'
p784
S'Rect(0, 0 - 480, 800)'
p785
sS'Action'
p786
S'[ ClassName: com.mob.tools.MobUIShell; Text: [\xe4\xbc\x98\xe6\x92\xad\xe8\xaf\xbe]; ContentDescription: null; ItemCount: -1; CurrentItemIndex: -1; IsEnabled: true; IsPassword: false; IsChecked: false; IsFullScreen: true; Scrollable: false; BeforeText: null; FromIndex: -1; ToIndex: -1; ScrollX: -1; ScrollY: -1; MaxScrollX: -1; MaxScrollY: -1; AddedCount: -1; RemovedCount: -1; ParcelableData: null ]'
p787
sS'MovementGranularity'
p788
g6
sa(dp789
S'EventTime'
p790
S'359413973'
p791
sg4
L1449736982694L
sS'recordCount'
p792
g6
sS'EventType'
p793
S'TYPE_WINDOW_CONTENT_CHANGED'
p794
sS'PackageName'
p795
S'com.xdf.ucan'
p796
sS'OutBounds'
p797
S'Rect(0, 0 - 480, 800)'
p798
sS'Action'
p799
S'[ ClassName: android.widget.FrameLayout; Text: []; ContentDescription: null; ItemCount: -1; CurrentItemIndex: -1; IsEnabled: true; IsPassword: false; IsChecked: false; IsFullScreen: false; Scrollable: false; BeforeText: null; FromIndex: -1; ToIndex: -1; ScrollX: -1; ScrollY: -1; MaxScrollX: -1; MaxScrollY: -1; AddedCount: -1; RemovedCount: -1; ParcelableData: null ]'
p800
sS'MovementGranularity'
p801
g6
sa(dp802
S'EventTime'
p803
S'359417031'
p804
sg4
L1449736985671L
sS'recordCount'
p805
g6
sS'EventType'
p806
S'TYPE_VIEW_CLICKED'
p807
sS'PackageName'
p808
S'com.xdf.ucan'
p809
sS'OutBounds'
p810
S'Rect(15, 717 - 465, 785)'
p811
sS'Action'
p812
S'[ ClassName: android.widget.Button; Text: [\xe5\x8f\x96\xe6\xb6\x88]; ContentDescription: null; ItemCount: -1; CurrentItemIndex: -1; IsEnabled: true; IsPassword: false; IsChecked: false; IsFullScreen: false; Scrollable: false; BeforeText: null; FromIndex: -1; ToIndex: -1; ScrollX: -1; ScrollY: -1; MaxScrollX: -1; MaxScrollY: -1; AddedCount: -1; RemovedCount: -1; ParcelableData: null ]'
p813
sS'MovementGranularity'
p814
g6
sa(dp815
S'EventTime'
p816
S'359417682'
p817
sg4
L1449736986321L
sS'recordCount'
p818
g6
sS'EventType'
p819
S'TYPE_WINDOW_CONTENT_CHANGED'
p820
sS'PackageName'
p821
S'com.xdf.ucan'
p822
sS'Action'
p823
S'[ ClassName: android.widget.FrameLayout; Text: []; ContentDescription: null; ItemCount: -1; CurrentItemIndex: -1; IsEnabled: true; IsPassword: false; IsChecked: false; IsFullScreen: false; Scrollable: false; BeforeText: null; FromIndex: -1; ToIndex: -1; ScrollX: -1; ScrollY: -1; MaxScrollX: -1; MaxScrollY: -1; AddedCount: -1; RemovedCount: -1; ParcelableData: null ]'
p824
sS'MovementGranularity'
p825
g6
sa(dp826
S'EventTime'
p827
S'359417729'
p828
sg4
L1449736986508L
sS'recordCount'
p829
g6
sS'EventType'
p830
S'TYPE_WINDOW_STATE_CHANGED'
p831
sS'PackageName'
p832
S'com.xdf.ucan'
p833
sS'OutBounds'
p834
S'Rect(0, 0 - 480, 800)'
p835
sS'Action'
p836
S'[ ClassName: com.xdf.ucan.ui.video.VideoPlayerActivity; Text: [\xe4\xbc\x98\xe6\x92\xad\xe8\xaf\xbe]; ContentDescription: null; ItemCount: -1; CurrentItemIndex: -1; IsEnabled: true; IsPassword: false; IsChecked: false; IsFullScreen: true; Scrollable: false; BeforeText: null; FromIndex: -1; ToIndex: -1; ScrollX: -1; ScrollY: -1; MaxScrollX: -1; MaxScrollY: -1; AddedCount: -1; RemovedCount: -1; ParcelableData: null ]'
p837
sS'MovementGranularity'
p838
g6
sa(dp839
S'EventTime'
p840
S'359418547'
p841
sg4
L1449736987304L
sS'recordCount'
p842
g6
sS'EventType'
p843
S'TYPE_WINDOW_STATE_CHANGED'
p844
sS'PackageName'
p845
S'com.xdf.ucan'
p846
sS'OutBounds'
p847
S'Rect(0, 0 - 480, 800)'
p848
sS'Action'
p849
S'[ ClassName: com.xdf.ucan.ui.video.VideoListActivity; Text: [\xe4\xbc\x98\xe6\x92\xad\xe8\xaf\xbe]; ContentDescription: null; ItemCount: -1; CurrentItemIndex: -1; IsEnabled: true; IsPassword: false; IsChecked: false; IsFullScreen: true; Scrollable: false; BeforeText: null; FromIndex: -1; ToIndex: -1; ScrollX: -1; ScrollY: -1; MaxScrollX: -1; MaxScrollY: -1; AddedCount: -1; RemovedCount: -1; ParcelableData: null ]'
p850
sS'MovementGranularity'
p851
g6
sa(dp852
S'EventTime'
p853
S'359418549'
p854
sg4
L1449736987353L
sS'recordCount'
p855
g6
sS'EventType'
p856
S'TYPE_WINDOW_CONTENT_CHANGED'
p857
sS'PackageName'
p858
S'com.xdf.ucan'
p859
sS'OutBounds'
p860
S'Rect(0, 0 - 480, 800)'
p861
sS'Action'
p862
S'[ ClassName: android.widget.FrameLayout; Text: []; ContentDescription: null; ItemCount: -1; CurrentItemIndex: -1; IsEnabled: true; IsPassword: false; IsChecked: false; IsFullScreen: false; Scrollable: false; BeforeText: null; FromIndex: -1; ToIndex: -1; ScrollX: -1; ScrollY: -1; MaxScrollX: -1; MaxScrollY: -1; AddedCount: -1; RemovedCount: -1; ParcelableData: null ]'
p863
sS'MovementGranularity'
p864
g6
sa(dp865
S'EventTime'
p866
S'359418771'
p867
sg4
L1449736987461L
sS'recordCount'
p868
g6
sS'EventType'
p869
S'TYPE_WINDOW_CONTENT_CHANGED'
p870
sS'PackageName'
p871
S'com.xdf.ucan'
p872
sS'OutBounds'
p873
S'Rect(0, 0 - 480, 800)'
p874
sS'Action'
p875
S'[ ClassName: android.widget.FrameLayout; Text: []; ContentDescription: null; ItemCount: -1; CurrentItemIndex: -1; IsEnabled: true; IsPassword: false; IsChecked: false; IsFullScreen: false; Scrollable: false; BeforeText: null; FromIndex: -1; ToIndex: -1; ScrollX: -1; ScrollY: -1; MaxScrollX: -1; MaxScrollY: -1; AddedCount: -1; RemovedCount: -1; ParcelableData: null ]'
p876
sS'MovementGranularity'
p877
g6
sa(dp878
S'EventTime'
p879
S'359420534'
p880
sg4
L1449736989173L
sS'recordCount'
p881
g224
sS'EventType'
p882
S'TYPE_VIEW_CLICKED'
p883
sS'PackageName'
p884
S'com.xdf.ucan'
p885
sS'OutBounds'
p886
S'Rect(240, 347 - 464, 424)'
p887
sS'Action'
p888
S'[ ClassName: android.widget.LinearLayout; Text: [16]; ContentDescription: null; ItemCount: -1; CurrentItemIndex: -1; IsEnabled: true; IsPassword: false; IsChecked: false; IsFullScreen: false; Scrollable: false; BeforeText: null; FromIndex: -1; ToIndex: -1; ScrollX: -1; ScrollY: -1; MaxScrollX: -1; MaxScrollY: -1; AddedCount: -1; RemovedCount: -1; ParcelableData: null ]'
p889
sS'MovementGranularity'
p890
g6
sa(dp891
S'EventTime'
p892
S'359420792'
p893
sg4
L1449736989533L
sS'recordCount'
p894
g6
sS'EventType'
p895
S'TYPE_WINDOW_CONTENT_CHANGED'
p896
sS'PackageName'
p897
S'com.xdf.ucan'
p898
sS'OutBounds'
p899
S'Rect(0, 0 - 480, 800)'
p900
sS'Action'
p901
S'[ ClassName: android.widget.FrameLayout; Text: []; ContentDescription: null; ItemCount: -1; CurrentItemIndex: -1; IsEnabled: true; IsPassword: false; IsChecked: false; IsFullScreen: false; Scrollable: false; BeforeText: null; FromIndex: -1; ToIndex: -1; ScrollX: -1; ScrollY: -1; MaxScrollX: -1; MaxScrollY: -1; AddedCount: -1; RemovedCount: -1; ParcelableData: null ]'
p902
sS'MovementGranularity'
p903
g6
sa(dp904
S'EventTime'
p905
S'359423724'
p906
sg4
L1449736992459L
sS'recordCount'
p907
g6
sS'EventType'
p908
S'TYPE_WINDOW_STATE_CHANGED'
p909
sS'PackageName'
p910
S'com.xdf.ucan'
p911
sS'OutBounds'
p912
S'Rect(0, 0 - 480, 800)'
p913
sS'Action'
p914
S'[ ClassName: com.xdf.ucan.MainActivity; Text: [\xe4\xbc\x98\xe6\x92\xad\xe8\xaf\xbe]; ContentDescription: null; ItemCount: -1; CurrentItemIndex: -1; IsEnabled: true; IsPassword: false; IsChecked: false; IsFullScreen: true; Scrollable: false; BeforeText: null; FromIndex: -1; ToIndex: -1; ScrollX: -1; ScrollY: -1; MaxScrollX: -1; MaxScrollY: -1; AddedCount: -1; RemovedCount: -1; ParcelableData: null ]'
p915
sS'MovementGranularity'
p916
g6
sa(dp917
S'EventTime'
p918
S'359423758'
p919
sg4
L1449736992570L
sS'recordCount'
p920
g6
sS'EventType'
p921
S'TYPE_WINDOW_CONTENT_CHANGED'
p922
sS'PackageName'
p923
S'com.xdf.ucan'
p924
sS'OutBounds'
p925
S'Rect(0, 0 - 480, 800)'
p926
sS'Action'
p927
S'[ ClassName: android.widget.FrameLayout; Text: []; ContentDescription: null; ItemCount: -1; CurrentItemIndex: -1; IsEnabled: true; IsPassword: false; IsChecked: false; IsFullScreen: false; Scrollable: false; BeforeText: null; FromIndex: -1; ToIndex: -1; ScrollX: -1; ScrollY: -1; MaxScrollX: -1; MaxScrollY: -1; AddedCount: -1; RemovedCount: -1; ParcelableData: null ]'
p928
sS'MovementGranularity'
p929
g6
sa.