(lp0
(dp1
S'EventTime'
p2
S'60566054'
p3
sS'SyscTime'
p4
L1449907712761L
sS'recordCount'
p5
S'0'
p6
sS'EventType'
p7
S'TYPE_WINDOW_STATE_CHANGED'
p8
sS'PackageName'
p9
S'com.netease.cloudmusic'
p10
sS'OutBounds'
p11
S'Rect(0, 0 - 720, 1280)'
p12
sS'Action'
p13
S'[ ClassName: com.netease.cloudmusic.activity.LoadingActivity; Text: [\xe7\xbd\x91\xe6\x98\x93\xe4\xba\x91\xe9\x9f\xb3\xe4\xb9\x90]; ContentDescription: null; ItemCount: -1; CurrentItemIndex: -1; IsEnabled: true; IsPassword: false; IsChecked: false; IsFullScreen: true; Scrollable: false; BeforeText: null; FromIndex: -1; ToIndex: -1; ScrollX: -1; ScrollY: -1; MaxScrollX: -1; MaxScrollY: -1; AddedCount: -1; RemovedCount: -1; ParcelableData: null ]'
p14
sS'MovementGranularity'
p15
g6
sa(dp16
S'EventTime'
p17
S'60566054'
p18
sg4
L1449907712767L
sS'recordCount'
p19
g6
sS'EventType'
p20
S'TYPE_WINDOW_CONTENT_CHANGED'
p21
sS'PackageName'
p22
S'com.netease.cloudmusic'
p23
sS'OutBounds'
p24
S'Rect(0, 0 - 720, 1280)'
p25
sS'Action'
p26
S'[ ClassName: android.widget.FrameLayout; Text: []; ContentDescription: null; ItemCount: -1; CurrentItemIndex: -1; IsEnabled: true; IsPassword: false; IsChecked: false; IsFullScreen: false; Scrollable: false; BeforeText: null; FromIndex: -1; ToIndex: -1; ScrollX: -1; ScrollY: -1; MaxScrollX: -1; MaxScrollY: -1; AddedCount: -1; RemovedCount: -1; ParcelableData: null ]'
p27
sS'MovementGranularity'
p28
g6
sa(dp29
S'EventTime'
p30
S'60566157'
p31
sg4
L1449907712862L
sS'recordCount'
p32
g6
sS'EventType'
p33
S'TYPE_WINDOW_CONTENT_CHANGED'
p34
sS'PackageName'
p35
S'com.netease.cloudmusic'
p36
sS'OutBounds'
p37
S'Rect(0, 0 - 720, 1280)'
p38
sS'Action'
p39
S'[ ClassName: android.widget.FrameLayout; Text: []; ContentDescription: null; ItemCount: -1; CurrentItemIndex: -1; IsEnabled: true; IsPassword: false; IsChecked: false; IsFullScreen: false; Scrollable: false; BeforeText: null; FromIndex: -1; ToIndex: -1; ScrollX: -1; ScrollY: -1; MaxScrollX: -1; MaxScrollY: -1; AddedCount: -1; RemovedCount: -1; ParcelableData: null ]'
p40
sS'MovementGranularity'
p41
g6
sa(dp42
S'EventTime'
p43
S'60572382'
p44
sg4
L1449907720222L
sS'recordCount'
p45
g6
sS'EventType'
p46
S'TYPE_WINDOW_STATE_CHANGED'
p47
sS'PackageName'
p48
S'com.netease.cloudmusic'
p49
sS'OutBounds'
p50
S'Rect(0, 0 - 720, 1280)'
p51
sS'Action'
p52
S'[ ClassName: com.netease.cloudmusic.activity.MainActivity; Text: [\xe7\xbd\x91\xe6\x98\x93\xe4\xba\x91\xe9\x9f\xb3\xe4\xb9\x90]; ContentDescription: null; ItemCount: -1; CurrentItemIndex: -1; IsEnabled: true; IsPassword: false; IsChecked: false; IsFullScreen: true; Scrollable: false; BeforeText: null; FromIndex: -1; ToIndex: -1; ScrollX: -1; ScrollY: -1; MaxScrollX: -1; MaxScrollY: -1; AddedCount: -1; RemovedCount: -1; ParcelableData: null ]'
p53
sS'MovementGranularity'
p54
g6
sa(dp55
S'EventTime'
p56
S'60572434'
p57
sg4
L1449907720525L
sS'recordCount'
p58
g6
sS'EventType'
p59
S'TYPE_VIEW_SCROLLED'
p60
sS'PackageName'
p61
S'com.netease.cloudmusic'
p62
sS'OutBounds'
p63
S'Rect(2880, 242 - 3600, 1280)'
p64
sS'Action'
p65
S'[ ClassName: android.widget.ListView; Text: []; ContentDescription: null; ItemCount: 3; CurrentItemIndex: -1; IsEnabled: true; IsPassword: false; IsChecked: false; IsFullScreen: false; Scrollable: false; BeforeText: null; FromIndex: 0; ToIndex: 2; ScrollX: -1; ScrollY: -1; MaxScrollX: -1; MaxScrollY: -1; AddedCount: -1; RemovedCount: -1; ParcelableData: null ]'
p66
sS'MovementGranularity'
p67
g6
sa(dp68
S'EventTime'
p69
S'60572495'
p70
sg4
L1449907720628L
sS'recordCount'
p71
S'1'
p72
sS'EventType'
p73
S'TYPE_VIEW_SELECTED'
p74
sS'PackageName'
p75
S'com.netease.cloudmusic'
p76
sS'OutBounds'
p77
S'Rect(0, 242 - 720, 508)'
p78
sS'Action'
p79
S'[ ClassName: android.widget.Gallery; Text: []; ContentDescription: null; ItemCount: 2147483647; CurrentItemIndex: 300; IsEnabled: true; IsPassword: false; IsChecked: false; IsFullScreen: false; Scrollable: true; BeforeText: null; FromIndex: 0; ToIndex: -1; ScrollX: -1; ScrollY: -1; MaxScrollX: -1; MaxScrollY: -1; AddedCount: -1; RemovedCount: -1; ParcelableData: null ]'
p80
sS'MovementGranularity'
p81
g6
sa(dp82
S'EventTime'
p83
S'60573544'
p84
sg4
L1449907721515L
sS'recordCount'
p85
g6
sS'EventType'
p86
S'TYPE_WINDOW_CONTENT_CHANGED'
p87
sS'PackageName'
p88
S'com.netease.cloudmusic'
p89
sS'OutBounds'
p90
S'Rect(0, 0 - 720, 1280)'
p91
sS'Action'
p92
S'[ ClassName: android.widget.FrameLayout; Text: []; ContentDescription: null; ItemCount: -1; CurrentItemIndex: -1; IsEnabled: true; IsPassword: false; IsChecked: false; IsFullScreen: false; Scrollable: false; BeforeText: null; FromIndex: -1; ToIndex: -1; ScrollX: -1; ScrollY: -1; MaxScrollX: -1; MaxScrollY: -1; AddedCount: -1; RemovedCount: -1; ParcelableData: null ]'
p93
sS'MovementGranularity'
p94
g6
sa(dp95
S'EventTime'
p96
S'60573619'
p97
sg4
L1449907721562L
sS'recordCount'
p98
g72
sS'EventType'
p99
S'TYPE_VIEW_SELECTED'
p100
sS'PackageName'
p101
S'com.netease.cloudmusic'
p102
sS'OutBounds'
p103
S'Rect(0, 242 - 720, 508)'
p104
sS'Action'
p105
S'[ ClassName: android.widget.Gallery; Text: [\xe4\xb8\x93\xe9\xa2\x98]; ContentDescription: null; ItemCount: 2147483647; CurrentItemIndex: 300; IsEnabled: true; IsPassword: false; IsChecked: false; IsFullScreen: false; Scrollable: true; BeforeText: null; FromIndex: 300; ToIndex: 300; ScrollX: -1; ScrollY: -1; MaxScrollX: -1; MaxScrollY: -1; AddedCount: -1; RemovedCount: -1; ParcelableData: null ]'
p106
sS'MovementGranularity'
p107
g6
sa(dp108
S'EventTime'
p109
S'60574025'
p110
sg4
L1449907721610L
sS'recordCount'
p111
g6
sS'EventType'
p112
S'TYPE_WINDOW_CONTENT_CHANGED'
p113
sS'PackageName'
p114
S'com.netease.cloudmusic'
p115
sS'OutBounds'
p116
S'Rect(0, 0 - 720, 1280)'
p117
sS'Action'
p118
S'[ ClassName: android.widget.FrameLayout; Text: []; ContentDescription: null; ItemCount: -1; CurrentItemIndex: -1; IsEnabled: true; IsPassword: false; IsChecked: false; IsFullScreen: false; Scrollable: false; BeforeText: null; FromIndex: -1; ToIndex: -1; ScrollX: -1; ScrollY: -1; MaxScrollX: -1; MaxScrollY: -1; AddedCount: -1; RemovedCount: -1; ParcelableData: null ]'
p119
sS'MovementGranularity'
p120
g6
sa(dp121
S'EventTime'
p122
S'60576045'
p123
sg4
L1449907722782L
sS'recordCount'
p124
g72
sS'EventType'
p125
S'TYPE_VIEW_SELECTED'
p126
sS'PackageName'
p127
S'com.netease.cloudmusic'
p128
sS'OutBounds'
p129
S'Rect(0, 242 - 720, 508)'
p130
sS'Action'
p131
S'[ ClassName: android.widget.Gallery; Text: [\xe6\x96\xb0\xe7\xa2\x9f\xe9\xa6\x96\xe5\x8f\x91]; ContentDescription: null; ItemCount: 2147483647; CurrentItemIndex: 301; IsEnabled: true; IsPassword: false; IsChecked: false; IsFullScreen: false; Scrollable: true; BeforeText: null; FromIndex: 300; ToIndex: 301; ScrollX: -1; ScrollY: -1; MaxScrollX: -1; MaxScrollY: -1; AddedCount: -1; RemovedCount: -1; ParcelableData: null ]'
p132
sS'MovementGranularity'
p133
g6
sa(dp134
S'EventTime'
p135
S'60576074'
p136
sg4
L1449907722823L
sS'recordCount'
p137
g72
sS'EventType'
p138
S'TYPE_VIEW_SCROLLED'
p139
sS'PackageName'
p140
S'com.netease.cloudmusic'
p141
sS'OutBounds'
p142
S'Rect(0, 242 - 720, 508)'
p143
sS'Action'
p144
S'[ ClassName: android.widget.Gallery; Text: []; ContentDescription: null; ItemCount: 2147483647; CurrentItemIndex: 301; IsEnabled: true; IsPassword: false; IsChecked: false; IsFullScreen: false; Scrollable: true; BeforeText: null; FromIndex: 300; ToIndex: 301; ScrollX: -1; ScrollY: -1; MaxScrollX: -1; MaxScrollY: -1; AddedCount: -1; RemovedCount: -1; ParcelableData: null ]'
p145
sS'MovementGranularity'
p146
g6
sa(dp147
S'EventTime'
p148
S'60576221'
p149
sg4
L1449907723164L
sS'recordCount'
p150
g72
sS'EventType'
p151
S'TYPE_VIEW_SCROLLED'
p152
sS'PackageName'
p153
S'com.netease.cloudmusic'
p154
sS'OutBounds'
p155
S'Rect(0, 242 - 720, 508)'
p156
sS'Action'
p157
S'[ ClassName: android.widget.Gallery; Text: []; ContentDescription: null; ItemCount: 2147483647; CurrentItemIndex: 301; IsEnabled: true; IsPassword: false; IsChecked: false; IsFullScreen: false; Scrollable: true; BeforeText: null; FromIndex: 300; ToIndex: 301; ScrollX: -1; ScrollY: -1; MaxScrollX: -1; MaxScrollY: -1; AddedCount: -1; RemovedCount: -1; ParcelableData: null ]'
p158
sS'MovementGranularity'
p159
g6
sa(dp160
S'EventTime'
p161
S'60576563'
p162
sg4
L1449907723279L
sS'recordCount'
p163
g72
sS'EventType'
p164
S'TYPE_VIEW_SCROLLED'
p165
sS'PackageName'
p166
S'com.netease.cloudmusic'
p167
sS'OutBounds'
p168
S'Rect(0, 242 - 720, 508)'
p169
sS'Action'
p170
S'[ ClassName: android.widget.Gallery; Text: []; ContentDescription: null; ItemCount: 2147483647; CurrentItemIndex: 301; IsEnabled: true; IsPassword: false; IsChecked: false; IsFullScreen: false; Scrollable: true; BeforeText: null; FromIndex: 300; ToIndex: 301; ScrollX: -1; ScrollY: -1; MaxScrollX: -1; MaxScrollY: -1; AddedCount: -1; RemovedCount: -1; ParcelableData: null ]'
p171
sS'MovementGranularity'
p172
g6
sa(dp173
S'EventTime'
p174
S'60576665'
p175
sg4
L1449907723381L
sS'recordCount'
p176
g72
sS'EventType'
p177
S'TYPE_VIEW_SCROLLED'
p178
sS'PackageName'
p179
S'com.netease.cloudmusic'
p180
sS'OutBounds'
p181
S'Rect(0, 242 - 720, 508)'
p182
sS'Action'
p183
S'[ ClassName: android.widget.Gallery; Text: []; ContentDescription: null; ItemCount: 2147483647; CurrentItemIndex: 301; IsEnabled: true; IsPassword: false; IsChecked: false; IsFullScreen: false; Scrollable: true; BeforeText: null; FromIndex: 300; ToIndex: 301; ScrollX: -1; ScrollY: -1; MaxScrollX: -1; MaxScrollY: -1; AddedCount: -1; RemovedCount: -1; ParcelableData: null ]'
p184
sS'MovementGranularity'
p185
g6
sa(dp186
S'EventTime'
p187
S'60581065'
p188
sg4
L1449907727804L
sS'recordCount'
p189
g72
sS'EventType'
p190
S'TYPE_VIEW_SELECTED'
p191
sS'PackageName'
p192
S'com.netease.cloudmusic'
p193
sS'OutBounds'
p194
S'Rect(0, 242 - 720, 508)'
p195
sS'Action'
p196
S'[ ClassName: android.widget.Gallery; Text: [\xe6\x98\x8e\xe6\x98\x9f\xe8\xae\xbf\xe8\xb0\x88]; ContentDescription: null; ItemCount: 2147483647; CurrentItemIndex: 302; IsEnabled: true; IsPassword: false; IsChecked: false; IsFullScreen: false; Scrollable: true; BeforeText: null; FromIndex: 301; ToIndex: 302; ScrollX: -1; ScrollY: -1; MaxScrollX: -1; MaxScrollY: -1; AddedCount: -1; RemovedCount: -1; ParcelableData: null ]'
p197
sS'MovementGranularity'
p198
g6
sa(dp199
S'EventTime'
p200
S'60581113'
p201
sg4
L1449907727854L
sS'recordCount'
p202
g72
sS'EventType'
p203
S'TYPE_VIEW_SCROLLED'
p204
sS'PackageName'
p205
S'com.netease.cloudmusic'
p206
sS'OutBounds'
p207
S'Rect(0, 242 - 720, 508)'
p208
sS'Action'
p209
S'[ ClassName: android.widget.Gallery; Text: []; ContentDescription: null; ItemCount: 2147483647; CurrentItemIndex: 302; IsEnabled: true; IsPassword: false; IsChecked: false; IsFullScreen: false; Scrollable: true; BeforeText: null; FromIndex: 301; ToIndex: 302; ScrollX: -1; ScrollY: -1; MaxScrollX: -1; MaxScrollY: -1; AddedCount: -1; RemovedCount: -1; ParcelableData: null ]'
p210
sS'MovementGranularity'
p211
g6
sa(dp212
S'EventTime'
p213
S'60581228'
p214
sg4
L1449907727973L
sS'recordCount'
p215
g72
sS'EventType'
p216
S'TYPE_VIEW_SCROLLED'
p217
sS'PackageName'
p218
S'com.netease.cloudmusic'
p219
sS'OutBounds'
p220
S'Rect(0, 242 - 720, 508)'
p221
sS'Action'
p222
S'[ ClassName: android.widget.Gallery; Text: []; ContentDescription: null; ItemCount: 2147483647; CurrentItemIndex: 302; IsEnabled: true; IsPassword: false; IsChecked: false; IsFullScreen: false; Scrollable: true; BeforeText: null; FromIndex: 301; ToIndex: 302; ScrollX: -1; ScrollY: -1; MaxScrollX: -1; MaxScrollY: -1; AddedCount: -1; RemovedCount: -1; ParcelableData: null ]'
p223
sS'MovementGranularity'
p224
g6
sa(dp225
S'EventTime'
p226
S'60581380'
p227
sg4
L1449907728109L
sS'recordCount'
p228
g72
sS'EventType'
p229
S'TYPE_VIEW_SCROLLED'
p230
sS'PackageName'
p231
S'com.netease.cloudmusic'
p232
sS'OutBounds'
p233
S'Rect(0, 242 - 720, 508)'
p234
sS'Action'
p235
S'[ ClassName: android.widget.Gallery; Text: []; ContentDescription: null; ItemCount: 2147483647; CurrentItemIndex: 302; IsEnabled: true; IsPassword: false; IsChecked: false; IsFullScreen: false; Scrollable: true; BeforeText: null; FromIndex: 301; ToIndex: 302; ScrollX: -1; ScrollY: -1; MaxScrollX: -1; MaxScrollY: -1; AddedCount: -1; RemovedCount: -1; ParcelableData: null ]'
p236
sS'MovementGranularity'
p237
g6
sa(dp238
S'EventTime'
p239
S'60581506'
p240
sg4
L1449907728222L
sS'recordCount'
p241
g72
sS'EventType'
p242
S'TYPE_VIEW_SCROLLED'
p243
sS'PackageName'
p244
S'com.netease.cloudmusic'
p245
sS'OutBounds'
p246
S'Rect(0, 242 - 720, 508)'
p247
sS'Action'
p248
S'[ ClassName: android.widget.Gallery; Text: []; ContentDescription: null; ItemCount: 2147483647; CurrentItemIndex: 302; IsEnabled: true; IsPassword: false; IsChecked: false; IsFullScreen: false; Scrollable: true; BeforeText: null; FromIndex: 301; ToIndex: 302; ScrollX: -1; ScrollY: -1; MaxScrollX: -1; MaxScrollY: -1; AddedCount: -1; RemovedCount: -1; ParcelableData: null ]'
p249
sS'MovementGranularity'
p250
g6
sa(dp251
S'EventTime'
p252
S'60586078'
p253
sg4
L1449907732818L
sS'recordCount'
p254
g72
sS'EventType'
p255
S'TYPE_VIEW_SELECTED'
p256
sS'PackageName'
p257
S'com.netease.cloudmusic'
p258
sS'OutBounds'
p259
S'Rect(0, 242 - 720, 508)'
p260
sS'Action'
p261
S'[ ClassName: android.widget.Gallery; Text: [\xe6\x96\xb0\xe7\xa2\x9f\xe9\xa6\x96\xe5\x8f\x91]; ContentDescription: null; ItemCount: 2147483647; CurrentItemIndex: 303; IsEnabled: true; IsPassword: false; IsChecked: false; IsFullScreen: false; Scrollable: true; BeforeText: null; FromIndex: 302; ToIndex: 303; ScrollX: -1; ScrollY: -1; MaxScrollX: -1; MaxScrollY: -1; AddedCount: -1; RemovedCount: -1; ParcelableData: null ]'
p262
sS'MovementGranularity'
p263
g6
sa(dp264
S'EventTime'
p265
S'60586127'
p266
sg4
L1449907732868L
sS'recordCount'
p267
g72
sS'EventType'
p268
S'TYPE_VIEW_SCROLLED'
p269
sS'PackageName'
p270
S'com.netease.cloudmusic'
p271
sS'OutBounds'
p272
S'Rect(0, 242 - 720, 508)'
p273
sS'Action'
p274
S'[ ClassName: android.widget.Gallery; Text: []; ContentDescription: null; ItemCount: 2147483647; CurrentItemIndex: 303; IsEnabled: true; IsPassword: false; IsChecked: false; IsFullScreen: false; Scrollable: true; BeforeText: null; FromIndex: 302; ToIndex: 303; ScrollX: -1; ScrollY: -1; MaxScrollX: -1; MaxScrollY: -1; AddedCount: -1; RemovedCount: -1; ParcelableData: null ]'
p275
sS'MovementGranularity'
p276
g6
sa(dp277
S'EventTime'
p278
S'60586243'
p279
sg4
L1449907732980L
sS'recordCount'
p280
g72
sS'EventType'
p281
S'TYPE_VIEW_SCROLLED'
p282
sS'PackageName'
p283
S'com.netease.cloudmusic'
p284
sS'OutBounds'
p285
S'Rect(0, 242 - 720, 508)'
p286
sS'Action'
p287
S'[ ClassName: android.widget.Gallery; Text: []; ContentDescription: null; ItemCount: 2147483647; CurrentItemIndex: 303; IsEnabled: true; IsPassword: false; IsChecked: false; IsFullScreen: false; Scrollable: true; BeforeText: null; FromIndex: 302; ToIndex: 303; ScrollX: -1; ScrollY: -1; MaxScrollX: -1; MaxScrollY: -1; AddedCount: -1; RemovedCount: -1; ParcelableData: null ]'
p288
sS'MovementGranularity'
p289
g6
sa(dp290
S'EventTime'
p291
S'60586387'
p292
sg4
L1449907733110L
sS'recordCount'
p293
g72
sS'EventType'
p294
S'TYPE_VIEW_SCROLLED'
p295
sS'PackageName'
p296
S'com.netease.cloudmusic'
p297
sS'OutBounds'
p298
S'Rect(0, 242 - 720, 508)'
p299
sS'Action'
p300
S'[ ClassName: android.widget.Gallery; Text: []; ContentDescription: null; ItemCount: 2147483647; CurrentItemIndex: 303; IsEnabled: true; IsPassword: false; IsChecked: false; IsFullScreen: false; Scrollable: true; BeforeText: null; FromIndex: 302; ToIndex: 303; ScrollX: -1; ScrollY: -1; MaxScrollX: -1; MaxScrollY: -1; AddedCount: -1; RemovedCount: -1; ParcelableData: null ]'
p301
sS'MovementGranularity'
p302
g6
sa(dp303
S'EventTime'
p304
S'60586508'
p305
sg4
L1449907733231L
sS'recordCount'
p306
g72
sS'EventType'
p307
S'TYPE_VIEW_SCROLLED'
p308
sS'PackageName'
p309
S'com.netease.cloudmusic'
p310
sS'OutBounds'
p311
S'Rect(0, 242 - 720, 508)'
p312
sS'Action'
p313
S'[ ClassName: android.widget.Gallery; Text: []; ContentDescription: null; ItemCount: 2147483647; CurrentItemIndex: 303; IsEnabled: true; IsPassword: false; IsChecked: false; IsFullScreen: false; Scrollable: true; BeforeText: null; FromIndex: 302; ToIndex: 303; ScrollX: -1; ScrollY: -1; MaxScrollX: -1; MaxScrollY: -1; AddedCount: -1; RemovedCount: -1; ParcelableData: null ]'
p314
sS'MovementGranularity'
p315
g6
sa(dp316
S'EventTime'
p317
S'60591100'
p318
sg4
L1449907737846L
sS'recordCount'
p319
g72
sS'EventType'
p320
S'TYPE_VIEW_SELECTED'
p321
sS'PackageName'
p322
S'com.netease.cloudmusic'
p323
sS'OutBounds'
p324
S'Rect(0, 242 - 720, 508)'
p325
sS'Action'
p326
S'[ ClassName: android.widget.Gallery; Text: [\xe4\xb8\x93\xe9\xa2\x98]; ContentDescription: null; ItemCount: 2147483647; CurrentItemIndex: 304; IsEnabled: true; IsPassword: false; IsChecked: false; IsFullScreen: false; Scrollable: true; BeforeText: null; FromIndex: 303; ToIndex: 304; ScrollX: -1; ScrollY: -1; MaxScrollX: -1; MaxScrollY: -1; AddedCount: -1; RemovedCount: -1; ParcelableData: null ]'
p327
sS'MovementGranularity'
p328
g6
sa(dp329
S'EventTime'
p330
S'60591143'
p331
sg4
L1449907737885L
sS'recordCount'
p332
g72
sS'EventType'
p333
S'TYPE_VIEW_SCROLLED'
p334
sS'PackageName'
p335
S'com.netease.cloudmusic'
p336
sS'OutBounds'
p337
S'Rect(0, 242 - 720, 508)'
p338
sS'Action'
p339
S'[ ClassName: android.widget.Gallery; Text: []; ContentDescription: null; ItemCount: 2147483647; CurrentItemIndex: 304; IsEnabled: true; IsPassword: false; IsChecked: false; IsFullScreen: false; Scrollable: true; BeforeText: null; FromIndex: 303; ToIndex: 304; ScrollX: -1; ScrollY: -1; MaxScrollX: -1; MaxScrollY: -1; AddedCount: -1; RemovedCount: -1; ParcelableData: null ]'
p340
sS'MovementGranularity'
p341
g6
sa(dp342
S'EventTime'
p343
S'60591253'
p344
sg4
L1449907737994L
sS'recordCount'
p345
g72
sS'EventType'
p346
S'TYPE_VIEW_SCROLLED'
p347
sS'PackageName'
p348
S'com.netease.cloudmusic'
p349
sS'OutBounds'
p350
S'Rect(0, 242 - 720, 508)'
p351
sS'Action'
p352
S'[ ClassName: android.widget.Gallery; Text: []; ContentDescription: null; ItemCount: 2147483647; CurrentItemIndex: 304; IsEnabled: true; IsPassword: false; IsChecked: false; IsFullScreen: false; Scrollable: true; BeforeText: null; FromIndex: 303; ToIndex: 304; ScrollX: -1; ScrollY: -1; MaxScrollX: -1; MaxScrollY: -1; AddedCount: -1; RemovedCount: -1; ParcelableData: null ]'
p353
sS'MovementGranularity'
p354
g6
sa(dp355
S'EventTime'
p356
S'60591401'
p357
sg4
L1449907738124L
sS'recordCount'
p358
g72
sS'EventType'
p359
S'TYPE_VIEW_SCROLLED'
p360
sS'PackageName'
p361
S'com.netease.cloudmusic'
p362
sS'OutBounds'
p363
S'Rect(0, 242 - 720, 508)'
p364
sS'Action'
p365
S'[ ClassName: android.widget.Gallery; Text: []; ContentDescription: null; ItemCount: 2147483647; CurrentItemIndex: 304; IsEnabled: true; IsPassword: false; IsChecked: false; IsFullScreen: false; Scrollable: true; BeforeText: null; FromIndex: 303; ToIndex: 304; ScrollX: -1; ScrollY: -1; MaxScrollX: -1; MaxScrollY: -1; AddedCount: -1; RemovedCount: -1; ParcelableData: null ]'
p366
sS'MovementGranularity'
p367
g6
sa(dp368
S'EventTime'
p369
S'60591521'
p370
sg4
L1449907738246L
sS'recordCount'
p371
g72
sS'EventType'
p372
S'TYPE_VIEW_SCROLLED'
p373
sS'PackageName'
p374
S'com.netease.cloudmusic'
p375
sS'OutBounds'
p376
S'Rect(0, 242 - 720, 508)'
p377
sS'Action'
p378
S'[ ClassName: android.widget.Gallery; Text: []; ContentDescription: null; ItemCount: 2147483647; CurrentItemIndex: 304; IsEnabled: true; IsPassword: false; IsChecked: false; IsFullScreen: false; Scrollable: true; BeforeText: null; FromIndex: 303; ToIndex: 304; ScrollX: -1; ScrollY: -1; MaxScrollX: -1; MaxScrollY: -1; AddedCount: -1; RemovedCount: -1; ParcelableData: null ]'
p379
sS'MovementGranularity'
p380
g6
sa(dp381
S'EventTime'
p382
S'60596115'
p383
sg4
L1449907742861L
sS'recordCount'
p384
g72
sS'EventType'
p385
S'TYPE_VIEW_SELECTED'
p386
sS'PackageName'
p387
S'com.netease.cloudmusic'
p388
sS'OutBounds'
p389
S'Rect(0, 242 - 720, 508)'
p390
sS'Action'
p391
S'[ ClassName: android.widget.Gallery; Text: [\xe6\x8e\xa8\xe5\xb9\xbf]; ContentDescription: null; ItemCount: 2147483647; CurrentItemIndex: 305; IsEnabled: true; IsPassword: false; IsChecked: false; IsFullScreen: false; Scrollable: true; BeforeText: null; FromIndex: 304; ToIndex: 305; ScrollX: -1; ScrollY: -1; MaxScrollX: -1; MaxScrollY: -1; AddedCount: -1; RemovedCount: -1; ParcelableData: null ]'
p392
sS'MovementGranularity'
p393
g6
sa(dp394
S'EventTime'
p395
S'60596159'
p396
sg4
L1449907742901L
sS'recordCount'
p397
g72
sS'EventType'
p398
S'TYPE_VIEW_SCROLLED'
p399
sS'PackageName'
p400
S'com.netease.cloudmusic'
p401
sS'OutBounds'
p402
S'Rect(0, 242 - 720, 508)'
p403
sS'Action'
p404
S'[ ClassName: android.widget.Gallery; Text: []; ContentDescription: null; ItemCount: 2147483647; CurrentItemIndex: 305; IsEnabled: true; IsPassword: false; IsChecked: false; IsFullScreen: false; Scrollable: true; BeforeText: null; FromIndex: 304; ToIndex: 305; ScrollX: -1; ScrollY: -1; MaxScrollX: -1; MaxScrollY: -1; AddedCount: -1; RemovedCount: -1; ParcelableData: null ]'
p405
sS'MovementGranularity'
p406
g6
sa(dp407
S'EventTime'
p408
S'60596269'
p409
sg4
L1449907743010L
sS'recordCount'
p410
g72
sS'EventType'
p411
S'TYPE_VIEW_SCROLLED'
p412
sS'PackageName'
p413
S'com.netease.cloudmusic'
p414
sS'OutBounds'
p415
S'Rect(0, 242 - 720, 508)'
p416
sS'Action'
p417
S'[ ClassName: android.widget.Gallery; Text: []; ContentDescription: null; ItemCount: 2147483647; CurrentItemIndex: 305; IsEnabled: true; IsPassword: false; IsChecked: false; IsFullScreen: false; Scrollable: true; BeforeText: null; FromIndex: 304; ToIndex: 305; ScrollX: -1; ScrollY: -1; MaxScrollX: -1; MaxScrollY: -1; AddedCount: -1; RemovedCount: -1; ParcelableData: null ]'
p418
sS'MovementGranularity'
p419
g6
sa(dp420
S'EventTime'
p421
S'60596417'
p422
sg4
L1449907743141L
sS'recordCount'
p423
g72
sS'EventType'
p424
S'TYPE_VIEW_SCROLLED'
p425
sS'PackageName'
p426
S'com.netease.cloudmusic'
p427
sS'OutBounds'
p428
S'Rect(0, 242 - 720, 508)'
p429
sS'Action'
p430
S'[ ClassName: android.widget.Gallery; Text: []; ContentDescription: null; ItemCount: 2147483647; CurrentItemIndex: 305; IsEnabled: true; IsPassword: false; IsChecked: false; IsFullScreen: false; Scrollable: true; BeforeText: null; FromIndex: 304; ToIndex: 305; ScrollX: -1; ScrollY: -1; MaxScrollX: -1; MaxScrollY: -1; AddedCount: -1; RemovedCount: -1; ParcelableData: null ]'
p431
sS'MovementGranularity'
p432
g6
sa(dp433
S'EventTime'
p434
S'60596538'
p435
sg4
L1449907743262L
sS'recordCount'
p436
g72
sS'EventType'
p437
S'TYPE_VIEW_SCROLLED'
p438
sS'PackageName'
p439
S'com.netease.cloudmusic'
p440
sS'OutBounds'
p441
S'Rect(0, 242 - 720, 508)'
p442
sS'Action'
p443
S'[ ClassName: android.widget.Gallery; Text: []; ContentDescription: null; ItemCount: 2147483647; CurrentItemIndex: 305; IsEnabled: true; IsPassword: false; IsChecked: false; IsFullScreen: false; Scrollable: true; BeforeText: null; FromIndex: 304; ToIndex: 305; ScrollX: -1; ScrollY: -1; MaxScrollX: -1; MaxScrollY: -1; AddedCount: -1; RemovedCount: -1; ParcelableData: null ]'
p444
sS'MovementGranularity'
p445
g6
sa(dp446
S'EventTime'
p447
S'60601124'
p448
sg4
L1449907747863L
sS'recordCount'
p449
g72
sS'EventType'
p450
S'TYPE_VIEW_SELECTED'
p451
sS'PackageName'
p452
S'com.netease.cloudmusic'
p453
sS'OutBounds'
p454
S'Rect(0, 242 - 720, 508)'
p455
sS'Action'
p456
S'[ ClassName: android.widget.Gallery; Text: [\xe4\xb8\x93\xe9\xa2\x98]; ContentDescription: null; ItemCount: 2147483647; CurrentItemIndex: 306; IsEnabled: true; IsPassword: false; IsChecked: false; IsFullScreen: false; Scrollable: true; BeforeText: null; FromIndex: 305; ToIndex: 306; ScrollX: -1; ScrollY: -1; MaxScrollX: -1; MaxScrollY: -1; AddedCount: -1; RemovedCount: -1; ParcelableData: null ]'
p457
sS'MovementGranularity'
p458
g6
sa(dp459
S'EventTime'
p460
S'60601158'
p461
sg4
L1449907747889L
sS'recordCount'
p462
g72
sS'EventType'
p463
S'TYPE_VIEW_SCROLLED'
p464
sS'PackageName'
p465
S'com.netease.cloudmusic'
p466
sS'OutBounds'
p467
S'Rect(0, 242 - 720, 508)'
p468
sS'Action'
p469
S'[ ClassName: android.widget.Gallery; Text: []; ContentDescription: null; ItemCount: 2147483647; CurrentItemIndex: 306; IsEnabled: true; IsPassword: false; IsChecked: false; IsFullScreen: false; Scrollable: true; BeforeText: null; FromIndex: 305; ToIndex: 306; ScrollX: -1; ScrollY: -1; MaxScrollX: -1; MaxScrollY: -1; AddedCount: -1; RemovedCount: -1; ParcelableData: null ]'
p470
sS'MovementGranularity'
p471
g6
sa(dp472
S'EventTime'
p473
S'60601296'
p474
sg4
L1449907748024L
sS'recordCount'
p475
g72
sS'EventType'
p476
S'TYPE_VIEW_SCROLLED'
p477
sS'PackageName'
p478
S'com.netease.cloudmusic'
p479
sS'OutBounds'
p480
S'Rect(0, 242 - 720, 508)'
p481
sS'Action'
p482
S'[ ClassName: android.widget.Gallery; Text: []; ContentDescription: null; ItemCount: 2147483647; CurrentItemIndex: 306; IsEnabled: true; IsPassword: false; IsChecked: false; IsFullScreen: false; Scrollable: true; BeforeText: null; FromIndex: 305; ToIndex: 306; ScrollX: -1; ScrollY: -1; MaxScrollX: -1; MaxScrollY: -1; AddedCount: -1; RemovedCount: -1; ParcelableData: null ]'
p483
sS'MovementGranularity'
p484
g6
sa(dp485
S'EventTime'
p486
S'60601431'
p487
sg4
L1449907748154L
sS'recordCount'
p488
g72
sS'EventType'
p489
S'TYPE_VIEW_SCROLLED'
p490
sS'PackageName'
p491
S'com.netease.cloudmusic'
p492
sS'OutBounds'
p493
S'Rect(0, 242 - 720, 508)'
p494
sS'Action'
p495
S'[ ClassName: android.widget.Gallery; Text: []; ContentDescription: null; ItemCount: 2147483647; CurrentItemIndex: 306; IsEnabled: true; IsPassword: false; IsChecked: false; IsFullScreen: false; Scrollable: true; BeforeText: null; FromIndex: 305; ToIndex: 306; ScrollX: -1; ScrollY: -1; MaxScrollX: -1; MaxScrollY: -1; AddedCount: -1; RemovedCount: -1; ParcelableData: null ]'
p496
sS'MovementGranularity'
p497
g6
sa(dp498
S'EventTime'
p499
S'60601551'
p500
sg4
L1449907748275L
sS'recordCount'
p501
g72
sS'EventType'
p502
S'TYPE_VIEW_SCROLLED'
p503
sS'PackageName'
p504
S'com.netease.cloudmusic'
p505
sS'OutBounds'
p506
S'Rect(0, 242 - 720, 508)'
p507
sS'Action'
p508
S'[ ClassName: android.widget.Gallery; Text: []; ContentDescription: null; ItemCount: 2147483647; CurrentItemIndex: 306; IsEnabled: true; IsPassword: false; IsChecked: false; IsFullScreen: false; Scrollable: true; BeforeText: null; FromIndex: 305; ToIndex: 306; ScrollX: -1; ScrollY: -1; MaxScrollX: -1; MaxScrollY: -1; AddedCount: -1; RemovedCount: -1; ParcelableData: null ]'
p509
sS'MovementGranularity'
p510
g6
sa(dp511
S'EventTime'
p512
S'60602126'
p513
sg4
L1449907748830L
sS'recordCount'
p514
g6
sS'EventType'
p515
S'TYPE_VIEW_CLICKED'
p516
sS'PackageName'
p517
S'com.netease.cloudmusic'
p518
sS'OutBounds'
p519
S'Rect(0, 50 - 112, 162)'
p520
sS'Action'
p521
S'[ ClassName: android.widget.ImageView; Text: []; ContentDescription: null; ItemCount: -1; CurrentItemIndex: -1; IsEnabled: true; IsPassword: false; IsChecked: false; IsFullScreen: false; Scrollable: false; BeforeText: null; FromIndex: -1; ToIndex: -1; ScrollX: -1; ScrollY: -1; MaxScrollX: -1; MaxScrollY: -1; AddedCount: -1; RemovedCount: -1; ParcelableData: null ]'
p522
sS'MovementGranularity'
p523
g6
sa(dp524
S'EventTime'
p525
S'60602613'
p526
sg4
L1449907749454L
sS'recordCount'
p527
g6
sS'EventType'
p528
S'TYPE_WINDOW_STATE_CHANGED'
p529
sS'PackageName'
p530
S'com.netease.cloudmusic'
p531
sS'OutBounds'
p532
S'Rect(0, 50 - 720, 1280)'
p533
sS'Action'
p534
S'[ ClassName: android.support.v4.widget.DrawerLayout; Text: []; ContentDescription: null; ItemCount: -1; CurrentItemIndex: -1; IsEnabled: true; IsPassword: false; IsChecked: false; IsFullScreen: false; Scrollable: false; BeforeText: null; FromIndex: -1; ToIndex: -1; ScrollX: -1; ScrollY: -1; MaxScrollX: -1; MaxScrollY: -1; AddedCount: -1; RemovedCount: -1; ParcelableData: null ]'
p535
sS'MovementGranularity'
p536
g6
sa(dp537
S'EventTime'
p538
S'60602615'
p539
sg4
L1449907749621L
sS'recordCount'
p540
g6
sS'EventType'
p541
S'TYPE_VIEW_FOCUSED'
p542
sS'PackageName'
p543
S'com.netease.cloudmusic'
p544
sS'OutBounds'
p545
S'Rect(0, 50 - 592, 1280)'
p546
sS'Action'
p547
S'[ ClassName: android.widget.ListView; Text: []; ContentDescription: null; ItemCount: 11; CurrentItemIndex: -1; IsEnabled: true; IsPassword: false; IsChecked: false; IsFullScreen: false; Scrollable: false; BeforeText: null; FromIndex: 0; ToIndex: 10; ScrollX: -1; ScrollY: -1; MaxScrollX: -1; MaxScrollY: -1; AddedCount: -1; RemovedCount: -1; ParcelableData: null ]'
p548
sS'MovementGranularity'
p549
g6
sa(dp550
S'EventTime'
p551
S'60602817'
p552
sg4
L1449907749664L
sS'recordCount'
p553
g6
sS'EventType'
p554
S'TYPE_WINDOW_CONTENT_CHANGED'
p555
sS'PackageName'
p556
S'com.netease.cloudmusic'
p557
sS'OutBounds'
p558
S'Rect(0, 0 - 720, 1280)'
p559
sS'Action'
p560
S'[ ClassName: android.widget.FrameLayout; Text: []; ContentDescription: null; ItemCount: -1; CurrentItemIndex: -1; IsEnabled: true; IsPassword: false; IsChecked: false; IsFullScreen: false; Scrollable: false; BeforeText: null; FromIndex: -1; ToIndex: -1; ScrollX: -1; ScrollY: -1; MaxScrollX: -1; MaxScrollY: -1; AddedCount: -1; RemovedCount: -1; ParcelableData: null ]'
p561
sS'MovementGranularity'
p562
g6
sa(dp563
S'EventTime'
p564
S'60603070'
p565
sg4
L1449907749820L
sS'recordCount'
p566
g6
sS'EventType'
p567
S'TYPE_WINDOW_CONTENT_CHANGED'
p568
sS'PackageName'
p569
S'com.netease.cloudmusic'
p570
sS'OutBounds'
p571
S'Rect(0, 0 - 720, 1280)'
p572
sS'Action'
p573
S'[ ClassName: android.widget.FrameLayout; Text: []; ContentDescription: null; ItemCount: -1; CurrentItemIndex: -1; IsEnabled: true; IsPassword: false; IsChecked: false; IsFullScreen: false; Scrollable: false; BeforeText: null; FromIndex: -1; ToIndex: -1; ScrollX: -1; ScrollY: -1; MaxScrollX: -1; MaxScrollY: -1; AddedCount: -1; RemovedCount: -1; ParcelableData: null ]'
p574
sS'MovementGranularity'
p575
g6
sa(dp576
S'EventTime'
p577
S'60603644'
p578
sg4
L1449907750506L
sS'recordCount'
p579
g72
sS'EventType'
p580
S'TYPE_VIEW_CLICKED'
p581
sS'PackageName'
p582
S'com.netease.cloudmusic'
p583
sS'OutBounds'
p584
S'Rect(486, 1008 - 566, 1062)'
p585
sS'Action'
p586
S'[ ClassName: android.widget.Switch; Text: []; ContentDescription: null; ItemCount: -1; CurrentItemIndex: -1; IsEnabled: true; IsPassword: false; IsChecked: false; IsFullScreen: false; Scrollable: false; BeforeText: null; FromIndex: -1; ToIndex: -1; ScrollX: -1; ScrollY: -1; MaxScrollX: -1; MaxScrollY: -1; AddedCount: -1; RemovedCount: -1; ParcelableData: null ]'
p587
sS'MovementGranularity'
p588
g6
sa(dp589
S'EventTime'
p590
S'60603897'
p591
sg4
L1449907750656L
sS'recordCount'
p592
g6
sS'EventType'
p593
S'TYPE_WINDOW_CONTENT_CHANGED'
p594
sS'PackageName'
p595
S'com.netease.cloudmusic'
p596
sS'OutBounds'
p597
S'Rect(0, 0 - 720, 1280)'
p598
sS'Action'
p599
S'[ ClassName: android.widget.FrameLayout; Text: []; ContentDescription: null; ItemCount: -1; CurrentItemIndex: -1; IsEnabled: true; IsPassword: false; IsChecked: false; IsFullScreen: false; Scrollable: false; BeforeText: null; FromIndex: -1; ToIndex: -1; ScrollX: -1; ScrollY: -1; MaxScrollX: -1; MaxScrollY: -1; AddedCount: -1; RemovedCount: -1; ParcelableData: null ]'
p600
sS'MovementGranularity'
p601
g6
sa(dp602
S'EventTime'
p603
S'60607955'
p604
sg4
L1449907754797L
sS'recordCount'
p605
g72
sS'EventType'
p606
S'TYPE_VIEW_CLICKED'
p607
sS'PackageName'
p608
S'com.netease.cloudmusic'
p609
sS'OutBounds'
p610
S'Rect(486, 1008 - 566, 1062)'
p611
sS'Action'
p612
S'[ ClassName: android.widget.Switch; Text: []; ContentDescription: null; ItemCount: -1; CurrentItemIndex: -1; IsEnabled: true; IsPassword: false; IsChecked: true; IsFullScreen: false; Scrollable: false; BeforeText: null; FromIndex: -1; ToIndex: -1; ScrollX: -1; ScrollY: -1; MaxScrollX: -1; MaxScrollY: -1; AddedCount: -1; RemovedCount: -1; ParcelableData: null ]'
p613
sS'MovementGranularity'
p614
g6
sa(dp615
S'EventTime'
p616
S'60608188'
p617
sg4
L1449907754948L
sS'recordCount'
p618
g6
sS'EventType'
p619
S'TYPE_WINDOW_CONTENT_CHANGED'
p620
sS'PackageName'
p621
S'com.netease.cloudmusic'
p622
sS'OutBounds'
p623
S'Rect(0, 0 - 720, 1280)'
p624
sS'Action'
p625
S'[ ClassName: android.widget.FrameLayout; Text: []; ContentDescription: null; ItemCount: -1; CurrentItemIndex: -1; IsEnabled: true; IsPassword: false; IsChecked: false; IsFullScreen: false; Scrollable: false; BeforeText: null; FromIndex: -1; ToIndex: -1; ScrollX: -1; ScrollY: -1; MaxScrollX: -1; MaxScrollY: -1; AddedCount: -1; RemovedCount: -1; ParcelableData: null ]'
p626
sS'MovementGranularity'
p627
g6
sa(dp628
S'EventTime'
p629
S'60609971'
p630
sg4
L1449907756729L
sS'recordCount'
p631
g72
sS'EventType'
p632
S'TYPE_VIEW_CLICKED'
p633
sS'PackageName'
p634
S'com.netease.cloudmusic'
p635
sS'OutBounds'
p636
S'Rect(-441, 891 - 150, 987)'
p637
sS'Action'
p638
S'[ ClassName: android.widget.LinearLayout; Text: [\xe4\xb8\xbb\xe9\xa2\x98\xe6\x8d\xa2\xe8\x82\xa4, \xe5\xae\x98\xe6\x96\xb9\xe7\x99\xbd]; ContentDescription: null; ItemCount: -1; CurrentItemIndex: -1; IsEnabled: true; IsPassword: false; IsChecked: false; IsFullScreen: false; Scrollable: false; BeforeText: null; FromIndex: -1; ToIndex: -1; ScrollX: -1; ScrollY: -1; MaxScrollX: -1; MaxScrollY: -1; AddedCount: -1; RemovedCount: -1; ParcelableData: null ]'
p639
sS'MovementGranularity'
p640
g6
sa(dp641
S'EventTime'
p642
S'60610709'
p643
sg4
L1449907757494L
sS'recordCount'
p644
g6
sS'EventType'
p645
S'TYPE_WINDOW_STATE_CHANGED'
p646
sS'PackageName'
p647
S'com.netease.cloudmusic'
p648
sS'OutBounds'
p649
S'Rect(0, 0 - 720, 1280)'
p650
sS'Action'
p651
S'[ ClassName: com.netease.cloudmusic.activity.MainActivity; Text: [\xe7\xbd\x91\xe6\x98\x93\xe4\xba\x91\xe9\x9f\xb3\xe4\xb9\x90]; ContentDescription: null; ItemCount: -1; CurrentItemIndex: -1; IsEnabled: true; IsPassword: false; IsChecked: false; IsFullScreen: true; Scrollable: false; BeforeText: null; FromIndex: -1; ToIndex: -1; ScrollX: -1; ScrollY: -1; MaxScrollX: -1; MaxScrollY: -1; AddedCount: -1; RemovedCount: -1; ParcelableData: null ]'
p652
sS'MovementGranularity'
p653
g6
sa(dp654
S'EventTime'
p655
S'60610729'
p656
sg4
L1449907757588L
sS'recordCount'
p657
g6
sS'EventType'
p658
S'TYPE_WINDOW_CONTENT_CHANGED'
p659
sS'PackageName'
p660
S'com.netease.cloudmusic'
p661
sS'OutBounds'
p662
S'Rect(0, 0 - 720, 1280)'
p663
sS'Action'
p664
S'[ ClassName: android.widget.FrameLayout; Text: []; ContentDescription: null; ItemCount: -1; CurrentItemIndex: -1; IsEnabled: true; IsPassword: false; IsChecked: false; IsFullScreen: false; Scrollable: false; BeforeText: null; FromIndex: -1; ToIndex: -1; ScrollX: -1; ScrollY: -1; MaxScrollX: -1; MaxScrollY: -1; AddedCount: -1; RemovedCount: -1; ParcelableData: null ]'
p665
sS'MovementGranularity'
p666
g6
sa(dp667
S'EventTime'
p668
S'60610987'
p669
sg4
L1449907757797L
sS'recordCount'
p670
g6
sS'EventType'
p671
S'TYPE_WINDOW_STATE_CHANGED'
p672
sS'PackageName'
p673
S'com.netease.cloudmusic'
p674
sS'OutBounds'
p675
S'Rect(0, 0 - 720, 1280)'
p676
sS'Action'
p677
S'[ ClassName: com.netease.cloudmusic.activity.ThemeListActivity; Text: [\xe4\xb8\xbb\xe9\xa2\x98\xe6\x8d\xa2\xe8\x82\xa4]; ContentDescription: null; ItemCount: -1; CurrentItemIndex: -1; IsEnabled: true; IsPassword: false; IsChecked: false; IsFullScreen: true; Scrollable: false; BeforeText: null; FromIndex: -1; ToIndex: -1; ScrollX: -1; ScrollY: -1; MaxScrollX: -1; MaxScrollY: -1; AddedCount: -1; RemovedCount: -1; ParcelableData: null ]'
p678
sS'MovementGranularity'
p679
g6
sa(dp680
S'EventTime'
p681
S'60611013'
p682
sg4
L1449907757813L
sS'recordCount'
p683
g6
sS'EventType'
p684
S'TYPE_WINDOW_CONTENT_CHANGED'
p685
sS'PackageName'
p686
S'com.netease.cloudmusic'
p687
sS'OutBounds'
p688
S'Rect(0, 0 - 720, 1280)'
p689
sS'Action'
p690
S'[ ClassName: android.widget.FrameLayout; Text: []; ContentDescription: null; ItemCount: -1; CurrentItemIndex: -1; IsEnabled: true; IsPassword: false; IsChecked: false; IsFullScreen: false; Scrollable: false; BeforeText: null; FromIndex: -1; ToIndex: -1; ScrollX: -1; ScrollY: -1; MaxScrollX: -1; MaxScrollY: -1; AddedCount: -1; RemovedCount: -1; ParcelableData: null ]'
p691
sS'MovementGranularity'
p692
g6
sa(dp693
S'EventTime'
p694
S'60611272'
p695
sg4
L1449907758034L
sS'recordCount'
p696
g6
sS'EventType'
p697
S'TYPE_VIEW_SCROLLED'
p698
sS'PackageName'
p699
S'com.netease.cloudmusic'
p700
sS'OutBounds'
p701
S'Rect(0, 162 - 720, 1280)'
p702
sS'Action'
p703
S'[ ClassName: android.support.v7.widget.RecyclerView; Text: []; ContentDescription: null; ItemCount: 21; CurrentItemIndex: -1; IsEnabled: true; IsPassword: false; IsChecked: false; IsFullScreen: false; Scrollable: true; BeforeText: null; FromIndex: 0; ToIndex: 10; ScrollX: -1; ScrollY: -1; MaxScrollX: -1; MaxScrollY: -1; AddedCount: -1; RemovedCount: -1; ParcelableData: null ]'
p704
sS'MovementGranularity'
p705
g6
sa(dp706
S'EventTime'
p707
S'60611273'
p708
sg4
L1449907758062L
sS'recordCount'
p709
g6
sS'EventType'
p710
S'TYPE_WINDOW_CONTENT_CHANGED'
p711
sS'PackageName'
p712
S'com.netease.cloudmusic'
p713
sS'OutBounds'
p714
S'Rect(0, 0 - 720, 1280)'
p715
sS'Action'
p716
S'[ ClassName: android.widget.FrameLayout; Text: []; ContentDescription: null; ItemCount: -1; CurrentItemIndex: -1; IsEnabled: true; IsPassword: false; IsChecked: false; IsFullScreen: false; Scrollable: false; BeforeText: null; FromIndex: -1; ToIndex: -1; ScrollX: -1; ScrollY: -1; MaxScrollX: -1; MaxScrollY: -1; AddedCount: -1; RemovedCount: -1; ParcelableData: null ]'
p717
sS'MovementGranularity'
p718
g6
sa(dp719
S'EventTime'
p720
S'60612065'
p721
sg4
L1449907758767L
sS'recordCount'
p722
g6
sS'EventType'
p723
S'TYPE_VIEW_CLICKED'
p724
sS'PackageName'
p725
S'com.netease.cloudmusic'
p726
sS'OutBounds'
p727
S'Rect(248, 257 - 460, 563)'
p728
sS'Action'
p729
S'[ ClassName: android.widget.ImageView; Text: []; ContentDescription: null; ItemCount: -1; CurrentItemIndex: -1; IsEnabled: true; IsPassword: false; IsChecked: false; IsFullScreen: false; Scrollable: false; BeforeText: null; FromIndex: -1; ToIndex: -1; ScrollX: -1; ScrollY: -1; MaxScrollX: -1; MaxScrollY: -1; AddedCount: -1; RemovedCount: -1; ParcelableData: null ]'
p730
sS'MovementGranularity'
p731
g6
sa(dp732
S'EventTime'
p733
S'60612455'
p734
sg4
L1449907759162L
sS'recordCount'
p735
g6
sS'EventType'
p736
S'TYPE_WINDOW_STATE_CHANGED'
p737
sS'PackageName'
p738
S'com.netease.cloudmusic'
p739
sS'OutBounds'
p740
S'Rect(0, 0 - 720, 1280)'
p741
sS'Action'
p742
S'[ ClassName: com.netease.cloudmusic.activity.ThemeDetailActivity; Text: [\xe4\xb8\xbb\xe9\xa2\x98\xe8\xaf\xa6\xe6\x83\x85]; ContentDescription: null; ItemCount: -1; CurrentItemIndex: -1; IsEnabled: true; IsPassword: false; IsChecked: false; IsFullScreen: true; Scrollable: false; BeforeText: null; FromIndex: -1; ToIndex: -1; ScrollX: -1; ScrollY: -1; MaxScrollX: -1; MaxScrollY: -1; AddedCount: -1; RemovedCount: -1; ParcelableData: null ]'
p743
sS'MovementGranularity'
p744
g6
sa(dp745
S'EventTime'
p746
S'60612512'
p747
sg4
L1449907759224L
sS'recordCount'
p748
g6
sS'EventType'
p749
S'TYPE_WINDOW_CONTENT_CHANGED'
p750
sS'PackageName'
p751
S'com.netease.cloudmusic'
p752
sS'OutBounds'
p753
S'Rect(0, 0 - 720, 1280)'
p754
sS'Action'
p755
S'[ ClassName: android.widget.FrameLayout; Text: []; ContentDescription: null; ItemCount: -1; CurrentItemIndex: -1; IsEnabled: true; IsPassword: false; IsChecked: false; IsFullScreen: false; Scrollable: false; BeforeText: null; FromIndex: -1; ToIndex: -1; ScrollX: -1; ScrollY: -1; MaxScrollX: -1; MaxScrollY: -1; AddedCount: -1; RemovedCount: -1; ParcelableData: null ]'
p756
sS'MovementGranularity'
p757
g6
sa(dp758
S'EventTime'
p759
S'60612549'
p760
sg4
L1449907759261L
sS'recordCount'
p761
g6
sS'EventType'
p762
S'TYPE_VIEW_SCROLLED'
p763
sS'PackageName'
p764
S'com.netease.cloudmusic'
p765
sS'OutBounds'
p766
S'Rect(0, 578 - 720, 1108)'
p767
sS'Action'
p768
S'[ ClassName: android.support.v7.widget.RecyclerView; Text: []; ContentDescription: null; ItemCount: 2; CurrentItemIndex: -1; IsEnabled: true; IsPassword: false; IsChecked: false; IsFullScreen: false; Scrollable: false; BeforeText: null; FromIndex: 0; ToIndex: 1; ScrollX: -1; ScrollY: -1; MaxScrollX: -1; MaxScrollY: -1; AddedCount: -1; RemovedCount: -1; ParcelableData: null ]'
p769
sS'MovementGranularity'
p770
g6
sa(dp771
S'EventTime'
p772
S'60613227'
p773
sg4
L1449907759930L
sS'recordCount'
p774
g6
sS'EventType'
p775
S'TYPE_VIEW_CLICKED'
p776
sS'PackageName'
p777
S'com.netease.cloudmusic'
p778
sS'OutBounds'
p779
S'Rect(20, 380 - 700, 460)'
p780
sS'Action'
p781
S'[ ClassName: android.widget.LinearLayout; Text: [\xe4\xbd\xbf\xe7\x94\xa8]; ContentDescription: null; ItemCount: -1; CurrentItemIndex: -1; IsEnabled: true; IsPassword: false; IsChecked: false; IsFullScreen: false; Scrollable: false; BeforeText: null; FromIndex: -1; ToIndex: -1; ScrollX: -1; ScrollY: -1; MaxScrollX: -1; MaxScrollY: -1; AddedCount: -1; RemovedCount: -1; ParcelableData: null ]'
p782
sS'MovementGranularity'
p783
g6
sa(dp784
S'EventTime'
p785
S'60613386'
p786
sg4
L1449907760100L
sS'recordCount'
p787
g6
sS'EventType'
p788
S'TYPE_WINDOW_CONTENT_CHANGED'
p789
sS'PackageName'
p790
S'com.netease.cloudmusic'
p791
sS'OutBounds'
p792
S'Rect(0, 0 - 720, 1280)'
p793
sS'Action'
p794
S'[ ClassName: android.widget.FrameLayout; Text: []; ContentDescription: null; ItemCount: -1; CurrentItemIndex: -1; IsEnabled: true; IsPassword: false; IsChecked: false; IsFullScreen: false; Scrollable: false; BeforeText: null; FromIndex: -1; ToIndex: -1; ScrollX: -1; ScrollY: -1; MaxScrollX: -1; MaxScrollY: -1; AddedCount: -1; RemovedCount: -1; ParcelableData: null ]'
p795
sS'MovementGranularity'
p796
g6
sa(dp797
S'EventTime'
p798
S'60614173'
p799
sg4
L1449907760877L
sS'recordCount'
p800
g6
sS'EventType'
p801
S'TYPE_VIEW_CLICKED'
p802
sS'PackageName'
p803
S'com.netease.cloudmusic'
p804
sS'OutBounds'
p805
S'Rect(0, 50 - 112, 162)'
p806
sS'Action'
p807
S'[ ClassName: android.widget.ImageButton; Text: [\xe8\xbd\xac\xe5\x88\xb0\xe4\xb8\x8a\xe4\xb8\x80\xe5\xb1\x82\xe7\xba\xa7]; ContentDescription: \xe8\xbd\xac\xe5\x88\xb0\xe4\xb8\x8a\xe4\xb8\x80\xe5\xb1\x82\xe7\xba\xa7; ItemCount: -1; CurrentItemIndex: -1; IsEnabled: true; IsPassword: false; IsChecked: false; IsFullScreen: false; Scrollable: false; BeforeText: null; FromIndex: -1; ToIndex: -1; ScrollX: -1; ScrollY: -1; MaxScrollX: -1; MaxScrollY: -1; AddedCount: -1; RemovedCount: -1; ParcelableData: null ]'
p808
sS'MovementGranularity'
p809
g6
sa(dp810
S'EventTime'
p811
S'60614365'
p812
sg4
L1449907761104L
sS'recordCount'
p813
g6
sS'EventType'
p814
S'TYPE_WINDOW_STATE_CHANGED'
p815
sS'PackageName'
p816
S'com.netease.cloudmusic'
p817
sS'OutBounds'
p818
S'Rect(0, 0 - 720, 1280)'
p819
sS'Action'
p820
S'[ ClassName: com.netease.cloudmusic.activity.ThemeListActivity; Text: [\xe4\xb8\xbb\xe9\xa2\x98\xe6\x8d\xa2\xe8\x82\xa4]; ContentDescription: null; ItemCount: -1; CurrentItemIndex: -1; IsEnabled: true; IsPassword: false; IsChecked: false; IsFullScreen: true; Scrollable: false; BeforeText: null; FromIndex: -1; ToIndex: -1; ScrollX: -1; ScrollY: -1; MaxScrollX: -1; MaxScrollY: -1; AddedCount: -1; RemovedCount: -1; ParcelableData: null ]'
p821
sS'MovementGranularity'
p822
g6
sa(dp823
S'EventTime'
p824
S'60614462'
p825
sg4
L1449907761202L
sS'recordCount'
p826
g6
sS'EventType'
p827
S'TYPE_WINDOW_CONTENT_CHANGED'
p828
sS'PackageName'
p829
S'com.netease.cloudmusic'
p830
sS'OutBounds'
p831
S'Rect(0, 0 - 720, 1280)'
p832
sS'Action'
p833
S'[ ClassName: android.widget.FrameLayout; Text: []; ContentDescription: null; ItemCount: -1; CurrentItemIndex: -1; IsEnabled: true; IsPassword: false; IsChecked: false; IsFullScreen: false; Scrollable: false; BeforeText: null; FromIndex: -1; ToIndex: -1; ScrollX: -1; ScrollY: -1; MaxScrollX: -1; MaxScrollY: -1; AddedCount: -1; RemovedCount: -1; ParcelableData: null ]'
p834
sS'MovementGranularity'
p835
g6
sa(dp836
S'EventTime'
p837
S'60615470'
p838
sg4
L1449907762174L
sS'recordCount'
p839
g6
sS'EventType'
p840
S'TYPE_VIEW_CLICKED'
p841
sS'PackageName'
p842
S'com.netease.cloudmusic'
p843
sS'OutBounds'
p844
S'Rect(0, 50 - 112, 162)'
p845
sS'Action'
p846
S'[ ClassName: android.widget.ImageButton; Text: [\xe8\xbd\xac\xe5\x88\xb0\xe4\xb8\x8a\xe4\xb8\x80\xe5\xb1\x82\xe7\xba\xa7]; ContentDescription: \xe8\xbd\xac\xe5\x88\xb0\xe4\xb8\x8a\xe4\xb8\x80\xe5\xb1\x82\xe7\xba\xa7; ItemCount: -1; CurrentItemIndex: -1; IsEnabled: true; IsPassword: false; IsChecked: false; IsFullScreen: false; Scrollable: false; BeforeText: null; FromIndex: -1; ToIndex: -1; ScrollX: -1; ScrollY: -1; MaxScrollX: -1; MaxScrollY: -1; AddedCount: -1; RemovedCount: -1; ParcelableData: null ]'
p847
sS'MovementGranularity'
p848
g6
sa(dp849
S'EventTime'
p850
S'60616039'
p851
sg4
L1449907762832L
sS'recordCount'
p852
g6
sS'EventType'
p853
S'TYPE_WINDOW_STATE_CHANGED'
p854
sS'PackageName'
p855
S'com.netease.cloudmusic'
p856
sS'OutBounds'
p857
S'Rect(0, 0 - 720, 1280)'
p858
sS'Action'
p859
S'[ ClassName: com.netease.cloudmusic.activity.MainActivity; Text: [\xe7\xbd\x91\xe6\x98\x93\xe4\xba\x91\xe9\x9f\xb3\xe4\xb9\x90]; ContentDescription: null; ItemCount: -1; CurrentItemIndex: -1; IsEnabled: true; IsPassword: false; IsChecked: false; IsFullScreen: true; Scrollable: false; BeforeText: null; FromIndex: -1; ToIndex: -1; ScrollX: -1; ScrollY: -1; MaxScrollX: -1; MaxScrollY: -1; AddedCount: -1; RemovedCount: -1; ParcelableData: null ]'
p860
sS'MovementGranularity'
p861
g6
sa(dp862
S'EventTime'
p863
S'60616118'
p864
sg4
L1449907763067L
sS'recordCount'
p865
g6
sS'EventType'
p866
S'TYPE_WINDOW_CONTENT_CHANGED'
p867
sS'PackageName'
p868
S'com.netease.cloudmusic'
p869
sS'OutBounds'
p870
S'Rect(0, 0 - 720, 1280)'
p871
sS'Action'
p872
S'[ ClassName: android.widget.FrameLayout; Text: []; ContentDescription: null; ItemCount: -1; CurrentItemIndex: -1; IsEnabled: true; IsPassword: false; IsChecked: false; IsFullScreen: false; Scrollable: false; BeforeText: null; FromIndex: -1; ToIndex: -1; ScrollX: -1; ScrollY: -1; MaxScrollX: -1; MaxScrollY: -1; AddedCount: -1; RemovedCount: -1; ParcelableData: null ]'
p873
sS'MovementGranularity'
p874
g6
sa(dp875
S'EventTime'
p876
S'60619224'
p877
sg4
L1449907765927L
sS'recordCount'
p878
g6
sS'EventType'
p879
S'TYPE_VIEW_CLICKED'
p880
sS'PackageName'
p881
S'com.netease.cloudmusic'
p882
sS'OutBounds'
p883
S'Rect(0, 50 - 112, 162)'
p884
sS'Action'
p885
S'[ ClassName: android.widget.ImageView; Text: []; ContentDescription: null; ItemCount: -1; CurrentItemIndex: -1; IsEnabled: true; IsPassword: false; IsChecked: false; IsFullScreen: false; Scrollable: false; BeforeText: null; FromIndex: -1; ToIndex: -1; ScrollX: -1; ScrollY: -1; MaxScrollX: -1; MaxScrollY: -1; AddedCount: -1; RemovedCount: -1; ParcelableData: null ]'
p886
sS'MovementGranularity'
p887
g6
sa(dp888
S'EventTime'
p889
S'60619675'
p890
sg4
L1449907766504L
sS'recordCount'
p891
g6
sS'EventType'
p892
S'TYPE_WINDOW_STATE_CHANGED'
p893
sS'PackageName'
p894
S'com.netease.cloudmusic'
p895
sS'OutBounds'
p896
S'Rect(0, 50 - 720, 1280)'
p897
sS'Action'
p898
S'[ ClassName: android.support.v4.widget.DrawerLayout; Text: []; ContentDescription: null; ItemCount: -1; CurrentItemIndex: -1; IsEnabled: true; IsPassword: false; IsChecked: false; IsFullScreen: false; Scrollable: false; BeforeText: null; FromIndex: -1; ToIndex: -1; ScrollX: -1; ScrollY: -1; MaxScrollX: -1; MaxScrollY: -1; AddedCount: -1; RemovedCount: -1; ParcelableData: null ]'
p899
sS'MovementGranularity'
p900
g6
sa(dp901
S'EventTime'
p902
S'60619680'
p903
sg4
L1449907766716L
sS'recordCount'
p904
g6
sS'EventType'
p905
S'TYPE_VIEW_FOCUSED'
p906
sS'PackageName'
p907
S'com.netease.cloudmusic'
p908
sS'OutBounds'
p909
S'Rect(0, 50 - 592, 1280)'
p910
sS'Action'
p911
S'[ ClassName: android.widget.ListView; Text: []; ContentDescription: null; ItemCount: 11; CurrentItemIndex: -1; IsEnabled: true; IsPassword: false; IsChecked: false; IsFullScreen: false; Scrollable: false; BeforeText: null; FromIndex: 0; ToIndex: 10; ScrollX: -1; ScrollY: -1; MaxScrollX: -1; MaxScrollY: -1; AddedCount: -1; RemovedCount: -1; ParcelableData: null ]'
p912
sS'MovementGranularity'
p913
g6
sa(dp914
S'EventTime'
p915
S'60619860'
p916
sg4
L1449907766756L
sS'recordCount'
p917
g6
sS'EventType'
p918
S'TYPE_WINDOW_CONTENT_CHANGED'
p919
sS'PackageName'
p920
S'com.netease.cloudmusic'
p921
sS'OutBounds'
p922
S'Rect(0, 0 - 720, 1280)'
p923
sS'Action'
p924
S'[ ClassName: android.widget.FrameLayout; Text: []; ContentDescription: null; ItemCount: -1; CurrentItemIndex: -1; IsEnabled: true; IsPassword: false; IsChecked: false; IsFullScreen: false; Scrollable: false; BeforeText: null; FromIndex: -1; ToIndex: -1; ScrollX: -1; ScrollY: -1; MaxScrollX: -1; MaxScrollY: -1; AddedCount: -1; RemovedCount: -1; ParcelableData: null ]'
p925
sS'MovementGranularity'
p926
g6
sa(dp927
S'EventTime'
p928
S'60620164'
p929
sg4
L1449907766923L
sS'recordCount'
p930
g6
sS'EventType'
p931
S'TYPE_WINDOW_CONTENT_CHANGED'
p932
sS'PackageName'
p933
S'com.netease.cloudmusic'
p934
sS'OutBounds'
p935
S'Rect(0, 0 - 720, 1280)'
p936
sS'Action'
p937
S'[ ClassName: android.widget.FrameLayout; Text: []; ContentDescription: null; ItemCount: -1; CurrentItemIndex: -1; IsEnabled: true; IsPassword: false; IsChecked: false; IsFullScreen: false; Scrollable: false; BeforeText: null; FromIndex: -1; ToIndex: -1; ScrollX: -1; ScrollY: -1; MaxScrollX: -1; MaxScrollY: -1; AddedCount: -1; RemovedCount: -1; ParcelableData: null ]'
p938
sS'MovementGranularity'
p939
g6
sa(dp940
S'EventTime'
p941
S'60622338'
p942
sg4
L1449907769083L
sS'recordCount'
p943
g6
sS'EventType'
p944
S'TYPE_VIEW_CLICKED'
p945
sS'PackageName'
p946
S'com.netease.cloudmusic'
p947
sS'OutBounds'
p948
S'Rect(-429, 1188 - -133, 1280)'
p949
sS'Action'
p950
S'[ ClassName: android.widget.TextView; Text: [\xe8\xae\xbe\xe7\xbd\xae]; ContentDescription: null; ItemCount: -1; CurrentItemIndex: -1; IsEnabled: true; IsPassword: false; IsChecked: false; IsFullScreen: false; Scrollable: false; BeforeText: null; FromIndex: -1; ToIndex: -1; ScrollX: -1; ScrollY: -1; MaxScrollX: -1; MaxScrollY: -1; AddedCount: -1; RemovedCount: -1; ParcelableData: null ]'
p951
sS'MovementGranularity'
p952
g6
sa(dp953
S'EventTime'
p954
S'60623055'
p955
sg4
L1449907769887L
sS'recordCount'
p956
g6
sS'EventType'
p957
S'TYPE_WINDOW_STATE_CHANGED'
p958
sS'PackageName'
p959
S'com.netease.cloudmusic'
p960
sS'OutBounds'
p961
S'Rect(0, 0 - 720, 1280)'
p962
sS'Action'
p963
S'[ ClassName: com.netease.cloudmusic.activity.MainActivity; Text: [\xe7\xbd\x91\xe6\x98\x93\xe4\xba\x91\xe9\x9f\xb3\xe4\xb9\x90]; ContentDescription: null; ItemCount: -1; CurrentItemIndex: -1; IsEnabled: true; IsPassword: false; IsChecked: false; IsFullScreen: true; Scrollable: false; BeforeText: null; FromIndex: -1; ToIndex: -1; ScrollX: -1; ScrollY: -1; MaxScrollX: -1; MaxScrollY: -1; AddedCount: -1; RemovedCount: -1; ParcelableData: null ]'
p964
sS'MovementGranularity'
p965
g6
sa(dp966
S'EventTime'
p967
S'60623074'
p968
sg4
L1449907770009L
sS'recordCount'
p969
g6
sS'EventType'
p970
S'TYPE_WINDOW_CONTENT_CHANGED'
p971
sS'PackageName'
p972
S'com.netease.cloudmusic'
p973
sS'OutBounds'
p974
S'Rect(0, 0 - 720, 1280)'
p975
sS'Action'
p976
S'[ ClassName: android.widget.FrameLayout; Text: []; ContentDescription: null; ItemCount: -1; CurrentItemIndex: -1; IsEnabled: true; IsPassword: false; IsChecked: false; IsFullScreen: false; Scrollable: false; BeforeText: null; FromIndex: -1; ToIndex: -1; ScrollX: -1; ScrollY: -1; MaxScrollX: -1; MaxScrollY: -1; AddedCount: -1; RemovedCount: -1; ParcelableData: null ]'
p977
sS'MovementGranularity'
p978
g6
sa(dp979
S'EventTime'
p980
S'60623413'
p981
sg4
L1449907770132L
sS'recordCount'
p982
g6
sS'EventType'
p983
S'TYPE_WINDOW_STATE_CHANGED'
p984
sS'PackageName'
p985
S'com.netease.cloudmusic'
p986
sS'OutBounds'
p987
S'Rect(0, 0 - 720, 1280)'
p988
sS'Action'
p989
S'[ ClassName: com.netease.cloudmusic.activity.SettingActivity; Text: [\xe8\xae\xbe\xe7\xbd\xae]; ContentDescription: null; ItemCount: -1; CurrentItemIndex: -1; IsEnabled: true; IsPassword: false; IsChecked: false; IsFullScreen: true; Scrollable: false; BeforeText: null; FromIndex: -1; ToIndex: -1; ScrollX: -1; ScrollY: -1; MaxScrollX: -1; MaxScrollY: -1; AddedCount: -1; RemovedCount: -1; ParcelableData: null ]'
p990
sS'MovementGranularity'
p991
g6
sa(dp992
S'EventTime'
p993
S'60623528'
p994
sg4
L1449907770264L
sS'recordCount'
p995
g6
sS'EventType'
p996
S'TYPE_WINDOW_CONTENT_CHANGED'
p997
sS'PackageName'
p998
S'com.netease.cloudmusic'
p999
sS'OutBounds'
p1000
S'Rect(0, 0 - 720, 1280)'
p1001
sS'Action'
p1002
S'[ ClassName: android.widget.FrameLayout; Text: []; ContentDescription: null; ItemCount: -1; CurrentItemIndex: -1; IsEnabled: true; IsPassword: false; IsChecked: false; IsFullScreen: false; Scrollable: false; BeforeText: null; FromIndex: -1; ToIndex: -1; ScrollX: -1; ScrollY: -1; MaxScrollX: -1; MaxScrollY: -1; AddedCount: -1; RemovedCount: -1; ParcelableData: null ]'
p1003
sS'MovementGranularity'
p1004
g6
sa(dp1005
S'EventTime'
p1006
S'60624683'
p1007
sg4
L1449907771419L
sS'recordCount'
p1008
g6
sS'EventType'
p1009
S'TYPE_VIEW_SCROLLED'
p1010
sS'PackageName'
p1011
S'com.netease.cloudmusic'
p1012
sS'OutBounds'
p1013
S'Rect(0, 162 - 720, 1280)'
p1014
sS'Action'
p1015
S'[ ClassName: android.widget.ScrollView; Text: []; ContentDescription: null; ItemCount: -1; CurrentItemIndex: -1; IsEnabled: true; IsPassword: false; IsChecked: false; IsFullScreen: false; Scrollable: true; BeforeText: null; FromIndex: -1; ToIndex: -1; ScrollX: 0; ScrollY: 425; MaxScrollX: 0; MaxScrollY: 1398; AddedCount: -1; RemovedCount: -1; ParcelableData: null ]'
p1016
sS'MovementGranularity'
p1017
g6
sa(dp1018
S'EventTime'
p1019
S'60624822'
p1020
sg4
L1449907771579L
sS'recordCount'
p1021
g6
sS'EventType'
p1022
S'TYPE_VIEW_SCROLLED'
p1023
sS'PackageName'
p1024
S'com.netease.cloudmusic'
p1025
sS'OutBounds'
p1026
S'Rect(0, 162 - 720, 1280)'
p1027
sS'Action'
p1028
S'[ ClassName: android.widget.ScrollView; Text: []; ContentDescription: null; ItemCount: -1; CurrentItemIndex: -1; IsEnabled: true; IsPassword: false; IsChecked: false; IsFullScreen: false; Scrollable: true; BeforeText: null; FromIndex: -1; ToIndex: -1; ScrollX: 0; ScrollY: 607; MaxScrollX: 0; MaxScrollY: 1398; AddedCount: -1; RemovedCount: -1; ParcelableData: null ]'
p1029
sS'MovementGranularity'
p1030
g6
sa(dp1031
S'EventTime'
p1032
S'60624972'
p1033
sg4
L1449907771712L
sS'recordCount'
p1034
g6
sS'EventType'
p1035
S'TYPE_VIEW_SCROLLED'
p1036
sS'PackageName'
p1037
S'com.netease.cloudmusic'
p1038
sS'OutBounds'
p1039
S'Rect(0, 162 - 720, 1280)'
p1040
sS'Action'
p1041
S'[ ClassName: android.widget.ScrollView; Text: []; ContentDescription: null; ItemCount: -1; CurrentItemIndex: -1; IsEnabled: true; IsPassword: false; IsChecked: false; IsFullScreen: false; Scrollable: true; BeforeText: null; FromIndex: -1; ToIndex: -1; ScrollX: 0; ScrollY: 665; MaxScrollX: 0; MaxScrollY: 1398; AddedCount: -1; RemovedCount: -1; ParcelableData: null ]'
p1042
sS'MovementGranularity'
p1043
g6
sa(dp1044
S'EventTime'
p1045
S'60625078'
p1046
sg4
L1449907771814L
sS'recordCount'
p1047
g6
sS'EventType'
p1048
S'TYPE_VIEW_SCROLLED'
p1049
sS'PackageName'
p1050
S'com.netease.cloudmusic'
p1051
sS'OutBounds'
p1052
S'Rect(0, 162 - 720, 1280)'
p1053
sS'Action'
p1054
S'[ ClassName: android.widget.ScrollView; Text: []; ContentDescription: null; ItemCount: -1; CurrentItemIndex: -1; IsEnabled: true; IsPassword: false; IsChecked: false; IsFullScreen: false; Scrollable: true; BeforeText: null; FromIndex: -1; ToIndex: -1; ScrollX: 0; ScrollY: 677; MaxScrollX: 0; MaxScrollY: 1398; AddedCount: -1; RemovedCount: -1; ParcelableData: null ]'
p1055
sS'MovementGranularity'
p1056
g6
sa(dp1057
S'EventTime'
p1058
S'60625719'
p1059
sg4
L1449907772455L
sS'recordCount'
p1060
g6
sS'EventType'
p1061
S'TYPE_VIEW_SCROLLED'
p1062
sS'PackageName'
p1063
S'com.netease.cloudmusic'
p1064
sS'OutBounds'
p1065
S'Rect(0, 162 - 720, 1280)'
p1066
sS'Action'
p1067
S'[ ClassName: android.widget.ScrollView; Text: []; ContentDescription: null; ItemCount: -1; CurrentItemIndex: -1; IsEnabled: true; IsPassword: false; IsChecked: false; IsFullScreen: false; Scrollable: true; BeforeText: null; FromIndex: -1; ToIndex: -1; ScrollX: 0; ScrollY: 1125; MaxScrollX: 0; MaxScrollY: 1398; AddedCount: -1; RemovedCount: -1; ParcelableData: null ]'
p1068
sS'MovementGranularity'
p1069
g6
sa(dp1070
S'EventTime'
p1071
S'60625857'
p1072
sg4
L1449907772591L
sS'recordCount'
p1073
g6
sS'EventType'
p1074
S'TYPE_VIEW_SCROLLED'
p1075
sS'PackageName'
p1076
S'com.netease.cloudmusic'
p1077
sS'OutBounds'
p1078
S'Rect(0, 162 - 720, 1280)'
p1079
sS'Action'
p1080
S'[ ClassName: android.widget.ScrollView; Text: []; ContentDescription: null; ItemCount: -1; CurrentItemIndex: -1; IsEnabled: true; IsPassword: false; IsChecked: false; IsFullScreen: false; Scrollable: true; BeforeText: null; FromIndex: -1; ToIndex: -1; ScrollX: 0; ScrollY: 1254; MaxScrollX: 0; MaxScrollY: 1398; AddedCount: -1; RemovedCount: -1; ParcelableData: null ]'
p1081
sS'MovementGranularity'
p1082
g6
sa(dp1083
S'EventTime'
p1084
S'60625959'
p1085
sg4
L1449907772695L
sS'recordCount'
p1086
g6
sS'EventType'
p1087
S'TYPE_VIEW_SCROLLED'
p1088
sS'PackageName'
p1089
S'com.netease.cloudmusic'
p1090
sS'OutBounds'
p1091
S'Rect(0, 162 - 720, 1280)'
p1092
sS'Action'
p1093
S'[ ClassName: android.widget.ScrollView; Text: []; ContentDescription: null; ItemCount: -1; CurrentItemIndex: -1; IsEnabled: true; IsPassword: false; IsChecked: false; IsFullScreen: false; Scrollable: true; BeforeText: null; FromIndex: -1; ToIndex: -1; ScrollX: 0; ScrollY: 1259; MaxScrollX: 0; MaxScrollY: 1398; AddedCount: -1; RemovedCount: -1; ParcelableData: null ]'
p1094
sS'MovementGranularity'
p1095
g6
sa(dp1096
S'EventTime'
p1097
S'60626558'
p1098
sg4
L1449907773293L
sS'recordCount'
p1099
g6
sS'EventType'
p1100
S'TYPE_VIEW_SCROLLED'
p1101
sS'PackageName'
p1102
S'com.netease.cloudmusic'
p1103
sS'OutBounds'
p1104
S'Rect(0, 162 - 720, 1280)'
p1105
sS'Action'
p1106
S'[ ClassName: android.widget.ScrollView; Text: []; ContentDescription: null; ItemCount: -1; CurrentItemIndex: -1; IsEnabled: true; IsPassword: false; IsChecked: false; IsFullScreen: false; Scrollable: true; BeforeText: null; FromIndex: -1; ToIndex: -1; ScrollX: 0; ScrollY: 1398; MaxScrollX: 0; MaxScrollY: 1398; AddedCount: -1; RemovedCount: -1; ParcelableData: null ]'
p1107
sS'MovementGranularity'
p1108
g6
sa(dp1109
S'EventTime'
p1110
S'60626696'
p1111
sg4
L1449907773436L
sS'recordCount'
p1112
g6
sS'EventType'
p1113
S'TYPE_VIEW_SCROLLED'
p1114
sS'PackageName'
p1115
S'com.netease.cloudmusic'
p1116
sS'OutBounds'
p1117
S'Rect(0, 162 - 720, 1280)'
p1118
sS'Action'
p1119
S'[ ClassName: android.widget.ScrollView; Text: []; ContentDescription: null; ItemCount: -1; CurrentItemIndex: -1; IsEnabled: true; IsPassword: false; IsChecked: false; IsFullScreen: false; Scrollable: true; BeforeText: null; FromIndex: -1; ToIndex: -1; ScrollX: 0; ScrollY: 1398; MaxScrollX: 0; MaxScrollY: 1398; AddedCount: -1; RemovedCount: -1; ParcelableData: null ]'
p1120
sS'MovementGranularity'
p1121
g6
sa(dp1122
S'EventTime'
p1123
S'60627512'
p1124
sg4
L1449907774247L
sS'recordCount'
p1125
g6
sS'EventType'
p1126
S'TYPE_VIEW_SCROLLED'
p1127
sS'PackageName'
p1128
S'com.netease.cloudmusic'
p1129
sS'OutBounds'
p1130
S'Rect(0, 162 - 720, 1280)'
p1131
sS'Action'
p1132
S'[ ClassName: android.widget.ScrollView; Text: []; ContentDescription: null; ItemCount: -1; CurrentItemIndex: -1; IsEnabled: true; IsPassword: false; IsChecked: false; IsFullScreen: false; Scrollable: true; BeforeText: null; FromIndex: -1; ToIndex: -1; ScrollX: 0; ScrollY: 1181; MaxScrollX: 0; MaxScrollY: 1398; AddedCount: -1; RemovedCount: -1; ParcelableData: null ]'
p1133
sS'MovementGranularity'
p1134
g6
sa(dp1135
S'EventTime'
p1136
S'60627648'
p1137
sg4
L1449907774391L
sS'recordCount'
p1138
g6
sS'EventType'
p1139
S'TYPE_VIEW_SCROLLED'
p1140
sS'PackageName'
p1141
S'com.netease.cloudmusic'
p1142
sS'OutBounds'
p1143
S'Rect(0, 162 - 720, 1280)'
p1144
sS'Action'
p1145
S'[ ClassName: android.widget.ScrollView; Text: []; ContentDescription: null; ItemCount: -1; CurrentItemIndex: -1; IsEnabled: true; IsPassword: false; IsChecked: false; IsFullScreen: false; Scrollable: true; BeforeText: null; FromIndex: -1; ToIndex: -1; ScrollX: 0; ScrollY: 1157; MaxScrollX: 0; MaxScrollY: 1398; AddedCount: -1; RemovedCount: -1; ParcelableData: null ]'
p1146
sS'MovementGranularity'
p1147
g6
sa(dp1148
S'EventTime'
p1149
S'60627784'
p1150
sg4
L1449907774524L
sS'recordCount'
p1151
g6
sS'EventType'
p1152
S'TYPE_VIEW_SCROLLED'
p1153
sS'PackageName'
p1154
S'com.netease.cloudmusic'
p1155
sS'OutBounds'
p1156
S'Rect(0, 162 - 720, 1280)'
p1157
sS'Action'
p1158
S'[ ClassName: android.widget.ScrollView; Text: []; ContentDescription: null; ItemCount: -1; CurrentItemIndex: -1; IsEnabled: true; IsPassword: false; IsChecked: false; IsFullScreen: false; Scrollable: true; BeforeText: null; FromIndex: -1; ToIndex: -1; ScrollX: 0; ScrollY: 1117; MaxScrollX: 0; MaxScrollY: 1398; AddedCount: -1; RemovedCount: -1; ParcelableData: null ]'
p1159
sS'MovementGranularity'
p1160
g6
sa(dp1161
S'EventTime'
p1162
S'60627890'
p1163
sg4
L1449907774623L
sS'recordCount'
p1164
g6
sS'EventType'
p1165
S'TYPE_VIEW_SCROLLED'
p1166
sS'PackageName'
p1167
S'com.netease.cloudmusic'
p1168
sS'OutBounds'
p1169
S'Rect(0, 162 - 720, 1280)'
p1170
sS'Action'
p1171
S'[ ClassName: android.widget.ScrollView; Text: []; ContentDescription: null; ItemCount: -1; CurrentItemIndex: -1; IsEnabled: true; IsPassword: false; IsChecked: false; IsFullScreen: false; Scrollable: true; BeforeText: null; FromIndex: -1; ToIndex: -1; ScrollX: 0; ScrollY: 993; MaxScrollX: 0; MaxScrollY: 1398; AddedCount: -1; RemovedCount: -1; ParcelableData: null ]'
p1172
sS'MovementGranularity'
p1173
g6
sa(dp1174
S'EventTime'
p1175
S'60628023'
p1176
sg4
L1449907774758L
sS'recordCount'
p1177
g6
sS'EventType'
p1178
S'TYPE_VIEW_SCROLLED'
p1179
sS'PackageName'
p1180
S'com.netease.cloudmusic'
p1181
sS'OutBounds'
p1182
S'Rect(0, 162 - 720, 1280)'
p1183
sS'Action'
p1184
S'[ ClassName: android.widget.ScrollView; Text: []; ContentDescription: null; ItemCount: -1; CurrentItemIndex: -1; IsEnabled: true; IsPassword: false; IsChecked: false; IsFullScreen: false; Scrollable: true; BeforeText: null; FromIndex: -1; ToIndex: -1; ScrollX: 0; ScrollY: 910; MaxScrollX: 0; MaxScrollY: 1398; AddedCount: -1; RemovedCount: -1; ParcelableData: null ]'
p1185
sS'MovementGranularity'
p1186
g6
sa(dp1187
S'EventTime'
p1188
S'60628159'
p1189
sg4
L1449907774903L
sS'recordCount'
p1190
g6
sS'EventType'
p1191
S'TYPE_VIEW_SCROLLED'
p1192
sS'PackageName'
p1193
S'com.netease.cloudmusic'
p1194
sS'OutBounds'
p1195
S'Rect(0, 162 - 720, 1280)'
p1196
sS'Action'
p1197
S'[ ClassName: android.widget.ScrollView; Text: []; ContentDescription: null; ItemCount: -1; CurrentItemIndex: -1; IsEnabled: true; IsPassword: false; IsChecked: false; IsFullScreen: false; Scrollable: true; BeforeText: null; FromIndex: -1; ToIndex: -1; ScrollX: 0; ScrollY: 814; MaxScrollX: 0; MaxScrollY: 1398; AddedCount: -1; RemovedCount: -1; ParcelableData: null ]'
p1198
sS'MovementGranularity'
p1199
g6
sa(dp1200
S'EventTime'
p1201
S'60628268'
p1202
sg4
L1449907775004L
sS'recordCount'
p1203
g6
sS'EventType'
p1204
S'TYPE_VIEW_SCROLLED'
p1205
sS'PackageName'
p1206
S'com.netease.cloudmusic'
p1207
sS'OutBounds'
p1208
S'Rect(0, 162 - 720, 1280)'
p1209
sS'Action'
p1210
S'[ ClassName: android.widget.ScrollView; Text: []; ContentDescription: null; ItemCount: -1; CurrentItemIndex: -1; IsEnabled: true; IsPassword: false; IsChecked: false; IsFullScreen: false; Scrollable: true; BeforeText: null; FromIndex: -1; ToIndex: -1; ScrollX: 0; ScrollY: 758; MaxScrollX: 0; MaxScrollY: 1398; AddedCount: -1; RemovedCount: -1; ParcelableData: null ]'
p1211
sS'MovementGranularity'
p1212
g6
sa(dp1213
S'EventTime'
p1214
S'60628406'
p1215
sg4
L1449907775148L
sS'recordCount'
p1216
g6
sS'EventType'
p1217
S'TYPE_VIEW_SCROLLED'
p1218
sS'PackageName'
p1219
S'com.netease.cloudmusic'
p1220
sS'OutBounds'
p1221
S'Rect(0, 162 - 720, 1280)'
p1222
sS'Action'
p1223
S'[ ClassName: android.widget.ScrollView; Text: []; ContentDescription: null; ItemCount: -1; CurrentItemIndex: -1; IsEnabled: true; IsPassword: false; IsChecked: false; IsFullScreen: false; Scrollable: true; BeforeText: null; FromIndex: -1; ToIndex: -1; ScrollX: 0; ScrollY: 748; MaxScrollX: 0; MaxScrollY: 1398; AddedCount: -1; RemovedCount: -1; ParcelableData: null ]'
p1224
sS'MovementGranularity'
p1225
g6
sa(dp1226
S'EventTime'
p1227
S'60628515'
p1228
sg4
L1449907775250L
sS'recordCount'
p1229
g6
sS'EventType'
p1230
S'TYPE_VIEW_SCROLLED'
p1231
sS'PackageName'
p1232
S'com.netease.cloudmusic'
p1233
sS'OutBounds'
p1234
S'Rect(0, 162 - 720, 1280)'
p1235
sS'Action'
p1236
S'[ ClassName: android.widget.ScrollView; Text: []; ContentDescription: null; ItemCount: -1; CurrentItemIndex: -1; IsEnabled: true; IsPassword: false; IsChecked: false; IsFullScreen: false; Scrollable: true; BeforeText: null; FromIndex: -1; ToIndex: -1; ScrollX: 0; ScrollY: 744; MaxScrollX: 0; MaxScrollY: 1398; AddedCount: -1; RemovedCount: -1; ParcelableData: null ]'
p1237
sS'MovementGranularity'
p1238
g6
sa(dp1239
S'EventTime'
p1240
S'60628651'
p1241
sg4
L1449907775385L
sS'recordCount'
p1242
g6
sS'EventType'
p1243
S'TYPE_VIEW_SCROLLED'
p1244
sS'PackageName'
p1245
S'com.netease.cloudmusic'
p1246
sS'OutBounds'
p1247
S'Rect(0, 162 - 720, 1280)'
p1248
sS'Action'
p1249
S'[ ClassName: android.widget.ScrollView; Text: []; ContentDescription: null; ItemCount: -1; CurrentItemIndex: -1; IsEnabled: true; IsPassword: false; IsChecked: false; IsFullScreen: false; Scrollable: true; BeforeText: null; FromIndex: -1; ToIndex: -1; ScrollX: 0; ScrollY: 729; MaxScrollX: 0; MaxScrollY: 1398; AddedCount: -1; RemovedCount: -1; ParcelableData: null ]'
p1250
sS'MovementGranularity'
p1251
g6
sa(dp1252
S'EventTime'
p1253
S'60628778'
p1254
sg4
L1449907775515L
sS'recordCount'
p1255
g6
sS'EventType'
p1256
S'TYPE_VIEW_SCROLLED'
p1257
sS'PackageName'
p1258
S'com.netease.cloudmusic'
p1259
sS'OutBounds'
p1260
S'Rect(0, 162 - 720, 1280)'
p1261
sS'Action'
p1262
S'[ ClassName: android.widget.ScrollView; Text: []; ContentDescription: null; ItemCount: -1; CurrentItemIndex: -1; IsEnabled: true; IsPassword: false; IsChecked: false; IsFullScreen: false; Scrollable: true; BeforeText: null; FromIndex: -1; ToIndex: -1; ScrollX: 0; ScrollY: 726; MaxScrollX: 0; MaxScrollY: 1398; AddedCount: -1; RemovedCount: -1; ParcelableData: null ]'
p1263
sS'MovementGranularity'
p1264
g6
sa(dp1265
S'EventTime'
p1266
S'60629139'
p1267
sg4
L1449907775842L
sS'recordCount'
p1268
g6
sS'EventType'
p1269
S'TYPE_VIEW_CLICKED'
p1270
sS'PackageName'
p1271
S'com.netease.cloudmusic'
p1272
sS'OutBounds'
p1273
S'Rect(0, 474 - 720, 574)'
p1274
sS'Action'
p1275
S'[ ClassName: android.widget.TextView; Text: [\xe5\xb8\x90\xe5\x8f\xb7\xe5\x92\x8c\xe7\xbb\x91\xe5\xae\x9a\xe8\xae\xbe\xe7\xbd\xae]; ContentDescription: null; ItemCount: -1; CurrentItemIndex: -1; IsEnabled: true; IsPassword: false; IsChecked: false; IsFullScreen: false; Scrollable: false; BeforeText: null; FromIndex: -1; ToIndex: -1; ScrollX: -1; ScrollY: -1; MaxScrollX: -1; MaxScrollY: -1; AddedCount: -1; RemovedCount: -1; ParcelableData: null ]'
p1276
sS'MovementGranularity'
p1277
g6
sa(dp1278
S'EventTime'
p1279
S'60629480'
p1280
sg4
L1449907776208L
sS'recordCount'
p1281
g6
sS'EventType'
p1282
S'TYPE_WINDOW_STATE_CHANGED'
p1283
sS'PackageName'
p1284
S'com.netease.cloudmusic'
p1285
sS'OutBounds'
p1286
S'Rect(0, 0 - 720, 1280)'
p1287
sS'Action'
p1288
S'[ ClassName: com.netease.cloudmusic.activity.BindSettingActivity; Text: [\xe5\xb8\x90\xe5\x8f\xb7\xe5\x92\x8c\xe7\xbb\x91\xe5\xae\x9a\xe8\xae\xbe\xe7\xbd\xae]; ContentDescription: null; ItemCount: -1; CurrentItemIndex: -1; IsEnabled: true; IsPassword: false; IsChecked: false; IsFullScreen: true; Scrollable: false; BeforeText: null; FromIndex: -1; ToIndex: -1; ScrollX: -1; ScrollY: -1; MaxScrollX: -1; MaxScrollY: -1; AddedCount: -1; RemovedCount: -1; ParcelableData: null ]'
p1289
sS'MovementGranularity'
p1290
g6
sa(dp1291
S'EventTime'
p1292
S'60629481'
p1293
sg4
L1449907776235L
sS'recordCount'
p1294
g6
sS'EventType'
p1295
S'TYPE_WINDOW_CONTENT_CHANGED'
p1296
sS'PackageName'
p1297
S'com.netease.cloudmusic'
p1298
sS'OutBounds'
p1299
S'Rect(0, 0 - 720, 1280)'
p1300
sS'Action'
p1301
S'[ ClassName: android.widget.FrameLayout; Text: []; ContentDescription: null; ItemCount: -1; CurrentItemIndex: -1; IsEnabled: true; IsPassword: false; IsChecked: false; IsFullScreen: false; Scrollable: false; BeforeText: null; FromIndex: -1; ToIndex: -1; ScrollX: -1; ScrollY: -1; MaxScrollX: -1; MaxScrollY: -1; AddedCount: -1; RemovedCount: -1; ParcelableData: null ]'
p1302
sS'MovementGranularity'
p1303
g6
sa(dp1304
S'EventTime'
p1305
S'60629567'
p1306
sg4
L1449907776282L
sS'recordCount'
p1307
g6
sS'EventType'
p1308
S'TYPE_VIEW_SCROLLED'
p1309
sS'PackageName'
p1310
S'com.netease.cloudmusic'
p1311
sS'OutBounds'
p1312
S'Rect(0, 921 - 720, 1121)'
p1313
sS'Action'
p1314
S'[ ClassName: android.support.v7.widget.RecyclerView; Text: []; ContentDescription: null; ItemCount: 2; CurrentItemIndex: -1; IsEnabled: true; IsPassword: false; IsChecked: false; IsFullScreen: false; Scrollable: false; BeforeText: null; FromIndex: 0; ToIndex: 1; ScrollX: -1; ScrollY: -1; MaxScrollX: -1; MaxScrollY: -1; AddedCount: -1; RemovedCount: -1; ParcelableData: null ]'
p1315
sS'MovementGranularity'
p1316
g6
sa(dp1317
S'EventTime'
p1318
S'60629604'
p1319
sg4
L1449907776331L
sS'recordCount'
p1320
g6
sS'EventType'
p1321
S'TYPE_WINDOW_CONTENT_CHANGED'
p1322
sS'PackageName'
p1323
S'com.netease.cloudmusic'
p1324
sS'OutBounds'
p1325
S'Rect(0, 0 - 720, 1280)'
p1326
sS'Action'
p1327
S'[ ClassName: android.widget.FrameLayout; Text: []; ContentDescription: null; ItemCount: -1; CurrentItemIndex: -1; IsEnabled: true; IsPassword: false; IsChecked: false; IsFullScreen: false; Scrollable: false; BeforeText: null; FromIndex: -1; ToIndex: -1; ScrollX: -1; ScrollY: -1; MaxScrollX: -1; MaxScrollY: -1; AddedCount: -1; RemovedCount: -1; ParcelableData: null ]'
p1328
sS'MovementGranularity'
p1329
g6
sa.