(lp0
(dp1
S'EventTime'
p2
S'14463521'
p3
sS'SyscTime'
p4
L1449728448544L
sS'recordCount'
p5
S'0'
p6
sS'EventType'
p7
S'TYPE_WINDOW_STATE_CHANGED'
p8
sS'PackageName'
p9
S'com.xdf.ucan'
p10
sS'OutBounds'
p11
S'Rect(0, 0 - 480, 854)'
p12
sS'Action'
p13
S'[ ClassName: com.xdf.ucan.ui.login.StartActivity; Text: [\xe4\xbc\x98\xe6\x92\xad\xe8\xaf\xbe]; ContentDescription: null; ItemCount: -1; CurrentItemIndex: -1; IsEnabled: true; IsPassword: false; IsChecked: false; IsFullScreen: true; Scrollable: false; BeforeText: null; FromIndex: -1; ToIndex: -1; ScrollX: -1; ScrollY: -1; MaxScrollX: -1; MaxScrollY: -1; AddedCount: -1; RemovedCount: -1; ParcelableData: null ]'
p14
sS'MovementGranularity'
p15
g6
sa(dp16
S'EventTime'
p17
S'14463522'
p18
sg4
L1449728448551L
sS'recordCount'
p19
g6
sS'EventType'
p20
S'TYPE_WINDOW_CONTENT_CHANGED'
p21
sS'PackageName'
p22
S'com.xdf.ucan'
p23
sS'OutBounds'
p24
S'Rect(0, 0 - 480, 854)'
p25
sS'Action'
p26
S'[ ClassName: android.widget.FrameLayout; Text: []; ContentDescription: null; ItemCount: -1; CurrentItemIndex: -1; IsEnabled: true; IsPassword: false; IsChecked: false; IsFullScreen: false; Scrollable: false; BeforeText: null; FromIndex: -1; ToIndex: -1; ScrollX: -1; ScrollY: -1; MaxScrollX: -1; MaxScrollY: -1; AddedCount: -1; RemovedCount: -1; ParcelableData: null ]'
p27
sS'MovementGranularity'
p28
g6
sa(dp29
S'EventTime'
p30
S'14463627'
p31
sg4
L1449728448646L
sS'recordCount'
p32
g6
sS'EventType'
p33
S'TYPE_WINDOW_CONTENT_CHANGED'
p34
sS'PackageName'
p35
S'com.xdf.ucan'
p36
sS'OutBounds'
p37
S'Rect(0, 0 - 480, 854)'
p38
sS'Action'
p39
S'[ ClassName: android.widget.FrameLayout; Text: []; ContentDescription: null; ItemCount: -1; CurrentItemIndex: -1; IsEnabled: true; IsPassword: false; IsChecked: false; IsFullScreen: false; Scrollable: false; BeforeText: null; FromIndex: -1; ToIndex: -1; ScrollX: -1; ScrollY: -1; MaxScrollX: -1; MaxScrollY: -1; AddedCount: -1; RemovedCount: -1; ParcelableData: null ]'
p40
sS'MovementGranularity'
p41
g6
sa(dp42
S'EventTime'
p43
S'14464111'
p44
sg4
L1449728449135L
sS'recordCount'
p45
g6
sS'EventType'
p46
S'TYPE_WINDOW_CONTENT_CHANGED'
p47
sS'PackageName'
p48
S'com.xdf.ucan'
p49
sS'OutBounds'
p50
S'Rect(0, 0 - 480, 854)'
p51
sS'Action'
p52
S'[ ClassName: android.widget.FrameLayout; Text: []; ContentDescription: null; ItemCount: -1; CurrentItemIndex: -1; IsEnabled: true; IsPassword: false; IsChecked: false; IsFullScreen: false; Scrollable: false; BeforeText: null; FromIndex: -1; ToIndex: -1; ScrollX: -1; ScrollY: -1; MaxScrollX: -1; MaxScrollY: -1; AddedCount: -1; RemovedCount: -1; ParcelableData: null ]'
p53
sS'MovementGranularity'
p54
g6
sa(dp55
S'EventTime'
p56
S'14464515'
p57
sg4
L1449728449566L
sS'recordCount'
p58
g6
sS'EventType'
p59
S'TYPE_VIEW_FOCUSED'
p60
sS'PackageName'
p61
S'com.xdf.ucan'
p62
sS'OutBounds'
p63
S'Rect(45, 317 - 435, 390)'
p64
sS'Action'
p65
S'[ ClassName: android.widget.EditText; Text: [13182898803]; ContentDescription: null; ItemCount: 3; CurrentItemIndex: 0; IsEnabled: true; IsPassword: false; IsChecked: false; IsFullScreen: false; Scrollable: false; BeforeText: null; FromIndex: -1; ToIndex: -1; ScrollX: -1; ScrollY: -1; MaxScrollX: -1; MaxScrollY: -1; AddedCount: -1; RemovedCount: -1; ParcelableData: null ]'
p66
sS'MovementGranularity'
p67
g6
sa(dp68
S'EventTime'
p69
S'14464534'
p70
sg4
L1449728449650L
sS'recordCount'
p71
g6
sS'EventType'
p72
S'TYPE_WINDOW_STATE_CHANGED'
p73
sS'PackageName'
p74
S'com.xdf.ucan'
p75
sS'OutBounds'
p76
S'Rect(0, 0 - 480, 854)'
p77
sS'Action'
p78
S'[ ClassName: com.xdf.ucan.ui.login.LoginActivity; Text: [\xe4\xbc\x98\xe6\x92\xad\xe8\xaf\xbe]; ContentDescription: null; ItemCount: -1; CurrentItemIndex: -1; IsEnabled: true; IsPassword: false; IsChecked: false; IsFullScreen: true; Scrollable: false; BeforeText: null; FromIndex: -1; ToIndex: -1; ScrollX: -1; ScrollY: -1; MaxScrollX: -1; MaxScrollY: -1; AddedCount: -1; RemovedCount: -1; ParcelableData: null ]'
p79
sS'MovementGranularity'
p80
g6
sa(dp81
S'EventTime'
p82
S'14464535'
p83
sg4
L1449728449702L
sS'recordCount'
p84
g6
sS'EventType'
p85
S'TYPE_WINDOW_CONTENT_CHANGED'
p86
sS'PackageName'
p87
S'com.xdf.ucan'
p88
sS'OutBounds'
p89
S'Rect(0, 0 - 480, 854)'
p90
sS'Action'
p91
S'[ ClassName: android.widget.FrameLayout; Text: []; ContentDescription: null; ItemCount: -1; CurrentItemIndex: -1; IsEnabled: true; IsPassword: false; IsChecked: false; IsFullScreen: false; Scrollable: false; BeforeText: null; FromIndex: -1; ToIndex: -1; ScrollX: -1; ScrollY: -1; MaxScrollX: -1; MaxScrollY: -1; AddedCount: -1; RemovedCount: -1; ParcelableData: null ]'
p92
sS'MovementGranularity'
p93
g6
sa(dp94
S'EventTime'
p95
S'14464660'
p96
sg4
L1449728449730L
sS'recordCount'
p97
g6
sS'EventType'
p98
S'TYPE_WINDOW_CONTENT_CHANGED'
p99
sS'PackageName'
p100
S'com.xdf.ucan'
p101
sS'OutBounds'
p102
S'Rect(0, 0 - 480, 854)'
p103
sS'Action'
p104
S'[ ClassName: android.widget.FrameLayout; Text: []; ContentDescription: null; ItemCount: -1; CurrentItemIndex: -1; IsEnabled: true; IsPassword: false; IsChecked: false; IsFullScreen: false; Scrollable: false; BeforeText: null; FromIndex: -1; ToIndex: -1; ScrollX: -1; ScrollY: -1; MaxScrollX: -1; MaxScrollY: -1; AddedCount: -1; RemovedCount: -1; ParcelableData: null ]'
p105
sS'MovementGranularity'
p106
g6
sa(dp107
S'EventTime'
p108
S'14464783'
p109
sg4
L1449728449795L
sS'recordCount'
p110
g6
sS'EventType'
p111
S'TYPE_VIEW_CLICKED'
p112
sS'PackageName'
p113
S'com.xdf.ucan'
p114
sS'OutBounds'
p115
S'Rect(0, 38 - 480, 854)'
p116
sS'Action'
p117
S'[ ClassName: android.widget.LinearLayout; Text: [13182898803, \xe7\x99\xbb\xe5\xbd\x95, \xe6\xb3\xa8\xe5\x86\x8c, \xe5\xbf\x98\xe8\xae\xb0\xe5\xaf\x86\xe7\xa0\x81\xef\xbc\x9f]; ContentDescription: null; ItemCount: -1; CurrentItemIndex: -1; IsEnabled: true; IsPassword: false; IsChecked: false; IsFullScreen: false; Scrollable: false; BeforeText: null; FromIndex: -1; ToIndex: -1; ScrollX: -1; ScrollY: -1; MaxScrollX: -1; MaxScrollY: -1; AddedCount: -1; RemovedCount: -1; ParcelableData: null ]'
p118
sS'MovementGranularity'
p119
g6
sa(dp120
S'EventTime'
p121
S'14464848'
p122
sg4
L1449728449869L
sS'recordCount'
p123
g6
sS'EventType'
p124
S'TYPE_WINDOW_CONTENT_CHANGED'
p125
sS'PackageName'
p126
S'com.xdf.ucan'
p127
sS'OutBounds'
p128
S'Rect(0, 0 - 480, 854)'
p129
sS'Action'
p130
S'[ ClassName: android.widget.FrameLayout; Text: []; ContentDescription: null; ItemCount: -1; CurrentItemIndex: -1; IsEnabled: true; IsPassword: false; IsChecked: false; IsFullScreen: false; Scrollable: false; BeforeText: null; FromIndex: -1; ToIndex: -1; ScrollX: -1; ScrollY: -1; MaxScrollX: -1; MaxScrollY: -1; AddedCount: -1; RemovedCount: -1; ParcelableData: null ]'
p131
sS'MovementGranularity'
p132
g6
sa(dp133
S'EventTime'
p134
S'14467332'
p135
sg4
L1449728452383L
sS'recordCount'
p136
g6
sS'EventType'
p137
S'TYPE_VIEW_TEXT_SELECTION_CHANGED'
p138
sS'PackageName'
p139
S'com.xdf.ucan'
p140
sS'OutBounds'
p141
S'Rect(45, 355 - 435, 428)'
p142
sS'Action'
p143
S'[ ClassName: android.widget.EditText; Text: [\xe8\xaf\xb7\xe8\xbe\x93\xe5\x85\xa5\xe6\x89\x8b\xe6\x9c\xba\xe5\x8f\xb7]; ContentDescription: null; ItemCount: 0; CurrentItemIndex: -1; IsEnabled: true; IsPassword: false; IsChecked: false; IsFullScreen: false; Scrollable: false; BeforeText: null; FromIndex: 0; ToIndex: 0; ScrollX: -1; ScrollY: -1; MaxScrollX: -1; MaxScrollY: -1; AddedCount: -1; RemovedCount: -1; ParcelableData: null ]'
p144
sS'MovementGranularity'
p145
g6
sa(dp146
S'EventTime'
p147
S'14467340'
p148
sg4
L1449728452384L
sS'recordCount'
p149
g6
sS'EventType'
p150
S'TYPE_VIEW_CLICKED'
p151
sS'PackageName'
p152
S'com.xdf.ucan'
p153
sS'OutBounds'
p154
S'Rect(45, 355 - 435, 428)'
p155
sS'Action'
p156
S'[ ClassName: android.widget.EditText; Text: [\xe8\xaf\xb7\xe8\xbe\x93\xe5\x85\xa5\xe6\x89\x8b\xe6\x9c\xba\xe5\x8f\xb7]; ContentDescription: null; ItemCount: -1; CurrentItemIndex: -1; IsEnabled: true; IsPassword: false; IsChecked: false; IsFullScreen: false; Scrollable: false; BeforeText: null; FromIndex: -1; ToIndex: -1; ScrollX: -1; ScrollY: -1; MaxScrollX: -1; MaxScrollY: -1; AddedCount: -1; RemovedCount: -1; ParcelableData: null ]'
p157
sS'MovementGranularity'
p158
g6
sa(dp159
S'EventTime'
p160
S'14467475'
p161
sg4
L1449728452507L
sS'recordCount'
p162
g6
sS'EventType'
p163
S'TYPE_WINDOW_CONTENT_CHANGED'
p164
sS'PackageName'
p165
S'com.xdf.ucan'
p166
sS'OutBounds'
p167
S'Rect(0, 0 - 480, 854)'
p168
sS'Action'
p169
S'[ ClassName: android.widget.FrameLayout; Text: []; ContentDescription: null; ItemCount: -1; CurrentItemIndex: -1; IsEnabled: true; IsPassword: false; IsChecked: false; IsFullScreen: false; Scrollable: false; BeforeText: null; FromIndex: -1; ToIndex: -1; ScrollX: -1; ScrollY: -1; MaxScrollX: -1; MaxScrollY: -1; AddedCount: -1; RemovedCount: -1; ParcelableData: null ]'
p170
sS'MovementGranularity'
p171
g6
sa.