(lp0
(dp1
S'processID'
p2
S'29352'
p3
sS'SyscTime'
p4
L1449728326270L
sS'priority'
p5
S'D'
p6
sS'tag'
p7
S'dalvikvm'
p8
sS'threadID'
p9
S'29352'
p10
sS'message'
p11
S'GC_FOR_ALLOC freed 214K, 28% free 19286K/26439K, paused 76ms, total 76ms\n'
p12
sa(dp13
g2
S'29352'
p14
sg4
L1449728326880L
sg5
S'V'
p15
sg7
S'webcore '
p16
sg9
S'29483'
p17
sg11
S'SET_ACTIVE arg1=0 arg2=0 obj=null\n'
p18
sa(dp19
g2
S'29352'
p20
sg4
L1449728327230L
sg5
g6
sg7
S'long    '
p21
sg9
S'29352'
p22
sg11
S'cancle request\xef\xbc\x9acom.xdf.ucan.ui.me.WebViewActivity\n'
p23
sa(dp24
g2
S'29352'
p25
sg4
L1449728327230L
sg5
g15
sg7
S'webcore '
p26
sg9
S'29483'
p27
sg11
S'REMOVE_JS_INTERFACE arg1=0 arg2=0 obj=android.webkit.WebViewCore$JSInterfaceData@41eb6218\n'
p28
sa(dp29
g2
S'29352'
p30
sg4
L1449728327240L
sg5
g15
sg7
S'webcore '
p31
sg9
S'29483'
p32
sg11
S'REMOVE_JS_INTERFACE arg1=0 arg2=0 obj=android.webkit.WebViewCore$JSInterfaceData@41ead9b0\n'
p33
sa(dp34
g2
S'29416'
p35
sg4
L1449728327890L
sg5
S'I'
p36
sg7
S'##COMMON_io.rong.push.PushReceiver:Action'
p37
sg9
S'29416'
p38
sg11
S'io.rong.push.HeartBeat\n'
p39
sa(dp40
g2
S'29416'
p41
sg4
L1449728327890L
sg5
g36
sg7
S'##COMMON_io.rong.push.PushReceiver:ACTION_HEARTBEAT'
p42
sg9
S'29416'
p43
sg11
S'Receive heartbeat action.\n'
p44
sa(dp45
g2
S'29416'
p46
sg4
L1449728327890L
sg5
g6
sg7
S'PowerManager'
p47
sg9
S'29416'
p48
sg11
S'wake:com.xdf.ucan/io.rong.push.PushService [acquire]\n'
p49
sa(dp50
g2
S'29416'
p51
sg4
L1449728327900L
sg5
g36
sg7
S'##COMMON_io.rong.push.PushClient:Ping'
p52
sg9
S'29431'
p53
sg11
S'/119.254.101.137\n'
p54
sa(dp55
g2
S'29416'
p56
sg4
L1449728327900L
sg5
g36
sg7
S'##COMMON_io.rong.push.PushService.PushHandler:ping'
p57
sg9
S'29431'
p58
sg11
S'Reconnect in 30 sec later if no PINGRESP received.\n'
p59
sa(dp60
g2
S'29416'
p61
sg4
L1449728327900L
sg5
g36
sg7
S'##COMMON_io.rong.push.PushContext:Heartbeat'
p62
sg9
S'29431'
p63
sg11
S'start_next\n'
p64
sa(dp65
g2
S'29416'
p66
sg4
L1449728327900L
sg5
g6
sg7
S'PowerManager'
p67
sg9
S'29431'
p68
sg11
S'wake:com.xdf.ucan/io.rong.push.PushService [release]\n'
p69
sa(dp70
g2
S'29416'
p71
sg4
L1449728328010L
sg5
g36
sg7
S'##COMMON_io.rong.push.PushClient:Handler'
p72
sg9
S'29433'
p73
sg11
S'PINGRESP\n'
p74
sa(dp75
g2
S'29416'
p76
sg4
L1449728328010L
sg5
g36
sg7
S'##COMMON_io.rong.push.PushService.PushHandler.PingSuccessListener:PingSuccessListener'
p77
sg9
S'29433'
p78
sg11
S'Receive PingResp. Cancel the runnable.\n'
p79
sa(dp80
g2
S'29352'
p81
sg4
L1449728336390L
sg5
g6
sg7
S'webview '
p82
sg9
S'29352'
p83
sg11
S'MultitabManagement is false\n'
p84
sa(dp85
g2
S'29352'
p86
sg4
L1449728336390L
sg5
g6
sg7
S'webview '
p87
sg9
S'29352'
p88
sg11
S'BrowserManagement sys prop is false\n'
p89
sa(dp90
g2
S'29352'
p91
sg4
L1449728336390L
sg5
g6
sg7
S'data    '
p92
sg9
S'29352'
p93
sg11
S'jsData:2.1.0\n'
p94
sa(dp95
g2
S'29352'
p96
sg4
L1449728336400L
sg5
g15
sg7
S'webkit  '
p97
sg9
S'29483'
p98
sg11
S'BrowserFrame constructor: this=Handler (android.webkit.BrowserFrame) {420fd938}\n'
p99
sa(dp100
g2
S'29352'
p101
sg4
L1449728336400L
sg5
g6
sg7
S'webcore '
p102
sg9
S'29483'
p103
sg11
S'MultitabManagement is true\n'
p104
sa(dp105
g2
S'29352'
p106
sg4
L1449728336400L
sg5
g15
sg7
S'webcore '
p107
sg9
S'29483'
p108
sg11
S'ADD_JS_INTERFACE arg1=0 arg2=0 obj=android.webkit.WebViewCore$JSInterfaceData@41870f48\n'
p109
sa(dp110
g2
S'29352'
p111
sg4
L1449728336400L
sg5
g15
sg7
S'webcore '
p112
sg9
S'29483'
p113
sg11
S'LOAD_URL arg1=0 arg2=0 obj=android.webkit.WebViewCore$GetUrlData@4186d4d0\n'
p114
sa(dp115
g2
S'29352'
p116
sg4
L1449728336400L
sg5
g15
sg7
S'webcore '
p117
sg9
S'29483'
p118
sg11
S' CORE loadUrl file:///android_asset/dist/setting/about.html\n'
p119
sa(dp120
g2
S'29352'
p121
sg4
L1449728336420L
sg5
g15
sg7
S'webview '
p122
sg9
S'29352'
p123
sg11
S'WEBCORE_INITIALIZED_MSG_ID\n'
p124
sa(dp125
g2
S'29352'
p126
sg4
L1449728336420L
sg5
g15
sg7
S'webview '
p127
sg9
S'29352'
p128
sg11
S'setCertificate=null\n'
p129
sa(dp130
g2
S'29352'
p131
sg4
L1449728336430L
sg5
g15
sg7
S'webcore '
p132
sg9
S'29483'
p133
sg11
S"Can't get the viewWidth yet\n"
p134
sa(dp135
g2
S'29352'
p136
sg4
L1449728336460L
sg5
g36
sg7
S'TextToSpeech'
p137
sg9
S'29352'
p138
sg11
S'Sucessfully bound to com.svox.pico\n'
p139
sa(dp140
g2
S'29352'
p141
sg4
L1449728336530L
sg5
g6
sg7
S'dalvikvm'
p142
sg9
S'29356'
p143
sg11
S'GC_CONCURRENT freed 3734K, 34% free 17599K/26439K, paused 2ms+8ms, total 162ms\n'
p144
sa(dp145
g2
S'29352'
p146
sg4
L1449728336530L
sg5
g6
sg7
S'dalvikvm'
p147
sg9
S'29483'
p148
sg11
S'WAIT_FOR_CONCURRENT_GC blocked 70ms\n'
p149
sa(dp150
g2
S'29352'
p151
sg4
L1449728336530L
sg5
g6
sg7
S'dalvikvm'
p152
sg9
S'29352'
p153
sg11
S'WAIT_FOR_CONCURRENT_GC blocked 71ms\n'
p154
sa(dp155
g2
S'29352'
p156
sg4
L1449728336540L
sg5
g15
sg7
S'webcore '
p157
sg9
S'29483'
p158
sg11
S'didFirstLayout standardLoad =true\n'
p159
sa(dp160
g2
S'29352'
p161
sg4
L1449728336540L
sg5
g6
sg7
S'dalvikvm'
p162
sg9
S'29366'
p163
sg11
S'WAIT_FOR_CONCURRENT_GC blocked 70ms\n'
p164
sa(dp165
g2
S'29352'
p166
sg4
L1449728336540L
sg5
g15
sg7
S'webcore '
p167
sg9
S'29483'
p168
sg11
S"Can't get the viewWidth yet\n"
p169
sa(dp170
g2
S'29352'
p171
sg4
L1449728336540L
sg5
g15
sg7
S'webcore '
p172
sg9
S'29483'
p173
sg11
S'ADD_JS_INTERFACE arg1=0 arg2=0 obj=android.webkit.WebViewCore$JSInterfaceData@4179d158\n'
p174
sa(dp175
g2
S'29352'
p176
sg4
L1449728336540L
sg5
g15
sg7
S'webcore '
p177
sg9
S'29483'
p178
sg11
S'ADD_JS_INTERFACE arg1=0 arg2=0 obj=android.webkit.WebViewCore$JSInterfaceData@4179ceb0\n'
p179
sa(dp180
g2
S'29352'
p181
sg4
L1449728336580L
sg5
g15
sg7
S'webview '
p182
sg9
S'29352'
p183
sg11
S'MT focusChanged true, 2\n'
p184
sa(dp185
g2
S'29352'
p186
sg4
L1449728336580L
sg5
g15
sg7
S'webcore '
p187
sg9
S'29483'
p188
sg11
S'SET_ACTIVE arg1=1 arg2=0 obj=null\n'
p189
sa(dp190
g2
S'29352'
p191
sg4
L1449728336590L
sg5
g15
sg7
S'webview '
p192
sg9
S'29352'
p193
sg11
S'SELECTION_STRING_CHANGED\n'
p194
sa(dp195
g2
S'29352'
p196
sg4
L1449728336590L
sg5
g36
sg7
S'TextToSpeech'
p197
sg9
S'29352'
p198
sg11
S'Connected to ComponentInfo{com.svox.pico/com.svox.pico.PicoService}\n'
p199
sa(dp200
g2
S'29352'
p201
sg4
L1449728336590L
sg5
g15
sg7
S'webview '
p202
sg9
S'29352'
p203
sg11
S'SAVE_WEBARCHIVE_FINISHED\n'
p204
sa(dp205
g2
S'29352'
p206
sg4
L1449728336590L
sg5
g15
sg7
S'webcore '
p207
sg9
S'29483'
p208
sg11
S'SET_ACTIVE arg1=1 arg2=0 obj=null\n'
p209
sa(dp210
g2
S'29352'
p211
sg4
L1449728336600L
sg5
S'E'
p212
sg7
S'ZoomManager.java'
p213
sg9
S'29352'
p214
sg11
S'wlf reflowText=true\n'
p215
sa(dp216
g2
S'29352'
p217
sg4
L1449728336600L
sg5
g15
sg7
S'webcore '
p218
sg9
S'29483'
p219
sg11
S'SET_SCROLL_OFFSET arg1=1 arg2=0 obj=Point(0, 0)\n'
p220
sa(dp221
g2
S'29352'
p222
sg4
L1449728336600L
sg5
g15
sg7
S'webview '
p223
sg9
S'29352'
p224
sg11
S'sendOurVisibleRect=(0,104,r=480,b=854\n'
p225
sa(dp226
g2
S'29352'
p227
sg4
L1449728336600L
sg5
g15
sg7
S'webcore '
p228
sg9
S'29483'
p229
sg11
S'SET_GLOBAL_BOUNDS arg1=0 arg2=0 obj=Rect(0, 104 - 480, 854)\n'
p230
sa(dp231
g2
S'29352'
p232
sg4
L1449728336600L
sg5
g15
sg7
S'webcore '
p233
sg9
S'29483'
p234
sg11
S'VIEW_SIZE_CHANGED arg1=0 arg2=0 obj=android.webkit.WebViewClassic$ViewSizeData@421186c8\n'
p235
sa(dp236
g2
S'29352'
p237
sg4
L1449728336600L
sg5
g15
sg7
S'webcore '
p238
sg9
S'29483'
p239
sg11
S'viewSizeChanged w=320; h=500; textwrapWidth=320; scale=1.5\n'
p240
sa(dp241
g2
S'29352'
p242
sg4
L1449728336600L
sg5
g15
sg7
S'webcore '
p243
sg9
S'29483'
p244
sg11
S'viewSizeChanged\n'
p245
sa(dp246
g2
S'29352'
p247
sg4
L1449728336600L
sg5
g15
sg7
S'webcore '
p248
sg9
S'29483'
p249
sg11
S'WEBKIT_DRAW arg1=0 arg2=0 obj=null\n'
p250
sa(dp251
g2
S'29352'
p252
sg4
L1449728336600L
sg5
g15
sg7
S'webcore '
p253
sg9
S'29483'
p254
sg11
S'webkitDraw start\n'
p255
sa(dp256
g2
S'29352'
p257
sg4
L1449728336600L
sg5
g15
sg7
S'webcore '
p258
sg9
S'29483'
p259
sg11
S'webkitDraw NEW_PICTURE_MSG_ID\n'
p260
sa(dp261
g2
S'29352'
p262
sg4
L1449728336640L
sg5
g15
sg7
S'webview '
p263
sg9
S'29352'
p264
sg11
S'NEW_PICTURE_MSG_ID\n'
p265
sa(dp266
g2
S'29352'
p267
sg4
L1449728338580L
sg5
g6
sg7
S'cn.edu.nju.ise.kikandroid'
p268
sg9
S'29412'
p269
sg11
S'Screenshot:1449728338591\n'
p270
sa(dp271
g2
S'29352'
p272
sg4
L1449728338730L
sg5
g6
sg7
S'dalvikvm'
p273
sg9
S'29352'
p274
sg11
S'GC_FOR_ALLOC freed 126K, 28% free 19173K/26439K, paused 86ms, total 86ms\n'
p275
sa(dp276
g2
S'29352'
p277
sg4
L1449728340520L
sg5
g15
sg7
S'webview '
p278
sg9
S'29352'
p279
sg11
S'SAVE_WEBARCHIVE_FINISHED\n'
p280
sa(dp281
g2
S'29352'
p282
sg4
L1449728340520L
sg5
g15
sg7
S'webview '
p283
sg9
S'29352'
p284
sg11
S'UPDATE_TEXT_SELECTION_MSG_ID\n'
p285
sa(dp286
g2
S'29352'
p287
sg4
L1449728340540L
sg5
g15
sg7
S'webview '
p288
sg9
S'29352'
p289
sg11
S'CLEAR_TEXT_ENTRY\n'
p290
sa(dp291
g2
S'29352'
p292
sg4
L1449728341120L
sg5
g15
sg7
S'webview '
p293
sg9
S'29352'
p294
sg11
S'keyDown at 1449728341132keyCode=4, KeyEvent { action=ACTION_DOWN, keyCode=KEYCODE_BACK, scanCode=158, metaState=0, flags=0x48, repeatCount=0, eventTime=14356212, downTime=14356212, deviceId=4, source=0x101 }, unicode=0\n'
p295
sa(dp296
g2
S'29352'
p297
sg4
L1449728341160L
sg5
g15
sg7
S'webview '
p298
sg9
S'29352'
p299
sg11
S'keyUp at 1449728341168, KeyEvent { action=ACTION_UP, keyCode=KEYCODE_BACK, scanCode=158, metaState=0, flags=0x248, repeatCount=0, eventTime=14356256, downTime=14356212, deviceId=4, source=0x101 }, unicode=0\n'
p300
sa(dp301
g2
S'29352'
p302
sg4
L1449728341280L
sg5
g15
sg7
S'webcore '
p303
sg9
S'29483'
p304
sg11
S'SET_ACTIVE arg1=0 arg2=0 obj=null\n'
p305
sa(dp306
g2
S'29352'
p307
sg4
L1449728341610L
sg5
g6
sg7
S'long    '
p308
sg9
S'29352'
p309
sg11
S'cancle request\xef\xbc\x9acom.xdf.ucan.ui.me.WebViewActivity\n'
p310
sa(dp311
g2
S'29352'
p312
sg4
L1449728341610L
sg5
g15
sg7
S'webcore '
p313
sg9
S'29483'
p314
sg11
S'REMOVE_JS_INTERFACE arg1=0 arg2=0 obj=android.webkit.WebViewCore$JSInterfaceData@41e62cf8\n'
p315
sa(dp316
g2
S'29352'
p317
sg4
L1449728341630L
sg5
g15
sg7
S'webcore '
p318
sg9
S'29483'
p319
sg11
S'REMOVE_JS_INTERFACE arg1=0 arg2=0 obj=android.webkit.WebViewCore$JSInterfaceData@41e4f2c0\n'
p320
sa(dp321
g2
S'29352'
p322
sg4
L1449728342900L
sg5
g6
sg7
S'dalvikvm'
p323
sg9
S'29356'
p324
sg11
S'GC_CONCURRENT freed 3494K, 34% free 17624K/26439K, paused 13ms+9ms, total 146ms\n'
p325
sa(dp326
g2
S'29352'
p327
sg4
L1449728344640L
sg5
g6
sg7
S'cn.edu.nju.ise.kikandroid'
p328
sg9
S'29412'
p329
sg11
S'Screenshot:1449728344657\n'
p330
sa(dp331
g2
S'29352'
p332
sg4
L1449728344800L
sg5
g6
sg7
S'dalvikvm'
p333
sg9
S'29352'
p334
sg11
S'GC_FOR_ALLOC freed 67K, 28% free 19242K/26439K, paused 96ms, total 96ms\n'
p335
sa(dp336
g2
S'29352'
p337
sg4
L1449728351240L
sg5
g6
sg7
S'long    '
p338
sg9
S'29352'
p339
sg11
S'cancle request\xef\xbc\x9acom.xdf.ucan.ui.me.HelpFeedbackActivity\n'
p340
sa(dp341
g2
S'29352'
p342
sg4
L1449728363860L
sg5
g6
sg7
S'dalvikvm'
p343
sg9
S'29356'
p344
sg11
S'GC_CONCURRENT freed 3431K, 33% free 17837K/26439K, paused 16ms+5ms, total 100ms\n'
p345
sa(dp346
g2
S'29352'
p347
sg4
L1449728363860L
sg5
g6
sg7
S'dalvikvm'
p348
sg9
S'29352'
p349
sg11
S'WAIT_FOR_CONCURRENT_GC blocked 82ms\n'
p350
sa(dp351
g2
S'29352'
p352
sg4
L1449728364000L
sg5
g6
sg7
S'dalvikvm'
p353
sg9
S'29352'
p354
sg11
S'GC_FOR_ALLOC freed 221K, 33% free 17724K/26439K, paused 129ms, total 129ms\n'
p355
sa(dp356
g2
S'29352'
p357
sg4
L1449728364090L
sg5
g6
sg7
S'dalvikvm'
p358
sg9
S'29356'
p359
sg11
S'GC_CONCURRENT freed <1K, 12% free 23349K/26439K, paused 3ms+6ms, total 91ms\n'
p360
sa(dp361
g2
S'29352'
p362
sg4
L1449728364200L
sg5
g6
sg7
S'dalvikvm'
p363
sg9
S'29352'
p364
sg11
S'GC_FOR_ALLOC freed 3600K, 26% free 19749K/26439K, paused 98ms, total 98ms\n'
p365
sa(dp366
g2
S'29352'
p367
sg4
L1449728364290L
sg5
g6
sg7
S'dalvikvm'
p368
sg9
S'29356'
p369
sg11
S'GC_CONCURRENT freed <1K, 12% free 23349K/26439K, paused 3ms+4ms, total 85ms\n'
p370
sa(dp371
g2
S'29352'
p372
sg4
L1449728364290L
sg5
g6
sg7
S'dalvikvm'
p373
sg9
S'29352'
p374
sg11
S'WAIT_FOR_CONCURRENT_GC blocked 24ms\n'
p375
sa(dp376
g2
S'29352'
p377
sg4
L1449728364400L
sg5
g6
sg7
S'dalvikvm'
p378
sg9
S'29352'
p379
sg11
S'GC_FOR_ALLOC freed 0K, 12% free 23349K/26439K, paused 107ms, total 107ms\n'
p380
sa(dp381
g2
S'29352'
p382
sg4
L1449728364480L
sg5
g6
sg7
S'dalvikvm'
p383
sg9
S'29356'
p384
sg11
S'GC_CONCURRENT freed 0K, 11% free 25375K/28487K, paused 4ms+3ms, total 79ms\n'
p385
sa(dp386
g2
S'29352'
p387
sg4
L1449728364480L
sg5
g6
sg7
S'dalvikvm'
p388
sg9
S'29352'
p389
sg11
S'WAIT_FOR_CONCURRENT_GC blocked 60ms\n'
p390
sa(dp391
g2
S'29352'
p392
sg4
L1449728364570L
sg5
g6
sg7
S'dalvikvm'
p393
sg9
S'29352'
p394
sg11
S'GC_FOR_ALLOC freed 3600K, 24% free 21775K/28487K, paused 92ms, total 92ms\n'
p395
sa(dp396
g2
S'29352'
p397
sg4
L1449728364670L
sg5
g6
sg7
S'dalvikvm'
p398
sg9
S'29356'
p399
sg11
S'GC_CONCURRENT freed <1K, 11% free 25375K/28487K, paused 5ms+4ms, total 90ms\n'
p400
sa(dp401
g2
S'29352'
p402
sg4
L1449728364670L
sg5
g6
sg7
S'dalvikvm'
p403
sg9
S'29352'
p404
sg11
S'WAIT_FOR_CONCURRENT_GC blocked 9ms\n'
p405
sa(dp406
g2
S'29352'
p407
sg4
L1449728364760L
sg5
g6
sg7
S'dalvikvm'
p408
sg9
S'29352'
p409
sg11
S'GC_FOR_ALLOC freed 0K, 11% free 25375K/28487K, paused 91ms, total 91ms\n'
p410
sa(dp411
g2
S'29352'
p412
sg4
L1449728364860L
sg5
g6
sg7
S'dalvikvm'
p413
sg9
S'29356'
p414
sg11
S'GC_CONCURRENT freed <1K, 11% free 27400K/30535K, paused 13ms+5ms, total 99ms\n'
p415
sa(dp416
g2
S'29352'
p417
sg4
L1449728364860L
sg5
g6
sg7
S'dalvikvm'
p418
sg9
S'29352'
p419
sg11
S'WAIT_FOR_CONCURRENT_GC blocked 71ms\n'
p420
sa(dp421
g2
S'29352'
p422
sg4
L1449728364930L
sg5
g6
sg7
S'dalvikvm'
p423
sg9
S'29352'
p424
sg11
S'GC_FOR_ALLOC freed 3600K, 23% free 23800K/30535K, paused 69ms, total 69ms\n'
p425
sa(dp426
g2
S'29352'
p427
sg4
L1449728365030L
sg5
g6
sg7
S'dalvikvm'
p428
sg9
S'29356'
p429
sg11
S'GC_CONCURRENT freed <1K, 11% free 27400K/30535K, paused 3ms+4ms, total 94ms\n'
p430
sa(dp431
g2
S'29352'
p432
sg4
L1449728365030L
sg5
g6
sg7
S'dalvikvm'
p433
sg9
S'29352'
p434
sg11
S'WAIT_FOR_CONCURRENT_GC blocked 28ms\n'
p435
sa(dp436
g2
S'29352'
p437
sg4
L1449728365100L
sg5
g6
sg7
S'dalvikvm'
p438
sg9
S'29352'
p439
sg11
S'GC_FOR_ALLOC freed 0K, 11% free 27400K/30535K, paused 71ms, total 71ms\n'
p440
sa(dp441
g2
S'29352'
p442
sg4
L1449728365180L
sg5
g36
sg7
S'System.out'
p443
sg9
S'29352'
p444
sg11
S'\xe9\x97\xb4\xe8\xb7\x9d: 34\n'
p445
sa(dp446
g2
S'29352'
p447
sg4
L1449728365220L
sg5
g6
sg7
S'dalvikvm'
p448
sg9
S'29356'
p449
sg11
S'GC_CONCURRENT freed 30K, 10% free 29441K/32583K, paused 12ms+11ms, total 115ms\n'
p450
sa(dp451
g2
S'29352'
p452
sg4
L1449728367390L
sg5
g6
sg7
S'cn.edu.nju.ise.kikandroid'
p453
sg9
S'29412'
p454
sg11
S'Screenshot:1449728367400\n'
p455
sa(dp456
g2
S'29352'
p457
sg4
L1449728367550L
sg5
g6
sg7
S'dalvikvm'
p458
sg9
S'29352'
p459
sg11
S'GC_FOR_ALLOC freed 3627K, 16% free 27492K/32583K, paused 88ms, total 88ms\n'
p460
sa(dp461
g2
S'29352'
p462
sg4
L1449728369430L
sg5
g6
sg7
S'long    '
p463
sg9
S'29352'
p464
sg11
S'cancle request\xef\xbc\x9acom.xdf.ucan.splash.SplashActivity\n'
p465
sa(dp466
g2
S'29352'
p467
sg4
L1449728380970L
sg5
g6
sg7
S'long    '
p468
sg9
S'29352'
p469
sg11
S'onRestart\n'
p470
sa(dp471
g2
S'29352'
p472
sg4
L1449728380970L
sg5
g6
sg7
S'http    '
p473
sg9
S'29352'
p474
sg11
S'\xe8\xaf\xb7\xe6\xb1\x82\xe7\x9a\x84\xe5\x9c\xb0\xe5\x9d\x80\xef\xbc\x9ahttp://ims.xdf.cn/imserver/appversion/getversion.do\n'
p475
sa(dp476
g2
S'29352'
p477
sg4
L1449728380970L
sg5
g6
sg7
S'http    '
p478
sg9
S'29352'
p479
sg11
S'\xe8\xaf\xb7\xe6\xb1\x82\xe7\x9a\x84\xe5\x8f\x82\xe6\x95\xb0\xef\xbc\x9aappCode=upoc_student&osType=2&appVersionResultType=1\n'
p480
sa(dp481
g2
S'29352'
p482
sg4
L1449728380970L
sg5
g6
sg7
S'long    '
p483
sg9
S'29352'
p484
sg11
S'context.getClass().getName():com.xdf.ucan.MainActivity\n'
p485
sa(dp486
g2
S'29352'
p487
sg4
L1449728380970L
sg5
g6
sg7
S'ImageLoader'
p488
sg9
S'29352'
p489
sg11
S'Load image from memory cache [http://my.xdf.cn/public/images/User/_Big.jpg_105x105]\n'
p490
sa(dp491
g2
S'29352'
p492
sg4
L1449728381360L
sg5
g6
sg7
S'long    '
p493
sg9
S'29352'
p494
sg11
S'cancle request\xef\xbc\x9acom.xdf.ucan.ui.me.SettingActivity\n'
p495
sa(dp496
g2
S'29352'
p497
sg4
L1449728382230L
sg5
g6
sg7
S'dalvikvm'
p498
sg9
S'29356'
p499
sg11
S'GC_CONCURRENT freed 3617K, 21% free 25834K/32583K, paused 15ms+5ms, total 106ms\n'
p500
sa(dp501
g2
S'29352'
p502
sg4
L1449728382230L
sg5
g6
sg7
S'dalvikvm'
p503
sg9
S'29352'
p504
sg11
S'WAIT_FOR_CONCURRENT_GC blocked 73ms\n'
p505
sa(dp506
g2
S'29352'
p507
sg4
L1449728382260L
sg5
g6
sg7
S'long    '
p508
sg9
S'29352'
p509
sg11
S'prestr\xef\xbc\x9aappid=5004&method=GetSubscribtionListByUserId&pageindex=1&pagesize=200&userid=xdf004483209&AppKey=v5key_my$cj_cnQcm\n'
p510
sa(dp511
g2
S'29352'
p512
sg4
L1449728382260L
sg5
g6
sg7
S'http    '
p513
sg9
S'29352'
p514
sg11
S'\xe8\xaf\xb7\xe6\xb1\x82\xe7\x9a\x84\xe5\x9c\xb0\xe5\x9d\x80\xef\xbc\x9ahttp://upoc.xdf.cn/Subscrib\n'
p515
sa(dp516
g2
S'29352'
p517
sg4
L1449728382260L
sg5
g6
sg7
S'http    '
p518
sg9
S'29352'
p519
sg11
S'\xe8\xaf\xb7\xe6\xb1\x82\xe7\x9a\x84\xe5\x8f\x82\xe6\x95\xb0\xef\xbc\x9amethod=GetSubscribtionListByUserId&appid=5004&userid=xdf004483209&pageindex=1&pagesize=200&sign=3E221F4E85AE9DCD32D687A13A535F12\n'
p520
sa(dp521
g2
S'29352'
p522
sg4
L1449728382260L
sg5
g6
sg7
S'long    '
p523
sg9
S'29352'
p524
sg11
S'context.getClass().getName():com.xdf.ucan.ui.subscript.MySubscriptionActivity\n'
p525
sa(dp526
g2
S'29352'
p527
sg4
L1449728382510L
sg5
g15
sg7
S'AsyncHttpRH'
p528
sg9
S'29352'
p529
sg11
S'Progress 833 from 833 (100%)\n'
p530
sa(dp531
g2
S'29352'
p532
sg4
L1449728382510L
sg5
g6
sg7
S'http    '
p533
sg9
S'29352'
p534
sg11
S'\xe8\xbf\x94\xe5\x9b\x9e\xe7\x9a\x84\xe7\xbb\x93\xe6\x9e\x9c\xef\xbc\x9a{\n  "State": 1,\n  "Data": [\n    {\n      "SchoolId": 1,\n      "Code": "DYH00008",\n      "Name": "\xe5\x88\x9d\xe4\xb8\xad\xe5\x8c\x96\xe5\xad\xa6",\n      "KeyWord": "\xe5\x88\x9d\xe5\x8c\x96",\n      "KeyColor": "10",\n      "IsRecommended": true,\n      "AttentionNum": 0,\n      "FansNum": 1583,\n      "Created": "2015-05-13 17:01:38",\n      "Published": "2015-05-13 17:01:38",\n      "UserId": null,\n      "UserType": null,\n      "Description": "\xe5\x8c\x97\xe4\xba\xac\xe6\x96\xb0\xe4\xb8\x9c\xe6\x96\xb9\xe4\xbc\x98\xe8\x83\xbd\xe4\xb8\xad\xe5\xad\xa6\xe5\x88\x9d\xe4\xb8\xad\xe5\x8c\x96\xe5\xad\xa6\xe6\x95\x99\xe7\xa0\x94\xe7\xbb\x84\xef\xbc\x8c\xe9\x9b\x86\xe7\xbb\x93\xe4\xba\xac\xe5\x9f\x8e\xe5\x90\x8d\xe5\xb8\x88\xef\xbc\x8c\xe4\xb8\xba\xe4\xb8\xad\xe8\x80\x83\xe8\x80\x83\xe7\x94\x9f\xe5\xa4\x87\xe6\x88\x98\xe4\xb8\x80\xe4\xb8\xaa\xe5\x85\xa8\xe6\x96\xb0\xe7\x9a\x84\xe5\xad\xa6\xe7\xa7\x91\xef\xbc\x8c\xe6\x8a\x93\xe4\xbd\x8f\xe5\x88\x9d\xe4\xb8\xad\xe6\x9c\x80\xe5\x90\x8e\xe4\xb8\x80\xe4\xb8\xaa\xe8\xb6\x85\xe8\xb6\x8a\xe5\x88\xab\xe4\xba\xba\xe7\x9a\x84\xe6\x9c\xba\xe4\xbc\x9a\xef\xbc\x8c\xe4\xbb\xa5\xe5\xb9\xbd\xe9\xbb\x98\xe9\xa3\x8e\xe8\xb6\xa3\xe7\x9a\x84\xe6\x95\x99\xe5\xad\xa6\xe5\xbd\xa2\xe5\xbc\x8f\xef\xbc\x8c\xe4\xbb\xa5\xe4\xb8\xa5\xe8\xb0\xa8\xe8\xae\xa4\xe7\x9c\x9f\xe7\x9a\x84\xe6\x95\x99\xe7\xa0\x94\xe6\x89\x8b\xe6\xb3\x95\xef\xbc\x8c\xe4\xbb\xa5\xe5\x8a\xa1\xe5\xae\x9e\xe8\xaf\x9a\xe6\x81\xb3\xe7\x9a\x84\xe6\xb2\xbb\xe5\xad\xa6\xe6\x80\x81\xe5\xba\xa6\xef\xbc\x8c\xe6\xaf\x8f\xe5\xb9\xb4\xe5\x9f\xb9\xe5\x85\xbb\xe5\x87\xba\xe5\xa4\xa7\xe9\x87\x8f\xe5\x8c\x96\xe5\xad\xa6\xe9\xab\x98\xe5\x88\x86\xe5\xad\xa6\xe5\x91\x98\xe3\x80\x82",\n      "HasSubscribed": 0,\n      "Subject": "\xe5\x8c\x96\xe5\xad\xa6",\n      "Id": 0\n    }\n  ],\n  "Error": "",\n  "DataCount": 1\n'
p535
sa(dp536
g2
S'29352'
p537
sg4
L1449728382510L
sg5
g6
sg7
S'long    '
p538
sg9
S'29352'
p539
sg11
S'response:{\n  "State": 1,\n  "Data": [\n    {\n      "SchoolId": 1,\n      "Code": "DYH00008",\n      "Name": "\xe5\x88\x9d\xe4\xb8\xad\xe5\x8c\x96\xe5\xad\xa6",\n      "KeyWord": "\xe5\x88\x9d\xe5\x8c\x96",\n      "KeyColor": "10",\n      "IsRecommended": true,\n      "AttentionNum": 0,\n      "FansNum": 1583,\n      "Created": "2015-05-13 17:01:38",\n      "Published": "2015-05-13 17:01:38",\n      "UserId": null,\n      "UserType": null,\n      "Description": "\xe5\x8c\x97\xe4\xba\xac\xe6\x96\xb0\xe4\xb8\x9c\xe6\x96\xb9\xe4\xbc\x98\xe8\x83\xbd\xe4\xb8\xad\xe5\xad\xa6\xe5\x88\x9d\xe4\xb8\xad\xe5\x8c\x96\xe5\xad\xa6\xe6\x95\x99\xe7\xa0\x94\xe7\xbb\x84\xef\xbc\x8c\xe9\x9b\x86\xe7\xbb\x93\xe4\xba\xac\xe5\x9f\x8e\xe5\x90\x8d\xe5\xb8\x88\xef\xbc\x8c\xe4\xb8\xba\xe4\xb8\xad\xe8\x80\x83\xe8\x80\x83\xe7\x94\x9f\xe5\xa4\x87\xe6\x88\x98\xe4\xb8\x80\xe4\xb8\xaa\xe5\x85\xa8\xe6\x96\xb0\xe7\x9a\x84\xe5\xad\xa6\xe7\xa7\x91\xef\xbc\x8c\xe6\x8a\x93\xe4\xbd\x8f\xe5\x88\x9d\xe4\xb8\xad\xe6\x9c\x80\xe5\x90\x8e\xe4\xb8\x80\xe4\xb8\xaa\xe8\xb6\x85\xe8\xb6\x8a\xe5\x88\xab\xe4\xba\xba\xe7\x9a\x84\xe6\x9c\xba\xe4\xbc\x9a\xef\xbc\x8c\xe4\xbb\xa5\xe5\xb9\xbd\xe9\xbb\x98\xe9\xa3\x8e\xe8\xb6\xa3\xe7\x9a\x84\xe6\x95\x99\xe5\xad\xa6\xe5\xbd\xa2\xe5\xbc\x8f\xef\xbc\x8c\xe4\xbb\xa5\xe4\xb8\xa5\xe8\xb0\xa8\xe8\xae\xa4\xe7\x9c\x9f\xe7\x9a\x84\xe6\x95\x99\xe7\xa0\x94\xe6\x89\x8b\xe6\xb3\x95\xef\xbc\x8c\xe4\xbb\xa5\xe5\x8a\xa1\xe5\xae\x9e\xe8\xaf\x9a\xe6\x81\xb3\xe7\x9a\x84\xe6\xb2\xbb\xe5\xad\xa6\xe6\x80\x81\xe5\xba\xa6\xef\xbc\x8c\xe6\xaf\x8f\xe5\xb9\xb4\xe5\x9f\xb9\xe5\x85\xbb\xe5\x87\xba\xe5\xa4\xa7\xe9\x87\x8f\xe5\x8c\x96\xe5\xad\xa6\xe9\xab\x98\xe5\x88\x86\xe5\xad\xa6\xe5\x91\x98\xe3\x80\x82",\n      "HasSubscribed": 0,\n      "Subject": "\xe5\x8c\x96\xe5\xad\xa6",\n      "Id": 0\n    }\n  ],\n  "Error": "",\n  "DataCount": 1\n'
p540
sa(dp541
g2
S'29352'
p542
sg4
L1449728383870L
sg5
g6
sg7
S'PullToRefresh'
p543
sg9
S'29352'
p544
sg11
S'Setting Padding. L: 0, T: 0, R: 0, B: 0\n'
p545
sa(dp546
g2
S'29352'
p547
sg4
L1449728383870L
sg5
g6
sg7
S'PullToRefresh'
p548
sg9
S'29352'
p549
sg11
S'First Visible: 0. Visible Count: 0. Total Items:0\n'
p550
sa(dp551
g2
S'29352'
p552
sg4
L1449728383890L
sg5
g6
sg7
S'long    '
p553
sg9
S'29352'
p554
sg11
S'prestr\xef\xbc\x9aappid=5004&isrecommendedflag=1&method=GetSubscribtionListByFuzzyQuery&pageindex=1&pagesize=25&userid=xdf004483209&AppKey=v5key_my$cj_cnQcm\n'
p555
sa(dp556
g2
S'29352'
p557
sg4
L1449728383890L
sg5
g6
sg7
S'http    '
p558
sg9
S'29352'
p559
sg11
S'\xe8\xaf\xb7\xe6\xb1\x82\xe7\x9a\x84\xe5\x9c\xb0\xe5\x9d\x80\xef\xbc\x9ahttp://upoc.xdf.cn/Subscrib\n'
p560
sa(dp561
g2
S'29352'
p562
sg4
L1449728383890L
sg5
g6
sg7
S'http    '
p563
sg9
S'29352'
p564
sg11
S'\xe8\xaf\xb7\xe6\xb1\x82\xe7\x9a\x84\xe5\x8f\x82\xe6\x95\xb0\xef\xbc\x9amethod=GetSubscribtionListByFuzzyQuery&appid=5004&userid=xdf004483209&isrecommendedflag=1&pageindex=1&pagesize=25&sign=508A89FCFF47001AC5C646170AA4F068\n'
p565
sa(dp566
g2
S'29352'
p567
sg4
L1449728383890L
sg5
g6
sg7
S'long    '
p568
sg9
S'29352'
p569
sg11
S'context.getClass().getName():com.xdf.ucan.ui.subscript.AddSubscriptionActivity\n'
p570
sa(dp571
g2
S'29352'
p572
sg4
L1449728383890L
sg5
g6
sg7
S'PullToRefresh'
p573
sg9
S'29352'
p574
sg11
S'Setting mode to: BOTH\n'
p575
sa(dp576
g2
S'29352'
p577
sg4
L1449728383890L
sg5
g6
sg7
S'PullToRefresh'
p578
sg9
S'29352'
p579
sg11
S'Setting Padding. L: 0, T: 0, R: 0, B: 0\n'
p580
sa(dp581
g2
S'29352'
p582
sg4
L1449728383970L
sg5
g6
sg7
S'PullToRefresh'
p583
sg9
S'29352'
p584
sg11
S'onSizeChanged. W: 480, H: 619\n'
p585
sa(dp586
g2
S'29352'
p587
sg4
L1449728383970L
sg5
g6
sg7
S'PullToRefresh'
p588
sg9
S'29352'
p589
sg11
S'Setting Padding. L: 0, T: -372, R: 0, B: -372\n'
p590
sa(dp591
g2
S'29352'
p592
sg4
L1449728383980L
sg5
g6
sg7
S'PullToRefresh'
p593
sg9
S'29352'
p594
sg11
S'First Visible: 0. Visible Count: 2. Total Items:2\n'
p595
sa(dp596
g2
S'29352'
p597
sg4
L1449728384020L
sg5
g6
sg7
S'PullToRefresh'
p598
sg9
S'29352'
p599
sg11
S'First Visible: 0. Visible Count: 2. Total Items:2\n'
p600
sa(dp601
g2
S'29352'
p602
sg4
L1449728384060L
sg5
g6
sg7
S'PullToRefresh'
p603
sg9
S'29352'
p604
sg11
S'First Visible: 0. Visible Count: 2. Total Items:2\n'
p605
sa(dp606
g2
S'29352'
p607
sg4
L1449728384090L
sg5
g15
sg7
S'AsyncHttpRH'
p608
sg9
S'29352'
p609
sg11
S'Progress 4089 from 14052 (29%)\n'
p610
sa(dp611
g2
S'29352'
p612
sg4
L1449728384120L
sg5
g15
sg7
S'AsyncHttpRH'
p613
sg9
S'29352'
p614
sg11
S'Progress 5537 from 14052 (39%)\n'
p615
sa(dp616
g2
S'29352'
p617
sg4
L1449728384120L
sg5
g15
sg7
S'AsyncHttpRH'
p618
sg9
S'29352'
p619
sg11
S'Progress 8433 from 14052 (60%)\n'
p620
sa(dp621
g2
S'29352'
p622
sg4
L1449728384120L
sg5
g15
sg7
S'AsyncHttpRH'
p623
sg9
S'29352'
p624
sg11
S'Progress 12529 from 14052 (89%)\n'
p625
sa(dp626
g2
S'29352'
p627
sg4
L1449728384130L
sg5
g15
sg7
S'AsyncHttpRH'
p628
sg9
S'29352'
p629
sg11
S'Progress 12777 from 14052 (91%)\n'
p630
sa(dp631
g2
S'29352'
p632
sg4
L1449728384150L
sg5
g15
sg7
S'AsyncHttpRH'
p633
sg9
S'29352'
p634
sg11
S'Progress 14052 from 14052 (100%)\n'
p635
sa(dp636
g2
S'29352'
p637
sg4
L1449728384150L
sg5
g6
sg7
S'http    '
p638
sg9
S'29352'
p639
sg11
S'\xe8\xbf\x94\xe5\x9b\x9e\xe7\x9a\x84\xe7\xbb\x93\xe6\x9e\x9c\xef\xbc\x9a{\n  "State": 1,\n  "Data": [\n    {\n      "SchoolId": 1,\n      "Code": "DYH00008",\n      "Name": "\xe5\x88\x9d\xe4\xb8\xad\xe5\x8c\x96\xe5\xad\xa6",\n      "KeyWord": "\xe5\x88\x9d\xe5\x8c\x96",\n      "KeyColor": "10",\n      "IsRecommended": true,\n      "AttentionNum": 0,\n      "FansNum": 1583,\n      "Created": "2015-05-13 17:01:38",\n      "Published": "2015-05-13 17:01:38",\n      "UserId": "xdf004007434",\n      "UserType": 5,\n      "Description": "\xe5\x8c\x97\xe4\xba\xac\xe6\x96\xb0\xe4\xb8\x9c\xe6\x96\xb9\xe4\xbc\x98\xe8\x83\xbd\xe4\xb8\xad\xe5\xad\xa6\xe5\x88\x9d\xe4\xb8\xad\xe5\x8c\x96\xe5\xad\xa6\xe6\x95\x99\xe7\xa0\x94\xe7\xbb\x84\xef\xbc\x8c\xe9\x9b\x86\xe7\xbb\x93\xe4\xba\xac\xe5\x9f\x8e\xe5\x90\x8d\xe5\xb8\x88\xef\xbc\x8c\xe4\xb8\xba\xe4\xb8\xad\xe8\x80\x83\xe8\x80\x83\xe7\x94\x9f\xe5\xa4\x87\xe6\x88\x98\xe4\xb8\x80\xe4\xb8\xaa\xe5\x85\xa8\xe6\x96\xb0\xe7\x9a\x84\xe5\xad\xa6\xe7\xa7\x91\xef\xbc\x8c\xe6\x8a\x93\xe4\xbd\x8f\xe5\x88\x9d\xe4\xb8\xad\xe6\x9c\x80\xe5\x90\x8e\xe4\xb8\x80\xe4\xb8\xaa\xe8\xb6\x85\xe8\xb6\x8a\xe5\x88\xab\xe4\xba\xba\xe7\x9a\x84\xe6\x9c\xba\xe4\xbc\x9a\xef\xbc\x8c\xe4\xbb\xa5\xe5\xb9\xbd\xe9\xbb\x98\xe9\xa3\x8e\xe8\xb6\xa3\xe7\x9a\x84\xe6\x95\x99\xe5\xad\xa6\xe5\xbd\xa2\xe5\xbc\x8f\xef\xbc\x8c\xe4\xbb\xa5\xe4\xb8\xa5\xe8\xb0\xa8\xe8\xae\xa4\xe7\x9c\x9f\xe7\x9a\x84\xe6\x95\x99\xe7\xa0\x94\xe6\x89\x8b\xe6\xb3\x95\xef\xbc\x8c\xe4\xbb\xa5\xe5\x8a\xa1\xe5\xae\x9e\xe8\xaf\x9a\xe6\x81\xb3\xe7\x9a\x84\xe6\xb2\xbb\xe5\xad\xa6\xe6\x80\x81\xe5\xba\xa6\xef\xbc\x8c\xe6\xaf\x8f\xe5\xb9\xb4\xe5\x9f\xb9\xe5\x85\xbb\xe5\x87\xba\xe5\xa4\xa7\xe9\x87\x8f\xe5\x8c\x96\xe5\xad\xa6\xe9\xab\x98\xe5\x88\x86\xe5\xad\xa6\xe5\x91\x98\xe3\x80\x82",\n      "HasSubscribed": 1,\n      "Subject": null,\n      "Id": 9\n    },\n    {\n      "SchoolId": 1,\n      "Code": "DYH00004",\n      "Name": "\xe5\x88\x9d\xe4\xb8\xad\xe6\x95\xb0\xe5\xad\xa6",\n      "KeyWord": "\xe5\x88\x9d\xe6\x95\xb0",\n      "KeyColor": "3",\n      "IsRecommended": true,\n      "AttentionNum": 0,\n      "FansNum": 2982,\n      "Created": "2015-05-13 17:01:38",\n      "Published": "2015-05-13 17:01:38",\n      "UserId": "xdf004007423",\n      "UserType": 5,\n      "Description": "\xe7\x94\xb1\xe6\x96\xb0\xe4\xb8\x9c\xe6\x96\xb9\xe5\x88\x9d\xe4\xb8\xad\xe6\x95\xb0\xe5\xad\xa6\xe6\x95\x99\xe7\xa0\x94\xe7\xbb\x84\xe6\x8e\xa8\xe9\x80\x81\xef\xbc\x8c\xe4\xbb\xa5\xe6\x95\xb0\xe5\xad\xa6\xe5\xad\xa6\xe4\xb9\xa0\xe4\xb8\xba\xe4\xb8\xbb\xef\xbc\x8c\xe4\xbb\xa5\xe6\x8f\x90\xe9\xab\x98\xe5\xad\xa6\xe7\x94\x9f\xe6\x95\xb0\xe5\xad\xa6\xe6\x88\x90\xe7\xbb\xa9\xe4\xb8\xba\xe7\x9b\xae\xe6\xa0\x87\xef\xbc\x8c\xe5\x88\x86\xe4\xba\xab\xe7\xbb\x8f\xe5\x85\xb8\xe5\xa5\xbd\xe9\xa2\x98\xe3\x80\x81\xe5\xa5\xbd\xe6\x96\xb9\xe6\xb3\x95\xe3\x80\x81\xe8\x80\x83\xe8\xaf\x95\xe7\x9c\x9f\xe9\xa2\x98\xe7\xad\x89\xef\xbc\x8c\xe4\xb8\xba\xe4\xbd\xa0\xe6\x89\x93\xe9\x80\xa0\xe4\xb8\x80\xe4\xb8\xaa\xe4\xb8\x93\xe4\xb8\x9a\xe3\x80\x81\xe4\xbe\xbf\xe6\x8d\xb7\xe7\x9a\x84\xe5\xad\xa6\xe4\xb9\xa0\xe5\xb9\xb3\xe5\x8f\xb0\xef\xbc\x8c\xe8\xae\xa9\xe4\xbd\xa0\xe8\xbf\x9b\xe6\xad\xa5\xe6\x9b\xb4\xe5\xa4\x9a\xef\xbc\x81",\n      "HasSubscribed": 0,\n      "Subject": null,\n      "Id": 5\n    },\n    {\n      "SchoolId": 1,\n      "Code": "DYH00007",\n      "Name": "\xe5\x88\x9d\xe4\xb8\xad\xe7\x89\xa9\xe7\x90\x86",\n      "KeyWord": "\xe5\x88\x9d\xe7\x89\xa9",\n      "KeyColor": "2",\n      "IsRecommended": true,\n      "AttentionNum": 0,\n      "FansNum": 2145,\n      "Created": "2015-05-13 17:01:38",\n      "Published": "2015-05-13 17:01:38",\n      "UserId": "xdf004007432",\n      "UserType": 5,\n      "Description": "\xe6\x96\xb0\xe4\xb8\x9c\xe6\x96\xb9\xe4\xbc\x98\xe8\x83\xbd\xe4\xb8\xad\xe5\xad\xa6\xe9\x83\xa8\xe5\x88\x9d\xe4\xb8\xad\xe7\x89\xa9\xe7\x90\x86\xe9\xa1\xb9\xe7\x9b\xae\xe7\xbb\x84\xe5\xae\x98\xe6\x96\xb9\xe8\xae\xa2\xe9\x98\x85\xe5\x8f\xb7\xe3\x80\x82\xe7\x89\xa9\xe7\x90\x86\xe7\xb2\xbe\xe9\x80\x89\xe5\xa5\xbd\xe9\xa2\x98\xe3\x80\x81\xe7\x89\xa9\xe7\x90\x86\xe5\xad\xa6\xe5\xb0\x8f\xe6\x95\x85\xe4\xba\x8b\xe3\x80\x81\xe7\x94\x9f\xe6\xb4\xbb\xe4\xb8\xad\xe7\x9a\x84\xe7\x89\xa9\xe7\x90\x86\xe5\xae\x9a\xe6\x9c\x9f\xe6\x8e\xa8\xe9\x80\x81\xef\xbc\x8c\xe8\xae\xa9\xe4\xbd\xa0\xe4\xbd\x93\xe4\xbc\x9a\xe7\x89\xa9\xe7\x90\x86\xe4\xb9\x8b\xe7\xbe\x8e\xef\xbc\x9b\xe5\x8c\x97\xe4\xba\xac\xe4\xb8\xad\xe8\x80\x83\xe6\x94\xbf\xe7\xad\x96\xe5\x8f\x98\xe5\x8c\x96\xe3\x80\x81\xe5\x90\x84\xe5\x8c\xba\xe7\x89\xa9\xe7\x90\x86\xe6\x9c\x9f\xe4\xb8\xad\xe6\x9c\x9f\xe6\x9c\xab\xe6\xa8\xa1\xe8\x80\x83\xe8\xaf\x95\xe9\xa2\x98\xe5\xae\x9a\xe6\x9c\x9f\xe6\x9b\xb4\xe6\x96\xb0\xef\xbc\x8c\xe7\xbb\x99\xe4\xbd\xa0\xe7\x89\xa9\xe7\x90\x86\xe6\x8f\x90\xe5\x88\x86\xe5\x88\xa9\xe5\x99\xa8\xe3\x80\x82\xe4\xb8\x80\xe4\xb8\xaa\xe8\xae\xa2\xe9\x98\x85\xe5\x8f\xb7\xef\xbc\x8c\xe5\x88\x9d\xe4\xb8\xad\xe7\x89\xa9\xe7\x90\x86\xe6\x96\xb0\xe9\xb2\x9c\xe8\xb5\x84\xe8\xae\xaf\xe4\xb8\x80\xe6\x89\x8b\xe6\x8e\x8c\xe6\x8f\xa1\xef\xbc\x81",\n      "HasSubscribed": 0,\n      "Subject": null,\n      "Id": 8\n    },\n    {\n      "SchoolId": 1,\n      "Code": "DYH00005",\n      "Name": "\xe5\x88\x9d\xe4\xb8\xad\xe8\x8b\xb1\xe8\xaf\xad\xe9\x9d\x9e\xe5\xba\x94\xe8\xaf\x95",\n      "KeyWord": "\xe5\x88\x9d\xe8\x8b\xb1",\n      "KeyColor": "7",\n      "IsRecommended": true,\n      "AttentionNum": 0,\n      "FansNum": 2274,\n      "Created": "2015-05-13 17:01:38",\n      "Published": "2015-05-13 17:01:38",\n      "UserId": "xdf004007426",\n      "UserType": 5,\n      "Description": "\xe5\x8c\x97\xe4\xba\xac\xe6\x96\xb0\xe4\xb8\x9c\xe6\x96\xb9\xe4\xbc\x98\xe8\x83\xbd\xe4\xb8\xad\xe5\xad\xa6\xe5\x88\x9d\xe4\xb8\xad\xe8\x8b\xb1\xe8\xaf\xad\xe6\x95\x99\xe7\xa0\x94\xe7\xbb\x84\xef\xbc\x8c\xe6\x98\xaf\xe4\xba\xac\xe5\x9f\x8e\xe6\x9c\x80\xe6\x9d\x83\xe5\xa8\x81\xe7\x9a\x84\xe8\x8b\xb1\xe8\xaf\xad\xe6\x95\x99\xe5\xad\xa6\xe5\x9b\xa2\xe9\x98\x9f\xe4\xb9\x8b\xe4\xb8\x80\xef\xbc\x8c\xe5\x85\xb7\xe6\x9c\x89\xe7\x8b\xac\xe5\x88\xb0\xe7\x9a\x84\xe2\x80\x9c\xe8\xbe\x93\xe5\x85\xa5\xe8\xbe\x93\xe5\x87\xba\xe2\x80\x9d\xe7\x9b\xb8\xe7\xbb\x93\xe5\x90\x88\xe7\x9a\x84\xe6\x95\x99\xe5\xad\xa6\xe4\xbd\x93\xe7\xb3\xbb\xe3\x80\x82\xe9\x80\x9a\xe8\xbf\x87\xe4\xb8\x80\xe5\xb9\xb4\xe5\x9b\x9b\xe5\xad\xa3\xe7\xbb\x86\xe8\x87\xb4\xe8\xa7\x84\xe5\x88\x92\xe5\x8f\x8a\xe7\x9b\x91\xe6\x8e\xa7\xe8\x90\xbd\xe5\xae\x9e\xef\xbc\x8c\xe5\x9c\xa8\xe6\x8f\x90\xe5\x8d\x87\xe5\xad\xa6\xe5\x91\x98\xe8\x8b\xb1\xe8\xaf\xad\xe8\x83\xbd\xe5\x8a\x9b\xe7\x9a\x84\xe5\x9f\xba\xe7\xa1\x80\xe4\xb8\x8a\xe5\xbf\xab\xe9\x80\x9f\xe6\x8f\x90\xe5\x88\x86\xef\xbc\x8c\xe6\x88\x90\xe5\xb0\xb1\xe4\xba\x86\xe4\xb8\x8a\xe4\xb8\x87\xe5\x90\x8d\xe5\x88\x9d\xe4\xb8\xad\xe8\x8b\xb1\xe8\xaf\xad\xe7\xb2\xbe\xe8\x8b\xb1\xe3\x80\x82",\n      "HasSubscribed": 0,\n      "Subject": null,\n      "Id": 6\n    },\n    {\n      "SchoolId": 1,\n      "Code": "DYH00003",\n      "Name": "\xe5\x88\x9d\xe4\xb8\xad\xe8\xaf\xad\xe6\x96\x87",\n      "KeyWord": "\xe5\x88\x9d\xe8\xaf\xad",\n      "KeyColor": "9",\n      "IsRecommended": true,\n      "AttentionNum": 0,\n      "FansNum": 3021,\n      "Created": "2015-05-13 17:01:38",\n      "Published": "2015-05-13 17:01:38",\n      "UserId": "xdf004007421",\n      "UserType": 5,\n      "Description": "\xe6\x9c\x80\xe6\x96\xb0\xe6\x9c\x80\xe5\x85\xa8\xe7\x9a\x84\xe5\x88\x9d\xe4\xb8\xad\xe8\xaf\xad\xe6\x96\x87\xe8\xb5\x84\xe8\xae\xaf\xe5\x93\xaa\xe9\x87\x8c\xe6\x9c\x89\xef\xbc\x9f\xe6\x9c\x80\xe5\x85\xb7\xe6\x9d\x83\xe5\xa8\x81\xe7\x9a\x84\xe5\x88\x9d\xe4\xb8\xad\xe8\xaf\xad\xe6\x96\x87\xe5\x90\x8d\xe5\xb8\x88\xe5\x93\xaa\xe9\x87\x8c\xe6\x9c\x89\xef\xbc\x9f\xe6\x9c\x80\xe6\x9c\x89\xe6\x95\x88\xe6\x9c\x80\xe5\xa5\xbd\xe5\xad\xa6\xe7\x9a\x84\xe6\x8f\x90\xe5\x88\x86\xe6\x96\xb9\xe6\xb3\x95\xe5\x93\xaa\xe9\x87\x8c\xe6\x9c\x89\xef\xbc\x9f\xe4\xb8\x8d\xe7\x94\xa8\xe5\x9b\x9b\xe5\xa4\x84\xe5\xaf\xbb\xe6\x89\xbe\xef\xbc\x8c\xe5\x8a\xa8\xe5\x8a\xa8\xe4\xbd\xa0\xe7\x9a\x84\xe6\x89\x8b\xe6\x8c\x87\xef\xbc\x8c\xe4\xb8\x80\xe5\x88\x87\xe4\xbd\xa0\xe6\x83\xb3\xe8\xa6\x81\xe7\x9a\x84\xe5\xb0\xb1\xe5\x9c\xa8\xe6\x96\xb0\xe4\xb8\x9c\xe6\x96\xb9\xe5\x88\x9d\xe4\xb8\xad\xe8\xaf\xad\xe6\x96\x87\xe8\xae\xa2\xe9\x98\x85\xe5\x8f\xb7\xef\xbc\x81",\n      "HasSubscribed": 0,\n      "Subject": null,\n      "Id": 4\n    },\n    {\n      "SchoolId": 1,\n      "Code": "DYH00009",\n      "Name": "\xe5\x88\x9d\xe4\xb8\xad\xe8\x8b\xb1\xe8\xaf\xad\xe4\xbd\x8f\xe5\xae\xbf",\n      "KeyWord": "\xe5\x88\x9d\xe4\xbd\x8f",\n      "KeyColor": "1",\n      "IsRecommended": true,\n      "AttentionNum": 0,\n      "FansNum": 782,\n      "Created": "2015-05-13 17:01:38",\n      "Published": "2015-05-13 17:01:38",\n      "UserId": "\n'
p640
sa(dp641
g2
S'29352'
p642
sg4
L1449728384460L
sg5
g6
sg7
S'PullToRefresh'
p643
sg9
S'29352'
p644
sg11
S'First Visible: 0. Visible Count: 9. Total Items:20\n'
p645
sa(dp646
g2
S'29352'
p647
sg4
L1449728386240L
sg5
g6
sg7
S'cn.edu.nju.ise.kikandroid'
p648
sg9
S'29412'
p649
sg11
S'Screenshot:1449728386254\n'
p650
sa(dp651
g2
S'29352'
p652
sg4
L1449728386370L
sg5
g6
sg7
S'dalvikvm'
p653
sg9
S'29356'
p654
sg11
S'GC_CONCURRENT freed 1310K, 19% free 26514K/32583K, paused 13ms+7ms, total 153ms\n'
p655
sa(dp656
g2
S'29352'
p657
sg4
L1449728386370L
sg5
g6
sg7
S'dalvikvm'
p658
sg9
S'29352'
p659
sg11
S'WAIT_FOR_CONCURRENT_GC blocked 79ms\n'
p660
sa(dp661
g2
S'29352'
p662
sg4
L1449728386480L
sg5
g6
sg7
S'dalvikvm'
p663
sg9
S'29352'
p664
sg11
S'GC_FOR_ALLOC freed 97K, 15% free 28019K/32583K, paused 77ms, total 78ms\n'
p665
sa(dp666
g2
S'29352'
p667
sg4
L1449728387370L
sg5
g6
sg7
S'long    '
p668
sg9
S'29352'
p669
sg11
S'cancle request\xef\xbc\x9acom.xdf.ucan.ui.subscript.AddSubscriptionActivity\n'
p670
sa(dp671
g2
S'29352'
p672
sg4
L1449728387880L
sg5
g6
sg7
S'long    '
p673
sg9
S'29352'
p674
sg11
S'onRestart\n'
p675
sa(dp676
g2
S'29352'
p677
sg4
L1449728387880L
sg5
g6
sg7
S'http    '
p678
sg9
S'29352'
p679
sg11
S'\xe8\xaf\xb7\xe6\xb1\x82\xe7\x9a\x84\xe5\x9c\xb0\xe5\x9d\x80\xef\xbc\x9ahttp://ims.xdf.cn/imserver/appversion/getversion.do\n'
p680
sa(dp681
g2
S'29352'
p682
sg4
L1449728387880L
sg5
g6
sg7
S'http    '
p683
sg9
S'29352'
p684
sg11
S'\xe8\xaf\xb7\xe6\xb1\x82\xe7\x9a\x84\xe5\x8f\x82\xe6\x95\xb0\xef\xbc\x9aappCode=upoc_student&osType=2&appVersionResultType=1\n'
p685
sa(dp686
g2
S'29352'
p687
sg4
L1449728387880L
sg5
g6
sg7
S'long    '
p688
sg9
S'29352'
p689
sg11
S'context.getClass().getName():com.xdf.ucan.MainActivity\n'
p690
sa(dp691
g2
S'29352'
p692
sg4
L1449728387880L
sg5
g6
sg7
S'ImageLoader'
p693
sg9
S'29352'
p694
sg11
S'Load image from memory cache [http://my.xdf.cn/public/images/User/_Big.jpg_105x105]\n'
p695
sa(dp696
g2
S'29352'
p697
sg4
L1449728388060L
sg5
g15
sg7
S'AsyncHttpRH'
p698
sg9
S'29352'
p699
sg11
S'Progress 499 from 1 (49900%)\n'
p700
sa(dp701
g2
S'29352'
p702
sg4
L1449728388060L
sg5
g6
sg7
S'http    '
p703
sg9
S'29352'
p704
sg11
S'\xe8\xbf\x94\xe5\x9b\x9e\xe7\x9a\x84\xe7\xbb\x93\xe6\x9e\x9c\xef\xbc\x9a{"message":"\xe8\x8e\xb7\xe5\x8f\x96\xe5\xba\x94\xe7\x94\xa8\xe7\x89\x88\xe6\x9c\xac\xe5\x8f\xb7\xe6\x88\x90\xe5\x8a\x9f\xef\xbc\x81","status":"1","data":[{"id":2,"appCode":"upoc_student","appName":"\xe4\xbc\x98\xe6\x92\xad\xe8\xaf\xbeANDROID\xe5\xad\xa6\xe7\x94\x9f\xe7\xab\xaf","osType":"2","publishDate":1442541611000,"url":"http://www.pgyer.com/qe34","version":"2.1.0","updateType":"0","buildCode":"35","description":"\xe2\x80\x9c\xe5\x93\x92\xe5\x93\x92\xe5\x93\x92\xe2\x80\x9d \xe8\xb5\x84\xe6\x96\x99\xe8\xa7\x82\xe7\x9c\x8b\xe4\xb8\x8d\xe8\xbf\x87\xe7\x98\xbe\xef\xbc\x9f \xe5\x9c\xb0\xe9\x93\x81\xef\xbc\x9f\xe6\xb2\xa1\xe7\xbd\x91\xef\xbc\x9f\xe4\xbc\x98\xe6\x92\xad\xe8\xaf\xbe\xe7\xbc\x93\xe5\xad\x98\xe7\xa6\xbb\xe7\xba\xbf\xe6\x96\x87\xe4\xbb\xb6\xef\xbc\x8c\xe6\xb8\xa9\xe6\x9a\x96\xe4\xbd\xa0\xe6\x95\xb4\xe4\xb8\xaa\xe5\x86\xac\xe5\xa4\xa9\xef\xbc\x8c\xe5\xbf\xab\xe5\x8e\xbb\xe4\xbd\x93\xe9\xaa\x8c\xe5\x90\xa7\xef\xbc\x81","noticeDate":1448270388000,"noticeUserType":"1","noticeFlag":"1"}],"date":1449728366382}\n'
p705
sa(dp706
g2
S'29352'
p707
sg4
L1449728388060L
sg5
g36
sg7
S'System.out'
p708
sg9
S'29352'
p709
sg11
S'res:{"message":"\xe8\x8e\xb7\xe5\x8f\x96\xe5\xba\x94\xe7\x94\xa8\xe7\x89\x88\xe6\x9c\xac\xe5\x8f\xb7\xe6\x88\x90\xe5\x8a\x9f\xef\xbc\x81","status":"1","data":[{"id":2,"appCode":"upoc_student","appName":"\xe4\xbc\x98\xe6\x92\xad\xe8\xaf\xbeANDROID\xe5\xad\xa6\xe7\x94\x9f\xe7\xab\xaf","osType":"2","publishDate":1442541611000,"url":"http://www.pgyer.com/qe34","version":"2.1.0","updateType":"0","buildCode":"35","description":"\xe2\x80\x9c\xe5\x93\x92\xe5\x93\x92\xe5\x93\x92\xe2\x80\x9d \xe8\xb5\x84\xe6\x96\x99\xe8\xa7\x82\xe7\x9c\x8b\xe4\xb8\x8d\xe8\xbf\x87\xe7\x98\xbe\xef\xbc\x9f \xe5\x9c\xb0\xe9\x93\x81\xef\xbc\x9f\xe6\xb2\xa1\xe7\xbd\x91\xef\xbc\x9f\xe4\xbc\x98\xe6\x92\xad\xe8\xaf\xbe\xe7\xbc\x93\xe5\xad\x98\xe7\xa6\xbb\xe7\xba\xbf\xe6\x96\x87\xe4\xbb\xb6\xef\xbc\x8c\xe6\xb8\xa9\xe6\x9a\x96\xe4\xbd\xa0\xe6\x95\xb4\xe4\xb8\xaa\xe5\x86\xac\xe5\xa4\xa9\xef\xbc\x8c\xe5\xbf\xab\xe5\x8e\xbb\xe4\xbd\x93\xe9\xaa\x8c\xe5\x90\xa7\xef\xbc\x81","noticeDate":1448270388000,"noticeUserType":"1","noticeFlag":"1"}],"date":1449728366382}\n'
p710
sa(dp711
g2
S'29352'
p712
sg4
L1449728388270L
sg5
g6
sg7
S'long    '
p713
sg9
S'29352'
p714
sg11
S'cancle request\xef\xbc\x9acom.xdf.ucan.ui.subscript.MySubscriptionActivity\n'
p715
sa(dp716
g2
S'29352'
p717
sg4
L1449728396970L
sg5
g6
sg7
S'PullToRefresh'
p718
sg9
S'29352'
p719
sg11
S'Setting Padding. L: 0, T: 0, R: 0, B: 0\n'
p720
sa(dp721
g2
S'29352'
p722
sg4
L1449728397020L
sg5
g6
sg7
S'PullToRefresh'
p723
sg9
S'29352'
p724
sg11
S'addView: LinearLayout\n'
p725
sa(dp726
g2
S'29352'
p727
sg4
L1449728397050L
sg5
g6
sg7
S'long    '
p728
sg9
S'29352'
p729
sg11
S'prestr\xef\xbc\x9aappid=5004&examenddate=2015-12-10 14:19:57.61&examstartdate=1970-01-01 08:00:00.0&method=GetLatestResourceVideoExamStatistics&resourceenddate=2015-12-10 14:19:57.44&resourcestartdate=1970-01-01 08:00:00.0&schoolid=0&userid=xdf004483209&videoenddate=2015-12-10 14:19:57.54&videostartdate=1970-01-01 08:00:00.0&AppKey=v5key_my$cj_cnQcm\n'
p730
sa(dp731
g2
S'29352'
p732
sg4
L1449728397060L
sg5
g6
sg7
S'http    '
p733
sg9
S'29352'
p734
sg11
S'\xe8\xaf\xb7\xe6\xb1\x82\xe7\x9a\x84\xe5\x9c\xb0\xe5\x9d\x80\xef\xbc\x9ahttp://upoc.xdf.cn/index\n'
p735
sa(dp736
g2
S'29352'
p737
sg4
L1449728397060L
sg5
g6
sg7
S'http    '
p738
sg9
S'29352'
p739
sg11
S'\xe8\xaf\xb7\xe6\xb1\x82\xe7\x9a\x84\xe5\x8f\x82\xe6\x95\xb0\xef\xbc\x9amethod=GetLatestResourceVideoExamStatistics&userid=xdf004483209&schoolid=0&resourcestartdate=1970-01-01 08:00:00.0&resourceenddate=2015-12-10 14:19:57.44&videostartdate=1970-01-01 08:00:00.0&videoenddate=2015-12-10 14:19:57.54&examstartdate=1970-01-01 08:00:00.0&examenddate=2015-12-10 14:19:57.61&appid=5004&sign=969D09B70D382821578A5CDB527CF9E4\n'
p740
sa(dp741
g2
S'29352'
p742
sg4
L1449728397060L
sg5
g6
sg7
S'long    '
p743
sg9
S'29352'
p744
sg11
S'context.getClass().getName():com.xdf.ucan.MainActivity\n'
p745
sa(dp746
g2
S'29352'
p747
sg4
L1449728397130L
sg5
g6
sg7
S'dalvikvm'
p748
sg9
S'29356'
p749
sg11
S'GC_CONCURRENT freed 11862K, 45% free 18204K/32583K, paused 13ms+8ms, total 158ms\n'
p750
sa(dp751
g2
S'29352'
p752
sg4
L1449728397130L
sg5
g6
sg7
S'dalvikvm'
p753
sg9
S'29352'
p754
sg11
S'WAIT_FOR_CONCURRENT_GC blocked 34ms\n'
p755
sa(dp756
g2
S'29352'
p757
sg4
L1449728397140L
sg5
g6
sg7
S'PullToRefresh'
p758
sg9
S'29352'
p759
sg11
S'onSizeChanged. W: 480, H: 678\n'
p760
sa(dp761
g2
S'29352'
p762
sg4
L1449728397140L
sg5
g6
sg7
S'PullToRefresh'
p763
sg9
S'29352'
p764
sg11
S'Setting Padding. L: 0, T: -406, R: 0, B: 0\n'
p765
sa(dp766
g2
S'29352'
p767
sg4
L1449728397230L
sg5
g15
sg7
S'AsyncHttpRH'
p768
sg9
S'29352'
p769
sg11
S'Progress 569 from 569 (100%)\n'
p770
sa(dp771
g2
S'29352'
p772
sg4
L1449728397230L
sg5
g6
sg7
S'http    '
p773
sg9
S'29352'
p774
sg11
S'\xe8\xbf\x94\xe5\x9b\x9e\xe7\x9a\x84\xe7\xbb\x93\xe6\x9e\x9c\xef\xbc\x9a{\n  "State": 1,\n  "Data": [\n    {\n      "Attr": "subscription",\n      "FileType": 1,\n      "FileId": 59882,\n      "FileName": "\xe5\x85\x89\xe5\xad\x90\xe9\xbc\xbb\xe4\xb8\x8e\xe5\x88\x86\xe5\xad\x90\xe6\x9d\x90\xe6\x96\x99\xe7\xa0\x94\xe7\xa9\xb6\xe5\x9b\xa2\xe9\x98\x9f\xe5\x9c\xa8\xe6\x96\xb0\xe5\x9e\x8b\xe8\x9b\x8b\xe7\x99\xbd\xe8\xb4\xa8\xe5\x9f\xba\xe7\x95\x8c\xe9\x9d\xa2\xe6\x9d\x90\xe6\x96\x99\xe9\xa2\x86\xe5\x9f\x9f\xe5\x8f\x96\xe5\xbe\x97\xe9\x87\x8d\xe8\xa6\x81\xe8\xbf\x9b\xe5\xb1\x95",\n      "Created": "2015-12-09 23:09:06",\n      "TotalCount": 67\n    },\n    {\n      "Attr": "subscription",\n      "FileType": 2,\n      "FileId": 47187,\n      "FileName": "SPOC\xe7\xac\xac\xe4\xba\x8c\xe5\x8d\x81\xe4\xb8\x83\xe8\xae\xb2\xe7\x89\xa9\xe8\xb4\xa8\xe7\x9a\x84\xe9\x89\xb4\xe5\x88\xab\xe2\x80\x94\xe2\x80\x94\xe8\xb0\xad\xe9\xbe\x99",\n      "Created": "2015-12-02 18:46:12",\n      "TotalCount": 2\n    }\n  ],\n  "Error": "",\n  "DataCount": 0\n'
p775
sa(dp776
g2
S'29352'
p777
sg4
L1449728397230L
sg5
g6
sg7
S'long    '
p778
sg9
S'29352'
p779
sg11
S'conunt:{\n  "State": 1,\n  "Data": [\n    {\n      "Attr": "subscription",\n      "FileType": 1,\n      "FileId": 59882,\n      "FileName": "\xe5\x85\x89\xe5\xad\x90\xe9\xbc\xbb\xe4\xb8\x8e\xe5\x88\x86\xe5\xad\x90\xe6\x9d\x90\xe6\x96\x99\xe7\xa0\x94\xe7\xa9\xb6\xe5\x9b\xa2\xe9\x98\x9f\xe5\x9c\xa8\xe6\x96\xb0\xe5\x9e\x8b\xe8\x9b\x8b\xe7\x99\xbd\xe8\xb4\xa8\xe5\x9f\xba\xe7\x95\x8c\xe9\x9d\xa2\xe6\x9d\x90\xe6\x96\x99\xe9\xa2\x86\xe5\x9f\x9f\xe5\x8f\x96\xe5\xbe\x97\xe9\x87\x8d\xe8\xa6\x81\xe8\xbf\x9b\xe5\xb1\x95",\n      "Created": "2015-12-09 23:09:06",\n      "TotalCount": 67\n    },\n    {\n      "Attr": "subscription",\n      "FileType": 2,\n      "FileId": 47187,\n      "FileName": "SPOC\xe7\xac\xac\xe4\xba\x8c\xe5\x8d\x81\xe4\xb8\x83\xe8\xae\xb2\xe7\x89\xa9\xe8\xb4\xa8\xe7\x9a\x84\xe9\x89\xb4\xe5\x88\xab\xe2\x80\x94\xe2\x80\x94\xe8\xb0\xad\xe9\xbe\x99",\n      "Created": "2015-12-02 18:46:12",\n      "TotalCount": 2\n    }\n  ],\n  "Error": "",\n  "DataCount": 0\n'
p780
sa(dp781
g2
S'29352'
p782
sg4
L1449728397900L
sg5
g6
sg7
S'long    '
p783
sg9
S'29352'
p784
sg11
S'onCreate\n'
p785
sa(dp786
g2
S'29352'
p787
sg4
L1449728397900L
sg5
g6
sg7
S'long    '
p788
sg9
S'29352'
p789
sg11
S'onCreateView\n'
p790
sa(dp791
g2
S'29352'
p792
sg4
L1449728397970L
sg5
g6
sg7
S'liang   '
p793
sg9
S'29352'
p794
sg11
S'onPageSelected\xef\xbc\x9a1073741824\n'
p795
sa(dp796
g2
S'29352'
p797
sg4
L1449728398110L
sg5
g6
sg7
S'liang   '
p798
sg9
S'29352'
p799
sg11
S'onPageScrolled disP\xef\xbc\x9a0.0 disX:0\n'
p800
sa(dp801
g2
S'29352'
p802
sg4
L1449728402610L
sg5
S'W'
p803
sg7
S'System.err'
p804
sg9
S'30579'
p805
sg11
S'org.apache.http.conn.ConnectTimeoutException: Connect to /116.213.70.23:80 timed out\n'
p806
sa(dp807
g2
S'29352'
p808
sg4
L1449728403470L
sg5
g803
sg7
S'System.err'
p809
sg9
S'30579'
p810
sg11
S'\tat org.apache.http.conn.scheme.PlainSocketFactory.connectSocket(PlainSocketFactory.java:121)\n'
p811
sa(dp812
g2
S'29352'
p813
sg4
L1449728403470L
sg5
g803
sg7
S'System.err'
p814
sg9
S'30579'
p815
sg11
S'\tat org.apache.http.impl.conn.DefaultClientConnectionOperator.openConnection(DefaultClientConnectionOperator.java:144)\n'
p816
sa(dp817
g2
S'29352'
p818
sg4
L1449728403470L
sg5
g803
sg7
S'System.err'
p819
sg9
S'30579'
p820
sg11
S'\tat org.apache.http.impl.conn.AbstractPoolEntry.open(AbstractPoolEntry.java:164)\n'
p821
sa(dp822
g2
S'29352'
p823
sg4
L1449728403470L
sg5
g803
sg7
S'System.err'
p824
sg9
S'30579'
p825
sg11
S'\tat org.apache.http.impl.conn.AbstractPooledConnAdapter.open(AbstractPooledConnAdapter.java:119)\n'
p826
sa(dp827
g2
S'29352'
p828
sg4
L1449728403470L
sg5
g803
sg7
S'System.err'
p829
sg9
S'30579'
p830
sg11
S'\tat org.apache.http.impl.client.DefaultRequestDirector.execute(DefaultRequestDirector.java:452)\n'
p831
sa(dp832
g2
S'29352'
p833
sg4
L1449728403470L
sg5
g803
sg7
S'System.err'
p834
sg9
S'30579'
p835
sg11
S'\tat org.apache.http.impl.client.AbstractHttpClient.execute(AbstractHttpClient.java:555)\n'
p836
sa(dp837
g2
S'29352'
p838
sg4
L1449728403470L
sg5
g803
sg7
S'System.err'
p839
sg9
S'30579'
p840
sg11
S'\tat org.apache.http.impl.client.AbstractHttpClient.execute(AbstractHttpClient.java:487)\n'
p841
sa(dp842
g2
S'29352'
p843
sg4
L1449728403470L
sg5
g803
sg7
S'System.err'
p844
sg9
S'30579'
p845
sg11
S'\tat com.loopj.android.http.AsyncHttpRequest.makeRequest(AsyncHttpRequest.java:146)\n'
p846
sa(dp847
g2
S'29352'
p848
sg4
L1449728403470L
sg5
g803
sg7
S'System.err'
p849
sg9
S'30579'
p850
sg11
S'\tat com.loopj.android.http.AsyncHttpRequest.makeRequestWithRetries(AsyncHttpRequest.java:177)\n'
p851
sa(dp852
g2
S'29352'
p853
sg4
L1449728403470L
sg5
g803
sg7
S'System.err'
p854
sg9
S'30579'
p855
sg11
S'\tat com.loopj.android.http.AsyncHttpRequest.run(AsyncHttpRequest.java:106)\n'
p856
sa(dp857
g2
S'29352'
p858
sg4
L1449728403470L
sg5
g803
sg7
S'System.err'
p859
sg9
S'30579'
p860
sg11
S'\tat java.util.concurrent.Executors$RunnableAdapter.call(Executors.java:442)\n'
p861
sa(dp862
g2
S'29352'
p863
sg4
L1449728403470L
sg5
g803
sg7
S'System.err'
p864
sg9
S'30579'
p865
sg11
S'\tat java.util.concurrent.FutureTask$Sync.innerRun(FutureTask.java:305)\n'
p866
sa(dp867
g2
S'29352'
p868
sg4
L1449728403470L
sg5
g803
sg7
S'System.err'
p869
sg9
S'30579'
p870
sg11
S'\tat java.util.concurrent.FutureTask.run(FutureTask.java:137)\n'
p871
sa(dp872
g2
S'29352'
p873
sg4
L1449728403470L
sg5
g803
sg7
S'System.err'
p874
sg9
S'30579'
p875
sg11
S'\tat java.util.concurrent.ThreadPoolExecutor.runWorker(ThreadPoolExecutor.java:1076)\n'
p876
sa(dp877
g2
S'29352'
p878
sg4
L1449728403470L
sg5
g803
sg7
S'System.err'
p879
sg9
S'30579'
p880
sg11
S'\tat java.util.concurrent.ThreadPoolExecutor$Worker.run(ThreadPoolExecutor.java:569)\n'
p881
sa(dp882
g2
S'29352'
p883
sg4
L1449728403470L
sg5
g803
sg7
S'System.err'
p884
sg9
S'30579'
p885
sg11
S'\tat java.lang.Thread.run(Thread.java:856)\n'
p886
sa(dp887
g2
S'29352'
p888
sg4
L1449728403470L
sg5
g6
sg7
S'http    '
p889
sg9
S'29352'
p890
sg11
S'\xe8\xbf\x94\xe5\x9b\x9e\xe7\x9a\x84\xe7\xbb\x93\xe6\x9e\x9c\xef\xbc\x9aorg.apache.http.conn.ConnectTimeoutException: Connect to /116.213.70.23:80 timed out\n'
p891
sa(dp892
g2
S'29352'
p893
sg4
L1449728411390L
sg5
g6
sg7
S'cn.edu.nju.ise.kikandroid'
p894
sg9
S'29412'
p895
sg11
S'Screenshot:1449728411403\n'
p896
sa(dp897
g2
S'29352'
p898
sg4
L1449728411590L
sg5
g6
sg7
S'dalvikvm'
p899
sg9
S'29352'
p900
sg11
S'GC_FOR_ALLOC freed 739K, 44% free 18304K/32583K, paused 116ms, total 122ms\n'
p901
sa(dp902
g2
S'29352'
p903
sg4
L1449728411710L
sg5
g6
sg7
S'dalvikvm'
p904
sg9
S'29352'
p905
sg11
S'GC_FOR_ALLOC freed 520K, 41% free 19409K/32583K, paused 73ms, total 73ms\n'
p906
sa(dp907
g2
S'29352'
p908
sg4
L1449728428180L
sg5
g6
sg7
S'PullToRefresh'
p909
sg9
S'29352'
p910
sg11
S'Setting Padding. L: 0, T: 0, R: 0, B: 0\n'
p911
sa(dp912
g2
S'29352'
p913
sg4
L1449728428200L
sg5
g6
sg7
S'PullToRefresh'
p914
sg9
S'29352'
p915
sg11
S'addView: LinearLayout\n'
p916
sa(dp917
g2
S'29352'
p918
sg4
L1449728428220L
sg5
g6
sg7
S'long    '
p919
sg9
S'29352'
p920
sg11
S'prestr\xef\xbc\x9aappid=5004&examenddate=2015-12-10 14:20:28.232&examstartdate=1970-01-01 08:00:00.0&method=GetLatestResourceVideoExamStatistics&resourceenddate=2015-12-10 14:20:28.222&resourcestartdate=1970-01-01 08:00:00.0&schoolid=0&userid=xdf004483209&videoenddate=2015-12-10 14:20:28.227&videostartdate=1970-01-01 08:00:00.0&AppKey=v5key_my$cj_cnQcm\n'
p921
sa(dp922
g2
S'29352'
p923
sg4
L1449728428220L
sg5
g6
sg7
S'http    '
p924
sg9
S'29352'
p925
sg11
S'\xe8\xaf\xb7\xe6\xb1\x82\xe7\x9a\x84\xe5\x9c\xb0\xe5\x9d\x80\xef\xbc\x9ahttp://upoc.xdf.cn/index\n'
p926
sa(dp927
g2
S'29352'
p928
sg4
L1449728428220L
sg5
g6
sg7
S'http    '
p929
sg9
S'29352'
p930
sg11
S'\xe8\xaf\xb7\xe6\xb1\x82\xe7\x9a\x84\xe5\x8f\x82\xe6\x95\xb0\xef\xbc\x9amethod=GetLatestResourceVideoExamStatistics&userid=xdf004483209&schoolid=0&resourcestartdate=1970-01-01 08:00:00.0&resourceenddate=2015-12-10 14:20:28.222&videostartdate=1970-01-01 08:00:00.0&videoenddate=2015-12-10 14:20:28.227&examstartdate=1970-01-01 08:00:00.0&examenddate=2015-12-10 14:20:28.232&appid=5004&sign=6307D6BF862E955ACCC8E85B1C9AEEB7\n'
p931
sa(dp932
g2
S'29352'
p933
sg4
L1449728428220L
sg5
g6
sg7
S'long    '
p934
sg9
S'29352'
p935
sg11
S'context.getClass().getName():com.xdf.ucan.MainActivity\n'
p936
sa(dp937
g2
S'29352'
p938
sg4
L1449728428260L
sg5
g6
sg7
S'PullToRefresh'
p939
sg9
S'29352'
p940
sg11
S'onSizeChanged. W: 480, H: 678\n'
p941
sa(dp942
g2
S'29352'
p943
sg4
L1449728428260L
sg5
g6
sg7
S'PullToRefresh'
p944
sg9
S'29352'
p945
sg11
S'Setting Padding. L: 0, T: -406, R: 0, B: 0\n'
p946
sa(dp947
g2
S'29352'
p948
sg4
L1449728428310L
sg5
g15
sg7
S'AsyncHttpRH'
p949
sg9
S'29352'
p950
sg11
S'Progress 569 from 569 (100%)\n'
p951
sa(dp952
g2
S'29352'
p953
sg4
L1449728428310L
sg5
g6
sg7
S'http    '
p954
sg9
S'29352'
p955
sg11
S'\xe8\xbf\x94\xe5\x9b\x9e\xe7\x9a\x84\xe7\xbb\x93\xe6\x9e\x9c\xef\xbc\x9a{\n  "State": 1,\n  "Data": [\n    {\n      "Attr": "subscription",\n      "FileType": 1,\n      "FileId": 59882,\n      "FileName": "\xe5\x85\x89\xe5\xad\x90\xe9\xbc\xbb\xe4\xb8\x8e\xe5\x88\x86\xe5\xad\x90\xe6\x9d\x90\xe6\x96\x99\xe7\xa0\x94\xe7\xa9\xb6\xe5\x9b\xa2\xe9\x98\x9f\xe5\x9c\xa8\xe6\x96\xb0\xe5\x9e\x8b\xe8\x9b\x8b\xe7\x99\xbd\xe8\xb4\xa8\xe5\x9f\xba\xe7\x95\x8c\xe9\x9d\xa2\xe6\x9d\x90\xe6\x96\x99\xe9\xa2\x86\xe5\x9f\x9f\xe5\x8f\x96\xe5\xbe\x97\xe9\x87\x8d\xe8\xa6\x81\xe8\xbf\x9b\xe5\xb1\x95",\n      "Created": "2015-12-09 23:09:06",\n      "TotalCount": 67\n    },\n    {\n      "Attr": "subscription",\n      "FileType": 2,\n      "FileId": 47187,\n      "FileName": "SPOC\xe7\xac\xac\xe4\xba\x8c\xe5\x8d\x81\xe4\xb8\x83\xe8\xae\xb2\xe7\x89\xa9\xe8\xb4\xa8\xe7\x9a\x84\xe9\x89\xb4\xe5\x88\xab\xe2\x80\x94\xe2\x80\x94\xe8\xb0\xad\xe9\xbe\x99",\n      "Created": "2015-12-02 18:46:12",\n      "TotalCount": 2\n    }\n  ],\n  "Error": "",\n  "DataCount": 0\n'
p956
sa(dp957
g2
S'29352'
p958
sg4
L1449728428310L
sg5
g6
sg7
S'long    '
p959
sg9
S'29352'
p960
sg11
S'conunt:{\n  "State": 1,\n  "Data": [\n    {\n      "Attr": "subscription",\n      "FileType": 1,\n      "FileId": 59882,\n      "FileName": "\xe5\x85\x89\xe5\xad\x90\xe9\xbc\xbb\xe4\xb8\x8e\xe5\x88\x86\xe5\xad\x90\xe6\x9d\x90\xe6\x96\x99\xe7\xa0\x94\xe7\xa9\xb6\xe5\x9b\xa2\xe9\x98\x9f\xe5\x9c\xa8\xe6\x96\xb0\xe5\x9e\x8b\xe8\x9b\x8b\xe7\x99\xbd\xe8\xb4\xa8\xe5\x9f\xba\xe7\x95\x8c\xe9\x9d\xa2\xe6\x9d\x90\xe6\x96\x99\xe9\xa2\x86\xe5\x9f\x9f\xe5\x8f\x96\xe5\xbe\x97\xe9\x87\x8d\xe8\xa6\x81\xe8\xbf\x9b\xe5\xb1\x95",\n      "Created": "2015-12-09 23:09:06",\n      "TotalCount": 67\n    },\n    {\n      "Attr": "subscription",\n      "FileType": 2,\n      "FileId": 47187,\n      "FileName": "SPOC\xe7\xac\xac\xe4\xba\x8c\xe5\x8d\x81\xe4\xb8\x83\xe8\xae\xb2\xe7\x89\xa9\xe8\xb4\xa8\xe7\x9a\x84\xe9\x89\xb4\xe5\x88\xab\xe2\x80\x94\xe2\x80\x94\xe8\xb0\xad\xe9\xbe\x99",\n      "Created": "2015-12-02 18:46:12",\n      "TotalCount": 2\n    }\n  ],\n  "Error": "",\n  "DataCount": 0\n'
p961
sa(dp962
g2
S'29352'
p963
sg4
L1449728428360L
sg5
g6
sg7
S'dalvikvm'
p964
sg9
S'29356'
p965
sg11
S'GC_CONCURRENT freed 3489K, 46% free 17896K/32583K, paused 9ms+18ms, total 118ms\n'
p966
sa(dp967
g2
S'29352'
p968
sg4
L1449728429040L
sg5
g6
sg7
S'PullToRefresh'
p969
sg9
S'29352'
p970
sg11
S'onSizeChanged. W: 480, H: 677\n'
p971
sa(dp972
g2
S'29352'
p973
sg4
L1449728429040L
sg5
g6
sg7
S'PullToRefresh'
p974
sg9
S'29352'
p975
sg11
S'Setting Padding. L: 0, T: -406, R: 0, B: 0\n'
p976
sa(dp977
g2
S'29352'
p978
sg4
L1449728429090L
sg5
g6
sg7
S'ImageLoader'
p979
sg9
S'29352'
p980
sg11
S'Load image from memory cache [http://my.xdf.cn/public/images/User/_Big.jpg_105x105]\n'
p981
sa(dp982
g2
S'29352'
p983
sg4
L1449728438870L
sg5
g6
sg7
S'cn.edu.nju.ise.kikandroid'
p984
sg9
S'29412'
p985
sg11
S'Screenshot:1449728438881\n'
p986
sa(dp987
g2
S'29352'
p988
sg4
L1449728439980L
sg5
g6
sg7
S'long    '
p989
sg9
S'29352'
p990
sg11
S'cancle request\xef\xbc\x9acom.xdf.ucan.MainActivity\n'
p991
sa(dp992
g2
S'29352'
p993
sg4
L1449728439990L
sg5
g6
sg7
S'long    '
p994
sg9
S'29352'
p995
sg11
S'fragment onDestroy\n'
p996
sa(dp997
g2
S'29379'
p998
sg4
L1449728440080L
sg5
g6
sg7
S'RongService'
p999
sg9
S'29379'
p1000
sg11
S'onUnbind, pid=29379\n'
p1001
sa(dp1002
g2
S'29379'
p1003
sg4
L1449728440080L
sg5
g6
sg7
S'RongService'
p1004
sg9
S'29379'
p1005
sg11
S'onDestroy, pid=29379\n'
p1006
sa(dp1007
g2
S'30773'
p1008
sg4
L1449728447470L
sg5
g212
sg7
S'Trace   '
p1009
sg9
S'30773'
p1010
sg11
S'error opening trace file: Permission denied (13)\n'
p1011
sa(dp1012
g2
S'30773'
p1013
sg4
L1449728447550L
sg5
g6
sg7
S'dalvikvm'
p1014
sg9
S'30776'
p1015
sg11
S'GC_CONCURRENT freed 179K, 5% free 8412K/8775K, paused 2ms+2ms, total 18ms\n'
p1016
sa(dp1017
g2
S'30773'
p1018
sg4
L1449728447550L
sg5
g6
sg7
S'dalvikvm'
p1019
sg9
S'30773'
p1020
sg11
S'WAIT_FOR_CONCURRENT_GC blocked 9ms\n'
p1021
sa(dp1022
g2
S'30773'
p1023
sg4
L1449728447600L
sg5
g6
sg7
S'ImageLoader'
p1024
sg9
S'30773'
p1025
sg11
S'Initialize ImageLoader with configuration\n'
p1026
sa(dp1027
g2
S'30773'
p1028
sg4
L1449728447640L
sg5
g6
sg7
S'long    '
p1029
sg9
S'30773'
p1030
sg11
S'getCurProcessName:com.xdf.ucan\n'
p1031
sa(dp1032
g2
S'30773'
p1033
sg4
L1449728447730L
sg5
g6
sg7
S'##KIT_io.rong.imkit.widget.provider.TextInputProvider:TextInputProvider'
p1034
sg9
S'30773'
p1035
sg11
S''
p1036
sa(dp1037
g2
S'30773'
p1038
sg4
L1449728447740L
sg5
g212
sg7
S'##IPC_io.rong.imkit.widget.provider.VoIPInputProvider:VoIPInputProvider'
p1039
sg9
S'30773'
p1040
sg11
S'----------\xe6\x9e\x84\xe9\x80\xa0\xe6\x96\xb9\xe6\xb3\x95----------\n'
p1041
sa(dp1042
g2
S'30773'
p1043
sg4
L1449728447740L
sg5
g6
sg7
S'dalvikvm'
p1044
sg9
S'30776'
p1045
sg11
S'GC_CONCURRENT freed 281K, 5% free 8721K/9159K, paused 2ms+3ms, total 42ms\n'
p1046
sa(dp1047
g2
S'30773'
p1048
sg4
L1449728447750L
sg5
g6
sg7
S'##IPC_com.xdf.ucan.BaseApplication:RongIMClient : init'
p1049
sg9
S'30773'
p1050
sg11
S'process = com.xdf.ucan\n'
p1051
sa(dp1052
g2
S'30773'
p1053
sg4
L1449728447760L
sg5
g212
sg7
S'        '
p1054
sg9
S'30773'
p1055
sg11
S'generic statfs: /data , size: 104850\n'
p1056
sa(dp1057
g2
S'30773'
p1058
sg4
L1449728447770L
sg5
g6
sg7
S'##COMMON_io.rong.push.PushContext:PushContext'
p1059
sg9
S'30773'
p1060
sg11
S'init\n'
p1061
sa(dp1062
g2
S'30773'
p1063
sg4
L1449728447820L
sg5
g36
sg7
S'##COMMON_io.rong.push.PushContext:sendConnectCommand'
p1064
sg9
S'30773'
p1065
sg11
S'2700\n'
p1066
sa(dp1067
g2
S'30773'
p1068
sg4
L1449728447830L
sg5
g6
sg7
S'##IPC_io.rong.imlib.RongIMClient:initBindService'
p1069
sg9
S'30773'
p1070
sg11
S'mIsBind = false\n'
p1071
sa(dp1072
g2
S'30773'
p1073
sg4
L1449728447850L
sg5
g6
sg7
S'##IPC_io.rong.imlib.RongIMClient:registerMessageType'
p1074
sg9
S'30773'
p1075
sg11
S'class io.rong.message.TextMessage\n'
p1076
sa(dp1077
g2
S'30773'
p1078
sg4
L1449728447850L
sg5
g6
sg7
S'##IPC_io.rong.imlib.RongIMClient:registerMessageType'
p1079
sg9
S'30773'
p1080
sg11
S'class io.rong.message.VoiceMessage\n'
p1081
sa(dp1082
g2
S'30773'
p1083
sg4
L1449728447860L
sg5
g6
sg7
S'##IPC_io.rong.imlib.RongIMClient:registerMessageType'
p1084
sg9
S'30773'
p1085
sg11
S'class io.rong.message.ImageMessage\n'
p1086
sa(dp1087
g2
S'30773'
p1088
sg4
L1449728447860L
sg5
g6
sg7
S'##IPC_io.rong.imlib.RongIMClient:registerMessageType'
p1089
sg9
S'30773'
p1090
sg11
S'class io.rong.message.LocationMessage\n'
p1091
sa(dp1092
g2
S'30773'
p1093
sg4
L1449728447860L
sg5
g6
sg7
S'##IPC_io.rong.imlib.RongIMClient:registerMessageType'
p1094
sg9
S'30773'
p1095
sg11
S'class io.rong.message.CommandNotificationMessage\n'
p1096
sa(dp1097
g2
S'30773'
p1098
sg4
L1449728447860L
sg5
g6
sg7
S'##IPC_io.rong.imlib.RongIMClient:registerMessageType'
p1099
sg9
S'30773'
p1100
sg11
S'class io.rong.message.ContactNotificationMessage\n'
p1101
sa(dp1102
g2
S'30773'
p1103
sg4
L1449728447860L
sg5
g6
sg7
S'##IPC_io.rong.imlib.RongIMClient:registerMessageType'
p1104
sg9
S'30773'
p1105
sg11
S'class io.rong.message.RichContentMessage\n'
p1106
sa(dp1107
g2
S'30773'
p1108
sg4
L1449728447870L
sg5
g6
sg7
S'##IPC_io.rong.imlib.RongIMClient:registerMessageType'
p1109
sg9
S'30773'
p1110
sg11
S'class io.rong.message.PublicServiceMultiRichContentMessage\n'
p1111
sa(dp1112
g2
S'30773'
p1113
sg4
L1449728447870L
sg5
g6
sg7
S'##IPC_io.rong.imlib.RongIMClient:registerMessageType'
p1114
sg9
S'30773'
p1115
sg11
S'class io.rong.message.PublicServiceRichContentMessage\n'
p1116
sa(dp1117
g2
S'30773'
p1118
sg4
L1449728447870L
sg5
g6
sg7
S'##IPC_io.rong.imlib.RongIMClient:registerMessageType'
p1119
sg9
S'30773'
p1120
sg11
S'class io.rong.message.PublicServiceCommandMessage\n'
p1121
sa(dp1122
g2
S'30773'
p1123
sg4
L1449728447870L
sg5
g6
sg7
S'##IPC_io.rong.imlib.RongIMClient:registerMessageType'
p1124
sg9
S'30773'
p1125
sg11
S'class io.rong.message.ProfileNotificationMessage\n'
p1126
sa(dp1127
g2
S'30773'
p1128
sg4
L1449728447870L
sg5
g6
sg7
S'##IPC_io.rong.imlib.RongIMClient:registerMessageType'
p1129
sg9
S'30773'
p1130
sg11
S'class io.rong.message.HandshakeMessage\n'
p1131
sa(dp1132
g2
S'30773'
p1133
sg4
L1449728447870L
sg5
g6
sg7
S'##IPC_io.rong.imlib.RongIMClient:registerMessageType'
p1134
sg9
S'30773'
p1135
sg11
S'class io.rong.message.InformationNotificationMessage\n'
p1136
sa(dp1137
g2
S'30773'
p1138
sg4
L1449728447870L
sg5
g6
sg7
S'##IPC_io.rong.imlib.RongIMClient:registerMessageType'
p1139
sg9
S'30773'
p1140
sg11
S'class io.rong.message.DiscussionNotificationMessage\n'
p1141
sa(dp1142
g2
S'30773'
p1143
sg4
L1449728447870L
sg5
g6
sg7
S'##IPC_io.rong.imlib.RongIMClient:registerMessageType'
p1144
sg9
S'30773'
p1145
sg11
S'class io.rong.message.SuspendMessage\n'
p1146
sa(dp1147
g2
S'30773'
p1148
sg4
L1449728447880L
sg5
g212
sg7
S'##KIT_com.xdf.ucan.BaseApplication:init'
p1149
sg9
S'30773'
p1150
sg11
S'before init\n'
p1151
sa(dp1152
g2
S'30773'
p1153
sg4
L1449728447880L
sg5
g6
sg7
S'##IPC_io.rong.imlib.RongIMClient:registerMessageType'
p1154
sg9
S'30773'
p1155
sg11
S'class io.rong.voipkit.message.VoIPAcceptMessage\n'
p1156
sa(dp1157
g2
S'30773'
p1158
sg4
L1449728447890L
sg5
g6
sg7
S'##IPC_io.rong.imlib.RongIMClient:registerMessageType'
p1159
sg9
S'30773'
p1160
sg11
S'class io.rong.voipkit.message.VoIPCallMessage\n'
p1161
sa(dp1162
g2
S'30800'
p1163
sg4
L1449728447890L
sg5
g212
sg7
S'Trace   '
p1164
sg9
S'30800'
p1165
sg11
S'error opening trace file: Permission denied (13)\n'
p1166
sa(dp1167
g2
S'30773'
p1168
sg4
L1449728447890L
sg5
g6
sg7
S'##IPC_io.rong.imlib.RongIMClient:registerMessageType'
p1169
sg9
S'30773'
p1170
sg11
S'class io.rong.voipkit.message.VoIPFinishMessage\n'
p1171
sa(dp1172
g2
S'30773'
p1173
sg4
L1449728447930L
sg5
g36
sg7
S'##KIT_com.xdf.ucan.RongCloudEvent:RongIMClientWrapper'
p1174
sg9
S'30773'
p1175
sg11
S'setOnReceiveMessageListener\n'
p1176
sa(dp1177
g2
S'30773'
p1178
sg4
L1449728448010L
sg5
g6
sg7
S'dalvikvm'
p1179
sg9
S'30773'
p1180
sg11
S'GC_FOR_ALLOC freed 301K, 6% free 8743K/9287K, paused 45ms, total 45ms\n'
p1181
sa(dp1182
g2
S'30800'
p1183
sg4
L1449728448050L
sg5
g6
sg7
S'dalvikvm'
p1184
sg9
S'30802'
p1185
sg11
S'GC_CONCURRENT freed 177K, 5% free 8414K/8775K, paused 13ms+1ms, total 41ms\n'
p1186
sa(dp1187
g2
S'30800'
p1188
sg4
L1449728448050L
sg5
g6
sg7
S'dalvikvm'
p1189
sg9
S'30800'
p1190
sg11
S'WAIT_FOR_CONCURRENT_GC blocked 14ms\n'
p1191
sa(dp1192
g2
S'30773'
p1193
sg4
L1449728448070L
sg5
g6
sg7
S'dalvikvm'
p1194
sg9
S'30776'
p1195
sg11
S'GC_CONCURRENT freed 4K, 5% free 12339K/12935K, paused 14ms+2ms, total 47ms\n'
p1196
sa(dp1197
g2
S'30800'
p1198
sg4
L1449728448100L
sg5
g6
sg7
S'ImageLoader'
p1199
sg9
S'30800'
p1200
sg11
S'Initialize ImageLoader with configuration\n'
p1201
sa(dp1202
g2
S'30800'
p1203
sg4
L1449728448120L
sg5
g6
sg7
S'long    '
p1204
sg9
S'30800'
p1205
sg11
S'getCurProcessName:com.xdf.ucan:ipc\n'
p1206
sa(dp1207
g2
S'30800'
p1208
sg4
L1449728448130L
sg5
g6
sg7
S'RongService'
p1209
sg9
S'30800'
p1210
sg11
S'onCreate, pid=30800\n'
p1211
sa(dp1212
g2
S'30800'
p1213
sg4
L1449728448130L
sg5
g6
sg7
S'RongService'
p1214
sg9
S'30800'
p1215
sg11
S'onBind, pid=30800\n'
p1216
sa(dp1217
g2
S'30773'
p1218
sg4
L1449728448130L
sg5
g6
sg7
S'dalvikvm'
p1219
sg9
S'30773'
p1220
sg11
S'GC_FOR_ALLOC freed 0K, 5% free 12339K/12935K, paused 20ms, total 20ms\n'
p1221
sa(dp1222
g2
S'30773'
p1223
sg4
L1449728448170L
sg5
g6
sg7
S'dalvikvm'
p1224
sg9
S'30776'
p1225
sg11
S'GC_CONCURRENT freed 0K, 5% free 14364K/14983K, paused 3ms+2ms, total 27ms\n'
p1226
sa(dp1227
g2
S'30800'
p1228
sg4
L1449728448180L
sg5
g36
sg7
S'##COMMON_io.rong.imlib.LibContext:DeviceId'
p1229
sg9
S'30800'
p1230
sg11
S'A0000037E432E9\n'
p1231
sa(dp1232
g2
S'30800'
p1233
sg4
L1449728448190L
sg5
g6
sg7
S'NativeClient'
p1234
sg9
S'30800'
p1235
sg11
S'/storage/sdcard0/Android/data/com.xdf.ucan/RongCloud||/data/data/com.xdf.ucan/files\n'
p1236
sa(dp1237
g2
S'30773'
p1238
sg4
L1449728448230L
sg5
g6
sg7
S'##IPC_io.rong.imlib.RongIMClient:onServiceConnected'
p1239
sg9
S'30773'
p1240
sg11
S'mConnectionStatus = DISCONNECTED, stub = io.rong.imlib.ipc.remote.IHandler$Stub$Proxy@41846b78\n'
p1241
sa(dp1242
g2
S'30773'
p1243
sg4
L1449728448300L
sg5
g36
sg7
S'Adreno200-EGL'
p1244
sg9
S'30773'
p1245
sg11
S'<qeglDrvAPI_eglInitialize:299>: EGL 1.4 QUALCOMM build: Nondeterministic AU_msm8625_REFS/TAGS/JB_REL_RB5_QRD_D20130130_Merge_release_AU (Merge)\nBuild Date: 01/31/13 Thu\nLocal Branch: \nRemote Branch: m/refs/tags/jb_rel_rb5_qrd_D20130130\nLocal Patches: NONE\nReconstruct Branch: NOTHING\n'
p1246
sa(dp1247
g2
S'30800'
p1248
sg4
L1449728448380L
sg5
g6
sg7
S'dalvikvm'
p1249
sg9
S'30802'
p1250
sg11
S'GC_CONCURRENT freed 291K, 6% free 8601K/9095K, paused 1ms+12ms, total 32ms\n'
p1251
sa(dp1252
g2
S'30773'
p1253
sg4
L1449728448410L
sg5
g6
sg7
S'##IPC_io.rong.imlib.ConnectChangeReceiver:onReceive'
p1254
sg9
S'30773'
p1255
sg11
S'network:true, intent:Intent { act=android.net.conn.CONNECTIVITY_CHANGE flg=0x8000010 (has extras) }\n'
p1256
sa(dp1257
g2
S'30773'
p1258
sg4
L1449728449510L
sg5
g6
sg7
S'##IPC_io.rong.imlib.ConnectChangeReceiver:onReceive'
p1259
sg9
S'30773'
p1260
sg11
S'network:true, intent:Intent { act=action_reconnect flg=0x14 pkg=com.xdf.ucan cmp=com.xdf.ucan/io.rong.imlib.ConnectChangeReceiver (has extras) }\n'
p1261
sa(dp1262
g2
S'30773'
p1263
sg4
L1449728449540L
sg5
g6
sg7
S'PowerManager'
p1264
sg9
S'30773'
p1265
sg11
S'wake:com.xdf.ucan/io.rong.imlib.ReConnectService [acquire]\n'
p1266
sa(dp1267
g2
S'30773'
p1268
sg4
L1449728449570L
sg5
g6
sg7
S'##IPC_io.rong.imlib.ReConnectService:RECONNECT'
p1269
sg9
S'30843'
p1270
sg11
S'Intent { cmp=com.xdf.ucan/io.rong.imlib.ReConnectService (has extras) }\n'
p1271
sa(dp1272
g2
S'30773'
p1273
sg4
L1449728449580L
sg5
g6
sg7
S'##IPC_io.rong.imlib.RongIMClient:reconnect'
p1274
sg9
S'30843'
p1275
sg11
S'mConnectionStatus :DISCONNECTED\n'
p1276
sa(dp1277
g2
S'30773'
p1278
sg4
L1449728449640L
sg5
g6
sg7
S'PowerManager'
p1279
sg9
S'30773'
p1280
sg11
S'wake:com.xdf.ucan/io.rong.imlib.ReConnectService [release]\n'
p1281
sa(dp1282
g2
S'30773'
p1283
sg4
L1449728449870L
sg5
g6
sg7
S'long    '
p1284
sg9
S'30773'
p1285
sg11
S'cancle request\xef\xbc\x9acom.xdf.ucan.ui.login.StartActivity\n'
p1286
sa(dp1287
g2
S'30851'
p1288
sg4
L1449728450590L
sg5
g212
sg7
S'Trace   '
p1289
sg9
S'30851'
p1290
sg11
S'error opening trace file: Permission denied (13)\n'
p1291
sa(dp1292
g2
S'30851'
p1293
sg4
L1449728450690L
sg5
g6
sg7
S'dalvikvm'
p1294
sg9
S'30854'
p1295
sg11
S'GC_CONCURRENT freed 152K, 4% free 8440K/8775K, paused 13ms+3ms, total 43ms\n'
p1296
sa(dp1297
g2
S'30851'
p1298
sg4
L1449728450690L
sg5
g6
sg7
S'dalvikvm'
p1299
sg9
S'30851'
p1300
sg11
S'WAIT_FOR_CONCURRENT_GC blocked 11ms\n'
p1301
sa(dp1302
g2
S'30851'
p1303
sg4
L1449728450720L
sg5
g6
sg7
S'ImageLoader'
p1304
sg9
S'30851'
p1305
sg11
S'Initialize ImageLoader with configuration\n'
p1306
sa(dp1307
g2
S'30851'
p1308
sg4
L1449728450730L
sg5
g6
sg7
S'long    '
p1309
sg9
S'30851'
p1310
sg11
S'getCurProcessName:io.rong.push\n'
p1311
sa(dp1312
g2
S'30851'
p1313
sg4
L1449728450750L
sg5
g6
sg7
S'##IPC_com.xdf.ucan.BaseApplication:RongIMClient : init'
p1314
sg9
S'30851'
p1315
sg11
S'process = io.rong.push\n'
p1316
sa(dp1317
g2
S'30851'
p1318
sg4
L1449728450750L
sg5
g212
sg7
S'        '
p1319
sg9
S'30851'
p1320
sg11
S'generic statfs: /data , size: 104849\n'
p1321
sa(dp1322
g2
S'30851'
p1323
sg4
L1449728450760L
sg5
g6
sg7
S'##COMMON_io.rong.push.PushContext:PushContext'
p1324
sg9
S'30851'
p1325
sg11
S'init\n'
p1326
sa(dp1327
g2
S'30851'
p1328
sg4
L1449728450840L
sg5
g36
sg7
S'##COMMON_io.rong.push.PushContext:sendConnectCommand'
p1329
sg9
S'30851'
p1330
sg11
S'4400\n'
p1331
sa(dp1332
g2
S'30851'
p1333
sg4
L1449728450850L
sg5
g36
sg7
S'##COMMON_io.rong.push.PushReceiver:Action'
p1334
sg9
S'30851'
p1335
sg11
S'io.rong.push.Connect\n'
p1336
sa(dp1337
g2
S'30851'
p1338
sg4
L1449728450860L
sg5
g6
sg7
S'dalvikvm'
p1339
sg9
S'30854'
p1340
sg11
S'GC_CONCURRENT freed 310K, 7% free 8600K/9159K, paused 11ms+2ms, total 45ms\n'
p1341
sa(dp1342
g2
S'30851'
p1343
sg4
L1449728450870L
sg5
g6
sg7
S'PowerManager'
p1344
sg9
S'30851'
p1345
sg11
S'wake:com.xdf.ucan/io.rong.push.PushService [acquire]\n'
p1346
sa(dp1347
g2
S'30851'
p1348
sg4
L1449728450970L
sg5
g36
sg7
S'##COMMON_io.rong.push.PushReceiver:ACTION_CONNECT'
p1349
sg9
S'30851'
p1350
sg11
S'version is null, run connect\n'
p1351
sa(dp1352
g2
S'30851'
p1353
sg4
L1449728450970L
sg5
g36
sg7
S'##COMMON_java.lang.Class:PushService'
p1354
sg9
S'30851'
p1355
sg11
S'PushService OnCreate\n'
p1356
sa(dp1357
g2
S'30851'
p1358
sg4
L1449728450970L
sg5
g36
sg7
S'PushService'
p1359
sg9
S'30851'
p1360
sg11
S'PushService OnCreate\n'
p1361
sa(dp1362
g2
S'30851'
p1363
sg4
L1449728450990L
sg5
g36
sg7
S'##COMMON_io.rong.push.PushService:CONNECT_CHECK'
p1364
sg9
S'30869'
p1365
sg11
S'getRunningPushServiceVersion null\n'
p1366
sa(dp1367
g2
S'30851'
p1368
sg4
L1449728450990L
sg5
g36
sg7
S'##COMMON_io.rong.push.PushService.PushHandler:PushHandler'
p1369
sg9
S'30869'
p1370
sg11
S'ConnectToServer,isClientConnected = false\n'
p1371
sa(dp1372
g2
S'30851'
p1373
sg4
L1449728451000L
sg5
g36
sg7
S'##COMMON_io.rong.push.PushService:DeviceId'
p1374
sg9
S'30869'
p1375
sg11
S'A0000037E432E9\n'
p1376
sa(dp1377
g2
S'30851'
p1378
sg4
L1449728451010L
sg5
g36
sg7
S'##COMMON_io.rong.push.PushService.PushHandler:PushHandler'
p1379
sg9
S'30869'
p1380
sg11
S'the saved IP = 119.254.101.137:8609\n'
p1381
sa(dp1382
g2
S'30851'
p1383
sg4
L1449728451010L
sg5
g36
sg7
S'PushHandler'
p1384
sg9
S'30869'
p1385
sg11
S'the saved time = 1449727391539current time = 1449728451020\n'
p1386
sa(dp1387
g2
S'30851'
p1388
sg4
L1449728451010L
sg5
g36
sg7
S'##COMMON_io.rong.push.PushService.PushHandler:PushHandler'
p1389
sg9
S'30869'
p1390
sg11
S'ConnectToServer,use the saved IP, IP = 119.254.101.137:8609\n'
p1391
sa(dp1392
g2
S'30851'
p1393
sg4
L1449728451010L
sg5
g36
sg7
S'##COMMON_io.rong.push.PushService:getPhoneInformation.'
p1394
sg9
S'30869'
p1395
sg11
S'the phone information is:ZTE|ZTE N909|16|WIFI|46003\n'
p1396
sa(dp1397
g2
S'30851'
p1398
sg4
L1449728451010L
sg5
g36
sg7
S'##COMMON_io.rong.push.PushClient:connect'
p1399
sg9
S'30869'
p1400
sg11
S'phone info:ZTE|ZTE N909|16|WIFI|46003 push version:2.6\n'
p1401
sa(dp1402
g2
S'30851'
p1403
sg4
L1449728451010L
sg5
g36
sg7
S'##COMMON_io.rong.push.PushClient:connect'
p1404
sg9
S'30869'
p1405
sg11
S'the socket is established\n'
p1406
sa(dp1407
g2
S'30851'
p1408
sg4
L1449728454150L
sg5
g36
sg7
S'##COMMON_io.rong.push.PushClient:Handler'
p1409
sg9
S'30873'
p1410
sg11
S'CONNACK\n'
p1411
sa(dp1412
g2
S'30851'
p1413
sg4
L1449728454150L
sg5
g6
sg7
S'PowerManager'
p1414
sg9
S'30869'
p1415
sg11
S'wake:com.xdf.ucan/io.rong.push.PushService [release]\n'
p1416
sa(dp1417
g2
S'30851'
p1418
sg4
L1449728454150L
sg5
g36
sg7
S'PushService'
p1419
sg9
S'30873'
p1420
sg11
S'The client connect status is:CONNACK\n'
p1421
sa(dp1422
g2
S'30851'
p1423
sg4
L1449728454150L
sg5
g36
sg7
S'##COMMON_io.rong.push.PushService:Connect'
p1424
sg9
S'30873'
p1425
sg11
S'Client connect successfully.So start the heart beat.\n'
p1426
sa(dp1427
g2
S'30851'
p1428
sg4
L1449728454150L
sg5
g36
sg7
S'##COMMON_io.rong.push.PushContext:Heartbeat'
p1429
sg9
S'30873'
p1430
sg11
S'start_next\n'
p1431
sa(dp1432
g2
S'30851'
p1433
sg4
L1449728455290L
sg5
g36
sg7
S'##COMMON_io.rong.push.PushReceiver:Action'
p1434
sg9
S'30851'
p1435
sg11
S'io.rong.push.Connect\n'
p1436
sa(dp1437
g2
S'30851'
p1438
sg4
L1449728455300L
sg5
g6
sg7
S'PowerManager'
p1439
sg9
S'30851'
p1440
sg11
S'wake:com.xdf.ucan/io.rong.push.PushService [acquire]\n'
p1441
sa(dp1442
g2
S'30851'
p1443
sg4
L1449728455300L
sg5
g36
sg7
S'##COMMON_io.rong.push.PushReceiver:ACTION_CONNECT'
p1444
sg9
S'30851'
p1445
sg11
S'version is null, run connect\n'
p1446
sa(dp1447
g2
S'30851'
p1448
sg4
L1449728455310L
sg5
g36
sg7
S'##COMMON_io.rong.push.PushService:CONNECT_CHECK'
p1449
sg9
S'30869'
p1450
sg11
S'getRunningPushServiceVersion null\n'
p1451
sa(dp1452
g2
S'30851'
p1453
sg4
L1449728455310L
sg5
g36
sg7
S'##COMMON_io.rong.push.PushService.PushHandler:PushHandler'
p1454
sg9
S'30869'
p1455
sg11
S'ConnectToServer,isClientConnected = true\n'
p1456
sa(dp1457
g2
S'30773'
p1458
sg4
L1449728455660L
sg5
g6
sg7
S'cn.edu.nju.ise.kikandroid'
p1459
sg9
S'30836'
p1460
sg11
S'Log:1449728455673\n'
p1461
sa(dp1462
g2
S'30773'
p1463
sg4
L1449728455690L
sg5
g6
sg7
S'cn.edu.nju.ise.kikandroid'
p1464
sg9
S'30836'
p1465
sg11
S'Screenshot:1449728455700\n'
p1466
sa(dp1467
g2
S'30773'
p1468
sg4
L1449728455750L
sg5
g6
sg7
S'dalvikvm'
p1469
sg9
S'30773'
p1470
sg11
S'GC_FOR_ALLOC freed 4555K, 30% free 11255K/16007K, paused 48ms, total 52ms\n'
p1471
sa(dp1472
g2
S'30773'
p1473
sg4
L1449728455800L
sg5
g6
sg7
S'dalvikvm'
p1474
sg9
S'30776'
p1475
sg11
S'GC_CONCURRENT freed 12K, 20% free 12845K/16007K, paused 12ms+3ms, total 49ms\n'
p1476
sa(dp1477
g2
S'30773'
p1478
sg4
L1449728455830L
sg5
g6
sg7
S'dalvikvm'
p1479
sg9
S'30773'
p1480
sg11
S'GC_FOR_ALLOC freed 0K, 20% free 12845K/16007K, paused 15ms, total 15ms\n'
p1481
sa(dp1482
g2
S'30773'
p1483
sg4
L1449728455900L
sg5
g6
sg7
S'dalvikvm'
p1484
sg9
S'30776'
p1485
sg11
S'GC_CONCURRENT freed 1602K, 20% free 12850K/16007K, paused 12ms+2ms, total 60ms\n'
p1486
sa(dp1487
g2
S'30773'
p1488
sg4
L1449728455950L
sg5
g803
sg7
S'dalvikvm'
p1489
sg9
S'30836'
p1490
sg11
S'threadid=23: thread exiting with uncaught exception (group=0x40f56438)\n'
p1491
sa(dp1492
g2
S'30773'
p1493
sg4
L1449728456030L
sg5
g212
sg7
S'err     '
p1494
sg9
S'30836'
p1495
sg11
S'\xe7\xa8\x8b\xe5\xba\x8f\xe5\xbc\x82\xe5\xb8\xb8\njava.lang.NullPointerException\n\tat android.app.Instrumentation.finish(Instrumentation.java:186)\n\tat cn.edu.nju.ise.kikandroid.AUTInstrument.quitInstr(AUTInstrument.java:195)\n\tat cn.edu.nju.ise.kikandroid.AUTInstrument.startServer(AUTInstrument.java:161)\n\tat cn.edu.nju.ise.kikandroid.AUTInstrument$1.run(AUTInstrument.java:107)\n\tat java.lang.Thread.run(Thread.java:856)\n'
p1496
sa(dp1497
g2
S'30800'
p1498
sg4
L1449728456050L
sg5
g6
sg7
S'RongService'
p1499
sg9
S'30800'
p1500
sg11
S'onUnbind, pid=30800\n'
p1501
sa(dp1502
g2
S'30800'
p1503
sg4
L1449728456050L
sg5
g6
sg7
S'RongService'
p1504
sg9
S'30800'
p1505
sg11
S'onDestroy, pid=30800\n'
p1506
sa.