(lp0
(dp1
S'EventTime'
p2
S'237482'
p3
sS'SyscTime'
p4
L1449721917996L
sS'recordCount'
p5
S'0'
p6
sS'EventType'
p7
S'TYPE_WINDOW_STATE_CHANGED'
p8
sS'PackageName'
p9
S'com.example.myfristandroid'
p10
sS'OutBounds'
p11
S'Rect(0, 0 - 1080, 1920)'
p12
sS'Action'
p13
S'[ ClassName: com.example.myfristandroid.SplashActivity; Text: [SE-1800\xe7\xa7\xbb\xe5\x8a\xa8APP]; ContentDescription: null; ItemCount: -1; CurrentItemIndex: -1; IsEnabled: true; IsPassword: false; IsChecked: false; IsFullScreen: true; Scrollable: false; BeforeText: null; FromIndex: -1; ToIndex: -1; ScrollX: -1; ScrollY: -1; MaxScrollX: -1; MaxScrollY: -1; AddedCount: -1; RemovedCount: -1; ParcelableData: null ]'
p14
sS'MovementGranularity'
p15
g6
sa(dp16
S'EventTime'
p17
S'237483'
p18
sg4
L1449721918016L
sS'recordCount'
p19
g6
sS'EventType'
p20
S'TYPE_WINDOW_CONTENT_CHANGED'
p21
sS'PackageName'
p22
S'com.example.myfristandroid'
p23
sS'OutBounds'
p24
S'Rect(0, 0 - 1080, 1920)'
p25
sS'Action'
p26
S'[ ClassName: android.widget.FrameLayout; Text: []; ContentDescription: null; ItemCount: -1; CurrentItemIndex: -1; IsEnabled: true; IsPassword: false; IsChecked: false; IsFullScreen: false; Scrollable: false; BeforeText: null; FromIndex: -1; ToIndex: -1; ScrollX: -1; ScrollY: -1; MaxScrollX: -1; MaxScrollY: -1; AddedCount: -1; RemovedCount: -1; ParcelableData: null ]'
p27
sS'MovementGranularity'
p28
g6
sa(dp29
S'EventTime'
p30
S'238291'
p31
sg4
L1449721918097L
sS'recordCount'
p32
g6
sS'EventType'
p33
S'TYPE_WINDOW_CONTENT_CHANGED'
p34
sS'PackageName'
p35
S'com.example.myfristandroid'
p36
sS'OutBounds'
p37
S'Rect(0, 0 - 1080, 1920)'
p38
sS'Action'
p39
S'[ ClassName: android.widget.FrameLayout; Text: []; ContentDescription: null; ItemCount: -1; CurrentItemIndex: -1; IsEnabled: true; IsPassword: false; IsChecked: false; IsFullScreen: false; Scrollable: false; BeforeText: null; FromIndex: -1; ToIndex: -1; ScrollX: -1; ScrollY: -1; MaxScrollX: -1; MaxScrollY: -1; AddedCount: -1; RemovedCount: -1; ParcelableData: null ]'
p40
sS'MovementGranularity'
p41
g6
sa(dp42
S'EventTime'
p43
S'238403'
p44
sg4
L1449721918218L
sS'recordCount'
p45
g6
sS'EventType'
p46
S'TYPE_WINDOW_CONTENT_CHANGED'
p47
sS'PackageName'
p48
S'com.example.myfristandroid'
p49
sS'OutBounds'
p50
S'Rect(0, 0 - 1080, 1920)'
p51
sS'Action'
p52
S'[ ClassName: android.widget.FrameLayout; Text: []; ContentDescription: null; ItemCount: -1; CurrentItemIndex: -1; IsEnabled: true; IsPassword: false; IsChecked: false; IsFullScreen: false; Scrollable: false; BeforeText: null; FromIndex: -1; ToIndex: -1; ScrollX: -1; ScrollY: -1; MaxScrollX: -1; MaxScrollY: -1; AddedCount: -1; RemovedCount: -1; ParcelableData: null ]'
p53
sS'MovementGranularity'
p54
g6
sa(dp55
S'EventTime'
p56
S'240117'
p57
sg4
L1449721919980L
sS'recordCount'
p58
g6
sS'EventType'
p59
S'TYPE_WINDOW_STATE_CHANGED'
p60
sS'PackageName'
p61
S'com.example.myfristandroid'
p62
sS'OutBounds'
p63
S'Rect(0, 0 - 1080, 1920)'
p64
sS'Action'
p65
S'[ ClassName: com.example.myfristandroid.MainActivity; Text: [SE-1800\xe7\xa7\xbb\xe5\x8a\xa8APP]; ContentDescription: null; ItemCount: -1; CurrentItemIndex: -1; IsEnabled: true; IsPassword: false; IsChecked: false; IsFullScreen: true; Scrollable: false; BeforeText: null; FromIndex: -1; ToIndex: -1; ScrollX: -1; ScrollY: -1; MaxScrollX: -1; MaxScrollY: -1; AddedCount: -1; RemovedCount: -1; ParcelableData: null ]'
p66
sS'MovementGranularity'
p67
g6
sa(dp68
S'EventTime'
p69
S'240357'
p70
sg4
L1449721920209L
sS'recordCount'
p71
g6
sS'EventType'
p72
S'TYPE_WINDOW_CONTENT_CHANGED'
p73
sS'PackageName'
p74
S'com.example.myfristandroid'
p75
sS'OutBounds'
p76
S'Rect(0, 0 - 1080, 1920)'
p77
sS'Action'
p78
S'[ ClassName: android.widget.FrameLayout; Text: []; ContentDescription: null; ItemCount: -1; CurrentItemIndex: -1; IsEnabled: true; IsPassword: false; IsChecked: false; IsFullScreen: false; Scrollable: false; BeforeText: null; FromIndex: -1; ToIndex: -1; ScrollX: -1; ScrollY: -1; MaxScrollX: -1; MaxScrollY: -1; AddedCount: -1; RemovedCount: -1; ParcelableData: null ]'
p79
sS'MovementGranularity'
p80
g6
sa(dp81
S'EventTime'
p82
S'240640'
p83
sg4
L1449721920454L
sS'recordCount'
p84
g6
sS'EventType'
p85
S'TYPE_WINDOW_STATE_CHANGED'
p86
sS'PackageName'
p87
S'com.example.myfristandroid'
p88
sS'OutBounds'
p89
S'Rect(0, 0 - 1080, 1920)'
p90
sS'Action'
p91
S'[ ClassName: com.example.myfristandroid.HuzAlertDialog; Text: [\xe6\x8f\x90\xe7\xa4\xba, \xe7\x89\x88\xe6\x9c\xac\xe6\x9c\x89\xe6\x9b\xb4\xe6\x96\xb0\xef\xbc\x8c\xe6\x98\xaf\xe5\x90\xa6\xe9\x9c\x80\xe8\xa6\x81\xe6\x9b\xb4\xe6\x96\xb0, \xe7\xab\x8b\xe5\x8d\xb3\xe6\x9b\xb4\xe6\x96\xb0, \xe7\xa8\x8d\xe5\x90\x8e\xe6\x9b\xb4\xe6\x96\xb0]; ContentDescription: null; ItemCount: -1; CurrentItemIndex: -1; IsEnabled: true; IsPassword: false; IsChecked: false; IsFullScreen: true; Scrollable: false; BeforeText: null; FromIndex: -1; ToIndex: -1; ScrollX: -1; ScrollY: -1; MaxScrollX: -1; MaxScrollY: -1; AddedCount: -1; RemovedCount: -1; ParcelableData: null ]'
p92
sS'MovementGranularity'
p93
g6
sa(dp94
S'EventTime'
p95
S'240707'
p96
sg4
L1449721920525L
sS'recordCount'
p97
g6
sS'EventType'
p98
S'TYPE_WINDOW_CONTENT_CHANGED'
p99
sS'PackageName'
p100
S'com.example.myfristandroid'
p101
sS'OutBounds'
p102
S'Rect(0, 0 - 1080, 1920)'
p103
sS'Action'
p104
S'[ ClassName: android.widget.FrameLayout; Text: []; ContentDescription: null; ItemCount: -1; CurrentItemIndex: -1; IsEnabled: true; IsPassword: false; IsChecked: false; IsFullScreen: false; Scrollable: false; BeforeText: null; FromIndex: -1; ToIndex: -1; ScrollX: -1; ScrollY: -1; MaxScrollX: -1; MaxScrollY: -1; AddedCount: -1; RemovedCount: -1; ParcelableData: null ]'
p105
sS'MovementGranularity'
p106
g6
sa(dp107
S'EventTime'
p108
S'240866'
p109
sg4
L1449721920677L
sS'recordCount'
p110
g6
sS'EventType'
p111
S'TYPE_WINDOW_CONTENT_CHANGED'
p112
sS'PackageName'
p113
S'com.example.myfristandroid'
p114
sS'OutBounds'
p115
S'Rect(0, 0 - 1080, 1920)'
p116
sS'Action'
p117
S'[ ClassName: android.widget.FrameLayout; Text: []; ContentDescription: null; ItemCount: -1; CurrentItemIndex: -1; IsEnabled: true; IsPassword: false; IsChecked: false; IsFullScreen: false; Scrollable: false; BeforeText: null; FromIndex: -1; ToIndex: -1; ScrollX: -1; ScrollY: -1; MaxScrollX: -1; MaxScrollY: -1; AddedCount: -1; RemovedCount: -1; ParcelableData: null ]'
p118
sS'MovementGranularity'
p119
g6
sa(dp120
S'EventTime'
p121
S'241704'
p122
sg4
L1449721921508L
sS'recordCount'
p123
g6
sS'EventType'
p124
S'TYPE_VIEW_CLICKED'
p125
sS'PackageName'
p126
S'com.example.myfristandroid'
p127
sS'OutBounds'
p128
S'Rect(558, 1066 - 1018, 1210)'
p129
sS'Action'
p130
S'[ ClassName: android.widget.Button; Text: [\xe7\xa8\x8d\xe5\x90\x8e\xe6\x9b\xb4\xe6\x96\xb0]; ContentDescription: null; ItemCount: -1; CurrentItemIndex: -1; IsEnabled: true; IsPassword: false; IsChecked: false; IsFullScreen: false; Scrollable: false; BeforeText: null; FromIndex: -1; ToIndex: -1; ScrollX: -1; ScrollY: -1; MaxScrollX: -1; MaxScrollY: -1; AddedCount: -1; RemovedCount: -1; ParcelableData: null ]'
p131
sS'MovementGranularity'
p132
g6
sa(dp133
S'EventTime'
p134
S'241786'
p135
sg4
L1449721921620L
sS'recordCount'
p136
g6
sS'EventType'
p137
S'TYPE_WINDOW_STATE_CHANGED'
p138
sS'PackageName'
p139
S'com.example.myfristandroid'
p140
sS'OutBounds'
p141
S'Rect(0, 0 - 1080, 1920)'
p142
sS'Action'
p143
S'[ ClassName: com.example.myfristandroid.MainActivity; Text: [SE-1800\xe7\xa7\xbb\xe5\x8a\xa8APP]; ContentDescription: null; ItemCount: -1; CurrentItemIndex: -1; IsEnabled: true; IsPassword: false; IsChecked: false; IsFullScreen: true; Scrollable: false; BeforeText: null; FromIndex: -1; ToIndex: -1; ScrollX: -1; ScrollY: -1; MaxScrollX: -1; MaxScrollY: -1; AddedCount: -1; RemovedCount: -1; ParcelableData: null ]'
p144
sS'MovementGranularity'
p145
g6
sa(dp146
S'EventTime'
p147
S'243858'
p148
sg4
L1449721923661L
sS'recordCount'
p149
S'1'
p150
sS'EventType'
p151
S'TYPE_VIEW_CLICKED'
p152
sS'PackageName'
p153
S'com.example.myfristandroid'
p154
sS'OutBounds'
p155
S'Rect(9, 219 - 361, 571)'
p156
sS'Action'
p157
S'[ ClassName: android.widget.RelativeLayout; Text: [\xe4\xb8\x80\xe6\xac\xa1\xe6\x8e\xa5\xe7\xba\xbf\xe5\x9b\xbe]; ContentDescription: null; ItemCount: -1; CurrentItemIndex: -1; IsEnabled: true; IsPassword: false; IsChecked: false; IsFullScreen: false; Scrollable: false; BeforeText: null; FromIndex: -1; ToIndex: -1; ScrollX: -1; ScrollY: -1; MaxScrollX: -1; MaxScrollY: -1; AddedCount: -1; RemovedCount: -1; ParcelableData: null ]'
p158
sS'MovementGranularity'
p159
g6
sa(dp160
S'EventTime'
p161
S'244185'
p162
sg4
L1449721924005L
sS'recordCount'
p163
g6
sS'EventType'
p164
S'TYPE_WINDOW_STATE_CHANGED'
p165
sS'PackageName'
p166
S'com.example.myfristandroid'
p167
sS'OutBounds'
p168
S'Rect(0, 0 - 1080, 1920)'
p169
sS'Action'
p170
S'[ ClassName: com.example.myfristandroid.graphWebShow; Text: [SE-1800\xe7\xa7\xbb\xe5\x8a\xa8APP]; ContentDescription: null; ItemCount: -1; CurrentItemIndex: -1; IsEnabled: true; IsPassword: false; IsChecked: false; IsFullScreen: true; Scrollable: false; BeforeText: null; FromIndex: -1; ToIndex: -1; ScrollX: -1; ScrollY: -1; MaxScrollX: -1; MaxScrollY: -1; AddedCount: -1; RemovedCount: -1; ParcelableData: null ]'
p171
sS'MovementGranularity'
p172
g6
sa(dp173
S'EventTime'
p174
S'244190'
p175
sg4
L1449721924012L
sS'recordCount'
p176
g6
sS'EventType'
p177
S'TYPE_WINDOW_CONTENT_CHANGED'
p178
sS'PackageName'
p179
S'com.example.myfristandroid'
p180
sS'OutBounds'
p181
S'Rect(0, 0 - 1080, 1920)'
p182
sS'Action'
p183
S'[ ClassName: android.widget.FrameLayout; Text: []; ContentDescription: null; ItemCount: -1; CurrentItemIndex: -1; IsEnabled: true; IsPassword: false; IsChecked: false; IsFullScreen: false; Scrollable: false; BeforeText: null; FromIndex: -1; ToIndex: -1; ScrollX: -1; ScrollY: -1; MaxScrollX: -1; MaxScrollY: -1; AddedCount: -1; RemovedCount: -1; ParcelableData: null ]'
p184
sS'MovementGranularity'
p185
g6
sa(dp186
S'EventTime'
p187
S'244302'
p188
sg4
L1449721924110L
sS'recordCount'
p189
g6
sS'EventType'
p190
S'TYPE_WINDOW_CONTENT_CHANGED'
p191
sS'PackageName'
p192
S'com.example.myfristandroid'
p193
sS'OutBounds'
p194
S'Rect(0, 0 - 1080, 1920)'
p195
sS'Action'
p196
S'[ ClassName: android.widget.FrameLayout; Text: []; ContentDescription: null; ItemCount: -1; CurrentItemIndex: -1; IsEnabled: true; IsPassword: false; IsChecked: false; IsFullScreen: false; Scrollable: false; BeforeText: null; FromIndex: -1; ToIndex: -1; ScrollX: -1; ScrollY: -1; MaxScrollX: -1; MaxScrollY: -1; AddedCount: -1; RemovedCount: -1; ParcelableData: null ]'
p197
sS'MovementGranularity'
p198
g6
sa(dp199
S'EventTime'
p200
S'248250'
p201
sg4
L1449721928107L
sS'recordCount'
p202
g6
sS'EventType'
p203
S'TYPE_VIEW_CLICKED'
p204
sS'PackageName'
p205
S'com.example.myfristandroid'
p206
sS'OutBounds'
p207
S'Rect(0, 75 - 120, 210)'
p208
sS'Action'
p209
S'[ ClassName: android.widget.ImageButton; Text: []; ContentDescription: null; ItemCount: -1; CurrentItemIndex: -1; IsEnabled: true; IsPassword: false; IsChecked: false; IsFullScreen: false; Scrollable: false; BeforeText: null; FromIndex: -1; ToIndex: -1; ScrollX: -1; ScrollY: -1; MaxScrollX: -1; MaxScrollY: -1; AddedCount: -1; RemovedCount: -1; ParcelableData: null ]'
p210
sS'MovementGranularity'
p211
g6
sa(dp212
S'EventTime'
p213
S'248453'
p214
sg4
L1449721928291L
sS'recordCount'
p215
g6
sS'EventType'
p216
S'TYPE_WINDOW_STATE_CHANGED'
p217
sS'PackageName'
p218
S'com.example.myfristandroid'
p219
sS'OutBounds'
p220
S'Rect(0, 0 - 1080, 1920)'
p221
sS'Action'
p222
S'[ ClassName: com.example.myfristandroid.MainActivity; Text: [SE-1800\xe7\xa7\xbb\xe5\x8a\xa8APP]; ContentDescription: null; ItemCount: -1; CurrentItemIndex: -1; IsEnabled: true; IsPassword: false; IsChecked: false; IsFullScreen: true; Scrollable: false; BeforeText: null; FromIndex: -1; ToIndex: -1; ScrollX: -1; ScrollY: -1; MaxScrollX: -1; MaxScrollY: -1; AddedCount: -1; RemovedCount: -1; ParcelableData: null ]'
p223
sS'MovementGranularity'
p224
g6
sa(dp225
S'EventTime'
p226
S'249093'
p227
sg4
L1449721928947L
sS'recordCount'
p228
g150
sS'EventType'
p229
S'TYPE_VIEW_CLICKED'
p230
sS'PackageName'
p231
S'com.example.myfristandroid'
p232
sS'OutBounds'
p233
S'Rect(364, 219 - 716, 571)'
p234
sS'Action'
p235
S'[ ClassName: android.widget.RelativeLayout; Text: [\xe6\x9b\xb2\xe7\xba\xbf\xe5\x9b\xbe]; ContentDescription: null; ItemCount: -1; CurrentItemIndex: -1; IsEnabled: true; IsPassword: false; IsChecked: false; IsFullScreen: false; Scrollable: false; BeforeText: null; FromIndex: -1; ToIndex: -1; ScrollX: -1; ScrollY: -1; MaxScrollX: -1; MaxScrollY: -1; AddedCount: -1; RemovedCount: -1; ParcelableData: null ]'
p236
sS'MovementGranularity'
p237
g6
sa(dp238
S'EventTime'
p239
S'249444'
p240
sg4
L1449721929255L
sS'recordCount'
p241
g6
sS'EventType'
p242
S'TYPE_WINDOW_STATE_CHANGED'
p243
sS'PackageName'
p244
S'com.example.myfristandroid'
p245
sS'OutBounds'
p246
S'Rect(0, 0 - 1080, 1920)'
p247
sS'Action'
p248
S'[ ClassName: com.example.myfristandroid.graphWebShow; Text: [SE-1800\xe7\xa7\xbb\xe5\x8a\xa8APP]; ContentDescription: null; ItemCount: -1; CurrentItemIndex: -1; IsEnabled: true; IsPassword: false; IsChecked: false; IsFullScreen: true; Scrollable: false; BeforeText: null; FromIndex: -1; ToIndex: -1; ScrollX: -1; ScrollY: -1; MaxScrollX: -1; MaxScrollY: -1; AddedCount: -1; RemovedCount: -1; ParcelableData: null ]'
p249
sS'MovementGranularity'
p250
g6
sa(dp251
S'EventTime'
p252
S'249523'
p253
sg4
L1449721929329L
sS'recordCount'
p254
g6
sS'EventType'
p255
S'TYPE_WINDOW_CONTENT_CHANGED'
p256
sS'PackageName'
p257
S'com.example.myfristandroid'
p258
sS'OutBounds'
p259
S'Rect(0, 0 - 1080, 1920)'
p260
sS'Action'
p261
S'[ ClassName: android.widget.FrameLayout; Text: []; ContentDescription: null; ItemCount: -1; CurrentItemIndex: -1; IsEnabled: true; IsPassword: false; IsChecked: false; IsFullScreen: false; Scrollable: false; BeforeText: null; FromIndex: -1; ToIndex: -1; ScrollX: -1; ScrollY: -1; MaxScrollX: -1; MaxScrollY: -1; AddedCount: -1; RemovedCount: -1; ParcelableData: null ]'
p262
sS'MovementGranularity'
p263
g6
sa(dp264
S'EventTime'
p265
S'252248'
p266
sg4
L1449721932055L
sS'recordCount'
p267
g6
sS'EventType'
p268
S'TYPE_WINDOW_CONTENT_CHANGED'
p269
sS'PackageName'
p270
S'com.example.myfristandroid'
p271
sS'OutBounds'
p272
S'Rect(0, 0 - 1920, 1080)'
p273
sS'Action'
p274
S'[ ClassName: android.widget.FrameLayout; Text: []; ContentDescription: null; ItemCount: -1; CurrentItemIndex: -1; IsEnabled: true; IsPassword: false; IsChecked: false; IsFullScreen: false; Scrollable: false; BeforeText: null; FromIndex: -1; ToIndex: -1; ScrollX: -1; ScrollY: -1; MaxScrollX: -1; MaxScrollY: -1; AddedCount: -1; RemovedCount: -1; ParcelableData: null ]'
p275
sS'MovementGranularity'
p276
g6
sa(dp277
S'EventTime'
p278
S'256714'
p279
sg4
L1449721936540L
sS'recordCount'
p280
g6
sS'EventType'
p281
S'TYPE_WINDOW_STATE_CHANGED'
p282
sS'PackageName'
p283
S'com.example.myfristandroid'
p284
sS'OutBounds'
p285
S'Rect(0, 0 - 1080, 1920)'
p286
sS'Action'
p287
S'[ ClassName: com.example.myfristandroid.MainActivity; Text: [SE-1800\xe7\xa7\xbb\xe5\x8a\xa8APP]; ContentDescription: null; ItemCount: -1; CurrentItemIndex: -1; IsEnabled: true; IsPassword: false; IsChecked: false; IsFullScreen: true; Scrollable: false; BeforeText: null; FromIndex: -1; ToIndex: -1; ScrollX: -1; ScrollY: -1; MaxScrollX: -1; MaxScrollY: -1; AddedCount: -1; RemovedCount: -1; ParcelableData: null ]'
p288
sS'MovementGranularity'
p289
g6
sa(dp290
S'EventTime'
p291
S'257786'
p292
sg4
L1449721937656L
sS'recordCount'
p293
g150
sS'EventType'
p294
S'TYPE_VIEW_CLICKED'
p295
sS'PackageName'
p296
S'com.example.myfristandroid'
p297
sS'OutBounds'
p298
S'Rect(719, 219 - 1071, 571)'
p299
sS'Action'
p300
S'[ ClassName: android.widget.RelativeLayout; Text: [\xe6\xa3\x92\xe5\x9b\xbe]; ContentDescription: null; ItemCount: -1; CurrentItemIndex: -1; IsEnabled: true; IsPassword: false; IsChecked: false; IsFullScreen: false; Scrollable: false; BeforeText: null; FromIndex: -1; ToIndex: -1; ScrollX: -1; ScrollY: -1; MaxScrollX: -1; MaxScrollY: -1; AddedCount: -1; RemovedCount: -1; ParcelableData: null ]'
p301
sS'MovementGranularity'
p302
g6
sa(dp303
S'EventTime'
p304
S'258129'
p305
sg4
L1449721937940L
sS'recordCount'
p306
g6
sS'EventType'
p307
S'TYPE_WINDOW_STATE_CHANGED'
p308
sS'PackageName'
p309
S'com.example.myfristandroid'
p310
sS'OutBounds'
p311
S'Rect(0, 0 - 1080, 1920)'
p312
sS'Action'
p313
S'[ ClassName: com.example.myfristandroid.graphWebShow; Text: [SE-1800\xe7\xa7\xbb\xe5\x8a\xa8APP]; ContentDescription: null; ItemCount: -1; CurrentItemIndex: -1; IsEnabled: true; IsPassword: false; IsChecked: false; IsFullScreen: true; Scrollable: false; BeforeText: null; FromIndex: -1; ToIndex: -1; ScrollX: -1; ScrollY: -1; MaxScrollX: -1; MaxScrollY: -1; AddedCount: -1; RemovedCount: -1; ParcelableData: null ]'
p314
sS'MovementGranularity'
p315
g6
sa(dp316
S'EventTime'
p317
S'258214'
p318
sg4
L1449721938020L
sS'recordCount'
p319
g6
sS'EventType'
p320
S'TYPE_WINDOW_CONTENT_CHANGED'
p321
sS'PackageName'
p322
S'com.example.myfristandroid'
p323
sS'OutBounds'
p324
S'Rect(0, 0 - 1080, 1920)'
p325
sS'Action'
p326
S'[ ClassName: android.widget.FrameLayout; Text: []; ContentDescription: null; ItemCount: -1; CurrentItemIndex: -1; IsEnabled: true; IsPassword: false; IsChecked: false; IsFullScreen: false; Scrollable: false; BeforeText: null; FromIndex: -1; ToIndex: -1; ScrollX: -1; ScrollY: -1; MaxScrollX: -1; MaxScrollY: -1; AddedCount: -1; RemovedCount: -1; ParcelableData: null ]'
p327
sS'MovementGranularity'
p328
g6
sa(dp329
S'EventTime'
p330
S'259138'
p331
sg4
L1449721938944L
sS'recordCount'
p332
g6
sS'EventType'
p333
S'TYPE_WINDOW_CONTENT_CHANGED'
p334
sS'PackageName'
p335
S'com.example.myfristandroid'
p336
sS'OutBounds'
p337
S'Rect(0, 0 - 1920, 1080)'
p338
sS'Action'
p339
S'[ ClassName: android.widget.FrameLayout; Text: []; ContentDescription: null; ItemCount: -1; CurrentItemIndex: -1; IsEnabled: true; IsPassword: false; IsChecked: false; IsFullScreen: false; Scrollable: false; BeforeText: null; FromIndex: -1; ToIndex: -1; ScrollX: -1; ScrollY: -1; MaxScrollX: -1; MaxScrollY: -1; AddedCount: -1; RemovedCount: -1; ParcelableData: null ]'
p340
sS'MovementGranularity'
p341
g6
sa(dp342
S'EventTime'
p343
S'263324'
p344
sg4
L1449721943154L
sS'recordCount'
p345
g6
sS'EventType'
p346
S'TYPE_WINDOW_STATE_CHANGED'
p347
sS'PackageName'
p348
S'com.example.myfristandroid'
p349
sS'OutBounds'
p350
S'Rect(0, 0 - 1080, 1920)'
p351
sS'Action'
p352
S'[ ClassName: com.example.myfristandroid.MainActivity; Text: [SE-1800\xe7\xa7\xbb\xe5\x8a\xa8APP]; ContentDescription: null; ItemCount: -1; CurrentItemIndex: -1; IsEnabled: true; IsPassword: false; IsChecked: false; IsFullScreen: true; Scrollable: false; BeforeText: null; FromIndex: -1; ToIndex: -1; ScrollX: -1; ScrollY: -1; MaxScrollX: -1; MaxScrollY: -1; AddedCount: -1; RemovedCount: -1; ParcelableData: null ]'
p353
sS'MovementGranularity'
p354
g6
sa(dp355
S'EventTime'
p356
S'264917'
p357
sg4
L1449721944823L
sS'recordCount'
p358
g150
sS'EventType'
p359
S'TYPE_VIEW_CLICKED'
p360
sS'PackageName'
p361
S'com.example.myfristandroid'
p362
sS'OutBounds'
p363
S'Rect(9, 574 - 361, 926)'
p364
sS'Action'
p365
S'[ ClassName: android.widget.RelativeLayout; Text: [\xe9\x80\x86\xe5\x8f\x98\xe5\x99\xa8]; ContentDescription: null; ItemCount: -1; CurrentItemIndex: -1; IsEnabled: true; IsPassword: false; IsChecked: false; IsFullScreen: false; Scrollable: false; BeforeText: null; FromIndex: -1; ToIndex: -1; ScrollX: -1; ScrollY: -1; MaxScrollX: -1; MaxScrollY: -1; AddedCount: -1; RemovedCount: -1; ParcelableData: null ]'
p366
sS'MovementGranularity'
p367
g6
sa(dp368
S'EventTime'
p369
S'265355'
p370
sg4
L1449721945162L
sS'recordCount'
p371
g6
sS'EventType'
p372
S'TYPE_WINDOW_STATE_CHANGED'
p373
sS'PackageName'
p374
S'com.example.myfristandroid'
p375
sS'OutBounds'
p376
S'Rect(0, 0 - 1080, 1920)'
p377
sS'Action'
p378
S'[ ClassName: com.example.myfristandroid.graphWebShow; Text: [SE-1800\xe7\xa7\xbb\xe5\x8a\xa8APP]; ContentDescription: null; ItemCount: -1; CurrentItemIndex: -1; IsEnabled: true; IsPassword: false; IsChecked: false; IsFullScreen: true; Scrollable: false; BeforeText: null; FromIndex: -1; ToIndex: -1; ScrollX: -1; ScrollY: -1; MaxScrollX: -1; MaxScrollY: -1; AddedCount: -1; RemovedCount: -1; ParcelableData: null ]'
p379
sS'MovementGranularity'
p380
g6
sa(dp381
S'EventTime'
p382
S'265405'
p383
sg4
L1449721945214L
sS'recordCount'
p384
g6
sS'EventType'
p385
S'TYPE_WINDOW_CONTENT_CHANGED'
p386
sS'PackageName'
p387
S'com.example.myfristandroid'
p388
sS'OutBounds'
p389
S'Rect(0, 0 - 1080, 1920)'
p390
sS'Action'
p391
S'[ ClassName: android.widget.FrameLayout; Text: []; ContentDescription: null; ItemCount: -1; CurrentItemIndex: -1; IsEnabled: true; IsPassword: false; IsChecked: false; IsFullScreen: false; Scrollable: false; BeforeText: null; FromIndex: -1; ToIndex: -1; ScrollX: -1; ScrollY: -1; MaxScrollX: -1; MaxScrollY: -1; AddedCount: -1; RemovedCount: -1; ParcelableData: null ]'
p392
sS'MovementGranularity'
p393
g6
sa(dp394
S'EventTime'
p395
S'266383'
p396
sg4
L1449721946191L
sS'recordCount'
p397
g6
sS'EventType'
p398
S'TYPE_WINDOW_CONTENT_CHANGED'
p399
sS'PackageName'
p400
S'com.example.myfristandroid'
p401
sS'OutBounds'
p402
S'Rect(0, 0 - 1920, 1080)'
p403
sS'Action'
p404
S'[ ClassName: android.widget.FrameLayout; Text: []; ContentDescription: null; ItemCount: -1; CurrentItemIndex: -1; IsEnabled: true; IsPassword: false; IsChecked: false; IsFullScreen: false; Scrollable: false; BeforeText: null; FromIndex: -1; ToIndex: -1; ScrollX: -1; ScrollY: -1; MaxScrollX: -1; MaxScrollY: -1; AddedCount: -1; RemovedCount: -1; ParcelableData: null ]'
p405
sS'MovementGranularity'
p406
g6
sa(dp407
S'EventTime'
p408
S'269695'
p409
sg4
L1449721949545L
sS'recordCount'
p410
g6
sS'EventType'
p411
S'TYPE_WINDOW_STATE_CHANGED'
p412
sS'PackageName'
p413
S'com.example.myfristandroid'
p414
sS'OutBounds'
p415
S'Rect(0, 0 - 1080, 1920)'
p416
sS'Action'
p417
S'[ ClassName: com.example.myfristandroid.MainActivity; Text: [SE-1800\xe7\xa7\xbb\xe5\x8a\xa8APP]; ContentDescription: null; ItemCount: -1; CurrentItemIndex: -1; IsEnabled: true; IsPassword: false; IsChecked: false; IsFullScreen: true; Scrollable: false; BeforeText: null; FromIndex: -1; ToIndex: -1; ScrollX: -1; ScrollY: -1; MaxScrollX: -1; MaxScrollY: -1; AddedCount: -1; RemovedCount: -1; ParcelableData: null ]'
p418
sS'MovementGranularity'
p419
g6
sa.