(lp0
(dp1
S'processID'
p2
S'13988'
p3
sS'SyscTime'
p4
L1449715260193L
sS'priority'
p5
S'D'
p6
sS'tag'
p7
S'dalvikvm'
p8
sS'threadID'
p9
S'13988'
p10
sS'message'
p11
S'Late-enabling CheckJNI\n'
p12
sa(dp13
g2
S'13988'
p14
sg4
L1449715260924L
sg5
g6
sg7
S'dalvikvm'
p15
sg9
S'13988'
p16
sg11
S'GC_FOR_ALLOC freed 48K, 29% free 18316K/25792K, paused 17ms, total 18ms\n'
p17
sa(dp18
g2
S'13988'
p19
sg4
L1449715260984L
sg5
S'I'
p20
sg7
S'dalvikvm-heap'
p21
sg9
S'13988'
p22
sg11
S'Grow heap (frag case) to 54.729MB for 34885888-byte allocation\n'
p23
sa(dp24
g2
S'13988'
p25
sg4
L1449715261024L
sg5
g6
sg7
S'dalvikvm'
p26
sg9
S'13992'
p27
sg11
S'GC_CONCURRENT freed <1K, 13% free 52383K/59864K, paused 3ms+2ms, total 35ms\n'
p28
sa(dp29
g2
S'14024'
p30
sg4
L1449715261134L
sg5
g6
sg7
S'dalvikvm'
p31
sg9
S'14024'
p32
sg11
S'Late-enabling CheckJNI\n'
p33
sa(dp34
g2
S'13988'
p35
sg4
L1449715261184L
sg5
g6
sg7
S'libEGL  '
p36
sg9
S'13988'
p37
sg11
S'loaded /vendor/lib/egl/libEGL_adreno.so\n'
p38
sa(dp39
g2
S'13988'
p40
sg4
L1449715261194L
sg5
g6
sg7
S'libEGL  '
p41
sg9
S'13988'
p42
sg11
S'loaded /vendor/lib/egl/libGLESv1_CM_adreno.so\n'
p43
sa(dp44
g2
S'14024'
p45
sg4
L1449715261204L
sg5
g6
sg7
S'SocketService'
p46
sg9
S'14024'
p47
sg11
S'onStartCommand : bLogin:false\n'
p48
sa(dp49
g2
S'13988'
p50
sg4
L1449715261204L
sg5
g6
sg7
S'libEGL  '
p51
sg9
S'13988'
p52
sg11
S'loaded /vendor/lib/egl/libGLESv2_adreno.so\n'
p53
sa(dp54
g2
S'14024'
p55
sg4
L1449715261204L
sg5
g6
sg7
S'SocketService'
p56
sg9
S'14024'
p57
sg11
S'pid:14024 myPid:14024\n'
p58
sa(dp59
g2
S'13988'
p60
sg4
L1449715261204L
sg5
g20
sg7
S'Adreno-EGL'
p61
sg9
S'13988'
p62
sg11
S'<qeglDrvAPI_eglInitialize:316>: EGL 1.4 QUALCOMM build:  (CL4169980)\nOpenGL ES Shader Compiler Version: 17.01.10.SPL\nBuild Date: 09/26/13 Thu\nLocal Branch: \nRemote Branch: \nLocal Patches: \nReconstruct Branch: \n'
p63
sa(dp64
g2
S'14024'
p65
sg4
L1449715261204L
sg5
g6
sg7
S'SocketService'
p66
sg9
S'14024'
p67
sg11
S'start to run current thread!id:2234\n'
p68
sa(dp69
g2
S'13988'
p70
sg4
L1449715261294L
sg5
g6
sg7
S'OpenGLRenderer'
p71
sg9
S'13988'
p72
sg11
S'Enabling debug mode 0\n'
p73
sa(dp74
g2
S'14024'
p75
sg4
L1449715261324L
sg5
g6
sg7
S'SocketService'
p76
sg9
S'14043'
p77
sg11
S'ip/192.168.1.188 lport:37444 p:143\n'
p78
sa(dp79
g2
S'14024'
p80
sg4
L1449715261324L
sg5
g6
sg7
S'ForegroundActivity'
p81
sg9
S'14043'
p82
sg11
S'\xe6\x9c\xac\xe6\xac\xa1\xe5\x8f\x91\xe9\x80\x81\xe5\xb8\xa7\xe9\x95\xbf:35\t\xe6\x80\xbb\xe5\xb8\xa7\xe9\x95\xbf:35\n'
p83
sa(dp84
g2
S'14024'
p85
sg4
L1449715261324L
sg5
g6
sg7
S'SocketService'
p86
sg9
S'14043'
p87
sg11
S'success to connect server!id:2234 bLogin:false\n'
p88
sa(dp89
g2
S'14024'
p90
sg4
L1449715261485L
sg5
g6
sg7
S'ForegroundActivity'
p91
sg9
S'14047'
p92
sg11
S'\xe6\x9c\xac\xe6\xac\xa1\xe6\x94\xb6\xe5\x88\xb0\xe5\xb8\xa7\xe9\x95\xbf:13\t\xe6\x80\xbb\xe5\xb8\xa7\xe9\x95\xbf:13\n'
p93
sa(dp94
g2
S'14024'
p95
sg4
L1449715262225L
sg5
g6
sg7
S'SocketService1'
p96
sg9
S'14041'
p97
sg11
S'\xe6\x9c\xac\xe6\xac\xa1\xe6\x8f\x90\xe5\x8f\x961:LoadPtr:13 HeadIndex:0 GetSize:13 13 0 \xe5\xa4\xb4\xe4\xbf\xa1\xe6\x81\xaf:EB 90 EB 90 EB 90 0D 00 0E 01 \n'
p98
sa(dp99
g2
S'14024'
p100
sg4
L1449715262335L
sg5
g6
sg7
S'ForegroundActivity'
p101
sg9
S'14043'
p102
sg11
S'\xe6\x9c\xac\xe6\xac\xa1\xe5\x8f\x91\xe9\x80\x81\xe5\xb8\xa7\xe9\x95\xbf:11\t\xe6\x80\xbb\xe5\xb8\xa7\xe9\x95\xbf:46\n'
p103
sa(dp104
g2
S'14024'
p105
sg4
L1449715262576L
sg5
g6
sg7
S'ForegroundActivity'
p106
sg9
S'14047'
p107
sg11
S'\xe6\x9c\xac\xe6\xac\xa1\xe6\x94\xb6\xe5\x88\xb0\xe5\xb8\xa7\xe9\x95\xbf:642\t\xe6\x80\xbb\xe5\xb8\xa7\xe9\x95\xbf:655\n'
p108
sa(dp109
g2
S'14024'
p110
sg4
L1449715263246L
sg5
g6
sg7
S'SocketService1'
p111
sg9
S'14041'
p112
sg11
S'\xe6\x9c\xac\xe6\xac\xa1\xe6\x8f\x90\xe5\x8f\x961:LoadPtr:655 HeadIndex:13 GetSize:642 130 512 \xe5\xa4\xb4\xe4\xbf\xa1\xe6\x81\xaf:EB 90 EB 90 EB 90 82 02 14 0A \n'
p113
sa(dp114
g2
S'14024'
p115
sg4
L1449715263336L
sg5
g6
sg7
S'ForegroundActivity'
p116
sg9
S'14043'
p117
sg11
S'\xe6\x9c\xac\xe6\xac\xa1\xe5\x8f\x91\xe9\x80\x81\xe5\xb8\xa7\xe9\x95\xbf:11\t\xe6\x80\xbb\xe5\xb8\xa7\xe9\x95\xbf:57\n'
p118
sa(dp119
g2
S'14024'
p120
sg4
L1449715263497L
sg5
g6
sg7
S'ForegroundActivity'
p121
sg9
S'14047'
p122
sg11
S'\xe6\x9c\xac\xe6\xac\xa1\xe6\x94\xb6\xe5\x88\xb0\xe5\xb8\xa7\xe9\x95\xbf:67\t\xe6\x80\xbb\xe5\xb8\xa7\xe9\x95\xbf:722\n'
p123
sa(dp124
g2
S'14024'
p125
sg4
L1449715263757L
sg5
g6
sg7
S'SocketService1'
p126
sg9
S'14041'
p127
sg11
S'\xe6\x9c\xac\xe6\xac\xa1\xe6\x8f\x90\xe5\x8f\x961:LoadPtr:722 HeadIndex:655 GetSize:67 67 0 \xe5\xa4\xb4\xe4\xbf\xa1\xe6\x81\xaf:EB 90 EB 90 EB 90 43 00 15 02 \n'
p128
sa(dp129
g2
S'13988'
p130
sg4
L1449715263897L
sg5
g6
sg7
S'AbsListView'
p131
sg9
S'13988'
p132
sg11
S'Get MotionRecognitionManager\n'
p133
sa(dp134
g2
S'13988'
p135
sg4
L1449715263947L
sg5
g6
sg7
S'AbsListView'
p136
sg9
S'13988'
p137
sg11
S'Get MotionRecognitionManager\n'
p138
sa(dp139
g2
S'13988'
p140
sg4
L1449715263967L
sg5
g6
sg7
S'AbsListView'
p141
sg9
S'13988'
p142
sg11
S'Get MotionRecognitionManager\n'
p143
sa(dp144
g2
S'13988'
p145
sg4
L1449715264037L
sg5
g6
sg7
S'MainActivity'
p146
sg9
S'13988'
p147
sg11
S'Start One Client\n'
p148
sa(dp149
g2
S'13988'
p150
sg4
L1449715264157L
sg5
g6
sg7
S'AbsListView'
p151
sg9
S'13988'
p152
sg11
S'unregisterIRListener() is called \n'
p153
sa(dp154
g2
S'13988'
p155
sg4
L1449715264347L
sg5
g6
sg7
S'dalvikvm'
p156
sg9
S'13992'
p157
sg11
S'GC_CONCURRENT freed 4783K, 13% free 55726K/63676K, paused 7ms+5ms, total 45ms\n'
p158
sa(dp159
g2
S'13988'
p160
sg4
L1449715264347L
sg5
g6
sg7
S'dalvikvm'
p161
sg9
S'13988'
p162
sg11
S'WAIT_FOR_CONCURRENT_GC blocked 20ms\n'
p163
sa(dp164
g2
S'13988'
p165
sg4
L1449715264387L
sg5
g6
sg7
S'AbsListView'
p166
sg9
S'13988'
p167
sg11
S'unregisterIRListener() is called \n'
p168
sa(dp169
g2
S'13988'
p170
sg4
L1449715264488L
sg5
g6
sg7
S'AbsListView'
p171
sg9
S'13988'
p172
sg11
S'unregisterIRListener() is called \n'
p173
sa(dp174
g2
S'13988'
p175
sg4
L1449715264498L
sg5
g6
sg7
S'AbsListView'
p176
sg9
S'13988'
p177
sg11
S'unregisterIRListener() is called \n'
p178
sa(dp179
g2
S'13988'
p180
sg4
L1449715264538L
sg5
g6
sg7
S'AbsListView'
p181
sg9
S'13988'
p182
sg11
S'unregisterIRListener() is called \n'
p183
sa(dp184
g2
S'13988'
p185
sg4
L1449715264698L
sg5
g6
sg7
S'AbsListView'
p186
sg9
S'13988'
p187
sg11
S'unregisterIRListener() is called \n'
p188
sa(dp189
g2
S'13988'
p190
sg4
L1449715268932L
sg5
g6
sg7
S'dalvikvm'
p191
sg9
S'13988'
p192
sg11
S'GC_FOR_ALLOC freed 1233K, 11% free 57276K/63676K, paused 23ms, total 23ms\n'
p193
sa(dp194
g2
S'13988'
p195
sg4
L1449715268942L
sg5
g20
sg7
S'dalvikvm-heap'
p196
sg9
S'13988'
p197
sg11
S'Grow heap (frag case) to 67.416MB for 8294416-byte allocation\n'
p198
sa(dp199
g2
S'13988'
p200
sg4
L1449715268972L
sg5
g6
sg7
S'dalvikvm'
p201
sg9
S'13992'
p202
sg11
S'GC_CONCURRENT freed 24K, 9% free 65352K/71780K, paused 3ms+4ms, total 25ms\n'
p203
sa(dp204
g2
S'13988'
p205
sg4
L1449715269032L
sg5
g6
sg7
S'dalvikvm'
p206
sg9
S'13988'
p207
sg11
S'GC_FOR_ALLOC freed <1K, 9% free 65352K/71780K, paused 27ms, total 27ms\n'
p208
sa(dp209
g2
S'13988'
p210
sg4
L1449715269042L
sg5
g20
sg7
S'dalvikvm-heap'
p211
sg9
S'13988'
p212
sg11
S'Grow heap (frag case) to 76.804MB for 8294416-byte allocation\n'
p213
sa(dp214
g2
S'13988'
p215
sg4
L1449715269082L
sg5
g6
sg7
S'dalvikvm'
p216
sg9
S'13992'
p217
sg11
S'GC_CONCURRENT freed 8102K, 19% free 65358K/79884K, paused 3ms+5ms, total 36ms\n'
p218
sa(dp219
g2
S'13988'
p220
sg4
L1449715269292L
sg5
g6
sg7
S'cn.edu.nju.ise.kikandroid'
p221
sg9
S'14054'
p222
sg11
S'Screenshot:1449715268814\n'
p223
sa(dp224
g2
S'13988'
p225
sg4
L1449715269773L
sg5
g6
sg7
S'MainActivity'
p226
sg9
S'13988'
p227
sg11
S'V.getTag:null v.id:2131230738\n'
p228
sa(dp229
g2
S'13988'
p230
sg4
L1449715269773L
sg5
g6
sg7
S'AbsListView'
p231
sg9
S'13988'
p232
sg11
S'unregisterIRListener() is called \n'
p233
sa(dp234
g2
S'13988'
p235
sg4
L1449715269853L
sg5
g6
sg7
S'AbsListView'
p236
sg9
S'13988'
p237
sg11
S'unregisterIRListener() is called \n'
p238
sa(dp239
g2
S'13988'
p240
sg4
L1449715269893L
sg5
S'V'
p241
sg7
S'RenderScript'
p242
sg9
S'13988'
p243
sg11
S'0x7a094ef0 Launching thread(s), CPUs 4\n'
p244
sa(dp245
g2
S'13988'
p246
sg4
L1449715270223L
sg5
g6
sg7
S'AbsListView'
p247
sg9
S'13988'
p248
sg11
S'onDetachedFromWindow\n'
p249
sa(dp250
g2
S'13988'
p251
sg4
L1449715270223L
sg5
g6
sg7
S'AbsListView'
p252
sg9
S'13988'
p253
sg11
S'unregisterIRListener() is called \n'
p254
sa(dp255
g2
S'13988'
p256
sg4
L1449715271785L
sg5
g6
sg7
S'dalvikvm'
p257
sg9
S'13988'
p258
sg11
S'GC_FOR_ALLOC freed 8543K, 10% free 57462K/63660K, paused 34ms, total 36ms\n'
p259
sa(dp260
g2
S'13988'
p261
sg4
L1449715271805L
sg5
g20
sg7
S'dalvikvm-heap'
p262
sg9
S'13988'
p263
sg11
S'Grow heap (frag case) to 67.599MB for 8294416-byte allocation\n'
p264
sa(dp265
g2
S'13988'
p266
sg4
L1449715271845L
sg5
g6
sg7
S'dalvikvm'
p267
sg9
S'13992'
p268
sg11
S'GC_CONCURRENT freed 26K, 9% free 65536K/71764K, paused 3ms+4ms, total 36ms\n'
p269
sa(dp270
g2
S'13988'
p271
sg4
L1449715271845L
sg5
g6
sg7
S'dalvikvm'
p272
sg9
S'13988'
p273
sg11
S'WAIT_FOR_CONCURRENT_GC blocked 12ms\n'
p274
sa(dp275
g2
S'13988'
p276
sg4
L1449715271855L
sg5
g20
sg7
S'dalvikvm-heap'
p277
sg9
S'13988'
p278
sg11
S'Grow heap (frag case) to 75.484MB for 8294416-byte allocation\n'
p279
sa(dp280
g2
S'13988'
p281
sg4
L1449715271895L
sg5
g6
sg7
S'dalvikvm'
p282
sg9
S'13992'
p283
sg11
S'GC_CONCURRENT freed 8101K, 18% free 65541K/79868K, paused 4ms+5ms, total 41ms\n'
p284
sa(dp285
g2
S'13988'
p286
sg4
L1449715272075L
sg5
g6
sg7
S'cn.edu.nju.ise.kikandroid'
p287
sg9
S'14054'
p288
sg11
S'Screenshot:1449715271637\n'
p289
sa(dp290
g2
S'13988'
p291
sg4
L1449715272315L
sg5
g6
sg7
S'MainActivity'
p292
sg9
S'13988'
p293
sg11
S'V.getTag:null v.id:2131230791\n'
p294
sa(dp295
g2
S'13988'
p296
sg4
L1449715272385L
sg5
g6
sg7
S'AbsListView'
p297
sg9
S'13988'
p298
sg11
S'Get MotionRecognitionManager\n'
p299
sa(dp300
g2
S'13988'
p301
sg4
L1449715272415L
sg5
g6
sg7
S'AbsListView'
p302
sg9
S'13988'
p303
sg11
S'onVisibilityChanged() is called, visibility : 8\n'
p304
sa(dp305
g2
S'13988'
p306
sg4
L1449715272415L
sg5
g6
sg7
S'AbsListView'
p307
sg9
S'13988'
p308
sg11
S'unregisterIRListener() is called \n'
p309
sa(dp310
g2
S'13988'
p311
sg4
L1449715272505L
sg5
g6
sg7
S'AbsListView'
p312
sg9
S'13988'
p313
sg11
S'unregisterIRListener() is called \n'
p314
sa(dp315
g2
S'13988'
p316
sg4
L1449715272575L
sg5
g6
sg7
S'AbsListView'
p317
sg9
S'13988'
p318
sg11
S'unregisterIRListener() is called \n'
p319
sa(dp320
g2
S'13988'
p321
sg4
L1449715272706L
sg5
g6
sg7
S'AbsListView'
p322
sg9
S'13988'
p323
sg11
S'unregisterIRListener() is called \n'
p324
sa(dp325
g2
S'13988'
p326
sg4
L1449715272716L
sg5
g6
sg7
S'AbsListView'
p327
sg9
S'13988'
p328
sg11
S'unregisterIRListener() is called \n'
p329
sa(dp330
g2
S'13988'
p331
sg4
L1449715275959L
sg5
g6
sg7
S'dalvikvm'
p332
sg9
S'13988'
p333
sg11
S'GC_FOR_ALLOC freed 8574K, 10% free 57796K/63660K, paused 37ms, total 38ms\n'
p334
sa(dp335
g2
S'13988'
p336
sg4
L1449715275969L
sg5
g20
sg7
S'dalvikvm-heap'
p337
sg9
S'13988'
p338
sg11
S'Grow heap (frag case) to 67.925MB for 8294416-byte allocation\n'
p339
sa(dp340
g2
S'13988'
p341
sg4
L1449715276009L
sg5
g6
sg7
S'dalvikvm'
p342
sg9
S'13992'
p343
sg11
S'GC_CONCURRENT freed 14K, 9% free 65882K/71764K, paused 2ms+4ms, total 31ms\n'
p344
sa(dp345
g2
S'13988'
p346
sg4
L1449715276009L
sg5
g6
sg7
S'dalvikvm'
p347
sg9
S'13988'
p348
sg11
S'WAIT_FOR_CONCURRENT_GC blocked 12ms\n'
p349
sa(dp350
g2
S'13988'
p351
sg4
L1449715276019L
sg5
g20
sg7
S'dalvikvm-heap'
p352
sg9
S'13988'
p353
sg11
S'Grow heap (frag case) to 75.822MB for 8294416-byte allocation\n'
p354
sa(dp355
g2
S'13988'
p356
sg4
L1449715276049L
sg5
g6
sg7
S'dalvikvm'
p357
sg9
S'13992'
p358
sg11
S'GC_CONCURRENT freed 8101K, 18% free 65887K/79868K, paused 3ms+4ms, total 30ms\n'
p359
sa(dp360
g2
S'13988'
p361
sg4
L1449715276259L
sg5
g6
sg7
S'cn.edu.nju.ise.kikandroid'
p362
sg9
S'14054'
p363
sg11
S'Screenshot:1449715275845\n'
p364
sa(dp365
g2
S'13988'
p366
sg4
L1449715276850L
sg5
g6
sg7
S'MainActivity'
p367
sg9
S'13988'
p368
sg11
S'logList.size2():0 com.example.myfristandroid.myListView{431ac350 V.ED.VC. ......ID 15,15-1047,15 #7f08003c app:id/id_lv_logView}\n'
p369
sa(dp370
g2
S'13988'
p371
sg4
L1449715276850L
sg5
g6
sg7
S'MainActivity'
p372
sg9
S'13988'
p373
sg11
S'MainActivity Send BroadCast Length:22\n'
p374
sa(dp375
g2
S'13988'
p376
sg4
L1449715276850L
sg5
g6
sg7
S'AbsListView'
p377
sg9
S'13988'
p378
sg11
S'onDetachedFromWindow\n'
p379
sa(dp380
g2
S'13988'
p381
sg4
L1449715276850L
sg5
g6
sg7
S'AbsListView'
p382
sg9
S'13988'
p383
sg11
S'unregisterIRListener() is called \n'
p384
sa(dp385
g2
S'14024'
p386
sg4
L1449715276850L
sg5
g6
sg7
S'ForegroundActivity'
p387
sg9
S'14024'
p388
sg11
S'\xe6\x9c\xac\xe6\xac\xa1\xe5\x8f\x91\xe9\x80\x81\xe5\xb8\xa7\xe9\x95\xbf:22\t\xe6\x80\xbb\xe5\xb8\xa7\xe9\x95\xbf:79\n'
p389
sa(dp390
g2
S'13988'
p391
sg4
L1449715276880L
sg5
g6
sg7
S'AbsListView'
p392
sg9
S'13988'
p393
sg11
S'unregisterIRListener() is called \n'
p394
sa(dp395
g2
S'13988'
p396
sg4
L1449715276890L
sg5
S'E'
p397
sg7
S'ViewRootImpl'
p398
sg9
S'13988'
p399
sg11
S'sendUserActionEvent() mView == null\n'
p400
sa(dp401
g2
S'14024'
p402
sg4
L1449715276940L
sg5
g6
sg7
S'ForegroundActivity'
p403
sg9
S'14047'
p404
sg11
S'\xe6\x9c\xac\xe6\xac\xa1\xe6\x94\xb6\xe5\x88\xb0\xe5\xb8\xa7\xe9\x95\xbf:17\t\xe6\x80\xbb\xe5\xb8\xa7\xe9\x95\xbf:739\n'
p405
sa(dp406
g2
S'14024'
p407
sg4
L1449715277821L
sg5
g6
sg7
S'SocketService1'
p408
sg9
S'14041'
p409
sg11
S'\xe6\x9c\xac\xe6\xac\xa1\xe6\x8f\x90\xe5\x8f\x961:LoadPtr:739 HeadIndex:722 GetSize:17 17 0 \xe5\xa4\xb4\xe4\xbf\xa1\xe6\x81\xaf:EB 90 EB 90 EB 90 11 00 0D 01 \n'
p410
sa(dp411
g2
S'13988'
p412
sg4
L1449715278111L
sg5
g6
sg7
S'dalvikvm'
p413
sg9
S'13988'
p414
sg11
S'GC_FOR_ALLOC freed 8300K, 10% free 57786K/63660K, paused 46ms, total 48ms\n'
p415
sa(dp416
g2
S'13988'
p417
sg4
L1449715278141L
sg5
g20
sg7
S'dalvikvm-heap'
p418
sg9
S'13988'
p419
sg11
S'Grow heap (frag case) to 67.916MB for 8294416-byte allocation\n'
p420
sa(dp421
g2
S'13988'
p422
sg4
L1449715278171L
sg5
g6
sg7
S'dalvikvm'
p423
sg9
S'13992'
p424
sg11
S'GC_CONCURRENT freed 15K, 9% free 65872K/71764K, paused 3ms+5ms, total 34ms\n'
p425
sa(dp426
g2
S'13988'
p427
sg4
L1449715278181L
sg5
g6
sg7
S'dalvikvm'
p428
sg9
S'13988'
p429
sg11
S'WAIT_FOR_CONCURRENT_GC blocked 9ms\n'
p430
sa(dp431
g2
S'13988'
p432
sg4
L1449715278201L
sg5
g20
sg7
S'dalvikvm-heap'
p433
sg9
S'13988'
p434
sg11
S'Grow heap (frag case) to 75.811MB for 8294416-byte allocation\n'
p435
sa(dp436
g2
S'13988'
p437
sg4
L1449715278231L
sg5
g6
sg7
S'dalvikvm'
p438
sg9
S'13992'
p439
sg11
S'GC_CONCURRENT freed 8101K, 18% free 65876K/79868K, paused 1ms+4ms, total 32ms\n'
p440
sa(dp441
g2
S'13988'
p442
sg4
L1449715278401L
sg5
g6
sg7
S'cn.edu.nju.ise.kikandroid'
p443
sg9
S'14054'
p444
sg11
S'Screenshot:1449715277993\n'
p445
sa(dp446
g2
S'13988'
p447
sg4
L1449715282936L
sg5
g6
sg7
S'cn.edu.nju.ise.kikandroid'
p448
sg9
S'14054'
p449
sg11
S'Log:1449715282948\n'
p450
sa(dp451
g2
S'13988'
p452
sg4
L1449715285308L
sg5
g6
sg7
S'cn.edu.nju.ise.kikandroid'
p453
sg9
S'14054'
p454
sg11
S'Log:1449715285318\n'
p455
sa(dp456
g2
S'13988'
p457
sg4
L1449715285448L
sg5
g6
sg7
S'dalvikvm'
p458
sg9
S'13988'
p459
sg11
S'GC_FOR_ALLOC freed 8288K, 10% free 57776K/63660K, paused 24ms, total 24ms\n'
p460
sa(dp461
g2
S'13988'
p462
sg4
L1449715285458L
sg5
g20
sg7
S'dalvikvm-heap'
p463
sg9
S'13988'
p464
sg11
S'Grow heap (frag case) to 67.905MB for 8294416-byte allocation\n'
p465
sa(dp466
g2
S'13988'
p467
sg4
L1449715285488L
sg5
g6
sg7
S'dalvikvm'
p468
sg9
S'13992'
p469
sg11
S'GC_CONCURRENT freed 2K, 9% free 65874K/71764K, paused 5ms+4ms, total 28ms\n'
p470
sa(dp471
g2
S'13988'
p472
sg4
L1449715285488L
sg5
g6
sg7
S'dalvikvm'
p473
sg9
S'13988'
p474
sg11
S'WAIT_FOR_CONCURRENT_GC blocked 9ms\n'
p475
sa(dp476
g2
S'13988'
p477
sg4
L1449715285508L
sg5
g20
sg7
S'dalvikvm-heap'
p478
sg9
S'13988'
p479
sg11
S'Grow heap (frag case) to 75.813MB for 8294416-byte allocation\n'
p480
sa(dp481
g2
S'13988'
p482
sg4
L1449715285548L
sg5
g6
sg7
S'dalvikvm'
p483
sg9
S'13992'
p484
sg11
S'GC_CONCURRENT freed 8101K, 18% free 65879K/79868K, paused 2ms+5ms, total 35ms\n'
p485
sa(dp486
g2
S'13988'
p487
sg4
L1449715285698L
sg5
g6
sg7
S'cn.edu.nju.ise.kikandroid'
p488
sg9
S'14054'
p489
sg11
S'Screenshot:1449715285368\n'
p490
sa(dp491
g2
S'13988'
p492
sg4
L1449715285708L
sg5
S'W'
p493
sg7
S'dalvikvm'
p494
sg9
S'14054'
p495
sg11
S'threadid=14: thread exiting with uncaught exception (group=0x41955898)\n'
p496
sa(dp497
g2
S'13988'
p498
sg4
L1449715285708L
sg5
g397
sg7
S'AndroidRuntime'
p499
sg9
S'14054'
p500
sg11
S'FATAL EXCEPTION: Thread-2229\njava.lang.NullPointerException\n\tat android.app.Instrumentation.finish(Instrumentation.java:195)\n\tat cn.edu.nju.ise.kikandroid.AUTInstrument.quitInstr(AUTInstrument.java:195)\n\tat cn.edu.nju.ise.kikandroid.AUTInstrument.startServer(AUTInstrument.java:161)\n\tat cn.edu.nju.ise.kikandroid.AUTInstrument$1.run(AUTInstrument.java:107)\n\tat java.lang.Thread.run(Thread.java:841)\n'
p501
sa.