(lp0
(dp1
S'processID'
p2
S'28521'
p3
sS'SyscTime'
p4
L1449715111060L
sS'priority'
p5
S'D'
p6
sS'tag'
p7
S'dalvikvm'
p8
sS'threadID'
p9
S'28521'
p10
sS'message'
p11
S'Late-enabling CheckJNI\n'
p12
sa(dp13
g2
S'28521'
p14
sg4
L1449715111150L
sg5
S'E'
p15
sg7
S'Trace   '
p16
sg9
S'28521'
p17
sg11
S'error opening trace file: No such file or directory (2)\n'
p18
sa(dp19
g2
S'28521'
p20
sg4
L1449715111240L
sg5
S'V'
p21
sg7
S'Activity'
p22
sg9
S'28521'
p23
sg11
S'onCreate com.example.myfristandroid.SplashActivity@424dfa60: null\n'
p24
sa(dp25
g2
S'28521'
p26
sg4
L1449715111270L
sg5
g6
sg7
S'dalvikvm'
p27
sg9
S'28521'
p28
sg11
S'GC_FOR_ALLOC freed 92K, 6% free 9603K/10179K, paused 16ms, total 16ms\n'
p29
sa(dp30
g2
S'28521'
p31
sg4
L1449715111290L
sg5
S'I'
p32
sg7
S'dalvikvm-heap'
p33
sg9
S'28521'
p34
sg11
S'Grow heap (frag case) to 15.468MB for 3876224-byte allocation\n'
p35
sa(dp36
g2
S'28521'
p37
sg4
L1449715111320L
sg5
g6
sg7
S'dalvikvm'
p38
sg9
S'28525'
p39
sg11
S'GC_CONCURRENT freed <1K, 5% free 13388K/14023K, paused 12ms+2ms, total 24ms\n'
p40
sa(dp41
g2
S'28521'
p42
sg4
L1449715111470L
sg5
g6
sg7
S'dalvikvm'
p43
sg9
S'28521'
p44
sg11
S'GC_FOR_ALLOC freed 0K, 5% free 13388K/14023K, paused 11ms, total 11ms\n'
p45
sa(dp46
g2
S'28521'
p47
sg4
L1449715111490L
sg5
g32
sg7
S'dalvikvm-heap'
p48
sg9
S'28521'
p49
sg11
S'Grow heap (frag case) to 23.785MB for 8721484-byte allocation\n'
p50
sa(dp51
g2
S'28521'
p52
sg4
L1449715111500L
sg5
g6
sg7
S'dalvikvm'
p53
sg9
S'28525'
p54
sg11
S'GC_CONCURRENT freed 0K, 4% free 21905K/22599K, paused 2ms+2ms, total 16ms\n'
p55
sa(dp56
g2
S'28545'
p57
sg4
L1449715111560L
sg5
g6
sg7
S'dalvikvm'
p58
sg9
S'28545'
p59
sg11
S'Late-enabling CheckJNI\n'
p60
sa(dp61
g2
S'28521'
p62
sg4
L1449715111560L
sg5
g21
sg7
S'Activity'
p63
sg9
S'28521'
p64
sg11
S'onStart com.example.myfristandroid.SplashActivity@424dfa60\n'
p65
sa(dp66
g2
S'28521'
p67
sg4
L1449715111560L
sg5
g21
sg7
S'Activity'
p68
sg9
S'28521'
p69
sg11
S'onResume com.example.myfristandroid.SplashActivity@424dfa60\n'
p70
sa(dp71
g2
S'28545'
p72
sg4
L1449715111580L
sg5
g15
sg7
S'Trace   '
p73
sg9
S'28545'
p74
sg11
S'error opening trace file: No such file or directory (2)\n'
p75
sa(dp76
g2
S'28521'
p77
sg4
L1449715111610L
sg5
g6
sg7
S'libEGL  '
p78
sg9
S'28521'
p79
sg11
S'loaded /system/lib/egl/libEGL_adreno200.so\n'
p80
sa(dp81
g2
S'28521'
p82
sg4
L1449715111610L
sg5
g6
sg7
S'libEGL  '
p83
sg9
S'28521'
p84
sg11
S'loaded /system/lib/egl/libGLESv1_CM_adreno200.so\n'
p85
sa(dp86
g2
S'28521'
p87
sg4
L1449715111610L
sg5
g6
sg7
S'libEGL  '
p88
sg9
S'28521'
p89
sg11
S'loaded /system/lib/egl/libGLESv2_adreno200.so\n'
p90
sa(dp91
g2
S'28545'
p92
sg4
L1449715111620L
sg5
g6
sg7
S'dalvikvm'
p93
sg9
S'28545'
p94
sg11
S'GC_FOR_ALLOC freed 37K, 6% free 9575K/10179K, paused 18ms, total 18ms\n'
p95
sa(dp96
g2
S'28545'
p97
sg4
L1449715111620L
sg5
g32
sg7
S'dalvikvm-heap'
p98
sg9
S'28545'
p99
sg11
S'Grow heap (frag case) to 12.721MB for 1024016-byte allocation\n'
p100
sa(dp101
g2
S'28521'
p102
sg4
L1449715111620L
sg5
g32
sg7
S'Log_level_control'
p103
sg9
S'28521'
p104
sg11
S'YVV7\n'
p105
sa(dp106
g2
S'28521'
p107
sg4
L1449715111620L
sg5
g32
sg7
S'Adreno200-EGL'
p108
sg9
S'28521'
p109
sg11
S'<qeglDrvAPI_eglInitialize:299>: EGL 1.4 QUALCOMM build: Nondeterministic AU_msm8625_REFS/TAGS/JB_REL_RB5_QRD_D20130303_CL3285357_release_AU (CL3285357)\nBuild Date: 03/04/13 Mon\nLocal Branch: \nRemote Branch: m/refs/tags/jb_rel_rb5_qrd_D20130303\nLocal Patches: NONE\nReconstruct Branch: NOTHING\n'
p110
sa(dp111
g2
S'28521'
p112
sg4
L1449715111650L
sg5
g6
sg7
S'OpenGLRenderer'
p113
sg9
S'28521'
p114
sg11
S'Enabling debug mode 0\n'
p115
sa(dp116
g2
S'28545'
p117
sg4
L1449715111660L
sg5
g6
sg7
S'dalvikvm'
p118
sg9
S'28548'
p119
sg11
S'GC_CONCURRENT freed 54K, 6% free 10586K/11207K, paused 12ms+13ms, total 38ms\n'
p120
sa(dp121
g2
S'28545'
p122
sg4
L1449715111660L
sg5
g6
sg7
S'SocketService'
p123
sg9
S'28545'
p124
sg11
S'onStartCommand : bLogin:false\n'
p125
sa(dp126
g2
S'28545'
p127
sg4
L1449715111670L
sg5
g6
sg7
S'SocketService'
p128
sg9
S'28545'
p129
sg11
S'pid:28545 myPid:28545\n'
p130
sa(dp131
g2
S'28545'
p132
sg4
L1449715111680L
sg5
g6
sg7
S'SocketService'
p133
sg9
S'28545'
p134
sg11
S'start to run current thread!id:611\n'
p135
sa(dp136
g2
S'28545'
p137
sg4
L1449715111780L
sg5
g6
sg7
S'SocketService'
p138
sg9
S'28564'
p139
sg11
S'ip/192.168.1.176 lport:48857 p:143\n'
p140
sa(dp141
g2
S'28545'
p142
sg4
L1449715111790L
sg5
g6
sg7
S'ForegroundActivity'
p143
sg9
S'28564'
p144
sg11
S'\xe6\x9c\xac\xe6\xac\xa1\xe5\x8f\x91\xe9\x80\x81\xe5\xb8\xa7\xe9\x95\xbf:34\t\xe6\x80\xbb\xe5\xb8\xa7\xe9\x95\xbf:34\n'
p145
sa(dp146
g2
S'28545'
p147
sg4
L1449715111790L
sg5
g6
sg7
S'SocketService'
p148
sg9
S'28564'
p149
sg11
S'success to connect server!id:611 bLogin:false\n'
p150
sa(dp151
g2
S'28545'
p152
sg4
L1449715111890L
sg5
g6
sg7
S'ForegroundActivity'
p153
sg9
S'28566'
p154
sg11
S'\xe6\x9c\xac\xe6\xac\xa1\xe6\x94\xb6\xe5\x88\xb0\xe5\xb8\xa7\xe9\x95\xbf:13\t\xe6\x80\xbb\xe5\xb8\xa7\xe9\x95\xbf:13\n'
p155
sa(dp156
g2
S'28521'
p157
sg4
L1449715112040L
sg5
g32
sg7
S'Environment'
p158
sg9
S'28535'
p159
sg11
S'GetExternalStorageDirectory info:ApplicationInfo{424e2908 com.example.myfristandroid},packagename:com.example.myfristandroid,UID:0\n'
p160
sa(dp161
g2
S'28545'
p162
sg4
L1449715112670L
sg5
g6
sg7
S'SocketService1'
p163
sg9
S'28562'
p164
sg11
S'\xe6\x9c\xac\xe6\xac\xa1\xe6\x8f\x90\xe5\x8f\x961:LoadPtr:13 HeadIndex:0 GetSize:13 13 0 \xe5\xa4\xb4\xe4\xbf\xa1\xe6\x81\xaf:EB 90 EB 90 EB 90 0D 00 0E 01 \n'
p165
sa(dp166
g2
S'28545'
p167
sg4
L1449715112800L
sg5
g6
sg7
S'ForegroundActivity'
p168
sg9
S'28564'
p169
sg11
S'\xe6\x9c\xac\xe6\xac\xa1\xe5\x8f\x91\xe9\x80\x81\xe5\xb8\xa7\xe9\x95\xbf:11\t\xe6\x80\xbb\xe5\xb8\xa7\xe9\x95\xbf:45\n'
p170
sa(dp171
g2
S'28545'
p172
sg4
L1449715112910L
sg5
g6
sg7
S'ForegroundActivity'
p173
sg9
S'28566'
p174
sg11
S'\xe6\x9c\xac\xe6\xac\xa1\xe6\x94\xb6\xe5\x88\xb0\xe5\xb8\xa7\xe9\x95\xbf:642\t\xe6\x80\xbb\xe5\xb8\xa7\xe9\x95\xbf:655\n'
p175
sa(dp176
g2
S'28521'
p177
sg4
L1449715113620L
sg5
g21
sg7
S'Activity'
p178
sg9
S'28521'
p179
sg11
S'onPause com.example.myfristandroid.SplashActivity@424dfa60\n'
p180
sa(dp181
g2
S'28521'
p182
sg4
L1449715113640L
sg5
g21
sg7
S'Activity'
p183
sg9
S'28521'
p184
sg11
S'onCreate com.example.myfristandroid.MainActivity@424c2000: null\n'
p185
sa(dp186
g2
S'28545'
p187
sg4
L1449715113700L
sg5
g6
sg7
S'SocketService1'
p188
sg9
S'28562'
p189
sg11
S'\xe6\x9c\xac\xe6\xac\xa1\xe6\x8f\x90\xe5\x8f\x961:LoadPtr:655 HeadIndex:13 GetSize:642 130 512 \xe5\xa4\xb4\xe4\xbf\xa1\xe6\x81\xaf:EB 90 EB 90 EB 90 82 02 14 0A \n'
p190
sa(dp191
g2
S'28545'
p192
sg4
L1449715113800L
sg5
g6
sg7
S'ForegroundActivity'
p193
sg9
S'28564'
p194
sg11
S'\xe6\x9c\xac\xe6\xac\xa1\xe5\x8f\x91\xe9\x80\x81\xe5\xb8\xa7\xe9\x95\xbf:11\t\xe6\x80\xbb\xe5\xb8\xa7\xe9\x95\xbf:56\n'
p195
sa(dp196
g2
S'28521'
p197
sg4
L1449715113820L
sg5
g6
sg7
S'MainActivity'
p198
sg9
S'28521'
p199
sg11
S'Start One Client\n'
p200
sa(dp201
g2
S'28521'
p202
sg4
L1449715113820L
sg5
g21
sg7
S'Activity'
p203
sg9
S'28521'
p204
sg11
S'onStart com.example.myfristandroid.MainActivity@424c2000\n'
p205
sa(dp206
g2
S'28521'
p207
sg4
L1449715113820L
sg5
g21
sg7
S'Activity'
p208
sg9
S'28521'
p209
sg11
S'onResume com.example.myfristandroid.MainActivity@424c2000\n'
p210
sa(dp211
g2
S'28545'
p212
sg4
L1449715113920L
sg5
g6
sg7
S'ForegroundActivity'
p213
sg9
S'28566'
p214
sg11
S'\xe6\x9c\xac\xe6\xac\xa1\xe6\x94\xb6\xe5\x88\xb0\xe5\xb8\xa7\xe9\x95\xbf:67\t\xe6\x80\xbb\xe5\xb8\xa7\xe9\x95\xbf:722\n'
p215
sa(dp216
g2
S'28521'
p217
sg4
L1449715114010L
sg5
g6
sg7
S'dalvikvm'
p218
sg9
S'28521'
p219
sg11
S'GC_FOR_ALLOC freed 4995K, 23% free 18838K/24263K, paused 15ms, total 15ms\n'
p220
sa(dp221
g2
S'28521'
p222
sg4
L1449715114110L
sg5
g6
sg7
S'dalvikvm'
p223
sg9
S'28525'
p224
sg11
S'GC_CONCURRENT freed 1083K, 19% free 19755K/24263K, paused 2ms+3ms, total 19ms\n'
p225
sa(dp226
g2
S'28521'
p227
sg4
L1449715114110L
sg5
g6
sg7
S'dalvikvm'
p228
sg9
S'28521'
p229
sg11
S'WAIT_FOR_CONCURRENT_GC blocked 8ms\n'
p230
sa(dp231
g2
S'28521'
p232
sg4
L1449715114590L
sg5
g21
sg7
S'Activity'
p233
sg9
S'28521'
p234
sg11
S'onStop com.example.myfristandroid.SplashActivity@424dfa60\n'
p235
sa(dp236
g2
S'28521'
p237
sg4
L1449715114590L
sg5
g21
sg7
S'Activity'
p238
sg9
S'28521'
p239
sg11
S'onDestroy com.example.myfristandroid.SplashActivity@424dfa60\n'
p240
sa(dp241
g2
S'28545'
p242
sg4
L1449715114720L
sg5
g6
sg7
S'SocketService1'
p243
sg9
S'28562'
p244
sg11
S'\xe6\x9c\xac\xe6\xac\xa1\xe6\x8f\x90\xe5\x8f\x961:LoadPtr:722 HeadIndex:655 GetSize:67 67 0 \xe5\xa4\xb4\xe4\xbf\xa1\xe6\x81\xaf:EB 90 EB 90 EB 90 43 00 15 02 \n'
p245
sa(dp246
g2
S'28521'
p247
sg4
L1449715114730L
sg5
g6
sg7
S'MainActivity'
p248
sg9
S'28521'
p249
sg11
S'ServerVersion:22 LocalVersion:12\n'
p250
sa(dp251
g2
S'28521'
p252
sg4
L1449715121060L
sg5
g21
sg7
S'AudioManager'
p253
sg9
S'28521'
p254
sg11
S'AudioManager ctor mUseMasterVolume:false\n'
p255
sa(dp256
g2
S'28521'
p257
sg4
L1449715124530L
sg5
g6
sg7
S'MainActivity'
p258
sg9
S'28521'
p259
sg11
S'V.getTag:null v.id:2131230738\n'
p260
sa(dp261
g2
S'28521'
p262
sg4
L1449715130930L
sg5
g6
sg7
S'MainActivity'
p263
sg9
S'28521'
p264
sg11
S'V.getTag:null v.id:2131230790\n'
p265
sa(dp266
g2
S'28521'
p267
sg4
L1449715132750L
sg5
g6
sg7
S'cn.edu.nju.ise.kikandroid'
p268
sg9
S'28571'
p269
sg11
S'Screenshot:1449715132759\n'
p270
sa(dp271
g2
S'28521'
p272
sg4
L1449715132860L
sg5
g6
sg7
S'dalvikvm'
p273
sg9
S'28521'
p274
sg11
S'GC_FOR_ALLOC freed 1175K, 18% free 20051K/24263K, paused 46ms, total 46ms\n'
p275
sa(dp276
g2
S'28521'
p277
sg4
L1449715132920L
sg5
g6
sg7
S'dalvikvm'
p278
sg9
S'28525'
p279
sg11
S'GC_CONCURRENT freed 108K, 10% free 21969K/24263K, paused 13ms+2ms, total 40ms\n'
p280
sa(dp281
g2
S'28521'
p282
sg4
L1449715132940L
sg5
g6
sg7
S'dalvikvm'
p283
sg9
S'28521'
p284
sg11
S'GC_FOR_ALLOC freed <1K, 10% free 21968K/24263K, paused 15ms, total 15ms\n'
p285
sa(dp286
g2
S'28521'
p287
sg4
L1449715132940L
sg5
g32
sg7
S'dalvikvm-heap'
p288
sg9
S'28521'
p289
sg11
S'Grow heap (frag case) to 25.825MB for 2073616-byte allocation\n'
p290
sa(dp291
g2
S'28521'
p292
sg4
L1449715132980L
sg5
g6
sg7
S'dalvikvm'
p293
sg9
S'28525'
p294
sg11
S'GC_CONCURRENT freed 2026K, 17% free 21975K/26311K, paused 4ms+4ms, total 37ms\n'
p295
sa(dp296
g2
S'28521'
p297
sg4
L1449715138060L
sg5
g6
sg7
S'MainActivity'
p298
sg9
S'28521'
p299
sg11
S'V.getTag:null v.id:2131230791\n'
p300
sa(dp301
g2
S'28521'
p302
sg4
L1449715138300L
sg5
S'W'
p303
sg7
S'IInputConnectionWrapper'
p304
sg9
S'28521'
p305
sg11
S'performPrivateCommand on inactive InputConnection\n'
p306
sa(dp307
g2
S'28545'
p308
sg4
L1449715143300L
sg5
g6
sg7
S'dalvikvm'
p309
sg9
S'28548'
p310
sg11
S'GC_CONCURRENT freed 388K, 8% free 10609K/11463K, paused 16ms+2ms, total 62ms\n'
p311
sa(dp312
g2
S'28521'
p313
sg4
L1449715143870L
sg5
g6
sg7
S'cn.edu.nju.ise.kikandroid'
p314
sg9
S'28571'
p315
sg11
S'Screenshot:1449715143885\n'
p316
sa(dp317
g2
S'28521'
p318
sg4
L1449715143950L
sg5
g6
sg7
S'dalvikvm'
p319
sg9
S'28521'
p320
sg11
S'GC_FOR_ALLOC freed 2287K, 24% free 20125K/26311K, paused 29ms, total 31ms\n'
p321
sa(dp322
g2
S'28521'
p323
sg4
L1449715144010L
sg5
g6
sg7
S'dalvikvm'
p324
sg9
S'28525'
p325
sg11
S'GC_CONCURRENT freed 9K, 16% free 22141K/26311K, paused 13ms+14ms, total 50ms\n'
p326
sa(dp327
g2
S'28521'
p328
sg4
L1449715144080L
sg5
g6
sg7
S'dalvikvm'
p329
sg9
S'28525'
p330
sg11
S'GC_CONCURRENT freed 2026K, 16% free 22146K/26311K, paused 6ms+19ms, total 64ms\n'
p331
sa(dp332
g2
S'28521'
p333
sg4
L1449715144980L
sg5
g6
sg7
S'MainActivity'
p334
sg9
S'28521'
p335
sg11
S'logList.size2():0 com.example.myfristandroid.myListView@4314fd78\n'
p336
sa(dp337
g2
S'28521'
p338
sg4
L1449715144980L
sg5
g6
sg7
S'MainActivity'
p339
sg9
S'28521'
p340
sg11
S'MainActivity Send BroadCast Length:22\n'
p341
sa(dp342
g2
S'28545'
p343
sg4
L1449715145020L
sg5
g6
sg7
S'ForegroundActivity'
p344
sg9
S'28545'
p345
sg11
S'\xe6\x9c\xac\xe6\xac\xa1\xe5\x8f\x91\xe9\x80\x81\xe5\xb8\xa7\xe9\x95\xbf:22\t\xe6\x80\xbb\xe5\xb8\xa7\xe9\x95\xbf:78\n'
p346
sa(dp347
g2
S'28545'
p348
sg4
L1449715145160L
sg5
g6
sg7
S'ForegroundActivity'
p349
sg9
S'28566'
p350
sg11
S'\xe6\x9c\xac\xe6\xac\xa1\xe6\x94\xb6\xe5\x88\xb0\xe5\xb8\xa7\xe9\x95\xbf:17\t\xe6\x80\xbb\xe5\xb8\xa7\xe9\x95\xbf:739\n'
p351
sa(dp352
g2
S'28545'
p353
sg4
L1449715145760L
sg5
g6
sg7
S'SocketService1'
p354
sg9
S'28562'
p355
sg11
S'\xe6\x9c\xac\xe6\xac\xa1\xe6\x8f\x90\xe5\x8f\x961:LoadPtr:739 HeadIndex:722 GetSize:17 17 0 \xe5\xa4\xb4\xe4\xbf\xa1\xe6\x81\xaf:EB 90 EB 90 EB 90 11 00 0D 01 \n'
p356
sa(dp357
g2
S'28521'
p358
sg4
L1449715147820L
sg5
g6
sg7
S'cn.edu.nju.ise.kikandroid'
p359
sg9
S'28571'
p360
sg11
S'Screenshot:1449715147831\n'
p361
sa(dp362
g2
S'28521'
p363
sg4
L1449715147910L
sg5
g6
sg7
S'dalvikvm'
p364
sg9
S'28521'
p365
sg11
S'GC_FOR_ALLOC freed 2195K, 24% free 20118K/26311K, paused 22ms, total 25ms\n'
p366
sa(dp367
g2
S'28521'
p368
sg4
L1449715147960L
sg5
g6
sg7
S'dalvikvm'
p369
sg9
S'28525'
p370
sg11
S'GC_CONCURRENT freed 142K, 17% free 22000K/26311K, paused 13ms+3ms, total 40ms\n'
p371
sa(dp372
g2
S'28521'
p373
sg4
L1449715148000L
sg5
g6
sg7
S'dalvikvm'
p374
sg9
S'28525'
p375
sg11
S'GC_CONCURRENT freed 2026K, 17% free 22005K/26311K, paused 3ms+4ms, total 25ms\n'
p376
sa(dp377
g2
S'28521'
p378
sg4
L1449715148740L
sg5
g6
sg7
S'MainActivity'
p379
sg9
S'28521'
p380
sg11
S'V.getTag:null v.id:2131230791\n'
p381
sa(dp382
g2
S'28521'
p383
sg4
L1449715148930L
sg5
g303
sg7
S'IInputConnectionWrapper'
p384
sg9
S'28521'
p385
sg11
S'performPrivateCommand on inactive InputConnection\n'
p386
sa(dp387
g2
S'28521'
p388
sg4
L1449715148940L
sg5
g303
sg7
S'IInputConnectionWrapper'
p389
sg9
S'28521'
p390
sg11
S'performPrivateCommand on inactive InputConnection\n'
p391
sa(dp392
g2
S'28521'
p393
sg4
L1449715157070L
sg5
g6
sg7
S'MainActivity'
p394
sg9
S'28521'
p395
sg11
S'logList.size2():0 com.example.myfristandroid.myListView@4314fd78\n'
p396
sa(dp397
g2
S'28521'
p398
sg4
L1449715157070L
sg5
g6
sg7
S'MainActivity'
p399
sg9
S'28521'
p400
sg11
S'MainActivity Send BroadCast Length:22\n'
p401
sa(dp402
g2
S'28545'
p403
sg4
L1449715157110L
sg5
g6
sg7
S'ForegroundActivity'
p404
sg9
S'28545'
p405
sg11
S'\xe6\x9c\xac\xe6\xac\xa1\xe5\x8f\x91\xe9\x80\x81\xe5\xb8\xa7\xe9\x95\xbf:22\t\xe6\x80\xbb\xe5\xb8\xa7\xe9\x95\xbf:100\n'
p406
sa(dp407
g2
S'28545'
p408
sg4
L1449715157250L
sg5
g6
sg7
S'ForegroundActivity'
p409
sg9
S'28566'
p410
sg11
S'\xe6\x9c\xac\xe6\xac\xa1\xe6\x94\xb6\xe5\x88\xb0\xe5\xb8\xa7\xe9\x95\xbf:17\t\xe6\x80\xbb\xe5\xb8\xa7\xe9\x95\xbf:756\n'
p411
sa(dp412
g2
S'28545'
p413
sg4
L1449715157800L
sg5
g6
sg7
S'SocketService1'
p414
sg9
S'28562'
p415
sg11
S'\xe6\x9c\xac\xe6\xac\xa1\xe6\x8f\x90\xe5\x8f\x961:LoadPtr:756 HeadIndex:739 GetSize:17 17 0 \xe5\xa4\xb4\xe4\xbf\xa1\xe6\x81\xaf:EB 90 EB 90 EB 90 11 00 0D 01 \n'
p416
sa(dp417
g2
S'28521'
p418
sg4
L1449715160300L
sg5
g6
sg7
S'cn.edu.nju.ise.kikandroid'
p419
sg9
S'28571'
p420
sg11
S'Screenshot:1449715160316\n'
p421
sa(dp422
g2
S'28521'
p423
sg4
L1449715160400L
sg5
g6
sg7
S'dalvikvm'
p424
sg9
S'28521'
p425
sg11
S'GC_FOR_ALLOC freed 2424K, 24% free 20130K/26311K, paused 23ms, total 28ms\n'
p426
sa(dp427
g2
S'28521'
p428
sg4
L1449715160450L
sg5
g6
sg7
S'dalvikvm'
p429
sg9
S'28525'
p430
sg11
S'GC_CONCURRENT freed 25K, 16% free 22130K/26311K, paused 4ms+13ms, total 44ms\n'
p431
sa(dp432
g2
S'28521'
p433
sg4
L1449715160490L
sg5
g6
sg7
S'dalvikvm'
p434
sg9
S'28525'
p435
sg11
S'GC_CONCURRENT freed 2155K, 17% free 22006K/26311K, paused 4ms+3ms, total 30ms\n'
p436
sa(dp437
g2
S'28521'
p438
sg4
L1449715162100L
sg5
g6
sg7
S'MainActivity'
p439
sg9
S'28521'
p440
sg11
S'V.getTag:null v.id:2131230791\n'
p441
sa(dp442
g2
S'28521'
p443
sg4
L1449715162300L
sg5
g303
sg7
S'IInputConnectionWrapper'
p444
sg9
S'28521'
p445
sg11
S'performPrivateCommand on inactive InputConnection\n'
p446
sa(dp447
g2
S'28521'
p448
sg4
L1449715165010L
sg5
g6
sg7
S'cn.edu.nju.ise.kikandroid'
p449
sg9
S'28571'
p450
sg11
S'Screenshot:1449715165020\n'
p451
sa(dp452
g2
S'28521'
p453
sg4
L1449715165110L
sg5
g6
sg7
S'dalvikvm'
p454
sg9
S'28521'
p455
sg11
S'GC_FOR_ALLOC freed 2297K, 24% free 20126K/26311K, paused 38ms, total 39ms\n'
p456
sa(dp457
g2
S'28521'
p458
sg4
L1449715165150L
sg5
g6
sg7
S'dalvikvm'
p459
sg9
S'28525'
p460
sg11
S'GC_CONCURRENT freed 9K, 16% free 22142K/26311K, paused 12ms+5ms, total 42ms\n'
p461
sa(dp462
g2
S'28521'
p463
sg4
L1449715165150L
sg5
g6
sg7
S'dalvikvm'
p464
sg9
S'28521'
p465
sg11
S'WAIT_FOR_CONCURRENT_GC blocked 8ms\n'
p466
sa(dp467
g2
S'28521'
p468
sg4
L1449715165190L
sg5
g6
sg7
S'dalvikvm'
p469
sg9
S'28525'
p470
sg11
S'GC_CONCURRENT freed 2026K, 16% free 22147K/26311K, paused 12ms+4ms, total 38ms\n'
p471
sa(dp472
g2
S'28521'
p473
sg4
L1449715170320L
sg5
g6
sg7
S'MainActivity'
p474
sg9
S'28521'
p475
sg11
S'logList.size2():0 com.example.myfristandroid.myListView@4314fd78\n'
p476
sa(dp477
g2
S'28521'
p478
sg4
L1449715170320L
sg5
g6
sg7
S'MainActivity'
p479
sg9
S'28521'
p480
sg11
S'MainActivity Send BroadCast Length:22\n'
p481
sa(dp482
g2
S'28545'
p483
sg4
L1449715170340L
sg5
g6
sg7
S'ForegroundActivity'
p484
sg9
S'28545'
p485
sg11
S'\xe6\x9c\xac\xe6\xac\xa1\xe5\x8f\x91\xe9\x80\x81\xe5\xb8\xa7\xe9\x95\xbf:22\t\xe6\x80\xbb\xe5\xb8\xa7\xe9\x95\xbf:122\n'
p486
sa(dp487
g2
S'28545'
p488
sg4
L1449715170490L
sg5
g6
sg7
S'ForegroundActivity'
p489
sg9
S'28566'
p490
sg11
S'\xe6\x9c\xac\xe6\xac\xa1\xe6\x94\xb6\xe5\x88\xb0\xe5\xb8\xa7\xe9\x95\xbf:17\t\xe6\x80\xbb\xe5\xb8\xa7\xe9\x95\xbf:773\n'
p491
sa(dp492
g2
S'28545'
p493
sg4
L1449715170840L
sg5
g6
sg7
S'SocketService1'
p494
sg9
S'28562'
p495
sg11
S'\xe6\x9c\xac\xe6\xac\xa1\xe6\x8f\x90\xe5\x8f\x961:LoadPtr:773 HeadIndex:756 GetSize:17 17 0 \xe5\xa4\xb4\xe4\xbf\xa1\xe6\x81\xaf:EB 90 EB 90 EB 90 11 00 0D 01 \n'
p496
sa(dp497
g2
S'28521'
p498
sg4
L1449715172640L
sg5
g6
sg7
S'cn.edu.nju.ise.kikandroid'
p499
sg9
S'28571'
p500
sg11
S'Screenshot:1449715172648\n'
p501
sa(dp502
g2
S'28521'
p503
sg4
L1449715172730L
sg5
g6
sg7
S'dalvikvm'
p504
sg9
S'28521'
p505
sg11
S'GC_FOR_ALLOC freed 2303K, 24% free 20124K/26311K, paused 29ms, total 29ms\n'
p506
sa(dp507
g2
S'28521'
p508
sg4
L1449715172790L
sg5
g6
sg7
S'dalvikvm'
p509
sg9
S'28525'
p510
sg11
S'GC_CONCURRENT freed 147K, 17% free 22002K/26311K, paused 14ms+3ms, total 47ms\n'
p511
sa(dp512
g2
S'28521'
p513
sg4
L1449715172830L
sg5
g6
sg7
S'dalvikvm'
p514
sg9
S'28525'
p515
sg11
S'GC_CONCURRENT freed 2026K, 17% free 22006K/26311K, paused 6ms+4ms, total 35ms\n'
p516
sa(dp517
g2
S'28545'
p518
sg4
L1449715174850L
sg5
g6
sg7
S'dalvikvm'
p519
sg9
S'28548'
p520
sg11
S'GC_CONCURRENT freed 391K, 8% free 10609K/11463K, paused 18ms+1ms, total 63ms\n'
p521
sa(dp522
g2
S'28521'
p523
sg4
L1449715184790L
sg5
g6
sg7
S'cn.edu.nju.ise.kikandroid'
p524
sg9
S'28571'
p525
sg11
S'Log:1449715184802\n'
p526
sa(dp527
g2
S'28521'
p528
sg4
L1449715189100L
sg5
g6
sg7
S'cn.edu.nju.ise.kikandroid'
p529
sg9
S'28571'
p530
sg11
S'Log:1449715189105\n'
p531
sa(dp532
g2
S'28521'
p533
sg4
L1449715189120L
sg5
g6
sg7
S'cn.edu.nju.ise.kikandroid'
p534
sg9
S'28571'
p535
sg11
S'Screenshot:1449715189135\n'
p536
sa(dp537
g2
S'28521'
p538
sg4
L1449715189180L
sg5
g6
sg7
S'dalvikvm'
p539
sg9
S'28521'
p540
sg11
S'GC_FOR_ALLOC freed 2225K, 25% free 19981K/26311K, paused 17ms, total 18ms\n'
p541
sa(dp542
g2
S'28521'
p543
sg4
L1449715189240L
sg5
g6
sg7
S'dalvikvm'
p544
sg9
S'28525'
p545
sg11
S'GC_CONCURRENT freed 2K, 17% free 22004K/26311K, paused 12ms+2ms, total 52ms\n'
p546
sa(dp547
g2
S'28521'
p548
sg4
L1449715189300L
sg5
g6
sg7
S'dalvikvm'
p549
sg9
S'28525'
p550
sg11
S'GC_CONCURRENT freed 2026K, 17% free 22009K/26311K, paused 3ms+2ms, total 44ms\n'
p551
sa(dp552
g2
S'28521'
p553
sg4
L1449715189350L
sg5
g303
sg7
S'dalvikvm'
p554
sg9
S'28571'
p555
sg11
S'threadid=15: thread exiting with uncaught exception (group=0x41b16588)\n'
p556
sa(dp557
g2
S'28521'
p558
sg4
L1449715189360L
sg5
g15
sg7
S'AndroidRuntime'
p559
sg9
S'28571'
p560
sg11
S'FATAL EXCEPTION: Thread-607\njava.lang.NullPointerException\n\tat android.app.Instrumentation.finish(Instrumentation.java:191)\n\tat cn.edu.nju.ise.kikandroid.AUTInstrument.quitInstr(AUTInstrument.java:195)\n\tat cn.edu.nju.ise.kikandroid.AUTInstrument.startServer(AUTInstrument.java:161)\n\tat cn.edu.nju.ise.kikandroid.AUTInstrument$1.run(AUTInstrument.java:107)\n\tat java.lang.Thread.run(Thread.java:856)\n'
p561
sa.