(lp0
(dp1
S'processID'
p2
S'8318'
p3
sS'SyscTime'
p4
L1449721832261L
sS'priority'
p5
S'D'
p6
sS'tag'
p7
S'dalvikvm'
p8
sS'threadID'
p9
S' 8318'
p10
sS'message'
p11
S'Late-enabling CheckJNI\n'
p12
sa(dp13
g2
S'8318'
p14
sg4
L1449721832791L
sg5
g6
sg7
S'dalvikvm'
p15
sg9
S' 8318'
p16
sg11
S'GC_FOR_ALLOC freed 59K, 30% free 18317K/25956K, paused 23ms, total 23ms\n'
p17
sa(dp18
g2
S'8318'
p19
sg4
L1449721832871L
sg5
S'I'
p20
sg7
S'dalvikvm-heap'
p21
sg9
S' 8318'
p22
sg11
S'Grow heap (frag case) to 54.889MB for 34885888-byte allocation\n'
p23
sa(dp24
g2
S'8318'
p25
sg4
L1449721832911L
sg5
g6
sg7
S'dalvikvm'
p26
sg9
S' 8322'
p27
sg11
S'GC_CONCURRENT freed <1K, 13% free 52385K/60028K, paused 3ms+2ms, total 34ms\n'
p28
sa(dp29
g2
S'8343'
p30
sg4
L1449721832991L
sg5
g6
sg7
S'dalvikvm'
p31
sg9
S' 8343'
p32
sg11
S'Late-enabling CheckJNI\n'
p33
sa(dp34
g2
S'8318'
p35
sg4
L1449721833062L
sg5
g6
sg7
S'libEGL  '
p36
sg9
S' 8318'
p37
sg11
S'loaded /vendor/lib/egl/libEGL_adreno.so\n'
p38
sa(dp39
g2
S'8318'
p40
sg4
L1449721833072L
sg5
g6
sg7
S'libEGL  '
p41
sg9
S' 8318'
p42
sg11
S'loaded /vendor/lib/egl/libGLESv1_CM_adreno.so\n'
p43
sa(dp44
g2
S'8318'
p45
sg4
L1449721833082L
sg5
g6
sg7
S'libEGL  '
p46
sg9
S' 8318'
p47
sg11
S'loaded /vendor/lib/egl/libGLESv2_adreno.so\n'
p48
sa(dp49
g2
S'8318'
p50
sg4
L1449721833082L
sg5
g20
sg7
S'Adreno-EGL'
p51
sg9
S' 8318'
p52
sg11
S'<qeglDrvAPI_eglInitialize:316>: EGL 1.4 QUALCOMM build:  (CL4169980)\nOpenGL ES Shader Compiler Version: 17.01.10.SPL\nBuild Date: 09/26/13 Thu\nLocal Branch: \nRemote Branch: \nLocal Patches: \nReconstruct Branch: \n'
p53
sa(dp54
g2
S'8343'
p55
sg4
L1449721833092L
sg5
g6
sg7
S'SocketService'
p56
sg9
S' 8343'
p57
sg11
S'onStartCommand : bLogin:false\n'
p58
sa(dp59
g2
S'8343'
p60
sg4
L1449721833092L
sg5
g6
sg7
S'SocketService'
p61
sg9
S' 8343'
p62
sg11
S'pid:8343 myPid:8343\n'
p63
sa(dp64
g2
S'8343'
p65
sg4
L1449721833092L
sg5
g6
sg7
S'SocketService'
p66
sg9
S' 8343'
p67
sg11
S'start to run current thread!id:725\n'
p68
sa(dp69
g2
S'8343'
p70
sg4
L1449721833142L
sg5
g6
sg7
S'SocketService'
p71
sg9
S' 8361'
p72
sg11
S'ip/192.168.155.2 lport:60771 p:143\n'
p73
sa(dp74
g2
S'8343'
p75
sg4
L1449721833142L
sg5
g6
sg7
S'ForegroundActivity'
p76
sg9
S' 8361'
p77
sg11
S'\xe6\x9c\xac\xe6\xac\xa1\xe5\x8f\x91\xe9\x80\x81\xe5\xb8\xa7\xe9\x95\xbf:35\t\xe6\x80\xbb\xe5\xb8\xa7\xe9\x95\xbf:35\n'
p78
sa(dp79
g2
S'8343'
p80
sg4
L1449721833142L
sg5
g6
sg7
S'SocketService'
p81
sg9
S' 8361'
p82
sg11
S'success to connect server!id:725 bLogin:false\n'
p83
sa(dp84
g2
S'8318'
p85
sg4
L1449721833162L
sg5
g6
sg7
S'OpenGLRenderer'
p86
sg9
S' 8318'
p87
sg11
S'Enabling debug mode 0\n'
p88
sa(dp89
g2
S'8343'
p90
sg4
L1449721833272L
sg5
g6
sg7
S'ForegroundActivity'
p91
sg9
S' 8362'
p92
sg11
S'\xe6\x9c\xac\xe6\xac\xa1\xe6\x94\xb6\xe5\x88\xb0\xe5\xb8\xa7\xe9\x95\xbf:13\t\xe6\x80\xbb\xe5\xb8\xa7\xe9\x95\xbf:13\n'
p93
sa(dp94
g2
S'8343'
p95
sg4
L1449721834093L
sg5
g6
sg7
S'SocketService1'
p96
sg9
S' 8359'
p97
sg11
S'\xe6\x9c\xac\xe6\xac\xa1\xe6\x8f\x90\xe5\x8f\x961:LoadPtr:13 HeadIndex:0 GetSize:13 13 0 \xe5\xa4\xb4\xe4\xbf\xa1\xe6\x81\xaf:EB 90 EB 90 EB 90 0D 00 0E 01 \n'
p98
sa(dp99
g2
S'8343'
p100
sg4
L1449721834143L
sg5
g6
sg7
S'ForegroundActivity'
p101
sg9
S' 8361'
p102
sg11
S'\xe6\x9c\xac\xe6\xac\xa1\xe5\x8f\x91\xe9\x80\x81\xe5\xb8\xa7\xe9\x95\xbf:11\t\xe6\x80\xbb\xe5\xb8\xa7\xe9\x95\xbf:46\n'
p103
sa(dp104
g2
S'8343'
p105
sg4
L1449721834243L
sg5
g6
sg7
S'ForegroundActivity'
p106
sg9
S' 8362'
p107
sg11
S'\xe6\x9c\xac\xe6\xac\xa1\xe6\x94\xb6\xe5\x88\xb0\xe5\xb8\xa7\xe9\x95\xbf:642\t\xe6\x80\xbb\xe5\xb8\xa7\xe9\x95\xbf:655\n'
p108
sa(dp109
g2
S'8343'
p110
sg4
L1449721835114L
sg5
g6
sg7
S'SocketService1'
p111
sg9
S' 8359'
p112
sg11
S'\xe6\x9c\xac\xe6\xac\xa1\xe6\x8f\x90\xe5\x8f\x961:LoadPtr:655 HeadIndex:13 GetSize:642 130 512 \xe5\xa4\xb4\xe4\xbf\xa1\xe6\x81\xaf:EB 90 EB 90 EB 90 82 02 14 0A \n'
p113
sa(dp114
g2
S'8343'
p115
sg4
L1449721835144L
sg5
g6
sg7
S'ForegroundActivity'
p116
sg9
S' 8361'
p117
sg11
S'\xe6\x9c\xac\xe6\xac\xa1\xe5\x8f\x91\xe9\x80\x81\xe5\xb8\xa7\xe9\x95\xbf:11\t\xe6\x80\xbb\xe5\xb8\xa7\xe9\x95\xbf:57\n'
p118
sa(dp119
g2
S'8343'
p120
sg4
L1449721835224L
sg5
g6
sg7
S'ForegroundActivity'
p121
sg9
S' 8362'
p122
sg11
S'\xe6\x9c\xac\xe6\xac\xa1\xe6\x94\xb6\xe5\x88\xb0\xe5\xb8\xa7\xe9\x95\xbf:67\t\xe6\x80\xbb\xe5\xb8\xa7\xe9\x95\xbf:722\n'
p123
sa(dp124
g2
S'8318'
p125
sg4
L1449721835284L
sg5
g6
sg7
S'AbsListView'
p126
sg9
S' 8318'
p127
sg11
S'Get MotionRecognitionManager\n'
p128
sa(dp129
g2
S'8318'
p130
sg4
L1449721835324L
sg5
g6
sg7
S'AbsListView'
p131
sg9
S' 8318'
p132
sg11
S'Get MotionRecognitionManager\n'
p133
sa(dp134
g2
S'8318'
p135
sg4
L1449721835354L
sg5
g6
sg7
S'AbsListView'
p136
sg9
S' 8318'
p137
sg11
S'Get MotionRecognitionManager\n'
p138
sa(dp139
g2
S'8318'
p140
sg4
L1449721835394L
sg5
g6
sg7
S'MainActivity'
p141
sg9
S' 8318'
p142
sg11
S'Start One Client\n'
p143
sa(dp144
g2
S'8318'
p145
sg4
L1449721835544L
sg5
g6
sg7
S'AbsListView'
p146
sg9
S' 8318'
p147
sg11
S'unregisterIRListener() is called \n'
p148
sa(dp149
g2
S'8318'
p150
sg4
L1449721835744L
sg5
g6
sg7
S'dalvikvm'
p151
sg9
S' 8322'
p152
sg11
S'GC_CONCURRENT freed 4834K, 13% free 55731K/63880K, paused 2ms+3ms, total 25ms\n'
p153
sa(dp154
g2
S'8318'
p155
sg4
L1449721835744L
sg5
g6
sg7
S'dalvikvm'
p156
sg9
S' 8318'
p157
sg11
S'WAIT_FOR_CONCURRENT_GC blocked 19ms\n'
p158
sa(dp159
g2
S'8318'
p160
sg4
L1449721835794L
sg5
g6
sg7
S'AbsListView'
p161
sg9
S' 8318'
p162
sg11
S'unregisterIRListener() is called \n'
p163
sa(dp164
g2
S'8318'
p165
sg4
L1449721835804L
sg5
g6
sg7
S'AbsListView'
p166
sg9
S' 8318'
p167
sg11
S'unregisterIRListener() is called \n'
p168
sa(dp169
g2
S'8318'
p170
sg4
L1449721835914L
sg5
g6
sg7
S'AbsListView'
p171
sg9
S' 8318'
p172
sg11
S'unregisterIRListener() is called \n'
p173
sa(dp174
g2
S'8318'
p175
sg4
L1449721835954L
sg5
g6
sg7
S'AbsListView'
p176
sg9
S' 8318'
p177
sg11
S'unregisterIRListener() is called \n'
p178
sa(dp179
g2
S'8318'
p180
sg4
L1449721836084L
sg5
g6
sg7
S'AbsListView'
p181
sg9
S' 8318'
p182
sg11
S'unregisterIRListener() is called \n'
p183
sa(dp184
g2
S'8343'
p185
sg4
L1449721836175L
sg5
g6
sg7
S'SocketService1'
p186
sg9
S' 8359'
p187
sg11
S'\xe6\x9c\xac\xe6\xac\xa1\xe6\x8f\x90\xe5\x8f\x961:LoadPtr:722 HeadIndex:655 GetSize:67 67 0 \xe5\xa4\xb4\xe4\xbf\xa1\xe6\x81\xaf:EB 90 EB 90 EB 90 43 00 15 02 \n'
p188
sa(dp189
g2
S'8318'
p190
sg4
L1449721836185L
sg5
g6
sg7
S'MainActivity'
p191
sg9
S' 8318'
p192
sg11
S'ServerVersion:23 LocalVersion:12\n'
p193
sa(dp194
g2
S'8318'
p195
sg4
L1449721836465L
sg5
g6
sg7
S'AbsListView'
p196
sg9
S' 8318'
p197
sg11
S'unregisterIRListener() is called \n'
p198
sa(dp199
g2
S'8318'
p200
sg4
L1449721836475L
sg5
g6
sg7
S'AbsListView'
p201
sg9
S' 8318'
p202
sg11
S'unregisterIRListener() is called \n'
p203
sa(dp204
g2
S'8318'
p205
sg4
L1449721837786L
sg5
g6
sg7
S'AbsListView'
p206
sg9
S' 8318'
p207
sg11
S'unregisterIRListener() is called \n'
p208
sa(dp209
g2
S'8318'
p210
sg4
L1449721837786L
sg5
S'E'
p211
sg7
S'ViewRootImpl'
p212
sg9
S' 8318'
p213
sg11
S'sendUserActionEvent() mView == null\n'
p214
sa(dp215
g2
S'8318'
p216
sg4
L1449721839258L
sg5
g6
sg7
S'dalvikvm'
p217
sg9
S' 8318'
p218
sg11
S'GC_FOR_ALLOC freed 1336K, 10% free 57542K/63880K, paused 26ms, total 27ms\n'
p219
sa(dp220
g2
S'8318'
p221
sg4
L1449721839278L
sg5
g20
sg7
S'dalvikvm-heap'
p222
sg9
S' 8318'
p223
sg11
S'Grow heap (frag case) to 67.836MB for 8294416-byte allocation\n'
p224
sa(dp225
g2
S'8318'
p226
sg4
L1449721839308L
sg5
g6
sg7
S'dalvikvm'
p227
sg9
S' 8322'
p228
sg11
S'GC_CONCURRENT freed 43K, 9% free 65600K/71984K, paused 2ms+4ms, total 25ms\n'
p229
sa(dp230
g2
S'8318'
p231
sg4
L1449721839348L
sg5
g6
sg7
S'dalvikvm'
p232
sg9
S' 8318'
p233
sg11
S'GC_FOR_ALLOC freed 1K, 9% free 65599K/71984K, paused 23ms, total 23ms\n'
p234
sa(dp235
g2
S'8318'
p236
sg4
L1449721839358L
sg5
g20
sg7
S'dalvikvm-heap'
p237
sg9
S' 8318'
p238
sg11
S'Grow heap (frag case) to 77.205MB for 8294416-byte allocation\n'
p239
sa(dp240
g2
S'8318'
p241
sg4
L1449721839388L
sg5
g6
sg7
S'dalvikvm'
p242
sg9
S' 8322'
p243
sg11
S'GC_CONCURRENT freed 8102K, 19% free 65605K/80088K, paused 3ms+4ms, total 28ms\n'
p244
sa(dp245
g2
S'8318'
p246
sg4
L1449721839648L
sg5
g6
sg7
S'cn.edu.nju.ise.kikandroid'
p247
sg9
S' 8369'
p248
sg11
S'Screenshot:1449721839195\n'
p249
sa(dp250
g2
S'8318'
p251
sg4
L1449721839978L
sg5
g6
sg7
S'MainActivity'
p252
sg9
S' 8318'
p253
sg11
S'V.getTag:null v.id:2131230738\n'
p254
sa(dp255
g2
S'8318'
p256
sg4
L1449721839978L
sg5
g6
sg7
S'AbsListView'
p257
sg9
S' 8318'
p258
sg11
S'unregisterIRListener() is called \n'
p259
sa(dp260
g2
S'8318'
p261
sg4
L1449721840038L
sg5
g6
sg7
S'AbsListView'
p262
sg9
S' 8318'
p263
sg11
S'unregisterIRListener() is called \n'
p264
sa(dp265
g2
S'8318'
p266
sg4
L1449721840108L
sg5
S'V'
p267
sg7
S'RenderScript'
p268
sg9
S' 8318'
p269
sg11
S'0x75d49010 Launching thread(s), CPUs 4\n'
p270
sa(dp271
g2
S'8318'
p272
sg4
L1449721840379L
sg5
g6
sg7
S'AbsListView'
p273
sg9
S' 8318'
p274
sg11
S'onDetachedFromWindow\n'
p275
sa(dp276
g2
S'8318'
p277
sg4
L1449721840379L
sg5
g6
sg7
S'AbsListView'
p278
sg9
S' 8318'
p279
sg11
S'unregisterIRListener() is called \n'
p280
sa(dp281
g2
S'8318'
p282
sg4
L1449721842070L
sg5
g6
sg7
S'dalvikvm'
p283
sg9
S' 8318'
p284
sg11
S'GC_FOR_ALLOC freed 8568K, 10% free 57708K/63880K, paused 29ms, total 29ms\n'
p285
sa(dp286
g2
S'8318'
p287
sg4
L1449721842090L
sg5
g20
sg7
S'dalvikvm-heap'
p288
sg9
S' 8318'
p289
sg11
S'Grow heap (frag case) to 67.999MB for 8294416-byte allocation\n'
p290
sa(dp291
g2
S'8318'
p292
sg4
L1449721842110L
sg5
g6
sg7
S'dalvikvm'
p293
sg9
S' 8322'
p294
sg11
S'GC_CONCURRENT freed 262K, 9% free 65547K/71984K, paused 2ms+3ms, total 27ms\n'
p295
sa(dp296
g2
S'8318'
p297
sg4
L1449721842140L
sg5
g6
sg7
S'dalvikvm'
p298
sg9
S' 8318'
p299
sg11
S'GC_FOR_ALLOC freed <1K, 9% free 65547K/71984K, paused 23ms, total 23ms\n'
p300
sa(dp301
g2
S'8318'
p302
sg4
L1449721842160L
sg5
g20
sg7
S'dalvikvm-heap'
p303
sg9
S' 8318'
p304
sg11
S'Grow heap (frag case) to 77.153MB for 8294416-byte allocation\n'
p305
sa(dp306
g2
S'8318'
p307
sg4
L1449721842190L
sg5
g6
sg7
S'dalvikvm'
p308
sg9
S' 8322'
p309
sg11
S'GC_CONCURRENT freed 8101K, 19% free 65551K/80088K, paused 2ms+6ms, total 35ms\n'
p310
sa(dp311
g2
S'8318'
p312
sg4
L1449721842331L
sg5
g6
sg7
S'cn.edu.nju.ise.kikandroid'
p313
sg9
S' 8369'
p314
sg11
S'Screenshot:1449721841966\n'
p315
sa(dp316
g2
S'8318'
p317
sg4
L1449721842601L
sg5
g6
sg7
S'MainActivity'
p318
sg9
S' 8318'
p319
sg11
S'V.getTag:null v.id:2131230790\n'
p320
sa(dp321
g2
S'8318'
p322
sg4
L1449721842601L
sg5
g6
sg7
S'AbsListView'
p323
sg9
S' 8318'
p324
sg11
S'unregisterIRListener() is called \n'
p325
sa(dp326
g2
S'8318'
p327
sg4
L1449721843241L
sg5
g6
sg7
S'MainActivity'
p328
sg9
S' 8318'
p329
sg11
S'V.getTag:null v.id:2131230790\n'
p330
sa(dp331
g2
S'8318'
p332
sg4
L1449721843241L
sg5
g6
sg7
S'AbsListView'
p333
sg9
S' 8318'
p334
sg11
S'unregisterIRListener() is called \n'
p335
sa(dp336
g2
S'8318'
p337
sg4
L1449721843732L
sg5
g6
sg7
S'MainActivity'
p338
sg9
S' 8318'
p339
sg11
S'V.getTag:null v.id:2131230790\n'
p340
sa(dp341
g2
S'8318'
p342
sg4
L1449721843742L
sg5
g6
sg7
S'AbsListView'
p343
sg9
S' 8318'
p344
sg11
S'unregisterIRListener() is called \n'
p345
sa(dp346
g2
S'8318'
p347
sg4
L1449721844463L
sg5
g6
sg7
S'MainActivity'
p348
sg9
S' 8318'
p349
sg11
S'V.getTag:null v.id:2131230790\n'
p350
sa(dp351
g2
S'8318'
p352
sg4
L1449721844473L
sg5
g6
sg7
S'AbsListView'
p353
sg9
S' 8318'
p354
sg11
S'unregisterIRListener() is called \n'
p355
sa(dp356
g2
S'8318'
p357
sg4
L1449721844773L
sg5
g6
sg7
S'MainActivity'
p358
sg9
S' 8318'
p359
sg11
S'V.getTag:null v.id:2131230791\n'
p360
sa(dp361
g2
S'8318'
p362
sg4
L1449721844843L
sg5
g6
sg7
S'AbsListView'
p363
sg9
S' 8318'
p364
sg11
S'Get MotionRecognitionManager\n'
p365
sa(dp366
g2
S'8318'
p367
sg4
L1449721844873L
sg5
g6
sg7
S'AbsListView'
p368
sg9
S' 8318'
p369
sg11
S'onVisibilityChanged() is called, visibility : 8\n'
p370
sa(dp371
g2
S'8318'
p372
sg4
L1449721844873L
sg5
g6
sg7
S'AbsListView'
p373
sg9
S' 8318'
p374
sg11
S'unregisterIRListener() is called \n'
p375
sa(dp376
g2
S'8318'
p377
sg4
L1449721844953L
sg5
g6
sg7
S'AbsListView'
p378
sg9
S' 8318'
p379
sg11
S'unregisterIRListener() is called \n'
p380
sa(dp381
g2
S'8318'
p382
sg4
L1449721845033L
sg5
g6
sg7
S'AbsListView'
p383
sg9
S' 8318'
p384
sg11
S'unregisterIRListener() is called \n'
p385
sa(dp386
g2
S'8318'
p387
sg4
L1449721845113L
sg5
g6
sg7
S'AbsListView'
p388
sg9
S' 8318'
p389
sg11
S'unregisterIRListener() is called \n'
p390
sa(dp391
g2
S'8318'
p392
sg4
L1449721847766L
sg5
g6
sg7
S'MainActivity'
p393
sg9
S' 8318'
p394
sg11
S'logList.size2():0 com.example.myfristandroid.myListView{431b8950 V.ED.VC. ......ID 15,15-1047,15 #7f08003c app:id/id_lv_logView}\n'
p395
sa(dp396
g2
S'8318'
p397
sg4
L1449721847766L
sg5
g6
sg7
S'MainActivity'
p398
sg9
S' 8318'
p399
sg11
S'MainActivity Send BroadCast Length:22\n'
p400
sa(dp401
g2
S'8318'
p402
sg4
L1449721847766L
sg5
g6
sg7
S'AbsListView'
p403
sg9
S' 8318'
p404
sg11
S'onDetachedFromWindow\n'
p405
sa(dp406
g2
S'8343'
p407
sg4
L1449721847766L
sg5
g6
sg7
S'ForegroundActivity'
p408
sg9
S' 8343'
p409
sg11
S'\xe6\x9c\xac\xe6\xac\xa1\xe5\x8f\x91\xe9\x80\x81\xe5\xb8\xa7\xe9\x95\xbf:22\t\xe6\x80\xbb\xe5\xb8\xa7\xe9\x95\xbf:79\n'
p410
sa(dp411
g2
S'8318'
p412
sg4
L1449721847766L
sg5
g6
sg7
S'AbsListView'
p413
sg9
S' 8318'
p414
sg11
S'unregisterIRListener() is called \n'
p415
sa(dp416
g2
S'8318'
p417
sg4
L1449721847776L
sg5
g6
sg7
S'AbsListView'
p418
sg9
S' 8318'
p419
sg11
S'unregisterIRListener() is called \n'
p420
sa(dp421
g2
S'8318'
p422
sg4
L1449721847796L
sg5
g211
sg7
S'ViewRootImpl'
p423
sg9
S' 8318'
p424
sg11
S'sendUserActionEvent() mView == null\n'
p425
sa(dp426
g2
S'8343'
p427
sg4
L1449721847906L
sg5
g6
sg7
S'ForegroundActivity'
p428
sg9
S' 8362'
p429
sg11
S'\xe6\x9c\xac\xe6\xac\xa1\xe6\x94\xb6\xe5\x88\xb0\xe5\xb8\xa7\xe9\x95\xbf:17\t\xe6\x80\xbb\xe5\xb8\xa7\xe9\x95\xbf:739\n'
p430
sa(dp431
g2
S'8343'
p432
sg4
L1449721848206L
sg5
g6
sg7
S'SocketService1'
p433
sg9
S' 8359'
p434
sg11
S'\xe6\x9c\xac\xe6\xac\xa1\xe6\x8f\x90\xe5\x8f\x961:LoadPtr:739 HeadIndex:722 GetSize:17 17 0 \xe5\xa4\xb4\xe4\xbf\xa1\xe6\x81\xaf:EB 90 EB 90 EB 90 11 00 0D 01 \n'
p435
sa(dp436
g2
S'8318'
p437
sg4
L1449721849197L
sg5
g6
sg7
S'dalvikvm'
p438
sg9
S' 8318'
p439
sg11
S'GC_FOR_ALLOC freed 8791K, 10% free 57810K/63880K, paused 33ms, total 33ms\n'
p440
sa(dp441
g2
S'8318'
p442
sg4
L1449721849217L
sg5
g20
sg7
S'dalvikvm-heap'
p443
sg9
S' 8318'
p444
sg11
S'Grow heap (frag case) to 68.097MB for 8294416-byte allocation\n'
p445
sa(dp446
g2
S'8318'
p447
sg4
L1449721849247L
sg5
g6
sg7
S'dalvikvm'
p448
sg9
S' 8322'
p449
sg11
S'GC_CONCURRENT freed 35K, 9% free 65876K/71984K, paused 3ms+4ms, total 26ms\n'
p450
sa(dp451
g2
S'8318'
p452
sg4
L1449721849247L
sg5
g6
sg7
S'dalvikvm'
p453
sg9
S' 8318'
p454
sg11
S'WAIT_FOR_CONCURRENT_GC blocked 2ms\n'
p455
sa(dp456
g2
S'8318'
p457
sg4
L1449721849267L
sg5
g20
sg7
S'dalvikvm-heap'
p458
sg9
S' 8318'
p459
sg11
S'Grow heap (frag case) to 75.974MB for 8294416-byte allocation\n'
p460
sa(dp461
g2
S'8318'
p462
sg4
L1449721849297L
sg5
g6
sg7
S'dalvikvm'
p463
sg9
S' 8322'
p464
sg11
S'GC_CONCURRENT freed 8101K, 18% free 65880K/80088K, paused 3ms+5ms, total 28ms\n'
p465
sa(dp466
g2
S'8318'
p467
sg4
L1449721849457L
sg5
g6
sg7
S'cn.edu.nju.ise.kikandroid'
p468
sg9
S' 8369'
p469
sg11
S'Screenshot:1449721849130\n'
p470
sa(dp471
g2
S'8318'
p472
sg4
L1449721851650L
sg5
g6
sg7
S'cn.edu.nju.ise.kikandroid'
p473
sg9
S' 8369'
p474
sg11
S'Log:1449721851652\n'
p475
sa(dp476
g2
S'8318'
p477
sg4
L1449721854422L
sg5
g6
sg7
S'cn.edu.nju.ise.kikandroid'
p478
sg9
S' 8369'
p479
sg11
S'Log:1449721854438\n'
p480
sa(dp481
g2
S'8318'
p482
sg4
L1449721854532L
sg5
g6
sg7
S'dalvikvm'
p483
sg9
S' 8318'
p484
sg11
S'GC_FOR_ALLOC freed 8288K, 10% free 57780K/63880K, paused 33ms, total 33ms\n'
p485
sa(dp486
g2
S'8318'
p487
sg4
L1449721854552L
sg5
g20
sg7
S'dalvikvm-heap'
p488
sg9
S' 8318'
p489
sg11
S'Grow heap (frag case) to 68.068MB for 8294416-byte allocation\n'
p490
sa(dp491
g2
S'8318'
p492
sg4
L1449721854593L
sg5
g6
sg7
S'dalvikvm'
p493
sg9
S' 8322'
p494
sg11
S'GC_CONCURRENT freed 3K, 9% free 65878K/71984K, paused 3ms+4ms, total 44ms\n'
p495
sa(dp496
g2
S'8318'
p497
sg4
L1449721854593L
sg5
g6
sg7
S'dalvikvm'
p498
sg9
S' 8318'
p499
sg11
S'WAIT_FOR_CONCURRENT_GC blocked 13ms\n'
p500
sa(dp501
g2
S'8318'
p502
sg4
L1449721854613L
sg5
g20
sg7
S'dalvikvm-heap'
p503
sg9
S' 8318'
p504
sg11
S'Grow heap (frag case) to 75.976MB for 8294416-byte allocation\n'
p505
sa(dp506
g2
S'8318'
p507
sg4
L1449721854643L
sg5
g6
sg7
S'dalvikvm'
p508
sg9
S' 8322'
p509
sg11
S'GC_CONCURRENT freed 8101K, 18% free 65883K/80088K, paused 2ms+4ms, total 28ms\n'
p510
sa(dp511
g2
S'8318'
p512
sg4
L1449721854813L
sg5
g6
sg7
S'cn.edu.nju.ise.kikandroid'
p513
sg9
S' 8369'
p514
sg11
S'Screenshot:1449721854481\n'
p515
sa(dp516
g2
S'8318'
p517
sg4
L1449721854813L
sg5
S'W'
p518
sg7
S'dalvikvm'
p519
sg9
S' 8369'
p520
sg11
S'threadid=14: thread exiting with uncaught exception (group=0x41938898)\n'
p521
sa(dp522
g2
S'8318'
p523
sg4
L1449721854813L
sg5
g211
sg7
S'AndroidRuntime'
p524
sg9
S' 8369'
p525
sg11
S'FATAL EXCEPTION: Thread-720\njava.lang.NullPointerException\n\tat android.app.Instrumentation.finish(Instrumentation.java:195)\n\tat cn.edu.nju.ise.kikandroid.AUTInstrument.quitInstr(AUTInstrument.java:195)\n\tat cn.edu.nju.ise.kikandroid.AUTInstrument.startServer(AUTInstrument.java:161)\n\tat cn.edu.nju.ise.kikandroid.AUTInstrument$1.run(AUTInstrument.java:107)\n\tat java.lang.Thread.run(Thread.java:841)\n'
p526
sa(dp527
g2
S'9017'
p528
sg4
L1449721916383L
sg5
g6
sg7
S'dalvikvm'
p529
sg9
S' 9017'
p530
sg11
S'Late-enabling CheckJNI\n'
p531
sa(dp532
g2
S'9017'
p533
sg4
L1449721916873L
sg5
g6
sg7
S'dalvikvm'
p534
sg9
S' 9017'
p535
sg11
S'GC_FOR_ALLOC freed 73K, 30% free 18317K/25956K, paused 36ms, total 36ms\n'
p536
sa(dp537
g2
S'9017'
p538
sg4
L1449721916943L
sg5
g20
sg7
S'dalvikvm-heap'
p539
sg9
S' 9017'
p540
sg11
S'Grow heap (frag case) to 56.389MB for 34885888-byte allocation\n'
p541
sa(dp542
g2
S'9017'
p543
sg4
L1449721916963L
sg5
g6
sg7
S'dalvikvm'
p544
sg9
S' 9021'
p545
sg11
S'GC_CONCURRENT freed <1K, 13% free 52385K/60028K, paused 2ms+2ms, total 20ms\n'
p546
sa(dp547
g2
S'9043'
p548
sg4
L1449721917043L
sg5
g6
sg7
S'dalvikvm'
p549
sg9
S' 9043'
p550
sg11
S'Late-enabling CheckJNI\n'
p551
sa(dp552
g2
S'9017'
p553
sg4
L1449721917093L
sg5
g6
sg7
S'libEGL  '
p554
sg9
S' 9017'
p555
sg11
S'loaded /vendor/lib/egl/libEGL_adreno.so\n'
p556
sa(dp557
g2
S'9017'
p558
sg4
L1449721917093L
sg5
g6
sg7
S'libEGL  '
p559
sg9
S' 9017'
p560
sg11
S'loaded /vendor/lib/egl/libGLESv1_CM_adreno.so\n'
p561
sa(dp562
g2
S'9017'
p563
sg4
L1449721917103L
sg5
g6
sg7
S'libEGL  '
p564
sg9
S' 9017'
p565
sg11
S'loaded /vendor/lib/egl/libGLESv2_adreno.so\n'
p566
sa(dp567
g2
S'9017'
p568
sg4
L1449721917114L
sg5
g20
sg7
S'Adreno-EGL'
p569
sg9
S' 9017'
p570
sg11
S'<qeglDrvAPI_eglInitialize:316>: EGL 1.4 QUALCOMM build:  (CL4169980)\nOpenGL ES Shader Compiler Version: 17.01.10.SPL\nBuild Date: 09/26/13 Thu\nLocal Branch: \nRemote Branch: \nLocal Patches: \nReconstruct Branch: \n'
p571
sa(dp572
g2
S'9043'
p573
sg4
L1449721917124L
sg5
g6
sg7
S'SocketService'
p574
sg9
S' 9043'
p575
sg11
S'onStartCommand : bLogin:false\n'
p576
sa(dp577
g2
S'9043'
p578
sg4
L1449721917124L
sg5
g6
sg7
S'SocketService'
p579
sg9
S' 9043'
p580
sg11
S'pid:9043 myPid:9043\n'
p581
sa(dp582
g2
S'9043'
p583
sg4
L1449721917124L
sg5
g6
sg7
S'SocketService'
p584
sg9
S' 9043'
p585
sg11
S'start to run current thread!id:737\n'
p586
sa(dp587
g2
S'9017'
p588
sg4
L1449721917154L
sg5
g6
sg7
S'OpenGLRenderer'
p589
sg9
S' 9017'
p590
sg11
S'Enabling debug mode 0\n'
p591
sa(dp592
g2
S'9043'
p593
sg4
L1449721917164L
sg5
g6
sg7
S'SocketService'
p594
sg9
S' 9061'
p595
sg11
S'ip/192.168.155.2 lport:41740 p:143\n'
p596
sa(dp597
g2
S'9043'
p598
sg4
L1449721917174L
sg5
g6
sg7
S'ForegroundActivity'
p599
sg9
S' 9061'
p600
sg11
S'\xe6\x9c\xac\xe6\xac\xa1\xe5\x8f\x91\xe9\x80\x81\xe5\xb8\xa7\xe9\x95\xbf:35\t\xe6\x80\xbb\xe5\xb8\xa7\xe9\x95\xbf:35\n'
p601
sa(dp602
g2
S'9043'
p603
sg4
L1449721917174L
sg5
g6
sg7
S'SocketService'
p604
sg9
S' 9061'
p605
sg11
S'success to connect server!id:737 bLogin:false\n'
p606
sa(dp607
g2
S'9043'
p608
sg4
L1449721917244L
sg5
g6
sg7
S'ForegroundActivity'
p609
sg9
S' 9065'
p610
sg11
S'\xe6\x9c\xac\xe6\xac\xa1\xe6\x94\xb6\xe5\x88\xb0\xe5\xb8\xa7\xe9\x95\xbf:13\t\xe6\x80\xbb\xe5\xb8\xa7\xe9\x95\xbf:13\n'
p611
sa(dp612
g2
S'9043'
p613
sg4
L1449721918124L
sg5
g6
sg7
S'SocketService1'
p614
sg9
S' 9059'
p615
sg11
S'\xe6\x9c\xac\xe6\xac\xa1\xe6\x8f\x90\xe5\x8f\x961:LoadPtr:13 HeadIndex:0 GetSize:13 13 0 \xe5\xa4\xb4\xe4\xbf\xa1\xe6\x81\xaf:EB 90 EB 90 EB 90 0D 00 0E 01 \n'
p616
sa(dp617
g2
S'9043'
p618
sg4
L1449721918175L
sg5
g6
sg7
S'ForegroundActivity'
p619
sg9
S' 9061'
p620
sg11
S'\xe6\x9c\xac\xe6\xac\xa1\xe5\x8f\x91\xe9\x80\x81\xe5\xb8\xa7\xe9\x95\xbf:11\t\xe6\x80\xbb\xe5\xb8\xa7\xe9\x95\xbf:46\n'
p621
sa(dp622
g2
S'9043'
p623
sg4
L1449721918225L
sg5
g6
sg7
S'ForegroundActivity'
p624
sg9
S' 9065'
p625
sg11
S'\xe6\x9c\xac\xe6\xac\xa1\xe6\x94\xb6\xe5\x88\xb0\xe5\xb8\xa7\xe9\x95\xbf:642\t\xe6\x80\xbb\xe5\xb8\xa7\xe9\x95\xbf:655\n'
p626
sa(dp627
g2
S'9043'
p628
sg4
L1449721919145L
sg5
g6
sg7
S'SocketService1'
p629
sg9
S' 9059'
p630
sg11
S'\xe6\x9c\xac\xe6\xac\xa1\xe6\x8f\x90\xe5\x8f\x961:LoadPtr:655 HeadIndex:13 GetSize:642 130 512 \xe5\xa4\xb4\xe4\xbf\xa1\xe6\x81\xaf:EB 90 EB 90 EB 90 82 02 14 0A \n'
p631
sa(dp632
g2
S'9043'
p633
sg4
L1449721919176L
sg5
g6
sg7
S'ForegroundActivity'
p634
sg9
S' 9061'
p635
sg11
S'\xe6\x9c\xac\xe6\xac\xa1\xe5\x8f\x91\xe9\x80\x81\xe5\xb8\xa7\xe9\x95\xbf:11\t\xe6\x80\xbb\xe5\xb8\xa7\xe9\x95\xbf:57\n'
p636
sa(dp637
g2
S'9043'
p638
sg4
L1449721919316L
sg5
g6
sg7
S'ForegroundActivity'
p639
sg9
S' 9065'
p640
sg11
S'\xe6\x9c\xac\xe6\xac\xa1\xe6\x94\xb6\xe5\x88\xb0\xe5\xb8\xa7\xe9\x95\xbf:67\t\xe6\x80\xbb\xe5\xb8\xa7\xe9\x95\xbf:722\n'
p641
sa(dp642
g2
S'9017'
p643
sg4
L1449721919336L
sg5
g6
sg7
S'AbsListView'
p644
sg9
S' 9017'
p645
sg11
S'Get MotionRecognitionManager\n'
p646
sa(dp647
g2
S'9017'
p648
sg4
L1449721919366L
sg5
g6
sg7
S'AbsListView'
p649
sg9
S' 9017'
p650
sg11
S'Get MotionRecognitionManager\n'
p651
sa(dp652
g2
S'9017'
p653
sg4
L1449721919386L
sg5
g6
sg7
S'AbsListView'
p654
sg9
S' 9017'
p655
sg11
S'Get MotionRecognitionManager\n'
p656
sa(dp657
g2
S'9017'
p658
sg4
L1449721919436L
sg5
g6
sg7
S'MainActivity'
p659
sg9
S' 9017'
p660
sg11
S'Start One Client\n'
p661
sa(dp662
g2
S'9017'
p663
sg4
L1449721919506L
sg5
g6
sg7
S'AbsListView'
p664
sg9
S' 9017'
p665
sg11
S'unregisterIRListener() is called \n'
p666
sa(dp667
g2
S'9017'
p668
sg4
L1449721919636L
sg5
g6
sg7
S'dalvikvm'
p669
sg9
S' 9021'
p670
sg11
S'GC_CONCURRENT freed 4836K, 13% free 55733K/63884K, paused 3ms+4ms, total 27ms\n'
p671
sa(dp672
g2
S'9017'
p673
sg4
L1449721919636L
sg5
g6
sg7
S'dalvikvm'
p674
sg9
S' 9017'
p675
sg11
S'WAIT_FOR_CONCURRENT_GC blocked 13ms\n'
p676
sa(dp677
g2
S'9017'
p678
sg4
L1449721919676L
sg5
g6
sg7
S'AbsListView'
p679
sg9
S' 9017'
p680
sg11
S'unregisterIRListener() is called \n'
p681
sa(dp682
g2
S'9017'
p683
sg4
L1449721919686L
sg5
g6
sg7
S'AbsListView'
p684
sg9
S' 9017'
p685
sg11
S'unregisterIRListener() is called \n'
p686
sa(dp687
g2
S'9017'
p688
sg4
L1449721919796L
sg5
g6
sg7
S'AbsListView'
p689
sg9
S' 9017'
p690
sg11
S'unregisterIRListener() is called \n'
p691
sa(dp692
g2
S'9017'
p693
sg4
L1449721919806L
sg5
g6
sg7
S'AbsListView'
p694
sg9
S' 9017'
p695
sg11
S'unregisterIRListener() is called \n'
p696
sa(dp697
g2
S'9017'
p698
sg4
L1449721919826L
sg5
g6
sg7
S'AbsListView'
p699
sg9
S' 9017'
p700
sg11
S'unregisterIRListener() is called \n'
p701
sa(dp702
g2
S'9017'
p703
sg4
L1449721919996L
sg5
g6
sg7
S'AbsListView'
p704
sg9
S' 9017'
p705
sg11
S'unregisterIRListener() is called \n'
p706
sa(dp707
g2
S'9043'
p708
sg4
L1449721920257L
sg5
g6
sg7
S'SocketService1'
p709
sg9
S' 9059'
p710
sg11
S'\xe6\x9c\xac\xe6\xac\xa1\xe6\x8f\x90\xe5\x8f\x961:LoadPtr:722 HeadIndex:655 GetSize:67 67 0 \xe5\xa4\xb4\xe4\xbf\xa1\xe6\x81\xaf:EB 90 EB 90 EB 90 43 00 15 02 \n'
p711
sa(dp712
g2
S'9017'
p713
sg4
L1449721920257L
sg5
g6
sg7
S'MainActivity'
p714
sg9
S' 9017'
p715
sg11
S'ServerVersion:23 LocalVersion:12\n'
p716
sa(dp717
g2
S'9017'
p718
sg4
L1449721920397L
sg5
g6
sg7
S'AbsListView'
p719
sg9
S' 9017'
p720
sg11
S'unregisterIRListener() is called \n'
p721
sa(dp722
g2
S'9017'
p723
sg4
L1449721921478L
sg5
g6
sg7
S'AbsListView'
p724
sg9
S' 9017'
p725
sg11
S'unregisterIRListener() is called \n'
p726
sa(dp727
g2
S'9017'
p728
sg4
L1449721921478L
sg5
g211
sg7
S'ViewRootImpl'
p729
sg9
S' 9017'
p730
sg11
S'sendUserActionEvent() mView == null\n'
p731
sa(dp732
g2
S'9017'
p733
sg4
L1449721922639L
sg5
g6
sg7
S'dalvikvm'
p734
sg9
S' 9017'
p735
sg11
S'GC_FOR_ALLOC freed 1350K, 10% free 57544K/63884K, paused 23ms, total 24ms\n'
p736
sa(dp737
g2
S'9017'
p738
sg4
L1449721922659L
sg5
g20
sg7
S'dalvikvm-heap'
p739
sg9
S' 9017'
p740
sg11
S'Grow heap (frag case) to 67.837MB for 8294416-byte allocation\n'
p741
sa(dp742
g2
S'9017'
p743
sg4
L1449721922699L
sg5
g6
sg7
S'dalvikvm'
p744
sg9
S' 9021'
p745
sg11
S'GC_CONCURRENT freed 45K, 9% free 65600K/71988K, paused 3ms+8ms, total 39ms\n'
p746
sa(dp747
g2
S'9017'
p748
sg4
L1449721922729L
sg5
g6
sg7
S'dalvikvm'
p749
sg9
S' 9017'
p750
sg11
S'GC_FOR_ALLOC freed 1K, 9% free 65599K/71988K, paused 24ms, total 24ms\n'
p751
sa(dp752
g2
S'9017'
p753
sg4
L1449721922749L
sg5
g20
sg7
S'dalvikvm-heap'
p754
sg9
S' 9017'
p755
sg11
S'Grow heap (frag case) to 77.204MB for 8294416-byte allocation\n'
p756
sa(dp757
g2
S'9017'
p758
sg4
L1449721922769L
sg5
g6
sg7
S'dalvikvm'
p759
sg9
S' 9021'
p760
sg11
S'GC_CONCURRENT freed 8102K, 19% free 65605K/80092K, paused 3ms+3ms, total 26ms\n'
p761
sa(dp762
g2
S'9017'
p763
sg4
L1449721922999L
sg5
g6
sg7
S'cn.edu.nju.ise.kikandroid'
p764
sg9
S' 9076'
p765
sg11
S'Screenshot:1449721922579\n'
p766
sa(dp767
g2
S'9017'
p768
sg4
L1449721923660L
sg5
g20
sg7
S'webclipboard'
p769
sg9
S' 9017'
p770
sg11
S'clipservice: android.sec.clipboard.ClipboardExManager@432475b8\n'
p771
sa(dp772
g2
S'9017'
p773
sg4
L1449721923720L
sg5
g6
sg7
S'WebView '
p774
sg9
S' 9017'
p775
sg11
S'loadUrlImpl: called\n'
p776
sa(dp777
g2
S'9017'
p778
sg4
L1449721923730L
sg5
g6
sg7
S'StrictMode'
p779
sg9
S' 9017'
p780
sg11
S'StrictMode policy violation; ~duration=100 ms: android.os.StrictMode$StrictModeDiskReadViolation: policy=23 violation=2\n\tat android.os.StrictMode$AndroidBlockGuardPolicy.onReadFromDisk(StrictMode.java:1134)\n\tat libcore.io.BlockGuardOs.open(BlockGuardOs.java:106)\n\tat libcore.io.IoBridge.open(IoBridge.java:393)\n\tat java.io.FileInputStream.<init>(FileInputStream.java:78)\n\tat android.graphics.Typeface.getFullFlipFont(Typeface.java:523)\n\tat android.graphics.Typeface.getFontPathFlipFont(Typeface.java:470)\n\tat android.graphics.Typeface.SetFlipFonts(Typeface.java:560)\n\tat android.graphics.Typeface.SetAppTypeFace(Typeface.java:691)\n\tat android.app.Activity.onCreate(Activity.java:912)\n\tat com.example.myfristandroid.graphWebShow.onCreate(graphWebShow.java:40)\n\tat android.app.Activity.performCreate(Activity.java:5372)\n\tat android.app.Instrumentation.callActivityOnCreate(Instrumentation.java:1104)\n\tat android.app.ActivityThread.performLaunchActivity(ActivityThread.java:2257)\n\tat android.app.ActivityThread.handleLaunchActivity(ActivityThread.java:2349)\n\tat android.app.ActivityThread.access$700(ActivityThread.java:159)\n\tat android.app.ActivityThread$H.handleMessage(ActivityThread.java:1316)\n\tat android.os.Handler.dispatchMessage(Handler.java:99)\n\tat android.os.Looper.loop(Looper.java:137)\n\tat android.app.ActivityThread.main(ActivityThread.java:5419)\n\tat java.lang.reflect.Method.invokeNative(Native Method)\n\tat java.lang.reflect.Method.invoke(Method.java:525)\n\tat com.android.internal.os.ZygoteInit$MethodAndArgsCaller.run(ZygoteInit.java:1187)\n\tat com.android.internal.os.ZygoteInit.main(ZygoteInit.java:1003)\n\tat dalvik.system.NativeStart.main(Native Method)\n'
p781
sa(dp782
g2
S'9017'
p783
sg4
L1449721923730L
sg5
g6
sg7
S'AbsListView'
p784
sg9
S' 9017'
p785
sg11
S'unregisterIRListener() is called \n'
p786
sa(dp787
g2
S'9017'
p788
sg4
L1449721923760L
sg5
g267
sg7
S'webkit  '
p789
sg9
S' 9115'
p790
sg11
S'BrowserFrame constructor: this=Handler (android.webkit.BrowserFrame) {431473d0}\n'
p791
sa(dp792
g2
S'9017'
p793
sg4
L1449721923760L
sg5
g6
sg7
S'webcore '
p794
sg9
S' 9115'
p795
sg11
S' CORE loadUrl: called\n'
p796
sa(dp797
g2
S'9017'
p798
sg4
L1449721923760L
sg5
g6
sg7
S'webkit  '
p799
sg9
S' 9115'
p800
sg11
S'Firewall not null\n'
p801
sa(dp802
g2
S'9017'
p803
sg4
L1449721923760L
sg5
g6
sg7
S'webkit  '
p804
sg9
S' 9115'
p805
sg11
S'euler: isUrlBlocked = false\n'
p806
sa(dp807
g2
S'9017'
p808
sg4
L1449721923790L
sg5
g6
sg7
S'WebView '
p809
sg9
S' 9017'
p810
sg11
S'onSizeChanged - w:1080 h:1710\n'
p811
sa(dp812
g2
S'9017'
p813
sg4
L1449721923960L
sg5
g6
sg7
S'AbsListView'
p814
sg9
S' 9017'
p815
sg11
S'onVisibilityChanged() is called, visibility : 4\n'
p816
sa(dp817
g2
S'9017'
p818
sg4
L1449721923960L
sg5
g6
sg7
S'AbsListView'
p819
sg9
S' 9017'
p820
sg11
S'unregisterIRListener() is called \n'
p821
sa(dp822
g2
S'9017'
p823
sg4
L1449721925412L
sg5
g211
sg7
S'Web Console'
p824
sg9
S' 9017'
p825
sg11
S"Uncaught TypeError: Object [object Object] has no method 'startWait':80\n"
p826
sa(dp827
g2
S'9017'
p828
sg4
L1449721925422L
sg5
g20
sg7
S'GATE    '
p829
sg9
S' 9115'
p830
sg11
S'<GATE-M>DEV_ACTION_COMPLETED</GATE-M>\n'
p831
sa(dp832
g2
S'9017'
p833
sg4
L1449721925432L
sg5
g6
sg7
S'TilesManager'
p834
sg9
S' 9017'
p835
sg11
S'Starting TG #0, 0x760c21a8\n'
p836
sa(dp837
g2
S'9017'
p838
sg4
L1449721925432L
sg5
g6
sg7
S'TilesManager'
p839
sg9
S' 9017'
p840
sg11
S'new EGLContext from framework: 75d47828 \n'
p841
sa(dp842
g2
S'9017'
p843
sg4
L1449721925432L
sg5
g6
sg7
S'GLWebViewState'
p844
sg9
S' 9017'
p845
sg11
S'Reinit shader\n'
p846
sa(dp847
g2
S'9017'
p848
sg4
L1449721925472L
sg5
g6
sg7
S'GLWebViewState'
p849
sg9
S' 9017'
p850
sg11
S'Reinit transferQueue\n'
p851
sa(dp852
g2
S'9017'
p853
sg4
L1449721927153L
sg5
g6
sg7
S'dalvikvm'
p854
sg9
S' 9017'
p855
sg11
S'GC_FOR_ALLOC freed 8392K, 10% free 57878K/63884K, paused 46ms, total 47ms\n'
p856
sa(dp857
g2
S'9017'
p858
sg4
L1449721927173L
sg5
g20
sg7
S'dalvikvm-heap'
p859
sg9
S' 9017'
p860
sg11
S'Grow heap (frag case) to 68.165MB for 8294416-byte allocation\n'
p861
sa(dp862
g2
S'9017'
p863
sg4
L1449721927203L
sg5
g6
sg7
S'dalvikvm'
p864
sg9
S' 9021'
p865
sg11
S'GC_CONCURRENT freed 3K, 9% free 65975K/71988K, paused 3ms+3ms, total 28ms\n'
p866
sa(dp867
g2
S'9017'
p868
sg4
L1449721927203L
sg5
g6
sg7
S'dalvikvm'
p869
sg9
S' 9017'
p870
sg11
S'WAIT_FOR_CONCURRENT_GC blocked 1ms\n'
p871
sa(dp872
g2
S'9017'
p873
sg4
L1449721927223L
sg5
g20
sg7
S'dalvikvm-heap'
p874
sg9
S' 9017'
p875
sg11
S'Grow heap (frag case) to 76.071MB for 8294416-byte allocation\n'
p876
sa(dp877
g2
S'9017'
p878
sg4
L1449721927263L
sg5
g6
sg7
S'dalvikvm'
p879
sg9
S' 9021'
p880
sg11
S'GC_CONCURRENT freed 8101K, 18% free 65980K/80092K, paused 3ms+7ms, total 36ms\n'
p881
sa(dp882
g2
S'9017'
p883
sg4
L1449721927464L
sg5
g6
sg7
S'cn.edu.nju.ise.kikandroid'
p884
sg9
S' 9076'
p885
sg11
S'Screenshot:1449721927114\n'
p886
sa(dp887
g2
S'9017'
p888
sg4
L1449721928134L
sg5
g6
sg7
S'AbsListView'
p889
sg9
S' 9017'
p890
sg11
S'onVisibilityChanged() is called, visibility : 0\n'
p891
sa(dp892
g2
S'9017'
p893
sg4
L1449721928134L
sg5
g6
sg7
S'AbsListView'
p894
sg9
S' 9017'
p895
sg11
S'unregisterIRListener() is called \n'
p896
sa(dp897
g2
S'9017'
p898
sg4
L1449721928144L
sg5
g6
sg7
S'AbsListView'
p899
sg9
S' 9017'
p900
sg11
S'unregisterIRListener() is called \n'
p901
sa(dp902
g2
S'9017'
p903
sg4
L1449721929005L
sg5
g20
sg7
S'webclipboard'
p904
sg9
S' 9017'
p905
sg11
S'clipservice: android.sec.clipboard.ClipboardExManager@431c66b0\n'
p906
sa(dp907
g2
S'9017'
p908
sg4
L1449721929005L
sg5
g267
sg7
S'webkit  '
p909
sg9
S' 9115'
p910
sg11
S'BrowserFrame constructor: this=Handler (android.webkit.BrowserFrame) {431c62f0}\n'
p911
sa(dp912
g2
S'9017'
p913
sg4
L1449721929015L
sg5
g6
sg7
S'WebView '
p914
sg9
S' 9017'
p915
sg11
S'loadUrlImpl: called\n'
p916
sa(dp917
g2
S'9017'
p918
sg4
L1449721929015L
sg5
g6
sg7
S'webcore '
p919
sg9
S' 9115'
p920
sg11
S' CORE loadUrl: called\n'
p921
sa(dp922
g2
S'9017'
p923
sg4
L1449721929015L
sg5
g6
sg7
S'webkit  '
p924
sg9
S' 9115'
p925
sg11
S'Firewall not null\n'
p926
sa(dp927
g2
S'9017'
p928
sg4
L1449721929015L
sg5
g6
sg7
S'webkit  '
p929
sg9
S' 9115'
p930
sg11
S'euler: isUrlBlocked = false\n'
p931
sa(dp932
g2
S'9017'
p933
sg4
L1449721929035L
sg5
g6
sg7
S'StrictMode'
p934
sg9
S' 9017'
p935
sg11
S'StrictMode policy violation; ~duration=46 ms: android.os.StrictMode$StrictModeDiskReadViolation: policy=23 violation=2\n\tat android.os.StrictMode$AndroidBlockGuardPolicy.onReadFromDisk(StrictMode.java:1134)\n\tat libcore.io.BlockGuardOs.open(BlockGuardOs.java:106)\n\tat libcore.io.IoBridge.open(IoBridge.java:393)\n\tat java.io.FileInputStream.<init>(FileInputStream.java:78)\n\tat android.graphics.Typeface.getFullFlipFont(Typeface.java:523)\n\tat android.graphics.Typeface.getFontPathFlipFont(Typeface.java:470)\n\tat android.graphics.Typeface.SetFlipFonts(Typeface.java:560)\n\tat android.graphics.Typeface.SetAppTypeFace(Typeface.java:691)\n\tat android.app.Activity.onCreate(Activity.java:912)\n\tat com.example.myfristandroid.graphWebShow.onCreate(graphWebShow.java:40)\n\tat android.app.Activity.performCreate(Activity.java:5372)\n\tat android.app.Instrumentation.callActivityOnCreate(Instrumentation.java:1104)\n\tat android.app.ActivityThread.performLaunchActivity(ActivityThread.java:2257)\n\tat android.app.ActivityThread.handleLaunchActivity(ActivityThread.java:2349)\n\tat android.app.ActivityThread.access$700(ActivityThread.java:159)\n\tat android.app.ActivityThread$H.handleMessage(ActivityThread.java:1316)\n\tat android.os.Handler.dispatchMessage(Handler.java:99)\n\tat android.os.Looper.loop(Looper.java:137)\n\tat android.app.ActivityThread.main(ActivityThread.java:5419)\n\tat java.lang.reflect.Method.invokeNative(Native Method)\n\tat java.lang.reflect.Method.invoke(Method.java:525)\n\tat com.android.internal.os.ZygoteInit$MethodAndArgsCaller.run(ZygoteInit.java:1187)\n\tat com.android.internal.os.ZygoteInit.main(ZygoteInit.java:1003)\n\tat dalvik.system.NativeStart.main(Native Method)\n'
p936
sa(dp937
g2
S'9017'
p938
sg4
L1449721929035L
sg5
g6
sg7
S'AbsListView'
p939
sg9
S' 9017'
p940
sg11
S'unregisterIRListener() is called \n'
p941
sa(dp942
g2
S'9017'
p943
sg4
L1449721929075L
sg5
g6
sg7
S'WebView '
p944
sg9
S' 9017'
p945
sg11
S'onSizeChanged - w:1080 h:1710\n'
p946
sa(dp947
g2
S'9017'
p948
sg4
L1449721929225L
sg5
g6
sg7
S'AbsListView'
p949
sg9
S' 9017'
p950
sg11
S'onVisibilityChanged() is called, visibility : 4\n'
p951
sa(dp952
g2
S'9017'
p953
sg4
L1449721929225L
sg5
g6
sg7
S'AbsListView'
p954
sg9
S' 9017'
p955
sg11
S'unregisterIRListener() is called \n'
p956
sa(dp957
g2
S'9017'
p958
sg4
L1449721931077L
sg5
g6
sg7
S'MainActivity'
p959
sg9
S' 9115'
p960
sg11
S'h:910.5,w:1687.5\n'
p961
sa(dp962
g2
S'9017'
p963
sg4
L1449721931177L
sg5
g6
sg7
S'StrictMode'
p964
sg9
S' 9017'
p965
sg11
S'StrictMode policy violation; ~duration=7 ms: android.os.StrictMode$StrictModeDiskReadViolation: policy=23 violation=2\n\tat android.os.StrictMode$AndroidBlockGuardPolicy.onReadFromDisk(StrictMode.java:1134)\n\tat libcore.io.BlockGuardOs.open(BlockGuardOs.java:106)\n\tat libcore.io.IoBridge.open(IoBridge.java:393)\n\tat java.io.FileInputStream.<init>(FileInputStream.java:78)\n\tat android.graphics.Typeface.getFullFlipFont(Typeface.java:523)\n\tat android.graphics.Typeface.getFontPathFlipFont(Typeface.java:470)\n\tat android.graphics.Typeface.SetFlipFonts(Typeface.java:560)\n\tat android.graphics.Typeface.SetAppTypeFace(Typeface.java:691)\n\tat android.app.Application.onConfigurationChanged(Application.java:118)\n\tat android.app.ActivityThread.performConfigurationChanged(ActivityThread.java:4009)\n\tat android.app.ActivityThread.performConfigurationChanged(ActivityThread.java:3968)\n\tat android.app.ActivityThread.handleConfigurationChanged(ActivityThread.java:4190)\n\tat android.app.ActivityThread$H.handleMessage(ActivityThread.java:1436)\n\tat android.os.Handler.dispatchMessage(Handler.java:99)\n\tat android.os.Looper.loop(Looper.java:137)\n\tat android.app.ActivityThread.main(ActivityThread.java:5419)\n\tat java.lang.reflect.Method.invokeNative(Native Method)\n\tat java.lang.reflect.Method.invoke(Method.java:525)\n\tat com.android.internal.os.ZygoteInit$MethodAndArgsCaller.run(ZygoteInit.java:1187)\n\tat com.android.internal.os.ZygoteInit.main(ZygoteInit.java:1003)\n\tat dalvik.system.NativeStart.main(Native Method)\n'
p966
sa(dp967
g2
S'9017'
p968
sg4
L1449721931177L
sg5
g6
sg7
S'StrictMode'
p969
sg9
S' 9017'
p970
sg11
S'StrictMode policy violation; ~duration=5 ms: android.os.StrictMode$StrictModeDiskReadViolation: policy=23 violation=2\n\tat android.os.StrictMode$AndroidBlockGuardPolicy.onReadFromDisk(StrictMode.java:1134)\n\tat libcore.io.BlockGuardOs.open(BlockGuardOs.java:106)\n\tat libcore.io.IoBridge.open(IoBridge.java:393)\n\tat java.io.FileInputStream.<init>(FileInputStream.java:78)\n\tat android.graphics.Typeface.getFullFlipFont(Typeface.java:523)\n\tat android.graphics.Typeface.getFontPathFlipFont(Typeface.java:470)\n\tat android.graphics.Typeface.SetFlipFonts(Typeface.java:560)\n\tat android.graphics.Typeface.SetAppTypeFace(Typeface.java:691)\n\tat android.app.Activity.onConfigurationChanged(Activity.java:1524)\n\tat com.example.myfristandroid.graphWebShow.onConfigurationChanged(graphWebShow.java:165)\n\tat android.app.ActivityThread.performConfigurationChanged(ActivityThread.java:4009)\n\tat android.app.ActivityThread.performConfigurationChanged(ActivityThread.java:3968)\n\tat android.app.ActivityThread.handleConfigurationChanged(ActivityThread.java:4190)\n\tat android.app.ActivityThread$H.handleMessage(ActivityThread.java:1436)\n\tat android.os.Handler.dispatchMessage(Handler.java:99)\n\tat android.os.Looper.loop(Looper.java:137)\n\tat android.app.ActivityThread.main(ActivityThread.java:5419)\n\tat java.lang.reflect.Method.invokeNative(Native Method)\n\tat java.lang.reflect.Method.invoke(Method.java:525)\n\tat com.android.internal.os.ZygoteInit$MethodAndArgsCaller.run(ZygoteInit.java:1187)\n\tat com.android.internal.os.ZygoteInit.main(ZygoteInit.java:1003)\n\tat dalvik.system.NativeStart.main(Native Method)\n'
p971
sa(dp972
g2
S'9017'
p973
sg4
L1449721931327L
sg5
g6
sg7
S'WebView '
p974
sg9
S' 9017'
p975
sg11
S'onSizeChanged - w:1080 h:1845\n'
p976
sa(dp977
g2
S'9017'
p978
sg4
L1449721931427L
sg5
g20
sg7
S'GATE    '
p979
sg9
S' 9115'
p980
sg11
S'<GATE-M>DEV_ACTION_COMPLETED</GATE-M>\n'
p981
sa(dp982
g2
S'9017'
p983
sg4
L1449721931808L
sg5
g6
sg7
S'WebView '
p984
sg9
S' 9017'
p985
sg11
S'onSizeChanged - w:1920 h:1005\n'
p986
sa(dp987
g2
S'9017'
p988
sg4
L1449721934901L
sg5
g6
sg7
S'dalvikvm'
p989
sg9
S' 9017'
p990
sg11
S'GC_FOR_ALLOC freed 8558K, 10% free 57960K/63884K, paused 55ms, total 56ms\n'
p991
sa(dp992
g2
S'9017'
p993
sg4
L1449721934921L
sg5
g20
sg7
S'dalvikvm-heap'
p994
sg9
S' 9017'
p995
sg11
S'Grow heap (frag case) to 68.244MB for 8294416-byte allocation\n'
p996
sa(dp997
g2
S'9017'
p998
sg4
L1449721934961L
sg5
g6
sg7
S'dalvikvm'
p999
sg9
S' 9021'
p1000
sg11
S'GC_CONCURRENT freed 16K, 9% free 66043K/71988K, paused 3ms+6ms, total 34ms\n'
p1001
sa(dp1002
g2
S'9017'
p1003
sg4
L1449721934991L
sg5
g6
sg7
S'dalvikvm'
p1004
sg9
S' 9017'
p1005
sg11
S'GC_FOR_ALLOC freed <1K, 9% free 66043K/71988K, paused 24ms, total 24ms\n'
p1006
sa(dp1007
g2
S'9017'
p1008
sg4
L1449721935001L
sg5
g20
sg7
S'dalvikvm-heap'
p1009
sg9
S' 9017'
p1010
sg11
S'Grow heap (frag case) to 77.638MB for 8294416-byte allocation\n'
p1011
sa(dp1012
g2
S'9017'
p1013
sg4
L1449721935031L
sg5
g6
sg7
S'dalvikvm'
p1014
sg9
S' 9021'
p1015
sg11
S'GC_CONCURRENT freed 8101K, 18% free 66048K/80092K, paused 3ms+5ms, total 31ms\n'
p1016
sa(dp1017
g2
S'9017'
p1018
sg4
L1449721935341L
sg5
g6
sg7
S'cn.edu.nju.ise.kikandroid'
p1019
sg9
S' 9076'
p1020
sg11
S'Screenshot:1449721934836\n'
p1021
sa(dp1022
g2
S'9017'
p1023
sg4
L1449721936352L
sg5
g6
sg7
S'StrictMode'
p1024
sg9
S' 9017'
p1025
sg11
S'StrictMode policy violation; ~duration=1 ms: android.os.StrictMode$StrictModeDiskReadViolation: policy=23 violation=2\n\tat android.os.StrictMode$AndroidBlockGuardPolicy.onReadFromDisk(StrictMode.java:1134)\n\tat libcore.io.BlockGuardOs.open(BlockGuardOs.java:106)\n\tat libcore.io.IoBridge.open(IoBridge.java:393)\n\tat java.io.FileInputStream.<init>(FileInputStream.java:78)\n\tat android.graphics.Typeface.getFullFlipFont(Typeface.java:523)\n\tat android.graphics.Typeface.getFontPathFlipFont(Typeface.java:470)\n\tat android.graphics.Typeface.SetFlipFonts(Typeface.java:560)\n\tat android.graphics.Typeface.SetAppTypeFace(Typeface.java:691)\n\tat android.app.Application.onConfigurationChanged(Application.java:118)\n\tat android.app.ActivityThread.performConfigurationChanged(ActivityThread.java:4009)\n\tat android.app.ActivityThread.performConfigurationChanged(ActivityThread.java:3968)\n\tat android.app.ActivityThread.handleConfigurationChanged(ActivityThread.java:4190)\n\tat android.app.ActivityThread$H.handleMessage(ActivityThread.java:1436)\n\tat android.os.Handler.dispatchMessage(Handler.java:99)\n\tat android.os.Looper.loop(Looper.java:137)\n\tat android.app.ActivityThread.main(ActivityThread.java:5419)\n\tat java.lang.reflect.Method.invokeNative(Native Method)\n\tat java.lang.reflect.Method.invoke(Method.java:525)\n\tat com.android.internal.os.ZygoteInit$MethodAndArgsCaller.run(ZygoteInit.java:1187)\n\tat com.android.internal.os.ZygoteInit.main(ZygoteInit.java:1003)\n\tat dalvik.system.NativeStart.main(Native Method)\n'
p1026
sa(dp1027
g2
S'9017'
p1028
sg4
L1449721936352L
sg5
g6
sg7
S'AbsListView'
p1029
sg9
S' 9017'
p1030
sg11
S'onVisibilityChanged() is called, visibility : 0\n'
p1031
sa(dp1032
g2
S'9017'
p1033
sg4
L1449721936352L
sg5
g6
sg7
S'AbsListView'
p1034
sg9
S' 9017'
p1035
sg11
S'unregisterIRListener() is called \n'
p1036
sa(dp1037
g2
S'9017'
p1038
sg4
L1449721936392L
sg5
g6
sg7
S'AbsListView'
p1039
sg9
S' 9017'
p1040
sg11
S'unregisterIRListener() is called \n'
p1041
sa(dp1042
g2
S'9017'
p1043
sg4
L1449721937704L
sg5
g20
sg7
S'webclipboard'
p1044
sg9
S' 9017'
p1045
sg11
S'clipservice: android.sec.clipboard.ClipboardExManager@43159e90\n'
p1046
sa(dp1047
g2
S'9017'
p1048
sg4
L1449721937704L
sg5
g267
sg7
S'webkit  '
p1049
sg9
S' 9115'
p1050
sg11
S'BrowserFrame constructor: this=Handler (android.webkit.BrowserFrame) {4312b9f8}\n'
p1051
sa(dp1052
g2
S'9017'
p1053
sg4
L1449721937714L
sg5
g6
sg7
S'WebView '
p1054
sg9
S' 9017'
p1055
sg11
S'loadUrlImpl: called\n'
p1056
sa(dp1057
g2
S'9017'
p1058
sg4
L1449721937714L
sg5
g6
sg7
S'webcore '
p1059
sg9
S' 9115'
p1060
sg11
S' CORE loadUrl: called\n'
p1061
sa(dp1062
g2
S'9017'
p1063
sg4
L1449721937714L
sg5
g6
sg7
S'webkit  '
p1064
sg9
S' 9115'
p1065
sg11
S'Firewall not null\n'
p1066
sa(dp1067
g2
S'9017'
p1068
sg4
L1449721937714L
sg5
g6
sg7
S'webkit  '
p1069
sg9
S' 9115'
p1070
sg11
S'euler: isUrlBlocked = false\n'
p1071
sa(dp1072
g2
S'9017'
p1073
sg4
L1449721937724L
sg5
g6
sg7
S'StrictMode'
p1074
sg9
S' 9017'
p1075
sg11
S'StrictMode policy violation; ~duration=31 ms: android.os.StrictMode$StrictModeDiskReadViolation: policy=23 violation=2\n\tat android.os.StrictMode$AndroidBlockGuardPolicy.onReadFromDisk(StrictMode.java:1134)\n\tat libcore.io.BlockGuardOs.open(BlockGuardOs.java:106)\n\tat libcore.io.IoBridge.open(IoBridge.java:393)\n\tat java.io.FileInputStream.<init>(FileInputStream.java:78)\n\tat android.graphics.Typeface.getFullFlipFont(Typeface.java:523)\n\tat android.graphics.Typeface.getFontPathFlipFont(Typeface.java:470)\n\tat android.graphics.Typeface.SetFlipFonts(Typeface.java:560)\n\tat android.graphics.Typeface.SetAppTypeFace(Typeface.java:691)\n\tat android.app.Activity.onCreate(Activity.java:912)\n\tat com.example.myfristandroid.graphWebShow.onCreate(graphWebShow.java:40)\n\tat android.app.Activity.performCreate(Activity.java:5372)\n\tat android.app.Instrumentation.callActivityOnCreate(Instrumentation.java:1104)\n\tat android.app.ActivityThread.performLaunchActivity(ActivityThread.java:2257)\n\tat android.app.ActivityThread.handleLaunchActivity(ActivityThread.java:2349)\n\tat android.app.ActivityThread.access$700(ActivityThread.java:159)\n\tat android.app.ActivityThread$H.handleMessage(ActivityThread.java:1316)\n\tat android.os.Handler.dispatchMessage(Handler.java:99)\n\tat android.os.Looper.loop(Looper.java:137)\n\tat android.app.ActivityThread.main(ActivityThread.java:5419)\n\tat java.lang.reflect.Method.invokeNative(Native Method)\n\tat java.lang.reflect.Method.invoke(Method.java:525)\n\tat com.android.internal.os.ZygoteInit$MethodAndArgsCaller.run(ZygoteInit.java:1187)\n\tat com.android.internal.os.ZygoteInit.main(ZygoteInit.java:1003)\n\tat dalvik.system.NativeStart.main(Native Method)\n'
p1076
sa(dp1077
g2
S'9017'
p1078
sg4
L1449721937724L
sg5
g6
sg7
S'AbsListView'
p1079
sg9
S' 9017'
p1080
sg11
S'unregisterIRListener() is called \n'
p1081
sa(dp1082
g2
S'9017'
p1083
sg4
L1449721937754L
sg5
g6
sg7
S'WebView '
p1084
sg9
S' 9017'
p1085
sg11
S'onSizeChanged - w:1080 h:1710\n'
p1086
sa(dp1087
g2
S'9017'
p1088
sg4
L1449721937914L
sg5
g6
sg7
S'AbsListView'
p1089
sg9
S' 9017'
p1090
sg11
S'onVisibilityChanged() is called, visibility : 4\n'
p1091
sa(dp1092
g2
S'9017'
p1093
sg4
L1449721937914L
sg5
g6
sg7
S'AbsListView'
p1094
sg9
S' 9017'
p1095
sg11
S'unregisterIRListener() is called \n'
p1096
sa(dp1097
g2
S'9017'
p1098
sg4
L1449721938494L
sg5
g6
sg7
S'MainActivity'
p1099
sg9
S' 9115'
p1100
sg11
S'h:774.256,w:1432\n'
p1101
sa(dp1102
g2
S'9017'
p1103
sg4
L1449721938604L
sg5
g6
sg7
S'StrictMode'
p1104
sg9
S' 9017'
p1105
sg11
S'StrictMode policy violation; ~duration=14 ms: android.os.StrictMode$StrictModeDiskReadViolation: policy=23 violation=2\n\tat android.os.StrictMode$AndroidBlockGuardPolicy.onReadFromDisk(StrictMode.java:1134)\n\tat libcore.io.BlockGuardOs.open(BlockGuardOs.java:106)\n\tat libcore.io.IoBridge.open(IoBridge.java:393)\n\tat java.io.FileInputStream.<init>(FileInputStream.java:78)\n\tat android.graphics.Typeface.getFullFlipFont(Typeface.java:523)\n\tat android.graphics.Typeface.getFontPathFlipFont(Typeface.java:470)\n\tat android.graphics.Typeface.SetFlipFonts(Typeface.java:560)\n\tat android.graphics.Typeface.SetAppTypeFace(Typeface.java:691)\n\tat android.app.Application.onConfigurationChanged(Application.java:118)\n\tat android.app.ActivityThread.performConfigurationChanged(ActivityThread.java:4009)\n\tat android.app.ActivityThread.performConfigurationChanged(ActivityThread.java:3968)\n\tat android.app.ActivityThread.handleConfigurationChanged(ActivityThread.java:4190)\n\tat android.app.ActivityThread$H.handleMessage(ActivityThread.java:1436)\n\tat android.os.Handler.dispatchMessage(Handler.java:99)\n\tat android.os.Looper.loop(Looper.java:137)\n\tat android.app.ActivityThread.main(ActivityThread.java:5419)\n\tat java.lang.reflect.Method.invokeNative(Native Method)\n\tat java.lang.reflect.Method.invoke(Method.java:525)\n\tat com.android.internal.os.ZygoteInit$MethodAndArgsCaller.run(ZygoteInit.java:1187)\n\tat com.android.internal.os.ZygoteInit.main(ZygoteInit.java:1003)\n\tat dalvik.system.NativeStart.main(Native Method)\n'
p1106
sa(dp1107
g2
S'9017'
p1108
sg4
L1449721938604L
sg5
g6
sg7
S'StrictMode'
p1109
sg9
S' 9017'
p1110
sg11
S'StrictMode policy violation; ~duration=12 ms: android.os.StrictMode$StrictModeDiskReadViolation: policy=23 violation=2\n\tat android.os.StrictMode$AndroidBlockGuardPolicy.onReadFromDisk(StrictMode.java:1134)\n\tat libcore.io.BlockGuardOs.open(BlockGuardOs.java:106)\n\tat libcore.io.IoBridge.open(IoBridge.java:393)\n\tat java.io.FileInputStream.<init>(FileInputStream.java:78)\n\tat android.graphics.Typeface.getFullFlipFont(Typeface.java:523)\n\tat android.graphics.Typeface.getFontPathFlipFont(Typeface.java:470)\n\tat android.graphics.Typeface.SetFlipFonts(Typeface.java:560)\n\tat android.graphics.Typeface.SetAppTypeFace(Typeface.java:691)\n\tat android.app.Activity.onConfigurationChanged(Activity.java:1524)\n\tat com.example.myfristandroid.graphWebShow.onConfigurationChanged(graphWebShow.java:165)\n\tat android.app.ActivityThread.performConfigurationChanged(ActivityThread.java:4009)\n\tat android.app.ActivityThread.performConfigurationChanged(ActivityThread.java:3968)\n\tat android.app.ActivityThread.handleConfigurationChanged(ActivityThread.java:4190)\n\tat android.app.ActivityThread$H.handleMessage(ActivityThread.java:1436)\n\tat android.os.Handler.dispatchMessage(Handler.java:99)\n\tat android.os.Looper.loop(Looper.java:137)\n\tat android.app.ActivityThread.main(ActivityThread.java:5419)\n\tat java.lang.reflect.Method.invokeNative(Native Method)\n\tat java.lang.reflect.Method.invoke(Method.java:525)\n\tat com.android.internal.os.ZygoteInit$MethodAndArgsCaller.run(ZygoteInit.java:1187)\n\tat com.android.internal.os.ZygoteInit.main(ZygoteInit.java:1003)\n\tat dalvik.system.NativeStart.main(Native Method)\n'
p1111
sa(dp1112
g2
S'9017'
p1113
sg4
L1449721938665L
sg5
g6
sg7
S'WebView '
p1114
sg9
S' 9017'
p1115
sg11
S'onSizeChanged - w:1080 h:1845\n'
p1116
sa(dp1117
g2
S'9017'
p1118
sg4
L1449721938735L
sg5
g6
sg7
S'WebView '
p1119
sg9
S' 9017'
p1120
sg11
S'onSizeChanged - w:1920 h:1005\n'
p1121
sa(dp1122
g2
S'9017'
p1123
sg4
L1449721939125L
sg5
g20
sg7
S'GATE    '
p1124
sg9
S' 9115'
p1125
sg11
S'<GATE-M>DEV_ACTION_COMPLETED</GATE-M>\n'
p1126
sa(dp1127
g2
S'9017'
p1128
sg4
L1449721941808L
sg5
g6
sg7
S'dalvikvm'
p1129
sg9
S' 9017'
p1130
sg11
S'GC_FOR_ALLOC freed 8497K, 10% free 58011K/63884K, paused 41ms, total 42ms\n'
p1131
sa(dp1132
g2
S'9017'
p1133
sg4
L1449721941828L
sg5
g20
sg7
S'dalvikvm-heap'
p1134
sg9
S' 9017'
p1135
sg11
S'Grow heap (frag case) to 68.293MB for 8294416-byte allocation\n'
p1136
sa(dp1137
g2
S'9017'
p1138
sg4
L1449721941868L
sg5
g6
sg7
S'dalvikvm'
p1139
sg9
S' 9021'
p1140
sg11
S'GC_CONCURRENT freed 16K, 9% free 66095K/71988K, paused 3ms+5ms, total 41ms\n'
p1141
sa(dp1142
g2
S'9017'
p1143
sg4
L1449721941908L
sg5
g6
sg7
S'dalvikvm'
p1144
sg9
S' 9017'
p1145
sg11
S'GC_FOR_ALLOC freed <1K, 9% free 66094K/71988K, paused 21ms, total 21ms\n'
p1146
sa(dp1147
g2
S'9017'
p1148
sg4
L1449721941928L
sg5
g20
sg7
S'dalvikvm-heap'
p1149
sg9
S' 9017'
p1150
sg11
S'Grow heap (frag case) to 77.688MB for 8294416-byte allocation\n'
p1151
sa(dp1152
g2
S'9017'
p1153
sg4
L1449721941968L
sg5
g6
sg7
S'dalvikvm'
p1154
sg9
S' 9021'
p1155
sg11
S'GC_CONCURRENT freed 8101K, 18% free 66099K/80092K, paused 1ms+7ms, total 41ms\n'
p1156
sa(dp1157
g2
S'9017'
p1158
sg4
L1449721942138L
sg5
g6
sg7
S'cn.edu.nju.ise.kikandroid'
p1159
sg9
S' 9076'
p1160
sg11
S'Screenshot:1449721941767\n'
p1161
sa(dp1162
g2
S'9017'
p1163
sg4
L1449721942969L
sg5
g6
sg7
S'StrictMode'
p1164
sg9
S' 9017'
p1165
sg11
S'StrictMode policy violation; ~duration=0 ms: android.os.StrictMode$StrictModeDiskReadViolation: policy=23 violation=2\n\tat android.os.StrictMode$AndroidBlockGuardPolicy.onReadFromDisk(StrictMode.java:1134)\n\tat libcore.io.BlockGuardOs.open(BlockGuardOs.java:106)\n\tat libcore.io.IoBridge.open(IoBridge.java:393)\n\tat java.io.FileInputStream.<init>(FileInputStream.java:78)\n\tat android.graphics.Typeface.getFullFlipFont(Typeface.java:523)\n\tat android.graphics.Typeface.getFontPathFlipFont(Typeface.java:470)\n\tat android.graphics.Typeface.SetFlipFonts(Typeface.java:560)\n\tat android.graphics.Typeface.SetAppTypeFace(Typeface.java:691)\n\tat android.app.Application.onConfigurationChanged(Application.java:118)\n\tat android.app.ActivityThread.performConfigurationChanged(ActivityThread.java:4009)\n\tat android.app.ActivityThread.performConfigurationChanged(ActivityThread.java:3968)\n\tat android.app.ActivityThread.handleConfigurationChanged(ActivityThread.java:4190)\n\tat android.app.ActivityThread$H.handleMessage(ActivityThread.java:1436)\n\tat android.os.Handler.dispatchMessage(Handler.java:99)\n\tat android.os.Looper.loop(Looper.java:137)\n\tat android.app.ActivityThread.main(ActivityThread.java:5419)\n\tat java.lang.reflect.Method.invokeNative(Native Method)\n\tat java.lang.reflect.Method.invoke(Method.java:525)\n\tat com.android.internal.os.ZygoteInit$MethodAndArgsCaller.run(ZygoteInit.java:1187)\n\tat com.android.internal.os.ZygoteInit.main(ZygoteInit.java:1003)\n\tat dalvik.system.NativeStart.main(Native Method)\n'
p1166
sa(dp1167
g2
S'9017'
p1168
sg4
L1449721942979L
sg5
g6
sg7
S'AbsListView'
p1169
sg9
S' 9017'
p1170
sg11
S'onVisibilityChanged() is called, visibility : 0\n'
p1171
sa(dp1172
g2
S'9017'
p1173
sg4
L1449721942979L
sg5
g6
sg7
S'AbsListView'
p1174
sg9
S' 9017'
p1175
sg11
S'unregisterIRListener() is called \n'
p1176
sa(dp1177
g2
S'9017'
p1178
sg4
L1449721943009L
sg5
g6
sg7
S'AbsListView'
p1179
sg9
S' 9017'
p1180
sg11
S'unregisterIRListener() is called \n'
p1181
sa(dp1182
g2
S'9017'
p1183
sg4
L1449721944941L
sg5
g267
sg7
S'webkit  '
p1184
sg9
S' 9115'
p1185
sg11
S'BrowserFrame constructor: this=Handler (android.webkit.BrowserFrame) {432266b0}\n'
p1186
sa(dp1187
g2
S'9017'
p1188
sg4
L1449721944941L
sg5
g20
sg7
S'webclipboard'
p1189
sg9
S' 9017'
p1190
sg11
S'clipservice: android.sec.clipboard.ClipboardExManager@43226de8\n'
p1191
sa(dp1192
g2
S'9017'
p1193
sg4
L1449721944961L
sg5
g6
sg7
S'WebView '
p1194
sg9
S' 9017'
p1195
sg11
S'loadUrlImpl: called\n'
p1196
sa(dp1197
g2
S'9017'
p1198
sg4
L1449721944961L
sg5
g6
sg7
S'webcore '
p1199
sg9
S' 9115'
p1200
sg11
S' CORE loadUrl: called\n'
p1201
sa(dp1202
g2
S'9017'
p1203
sg4
L1449721944961L
sg5
g6
sg7
S'webkit  '
p1204
sg9
S' 9115'
p1205
sg11
S'Firewall not null\n'
p1206
sa(dp1207
g2
S'9017'
p1208
sg4
L1449721944961L
sg5
g6
sg7
S'webkit  '
p1209
sg9
S' 9115'
p1210
sg11
S'euler: isUrlBlocked = false\n'
p1211
sa(dp1212
g2
S'9017'
p1213
sg4
L1449721944971L
sg5
g6
sg7
S'StrictMode'
p1214
sg9
S' 9017'
p1215
sg11
S'StrictMode policy violation; ~duration=48 ms: android.os.StrictMode$StrictModeDiskReadViolation: policy=23 violation=2\n\tat android.os.StrictMode$AndroidBlockGuardPolicy.onReadFromDisk(StrictMode.java:1134)\n\tat libcore.io.BlockGuardOs.open(BlockGuardOs.java:106)\n\tat libcore.io.IoBridge.open(IoBridge.java:393)\n\tat java.io.FileInputStream.<init>(FileInputStream.java:78)\n\tat android.graphics.Typeface.getFullFlipFont(Typeface.java:523)\n\tat android.graphics.Typeface.getFontPathFlipFont(Typeface.java:470)\n\tat android.graphics.Typeface.SetFlipFonts(Typeface.java:560)\n\tat android.graphics.Typeface.SetAppTypeFace(Typeface.java:691)\n\tat android.app.Activity.onCreate(Activity.java:912)\n\tat com.example.myfristandroid.graphWebShow.onCreate(graphWebShow.java:40)\n\tat android.app.Activity.performCreate(Activity.java:5372)\n\tat android.app.Instrumentation.callActivityOnCreate(Instrumentation.java:1104)\n\tat android.app.ActivityThread.performLaunchActivity(ActivityThread.java:2257)\n\tat android.app.ActivityThread.handleLaunchActivity(ActivityThread.java:2349)\n\tat android.app.ActivityThread.access$700(ActivityThread.java:159)\n\tat android.app.ActivityThread$H.handleMessage(ActivityThread.java:1316)\n\tat android.os.Handler.dispatchMessage(Handler.java:99)\n\tat android.os.Looper.loop(Looper.java:137)\n\tat android.app.ActivityThread.main(ActivityThread.java:5419)\n\tat java.lang.reflect.Method.invokeNative(Native Method)\n\tat java.lang.reflect.Method.invoke(Method.java:525)\n\tat com.android.internal.os.ZygoteInit$MethodAndArgsCaller.run(ZygoteInit.java:1187)\n\tat com.android.internal.os.ZygoteInit.main(ZygoteInit.java:1003)\n\tat dalvik.system.NativeStart.main(Native Method)\n'
p1216
sa(dp1217
g2
S'9017'
p1218
sg4
L1449721944971L
sg5
g6
sg7
S'AbsListView'
p1219
sg9
S' 9017'
p1220
sg11
S'unregisterIRListener() is called \n'
p1221
sa(dp1222
g2
S'9017'
p1223
sg4
L1449721945001L
sg5
g6
sg7
S'WebView '
p1224
sg9
S' 9017'
p1225
sg11
S'onSizeChanged - w:1080 h:1710\n'
p1226
sa(dp1227
g2
S'9017'
p1228
sg4
L1449721945131L
sg5
g6
sg7
S'AbsListView'
p1229
sg9
S' 9017'
p1230
sg11
S'onVisibilityChanged() is called, visibility : 4\n'
p1231
sa(dp1232
g2
S'9017'
p1233
sg4
L1449721945131L
sg5
g6
sg7
S'AbsListView'
p1234
sg9
S' 9017'
p1235
sg11
S'unregisterIRListener() is called \n'
p1236
sa(dp1237
g2
S'9017'
p1238
sg4
L1449721945141L
sg5
g6
sg7
S'AbsListView'
p1239
sg9
S' 9017'
p1240
sg11
S'onVisibilityChanged() is called, visibility : 4\n'
p1241
sa(dp1242
g2
S'9017'
p1243
sg4
L1449721945141L
sg5
g6
sg7
S'AbsListView'
p1244
sg9
S' 9017'
p1245
sg11
S'unregisterIRListener() is called \n'
p1246
sa(dp1247
g2
S'9017'
p1248
sg4
L1449721945741L
sg5
g6
sg7
S'MainActivity'
p1249
sg9
S' 9115'
p1250
sg11
S'h:710.915,w:1183.07\n'
p1251
sa(dp1252
g2
S'9017'
p1253
sg4
L1449721945842L
sg5
g6
sg7
S'StrictMode'
p1254
sg9
S' 9017'
p1255
sg11
S'StrictMode policy violation; ~duration=21 ms: android.os.StrictMode$StrictModeDiskReadViolation: policy=23 violation=2\n\tat android.os.StrictMode$AndroidBlockGuardPolicy.onReadFromDisk(StrictMode.java:1134)\n\tat libcore.io.BlockGuardOs.open(BlockGuardOs.java:106)\n\tat libcore.io.IoBridge.open(IoBridge.java:393)\n\tat java.io.FileInputStream.<init>(FileInputStream.java:78)\n\tat android.graphics.Typeface.getFullFlipFont(Typeface.java:523)\n\tat android.graphics.Typeface.getFontPathFlipFont(Typeface.java:470)\n\tat android.graphics.Typeface.SetFlipFonts(Typeface.java:560)\n\tat android.graphics.Typeface.SetAppTypeFace(Typeface.java:691)\n\tat android.app.Application.onConfigurationChanged(Application.java:118)\n\tat android.app.ActivityThread.performConfigurationChanged(ActivityThread.java:4009)\n\tat android.app.ActivityThread.performConfigurationChanged(ActivityThread.java:3968)\n\tat android.app.ActivityThread.handleConfigurationChanged(ActivityThread.java:4190)\n\tat android.app.ActivityThread$H.handleMessage(ActivityThread.java:1436)\n\tat android.os.Handler.dispatchMessage(Handler.java:99)\n\tat android.os.Looper.loop(Looper.java:137)\n\tat android.app.ActivityThread.main(ActivityThread.java:5419)\n\tat java.lang.reflect.Method.invokeNative(Native Method)\n\tat java.lang.reflect.Method.invoke(Method.java:525)\n\tat com.android.internal.os.ZygoteInit$MethodAndArgsCaller.run(ZygoteInit.java:1187)\n\tat com.android.internal.os.ZygoteInit.main(ZygoteInit.java:1003)\n\tat dalvik.system.NativeStart.main(Native Method)\n'
p1256
sa(dp1257
g2
S'9017'
p1258
sg4
L1449721945842L
sg5
g6
sg7
S'StrictMode'
p1259
sg9
S' 9017'
p1260
sg11
S'StrictMode policy violation; ~duration=15 ms: android.os.StrictMode$StrictModeDiskReadViolation: policy=23 violation=2\n\tat android.os.StrictMode$AndroidBlockGuardPolicy.onReadFromDisk(StrictMode.java:1134)\n\tat libcore.io.BlockGuardOs.open(BlockGuardOs.java:106)\n\tat libcore.io.IoBridge.open(IoBridge.java:393)\n\tat java.io.FileInputStream.<init>(FileInputStream.java:78)\n\tat android.graphics.Typeface.getFullFlipFont(Typeface.java:523)\n\tat android.graphics.Typeface.getFontPathFlipFont(Typeface.java:470)\n\tat android.graphics.Typeface.SetFlipFonts(Typeface.java:560)\n\tat android.graphics.Typeface.SetAppTypeFace(Typeface.java:691)\n\tat android.app.Activity.onConfigurationChanged(Activity.java:1524)\n\tat com.example.myfristandroid.graphWebShow.onConfigurationChanged(graphWebShow.java:165)\n\tat android.app.ActivityThread.performConfigurationChanged(ActivityThread.java:4009)\n\tat android.app.ActivityThread.performConfigurationChanged(ActivityThread.java:3968)\n\tat android.app.ActivityThread.handleConfigurationChanged(ActivityThread.java:4190)\n\tat android.app.ActivityThread$H.handleMessage(ActivityThread.java:1436)\n\tat android.os.Handler.dispatchMessage(Handler.java:99)\n\tat android.os.Looper.loop(Looper.java:137)\n\tat android.app.ActivityThread.main(ActivityThread.java:5419)\n\tat java.lang.reflect.Method.invokeNative(Native Method)\n\tat java.lang.reflect.Method.invoke(Method.java:525)\n\tat com.android.internal.os.ZygoteInit$MethodAndArgsCaller.run(ZygoteInit.java:1187)\n\tat com.android.internal.os.ZygoteInit.main(ZygoteInit.java:1003)\n\tat dalvik.system.NativeStart.main(Native Method)\n'
p1261
sa(dp1262
g2
S'9017'
p1263
sg4
L1449721945912L
sg5
g6
sg7
S'WebView '
p1264
sg9
S' 9017'
p1265
sg11
S'onSizeChanged - w:1080 h:1845\n'
p1266
sa(dp1267
g2
S'9017'
p1268
sg4
L1449721945992L
sg5
g6
sg7
S'WebView '
p1269
sg9
S' 9017'
p1270
sg11
S'onSizeChanged - w:1920 h:1005\n'
p1271
sa(dp1272
g2
S'9017'
p1273
sg4
L1449721946392L
sg5
g20
sg7
S'GATE    '
p1274
sg9
S' 9115'
p1275
sg11
S'<GATE-M>DEV_ACTION_COMPLETED</GATE-M>\n'
p1276
sa(dp1277
g2
S'9017'
p1278
sg4
L1449721948624L
sg5
g6
sg7
S'dalvikvm'
p1279
sg9
S' 9017'
p1280
sg11
S'GC_FOR_ALLOC freed 8498K, 10% free 58060K/63884K, paused 40ms, total 41ms\n'
p1281
sa(dp1282
g2
S'9017'
p1283
sg4
L1449721948644L
sg5
g20
sg7
S'dalvikvm-heap'
p1284
sg9
S' 9017'
p1285
sg11
S'Grow heap (frag case) to 68.341MB for 8294416-byte allocation\n'
p1286
sa(dp1287
g2
S'9017'
p1288
sg4
L1449721948684L
sg5
g6
sg7
S'dalvikvm'
p1289
sg9
S' 9021'
p1290
sg11
S'GC_CONCURRENT freed 16K, 9% free 66144K/71988K, paused 3ms+5ms, total 37ms\n'
p1291
sa(dp1292
g2
S'9017'
p1293
sg4
L1449721948724L
sg5
g6
sg7
S'dalvikvm'
p1294
sg9
S' 9017'
p1295
sg11
S'GC_FOR_ALLOC freed <1K, 9% free 66144K/71988K, paused 23ms, total 23ms\n'
p1296
sa(dp1297
g2
S'9017'
p1298
sg4
L1449721948744L
sg5
g20
sg7
S'dalvikvm-heap'
p1299
sg9
S' 9017'
p1300
sg11
S'Grow heap (frag case) to 77.737MB for 8294416-byte allocation\n'
p1301
sa(dp1302
g2
S'9017'
p1303
sg4
L1449721948784L
sg5
g6
sg7
S'dalvikvm'
p1304
sg9
S' 9021'
p1305
sg11
S'GC_CONCURRENT freed 8101K, 18% free 66149K/80092K, paused 5ms+9ms, total 48ms\n'
p1306
sa(dp1307
g2
S'9017'
p1308
sg4
L1449721948975L
sg5
g6
sg7
S'cn.edu.nju.ise.kikandroid'
p1309
sg9
S' 9076'
p1310
sg11
S'Screenshot:1449721948593\n'
p1311
sa(dp1312
g2
S'9017'
p1313
sg4
L1449721949325L
sg5
g6
sg7
S'StrictMode'
p1314
sg9
S' 9017'
p1315
sg11
S'StrictMode policy violation; ~duration=0 ms: android.os.StrictMode$StrictModeDiskReadViolation: policy=23 violation=2\n\tat android.os.StrictMode$AndroidBlockGuardPolicy.onReadFromDisk(StrictMode.java:1134)\n\tat libcore.io.BlockGuardOs.open(BlockGuardOs.java:106)\n\tat libcore.io.IoBridge.open(IoBridge.java:393)\n\tat java.io.FileInputStream.<init>(FileInputStream.java:78)\n\tat android.graphics.Typeface.getFullFlipFont(Typeface.java:523)\n\tat android.graphics.Typeface.getFontPathFlipFont(Typeface.java:470)\n\tat android.graphics.Typeface.SetFlipFonts(Typeface.java:560)\n\tat android.graphics.Typeface.SetAppTypeFace(Typeface.java:691)\n\tat android.app.Application.onConfigurationChanged(Application.java:118)\n\tat android.app.ActivityThread.performConfigurationChanged(ActivityThread.java:4009)\n\tat android.app.ActivityThread.performConfigurationChanged(ActivityThread.java:3968)\n\tat android.app.ActivityThread.handleConfigurationChanged(ActivityThread.java:4190)\n\tat android.app.ActivityThread$H.handleMessage(ActivityThread.java:1436)\n\tat android.os.Handler.dispatchMessage(Handler.java:99)\n\tat android.os.Looper.loop(Looper.java:137)\n\tat android.app.ActivityThread.main(ActivityThread.java:5419)\n\tat java.lang.reflect.Method.invokeNative(Native Method)\n\tat java.lang.reflect.Method.invoke(Method.java:525)\n\tat com.android.internal.os.ZygoteInit$MethodAndArgsCaller.run(ZygoteInit.java:1187)\n\tat com.android.internal.os.ZygoteInit.main(ZygoteInit.java:1003)\n\tat dalvik.system.NativeStart.main(Native Method)\n'
p1316
sa(dp1317
g2
S'9017'
p1318
sg4
L1449721949325L
sg5
g6
sg7
S'AbsListView'
p1319
sg9
S' 9017'
p1320
sg11
S'onVisibilityChanged() is called, visibility : 0\n'
p1321
sa(dp1322
g2
S'9017'
p1323
sg4
L1449721949325L
sg5
g6
sg7
S'AbsListView'
p1324
sg9
S' 9017'
p1325
sg11
S'unregisterIRListener() is called \n'
p1326
sa(dp1327
g2
S'9017'
p1328
sg4
L1449721949385L
sg5
g6
sg7
S'AbsListView'
p1329
sg9
S' 9017'
p1330
sg11
S'unregisterIRListener() is called \n'
p1331
sa(dp1332
g2
S'9017'
p1333
sg4
L1449721954550L
sg5
g6
sg7
S'cn.edu.nju.ise.kikandroid'
p1334
sg9
S' 9076'
p1335
sg11
S'Log:1449721954552\n'
p1336
sa(dp1337
g2
S'9017'
p1338
sg4
L1449721956322L
sg5
g6
sg7
S'cn.edu.nju.ise.kikandroid'
p1339
sg9
S' 9076'
p1340
sg11
S'Log:1449721956340\n'
p1341
sa(dp1342
g2
S'9017'
p1343
sg4
L1449721956442L
sg5
g6
sg7
S'dalvikvm'
p1344
sg9
S' 9017'
p1345
sg11
S'GC_FOR_ALLOC freed 8333K, 10% free 58048K/63884K, paused 26ms, total 26ms\n'
p1346
sa(dp1347
g2
S'9017'
p1348
sg4
L1449721956452L
sg5
g20
sg7
S'dalvikvm-heap'
p1349
sg9
S' 9017'
p1350
sg11
S'Grow heap (frag case) to 68.330MB for 8294416-byte allocation\n'
p1351
sa(dp1352
g2
S'9017'
p1353
sg4
L1449721956492L
sg5
g6
sg7
S'dalvikvm'
p1354
sg9
S' 9021'
p1355
sg11
S'GC_CONCURRENT freed 13K, 9% free 66136K/71988K, paused 4ms+14ms, total 41ms\n'
p1356
sa(dp1357
g2
S'9017'
p1358
sg4
L1449721956542L
sg5
g6
sg7
S'dalvikvm'
p1359
sg9
S' 9017'
p1360
sg11
S'GC_FOR_ALLOC freed 1K, 9% free 66135K/71988K, paused 21ms, total 21ms\n'
p1361
sa(dp1362
g2
S'9017'
p1363
sg4
L1449721956562L
sg5
g20
sg7
S'dalvikvm-heap'
p1364
sg9
S' 9017'
p1365
sg11
S'Grow heap (frag case) to 77.727MB for 8294416-byte allocation\n'
p1366
sa(dp1367
g2
S'9017'
p1368
sg4
L1449721956602L
sg5
g6
sg7
S'dalvikvm'
p1369
sg9
S' 9021'
p1370
sg11
S'GC_CONCURRENT freed 8101K, 18% free 66140K/80092K, paused 3ms+10ms, total 35ms\n'
p1371
sa(dp1372
g2
S'9017'
p1373
sg4
L1449721956792L
sg5
g6
sg7
S'cn.edu.nju.ise.kikandroid'
p1374
sg9
S' 9076'
p1375
sg11
S'Screenshot:1449721956394\n'
p1376
sa(dp1377
g2
S'9017'
p1378
sg4
L1449721956802L
sg5
g518
sg7
S'dalvikvm'
p1379
sg9
S' 9076'
p1380
sg11
S'threadid=14: thread exiting with uncaught exception (group=0x41938898)\n'
p1381
sa(dp1382
g2
S'9017'
p1383
sg4
L1449721956802L
sg5
g211
sg7
S'AndroidRuntime'
p1384
sg9
S' 9076'
p1385
sg11
S'FATAL EXCEPTION: Thread-732\njava.lang.NullPointerException\n\tat android.app.Instrumentation.finish(Instrumentation.java:195)\n\tat cn.edu.nju.ise.kikandroid.AUTInstrument.quitInstr(AUTInstrument.java:195)\n\tat cn.edu.nju.ise.kikandroid.AUTInstrument.startServer(AUTInstrument.java:161)\n\tat cn.edu.nju.ise.kikandroid.AUTInstrument$1.run(AUTInstrument.java:107)\n\tat java.lang.Thread.run(Thread.java:841)\n'
p1386
sa(dp1387
g2
S'9864'
p1388
sg4
L1449722003157L
sg5
g6
sg7
S'dalvikvm'
p1389
sg9
S' 9864'
p1390
sg11
S'Late-enabling CheckJNI\n'
p1391
sa(dp1392
g2
S'9864'
p1393
sg4
L1449722003538L
sg5
g6
sg7
S'dalvikvm'
p1394
sg9
S' 9864'
p1395
sg11
S'GC_FOR_ALLOC freed 48K, 30% free 18317K/25956K, paused 32ms, total 32ms\n'
p1396
sa(dp1397
g2
S'9864'
p1398
sg4
L1449722003648L
sg5
g20
sg7
S'dalvikvm-heap'
p1399
sg9
S' 9864'
p1400
sg11
S'Grow heap (frag case) to 56.389MB for 34885888-byte allocation\n'
p1401
sa(dp1402
g2
S'9864'
p1403
sg4
L1449722003668L
sg5
g6
sg7
S'dalvikvm'
p1404
sg9
S' 9868'
p1405
sg11
S'GC_CONCURRENT freed <1K, 13% free 52385K/60028K, paused 3ms+2ms, total 20ms\n'
p1406
sa(dp1407
g2
S'9889'
p1408
sg4
L1449722003778L
sg5
g6
sg7
S'dalvikvm'
p1409
sg9
S' 9889'
p1410
sg11
S'Late-enabling CheckJNI\n'
p1411
sa(dp1412
g2
S'9864'
p1413
sg4
L1449722003838L
sg5
g6
sg7
S'libEGL  '
p1414
sg9
S' 9864'
p1415
sg11
S'loaded /vendor/lib/egl/libEGL_adreno.so\n'
p1416
sa(dp1417
g2
S'9864'
p1418
sg4
L1449722003838L
sg5
g6
sg7
S'libEGL  '
p1419
sg9
S' 9864'
p1420
sg11
S'loaded /vendor/lib/egl/libGLESv1_CM_adreno.so\n'
p1421
sa(dp1422
g2
S'9889'
p1423
sg4
L1449722003848L
sg5
g6
sg7
S'SocketService'
p1424
sg9
S' 9889'
p1425
sg11
S'onStartCommand : bLogin:false\n'
p1426
sa(dp1427
g2
S'9864'
p1428
sg4
L1449722003848L
sg5
g6
sg7
S'libEGL  '
p1429
sg9
S' 9864'
p1430
sg11
S'loaded /vendor/lib/egl/libGLESv2_adreno.so\n'
p1431
sa(dp1432
g2
S'9889'
p1433
sg4
L1449722003848L
sg5
g6
sg7
S'SocketService'
p1434
sg9
S' 9889'
p1435
sg11
S'pid:9889 myPid:9889\n'
p1436
sa(dp1437
g2
S'9889'
p1438
sg4
L1449722003848L
sg5
g6
sg7
S'SocketService'
p1439
sg9
S' 9889'
p1440
sg11
S'start to run current thread!id:749\n'
p1441
sa(dp1442
g2
S'9864'
p1443
sg4
L1449722003848L
sg5
g20
sg7
S'Adreno-EGL'
p1444
sg9
S' 9864'
p1445
sg11
S'<qeglDrvAPI_eglInitialize:316>: EGL 1.4 QUALCOMM build:  (CL4169980)\nOpenGL ES Shader Compiler Version: 17.01.10.SPL\nBuild Date: 09/26/13 Thu\nLocal Branch: \nRemote Branch: \nLocal Patches: \nReconstruct Branch: \n'
p1446
sa(dp1447
g2
S'9889'
p1448
sg4
L1449722003888L
sg5
g6
sg7
S'SocketService'
p1449
sg9
S' 9907'
p1450
sg11
S'ip/192.168.155.2 lport:53411 p:143\n'
p1451
sa(dp1452
g2
S'9889'
p1453
sg4
L1449722003898L
sg5
g6
sg7
S'ForegroundActivity'
p1454
sg9
S' 9907'
p1455
sg11
S'\xe6\x9c\xac\xe6\xac\xa1\xe5\x8f\x91\xe9\x80\x81\xe5\xb8\xa7\xe9\x95\xbf:35\t\xe6\x80\xbb\xe5\xb8\xa7\xe9\x95\xbf:35\n'
p1456
sa(dp1457
g2
S'9889'
p1458
sg4
L1449722003898L
sg5
g6
sg7
S'SocketService'
p1459
sg9
S' 9907'
p1460
sg11
S'success to connect server!id:749 bLogin:false\n'
p1461
sa(dp1462
g2
S'9864'
p1463
sg4
L1449722003918L
sg5
g6
sg7
S'OpenGLRenderer'
p1464
sg9
S' 9864'
p1465
sg11
S'Enabling debug mode 0\n'
p1466
sa(dp1467
g2
S'9889'
p1468
sg4
L1449722003938L
sg5
g6
sg7
S'ForegroundActivity'
p1469
sg9
S' 9910'
p1470
sg11
S'\xe6\x9c\xac\xe6\xac\xa1\xe6\x94\xb6\xe5\x88\xb0\xe5\xb8\xa7\xe9\x95\xbf:13\t\xe6\x80\xbb\xe5\xb8\xa7\xe9\x95\xbf:13\n'
p1471
sa(dp1472
g2
S'9889'
p1473
sg4
L1449722004849L
sg5
g6
sg7
S'SocketService1'
p1474
sg9
S' 9905'
p1475
sg11
S'\xe6\x9c\xac\xe6\xac\xa1\xe6\x8f\x90\xe5\x8f\x961:LoadPtr:13 HeadIndex:0 GetSize:13 13 0 \xe5\xa4\xb4\xe4\xbf\xa1\xe6\x81\xaf:EB 90 EB 90 EB 90 0D 00 0E 01 \n'
p1476
sa(dp1477
g2
S'9889'
p1478
sg4
L1449722004899L
sg5
g6
sg7
S'ForegroundActivity'
p1479
sg9
S' 9907'
p1480
sg11
S'\xe6\x9c\xac\xe6\xac\xa1\xe5\x8f\x91\xe9\x80\x81\xe5\xb8\xa7\xe9\x95\xbf:11\t\xe6\x80\xbb\xe5\xb8\xa7\xe9\x95\xbf:46\n'
p1481
sa(dp1482
g2
S'9889'
p1483
sg4
L1449722004929L
sg5
g6
sg7
S'ForegroundActivity'
p1484
sg9
S' 9910'
p1485
sg11
S'\xe6\x9c\xac\xe6\xac\xa1\xe6\x94\xb6\xe5\x88\xb0\xe5\xb8\xa7\xe9\x95\xbf:642\t\xe6\x80\xbb\xe5\xb8\xa7\xe9\x95\xbf:655\n'
p1486
sa(dp1487
g2
S'9889'
p1488
sg4
L1449722005890L
sg5
g6
sg7
S'SocketService1'
p1489
sg9
S' 9905'
p1490
sg11
S'\xe6\x9c\xac\xe6\xac\xa1\xe6\x8f\x90\xe5\x8f\x961:LoadPtr:655 HeadIndex:13 GetSize:642 130 512 \xe5\xa4\xb4\xe4\xbf\xa1\xe6\x81\xaf:EB 90 EB 90 EB 90 82 02 14 0A \n'
p1491
sa(dp1492
g2
S'9889'
p1493
sg4
L1449722005920L
sg5
g6
sg7
S'ForegroundActivity'
p1494
sg9
S' 9907'
p1495
sg11
S'\xe6\x9c\xac\xe6\xac\xa1\xe5\x8f\x91\xe9\x80\x81\xe5\xb8\xa7\xe9\x95\xbf:11\t\xe6\x80\xbb\xe5\xb8\xa7\xe9\x95\xbf:57\n'
p1496
sa(dp1497
g2
S'9889'
p1498
sg4
L1449722006020L
sg5
g6
sg7
S'ForegroundActivity'
p1499
sg9
S' 9910'
p1500
sg11
S'\xe6\x9c\xac\xe6\xac\xa1\xe6\x94\xb6\xe5\x88\xb0\xe5\xb8\xa7\xe9\x95\xbf:67\t\xe6\x80\xbb\xe5\xb8\xa7\xe9\x95\xbf:722\n'
p1501
sa(dp1502
g2
S'9889'
p1503
sg4
L1449722006080L
sg5
g6
sg7
S'SocketService1'
p1504
sg9
S' 9905'
p1505
sg11
S'\xe6\x9c\xac\xe6\xac\xa1\xe6\x8f\x90\xe5\x8f\x961:LoadPtr:722 HeadIndex:655 GetSize:67 67 0 \xe5\xa4\xb4\xe4\xbf\xa1\xe6\x81\xaf:EB 90 EB 90 EB 90 43 00 15 02 \n'
p1506
sa(dp1507
g2
S'9864'
p1508
sg4
L1449722006160L
sg5
g6
sg7
S'AbsListView'
p1509
sg9
S' 9864'
p1510
sg11
S'Get MotionRecognitionManager\n'
p1511
sa(dp1512
g2
S'9864'
p1513
sg4
L1449722006200L
sg5
g6
sg7
S'AbsListView'
p1514
sg9
S' 9864'
p1515
sg11
S'Get MotionRecognitionManager\n'
p1516
sa(dp1517
g2
S'9864'
p1518
sg4
L1449722006220L
sg5
g6
sg7
S'AbsListView'
p1519
sg9
S' 9864'
p1520
sg11
S'Get MotionRecognitionManager\n'
p1521
sa(dp1522
g2
S'9864'
p1523
sg4
L1449722006270L
sg5
g6
sg7
S'MainActivity'
p1524
sg9
S' 9864'
p1525
sg11
S'Start One Client\n'
p1526
sa(dp1527
g2
S'9864'
p1528
sg4
L1449722006280L
sg5
g6
sg7
S'StrictMode'
p1529
sg9
S' 9864'
p1530
sg11
S'StrictMode policy violation; ~duration=20 ms: android.os.StrictMode$StrictModeDiskReadViolation: policy=23 violation=2\n\tat android.os.StrictMode$AndroidBlockGuardPolicy.onReadFromDisk(StrictMode.java:1134)\n\tat android.app.SharedPreferencesImpl.awaitLoadedLocked(SharedPreferencesImpl.java:203)\n\tat android.app.SharedPreferencesImpl.edit(SharedPreferencesImpl.java:282)\n\tat com.example.myfristandroid.MainActivity.initCfg(MainActivity.java:454)\n\tat com.example.myfristandroid.MainActivity.onCreate(MainActivity.java:295)\n\tat android.app.Activity.performCreate(Activity.java:5372)\n\tat android.app.Instrumentation.callActivityOnCreate(Instrumentation.java:1104)\n\tat android.app.ActivityThread.performLaunchActivity(ActivityThread.java:2257)\n\tat android.app.ActivityThread.handleLaunchActivity(ActivityThread.java:2349)\n\tat android.app.ActivityThread.access$700(ActivityThread.java:159)\n\tat android.app.ActivityThread$H.handleMessage(ActivityThread.java:1316)\n\tat android.os.Handler.dispatchMessage(Handler.java:99)\n\tat android.os.Looper.loop(Looper.java:137)\n\tat android.app.ActivityThread.main(ActivityThread.java:5419)\n\tat java.lang.reflect.Method.invokeNative(Native Method)\n\tat java.lang.reflect.Method.invoke(Method.java:525)\n\tat com.android.internal.os.ZygoteInit$MethodAndArgsCaller.run(ZygoteInit.java:1187)\n\tat com.android.internal.os.ZygoteInit.main(ZygoteInit.java:1003)\n\tat dalvik.system.NativeStart.main(Native Method)\n'
p1531
sa(dp1532
g2
S'9864'
p1533
sg4
L1449722006411L
sg5
g6
sg7
S'AbsListView'
p1534
sg9
S' 9864'
p1535
sg11
S'unregisterIRListener() is called \n'
p1536
sa(dp1537
g2
S'9864'
p1538
sg4
L1449722006551L
sg5
g6
sg7
S'dalvikvm'
p1539
sg9
S' 9864'
p1540
sg11
S'GC_FOR_ALLOC freed 4868K, 13% free 55173K/63360K, paused 23ms, total 23ms\n'
p1541
sa(dp1542
g2
S'9864'
p1543
sg4
L1449722006601L
sg5
g6
sg7
S'AbsListView'
p1544
sg9
S' 9864'
p1545
sg11
S'unregisterIRListener() is called \n'
p1546
sa(dp1547
g2
S'9864'
p1548
sg4
L1449722006731L
sg5
g6
sg7
S'AbsListView'
p1549
sg9
S' 9864'
p1550
sg11
S'unregisterIRListener() is called \n'
p1551
sa(dp1552
g2
S'9864'
p1553
sg4
L1449722006801L
sg5
g6
sg7
S'AbsListView'
p1554
sg9
S' 9864'
p1555
sg11
S'unregisterIRListener() is called \n'
p1556
sa(dp1557
g2
S'9864'
p1558
sg4
L1449722006971L
sg5
g6
sg7
S'AbsListView'
p1559
sg9
S' 9864'
p1560
sg11
S'unregisterIRListener() is called \n'
p1561
sa(dp1562
g2
S'9864'
p1563
sg4
L1449722008022L
sg5
g20
sg7
S'webclipboard'
p1564
sg9
S' 9864'
p1565
sg11
S'clipservice: android.sec.clipboard.ClipboardExManager@4324b568\n'
p1566
sa(dp1567
g2
S'9864'
p1568
sg4
L1449722008082L
sg5
g6
sg7
S'WebView '
p1569
sg9
S' 9864'
p1570
sg11
S'loadUrlImpl: called\n'
p1571
sa(dp1572
g2
S'9864'
p1573
sg4
L1449722008092L
sg5
g267
sg7
S'webkit  '
p1574
sg9
S' 9952'
p1575
sg11
S'BrowserFrame constructor: this=Handler (android.webkit.BrowserFrame) {43249ae8}\n'
p1576
sa(dp1577
g2
S'9864'
p1578
sg4
L1449722008092L
sg5
g6
sg7
S'webcore '
p1579
sg9
S' 9952'
p1580
sg11
S' CORE loadUrl: called\n'
p1581
sa(dp1582
g2
S'9864'
p1583
sg4
L1449722008092L
sg5
g6
sg7
S'webkit  '
p1584
sg9
S' 9952'
p1585
sg11
S'Firewall not null\n'
p1586
sa(dp1587
g2
S'9864'
p1588
sg4
L1449722008092L
sg5
g6
sg7
S'webkit  '
p1589
sg9
S' 9952'
p1590
sg11
S'euler: isUrlBlocked = false\n'
p1591
sa(dp1592
g2
S'9864'
p1593
sg4
L1449722008092L
sg5
g6
sg7
S'StrictMode'
p1594
sg9
S' 9864'
p1595
sg11
S'StrictMode policy violation; ~duration=105 ms: android.os.StrictMode$StrictModeDiskReadViolation: policy=23 violation=2\n\tat android.os.StrictMode$AndroidBlockGuardPolicy.onReadFromDisk(StrictMode.java:1134)\n\tat libcore.io.BlockGuardOs.open(BlockGuardOs.java:106)\n\tat libcore.io.IoBridge.open(IoBridge.java:393)\n\tat java.io.FileInputStream.<init>(FileInputStream.java:78)\n\tat android.graphics.Typeface.getFullFlipFont(Typeface.java:523)\n\tat android.graphics.Typeface.getFontPathFlipFont(Typeface.java:470)\n\tat android.graphics.Typeface.SetFlipFonts(Typeface.java:560)\n\tat android.graphics.Typeface.SetAppTypeFace(Typeface.java:691)\n\tat android.app.Activity.onCreate(Activity.java:912)\n\tat com.example.myfristandroid.graphWebShow.onCreate(graphWebShow.java:40)\n\tat android.app.Activity.performCreate(Activity.java:5372)\n\tat android.app.Instrumentation.callActivityOnCreate(Instrumentation.java:1104)\n\tat android.app.ActivityThread.performLaunchActivity(ActivityThread.java:2257)\n\tat android.app.ActivityThread.handleLaunchActivity(ActivityThread.java:2349)\n\tat android.app.ActivityThread.access$700(ActivityThread.java:159)\n\tat android.app.ActivityThread$H.handleMessage(ActivityThread.java:1316)\n\tat android.os.Handler.dispatchMessage(Handler.java:99)\n\tat android.os.Looper.loop(Looper.java:137)\n\tat android.app.ActivityThread.main(ActivityThread.java:5419)\n\tat java.lang.reflect.Method.invokeNative(Native Method)\n\tat java.lang.reflect.Method.invoke(Method.java:525)\n\tat com.android.internal.os.ZygoteInit$MethodAndArgsCaller.run(ZygoteInit.java:1187)\n\tat com.android.internal.os.ZygoteInit.main(ZygoteInit.java:1003)\n\tat dalvik.system.NativeStart.main(Native Method)\n'
p1596
sa(dp1597
g2
S'9864'
p1598
sg4
L1449722008102L
sg5
g6
sg7
S'AbsListView'
p1599
sg9
S' 9864'
p1600
sg11
S'unregisterIRListener() is called \n'
p1601
sa(dp1602
g2
S'9864'
p1603
sg4
L1449722008142L
sg5
g6
sg7
S'WebView '
p1604
sg9
S' 9864'
p1605
sg11
S'onSizeChanged - w:1080 h:1710\n'
p1606
sa(dp1607
g2
S'9864'
p1608
sg4
L1449722008302L
sg5
g6
sg7
S'AbsListView'
p1609
sg9
S' 9864'
p1610
sg11
S'onVisibilityChanged() is called, visibility : 4\n'
p1611
sa(dp1612
g2
S'9864'
p1613
sg4
L1449722008302L
sg5
g6
sg7
S'AbsListView'
p1614
sg9
S' 9864'
p1615
sg11
S'unregisterIRListener() is called \n'
p1616
sa(dp1617
g2
S'9864'
p1618
sg4
L1449722009143L
sg5
g6
sg7
S'MainActivity'
p1619
sg9
S' 9952'
p1620
sg11
S'h:910.5,w:1687.5\n'
p1621
sa(dp1622
g2
S'9864'
p1623
sg4
L1449722009283L
sg5
g6
sg7
S'StrictMode'
p1624
sg9
S' 9864'
p1625
sg11
S'StrictMode policy violation; ~duration=4 ms: android.os.StrictMode$StrictModeDiskReadViolation: policy=23 violation=2\n\tat android.os.StrictMode$AndroidBlockGuardPolicy.onReadFromDisk(StrictMode.java:1134)\n\tat libcore.io.BlockGuardOs.open(BlockGuardOs.java:106)\n\tat libcore.io.IoBridge.open(IoBridge.java:393)\n\tat java.io.FileInputStream.<init>(FileInputStream.java:78)\n\tat android.graphics.Typeface.getFullFlipFont(Typeface.java:523)\n\tat android.graphics.Typeface.getFontPathFlipFont(Typeface.java:470)\n\tat android.graphics.Typeface.SetFlipFonts(Typeface.java:560)\n\tat android.graphics.Typeface.SetAppTypeFace(Typeface.java:691)\n\tat android.app.Application.onConfigurationChanged(Application.java:118)\n\tat android.app.ActivityThread.performConfigurationChanged(ActivityThread.java:4009)\n\tat android.app.ActivityThread.performConfigurationChanged(ActivityThread.java:3968)\n\tat android.app.ActivityThread.handleConfigurationChanged(ActivityThread.java:4190)\n\tat android.app.ActivityThread$H.handleMessage(ActivityThread.java:1436)\n\tat android.os.Handler.dispatchMessage(Handler.java:99)\n\tat android.os.Looper.loop(Looper.java:137)\n\tat android.app.ActivityThread.main(ActivityThread.java:5419)\n\tat java.lang.reflect.Method.invokeNative(Native Method)\n\tat java.lang.reflect.Method.invoke(Method.java:525)\n\tat com.android.internal.os.ZygoteInit$MethodAndArgsCaller.run(ZygoteInit.java:1187)\n\tat com.android.internal.os.ZygoteInit.main(ZygoteInit.java:1003)\n\tat dalvik.system.NativeStart.main(Native Method)\n'
p1626
sa(dp1627
g2
S'9864'
p1628
sg4
L1449722009283L
sg5
g6
sg7
S'StrictMode'
p1629
sg9
S' 9864'
p1630
sg11
S'StrictMode policy violation; ~duration=1 ms: android.os.StrictMode$StrictModeDiskReadViolation: policy=23 violation=2\n\tat android.os.StrictMode$AndroidBlockGuardPolicy.onReadFromDisk(StrictMode.java:1134)\n\tat libcore.io.BlockGuardOs.open(BlockGuardOs.java:106)\n\tat libcore.io.IoBridge.open(IoBridge.java:393)\n\tat java.io.FileInputStream.<init>(FileInputStream.java:78)\n\tat android.graphics.Typeface.getFullFlipFont(Typeface.java:523)\n\tat android.graphics.Typeface.getFontPathFlipFont(Typeface.java:470)\n\tat android.graphics.Typeface.SetFlipFonts(Typeface.java:560)\n\tat android.graphics.Typeface.SetAppTypeFace(Typeface.java:691)\n\tat android.app.Activity.onConfigurationChanged(Activity.java:1524)\n\tat com.example.myfristandroid.graphWebShow.onConfigurationChanged(graphWebShow.java:165)\n\tat android.app.ActivityThread.performConfigurationChanged(ActivityThread.java:4009)\n\tat android.app.ActivityThread.performConfigurationChanged(ActivityThread.java:3968)\n\tat android.app.ActivityThread.handleConfigurationChanged(ActivityThread.java:4190)\n\tat android.app.ActivityThread$H.handleMessage(ActivityThread.java:1436)\n\tat android.os.Handler.dispatchMessage(Handler.java:99)\n\tat android.os.Looper.loop(Looper.java:137)\n\tat android.app.ActivityThread.main(ActivityThread.java:5419)\n\tat java.lang.reflect.Method.invokeNative(Native Method)\n\tat java.lang.reflect.Method.invoke(Method.java:525)\n\tat com.android.internal.os.ZygoteInit$MethodAndArgsCaller.run(ZygoteInit.java:1187)\n\tat com.android.internal.os.ZygoteInit.main(ZygoteInit.java:1003)\n\tat dalvik.system.NativeStart.main(Native Method)\n'
p1631
sa(dp1632
g2
S'9864'
p1633
sg4
L1449722009364L
sg5
g6
sg7
S'WebView '
p1634
sg9
S' 9864'
p1635
sg11
S'onSizeChanged - w:1080 h:1845\n'
p1636
sa(dp1637
g2
S'9864'
p1638
sg4
L1449722009434L
sg5
g6
sg7
S'WebView '
p1639
sg9
S' 9864'
p1640
sg11
S'onSizeChanged - w:1920 h:1005\n'
p1641
sa(dp1642
g2
S'9864'
p1643
sg4
L1449722009544L
sg5
g20
sg7
S'GATE    '
p1644
sg9
S' 9952'
p1645
sg11
S'<GATE-M>DEV_ACTION_COMPLETED</GATE-M>\n'
p1646
sa(dp1647
g2
S'9864'
p1648
sg4
L1449722009564L
sg5
g6
sg7
S'TilesManager'
p1649
sg9
S' 9864'
p1650
sg11
S'Starting TG #0, 0x784d1fd8\n'
p1651
sa(dp1652
g2
S'9864'
p1653
sg4
L1449722009564L
sg5
g6
sg7
S'TilesManager'
p1654
sg9
S' 9864'
p1655
sg11
S'new EGLContext from framework: 75d478a0 \n'
p1656
sa(dp1657
g2
S'9864'
p1658
sg4
L1449722009564L
sg5
g6
sg7
S'GLWebViewState'
p1659
sg9
S' 9864'
p1660
sg11
S'Reinit shader\n'
p1661
sa(dp1662
g2
S'9864'
p1663
sg4
L1449722009604L
sg5
g6
sg7
S'GLWebViewState'
p1664
sg9
S' 9864'
p1665
sg11
S'Reinit transferQueue\n'
p1666
sa(dp1667
g2
S'9864'
p1668
sg4
L1449722014689L
sg5
g6
sg7
S'dalvikvm'
p1669
sg9
S' 9864'
p1670
sg11
S'GC_FOR_ALLOC freed 1581K, 9% free 57674K/63356K, paused 70ms, total 71ms\n'
p1671
sa(dp1672
g2
S'9864'
p1673
sg4
L1449722014719L
sg5
g20
sg7
S'dalvikvm-heap'
p1674
sg9
S' 9864'
p1675
sg11
S'Grow heap (frag case) to 67.964MB for 8294416-byte allocation\n'
p1676
sa(dp1677
g2
S'9864'
p1678
sg4
L1449722014779L
sg5
g6
sg7
S'dalvikvm'
p1679
sg9
S' 9868'
p1680
sg11
S'GC_CONCURRENT freed 30K, 8% free 65744K/71460K, paused 6ms+9ms, total 53ms\n'
p1681
sa(dp1682
g2
S'9864'
p1683
sg4
L1449722014809L
sg5
g6
sg7
S'dalvikvm'
p1684
sg9
S' 9864'
p1685
sg11
S'GC_FOR_ALLOC freed <1K, 8% free 65744K/71460K, paused 22ms, total 22ms\n'
p1686
sa(dp1687
g2
S'9864'
p1688
sg4
L1449722014829L
sg5
g20
sg7
S'dalvikvm-heap'
p1689
sg9
S' 9864'
p1690
sg11
S'Grow heap (frag case) to 77.345MB for 8294416-byte allocation\n'
p1691
sa(dp1692
g2
S'9864'
p1693
sg4
L1449722014869L
sg5
g6
sg7
S'dalvikvm'
p1694
sg9
S' 9868'
p1695
sg11
S'GC_CONCURRENT freed 8101K, 18% free 65750K/79564K, paused 8ms+4ms, total 33ms\n'
p1696
sa(dp1697
g2
S'9864'
p1698
sg4
L1449722015109L
sg5
g6
sg7
S'cn.edu.nju.ise.kikandroid'
p1699
sg9
S' 9916'
p1700
sg11
S'Screenshot:1449722014612\n'
p1701
sa(dp1702
g2
S'9864'
p1703
sg4
L1449722015590L
sg5
g6
sg7
S'StrictMode'
p1704
sg9
S' 9864'
p1705
sg11
S'StrictMode policy violation; ~duration=0 ms: android.os.StrictMode$StrictModeDiskReadViolation: policy=23 violation=2\n\tat android.os.StrictMode$AndroidBlockGuardPolicy.onReadFromDisk(StrictMode.java:1134)\n\tat libcore.io.BlockGuardOs.open(BlockGuardOs.java:106)\n\tat libcore.io.IoBridge.open(IoBridge.java:393)\n\tat java.io.FileInputStream.<init>(FileInputStream.java:78)\n\tat android.graphics.Typeface.getFullFlipFont(Typeface.java:523)\n\tat android.graphics.Typeface.getFontPathFlipFont(Typeface.java:470)\n\tat android.graphics.Typeface.SetFlipFonts(Typeface.java:560)\n\tat android.graphics.Typeface.SetAppTypeFace(Typeface.java:691)\n\tat android.app.Application.onConfigurationChanged(Application.java:118)\n\tat android.app.ActivityThread.performConfigurationChanged(ActivityThread.java:4009)\n\tat android.app.ActivityThread.performConfigurationChanged(ActivityThread.java:3968)\n\tat android.app.ActivityThread.handleConfigurationChanged(ActivityThread.java:4190)\n\tat android.app.ActivityThread$H.handleMessage(ActivityThread.java:1436)\n\tat android.os.Handler.dispatchMessage(Handler.java:99)\n\tat android.os.Looper.loop(Looper.java:137)\n\tat android.app.ActivityThread.main(ActivityThread.java:5419)\n\tat java.lang.reflect.Method.invokeNative(Native Method)\n\tat java.lang.reflect.Method.invoke(Method.java:525)\n\tat com.android.internal.os.ZygoteInit$MethodAndArgsCaller.run(ZygoteInit.java:1187)\n\tat com.android.internal.os.ZygoteInit.main(ZygoteInit.java:1003)\n\tat dalvik.system.NativeStart.main(Native Method)\n'
p1706
sa(dp1707
g2
S'9864'
p1708
sg4
L1449722015590L
sg5
g6
sg7
S'AbsListView'
p1709
sg9
S' 9864'
p1710
sg11
S'onVisibilityChanged() is called, visibility : 0\n'
p1711
sa(dp1712
g2
S'9864'
p1713
sg4
L1449722015590L
sg5
g6
sg7
S'AbsListView'
p1714
sg9
S' 9864'
p1715
sg11
S'unregisterIRListener() is called \n'
p1716
sa(dp1717
g2
S'9864'
p1718
sg4
L1449722015700L
sg5
g6
sg7
S'AbsListView'
p1719
sg9
S' 9864'
p1720
sg11
S'unregisterIRListener() is called \n'
p1721
sa(dp1722
g2
S'9864'
p1723
sg4
L1449722017451L
sg5
g20
sg7
S'webclipboard'
p1724
sg9
S' 9864'
p1725
sg11
S'clipservice: android.sec.clipboard.ClipboardExManager@42d9cba0\n'
p1726
sa(dp1727
g2
S'9864'
p1728
sg4
L1449722017451L
sg5
g267
sg7
S'webkit  '
p1729
sg9
S' 9952'
p1730
sg11
S'BrowserFrame constructor: this=Handler (android.webkit.BrowserFrame) {42a80458}\n'
p1731
sa(dp1732
g2
S'9864'
p1733
sg4
L1449722017461L
sg5
g6
sg7
S'WebView '
p1734
sg9
S' 9864'
p1735
sg11
S'loadUrlImpl: called\n'
p1736
sa(dp1737
g2
S'9864'
p1738
sg4
L1449722017461L
sg5
g6
sg7
S'webcore '
p1739
sg9
S' 9952'
p1740
sg11
S' CORE loadUrl: called\n'
p1741
sa(dp1742
g2
S'9864'
p1743
sg4
L1449722017461L
sg5
g6
sg7
S'webkit  '
p1744
sg9
S' 9952'
p1745
sg11
S'Firewall not null\n'
p1746
sa(dp1747
g2
S'9864'
p1748
sg4
L1449722017461L
sg5
g6
sg7
S'webkit  '
p1749
sg9
S' 9952'
p1750
sg11
S'euler: isUrlBlocked = false\n'
p1751
sa(dp1752
g2
S'9864'
p1753
sg4
L1449722017481L
sg5
g6
sg7
S'StrictMode'
p1754
sg9
S' 9864'
p1755
sg11
S'StrictMode policy violation; ~duration=35 ms: android.os.StrictMode$StrictModeDiskReadViolation: policy=23 violation=2\n\tat android.os.StrictMode$AndroidBlockGuardPolicy.onReadFromDisk(StrictMode.java:1134)\n\tat libcore.io.BlockGuardOs.open(BlockGuardOs.java:106)\n\tat libcore.io.IoBridge.open(IoBridge.java:393)\n\tat java.io.FileInputStream.<init>(FileInputStream.java:78)\n\tat android.graphics.Typeface.getFullFlipFont(Typeface.java:523)\n\tat android.graphics.Typeface.getFontPathFlipFont(Typeface.java:470)\n\tat android.graphics.Typeface.SetFlipFonts(Typeface.java:560)\n\tat android.graphics.Typeface.SetAppTypeFace(Typeface.java:691)\n\tat android.app.Activity.onCreate(Activity.java:912)\n\tat com.example.myfristandroid.graphWebShow.onCreate(graphWebShow.java:40)\n\tat android.app.Activity.performCreate(Activity.java:5372)\n\tat android.app.Instrumentation.callActivityOnCreate(Instrumentation.java:1104)\n\tat android.app.ActivityThread.performLaunchActivity(ActivityThread.java:2257)\n\tat android.app.ActivityThread.handleLaunchActivity(ActivityThread.java:2349)\n\tat android.app.ActivityThread.access$700(ActivityThread.java:159)\n\tat android.app.ActivityThread$H.handleMessage(ActivityThread.java:1316)\n\tat android.os.Handler.dispatchMessage(Handler.java:99)\n\tat android.os.Looper.loop(Looper.java:137)\n\tat android.app.ActivityThread.main(ActivityThread.java:5419)\n\tat java.lang.reflect.Method.invokeNative(Native Method)\n\tat java.lang.reflect.Method.invoke(Method.java:525)\n\tat com.android.internal.os.ZygoteInit$MethodAndArgsCaller.run(ZygoteInit.java:1187)\n\tat com.android.internal.os.ZygoteInit.main(ZygoteInit.java:1003)\n\tat dalvik.system.NativeStart.main(Native Method)\n'
p1756
sa(dp1757
g2
S'9864'
p1758
sg4
L1449722017481L
sg5
g6
sg7
S'AbsListView'
p1759
sg9
S' 9864'
p1760
sg11
S'unregisterIRListener() is called \n'
p1761
sa(dp1762
g2
S'9864'
p1763
sg4
L1449722017511L
sg5
g6
sg7
S'WebView '
p1764
sg9
S' 9864'
p1765
sg11
S'onSizeChanged - w:1080 h:1710\n'
p1766
sa(dp1767
g2
S'9864'
p1768
sg4
L1449722017712L
sg5
g6
sg7
S'AbsListView'
p1769
sg9
S' 9864'
p1770
sg11
S'onVisibilityChanged() is called, visibility : 4\n'
p1771
sa(dp1772
g2
S'9864'
p1773
sg4
L1449722017712L
sg5
g6
sg7
S'AbsListView'
p1774
sg9
S' 9864'
p1775
sg11
S'unregisterIRListener() is called \n'
p1776
sa(dp1777
g2
S'9864'
p1778
sg4
L1449722018222L
sg5
g6
sg7
S'MainActivity'
p1779
sg9
S' 9952'
p1780
sg11
S'h:910.5,w:1687.5\n'
p1781
sa(dp1782
g2
S'9864'
p1783
sg4
L1449722018332L
sg5
g6
sg7
S'StrictMode'
p1784
sg9
S' 9864'
p1785
sg11
S'StrictMode policy violation; ~duration=4 ms: android.os.StrictMode$StrictModeDiskReadViolation: policy=23 violation=2\n\tat android.os.StrictMode$AndroidBlockGuardPolicy.onReadFromDisk(StrictMode.java:1134)\n\tat libcore.io.BlockGuardOs.open(BlockGuardOs.java:106)\n\tat libcore.io.IoBridge.open(IoBridge.java:393)\n\tat java.io.FileInputStream.<init>(FileInputStream.java:78)\n\tat android.graphics.Typeface.getFullFlipFont(Typeface.java:523)\n\tat android.graphics.Typeface.getFontPathFlipFont(Typeface.java:470)\n\tat android.graphics.Typeface.SetFlipFonts(Typeface.java:560)\n\tat android.graphics.Typeface.SetAppTypeFace(Typeface.java:691)\n\tat android.app.Application.onConfigurationChanged(Application.java:118)\n\tat android.app.ActivityThread.performConfigurationChanged(ActivityThread.java:4009)\n\tat android.app.ActivityThread.performConfigurationChanged(ActivityThread.java:3968)\n\tat android.app.ActivityThread.handleConfigurationChanged(ActivityThread.java:4190)\n\tat android.app.ActivityThread$H.handleMessage(ActivityThread.java:1436)\n\tat android.os.Handler.dispatchMessage(Handler.java:99)\n\tat android.os.Looper.loop(Looper.java:137)\n\tat android.app.ActivityThread.main(ActivityThread.java:5419)\n\tat java.lang.reflect.Method.invokeNative(Native Method)\n\tat java.lang.reflect.Method.invoke(Method.java:525)\n\tat com.android.internal.os.ZygoteInit$MethodAndArgsCaller.run(ZygoteInit.java:1187)\n\tat com.android.internal.os.ZygoteInit.main(ZygoteInit.java:1003)\n\tat dalvik.system.NativeStart.main(Native Method)\n'
p1786
sa(dp1787
g2
S'9864'
p1788
sg4
L1449722018332L
sg5
g6
sg7
S'StrictMode'
p1789
sg9
S' 9864'
p1790
sg11
S'StrictMode policy violation; ~duration=1 ms: android.os.StrictMode$StrictModeDiskReadViolation: policy=23 violation=2\n\tat android.os.StrictMode$AndroidBlockGuardPolicy.onReadFromDisk(StrictMode.java:1134)\n\tat libcore.io.BlockGuardOs.open(BlockGuardOs.java:106)\n\tat libcore.io.IoBridge.open(IoBridge.java:393)\n\tat java.io.FileInputStream.<init>(FileInputStream.java:78)\n\tat android.graphics.Typeface.getFullFlipFont(Typeface.java:523)\n\tat android.graphics.Typeface.getFontPathFlipFont(Typeface.java:470)\n\tat android.graphics.Typeface.SetFlipFonts(Typeface.java:560)\n\tat android.graphics.Typeface.SetAppTypeFace(Typeface.java:691)\n\tat android.app.Activity.onConfigurationChanged(Activity.java:1524)\n\tat com.example.myfristandroid.graphWebShow.onConfigurationChanged(graphWebShow.java:165)\n\tat android.app.ActivityThread.performConfigurationChanged(ActivityThread.java:4009)\n\tat android.app.ActivityThread.performConfigurationChanged(ActivityThread.java:3968)\n\tat android.app.ActivityThread.handleConfigurationChanged(ActivityThread.java:4190)\n\tat android.app.ActivityThread$H.handleMessage(ActivityThread.java:1436)\n\tat android.os.Handler.dispatchMessage(Handler.java:99)\n\tat android.os.Looper.loop(Looper.java:137)\n\tat android.app.ActivityThread.main(ActivityThread.java:5419)\n\tat java.lang.reflect.Method.invokeNative(Native Method)\n\tat java.lang.reflect.Method.invoke(Method.java:525)\n\tat com.android.internal.os.ZygoteInit$MethodAndArgsCaller.run(ZygoteInit.java:1187)\n\tat com.android.internal.os.ZygoteInit.main(ZygoteInit.java:1003)\n\tat dalvik.system.NativeStart.main(Native Method)\n'
p1791
sa(dp1792
g2
S'9864'
p1793
sg4
L1449722018412L
sg5
g6
sg7
S'WebView '
p1794
sg9
S' 9864'
p1795
sg11
S'onSizeChanged - w:1080 h:1845\n'
p1796
sa(dp1797
g2
S'9864'
p1798
sg4
L1449722018452L
sg5
g20
sg7
S'GATE    '
p1799
sg9
S' 9952'
p1800
sg11
S'<GATE-M>DEV_ACTION_COMPLETED</GATE-M>\n'
p1801
sa(dp1802
g2
S'9864'
p1803
sg4
L1449722018472L
sg5
g6
sg7
S'WebView '
p1804
sg9
S' 9864'
p1805
sg11
S'onSizeChanged - w:1920 h:1005\n'
p1806
sa(dp1807
g2
S'9864'
p1808
sg4
L1449722018653L
sg5
g267
sg7
S'WebViewInputDispatcher'
p1809
sg9
S' 9864'
p1810
sg11
S'blockWebkitDraw\n'
p1811
sa(dp1812
g2
S'9864'
p1813
sg4
L1449722018653L
sg5
g267
sg7
S'WebViewInputDispatcher'
p1814
sg9
S' 9864'
p1815
sg11
S'blockWebkitDraw lockedfalse\n'
p1816
sa(dp1817
g2
S'9864'
p1818
sg4
L1449722018663L
sg5
g211
sg7
S'webcoreglue'
p1819
sg9
S' 9952'
p1820
sg11
S'getAbsoluteBoundingBox failed for node 0x7a90e6c0, name RenderSVGContainer\n'
p1821
sa(dp1822
g2
S'9864'
p1823
sg4
L1449722018663L
sg5
g211
sg7
S'webcoreglue'
p1824
sg9
S' 9952'
p1825
sg11
S'getAbsoluteBoundingBox failed for node 0x7a90e8e8, name RenderSVGContainer\n'
p1826
sa(dp1827
g2
S'9864'
p1828
sg4
L1449722018663L
sg5
g211
sg7
S'webcoreglue'
p1829
sg9
S' 9952'
p1830
sg11
S'getAbsoluteBoundingBox failed for node 0x7a90c8e8, name RenderSVGContainer\n'
p1831
sa(dp1832
g2
S'9864'
p1833
sg4
L1449722018663L
sg5
g211
sg7
S'webcoreglue'
p1834
sg9
S' 9952'
p1835
sg11
S'getAbsoluteBoundingBox failed for node 0x7a90dbd0, name RenderSVGPath\n'
p1836
sa(dp1837
g2
S'9864'
p1838
sg4
L1449722018953L
sg5
g6
sg7
S'webview '
p1839
sg9
S' 9952'
p1840
sg11
S'blockWebkitViewMessage= false\n'
p1841
sa(dp1842
g2
S'9864'
p1843
sg4
L1449722019073L
sg5
g6
sg7
S'CallbackProxy'
p1844
sg9
S' 9952'
p1845
sg11
S'sendMessageToUiThreadSync Package=com.example.myfristandroid message=103\n'
p1846
sa(dp1847
g2
S'9864'
p1848
sg4
L1449722019093L
sg5
g6
sg7
S'WebView '
p1849
sg9
S' 9864'
p1850
sg11
S'loadUrlImpl: called\n'
p1851
sa(dp1852
g2
S'9864'
p1853
sg4
L1449722019093L
sg5
g6
sg7
S'WebCore '
p1854
sg9
S' 9864'
p1855
sg11
S'uiOverrideUrlLoading: shouldOverrideUrlLoading() returnstrue\n'
p1856
sa(dp1857
g2
S'9864'
p1858
sg4
L1449722019103L
sg5
g6
sg7
S'webcore '
p1859
sg9
S' 9952'
p1860
sg11
S' CORE loadUrl: called\n'
p1861
sa(dp1862
g2
S'9864'
p1863
sg4
L1449722019103L
sg5
g6
sg7
S'webkit  '
p1864
sg9
S' 9952'
p1865
sg11
S'Firewall not null\n'
p1866
sa(dp1867
g2
S'9864'
p1868
sg4
L1449722019103L
sg5
g6
sg7
S'webkit  '
p1869
sg9
S' 9952'
p1870
sg11
S'euler: isUrlBlocked = false\n'
p1871
sa(dp1872
g2
S'9864'
p1873
sg4
L1449722020254L
sg5
g6
sg7
S'MainActivity'
p1874
sg9
S' 9952'
p1875
sg11
S'h:1000.5,w:627.5\n'
p1876
sa(dp1877
g2
S'9864'
p1878
sg4
L1449722020334L
sg5
g6
sg7
S'StrictMode'
p1879
sg9
S' 9864'
p1880
sg11
S'StrictMode policy violation; ~duration=4 ms: android.os.StrictMode$StrictModeDiskReadViolation: policy=23 violation=2\n\tat android.os.StrictMode$AndroidBlockGuardPolicy.onReadFromDisk(StrictMode.java:1134)\n\tat libcore.io.BlockGuardOs.open(BlockGuardOs.java:106)\n\tat libcore.io.IoBridge.open(IoBridge.java:393)\n\tat java.io.FileInputStream.<init>(FileInputStream.java:78)\n\tat android.graphics.Typeface.getFullFlipFont(Typeface.java:523)\n\tat android.graphics.Typeface.getFontPathFlipFont(Typeface.java:470)\n\tat android.graphics.Typeface.SetFlipFonts(Typeface.java:560)\n\tat android.graphics.Typeface.SetAppTypeFace(Typeface.java:691)\n\tat android.app.Application.onConfigurationChanged(Application.java:118)\n\tat android.app.ActivityThread.performConfigurationChanged(ActivityThread.java:4009)\n\tat android.app.ActivityThread.performConfigurationChanged(ActivityThread.java:3968)\n\tat android.app.ActivityThread.handleConfigurationChanged(ActivityThread.java:4190)\n\tat android.app.ActivityThread$H.handleMessage(ActivityThread.java:1436)\n\tat android.os.Handler.dispatchMessage(Handler.java:99)\n\tat android.os.Looper.loop(Looper.java:137)\n\tat android.app.ActivityThread.main(ActivityThread.java:5419)\n\tat java.lang.reflect.Method.invokeNative(Native Method)\n\tat java.lang.reflect.Method.invoke(Method.java:525)\n\tat com.android.internal.os.ZygoteInit$MethodAndArgsCaller.run(ZygoteInit.java:1187)\n\tat com.android.internal.os.ZygoteInit.main(ZygoteInit.java:1003)\n\tat dalvik.system.NativeStart.main(Native Method)\n'
p1881
sa(dp1882
g2
S'9864'
p1883
sg4
L1449722020334L
sg5
g6
sg7
S'StrictMode'
p1884
sg9
S' 9864'
p1885
sg11
S'StrictMode policy violation; ~duration=1 ms: android.os.StrictMode$StrictModeDiskReadViolation: policy=23 violation=2\n\tat android.os.StrictMode$AndroidBlockGuardPolicy.onReadFromDisk(StrictMode.java:1134)\n\tat libcore.io.BlockGuardOs.open(BlockGuardOs.java:106)\n\tat libcore.io.IoBridge.open(IoBridge.java:393)\n\tat java.io.FileInputStream.<init>(FileInputStream.java:78)\n\tat android.graphics.Typeface.getFullFlipFont(Typeface.java:523)\n\tat android.graphics.Typeface.getFontPathFlipFont(Typeface.java:470)\n\tat android.graphics.Typeface.SetFlipFonts(Typeface.java:560)\n\tat android.graphics.Typeface.SetAppTypeFace(Typeface.java:691)\n\tat android.app.Activity.onConfigurationChanged(Activity.java:1524)\n\tat com.example.myfristandroid.graphWebShow.onConfigurationChanged(graphWebShow.java:165)\n\tat android.app.ActivityThread.performConfigurationChanged(ActivityThread.java:4009)\n\tat android.app.ActivityThread.performConfigurationChanged(ActivityThread.java:3968)\n\tat android.app.ActivityThread.handleConfigurationChanged(ActivityThread.java:4190)\n\tat android.app.ActivityThread$H.handleMessage(ActivityThread.java:1436)\n\tat android.os.Handler.dispatchMessage(Handler.java:99)\n\tat android.os.Looper.loop(Looper.java:137)\n\tat android.app.ActivityThread.main(ActivityThread.java:5419)\n\tat java.lang.reflect.Method.invokeNative(Native Method)\n\tat java.lang.reflect.Method.invoke(Method.java:525)\n\tat com.android.internal.os.ZygoteInit$MethodAndArgsCaller.run(ZygoteInit.java:1187)\n\tat com.android.internal.os.ZygoteInit.main(ZygoteInit.java:1003)\n\tat dalvik.system.NativeStart.main(Native Method)\n'
p1886
sa(dp1887
g2
S'9864'
p1888
sg4
L1449722020424L
sg5
g6
sg7
S'WebView '
p1889
sg9
S' 9864'
p1890
sg11
S'onSizeChanged - w:1920 h:870\n'
p1891
sa(dp1892
g2
S'9864'
p1893
sg4
L1449722020474L
sg5
g6
sg7
S'WebView '
p1894
sg9
S' 9864'
p1895
sg11
S'onSizeChanged - w:1080 h:1710\n'
p1896
sa(dp1897
g2
S'9864'
p1898
sg4
L1449722020514L
sg5
g20
sg7
S'GATE    '
p1899
sg9
S' 9952'
p1900
sg11
S'<GATE-M>DEV_ACTION_COMPLETED</GATE-M>\n'
p1901
sa(dp1902
g2
S'9864'
p1903
sg4
L1449722020645L
sg5
g211
sg7
S'ViewRootImpl'
p1904
sg9
S' 9864'
p1905
sg11
S'sendUserActionEvent() mView == null\n'
p1906
sa(dp1907
g2
S'9864'
p1908
sg4
L1449722022536L
sg5
g6
sg7
S'dalvikvm'
p1909
sg9
S' 9864'
p1910
sg11
S'GC_FOR_ALLOC freed 8942K, 9% free 57737K/63296K, paused 58ms, total 60ms\n'
p1911
sa(dp1912
g2
S'9864'
p1913
sg4
L1449722022546L
sg5
g20
sg7
S'dalvikvm-heap'
p1914
sg9
S' 9864'
p1915
sg11
S'Grow heap (frag case) to 68.027MB for 8294416-byte allocation\n'
p1916
sa(dp1917
g2
S'9864'
p1918
sg4
L1449722022586L
sg5
g6
sg7
S'dalvikvm'
p1919
sg9
S' 9868'
p1920
sg11
S'GC_CONCURRENT freed 26K, 8% free 65811K/71400K, paused 2ms+5ms, total 38ms\n'
p1921
sa(dp1922
g2
S'9864'
p1923
sg4
L1449722022616L
sg5
g6
sg7
S'dalvikvm'
p1924
sg9
S' 9864'
p1925
sg11
S'GC_FOR_ALLOC freed <1K, 8% free 65811K/71400K, paused 22ms, total 23ms\n'
p1926
sa(dp1927
g2
S'9864'
p1928
sg4
L1449722022636L
sg5
g20
sg7
S'dalvikvm-heap'
p1929
sg9
S' 9864'
p1930
sg11
S'Grow heap (frag case) to 77.411MB for 8294416-byte allocation\n'
p1931
sa(dp1932
g2
S'9864'
p1933
sg4
L1449722022656L
sg5
g6
sg7
S'dalvikvm'
p1934
sg9
S' 9868'
p1935
sg11
S'GC_CONCURRENT freed 8101K, 18% free 65816K/79504K, paused 4ms+4ms, total 29ms\n'
p1936
sa(dp1937
g2
S'9864'
p1938
sg4
L1449722022867L
sg5
g6
sg7
S'cn.edu.nju.ise.kikandroid'
p1939
sg9
S' 9916'
p1940
sg11
S'Screenshot:1449722022476\n'
p1941
sa(dp1942
g2
S'9864'
p1943
sg4
L1449722026740L
sg5
g211
sg7
S'webcoreglue'
p1944
sg9
S' 9952'
p1945
sg11
S'getAbsoluteBoundingBox failed for node 0x78845b60, name RenderSVGContainer\n'
p1946
sa(dp1947
g2
S'9864'
p1948
sg4
L1449722026740L
sg5
g211
sg7
S'webcoreglue'
p1949
sg9
S' 9952'
p1950
sg11
S'getAbsoluteBoundingBox failed for node 0x78845df0, name RenderSVGContainer\n'
p1951
sa(dp1952
g2
S'9864'
p1953
sg4
L1449722026740L
sg5
g211
sg7
S'webcoreglue'
p1954
sg9
S' 9952'
p1955
sg11
S'getAbsoluteBoundingBox failed for node 0x78845600, name RenderSVGContainer\n'
p1956
sa(dp1957
g2
S'9864'
p1958
sg4
L1449722026740L
sg5
g211
sg7
S'webcoreglue'
p1959
sg9
S' 9952'
p1960
sg11
S'getAbsoluteBoundingBox failed for node 0x7cc3b190, name RenderSVGPath\n'
p1961
sa(dp1962
g2
S'9864'
p1963
sg4
L1449722026801L
sg5
g267
sg7
S'WebViewInputDispatcher'
p1964
sg9
S' 9864'
p1965
sg11
S'blockWebkitDraw\n'
p1966
sa(dp1967
g2
S'9864'
p1968
sg4
L1449722026801L
sg5
g267
sg7
S'WebViewInputDispatcher'
p1969
sg9
S' 9864'
p1970
sg11
S'blockWebkitDraw lockedfalse\n'
p1971
sa(dp1972
g2
S'9864'
p1973
sg4
L1449722027101L
sg5
g6
sg7
S'webview '
p1974
sg9
S' 9952'
p1975
sg11
S'blockWebkitViewMessage= false\n'
p1976
sa(dp1977
g2
S'9864'
p1978
sg4
L1449722027111L
sg5
g6
sg7
S'CallbackProxy'
p1979
sg9
S' 9952'
p1980
sg11
S'sendMessageToUiThreadSync Package=com.example.myfristandroid message=103\n'
p1981
sa(dp1982
g2
S'9864'
p1983
sg4
L1449722027171L
sg5
g6
sg7
S'WebView '
p1984
sg9
S' 9864'
p1985
sg11
S'loadUrlImpl: called\n'
p1986
sa(dp1987
g2
S'9864'
p1988
sg4
L1449722027171L
sg5
g6
sg7
S'WebCore '
p1989
sg9
S' 9864'
p1990
sg11
S'uiOverrideUrlLoading: shouldOverrideUrlLoading() returnstrue\n'
p1991
sa(dp1992
g2
S'9864'
p1993
sg4
L1449722027171L
sg5
g6
sg7
S'webcore '
p1994
sg9
S' 9952'
p1995
sg11
S' CORE loadUrl: called\n'
p1996
sa(dp1997
g2
S'9864'
p1998
sg4
L1449722027171L
sg5
g6
sg7
S'webkit  '
p1999
sg9
S' 9952'
p2000
sg11
S'Firewall not null\n'
p2001
sa(dp2002
g2
S'9864'
p2003
sg4
L1449722027181L
sg5
g6
sg7
S'webkit  '
p2004
sg9
S' 9952'
p2005
sg11
S'euler: isUrlBlocked = false\n'
p2006
sa(dp2007
g2
S'9864'
p2008
sg4
L1449722041084L
sg5
g6
sg7
S'cn.edu.nju.ise.kikandroid'
p2009
sg9
S' 9916'
p2010
sg11
S'Screenshot:1449722041062\n'
p2011
sa(dp2012
g2
S'9864'
p2013
sg4
L1449722042055L
sg5
g6
sg7
S'MainActivity'
p2014
sg9
S' 9952'
p2015
sg11
S'h:5684.15,w:7950.53\n'
p2016
sa(dp2017
g2
S'9864'
p2018
sg4
L1449722042155L
sg5
g6
sg7
S'StrictMode'
p2019
sg9
S' 9864'
p2020
sg11
S'StrictMode policy violation; ~duration=3 ms: android.os.StrictMode$StrictModeDiskReadViolation: policy=23 violation=2\n\tat android.os.StrictMode$AndroidBlockGuardPolicy.onReadFromDisk(StrictMode.java:1134)\n\tat libcore.io.BlockGuardOs.open(BlockGuardOs.java:106)\n\tat libcore.io.IoBridge.open(IoBridge.java:393)\n\tat java.io.FileInputStream.<init>(FileInputStream.java:78)\n\tat android.graphics.Typeface.getFullFlipFont(Typeface.java:523)\n\tat android.graphics.Typeface.getFontPathFlipFont(Typeface.java:470)\n\tat android.graphics.Typeface.SetFlipFonts(Typeface.java:560)\n\tat android.graphics.Typeface.SetAppTypeFace(Typeface.java:691)\n\tat android.app.Application.onConfigurationChanged(Application.java:118)\n\tat android.app.ActivityThread.performConfigurationChanged(ActivityThread.java:4009)\n\tat android.app.ActivityThread.performConfigurationChanged(ActivityThread.java:3968)\n\tat android.app.ActivityThread.handleConfigurationChanged(ActivityThread.java:4190)\n\tat android.app.ActivityThread$H.handleMessage(ActivityThread.java:1436)\n\tat android.os.Handler.dispatchMessage(Handler.java:99)\n\tat android.os.Looper.loop(Looper.java:137)\n\tat android.app.ActivityThread.main(ActivityThread.java:5419)\n\tat java.lang.reflect.Method.invokeNative(Native Method)\n\tat java.lang.reflect.Method.invoke(Method.java:525)\n\tat com.android.internal.os.ZygoteInit$MethodAndArgsCaller.run(ZygoteInit.java:1187)\n\tat com.android.internal.os.ZygoteInit.main(ZygoteInit.java:1003)\n\tat dalvik.system.NativeStart.main(Native Method)\n'
p2021
sa(dp2022
g2
S'9864'
p2023
sg4
L1449722042155L
sg5
g6
sg7
S'StrictMode'
p2024
sg9
S' 9864'
p2025
sg11
S'StrictMode policy violation; ~duration=1 ms: android.os.StrictMode$StrictModeDiskReadViolation: policy=23 violation=2\n\tat android.os.StrictMode$AndroidBlockGuardPolicy.onReadFromDisk(StrictMode.java:1134)\n\tat libcore.io.BlockGuardOs.open(BlockGuardOs.java:106)\n\tat libcore.io.IoBridge.open(IoBridge.java:393)\n\tat java.io.FileInputStream.<init>(FileInputStream.java:78)\n\tat android.graphics.Typeface.getFullFlipFont(Typeface.java:523)\n\tat android.graphics.Typeface.getFontPathFlipFont(Typeface.java:470)\n\tat android.graphics.Typeface.SetFlipFonts(Typeface.java:560)\n\tat android.graphics.Typeface.SetAppTypeFace(Typeface.java:691)\n\tat android.app.Activity.onConfigurationChanged(Activity.java:1524)\n\tat com.example.myfristandroid.graphWebShow.onConfigurationChanged(graphWebShow.java:165)\n\tat android.app.ActivityThread.performConfigurationChanged(ActivityThread.java:4009)\n\tat android.app.ActivityThread.performConfigurationChanged(ActivityThread.java:3968)\n\tat android.app.ActivityThread.handleConfigurationChanged(ActivityThread.java:4190)\n\tat android.app.ActivityThread$H.handleMessage(ActivityThread.java:1436)\n\tat android.os.Handler.dispatchMessage(Handler.java:99)\n\tat android.os.Looper.loop(Looper.java:137)\n\tat android.app.ActivityThread.main(ActivityThread.java:5419)\n\tat java.lang.reflect.Method.invokeNative(Native Method)\n\tat java.lang.reflect.Method.invoke(Method.java:525)\n\tat com.android.internal.os.ZygoteInit$MethodAndArgsCaller.run(ZygoteInit.java:1187)\n\tat com.android.internal.os.ZygoteInit.main(ZygoteInit.java:1003)\n\tat dalvik.system.NativeStart.main(Native Method)\n'
p2026
sa(dp2027
g2
S'9864'
p2028
sg4
L1449722042236L
sg5
g6
sg7
S'WebView '
p2029
sg9
S' 9864'
p2030
sg11
S'onSizeChanged - w:1080 h:1845\n'
p2031
sa(dp2032
g2
S'9864'
p2033
sg4
L1449722042296L
sg5
g6
sg7
S'WebView '
p2034
sg9
S' 9864'
p2035
sg11
S'onSizeChanged - w:1920 h:1005\n'
p2036
sa(dp2037
g2
S'9864'
p2038
sg4
L1449722042586L
sg5
g20
sg7
S'GATE    '
p2039
sg9
S' 9952'
p2040
sg11
S'<GATE-M>DEV_ACTION_COMPLETED</GATE-M>\n'
p2041
sa(dp2042
g2
S'9864'
p2043
sg4
L1449722042676L
sg5
g211
sg7
S'ViewRootImpl'
p2044
sg9
S' 9864'
p2045
sg11
S'sendUserActionEvent() mView == null\n'
p2046
sa(dp2047
g2
S'9889'
p2048
sg4
L1449722043867L
sg5
g6
sg7
S'ForegroundActivity'
p2049
sg9
S' 9903'
p2050
sg11
S'\xe6\x9c\xac\xe6\xac\xa1\xe5\x8f\x91\xe9\x80\x81\xe5\xb8\xa7\xe9\x95\xbf:13\t\xe6\x80\xbb\xe5\xb8\xa7\xe9\x95\xbf:70\n'
p2051
sa(dp2052
g2
S'9889'
p2053
sg4
L1449722044027L
sg5
g6
sg7
S'ForegroundActivity'
p2054
sg9
S' 9910'
p2055
sg11
S'\xe6\x9c\xac\xe6\xac\xa1\xe6\x94\xb6\xe5\x88\xb0\xe5\xb8\xa7\xe9\x95\xbf:13\t\xe6\x80\xbb\xe5\xb8\xa7\xe9\x95\xbf:735\n'
p2056
sa(dp2057
g2
S'9889'
p2058
sg4
L1449722044127L
sg5
g6
sg7
S'SocketService1'
p2059
sg9
S' 9905'
p2060
sg11
S'\xe6\x9c\xac\xe6\xac\xa1\xe6\x8f\x90\xe5\x8f\x961:LoadPtr:735 HeadIndex:722 GetSize:13 13 0 \xe5\xa4\xb4\xe4\xbf\xa1\xe6\x81\xaf:EB 90 EB 90 EB 90 0D 00 10 01 \n'
p2061
sa(dp2062
g2
S'9864'
p2063
sg4
L1449722045349L
sg5
g6
sg7
S'dalvikvm'
p2064
sg9
S' 9864'
p2065
sg11
S'GC_FOR_ALLOC freed 12135K, 9% free 57725K/63296K, paused 34ms, total 34ms\n'
p2066
sa(dp2067
g2
S'9864'
p2068
sg4
L1449722045369L
sg5
g20
sg7
S'dalvikvm-heap'
p2069
sg9
S' 9864'
p2070
sg11
S'Grow heap (frag case) to 68.015MB for 8294416-byte allocation\n'
p2071
sa(dp2072
g2
S'9864'
p2073
sg4
L1449722045409L
sg5
g6
sg7
S'dalvikvm'
p2074
sg9
S' 9868'
p2075
sg11
S'GC_CONCURRENT freed 13K, 8% free 65812K/71400K, paused 3ms+6ms, total 36ms\n'
p2076
sa(dp2077
g2
S'9864'
p2078
sg4
L1449722045429L
sg5
g6
sg7
S'dalvikvm'
p2079
sg9
S' 9864'
p2080
sg11
S'GC_FOR_ALLOC freed <1K, 8% free 65812K/71400K, paused 23ms, total 23ms\n'
p2081
sa(dp2082
g2
S'9864'
p2083
sg4
L1449722045449L
sg5
g20
sg7
S'dalvikvm-heap'
p2084
sg9
S' 9864'
p2085
sg11
S'Grow heap (frag case) to 77.412MB for 8294416-byte allocation\n'
p2086
sa(dp2087
g2
S'9864'
p2088
sg4
L1449722045479L
sg5
g6
sg7
S'dalvikvm'
p2089
sg9
S' 9868'
p2090
sg11
S'GC_CONCURRENT freed 8101K, 18% free 65817K/79504K, paused 3ms+4ms, total 33ms\n'
p2091
sa(dp2092
g2
S'9864'
p2093
sg4
L1449722045619L
sg5
g6
sg7
S'cn.edu.nju.ise.kikandroid'
p2094
sg9
S' 9916'
p2095
sg11
S'Screenshot:1449722045317\n'
p2096
sa(dp2097
g2
S'9864'
p2098
sg4
L1449722047561L
sg5
g6
sg7
S'MainActivity'
p2099
sg9
S' 9952'
p2100
sg11
S'h:1000.5,w:627.5\n'
p2101
sa(dp2102
g2
S'9864'
p2103
sg4
L1449722047651L
sg5
g6
sg7
S'StrictMode'
p2104
sg9
S' 9864'
p2105
sg11
S'StrictMode policy violation; ~duration=5 ms: android.os.StrictMode$StrictModeDiskReadViolation: policy=23 violation=2\n\tat android.os.StrictMode$AndroidBlockGuardPolicy.onReadFromDisk(StrictMode.java:1134)\n\tat libcore.io.BlockGuardOs.open(BlockGuardOs.java:106)\n\tat libcore.io.IoBridge.open(IoBridge.java:393)\n\tat java.io.FileInputStream.<init>(FileInputStream.java:78)\n\tat android.graphics.Typeface.getFullFlipFont(Typeface.java:523)\n\tat android.graphics.Typeface.getFontPathFlipFont(Typeface.java:470)\n\tat android.graphics.Typeface.SetFlipFonts(Typeface.java:560)\n\tat android.graphics.Typeface.SetAppTypeFace(Typeface.java:691)\n\tat android.app.Application.onConfigurationChanged(Application.java:118)\n\tat android.app.ActivityThread.performConfigurationChanged(ActivityThread.java:4009)\n\tat android.app.ActivityThread.performConfigurationChanged(ActivityThread.java:3968)\n\tat android.app.ActivityThread.handleConfigurationChanged(ActivityThread.java:4190)\n\tat android.app.ActivityThread$H.handleMessage(ActivityThread.java:1436)\n\tat android.os.Handler.dispatchMessage(Handler.java:99)\n\tat android.os.Looper.loop(Looper.java:137)\n\tat android.app.ActivityThread.main(ActivityThread.java:5419)\n\tat java.lang.reflect.Method.invokeNative(Native Method)\n\tat java.lang.reflect.Method.invoke(Method.java:525)\n\tat com.android.internal.os.ZygoteInit$MethodAndArgsCaller.run(ZygoteInit.java:1187)\n\tat com.android.internal.os.ZygoteInit.main(ZygoteInit.java:1003)\n\tat dalvik.system.NativeStart.main(Native Method)\n'
p2106
sa(dp2107
g2
S'9864'
p2108
sg4
L1449722047651L
sg5
g6
sg7
S'StrictMode'
p2109
sg9
S' 9864'
p2110
sg11
S'StrictMode policy violation; ~duration=1 ms: android.os.StrictMode$StrictModeDiskReadViolation: policy=23 violation=2\n\tat android.os.StrictMode$AndroidBlockGuardPolicy.onReadFromDisk(StrictMode.java:1134)\n\tat libcore.io.BlockGuardOs.open(BlockGuardOs.java:106)\n\tat libcore.io.IoBridge.open(IoBridge.java:393)\n\tat java.io.FileInputStream.<init>(FileInputStream.java:78)\n\tat android.graphics.Typeface.getFullFlipFont(Typeface.java:523)\n\tat android.graphics.Typeface.getFontPathFlipFont(Typeface.java:470)\n\tat android.graphics.Typeface.SetFlipFonts(Typeface.java:560)\n\tat android.graphics.Typeface.SetAppTypeFace(Typeface.java:691)\n\tat android.app.Activity.onConfigurationChanged(Activity.java:1524)\n\tat com.example.myfristandroid.graphWebShow.onConfigurationChanged(graphWebShow.java:165)\n\tat android.app.ActivityThread.performConfigurationChanged(ActivityThread.java:4009)\n\tat android.app.ActivityThread.performConfigurationChanged(ActivityThread.java:3968)\n\tat android.app.ActivityThread.handleConfigurationChanged(ActivityThread.java:4190)\n\tat android.app.ActivityThread$H.handleMessage(ActivityThread.java:1436)\n\tat android.os.Handler.dispatchMessage(Handler.java:99)\n\tat android.os.Looper.loop(Looper.java:137)\n\tat android.app.ActivityThread.main(ActivityThread.java:5419)\n\tat java.lang.reflect.Method.invokeNative(Native Method)\n\tat java.lang.reflect.Method.invoke(Method.java:525)\n\tat com.android.internal.os.ZygoteInit$MethodAndArgsCaller.run(ZygoteInit.java:1187)\n\tat com.android.internal.os.ZygoteInit.main(ZygoteInit.java:1003)\n\tat dalvik.system.NativeStart.main(Native Method)\n'
p2111
sa(dp2112
g2
S'9864'
p2113
sg4
L1449722047721L
sg5
g6
sg7
S'WebView '
p2114
sg9
S' 9864'
p2115
sg11
S'onSizeChanged - w:1920 h:870\n'
p2116
sa(dp2117
g2
S'9864'
p2118
sg4
L1449722047731L
sg5
g20
sg7
S'GATE    '
p2119
sg9
S' 9952'
p2120
sg11
S'<GATE-M>DEV_ACTION_COMPLETED</GATE-M>\n'
p2121
sa(dp2122
g2
S'9864'
p2123
sg4
L1449722047771L
sg5
g6
sg7
S'WebView '
p2124
sg9
S' 9864'
p2125
sg11
S'onSizeChanged - w:1080 h:1710\n'
p2126
sa(dp2127
g2
S'9864'
p2128
sg4
L1449722049292L
sg5
g267
sg7
S'WebViewInputDispatcher'
p2129
sg9
S' 9864'
p2130
sg11
S'blockWebkitDraw\n'
p2131
sa(dp2132
g2
S'9864'
p2133
sg4
L1449722049292L
sg5
g267
sg7
S'WebViewInputDispatcher'
p2134
sg9
S' 9864'
p2135
sg11
S'blockWebkitDraw lockedfalse\n'
p2136
sa(dp2137
g2
S'9864'
p2138
sg4
L1449722050103L
sg5
g6
sg7
S'AbsListView'
p2139
sg9
S' 9864'
p2140
sg11
S'onVisibilityChanged() is called, visibility : 0\n'
p2141
sa(dp2142
g2
S'9864'
p2143
sg4
L1449722050103L
sg5
g6
sg7
S'AbsListView'
p2144
sg9
S' 9864'
p2145
sg11
S'unregisterIRListener() is called \n'
p2146
sa(dp2147
g2
S'9864'
p2148
sg4
L1449722050123L
sg5
g6
sg7
S'AbsListView'
p2149
sg9
S' 9864'
p2150
sg11
S'unregisterIRListener() is called \n'
p2151
sa(dp2152
g2
S'9864'
p2153
sg4
L1449722051445L
sg5
g20
sg7
S'webclipboard'
p2154
sg9
S' 9864'
p2155
sg11
S'clipservice: android.sec.clipboard.ClipboardExManager@43274708\n'
p2156
sa(dp2157
g2
S'9864'
p2158
sg4
L1449722051455L
sg5
g267
sg7
S'webkit  '
p2159
sg9
S' 9952'
p2160
sg11
S'BrowserFrame constructor: this=Handler (android.webkit.BrowserFrame) {432745b8}\n'
p2161
sa(dp2162
g2
S'9864'
p2163
sg4
L1449722051465L
sg5
g6
sg7
S'WebView '
p2164
sg9
S' 9864'
p2165
sg11
S'loadUrlImpl: called\n'
p2166
sa(dp2167
g2
S'9864'
p2168
sg4
L1449722051465L
sg5
g6
sg7
S'webcore '
p2169
sg9
S' 9952'
p2170
sg11
S' CORE loadUrl: called\n'
p2171
sa(dp2172
g2
S'9864'
p2173
sg4
L1449722051465L
sg5
g6
sg7
S'webkit  '
p2174
sg9
S' 9952'
p2175
sg11
S'Firewall not null\n'
p2176
sa(dp2177
g2
S'9864'
p2178
sg4
L1449722051465L
sg5
g6
sg7
S'webkit  '
p2179
sg9
S' 9952'
p2180
sg11
S'euler: isUrlBlocked = false\n'
p2181
sa(dp2182
g2
S'9864'
p2183
sg4
L1449722051485L
sg5
g6
sg7
S'StrictMode'
p2184
sg9
S' 9864'
p2185
sg11
S'StrictMode policy violation; ~duration=47 ms: android.os.StrictMode$StrictModeDiskReadViolation: policy=23 violation=2\n\tat android.os.StrictMode$AndroidBlockGuardPolicy.onReadFromDisk(StrictMode.java:1134)\n\tat libcore.io.BlockGuardOs.open(BlockGuardOs.java:106)\n\tat libcore.io.IoBridge.open(IoBridge.java:393)\n\tat java.io.FileInputStream.<init>(FileInputStream.java:78)\n\tat android.graphics.Typeface.getFullFlipFont(Typeface.java:523)\n\tat android.graphics.Typeface.getFontPathFlipFont(Typeface.java:470)\n\tat android.graphics.Typeface.SetFlipFonts(Typeface.java:560)\n\tat android.graphics.Typeface.SetAppTypeFace(Typeface.java:691)\n\tat android.app.Activity.onCreate(Activity.java:912)\n\tat com.example.myfristandroid.graphWebShow.onCreate(graphWebShow.java:40)\n\tat android.app.Activity.performCreate(Activity.java:5372)\n\tat android.app.Instrumentation.callActivityOnCreate(Instrumentation.java:1104)\n\tat android.app.ActivityThread.performLaunchActivity(ActivityThread.java:2257)\n\tat android.app.ActivityThread.handleLaunchActivity(ActivityThread.java:2349)\n\tat android.app.ActivityThread.access$700(ActivityThread.java:159)\n\tat android.app.ActivityThread$H.handleMessage(ActivityThread.java:1316)\n\tat android.os.Handler.dispatchMessage(Handler.java:99)\n\tat android.os.Looper.loop(Looper.java:137)\n\tat android.app.ActivityThread.main(ActivityThread.java:5419)\n\tat java.lang.reflect.Method.invokeNative(Native Method)\n\tat java.lang.reflect.Method.invoke(Method.java:525)\n\tat com.android.internal.os.ZygoteInit$MethodAndArgsCaller.run(ZygoteInit.java:1187)\n\tat com.android.internal.os.ZygoteInit.main(ZygoteInit.java:1003)\n\tat dalvik.system.NativeStart.main(Native Method)\n'
p2186
sa(dp2187
g2
S'9864'
p2188
sg4
L1449722051485L
sg5
g6
sg7
S'AbsListView'
p2189
sg9
S' 9864'
p2190
sg11
S'unregisterIRListener() is called \n'
p2191
sa(dp2192
g2
S'9864'
p2193
sg4
L1449722051505L
sg5
g6
sg7
S'WebView '
p2194
sg9
S' 9864'
p2195
sg11
S'onSizeChanged - w:1080 h:1710\n'
p2196
sa(dp2197
g2
S'9864'
p2198
sg4
L1449722051705L
sg5
g6
sg7
S'AbsListView'
p2199
sg9
S' 9864'
p2200
sg11
S'onVisibilityChanged() is called, visibility : 4\n'
p2201
sa(dp2202
g2
S'9864'
p2203
sg4
L1449722051705L
sg5
g6
sg7
S'AbsListView'
p2204
sg9
S' 9864'
p2205
sg11
S'unregisterIRListener() is called \n'
p2206
sa(dp2207
g2
S'9864'
p2208
sg4
L1449722052285L
sg5
g6
sg7
S'MainActivity'
p2209
sg9
S' 9952'
p2210
sg11
S'h:670.006,w:1569.5\n'
p2211
sa(dp2212
g2
S'9864'
p2213
sg4
L1449722052345L
sg5
g6
sg7
S'StrictMode'
p2214
sg9
S' 9864'
p2215
sg11
S'StrictMode policy violation; ~duration=4 ms: android.os.StrictMode$StrictModeDiskReadViolation: policy=23 violation=2\n\tat android.os.StrictMode$AndroidBlockGuardPolicy.onReadFromDisk(StrictMode.java:1134)\n\tat libcore.io.BlockGuardOs.open(BlockGuardOs.java:106)\n\tat libcore.io.IoBridge.open(IoBridge.java:393)\n\tat java.io.FileInputStream.<init>(FileInputStream.java:78)\n\tat android.graphics.Typeface.getFullFlipFont(Typeface.java:523)\n\tat android.graphics.Typeface.getFontPathFlipFont(Typeface.java:470)\n\tat android.graphics.Typeface.SetFlipFonts(Typeface.java:560)\n\tat android.graphics.Typeface.SetAppTypeFace(Typeface.java:691)\n\tat android.app.Application.onConfigurationChanged(Application.java:118)\n\tat android.app.ActivityThread.performConfigurationChanged(ActivityThread.java:4009)\n\tat android.app.ActivityThread.performConfigurationChanged(ActivityThread.java:3968)\n\tat android.app.ActivityThread.handleConfigurationChanged(ActivityThread.java:4190)\n\tat android.app.ActivityThread$H.handleMessage(ActivityThread.java:1436)\n\tat android.os.Handler.dispatchMessage(Handler.java:99)\n\tat android.os.Looper.loop(Looper.java:137)\n\tat android.app.ActivityThread.main(ActivityThread.java:5419)\n\tat java.lang.reflect.Method.invokeNative(Native Method)\n\tat java.lang.reflect.Method.invoke(Method.java:525)\n\tat com.android.internal.os.ZygoteInit$MethodAndArgsCaller.run(ZygoteInit.java:1187)\n\tat com.android.internal.os.ZygoteInit.main(ZygoteInit.java:1003)\n\tat dalvik.system.NativeStart.main(Native Method)\n'
p2216
sa(dp2217
g2
S'9864'
p2218
sg4
L1449722052345L
sg5
g6
sg7
S'StrictMode'
p2219
sg9
S' 9864'
p2220
sg11
S'StrictMode policy violation; ~duration=1 ms: android.os.StrictMode$StrictModeDiskReadViolation: policy=23 violation=2\n\tat android.os.StrictMode$AndroidBlockGuardPolicy.onReadFromDisk(StrictMode.java:1134)\n\tat libcore.io.BlockGuardOs.open(BlockGuardOs.java:106)\n\tat libcore.io.IoBridge.open(IoBridge.java:393)\n\tat java.io.FileInputStream.<init>(FileInputStream.java:78)\n\tat android.graphics.Typeface.getFullFlipFont(Typeface.java:523)\n\tat android.graphics.Typeface.getFontPathFlipFont(Typeface.java:470)\n\tat android.graphics.Typeface.SetFlipFonts(Typeface.java:560)\n\tat android.graphics.Typeface.SetAppTypeFace(Typeface.java:691)\n\tat android.app.Activity.onConfigurationChanged(Activity.java:1524)\n\tat com.example.myfristandroid.graphWebShow.onConfigurationChanged(graphWebShow.java:165)\n\tat android.app.ActivityThread.performConfigurationChanged(ActivityThread.java:4009)\n\tat android.app.ActivityThread.performConfigurationChanged(ActivityThread.java:3968)\n\tat android.app.ActivityThread.handleConfigurationChanged(ActivityThread.java:4190)\n\tat android.app.ActivityThread$H.handleMessage(ActivityThread.java:1436)\n\tat android.os.Handler.dispatchMessage(Handler.java:99)\n\tat android.os.Looper.loop(Looper.java:137)\n\tat android.app.ActivityThread.main(ActivityThread.java:5419)\n\tat java.lang.reflect.Method.invokeNative(Native Method)\n\tat java.lang.reflect.Method.invoke(Method.java:525)\n\tat com.android.internal.os.ZygoteInit$MethodAndArgsCaller.run(ZygoteInit.java:1187)\n\tat com.android.internal.os.ZygoteInit.main(ZygoteInit.java:1003)\n\tat dalvik.system.NativeStart.main(Native Method)\n'
p2221
sa(dp2222
g2
S'9864'
p2223
sg4
L1449722052446L
sg5
g6
sg7
S'WebView '
p2224
sg9
S' 9864'
p2225
sg11
S'onSizeChanged - w:1080 h:1845\n'
p2226
sa(dp2227
g2
S'9864'
p2228
sg4
L1449722052506L
sg5
g6
sg7
S'WebView '
p2229
sg9
S' 9864'
p2230
sg11
S'onSizeChanged - w:1920 h:1005\n'
p2231
sa(dp2232
g2
S'9864'
p2233
sg4
L1449722052786L
sg5
g20
sg7
S'GATE    '
p2234
sg9
S' 9952'
p2235
sg11
S'<GATE-M>DEV_ACTION_COMPLETED</GATE-M>\n'
p2236
sa(dp2237
g2
S'9864'
p2238
sg4
L1449722057190L
sg5
g6
sg7
S'dalvikvm'
p2239
sg9
S' 9864'
p2240
sg11
S'GC_FOR_ALLOC freed 8566K, 9% free 57783K/63296K, paused 47ms, total 47ms\n'
p2241
sa(dp2242
g2
S'9864'
p2243
sg4
L1449722057200L
sg5
g20
sg7
S'dalvikvm-heap'
p2244
sg9
S' 9864'
p2245
sg11
S'Grow heap (frag case) to 68.072MB for 8294416-byte allocation\n'
p2246
sa(dp2247
g2
S'9864'
p2248
sg4
L1449722057250L
sg5
g6
sg7
S'dalvikvm'
p2249
sg9
S' 9868'
p2250
sg11
S'GC_CONCURRENT freed 20K, 8% free 65863K/71400K, paused 2ms+4ms, total 40ms\n'
p2251
sa(dp2252
g2
S'9864'
p2253
sg4
L1449722057290L
sg5
g6
sg7
S'dalvikvm'
p2254
sg9
S' 9864'
p2255
sg11
S'GC_FOR_ALLOC freed <1K, 8% free 65863K/71400K, paused 23ms, total 23ms\n'
p2256
sa(dp2257
g2
S'9864'
p2258
sg4
L1449722057310L
sg5
g20
sg7
S'dalvikvm-heap'
p2259
sg9
S' 9864'
p2260
sg11
S'Grow heap (frag case) to 77.461MB for 8294416-byte allocation\n'
p2261
sa(dp2262
g2
S'9864'
p2263
sg4
L1449722057340L
sg5
g6
sg7
S'dalvikvm'
p2264
sg9
S' 9868'
p2265
sg11
S'GC_CONCURRENT freed 8101K, 18% free 65868K/79504K, paused 3ms+5ms, total 33ms\n'
p2266
sa(dp2267
g2
S'9864'
p2268
sg4
L1449722057601L
sg5
g6
sg7
S'cn.edu.nju.ise.kikandroid'
p2269
sg9
S' 9916'
p2270
sg11
S'Screenshot:1449722057137\n'
p2271
sa(dp2272
g2
S'9864'
p2273
sg4
L1449722058231L
sg5
g6
sg7
S'StrictMode'
p2274
sg9
S' 9864'
p2275
sg11
S'StrictMode policy violation; ~duration=0 ms: android.os.StrictMode$StrictModeDiskReadViolation: policy=23 violation=2\n\tat android.os.StrictMode$AndroidBlockGuardPolicy.onReadFromDisk(StrictMode.java:1134)\n\tat libcore.io.BlockGuardOs.open(BlockGuardOs.java:106)\n\tat libcore.io.IoBridge.open(IoBridge.java:393)\n\tat java.io.FileInputStream.<init>(FileInputStream.java:78)\n\tat android.graphics.Typeface.getFullFlipFont(Typeface.java:523)\n\tat android.graphics.Typeface.getFontPathFlipFont(Typeface.java:470)\n\tat android.graphics.Typeface.SetFlipFonts(Typeface.java:560)\n\tat android.graphics.Typeface.SetAppTypeFace(Typeface.java:691)\n\tat android.app.Application.onConfigurationChanged(Application.java:118)\n\tat android.app.ActivityThread.performConfigurationChanged(ActivityThread.java:4009)\n\tat android.app.ActivityThread.performConfigurationChanged(ActivityThread.java:3968)\n\tat android.app.ActivityThread.handleConfigurationChanged(ActivityThread.java:4190)\n\tat android.app.ActivityThread$H.handleMessage(ActivityThread.java:1436)\n\tat android.os.Handler.dispatchMessage(Handler.java:99)\n\tat android.os.Looper.loop(Looper.java:137)\n\tat android.app.ActivityThread.main(ActivityThread.java:5419)\n\tat java.lang.reflect.Method.invokeNative(Native Method)\n\tat java.lang.reflect.Method.invoke(Method.java:525)\n\tat com.android.internal.os.ZygoteInit$MethodAndArgsCaller.run(ZygoteInit.java:1187)\n\tat com.android.internal.os.ZygoteInit.main(ZygoteInit.java:1003)\n\tat dalvik.system.NativeStart.main(Native Method)\n'
p2276
sa(dp2277
g2
S'9864'
p2278
sg4
L1449722058231L
sg5
g6
sg7
S'AbsListView'
p2279
sg9
S' 9864'
p2280
sg11
S'onVisibilityChanged() is called, visibility : 0\n'
p2281
sa(dp2282
g2
S'9864'
p2283
sg4
L1449722058231L
sg5
g6
sg7
S'AbsListView'
p2284
sg9
S' 9864'
p2285
sg11
S'unregisterIRListener() is called \n'
p2286
sa(dp2287
g2
S'9864'
p2288
sg4
L1449722058241L
sg5
g6
sg7
S'AbsListView'
p2289
sg9
S' 9864'
p2290
sg11
S'unregisterIRListener() is called \n'
p2291
sa(dp2292
g2
S'9864'
p2293
sg4
L1449722058281L
sg5
g6
sg7
S'AbsListView'
p2294
sg9
S' 9864'
p2295
sg11
S'unregisterIRListener() is called \n'
p2296
sa(dp2297
g2
S'9864'
p2298
sg4
L1449722061264L
sg5
g6
sg7
S'cn.edu.nju.ise.kikandroid'
p2299
sg9
S' 9916'
p2300
sg11
S'Log:1449722061277\n'
p2301
sa(dp2302
g2
S'9864'
p2303
sg4
L1449722062686L
sg5
g6
sg7
S'cn.edu.nju.ise.kikandroid'
p2304
sg9
S' 9916'
p2305
sg11
S'Log:1449722062701\n'
p2306
sa(dp2307
g2
S'9864'
p2308
sg4
L1449722062826L
sg5
g6
sg7
S'dalvikvm'
p2309
sg9
S' 9864'
p2310
sg11
S'GC_FOR_ALLOC freed 8332K, 9% free 57767K/63296K, paused 34ms, total 34ms\n'
p2311
sa(dp2312
g2
S'9864'
p2313
sg4
L1449722062836L
sg5
g20
sg7
S'dalvikvm-heap'
p2314
sg9
S' 9864'
p2315
sg11
S'Grow heap (frag case) to 68.055MB for 8294416-byte allocation\n'
p2316
sa(dp2317
g2
S'9864'
p2318
sg4
L1449722062876L
sg5
g6
sg7
S'dalvikvm'
p2319
sg9
S' 9868'
p2320
sg11
S'GC_CONCURRENT freed 13K, 8% free 65854K/71400K, paused 3ms+6ms, total 31ms\n'
p2321
sa(dp2322
g2
S'9864'
p2323
sg4
L1449722062926L
sg5
g6
sg7
S'dalvikvm'
p2324
sg9
S' 9864'
p2325
sg11
S'GC_FOR_ALLOC freed 1K, 8% free 65854K/71400K, paused 20ms, total 20ms\n'
p2326
sa(dp2327
g2
S'9864'
p2328
sg4
L1449722062936L
sg5
g20
sg7
S'dalvikvm-heap'
p2329
sg9
S' 9864'
p2330
sg11
S'Grow heap (frag case) to 77.453MB for 8294416-byte allocation\n'
p2331
sa(dp2332
g2
S'9864'
p2333
sg4
L1449722062976L
sg5
g6
sg7
S'dalvikvm'
p2334
sg9
S' 9868'
p2335
sg11
S'GC_CONCURRENT freed 8101K, 18% free 65858K/79504K, paused 2ms+5ms, total 41ms\n'
p2336
sa(dp2337
g2
S'9864'
p2338
sg4
L1449722063176L
sg5
g6
sg7
S'cn.edu.nju.ise.kikandroid'
p2339
sg9
S' 9916'
p2340
sg11
S'Screenshot:1449722062758\n'
p2341
sa(dp2342
g2
S'9864'
p2343
sg4
L1449722063176L
sg5
g518
sg7
S'dalvikvm'
p2344
sg9
S' 9916'
p2345
sg11
S'threadid=14: thread exiting with uncaught exception (group=0x41938898)\n'
p2346
sa(dp2347
g2
S'9864'
p2348
sg4
L1449722063186L
sg5
g211
sg7
S'AndroidRuntime'
p2349
sg9
S' 9916'
p2350
sg11
S'FATAL EXCEPTION: Thread-744\njava.lang.NullPointerException\n\tat android.app.Instrumentation.finish(Instrumentation.java:195)\n\tat cn.edu.nju.ise.kikandroid.AUTInstrument.quitInstr(AUTInstrument.java:195)\n\tat cn.edu.nju.ise.kikandroid.AUTInstrument.startServer(AUTInstrument.java:161)\n\tat cn.edu.nju.ise.kikandroid.AUTInstrument$1.run(AUTInstrument.java:107)\n\tat java.lang.Thread.run(Thread.java:841)\n'
p2351
sa.