(lp0
(dp1
S'processID'
p2
S'22787'
p3
sS'SyscTime'
p4
L1449651904901L
sS'priority'
p5
S'E'
p6
sS'tag'
p7
S'AndroidRuntime'
p8
sS'threadID'
p9
S'22842'
p10
sS'message'
p11
S'FATAL EXCEPTION: Thread-5013\njava.lang.NullPointerException\n\tat android.app.Instrumentation.finish(Instrumentation.java:190)\n\tat cn.edu.nju.ise.kikandroid.AUTInstrument.quitInstr(AUTInstrument.java:195)\n\tat cn.edu.nju.ise.kikandroid.AUTInstrument.startServer(AUTInstrument.java:161)\n\tat cn.edu.nju.ise.kikandroid.AUTInstrument$1.run(AUTInstrument.java:107)\n\tat java.lang.Thread.run(Thread.java:841)\n'
p12
sa(dp13
g2
S'31563'
p14
sg4
L1449651972831L
sg5
g6
sg7
S'external/chromium/net/disk_cache/stat_hub.cc'
p15
sg9
S'32676'
p16
sg11
S"netstack:  STAT_HUB - App com.example.myfristandroid isn't supported\n"
p17
sa(dp18
g2
S'31563'
p19
sg4
L1449651972881L
sg5
g6
sg7
S'external/chromium/net/host_resolver_helper/dyn_lib_loader.cc'
p20
sg9
S'32689'
p21
sg11
S'netstack: LIB_MGR - Error loading lib qnet-plugin.so\n'
p22
sa(dp23
g2
S'31563'
p24
sg4
L1449652050391L
sg5
g6
sg7
S'AndroidRuntime'
p25
sg9
S'31619'
p26
sg11
S'FATAL EXCEPTION: Thread-5337\njava.lang.NullPointerException\n\tat android.app.Instrumentation.finish(Instrumentation.java:190)\n\tat cn.edu.nju.ise.kikandroid.AUTInstrument.quitInstr(AUTInstrument.java:195)\n\tat cn.edu.nju.ise.kikandroid.AUTInstrument.startServer(AUTInstrument.java:161)\n\tat cn.edu.nju.ise.kikandroid.AUTInstrument$1.run(AUTInstrument.java:107)\n\tat java.lang.Thread.run(Thread.java:841)\n'
p27
sa(dp28
g2
S'8082'
p29
sg4
L1449652445131L
sg5
g6
sg7
S'external/chromium/net/disk_cache/stat_hub.cc'
p30
sg9
S' 9865'
p31
sg11
S"netstack:  STAT_HUB - App com.example.myfristandroid isn't supported\n"
p32
sa(dp33
g2
S'8082'
p34
sg4
L1449652445191L
sg5
g6
sg7
S'external/chromium/net/host_resolver_helper/dyn_lib_loader.cc'
p35
sg9
S' 9883'
p36
sg11
S'netstack: LIB_MGR - Error loading lib qnet-plugin.so\n'
p37
sa(dp38
g2
S'8082'
p39
sg4
L1449652479561L
sg5
g6
sg7
S'AndroidRuntime'
p40
sg9
S' 8131'
p41
sg11
S'FATAL EXCEPTION: Thread-5568\njava.lang.NullPointerException\n\tat android.app.Instrumentation.finish(Instrumentation.java:190)\n\tat cn.edu.nju.ise.kikandroid.AUTInstrument.quitInstr(AUTInstrument.java:195)\n\tat cn.edu.nju.ise.kikandroid.AUTInstrument.startServer(AUTInstrument.java:161)\n\tat cn.edu.nju.ise.kikandroid.AUTInstrument$1.run(AUTInstrument.java:107)\n\tat java.lang.Thread.run(Thread.java:841)\n'
p42
sa(dp43
g2
S'20229'
p44
sg4
L1449660246893L
sg5
S'W'
p45
sg7
S'IInputConnectionWrapper'
p46
sg9
S'20229'
p47
sg11
S'performPrivateCommand on inactive InputConnection\n'
p48
sa(dp49
g2
S'20229'
p50
sg4
L1449660248613L
sg5
g45
sg7
S'LoadedApk'
p51
sg9
S'20229'
p52
sg11
S'perform long-running operations in onReceive, ordered=false ~duration=119ms: com.example.myfristandroid.MainActivity$CmdReceiver@42549ba0 Intent { act=SocketService flg=0x10 (has extras) }\n'
p53
sa(dp54
g2
S'20229'
p55
sg4
L1449660251813L
sg5
g45
sg7
S'IInputConnectionWrapper'
p56
sg9
S'20229'
p57
sg11
S'performPrivateCommand on inactive InputConnection\n'
p58
sa(dp59
g2
S'20229'
p60
sg4
L1449660252713L
sg5
g45
sg7
S'IInputConnectionWrapper'
p61
sg9
S'20229'
p62
sg11
S'performPrivateCommand on inactive InputConnection\n'
p63
sa(dp64
g2
S'20229'
p65
sg4
L1449660263133L
sg5
g45
sg7
S'IInputConnectionWrapper'
p66
sg9
S'20229'
p67
sg11
S'performPrivateCommand on inactive InputConnection\n'
p68
sa(dp69
g2
S'20229'
p70
sg4
L1449660280533L
sg5
g45
sg7
S'IInputConnectionWrapper'
p71
sg9
S'20229'
p72
sg11
S'performPrivateCommand on inactive InputConnection\n'
p73
sa(dp74
g2
S'20229'
p75
sg4
L1449660283723L
sg5
g6
sg7
S'external/chromium/net/disk_cache/stat_hub.cc'
p76
sg9
S'21224'
p77
sg11
S"netstack:  STAT_HUB - App com.example.myfristandroid isn't supported\n"
p78
sa(dp79
g2
S'20229'
p80
sg4
L1449660283963L
sg5
g6
sg7
S'external/chromium/net/host_resolver_helper/dyn_lib_loader.cc'
p81
sg9
S'21241'
p82
sg11
S'netstack: LIB_MGR - Error loading lib qnet-plugin.so\n'
p83
sa(dp84
g2
S'20229'
p85
sg4
L1449660290963L
sg5
g6
sg7
S'webcoreglue'
p86
sg9
S'21224'
p87
sg11
S'getAbsoluteBoundingBox failed for node 0x605ea2f0, name RenderSVGContainer\n'
p88
sa(dp89
g2
S'20229'
p90
sg4
L1449660290963L
sg5
g6
sg7
S'webcoreglue'
p91
sg9
S'21224'
p92
sg11
S'getAbsoluteBoundingBox failed for node 0x605ea590, name RenderSVGContainer\n'
p93
sa(dp94
g2
S'20229'
p95
sg4
L1449660290963L
sg5
g6
sg7
S'webcoreglue'
p96
sg9
S'21224'
p97
sg11
S'getAbsoluteBoundingBox failed for node 0x605ea750, name RenderSVGContainer\n'
p98
sa(dp99
g2
S'20229'
p100
sg4
L1449660290973L
sg5
g6
sg7
S'webcoreglue'
p101
sg9
S'21224'
p102
sg11
S'getAbsoluteBoundingBox failed for node 0x605eadf8, name RenderSVGPath\n'
p103
sa(dp104
g2
S'20229'
p105
sg4
L1449660291453L
sg5
g45
sg7
S'IInputConnectionWrapper'
p106
sg9
S'20229'
p107
sg11
S'performPrivateCommand on inactive InputConnection\n'
p108
sa(dp109
g2
S'20229'
p110
sg4
L1449660291473L
sg5
g45
sg7
S'IInputConnectionWrapper'
p111
sg9
S'20229'
p112
sg11
S'performPrivateCommand on inactive InputConnection\n'
p113
sa(dp114
g2
S'20229'
p115
sg4
L1449660305423L
sg5
g45
sg7
S'IInputConnectionWrapper'
p116
sg9
S'20229'
p117
sg11
S'performPrivateCommand on inactive InputConnection\n'
p118
sa(dp119
g2
S'20229'
p120
sg4
L1449660305973L
sg5
g45
sg7
S'IInputConnectionWrapper'
p121
sg9
S'20229'
p122
sg11
S'performPrivateCommand on inactive InputConnection\n'
p123
sa(dp124
g2
S'20229'
p125
sg4
L1449660309953L
sg5
g45
sg7
S'dalvikvm'
p126
sg9
S'20289'
p127
sg11
S'threadid=15: thread exiting with uncaught exception (group=0x417b7940)\n'
p128
sa(dp129
g2
S'20229'
p130
sg4
L1449660309953L
sg5
g6
sg7
S'AndroidRuntime'
p131
sg9
S'20289'
p132
sg11
S'FATAL EXCEPTION: Thread-6313\njava.lang.NullPointerException\n\tat android.app.Instrumentation.finish(Instrumentation.java:190)\n\tat cn.edu.nju.ise.kikandroid.AUTInstrument.quitInstr(AUTInstrument.java:195)\n\tat cn.edu.nju.ise.kikandroid.AUTInstrument.startServer(AUTInstrument.java:161)\n\tat cn.edu.nju.ise.kikandroid.AUTInstrument$1.run(AUTInstrument.java:107)\n\tat java.lang.Thread.run(Thread.java:841)\n'
p133
sa.