(lp0
(dp1
S'processID'
p2
S'28906'
p3
sS'SyscTime'
p4
L1449718039782L
sS'priority'
p5
S'D'
p6
sS'tag'
p7
S'dalvikvm'
p8
sS'threadID'
p9
S'28909'
p10
sS'message'
p11
S'GC_CONCURRENT freed 4984K, 28% free 16804K/23180K, paused 2ms+3ms, total 27ms\n'
p12
sa(dp13
g2
S'28906'
p14
sg4
L1449718039962L
sg5
g6
sg7
S'MainActivity'
p15
sg9
S'29130'
p16
sg11
S'h:5684.15,w:7950.53\n'
p17
sa(dp18
g2
S'28906'
p19
sg4
L1449718040512L
sg5
g6
sg7
S'MainActivity'
p20
sg9
S'29130'
p21
sg11
S'h:670.006,w:1569.5\n'
p22
sa(dp23
g2
S'28906'
p24
sg4
L1449718041402L
sg5
g6
sg7
S'MainActivity'
p25
sg9
S'29130'
p26
sg11
S'h:670.006,w:1569.5\n'
p27
sa(dp28
g2
S'28906'
p29
sg4
L1449718055232L
sg5
g6
sg7
S'MainActivity'
p30
sg9
S'29130'
p31
sg11
S'h:5684.15,w:7950.53\n'
p32
sa(dp33
g2
S'28906'
p34
sg4
L1449718056422L
sg5
g6
sg7
S'MainActivity'
p35
sg9
S'29130'
p36
sg11
S'h:5684.15,w:7950.53\n'
p37
sa(dp38
g2
S'28906'
p39
sg4
L1449718056872L
sg5
g6
sg7
S'MainActivity'
p40
sg9
S'29130'
p41
sg11
S'h:766.083,w:1687.5\n'
p42
sa(dp43
g2
S'28906'
p44
sg4
L1449718057162L
sg5
S'I'
p45
sg7
S'Web Console'
p46
sg9
S'28906'
p47
sg11
S'No data received from server at http://oa.paneng.cn:1143/se9200/dwr/engine.js:599\n'
p48
sa(dp49
g2
S'28906'
p50
sg4
L1449718058392L
sg5
g45
sg7
S'Web Console'
p51
sg9
S'28906'
p52
sg11
S'No data received from server at http://oa.paneng.cn:1143/se9200/dwr/engine.js:599\n'
p53
sa(dp54
g2
S'28906'
p55
sg4
L1449718058422L
sg5
g45
sg7
S'Web Console'
p56
sg9
S'28906'
p57
sg11
S'No data received from server at http://oa.paneng.cn:1143/se9200/dwr/engine.js:599\n'
p58
sa(dp59
g2
S'28906'
p60
sg4
L1449718065702L
sg5
g6
sg7
S'chromium'
p61
sg9
S'29130'
p62
sg11
S'Unknown chromium error: -3\n'
p63
sa(dp64
g2
S'28936'
p65
sg4
L1449718067272L
sg5
g6
sg7
S'SocketService'
p66
sg9
S'28950'
p67
sg11
S'start to run current thread!id:6473\n'
p68
sa(dp69
g2
S'28936'
p70
sg4
L1449718067322L
sg5
g6
sg7
S'SocketService'
p71
sg9
S'32075'
p72
sg11
S'ip/10.59.244.55 lport:47482 p:143\n'
p73
sa(dp74
g2
S'28936'
p75
sg4
L1449718067332L
sg5
g6
sg7
S'ForegroundActivity'
p76
sg9
S'32075'
p77
sg11
S'\xe6\x9c\xac\xe6\xac\xa1\xe5\x8f\x91\xe9\x80\x81\xe5\xb8\xa7\xe9\x95\xbf:35\t\xe6\x80\xbb\xe5\xb8\xa7\xe9\x95\xbf:203\n'
p78
sa(dp79
g2
S'28936'
p80
sg4
L1449718067332L
sg5
g6
sg7
S'SocketService'
p81
sg9
S'32075'
p82
sg11
S'success to connect server!id:6473 bLogin:false\n'
p83
sa(dp84
g2
S'28936'
p85
sg4
L1449718067452L
sg5
g6
sg7
S'ForegroundActivity'
p86
sg9
S'30180'
p87
sg11
S'\xe6\x9c\xac\xe6\xac\xa1\xe6\x94\xb6\xe5\x88\xb0\xe5\xb8\xa7\xe9\x95\xbf:13\t\xe6\x80\xbb\xe5\xb8\xa7\xe9\x95\xbf:1495\n'
p88
sa(dp89
g2
S'28936'
p90
sg4
L1449718067772L
sg5
g6
sg7
S'SocketService1'
p91
sg9
S'28952'
p92
sg11
S'\xe6\x9c\xac\xe6\xac\xa1\xe6\x8f\x90\xe5\x8f\x961:LoadPtr:1495 HeadIndex:1482 GetSize:13 13 0 \xe5\xa4\xb4\xe4\xbf\xa1\xe6\x81\xaf:EB 90 EB 90 EB 90 0D 00 0E 01 \n'
p93
sa(dp94
g2
S'28906'
p95
sg4
L1449718067782L
sg5
g6
sg7
S'MainActivity'
p96
sg9
S'28906'
p97
sg11
S'Unkown Report:ffffffeb ffffff90 ffffffeb ffffff90 ffffffeb ffffff90 d 0 e 1 1 0 ffffff81 \n'
p98
sa(dp99
g2
S'28936'
p100
sg4
L1449718068222L
sg5
g6
sg7
S'dalvikvm'
p101
sg9
S'28940'
p102
sg11
S'GC_CONCURRENT freed 1426K, 35% free 3854K/5892K, paused 2ms+1ms, total 19ms\n'
p103
sa(dp104
g2
S'28936'
p105
sg4
L1449718068332L
sg5
g6
sg7
S'ForegroundActivity'
p106
sg9
S'32075'
p107
sg11
S'\xe6\x9c\xac\xe6\xac\xa1\xe5\x8f\x91\xe9\x80\x81\xe5\xb8\xa7\xe9\x95\xbf:11\t\xe6\x80\xbb\xe5\xb8\xa7\xe9\x95\xbf:214\n'
p108
sa(dp109
g2
S'28936'
p110
sg4
L1449718068432L
sg5
g6
sg7
S'ForegroundActivity'
p111
sg9
S'30180'
p112
sg11
S'\xe6\x9c\xac\xe6\xac\xa1\xe6\x94\xb6\xe5\x88\xb0\xe5\xb8\xa7\xe9\x95\xbf:642\t\xe6\x80\xbb\xe5\xb8\xa7\xe9\x95\xbf:2137\n'
p113
sa(dp114
g2
S'28936'
p115
sg4
L1449718068792L
sg5
g6
sg7
S'SocketService1'
p116
sg9
S'28952'
p117
sg11
S'\xe6\x9c\xac\xe6\xac\xa1\xe6\x8f\x90\xe5\x8f\x961:LoadPtr:2137 HeadIndex:1495 GetSize:642 130 512 \xe5\xa4\xb4\xe4\xbf\xa1\xe6\x81\xaf:EB 90 EB 90 EB 90 82 02 14 0A \n'
p118
sa(dp119
g2
S'28906'
p120
sg4
L1449718068842L
sg5
g6
sg7
S'dalvikvm'
p121
sg9
S'28909'
p122
sg11
S'GC_CONCURRENT freed 901K, 14% free 19629K/22600K, paused 2ms+3ms, total 37ms\n'
p123
sa(dp124
g2
S'28906'
p125
sg4
L1449718068842L
sg5
g6
sg7
S'dalvikvm'
p126
sg9
S'28906'
p127
sg11
S'WAIT_FOR_CONCURRENT_GC blocked 26ms\n'
p128
sa(dp129
g2
S'28906'
p130
sg4
L1449718068862L
sg5
g6
sg7
S'MainActivity'
p131
sg9
S'28906'
p132
sg11
S'page0:http://oa.paneng.cn:1143/se9200/realdata/realdata.html\n'
p133
sa(dp134
g2
S'28906'
p135
sg4
L1449718068862L
sg5
g6
sg7
S'MainActivity'
p136
sg9
S'28906'
p137
sg11
S'page1:http://oa.paneng.cn:1143/se9200/graph/gshow.jsp?mRID=1130000050\n'
p138
sa(dp139
g2
S'28906'
p140
sg4
L1449718068862L
sg5
g6
sg7
S'MainActivity'
p141
sg9
S'28906'
p142
sg11
S'page2:http://oa.paneng.cn:1143/se9200/graph/gshow.jsp?mRID=1130000052\n'
p143
sa(dp144
g2
S'28906'
p145
sg4
L1449718068862L
sg5
g6
sg7
S'MainActivity'
p146
sg9
S'28906'
p147
sg11
S'page3:http://oa.paneng.cn:1143/se9200/graph/gshow.jsp?mRID=1130000054\n'
p148
sa(dp149
g2
S'28906'
p150
sg4
L1449718068862L
sg5
g6
sg7
S'MainActivity'
p151
sg9
S'28906'
p152
sg11
S'page4:http://oa.paneng.cn:1143/se9200/graph/gshow.jsp?mRID=1130000007\n'
p153
sa(dp154
g2
S'28906'
p155
sg4
L1449718068862L
sg5
g6
sg7
S'MainActivity'
p156
sg9
S'28906'
p157
sg11
S'page5:http://oa.paneng.cn:1143/se9200/graph/gshow.jsp?mRID=1130000047\n'
p158
sa(dp159
g2
S'28906'
p160
sg4
L1449718068862L
sg5
g6
sg7
S'MainActivity'
p161
sg9
S'28906'
p162
sg11
S'page6:http://oa.paneng.cn:1143/se9200/graph/gshow.jsp?mRID=1130000011\n'
p163
sa(dp164
g2
S'28906'
p165
sg4
L1449718068862L
sg5
g6
sg7
S'MainActivity'
p166
sg9
S'28906'
p167
sg11
S'page7:http://oa.paneng.cn:1143/se9200/graph/gshow.jsp?mRID=1130000005\n'
p168
sa(dp169
g2
S'28906'
p170
sg4
L1449718068862L
sg5
g6
sg7
S'MainActivity'
p171
sg9
S'28906'
p172
sg11
S'page8:http://oa.paneng.cn:1143/se9200/graph/gshow.jsp?mRID=1130000148\n'
p173
sa(dp174
g2
S'28906'
p175
sg4
L1449718068862L
sg5
g6
sg7
S'MainActivity'
p176
sg9
S'28906'
p177
sg11
S'page9:http://oa.paneng.cn:1143/se9200/graph/gshow.jsp?mRID=1130000296\n'
p178
sa(dp179
g2
S'28906'
p180
sg4
L1449718068962L
sg5
g6
sg7
S'cn.edu.nju.ise.kikandroid'
p181
sg9
S'28959'
p182
sg11
S'Screenshot:1449718068801\n'
p183
sa(dp184
g2
S'28936'
p185
sg4
L1449718069332L
sg5
g6
sg7
S'ForegroundActivity'
p186
sg9
S'32075'
p187
sg11
S'\xe6\x9c\xac\xe6\xac\xa1\xe5\x8f\x91\xe9\x80\x81\xe5\xb8\xa7\xe9\x95\xbf:11\t\xe6\x80\xbb\xe5\xb8\xa7\xe9\x95\xbf:225\n'
p188
sa(dp189
g2
S'28936'
p190
sg4
L1449718069462L
sg5
g6
sg7
S'ForegroundActivity'
p191
sg9
S'30180'
p192
sg11
S'\xe6\x9c\xac\xe6\xac\xa1\xe6\x94\xb6\xe5\x88\xb0\xe5\xb8\xa7\xe9\x95\xbf:67\t\xe6\x80\xbb\xe5\xb8\xa7\xe9\x95\xbf:2204\n'
p193
sa(dp194
g2
S'28936'
p195
sg4
L1449718069842L
sg5
g6
sg7
S'SocketService1'
p196
sg9
S'28952'
p197
sg11
S'\xe6\x9c\xac\xe6\xac\xa1\xe6\x8f\x90\xe5\x8f\x961:LoadPtr:2204 HeadIndex:2137 GetSize:67 67 0 \xe5\xa4\xb4\xe4\xbf\xa1\xe6\x81\xaf:EB 90 EB 90 EB 90 43 00 15 02 \n'
p198
sa(dp199
g2
S'28906'
p200
sg4
L1449718069852L
sg5
g6
sg7
S'MainActivity'
p201
sg9
S'28906'
p202
sg11
S'ServerVersion:23 LocalVersion:12\n'
p203
sa(dp204
g2
S'28906'
p205
sg4
L1449718072412L
sg5
g6
sg7
S'MainActivity'
p206
sg9
S'29130'
p207
sg11
S'h:670.006,w:1569.5\n'
p208
sa(dp209
g2
S'28906'
p210
sg4
L1449718078252L
sg5
g6
sg7
S'dalvikvm'
p211
sg9
S'28906'
p212
sg11
S'GC_FOR_ALLOC freed 4389K, 28% free 17768K/24624K, paused 84ms, total 84ms\n'
p213
sa(dp214
g2
S'28906'
p215
sg4
L1449718078352L
sg5
g6
sg7
S'dalvikvm'
p216
sg9
S'28909'
p217
sg11
S'GC_CONCURRENT freed 2054K, 20% free 19771K/24624K, paused 3ms+3ms, total 47ms\n'
p218
sa(dp219
g2
S'28906'
p220
sg4
L1449718078462L
sg5
g6
sg7
S'cn.edu.nju.ise.kikandroid'
p221
sg9
S'28959'
p222
sg11
S'Screenshot:1449718078170\n'
p223
sa(dp224
g2
S'28906'
p225
sg4
L1449718081392L
sg5
g45
sg7
S'dalvikvm'
p226
sg9
S'28913'
p227
sg11
S'Jit: resizing JitTable from 4096 to 8192\n'
p228
sa(dp229
g2
S'28906'
p230
sg4
L1449718090982L
sg5
g6
sg7
S'MainActivity'
p231
sg9
S'28906'
p232
sg11
S'V.getTag:null v.id:2131230736\n'
p233
sa(dp234
g2
S'28906'
p235
sg4
L1449718091862L
sg5
g6
sg7
S'MainActivity'
p236
sg9
S'28906'
p237
sg11
S'V.getTag:null v.id:2131230738\n'
p238
sa(dp239
g2
S'28906'
p240
sg4
L1449718092762L
sg5
g6
sg7
S'MainActivity'
p241
sg9
S'28906'
p242
sg11
S'V.getTag:null v.id:2131230740\n'
p243
sa(dp244
g2
S'28906'
p245
sg4
L1449718098982L
sg5
g6
sg7
S'cn.edu.nju.ise.kikandroid'
p246
sg9
S'28959'
p247
sg11
S'Log:1449718098991\n'
p248
sa(dp249
g2
S'28906'
p250
sg4
L1449718099162L
sg5
g6
sg7
S'dalvikvm'
p251
sg9
S'28909'
p252
sg11
S'GC_CONCURRENT freed 2917K, 17% free 20569K/24624K, paused 3ms+4ms, total 48ms\n'
p253
sa(dp254
g2
S'28906'
p255
sg4
L1449718099292L
sg5
g6
sg7
S'cn.edu.nju.ise.kikandroid'
p256
sg9
S'28959'
p257
sg11
S'Screenshot:1449718099075\n'
p258
sa(dp259
g2
S'28906'
p260
sg4
L1449718099292L
sg5
S'W'
p261
sg7
S'dalvikvm'
p262
sg9
S'28959'
p263
sg11
S'threadid=14: thread exiting with uncaught exception (group=0x4164f8e0)\n'
p264
sa(dp265
g2
S'28906'
p266
sg4
L1449718099302L
sg5
S'E'
p267
sg7
S'AndroidRuntime'
p268
sg9
S'28959'
p269
sg11
S'FATAL EXCEPTION: Thread-6464\njava.lang.NullPointerException\n\tat android.app.Instrumentation.finish(Instrumentation.java:190)\n\tat cn.edu.nju.ise.kikandroid.AUTInstrument.quitInstr(AUTInstrument.java:195)\n\tat cn.edu.nju.ise.kikandroid.AUTInstrument.startServer(AUTInstrument.java:161)\n\tat cn.edu.nju.ise.kikandroid.AUTInstrument$1.run(AUTInstrument.java:107)\n\tat java.lang.Thread.run(Thread.java:841)\n'
p270
sa.