(lp0
(dp1
S'EventTime'
p2
S'40964332'
p3
sS'SyscTime'
p4
L1449904003294L
sS'recordCount'
p5
S'0'
p6
sS'EventType'
p7
S'TYPE_WINDOW_STATE_CHANGED'
p8
sS'PackageName'
p9
S'com.taobao.ishopping'
p10
sS'OutBounds'
p11
S'Rect(0, 0 - 1080, 1776)'
p12
sS'Action'
p13
S'[ ClassName: com.taobao.ishopping.activity.SplashActivity; Text: [\xe7\x88\xb1\xe9\x80\x9b\xe8\xa1\x97]; ContentDescription: null; ItemCount: -1; CurrentItemIndex: -1; IsEnabled: true; IsPassword: false; IsChecked: false; IsFullScreen: true; Scrollable: false; BeforeText: null; FromIndex: -1; ToIndex: -1; ScrollX: -1; ScrollY: -1; MaxScrollX: -1; MaxScrollY: -1; AddedCount: -1; RemovedCount: -1; ParcelableData: null ]'
p14
sS'MovementGranularity'
p15
g6
sa(dp16
S'EventTime'
p17
S'40964396'
p18
sg4
L1449904003349L
sS'recordCount'
p19
g6
sS'EventType'
p20
S'TYPE_WINDOW_CONTENT_CHANGED'
p21
sS'PackageName'
p22
S'com.taobao.ishopping'
p23
sS'OutBounds'
p24
S'Rect(0, 0 - 1080, 1776)'
p25
sS'Action'
p26
S'[ ClassName: android.widget.FrameLayout; Text: []; ContentDescription: null; ItemCount: -1; CurrentItemIndex: -1; IsEnabled: true; IsPassword: false; IsChecked: false; IsFullScreen: false; Scrollable: false; BeforeText: null; FromIndex: -1; ToIndex: -1; ScrollX: -1; ScrollY: -1; MaxScrollX: -1; MaxScrollY: -1; AddedCount: -1; RemovedCount: -1; ParcelableData: null ]'
p27
sS'MovementGranularity'
p28
g6
sa(dp29
S'EventTime'
p30
S'40966170'
p31
sg4
L1449904005135L
sS'recordCount'
p32
g6
sS'EventType'
p33
S'TYPE_WINDOW_CONTENT_CHANGED'
p34
sS'PackageName'
p35
S'com.taobao.ishopping'
p36
sS'OutBounds'
p37
S'Rect(205, 1518 - 875, 1584)'
p38
sS'Action'
p39
S'[ ClassName: android.widget.TextView; Text: []; ContentDescription: null; ItemCount: -1; CurrentItemIndex: -1; IsEnabled: true; IsPassword: false; IsChecked: false; IsFullScreen: false; Scrollable: false; BeforeText: null; FromIndex: -1; ToIndex: -1; ScrollX: -1; ScrollY: -1; MaxScrollX: -1; MaxScrollY: -1; AddedCount: -1; RemovedCount: -1; ParcelableData: null ]'
p40
sS'MovementGranularity'
p41
g6
sa(dp42
S'EventTime'
p43
S'40966284'
p44
sg4
L1449904005245L
sS'recordCount'
p45
g6
sS'EventType'
p46
S'TYPE_WINDOW_CONTENT_CHANGED'
p47
sS'PackageName'
p48
S'com.taobao.ishopping'
p49
sS'OutBounds'
p50
S'Rect(205, 1584 - 875, 1658)'
p51
sS'Action'
p52
S'[ ClassName: android.widget.TextView; Text: []; ContentDescription: null; ItemCount: -1; CurrentItemIndex: -1; IsEnabled: true; IsPassword: false; IsChecked: false; IsFullScreen: false; Scrollable: false; BeforeText: null; FromIndex: -1; ToIndex: -1; ScrollX: -1; ScrollY: -1; MaxScrollX: -1; MaxScrollY: -1; AddedCount: -1; RemovedCount: -1; ParcelableData: null ]'
p53
sS'MovementGranularity'
p54
g6
sa(dp55
S'EventTime'
p56
S'40966449'
p57
sg4
L1449904005424L
sS'recordCount'
p58
g6
sS'EventType'
p59
S'TYPE_WINDOW_CONTENT_CHANGED'
p60
sS'PackageName'
p61
S'com.taobao.ishopping'
p62
sS'OutBounds'
p63
S'Rect(205, 1584 - 875, 1658)'
p64
sS'Action'
p65
S'[ ClassName: android.widget.TextView; Text: []; ContentDescription: null; ItemCount: -1; CurrentItemIndex: -1; IsEnabled: true; IsPassword: false; IsChecked: false; IsFullScreen: false; Scrollable: false; BeforeText: null; FromIndex: -1; ToIndex: -1; ScrollX: -1; ScrollY: -1; MaxScrollX: -1; MaxScrollY: -1; AddedCount: -1; RemovedCount: -1; ParcelableData: null ]'
p66
sS'MovementGranularity'
p67
g6
sa(dp68
S'EventTime'
p69
S'40971092'
p70
sg4
L1449904010068L
sS'recordCount'
p71
g6
sS'EventType'
p72
S'TYPE_WINDOW_STATE_CHANGED'
p73
sS'PackageName'
p74
S'com.taobao.ishopping'
p75
sS'OutBounds'
p76
S'Rect(0, 0 - 1080, 1776)'
p77
sS'Action'
p78
S'[ ClassName: com.taobao.ishopping.activity.home.MainActivity; Text: [\xe7\x88\xb1\xe9\x80\x9b\xe8\xa1\x97]; ContentDescription: null; ItemCount: -1; CurrentItemIndex: -1; IsEnabled: true; IsPassword: false; IsChecked: false; IsFullScreen: true; Scrollable: false; BeforeText: null; FromIndex: -1; ToIndex: -1; ScrollX: -1; ScrollY: -1; MaxScrollX: -1; MaxScrollY: -1; AddedCount: -1; RemovedCount: -1; ParcelableData: null ]'
p79
sS'MovementGranularity'
p80
g6
sa(dp81
S'EventTime'
p82
S'40971187'
p83
sg4
L1449904010152L
sS'recordCount'
p84
g6
sS'EventType'
p85
S'TYPE_VIEW_SCROLLED'
p86
sS'PackageName'
p87
S'com.taobao.ishopping'
p88
sS'OutBounds'
p89
S'Rect(0, 75 - 1080, 1615)'
p90
sS'Action'
p91
S'[ ClassName: android.support.v7.widget.RecyclerView; Text: []; ContentDescription: null; ItemCount: 4; CurrentItemIndex: -1; IsEnabled: true; IsPassword: false; IsChecked: false; IsFullScreen: false; Scrollable: false; BeforeText: null; FromIndex: 0; ToIndex: 3; ScrollX: -1; ScrollY: -1; MaxScrollX: -1; MaxScrollY: -1; AddedCount: -1; RemovedCount: -1; ParcelableData: null ]'
p92
sS'MovementGranularity'
p93
g6
sa(dp94
S'EventTime'
p95
S'40971215'
p96
sg4
L1449904010172L
sS'recordCount'
p97
g6
sS'EventType'
p98
S'TYPE_WINDOW_CONTENT_CHANGED'
p99
sS'PackageName'
p100
S'com.taobao.ishopping'
p101
sS'OutBounds'
p102
S'Rect(726, 1708 - 786, 1755)'
p103
sS'Action'
p104
S'[ ClassName: android.widget.TextView; Text: []; ContentDescription: null; ItemCount: -1; CurrentItemIndex: -1; IsEnabled: true; IsPassword: false; IsChecked: false; IsFullScreen: false; Scrollable: false; BeforeText: null; FromIndex: -1; ToIndex: -1; ScrollX: -1; ScrollY: -1; MaxScrollX: -1; MaxScrollY: -1; AddedCount: -1; RemovedCount: -1; ParcelableData: null ]'
p105
sS'MovementGranularity'
p106
g6
sa(dp107
S'EventTime'
p108
S'40972488'
p109
sg4
L1449904011439L
sS'recordCount'
p110
g6
sS'EventType'
p111
S'TYPE_VIEW_CLICKED'
p112
sS'PackageName'
p113
S'com.taobao.ishopping'
p114
sS'OutBounds'
p115
S'Rect(216, 1615 - 432, 1776)'
p116
sS'Action'
p117
S'[ ClassName: android.widget.RelativeLayout; Text: [\xe7\xbe\xa4]; ContentDescription: null; ItemCount: -1; CurrentItemIndex: -1; IsEnabled: true; IsPassword: false; IsChecked: false; IsFullScreen: false; Scrollable: false; BeforeText: null; FromIndex: -1; ToIndex: -1; ScrollX: -1; ScrollY: -1; MaxScrollX: -1; MaxScrollY: -1; AddedCount: -1; RemovedCount: -1; ParcelableData: null ]'
p118
sS'MovementGranularity'
p119
g6
sa(dp120
S'EventTime'
p121
S'40972501'
p122
sg4
L1449904011532L
sS'recordCount'
p123
g6
sS'EventType'
p124
S'TYPE_WINDOW_CONTENT_CHANGED'
p125
sS'PackageName'
p126
S'com.taobao.ishopping'
p127
sS'OutBounds'
p128
S'Rect(216, 1615 - 432, 1776)'
p129
sS'Action'
p130
S'[ ClassName: android.widget.RelativeLayout; Text: []; ContentDescription: null; ItemCount: -1; CurrentItemIndex: -1; IsEnabled: true; IsPassword: false; IsChecked: false; IsFullScreen: false; Scrollable: false; BeforeText: null; FromIndex: -1; ToIndex: -1; ScrollX: -1; ScrollY: -1; MaxScrollX: -1; MaxScrollY: -1; AddedCount: -1; RemovedCount: -1; ParcelableData: null ]'
p131
sS'MovementGranularity'
p132
g6
sa(dp133
S'EventTime'
p134
S'40972703'
p135
sg4
L1449904011657L
sS'recordCount'
p136
g6
sS'EventType'
p137
S'TYPE_WINDOW_CONTENT_CHANGED'
p138
sS'PackageName'
p139
S'com.taobao.ishopping'
p140
sS'OutBounds'
p141
S'Rect(0, 109 - 1080, 172)'
p142
sS'Action'
p143
S'[ ClassName: android.widget.TextView; Text: []; ContentDescription: null; ItemCount: -1; CurrentItemIndex: -1; IsEnabled: true; IsPassword: false; IsChecked: false; IsFullScreen: false; Scrollable: false; BeforeText: null; FromIndex: -1; ToIndex: -1; ScrollX: -1; ScrollY: -1; MaxScrollX: -1; MaxScrollY: -1; AddedCount: -1; RemovedCount: -1; ParcelableData: null ]'
p144
sS'MovementGranularity'
p145
g6
sa(dp146
S'EventTime'
p147
S'40972898'
p148
sg4
L1449904011851L
sS'recordCount'
p149
g6
sS'EventType'
p150
S'TYPE_WINDOW_CONTENT_CHANGED'
p151
sS'PackageName'
p152
S'com.taobao.ishopping'
p153
sS'OutBounds'
p154
S'Rect(0, 207 - 1080, 1615)'
p155
sS'Action'
p156
S'[ ClassName: com.android.org.chromium.content.browser.ContentViewCore; Text: []; ContentDescription: \xe7\xbd\x91\xe9\xa1\xb5\xe8\xa7\x86\xe5\x9b\xbe; ItemCount: -1; CurrentItemIndex: -1; IsEnabled: true; IsPassword: false; IsChecked: false; IsFullScreen: false; Scrollable: true; BeforeText: null; FromIndex: -1; ToIndex: -1; ScrollX: 0; ScrollY: 0; MaxScrollX: 0; MaxScrollY: 2; AddedCount: -1; RemovedCount: -1; ParcelableData: null ]'
p157
sS'MovementGranularity'
p158
g6
sa(dp159
S'EventTime'
p160
S'40978994'
p161
sg4
L1449904017947L
sS'recordCount'
p162
g6
sS'EventType'
p163
S'TYPE_WINDOW_CONTENT_CHANGED'
p164
sS'PackageName'
p165
S'com.taobao.ishopping'
p166
sS'OutBounds'
p167
S'Rect(0, 207 - 1080, 1615)'
p168
sS'Action'
p169
S'[ ClassName: com.android.org.chromium.content.browser.ContentViewCore; Text: []; ContentDescription: \xe7\xbd\x91\xe9\xa1\xb5\xe8\xa7\x86\xe5\x9b\xbe; ItemCount: -1; CurrentItemIndex: -1; IsEnabled: true; IsPassword: false; IsChecked: false; IsFullScreen: false; Scrollable: true; BeforeText: null; FromIndex: -1; ToIndex: -1; ScrollX: 0; ScrollY: 0; MaxScrollX: 0; MaxScrollY: 5120; AddedCount: -1; RemovedCount: -1; ParcelableData: null ]'
p170
sS'MovementGranularity'
p171
g6
sa(dp172
S'EventTime'
p173
S'40982068'
p174
sg4
L1449904021025L
sS'recordCount'
p175
g6
sS'EventType'
p176
S'TYPE_WINDOW_STATE_CHANGED'
p177
sS'PackageName'
p178
S'com.taobao.ishopping'
p179
sS'OutBounds'
p180
S'Rect(0, 0 - 1080, 1776)'
p181
sS'Action'
p182
S'[ ClassName: com.taobao.ishopping.thirdparty.windvane.HybridWVActivity; Text: [\xe7\x88\xb1\xe9\x80\x9b\xe8\xa1\x97]; ContentDescription: null; ItemCount: -1; CurrentItemIndex: -1; IsEnabled: true; IsPassword: false; IsChecked: false; IsFullScreen: true; Scrollable: false; BeforeText: null; FromIndex: -1; ToIndex: -1; ScrollX: -1; ScrollY: -1; MaxScrollX: -1; MaxScrollY: -1; AddedCount: -1; RemovedCount: -1; ParcelableData: null ]'
p183
sS'MovementGranularity'
p184
g6
sa(dp185
S'EventTime'
p186
S'40982141'
p187
sg4
L1449904021101L
sS'recordCount'
p188
g6
sS'EventType'
p189
S'TYPE_WINDOW_CONTENT_CHANGED'
p190
sS'PackageName'
p191
S'com.taobao.ishopping'
p192
sS'OutBounds'
p193
S'Rect(0, 75 - 168, 207)'
p194
sS'Action'
p195
S'[ ClassName: android.widget.ImageButton; Text: []; ContentDescription: \xe8\xbd\xac\xe5\x88\xb0\xe4\xb8\x8a\xe4\xb8\x80\xe5\xb1\x82\xe7\xba\xa7; ItemCount: -1; CurrentItemIndex: -1; IsEnabled: true; IsPassword: false; IsChecked: false; IsFullScreen: false; Scrollable: false; BeforeText: null; FromIndex: -1; ToIndex: -1; ScrollX: -1; ScrollY: -1; MaxScrollX: -1; MaxScrollY: -1; AddedCount: -1; RemovedCount: -1; ParcelableData: null ]'
p196
sS'MovementGranularity'
p197
g6
sa(dp198
S'EventTime'
p199
S'40982250'
p200
sg4
L1449904021202L
sS'recordCount'
p201
g6
sS'EventType'
p202
S'TYPE_WINDOW_CONTENT_CHANGED'
p203
sS'PackageName'
p204
S'com.taobao.ishopping'
p205
sS'OutBounds'
p206
S'Rect(513, 109 - 567, 172)'
p207
sS'Action'
p208
S'[ ClassName: android.widget.TextView; Text: []; ContentDescription: null; ItemCount: -1; CurrentItemIndex: -1; IsEnabled: true; IsPassword: false; IsChecked: false; IsFullScreen: false; Scrollable: false; BeforeText: null; FromIndex: -1; ToIndex: -1; ScrollX: -1; ScrollY: -1; MaxScrollX: -1; MaxScrollY: -1; AddedCount: -1; RemovedCount: -1; ParcelableData: null ]'
p209
sS'MovementGranularity'
p210
g6
sa(dp211
S'EventTime'
p212
S'40988749'
p213
sg4
L1449904027700L
sS'recordCount'
p214
g6
sS'EventType'
p215
S'TYPE_VIEW_CLICKED'
p216
sS'PackageName'
p217
S'com.taobao.ishopping'
p218
sS'OutBounds'
p219
S'Rect(0, 75 - 168, 207)'
p220
sS'Action'
p221
S'[ ClassName: android.widget.ImageButton; Text: [\xe8\xbd\xac\xe5\x88\xb0\xe4\xb8\x8a\xe4\xb8\x80\xe5\xb1\x82\xe7\xba\xa7]; ContentDescription: \xe8\xbd\xac\xe5\x88\xb0\xe4\xb8\x8a\xe4\xb8\x80\xe5\xb1\x82\xe7\xba\xa7; ItemCount: -1; CurrentItemIndex: -1; IsEnabled: true; IsPassword: false; IsChecked: false; IsFullScreen: false; Scrollable: false; BeforeText: null; FromIndex: -1; ToIndex: -1; ScrollX: -1; ScrollY: -1; MaxScrollX: -1; MaxScrollY: -1; AddedCount: -1; RemovedCount: -1; ParcelableData: null ]'
p222
sS'MovementGranularity'
p223
g6
sa(dp224
S'EventTime'
p225
S'40988793'
p226
sg4
L1449904027753L
sS'recordCount'
p227
g6
sS'EventType'
p228
S'TYPE_WINDOW_STATE_CHANGED'
p229
sS'PackageName'
p230
S'com.taobao.ishopping'
p231
sS'OutBounds'
p232
S'Rect(0, 0 - 1080, 1776)'
p233
sS'Action'
p234
S'[ ClassName: com.taobao.ishopping.activity.home.MainActivity; Text: [\xe7\x88\xb1\xe9\x80\x9b\xe8\xa1\x97]; ContentDescription: null; ItemCount: -1; CurrentItemIndex: -1; IsEnabled: true; IsPassword: false; IsChecked: false; IsFullScreen: true; Scrollable: false; BeforeText: null; FromIndex: -1; ToIndex: -1; ScrollX: -1; ScrollY: -1; MaxScrollX: -1; MaxScrollY: -1; AddedCount: -1; RemovedCount: -1; ParcelableData: null ]'
p235
sS'MovementGranularity'
p236
g6
sa(dp237
S'EventTime'
p238
S'40989964'
p239
sg4
L1449904028937L
sS'recordCount'
p240
g6
sS'EventType'
p241
S'TYPE_WINDOW_STATE_CHANGED'
p242
sS'PackageName'
p243
S'com.taobao.ishopping'
p244
sS'OutBounds'
p245
S'Rect(0, 0 - 1080, 1776)'
p246
sS'Action'
p247
S'[ ClassName: com.taobao.ishopping.thirdparty.windvane.HybridWVActivity; Text: [\xe7\x88\xb1\xe9\x80\x9b\xe8\xa1\x97]; ContentDescription: null; ItemCount: -1; CurrentItemIndex: -1; IsEnabled: true; IsPassword: false; IsChecked: false; IsFullScreen: true; Scrollable: false; BeforeText: null; FromIndex: -1; ToIndex: -1; ScrollX: -1; ScrollY: -1; MaxScrollX: -1; MaxScrollY: -1; AddedCount: -1; RemovedCount: -1; ParcelableData: null ]'
p248
sS'MovementGranularity'
p249
g6
sa(dp250
S'EventTime'
p251
S'40990138'
p252
sg4
L1449904029090L
sS'recordCount'
p253
g6
sS'EventType'
p254
S'TYPE_WINDOW_CONTENT_CHANGED'
p255
sS'PackageName'
p256
S'com.taobao.ishopping'
p257
sS'OutBounds'
p258
S'Rect(513, 109 - 567, 172)'
p259
sS'Action'
p260
S'[ ClassName: android.widget.TextView; Text: []; ContentDescription: null; ItemCount: -1; CurrentItemIndex: -1; IsEnabled: true; IsPassword: false; IsChecked: false; IsFullScreen: false; Scrollable: false; BeforeText: null; FromIndex: -1; ToIndex: -1; ScrollX: -1; ScrollY: -1; MaxScrollX: -1; MaxScrollY: -1; AddedCount: -1; RemovedCount: -1; ParcelableData: null ]'
p261
sS'MovementGranularity'
p262
g6
sa(dp263
S'EventTime'
p264
S'40996413'
p265
sg4
L1449904035363L
sS'recordCount'
p266
g6
sS'EventType'
p267
S'TYPE_NOTIFICATION_STATE_CHANGED'
p268
sS'PackageName'
p269
S'com.taobao.ishopping'
p270
sS'Action'
p271
S'[ ClassName: android.widget.Toast$TN; Text: [\xe7\xbd\x91\xe7\xbb\x9c\xe9\x94\x99\xe8\xaf\xaf\xef\xbc\x8c\xe8\xaf\xb7\xe5\x88\xb7\xe6\x96\xb0\xe9\x87\x8d\xe8\xaf\x95]; ContentDescription: null; ItemCount: -1; CurrentItemIndex: -1; IsEnabled: false; IsPassword: false; IsChecked: false; IsFullScreen: false; Scrollable: false; BeforeText: null; FromIndex: -1; ToIndex: -1; ScrollX: -1; ScrollY: -1; MaxScrollX: -1; MaxScrollY: -1; AddedCount: -1; RemovedCount: -1; ParcelableData: null ]'
p272
sS'MovementGranularity'
p273
g6
sa(dp274
S'EventTime'
p275
S'40996448'
p276
sg4
L1449904035400L
sS'recordCount'
p277
g6
sS'EventType'
p278
S'TYPE_WINDOW_CONTENT_CHANGED'
p279
sS'PackageName'
p280
S'com.taobao.ishopping'
p281
sS'OutBounds'
p282
S'Rect(0, 207 - 1080, 1776)'
p283
sS'Action'
p284
S'[ ClassName: com.android.org.chromium.content.browser.ContentViewCore; Text: []; ContentDescription: \xe7\xbd\x91\xe9\xa1\xb5\xe8\xa7\x86\xe5\x9b\xbe; ItemCount: -1; CurrentItemIndex: -1; IsEnabled: true; IsPassword: false; IsChecked: false; IsFullScreen: false; Scrollable: false; BeforeText: null; FromIndex: -1; ToIndex: -1; ScrollX: 0; ScrollY: 0; MaxScrollX: 0; MaxScrollY: 0; AddedCount: -1; RemovedCount: -1; ParcelableData: null ]'
p285
sS'MovementGranularity'
p286
g6
sa(dp287
S'EventTime'
p288
S'40997450'
p289
sg4
L1449904036405L
sS'recordCount'
p290
g6
sS'EventType'
p291
S'TYPE_WINDOW_CONTENT_CHANGED'
p292
sS'PackageName'
p293
S'com.taobao.ishopping'
p294
sS'OutBounds'
p295
S'Rect(0, 207 - 1080, 1776)'
p296
sS'Action'
p297
S'[ ClassName: com.android.org.chromium.content.browser.ContentViewCore; Text: []; ContentDescription: \xe7\xbd\x91\xe9\xa1\xb5\xe8\xa7\x86\xe5\x9b\xbe; ItemCount: -1; CurrentItemIndex: -1; IsEnabled: true; IsPassword: false; IsChecked: false; IsFullScreen: false; Scrollable: false; BeforeText: null; FromIndex: -1; ToIndex: -1; ScrollX: 0; ScrollY: 0; MaxScrollX: 0; MaxScrollY: 0; AddedCount: -1; RemovedCount: -1; ParcelableData: null ]'
p298
sS'MovementGranularity'
p299
g6
sa(dp300
S'EventTime'
p301
S'40999521'
p302
sg4
L1449904038478L
sS'recordCount'
p303
g6
sS'EventType'
p304
S'TYPE_WINDOW_CONTENT_CHANGED'
p305
sS'PackageName'
p306
S'com.taobao.ishopping'
p307
sS'OutBounds'
p308
S'Rect(432, 109 - 648, 172)'
p309
sS'Action'
p310
S'[ ClassName: android.widget.TextView; Text: []; ContentDescription: null; ItemCount: -1; CurrentItemIndex: -1; IsEnabled: true; IsPassword: false; IsChecked: false; IsFullScreen: false; Scrollable: false; BeforeText: null; FromIndex: -1; ToIndex: -1; ScrollX: -1; ScrollY: -1; MaxScrollX: -1; MaxScrollY: -1; AddedCount: -1; RemovedCount: -1; ParcelableData: null ]'
p311
sS'MovementGranularity'
p312
g6
sa(dp313
S'EventTime'
p314
S'40999658'
p315
sg4
L1449904038611L
sS'recordCount'
p316
g6
sS'EventType'
p317
S'TYPE_WINDOW_CONTENT_CHANGED'
p318
sS'PackageName'
p319
S'com.taobao.ishopping'
p320
sS'OutBounds'
p321
S'Rect(936, 75 - 1080, 207)'
p322
sS'Action'
p323
S'[ ClassName: android.widget.TextView; Text: []; ContentDescription: \xe8\xae\xbe\xe7\xbd\xae; ItemCount: -1; CurrentItemIndex: -1; IsEnabled: true; IsPassword: false; IsChecked: false; IsFullScreen: false; Scrollable: false; BeforeText: null; FromIndex: -1; ToIndex: -1; ScrollX: -1; ScrollY: -1; MaxScrollX: -1; MaxScrollY: -1; AddedCount: -1; RemovedCount: -1; ParcelableData: null ]'
p324
sS'MovementGranularity'
p325
g6
sa(dp326
S'EventTime'
p327
S'40999840'
p328
sg4
L1449904038792L
sS'recordCount'
p329
g6
sS'EventType'
p330
S'TYPE_WINDOW_CONTENT_CHANGED'
p331
sS'PackageName'
p332
S'com.taobao.ishopping'
p333
sS'OutBounds'
p334
S'Rect(0, 207 - 1080, 1776)'
p335
sS'Action'
p336
S'[ ClassName: com.android.org.chromium.content.browser.ContentViewCore; Text: []; ContentDescription: \xe7\xbd\x91\xe9\xa1\xb5\xe8\xa7\x86\xe5\x9b\xbe; ItemCount: -1; CurrentItemIndex: -1; IsEnabled: true; IsPassword: false; IsChecked: false; IsFullScreen: false; Scrollable: false; BeforeText: null; FromIndex: -1; ToIndex: -1; ScrollX: 0; ScrollY: 0; MaxScrollX: 0; MaxScrollY: 0; AddedCount: -1; RemovedCount: -1; ParcelableData: null ]'
p337
sS'MovementGranularity'
p338
g6
sa(dp339
S'EventTime'
p340
S'40999964'
p341
sg4
L1449904038921L
sS'recordCount'
p342
g6
sS'EventType'
p343
S'TYPE_VIEW_SCROLLED'
p344
sS'PackageName'
p345
S'com.taobao.ishopping'
p346
sS'OutBounds'
p347
S'Rect(0, 207 - 1080, 1776)'
p348
sS'Action'
p349
S'[ ClassName: com.android.org.chromium.content.browser.ContentViewCore; Text: []; ContentDescription: \xe7\xbd\x91\xe9\xa1\xb5\xe8\xa7\x86\xe5\x9b\xbe; ItemCount: -1; CurrentItemIndex: -1; IsEnabled: true; IsPassword: false; IsChecked: false; IsFullScreen: false; Scrollable: true; BeforeText: null; FromIndex: -1; ToIndex: -1; ScrollX: 0; ScrollY: 1; MaxScrollX: 0; MaxScrollY: 435; AddedCount: -1; RemovedCount: -1; ParcelableData: null ]'
p350
sS'MovementGranularity'
p351
g6
sa(dp352
S'EventTime'
p353
S'41001306'
p354
sg4
L1449904040266L
sS'recordCount'
p355
g6
sS'EventType'
p356
S'TYPE_VIEW_SCROLLED'
p357
sS'PackageName'
p358
S'com.taobao.ishopping'
p359
sS'OutBounds'
p360
S'Rect(0, 207 - 1080, 1776)'
p361
sS'Action'
p362
S'[ ClassName: com.android.org.chromium.content.browser.ContentViewCore; Text: []; ContentDescription: \xe7\xbd\x91\xe9\xa1\xb5\xe8\xa7\x86\xe5\x9b\xbe; ItemCount: -1; CurrentItemIndex: -1; IsEnabled: true; IsPassword: false; IsChecked: false; IsFullScreen: false; Scrollable: true; BeforeText: null; FromIndex: -1; ToIndex: -1; ScrollX: 0; ScrollY: 85; MaxScrollX: 0; MaxScrollY: 435; AddedCount: -1; RemovedCount: -1; ParcelableData: null ]'
p363
sS'MovementGranularity'
p364
g6
sa(dp365
S'EventTime'
p366
S'41001414'
p367
sg4
L1449904040381L
sS'recordCount'
p368
g6
sS'EventType'
p369
S'TYPE_VIEW_SCROLLED'
p370
sS'PackageName'
p371
S'com.taobao.ishopping'
p372
sS'OutBounds'
p373
S'Rect(0, 207 - 1080, 1776)'
p374
sS'Action'
p375
S'[ ClassName: com.android.org.chromium.content.browser.ContentViewCore; Text: []; ContentDescription: \xe7\xbd\x91\xe9\xa1\xb5\xe8\xa7\x86\xe5\x9b\xbe; ItemCount: -1; CurrentItemIndex: -1; IsEnabled: true; IsPassword: false; IsChecked: false; IsFullScreen: false; Scrollable: true; BeforeText: null; FromIndex: -1; ToIndex: -1; ScrollX: 0; ScrollY: 93; MaxScrollX: 0; MaxScrollY: 435; AddedCount: -1; RemovedCount: -1; ParcelableData: null ]'
p376
sS'MovementGranularity'
p377
g6
sa(dp378
S'EventTime'
p379
S'41001531'
p380
sg4
L1449904040504L
sS'recordCount'
p381
g6
sS'EventType'
p382
S'TYPE_VIEW_SCROLLED'
p383
sS'PackageName'
p384
S'com.taobao.ishopping'
p385
sS'OutBounds'
p386
S'Rect(0, 207 - 1080, 1776)'
p387
sS'Action'
p388
S'[ ClassName: com.android.org.chromium.content.browser.ContentViewCore; Text: []; ContentDescription: \xe7\xbd\x91\xe9\xa1\xb5\xe8\xa7\x86\xe5\x9b\xbe; ItemCount: -1; CurrentItemIndex: -1; IsEnabled: true; IsPassword: false; IsChecked: false; IsFullScreen: false; Scrollable: true; BeforeText: null; FromIndex: -1; ToIndex: -1; ScrollX: 0; ScrollY: 144; MaxScrollX: 0; MaxScrollY: 435; AddedCount: -1; RemovedCount: -1; ParcelableData: null ]'
p389
sS'MovementGranularity'
p390
g6
sa(dp391
S'EventTime'
p392
S'41001653'
p393
sg4
L1449904040626L
sS'recordCount'
p394
g6
sS'EventType'
p395
S'TYPE_VIEW_SCROLLED'
p396
sS'PackageName'
p397
S'com.taobao.ishopping'
p398
sS'OutBounds'
p399
S'Rect(0, 207 - 1080, 1776)'
p400
sS'Action'
p401
S'[ ClassName: com.android.org.chromium.content.browser.ContentViewCore; Text: []; ContentDescription: \xe7\xbd\x91\xe9\xa1\xb5\xe8\xa7\x86\xe5\x9b\xbe; ItemCount: -1; CurrentItemIndex: -1; IsEnabled: true; IsPassword: false; IsChecked: false; IsFullScreen: false; Scrollable: true; BeforeText: null; FromIndex: -1; ToIndex: -1; ScrollX: 0; ScrollY: 230; MaxScrollX: 0; MaxScrollY: 435; AddedCount: -1; RemovedCount: -1; ParcelableData: null ]'
p402
sS'MovementGranularity'
p403
g6
sa(dp404
S'EventTime'
p405
S'41001776'
p406
sg4
L1449904040732L
sS'recordCount'
p407
g6
sS'EventType'
p408
S'TYPE_VIEW_SCROLLED'
p409
sS'PackageName'
p410
S'com.taobao.ishopping'
p411
sS'OutBounds'
p412
S'Rect(0, 207 - 1080, 1776)'
p413
sS'Action'
p414
S'[ ClassName: com.android.org.chromium.content.browser.ContentViewCore; Text: []; ContentDescription: \xe7\xbd\x91\xe9\xa1\xb5\xe8\xa7\x86\xe5\x9b\xbe; ItemCount: -1; CurrentItemIndex: -1; IsEnabled: true; IsPassword: false; IsChecked: false; IsFullScreen: false; Scrollable: true; BeforeText: null; FromIndex: -1; ToIndex: -1; ScrollX: 0; ScrollY: 273; MaxScrollX: 0; MaxScrollY: 435; AddedCount: -1; RemovedCount: -1; ParcelableData: null ]'
p415
sS'MovementGranularity'
p416
g6
sa(dp417
S'EventTime'
p418
S'41001883'
p419
sg4
L1449904040841L
sS'recordCount'
p420
g6
sS'EventType'
p421
S'TYPE_VIEW_SCROLLED'
p422
sS'PackageName'
p423
S'com.taobao.ishopping'
p424
sS'OutBounds'
p425
S'Rect(0, 207 - 1080, 1776)'
p426
sS'Action'
p427
S'[ ClassName: com.android.org.chromium.content.browser.ContentViewCore; Text: []; ContentDescription: \xe7\xbd\x91\xe9\xa1\xb5\xe8\xa7\x86\xe5\x9b\xbe; ItemCount: -1; CurrentItemIndex: -1; IsEnabled: true; IsPassword: false; IsChecked: false; IsFullScreen: false; Scrollable: true; BeforeText: null; FromIndex: -1; ToIndex: -1; ScrollX: 0; ScrollY: 280; MaxScrollX: 0; MaxScrollY: 435; AddedCount: -1; RemovedCount: -1; ParcelableData: null ]'
p428
sS'MovementGranularity'
p429
g6
sa(dp430
S'EventTime'
p431
S'41002335'
p432
sg4
L1449904041312L
sS'recordCount'
p433
g6
sS'EventType'
p434
S'TYPE_VIEW_SCROLLED'
p435
sS'PackageName'
p436
S'com.taobao.ishopping'
p437
sS'OutBounds'
p438
S'Rect(0, 992 - 1080, 2561)'
p439
sS'Action'
p440
S'[ ClassName: com.android.org.chromium.content.browser.ContentViewCore; Text: []; ContentDescription: \xe7\xbd\x91\xe9\xa1\xb5\xe8\xa7\x86\xe5\x9b\xbe; ItemCount: -1; CurrentItemIndex: -1; IsEnabled: true; IsPassword: false; IsChecked: false; IsFullScreen: false; Scrollable: true; BeforeText: null; FromIndex: -1; ToIndex: -1; ScrollX: 0; ScrollY: 0; MaxScrollX: 0; MaxScrollY: 435; AddedCount: -1; RemovedCount: -1; ParcelableData: null ]'
p441
sS'MovementGranularity'
p442
g6
sa(dp443
S'EventTime'
p444
S'41003499'
p445
sg4
L1449904042458L
sS'recordCount'
p446
g6
sS'EventType'
p447
S'TYPE_VIEW_SCROLLED'
p448
sS'PackageName'
p449
S'com.taobao.ishopping'
p450
sS'OutBounds'
p451
S'Rect(0, 207 - 1080, 1776)'
p452
sS'Action'
p453
S'[ ClassName: com.android.org.chromium.content.browser.ContentViewCore; Text: []; ContentDescription: \xe7\xbd\x91\xe9\xa1\xb5\xe8\xa7\x86\xe5\x9b\xbe; ItemCount: -1; CurrentItemIndex: -1; IsEnabled: true; IsPassword: false; IsChecked: false; IsFullScreen: false; Scrollable: true; BeforeText: null; FromIndex: -1; ToIndex: -1; ScrollX: 0; ScrollY: 49; MaxScrollX: 0; MaxScrollY: 435; AddedCount: -1; RemovedCount: -1; ParcelableData: null ]'
p454
sS'MovementGranularity'
p455
g6
sa(dp456
S'EventTime'
p457
S'41003610'
p458
sg4
L1449904042574L
sS'recordCount'
p459
g6
sS'EventType'
p460
S'TYPE_VIEW_SCROLLED'
p461
sS'PackageName'
p462
S'com.taobao.ishopping'
p463
sS'OutBounds'
p464
S'Rect(0, 207 - 1080, 1776)'
p465
sS'Action'
p466
S'[ ClassName: com.android.org.chromium.content.browser.ContentViewCore; Text: []; ContentDescription: \xe7\xbd\x91\xe9\xa1\xb5\xe8\xa7\x86\xe5\x9b\xbe; ItemCount: -1; CurrentItemIndex: -1; IsEnabled: true; IsPassword: false; IsChecked: false; IsFullScreen: false; Scrollable: true; BeforeText: null; FromIndex: -1; ToIndex: -1; ScrollX: 0; ScrollY: 118; MaxScrollX: 0; MaxScrollY: 435; AddedCount: -1; RemovedCount: -1; ParcelableData: null ]'
p467
sS'MovementGranularity'
p468
g6
sa(dp469
S'EventTime'
p470
S'41003725'
p471
sg4
L1449904042683L
sS'recordCount'
p472
g6
sS'EventType'
p473
S'TYPE_VIEW_SCROLLED'
p474
sS'PackageName'
p475
S'com.taobao.ishopping'
p476
sS'OutBounds'
p477
S'Rect(0, 207 - 1080, 1776)'
p478
sS'Action'
p479
S'[ ClassName: com.android.org.chromium.content.browser.ContentViewCore; Text: []; ContentDescription: \xe7\xbd\x91\xe9\xa1\xb5\xe8\xa7\x86\xe5\x9b\xbe; ItemCount: -1; CurrentItemIndex: -1; IsEnabled: true; IsPassword: false; IsChecked: false; IsFullScreen: false; Scrollable: true; BeforeText: null; FromIndex: -1; ToIndex: -1; ScrollX: 0; ScrollY: 160; MaxScrollX: 0; MaxScrollY: 435; AddedCount: -1; RemovedCount: -1; ParcelableData: null ]'
p480
sS'MovementGranularity'
p481
g6
sa(dp482
S'EventTime'
p483
S'41003832'
p484
sg4
L1449904042788L
sS'recordCount'
p485
g6
sS'EventType'
p486
S'TYPE_VIEW_SCROLLED'
p487
sS'PackageName'
p488
S'com.taobao.ishopping'
p489
sS'OutBounds'
p490
S'Rect(0, 207 - 1080, 1776)'
p491
sS'Action'
p492
S'[ ClassName: com.android.org.chromium.content.browser.ContentViewCore; Text: []; ContentDescription: \xe7\xbd\x91\xe9\xa1\xb5\xe8\xa7\x86\xe5\x9b\xbe; ItemCount: -1; CurrentItemIndex: -1; IsEnabled: true; IsPassword: false; IsChecked: false; IsFullScreen: false; Scrollable: true; BeforeText: null; FromIndex: -1; ToIndex: -1; ScrollX: 0; ScrollY: 169; MaxScrollX: 0; MaxScrollY: 435; AddedCount: -1; RemovedCount: -1; ParcelableData: null ]'
p493
sS'MovementGranularity'
p494
g6
sa(dp495
S'EventTime'
p496
S'41004554'
p497
sg4
L1449904043505L
sS'recordCount'
p498
g6
sS'EventType'
p499
S'TYPE_WINDOW_CONTENT_CHANGED'
p500
sS'PackageName'
p501
S'com.taobao.ishopping'
p502
sS'OutBounds'
p503
S'Rect(0, 207 - 1080, 2211)'
p504
sS'Action'
p505
S'[ ClassName: android.view.View; Text: []; ContentDescription: null; ItemCount: 0; CurrentItemIndex: 0; IsEnabled: true; IsPassword: false; IsChecked: false; IsFullScreen: false; Scrollable: true; BeforeText: null; FromIndex: -1; ToIndex: -1; ScrollX: 0; ScrollY: 0; MaxScrollX: 0; MaxScrollY: 435; AddedCount: -1; RemovedCount: -1; ParcelableData: null ]'
p506
sS'MovementGranularity'
p507
g6
sa(dp508
S'EventTime'
p509
S'41004612'
p510
sg4
L1449904043569L
sS'recordCount'
p511
g6
sS'EventType'
p512
S'TYPE_VIEW_SCROLLED'
p513
sS'PackageName'
p514
S'com.taobao.ishopping'
p515
sS'OutBounds'
p516
S'Rect(0, 207 - 1080, 1776)'
p517
sS'Action'
p518
S'[ ClassName: com.android.org.chromium.content.browser.ContentViewCore; Text: []; ContentDescription: \xe7\xbd\x91\xe9\xa1\xb5\xe8\xa7\x86\xe5\x9b\xbe; ItemCount: -1; CurrentItemIndex: -1; IsEnabled: true; IsPassword: false; IsChecked: false; IsFullScreen: false; Scrollable: true; BeforeText: null; FromIndex: -1; ToIndex: -1; ScrollX: 0; ScrollY: 0; MaxScrollX: 0; MaxScrollY: 435; AddedCount: -1; RemovedCount: -1; ParcelableData: null ]'
p519
sS'MovementGranularity'
p520
g6
sa(dp521
S'EventTime'
p522
S'41007548'
p523
sg4
L1449904046507L
sS'recordCount'
p524
g6
sS'EventType'
p525
S'TYPE_WINDOW_STATE_CHANGED'
p526
sS'PackageName'
p527
S'com.taobao.ishopping'
p528
sS'OutBounds'
p529
S'Rect(0, 0 - 1080, 1776)'
p530
sS'Action'
p531
S'[ ClassName: com.taobao.ishopping.im.activity.GroupChatActivity; Text: [\xe7\x88\xb1\xe9\x80\x9b\xe8\xa1\x97]; ContentDescription: null; ItemCount: -1; CurrentItemIndex: -1; IsEnabled: true; IsPassword: false; IsChecked: false; IsFullScreen: true; Scrollable: false; BeforeText: null; FromIndex: -1; ToIndex: -1; ScrollX: -1; ScrollY: -1; MaxScrollX: -1; MaxScrollY: -1; AddedCount: -1; RemovedCount: -1; ParcelableData: null ]'
p532
sS'MovementGranularity'
p533
g6
sa(dp534
S'EventTime'
p535
S'41007651'
p536
sg4
L1449904046605L
sS'recordCount'
p537
g6
sS'EventType'
p538
S'TYPE_VIEW_SCROLLED'
p539
sS'PackageName'
p540
S'com.taobao.ishopping'
p541
sS'OutBounds'
p542
S'Rect(0, 345 - 1080, 1626)'
p543
sS'Action'
p544
S'[ ClassName: android.widget.ListView; Text: []; ContentDescription: null; ItemCount: 0; CurrentItemIndex: -1; IsEnabled: true; IsPassword: false; IsChecked: false; IsFullScreen: false; Scrollable: false; BeforeText: null; FromIndex: 0; ToIndex: -1; ScrollX: -1; ScrollY: -1; MaxScrollX: -1; MaxScrollY: -1; AddedCount: -1; RemovedCount: -1; ParcelableData: null ]'
p545
sS'MovementGranularity'
p546
g6
sa(dp547
S'EventTime'
p548
S'41007750'
p549
sg4
L1449904046702L
sS'recordCount'
p550
g6
sS'EventType'
p551
S'TYPE_WINDOW_CONTENT_CHANGED'
p552
sS'PackageName'
p553
S'com.taobao.ishopping'
p554
sS'OutBounds'
p555
S'Rect(541, 210 - 1080, 345)'
p556
sS'Action'
p557
S'[ ClassName: android.widget.TextView; Text: []; ContentDescription: null; ItemCount: -1; CurrentItemIndex: -1; IsEnabled: true; IsPassword: false; IsChecked: false; IsFullScreen: false; Scrollable: false; BeforeText: null; FromIndex: -1; ToIndex: -1; ScrollX: -1; ScrollY: -1; MaxScrollX: -1; MaxScrollY: -1; AddedCount: -1; RemovedCount: -1; ParcelableData: null ]'
p558
sS'MovementGranularity'
p559
g6
sa(dp560
S'EventTime'
p561
S'41009955'
p562
sg4
L1449904049051L
sS'recordCount'
p563
g6
sS'EventType'
p564
S'TYPE_VIEW_FOCUSED'
p565
sS'PackageName'
p566
S'com.taobao.ishopping'
p567
sS'OutBounds'
p568
S'Rect(144, 949 - 936, 1045)'
p569
sS'Action'
p570
S'[ ClassName: android.widget.EditText; Text: []; ContentDescription: null; ItemCount: 2; CurrentItemIndex: 1; IsEnabled: true; IsPassword: false; IsChecked: false; IsFullScreen: false; Scrollable: false; BeforeText: null; FromIndex: -1; ToIndex: -1; ScrollX: -1; ScrollY: -1; MaxScrollX: -1; MaxScrollY: -1; AddedCount: -1; RemovedCount: -1; ParcelableData: null ]'
p571
sS'MovementGranularity'
p572
g6
sa(dp573
S'EventTime'
p574
S'41011234'
p575
sg4
L1449904050184L
sS'recordCount'
p576
g6
sS'EventType'
p577
S'TYPE_VIEW_CLICKED'
p578
sS'PackageName'
p579
S'com.taobao.ishopping'
p580
sS'OutBounds'
p581
S'Rect(541, 210 - 1080, 345)'
p582
sS'Action'
p583
S'[ ClassName: android.widget.TextView; Text: [\xe8\xbf\x9b\xe7\xbe\xa4\xe9\x80\x9b\xe9\x80\x9b]; ContentDescription: null; ItemCount: -1; CurrentItemIndex: -1; IsEnabled: true; IsPassword: false; IsChecked: false; IsFullScreen: false; Scrollable: false; BeforeText: null; FromIndex: -1; ToIndex: -1; ScrollX: -1; ScrollY: -1; MaxScrollX: -1; MaxScrollY: -1; AddedCount: -1; RemovedCount: -1; ParcelableData: null ]'
p584
sS'MovementGranularity'
p585
g6
sa(dp586
S'EventTime'
p587
S'41011380'
p588
sg4
L1449904050441L
sS'recordCount'
p589
g6
sS'EventType'
p590
S'TYPE_WINDOW_STATE_CHANGED'
p591
sS'PackageName'
p592
S'com.taobao.ishopping'
p593
sS'OutBounds'
p594
S'Rect(0, 0 - 1080, 1776)'
p595
sS'Action'
p596
S'[ ClassName: com.taobao.ishopping.thirdparty.windvane.HybridWVActivity; Text: [\xe7\x88\xb1\xe9\x80\x9b\xe8\xa1\x97]; ContentDescription: null; ItemCount: -1; CurrentItemIndex: -1; IsEnabled: true; IsPassword: false; IsChecked: false; IsFullScreen: true; Scrollable: false; BeforeText: null; FromIndex: -1; ToIndex: -1; ScrollX: -1; ScrollY: -1; MaxScrollX: -1; MaxScrollY: -1; AddedCount: -1; RemovedCount: -1; ParcelableData: null ]'
p597
sS'MovementGranularity'
p598
g6
sa(dp599
S'EventTime'
p600
S'41011539'
p601
sg4
L1449904050520L
sS'recordCount'
p602
g6
sS'EventType'
p603
S'TYPE_WINDOW_CONTENT_CHANGED'
p604
sS'PackageName'
p605
S'com.taobao.ishopping'
p606
sS'OutBounds'
p607
S'Rect(0, 75 - 168, 207)'
p608
sS'Action'
p609
S'[ ClassName: android.widget.ImageButton; Text: []; ContentDescription: \xe8\xbd\xac\xe5\x88\xb0\xe4\xb8\x8a\xe4\xb8\x80\xe5\xb1\x82\xe7\xba\xa7; ItemCount: -1; CurrentItemIndex: -1; IsEnabled: true; IsPassword: false; IsChecked: false; IsFullScreen: false; Scrollable: false; BeforeText: null; FromIndex: -1; ToIndex: -1; ScrollX: -1; ScrollY: -1; MaxScrollX: -1; MaxScrollY: -1; AddedCount: -1; RemovedCount: -1; ParcelableData: null ]'
p610
sS'MovementGranularity'
p611
g6
sa(dp612
S'EventTime'
p613
S'41011668'
p614
sg4
L1449904050694L
sS'recordCount'
p615
g6
sS'EventType'
p616
S'TYPE_WINDOW_CONTENT_CHANGED'
p617
sS'PackageName'
p618
S'com.taobao.ishopping'
p619
sS'OutBounds'
p620
S'Rect(513, 109 - 567, 172)'
p621
sS'Action'
p622
S'[ ClassName: android.widget.TextView; Text: []; ContentDescription: null; ItemCount: -1; CurrentItemIndex: -1; IsEnabled: true; IsPassword: false; IsChecked: false; IsFullScreen: false; Scrollable: false; BeforeText: null; FromIndex: -1; ToIndex: -1; ScrollX: -1; ScrollY: -1; MaxScrollX: -1; MaxScrollY: -1; AddedCount: -1; RemovedCount: -1; ParcelableData: null ]'
p623
sS'MovementGranularity'
p624
g6
sa(dp625
S'EventTime'
p626
S'41031640'
p627
sg4
L1449904070597L
sS'recordCount'
p628
g6
sS'EventType'
p629
S'TYPE_WINDOW_STATE_CHANGED'
p630
sS'PackageName'
p631
S'com.taobao.ishopping'
p632
sS'OutBounds'
p633
S'Rect(0, 0 - 1080, 1776)'
p634
sS'Action'
p635
S'[ ClassName: com.taobao.ishopping.im.activity.GroupChatActivity; Text: [\xe7\x88\xb1\xe9\x80\x9b\xe8\xa1\x97]; ContentDescription: null; ItemCount: -1; CurrentItemIndex: -1; IsEnabled: true; IsPassword: false; IsChecked: false; IsFullScreen: true; Scrollable: false; BeforeText: null; FromIndex: -1; ToIndex: -1; ScrollX: -1; ScrollY: -1; MaxScrollX: -1; MaxScrollY: -1; AddedCount: -1; RemovedCount: -1; ParcelableData: null ]'
p636
sS'MovementGranularity'
p637
g6
sa(dp638
S'EventTime'
p639
S'41034220'
p640
sg4
L1449904073176L
sS'recordCount'
p641
g6
sS'EventType'
p642
S'TYPE_WINDOW_STATE_CHANGED'
p643
sS'PackageName'
p644
S'com.taobao.ishopping'
p645
sS'OutBounds'
p646
S'Rect(0, 0 - 1080, 1776)'
p647
sS'Action'
p648
S'[ ClassName: com.taobao.ishopping.thirdparty.windvane.HybridWVActivity; Text: [\xe7\x88\xb1\xe9\x80\x9b\xe8\xa1\x97]; ContentDescription: null; ItemCount: -1; CurrentItemIndex: -1; IsEnabled: true; IsPassword: false; IsChecked: false; IsFullScreen: true; Scrollable: false; BeforeText: null; FromIndex: -1; ToIndex: -1; ScrollX: -1; ScrollY: -1; MaxScrollX: -1; MaxScrollY: -1; AddedCount: -1; RemovedCount: -1; ParcelableData: null ]'
p649
sS'MovementGranularity'
p650
g6
sa(dp651
S'EventTime'
p652
S'41035277'
p653
sg4
L1449904074244L
sS'recordCount'
p654
g6
sS'EventType'
p655
S'TYPE_VIEW_SCROLLED'
p656
sS'PackageName'
p657
S'com.taobao.ishopping'
p658
sS'OutBounds'
p659
S'Rect(0, 207 - 1080, 1776)'
p660
sS'Action'
p661
S'[ ClassName: com.android.org.chromium.content.browser.ContentViewCore; Text: []; ContentDescription: \xe7\xbd\x91\xe9\xa1\xb5\xe8\xa7\x86\xe5\x9b\xbe; ItemCount: -1; CurrentItemIndex: -1; IsEnabled: true; IsPassword: false; IsChecked: false; IsFullScreen: false; Scrollable: true; BeforeText: null; FromIndex: -1; ToIndex: -1; ScrollX: 0; ScrollY: 210; MaxScrollX: 0; MaxScrollY: 435; AddedCount: -1; RemovedCount: -1; ParcelableData: null ]'
p662
sS'MovementGranularity'
p663
g6
sa(dp664
S'EventTime'
p665
S'41035395'
p666
sg4
L1449904074365L
sS'recordCount'
p667
g6
sS'EventType'
p668
S'TYPE_VIEW_SCROLLED'
p669
sS'PackageName'
p670
S'com.taobao.ishopping'
p671
sS'OutBounds'
p672
S'Rect(0, 207 - 1080, 1776)'
p673
sS'Action'
p674
S'[ ClassName: com.android.org.chromium.content.browser.ContentViewCore; Text: []; ContentDescription: \xe7\xbd\x91\xe9\xa1\xb5\xe8\xa7\x86\xe5\x9b\xbe; ItemCount: -1; CurrentItemIndex: -1; IsEnabled: true; IsPassword: false; IsChecked: false; IsFullScreen: false; Scrollable: true; BeforeText: null; FromIndex: -1; ToIndex: -1; ScrollX: 0; ScrollY: 417; MaxScrollX: 0; MaxScrollY: 435; AddedCount: -1; RemovedCount: -1; ParcelableData: null ]'
p675
sS'MovementGranularity'
p676
g6
sa(dp677
S'EventTime'
p678
S'41035515'
p679
sg4
L1449904074475L
sS'recordCount'
p680
g6
sS'EventType'
p681
S'TYPE_VIEW_SCROLLED'
p682
sS'PackageName'
p683
S'com.taobao.ishopping'
p684
sS'OutBounds'
p685
S'Rect(0, 207 - 1080, 1776)'
p686
sS'Action'
p687
S'[ ClassName: com.android.org.chromium.content.browser.ContentViewCore; Text: []; ContentDescription: \xe7\xbd\x91\xe9\xa1\xb5\xe8\xa7\x86\xe5\x9b\xbe; ItemCount: -1; CurrentItemIndex: -1; IsEnabled: true; IsPassword: false; IsChecked: false; IsFullScreen: false; Scrollable: true; BeforeText: null; FromIndex: -1; ToIndex: -1; ScrollX: 0; ScrollY: 435; MaxScrollX: 0; MaxScrollY: 435; AddedCount: -1; RemovedCount: -1; ParcelableData: null ]'
p688
sS'MovementGranularity'
p689
g6
sa(dp690
S'EventTime'
p691
S'41037078'
p692
sg4
L1449904076052L
sS'recordCount'
p693
g6
sS'EventType'
p694
S'TYPE_WINDOW_CONTENT_CHANGED'
p695
sS'PackageName'
p696
S'com.taobao.ishopping'
p697
sS'OutBounds'
p698
S'Rect(0, -228 - 1080, 1776)'
p699
sS'Action'
p700
S'[ ClassName: android.view.View; Text: []; ContentDescription: null; ItemCount: 0; CurrentItemIndex: 0; IsEnabled: true; IsPassword: false; IsChecked: false; IsFullScreen: false; Scrollable: true; BeforeText: null; FromIndex: -1; ToIndex: -1; ScrollX: 0; ScrollY: 435; MaxScrollX: 0; MaxScrollY: 435; AddedCount: -1; RemovedCount: -1; ParcelableData: null ]'
p701
sS'MovementGranularity'
p702
g6
sa(dp703
S'EventTime'
p704
S'41037206'
p705
sg4
L1449904076163L
sS'recordCount'
p706
g6
sS'EventType'
p707
S'TYPE_WINDOW_STATE_CHANGED'
p708
sS'PackageName'
p709
S'com.taobao.ishopping'
p710
sS'OutBounds'
p711
S'Rect(0, 0 - 1080, 1776)'
p712
sS'Action'
p713
S'[ ClassName: com.taobao.ishopping.thirdparty.windvane.HybridWVActivity; Text: [\xe7\x88\xb1\xe9\x80\x9b\xe8\xa1\x97]; ContentDescription: null; ItemCount: -1; CurrentItemIndex: -1; IsEnabled: true; IsPassword: false; IsChecked: false; IsFullScreen: true; Scrollable: false; BeforeText: null; FromIndex: -1; ToIndex: -1; ScrollX: -1; ScrollY: -1; MaxScrollX: -1; MaxScrollY: -1; AddedCount: -1; RemovedCount: -1; ParcelableData: null ]'
p714
sS'MovementGranularity'
p715
g6
sa(dp716
S'EventTime'
p717
S'41037392'
p718
sg4
L1449904076359L
sS'recordCount'
p719
g6
sS'EventType'
p720
S'TYPE_WINDOW_CONTENT_CHANGED'
p721
sS'PackageName'
p722
S'com.taobao.ishopping'
p723
sS'OutBounds'
p724
S'Rect(405, 109 - 675, 172)'
p725
sS'Action'
p726
S'[ ClassName: android.widget.TextView; Text: []; ContentDescription: null; ItemCount: -1; CurrentItemIndex: -1; IsEnabled: true; IsPassword: false; IsChecked: false; IsFullScreen: false; Scrollable: false; BeforeText: null; FromIndex: -1; ToIndex: -1; ScrollX: -1; ScrollY: -1; MaxScrollX: -1; MaxScrollY: -1; AddedCount: -1; RemovedCount: -1; ParcelableData: null ]'
p727
sS'MovementGranularity'
p728
g6
sa(dp729
S'EventTime'
p730
S'41037615'
p731
sg4
L1449904076574L
sS'recordCount'
p732
g6
sS'EventType'
p733
S'TYPE_WINDOW_CONTENT_CHANGED'
p734
sS'PackageName'
p735
S'com.taobao.ishopping'
p736
sS'OutBounds'
p737
S'Rect(0, 207 - 1080, 1776)'
p738
sS'Action'
p739
S'[ ClassName: com.android.org.chromium.content.browser.ContentViewCore; Text: []; ContentDescription: \xe7\xbd\x91\xe9\xa1\xb5\xe8\xa7\x86\xe5\x9b\xbe; ItemCount: -1; CurrentItemIndex: -1; IsEnabled: true; IsPassword: false; IsChecked: false; IsFullScreen: false; Scrollable: true; BeforeText: null; FromIndex: -1; ToIndex: -1; ScrollX: 0; ScrollY: 0; MaxScrollX: 0; MaxScrollY: 48; AddedCount: -1; RemovedCount: -1; ParcelableData: null ]'
p740
sS'MovementGranularity'
p741
g6
sa(dp742
S'EventTime'
p743
S'41037766'
p744
sg4
L1449904076719L
sS'recordCount'
p745
g6
sS'EventType'
p746
S'TYPE_WINDOW_CONTENT_CHANGED'
p747
sS'PackageName'
p748
S'com.taobao.ishopping'
p749
sS'OutBounds'
p750
S'Rect(0, 207 - 1080, 1776)'
p751
sS'Action'
p752
S'[ ClassName: android.view.View; Text: []; ContentDescription: null; ItemCount: 0; CurrentItemIndex: 0; IsEnabled: true; IsPassword: false; IsChecked: false; IsFullScreen: false; Scrollable: true; BeforeText: null; FromIndex: -1; ToIndex: -1; ScrollX: 0; ScrollY: 0; MaxScrollX: 0; MaxScrollY: 0; AddedCount: -1; RemovedCount: -1; ParcelableData: null ]'
p753
sS'MovementGranularity'
p754
g6
sa(dp755
S'EventTime'
p756
S'41039214'
p757
sg4
L1449904078168L
sS'recordCount'
p758
g6
sS'EventType'
p759
S'TYPE_WINDOW_CONTENT_CHANGED'
p760
sS'PackageName'
p761
S'com.taobao.ishopping'
p762
sS'OutBounds'
p763
S'Rect(0, 207 - 1080, 1776)'
p764
sS'Action'
p765
S'[ ClassName: android.view.View; Text: []; ContentDescription: null; ItemCount: 0; CurrentItemIndex: 0; IsEnabled: true; IsPassword: false; IsChecked: false; IsFullScreen: false; Scrollable: true; BeforeText: null; FromIndex: -1; ToIndex: -1; ScrollX: 0; ScrollY: 0; MaxScrollX: 0; MaxScrollY: 0; AddedCount: -1; RemovedCount: -1; ParcelableData: null ]'
p766
sS'MovementGranularity'
p767
g6
sa(dp768
S'EventTime'
p769
S'41041070'
p770
sg4
L1449904080030L
sS'recordCount'
p771
g6
sS'EventType'
p772
S'TYPE_WINDOW_STATE_CHANGED'
p773
sS'PackageName'
p774
S'com.taobao.ishopping'
p775
sS'OutBounds'
p776
S'Rect(0, 0 - 1080, 1776)'
p777
sS'Action'
p778
S'[ ClassName: com.taobao.ishopping.thirdparty.windvane.HybridWVActivity; Text: [\xe7\x88\xb1\xe9\x80\x9b\xe8\xa1\x97]; ContentDescription: null; ItemCount: -1; CurrentItemIndex: -1; IsEnabled: true; IsPassword: false; IsChecked: false; IsFullScreen: true; Scrollable: false; BeforeText: null; FromIndex: -1; ToIndex: -1; ScrollX: -1; ScrollY: -1; MaxScrollX: -1; MaxScrollY: -1; AddedCount: -1; RemovedCount: -1; ParcelableData: null ]'
p779
sS'MovementGranularity'
p780
g6
sa(dp781
S'EventTime'
p782
S'41042356'
p783
sg4
L1449904081319L
sS'recordCount'
p784
g6
sS'EventType'
p785
S'TYPE_WINDOW_STATE_CHANGED'
p786
sS'PackageName'
p787
S'com.taobao.ishopping'
p788
sS'OutBounds'
p789
S'Rect(0, 0 - 1080, 1776)'
p790
sS'Action'
p791
S'[ ClassName: com.taobao.ishopping.im.activity.GroupChatActivity; Text: [\xe7\x88\xb1\xe9\x80\x9b\xe8\xa1\x97]; ContentDescription: null; ItemCount: -1; CurrentItemIndex: -1; IsEnabled: true; IsPassword: false; IsChecked: false; IsFullScreen: true; Scrollable: false; BeforeText: null; FromIndex: -1; ToIndex: -1; ScrollX: -1; ScrollY: -1; MaxScrollX: -1; MaxScrollY: -1; AddedCount: -1; RemovedCount: -1; ParcelableData: null ]'
p792
sS'MovementGranularity'
p793
g6
sa(dp794
S'EventTime'
p795
S'41042463'
p796
sg4
L1449904081417L
sS'recordCount'
p797
g6
sS'EventType'
p798
S'TYPE_VIEW_SCROLLED'
p799
sS'PackageName'
p800
S'com.taobao.ishopping'
p801
sS'OutBounds'
p802
S'Rect(0, 345 - 1080, 1626)'
p803
sS'Action'
p804
S'[ ClassName: android.widget.ListView; Text: []; ContentDescription: null; ItemCount: 0; CurrentItemIndex: -1; IsEnabled: true; IsPassword: false; IsChecked: false; IsFullScreen: false; Scrollable: false; BeforeText: null; FromIndex: 0; ToIndex: -1; ScrollX: -1; ScrollY: -1; MaxScrollX: -1; MaxScrollY: -1; AddedCount: -1; RemovedCount: -1; ParcelableData: null ]'
p805
sS'MovementGranularity'
p806
g6
sa(dp807
S'EventTime'
p808
S'41042562'
p809
sg4
L1449904081514L
sS'recordCount'
p810
g6
sS'EventType'
p811
S'TYPE_WINDOW_CONTENT_CHANGED'
p812
sS'PackageName'
p813
S'com.taobao.ishopping'
p814
sS'OutBounds'
p815
S'Rect(541, 210 - 1080, 345)'
p816
sS'Action'
p817
S'[ ClassName: android.widget.TextView; Text: []; ContentDescription: null; ItemCount: -1; CurrentItemIndex: -1; IsEnabled: true; IsPassword: false; IsChecked: false; IsFullScreen: false; Scrollable: false; BeforeText: null; FromIndex: -1; ToIndex: -1; ScrollX: -1; ScrollY: -1; MaxScrollX: -1; MaxScrollY: -1; AddedCount: -1; RemovedCount: -1; ParcelableData: null ]'
p818
sS'MovementGranularity'
p819
g6
sa(dp820
S'EventTime'
p821
S'41043965'
p822
sg4
L1449904082987L
sS'recordCount'
p823
g6
sS'EventType'
p824
S'TYPE_VIEW_FOCUSED'
p825
sS'PackageName'
p826
S'com.taobao.ishopping'
p827
sS'OutBounds'
p828
S'Rect(144, 949 - 936, 1045)'
p829
sS'Action'
p830
S'[ ClassName: android.widget.EditText; Text: []; ContentDescription: null; ItemCount: 2; CurrentItemIndex: 1; IsEnabled: true; IsPassword: false; IsChecked: false; IsFullScreen: false; Scrollable: false; BeforeText: null; FromIndex: -1; ToIndex: -1; ScrollX: -1; ScrollY: -1; MaxScrollX: -1; MaxScrollY: -1; AddedCount: -1; RemovedCount: -1; ParcelableData: null ]'
p831
sS'MovementGranularity'
p832
g6
sa(dp833
S'EventTime'
p834
S'41045115'
p835
sg4
L1449904084069L
sS'recordCount'
p836
g6
sS'EventType'
p837
S'TYPE_VIEW_TEXT_CHANGED'
p838
sS'PackageName'
p839
S'com.taobao.ishopping'
p840
sS'OutBounds'
p841
S'Rect(144, 949 - 834, 1045)'
p842
sS'Action'
p843
S'[ ClassName: android.widget.EditText; Text: [n]; ContentDescription: null; ItemCount: -1; CurrentItemIndex: -1; IsEnabled: true; IsPassword: false; IsChecked: false; IsFullScreen: false; Scrollable: false; BeforeText: ; FromIndex: 0; ToIndex: -1; ScrollX: -1; ScrollY: -1; MaxScrollX: -1; MaxScrollY: -1; AddedCount: 1; RemovedCount: 0; ParcelableData: null ]'
p844
sS'MovementGranularity'
p845
g6
sa(dp846
S'EventTime'
p847
S'41045118'
p848
sg4
L1449904084087L
sS'recordCount'
p849
g6
sS'EventType'
p850
S'TYPE_VIEW_TEXT_SELECTION_CHANGED'
p851
sS'PackageName'
p852
S'com.taobao.ishopping'
p853
sS'OutBounds'
p854
S'Rect(144, 949 - 834, 1045)'
p855
sS'Action'
p856
S'[ ClassName: android.widget.EditText; Text: [n]; ContentDescription: null; ItemCount: 1; CurrentItemIndex: -1; IsEnabled: true; IsPassword: false; IsChecked: false; IsFullScreen: false; Scrollable: false; BeforeText: null; FromIndex: 1; ToIndex: 1; ScrollX: -1; ScrollY: -1; MaxScrollX: -1; MaxScrollY: -1; AddedCount: -1; RemovedCount: -1; ParcelableData: null ]'
p857
sS'MovementGranularity'
p858
g6
sa(dp859
S'EventTime'
p860
S'41045124'
p861
sg4
L1449904084105L
sS'recordCount'
p862
g6
sS'EventType'
p863
S'TYPE_WINDOW_CONTENT_CHANGED'
p864
sS'PackageName'
p865
S'com.taobao.ishopping'
p866
sS'OutBounds'
p867
S'Rect(144, 949 - 834, 1045)'
p868
sS'Action'
p869
S'[ ClassName: android.widget.EditText; Text: []; ContentDescription: null; ItemCount: -1; CurrentItemIndex: -1; IsEnabled: true; IsPassword: false; IsChecked: false; IsFullScreen: false; Scrollable: false; BeforeText: null; FromIndex: -1; ToIndex: -1; ScrollX: -1; ScrollY: -1; MaxScrollX: -1; MaxScrollY: -1; AddedCount: -1; RemovedCount: -1; ParcelableData: null ]'
p870
sS'MovementGranularity'
p871
g6
sa(dp872
S'EventTime'
p873
S'41045226'
p874
sg4
L1449904084182L
sS'recordCount'
p875
g6
sS'EventType'
p876
S'TYPE_WINDOW_CONTENT_CHANGED'
p877
sS'PackageName'
p878
S'com.taobao.ishopping'
p879
sS'OutBounds'
p880
S'Rect(864, 949 - 1050, 1045)'
p881
sS'Action'
p882
S'[ ClassName: android.widget.TextView; Text: []; ContentDescription: null; ItemCount: -1; CurrentItemIndex: -1; IsEnabled: true; IsPassword: false; IsChecked: false; IsFullScreen: false; Scrollable: false; BeforeText: null; FromIndex: -1; ToIndex: -1; ScrollX: -1; ScrollY: -1; MaxScrollX: -1; MaxScrollY: -1; AddedCount: -1; RemovedCount: -1; ParcelableData: null ]'
p883
sS'MovementGranularity'
p884
g6
sa(dp885
S'EventTime'
p886
S'41045259'
p887
sg4
L1449904084213L
sS'recordCount'
p888
g6
sS'EventType'
p889
S'TYPE_VIEW_TEXT_CHANGED'
p890
sS'PackageName'
p891
S'com.taobao.ishopping'
p892
sS'OutBounds'
p893
S'Rect(144, 949 - 834, 1045)'
p894
sS'Action'
p895
S'[ ClassName: android.widget.EditText; Text: [ni]; ContentDescription: null; ItemCount: -1; CurrentItemIndex: -1; IsEnabled: true; IsPassword: false; IsChecked: false; IsFullScreen: false; Scrollable: false; BeforeText: n; FromIndex: 0; ToIndex: -1; ScrollX: -1; ScrollY: -1; MaxScrollX: -1; MaxScrollY: -1; AddedCount: 2; RemovedCount: 1; ParcelableData: null ]'
p896
sS'MovementGranularity'
p897
g6
sa(dp898
S'EventTime'
p899
S'41045261'
p900
sg4
L1449904084226L
sS'recordCount'
p901
g6
sS'EventType'
p902
S'TYPE_VIEW_TEXT_SELECTION_CHANGED'
p903
sS'PackageName'
p904
S'com.taobao.ishopping'
p905
sS'OutBounds'
p906
S'Rect(144, 949 - 834, 1045)'
p907
sS'Action'
p908
S'[ ClassName: android.widget.EditText; Text: [ni]; ContentDescription: null; ItemCount: 2; CurrentItemIndex: -1; IsEnabled: true; IsPassword: false; IsChecked: false; IsFullScreen: false; Scrollable: false; BeforeText: null; FromIndex: 2; ToIndex: 2; ScrollX: -1; ScrollY: -1; MaxScrollX: -1; MaxScrollY: -1; AddedCount: -1; RemovedCount: -1; ParcelableData: null ]'
p909
sS'MovementGranularity'
p910
g6
sa(dp911
S'EventTime'
p912
S'41045454'
p913
sg4
L1449904084409L
sS'recordCount'
p914
g6
sS'EventType'
p915
S'TYPE_VIEW_TEXT_CHANGED'
p916
sS'PackageName'
p917
S'com.taobao.ishopping'
p918
sS'OutBounds'
p919
S'Rect(144, 949 - 834, 1045)'
p920
sS'Action'
p921
S"[ ClassName: android.widget.EditText; Text: [ni'h]; ContentDescription: null; ItemCount: -1; CurrentItemIndex: -1; IsEnabled: true; IsPassword: false; IsChecked: false; IsFullScreen: false; Scrollable: false; BeforeText: ni; FromIndex: 0; ToIndex: -1; ScrollX: -1; ScrollY: -1; MaxScrollX: -1; MaxScrollY: -1; AddedCount: 4; RemovedCount: 2; ParcelableData: null ]"
p922
sS'MovementGranularity'
p923
g6
sa(dp924
S'EventTime'
p925
S'41045457'
p926
sg4
L1449904084423L
sS'recordCount'
p927
g6
sS'EventType'
p928
S'TYPE_VIEW_TEXT_SELECTION_CHANGED'
p929
sS'PackageName'
p930
S'com.taobao.ishopping'
p931
sS'OutBounds'
p932
S'Rect(144, 949 - 834, 1045)'
p933
sS'Action'
p934
S"[ ClassName: android.widget.EditText; Text: [ni'h]; ContentDescription: null; ItemCount: 4; CurrentItemIndex: -1; IsEnabled: true; IsPassword: false; IsChecked: false; IsFullScreen: false; Scrollable: false; BeforeText: null; FromIndex: 4; ToIndex: 4; ScrollX: -1; ScrollY: -1; MaxScrollX: -1; MaxScrollY: -1; AddedCount: -1; RemovedCount: -1; ParcelableData: null ]"
p935
sS'MovementGranularity'
p936
g6
sa(dp937
S'EventTime'
p938
S'41045657'
p939
sg4
L1449904084614L
sS'recordCount'
p940
g6
sS'EventType'
p941
S'TYPE_VIEW_TEXT_CHANGED'
p942
sS'PackageName'
p943
S'com.taobao.ishopping'
p944
sS'OutBounds'
p945
S'Rect(144, 949 - 834, 1045)'
p946
sS'Action'
p947
S"[ ClassName: android.widget.EditText; Text: [ni'ha]; ContentDescription: null; ItemCount: -1; CurrentItemIndex: -1; IsEnabled: true; IsPassword: false; IsChecked: false; IsFullScreen: false; Scrollable: false; BeforeText: ni'h; FromIndex: 0; ToIndex: -1; ScrollX: -1; ScrollY: -1; MaxScrollX: -1; MaxScrollY: -1; AddedCount: 5; RemovedCount: 4; ParcelableData: null ]"
p948
sS'MovementGranularity'
p949
g6
sa(dp950
S'EventTime'
p951
S'41045659'
p952
sg4
L1449904084628L
sS'recordCount'
p953
g6
sS'EventType'
p954
S'TYPE_VIEW_TEXT_SELECTION_CHANGED'
p955
sS'PackageName'
p956
S'com.taobao.ishopping'
p957
sS'OutBounds'
p958
S'Rect(144, 949 - 834, 1045)'
p959
sS'Action'
p960
S"[ ClassName: android.widget.EditText; Text: [ni'ha]; ContentDescription: null; ItemCount: 5; CurrentItemIndex: -1; IsEnabled: true; IsPassword: false; IsChecked: false; IsFullScreen: false; Scrollable: false; BeforeText: null; FromIndex: 5; ToIndex: 5; ScrollX: -1; ScrollY: -1; MaxScrollX: -1; MaxScrollY: -1; AddedCount: -1; RemovedCount: -1; ParcelableData: null ]"
p961
sS'MovementGranularity'
p962
g6
sa(dp963
S'EventTime'
p964
S'41045844'
p965
sg4
L1449904084797L
sS'recordCount'
p966
g6
sS'EventType'
p967
S'TYPE_VIEW_TEXT_CHANGED'
p968
sS'PackageName'
p969
S'com.taobao.ishopping'
p970
sS'OutBounds'
p971
S'Rect(144, 949 - 834, 1045)'
p972
sS'Action'
p973
S"[ ClassName: android.widget.EditText; Text: [ni'gan]; ContentDescription: null; ItemCount: -1; CurrentItemIndex: -1; IsEnabled: true; IsPassword: false; IsChecked: false; IsFullScreen: false; Scrollable: false; BeforeText: ni'ha; FromIndex: 0; ToIndex: -1; ScrollX: -1; ScrollY: -1; MaxScrollX: -1; MaxScrollY: -1; AddedCount: 6; RemovedCount: 5; ParcelableData: null ]"
p974
sS'MovementGranularity'
p975
g6
sa(dp976
S'EventTime'
p977
S'41045847'
p978
sg4
L1449904084805L
sS'recordCount'
p979
g6
sS'EventType'
p980
S'TYPE_VIEW_TEXT_SELECTION_CHANGED'
p981
sS'PackageName'
p982
S'com.taobao.ishopping'
p983
sS'OutBounds'
p984
S'Rect(144, 949 - 834, 1045)'
p985
sS'Action'
p986
S"[ ClassName: android.widget.EditText; Text: [ni'gan]; ContentDescription: null; ItemCount: 6; CurrentItemIndex: -1; IsEnabled: true; IsPassword: false; IsChecked: false; IsFullScreen: false; Scrollable: false; BeforeText: null; FromIndex: 6; ToIndex: 6; ScrollX: -1; ScrollY: -1; MaxScrollX: -1; MaxScrollY: -1; AddedCount: -1; RemovedCount: -1; ParcelableData: null ]"
p987
sS'MovementGranularity'
p988
g6
sa(dp989
S'EventTime'
p990
S'41046466'
p991
sg4
L1449904085419L
sS'recordCount'
p992
g6
sS'EventType'
p993
S'TYPE_VIEW_TEXT_CHANGED'
p994
sS'PackageName'
p995
S'com.taobao.ishopping'
p996
sS'OutBounds'
p997
S'Rect(144, 949 - 834, 1045)'
p998
sS'Action'
p999
S"[ ClassName: android.widget.EditText; Text: [\xe4\xbd\xa0\xe5\xa5\xbd]; ContentDescription: null; ItemCount: -1; CurrentItemIndex: -1; IsEnabled: true; IsPassword: false; IsChecked: false; IsFullScreen: false; Scrollable: false; BeforeText: ni'gan; FromIndex: 0; ToIndex: -1; ScrollX: -1; ScrollY: -1; MaxScrollX: -1; MaxScrollY: -1; AddedCount: 2; RemovedCount: 6; ParcelableData: null ]"
p1000
sS'MovementGranularity'
p1001
g6
sa(dp1002
S'EventTime'
p1003
S'41046467'
p1004
sg4
L1449904085427L
sS'recordCount'
p1005
g6
sS'EventType'
p1006
S'TYPE_VIEW_TEXT_SELECTION_CHANGED'
p1007
sS'PackageName'
p1008
S'com.taobao.ishopping'
p1009
sS'OutBounds'
p1010
S'Rect(144, 949 - 834, 1045)'
p1011
sS'Action'
p1012
S'[ ClassName: android.widget.EditText; Text: [\xe4\xbd\xa0\xe5\xa5\xbd]; ContentDescription: null; ItemCount: 2; CurrentItemIndex: -1; IsEnabled: true; IsPassword: false; IsChecked: false; IsFullScreen: false; Scrollable: false; BeforeText: null; FromIndex: 2; ToIndex: 2; ScrollX: -1; ScrollY: -1; MaxScrollX: -1; MaxScrollY: -1; AddedCount: -1; RemovedCount: -1; ParcelableData: null ]'
p1013
sS'MovementGranularity'
p1014
g6
sa(dp1015
S'EventTime'
p1016
S'41047111'
p1017
sg4
L1449904086064L
sS'recordCount'
p1018
g6
sS'EventType'
p1019
S'TYPE_VIEW_CLICKED'
p1020
sS'PackageName'
p1021
S'com.taobao.ishopping'
p1022
sS'OutBounds'
p1023
S'Rect(864, 949 - 1050, 1045)'
p1024
sS'Action'
p1025
S'[ ClassName: android.widget.TextView; Text: [\xe5\x8f\x91\xe9\x80\x81]; ContentDescription: null; ItemCount: -1; CurrentItemIndex: -1; IsEnabled: true; IsPassword: false; IsChecked: false; IsFullScreen: false; Scrollable: false; BeforeText: null; FromIndex: -1; ToIndex: -1; ScrollX: -1; ScrollY: -1; MaxScrollX: -1; MaxScrollY: -1; AddedCount: -1; RemovedCount: -1; ParcelableData: null ]'
p1026
sS'MovementGranularity'
p1027
g6
sa(dp1028
S'EventTime'
p1029
S'41047118'
p1030
sg4
L1449904086104L
sS'recordCount'
p1031
g6
sS'EventType'
p1032
S'TYPE_VIEW_TEXT_SELECTION_CHANGED'
p1033
sS'PackageName'
p1034
S'com.taobao.ishopping'
p1035
sS'OutBounds'
p1036
S'Rect(144, 949 - 936, 1045)'
p1037
sS'Action'
p1038
S'[ ClassName: android.widget.EditText; Text: []; ContentDescription: null; ItemCount: 0; CurrentItemIndex: -1; IsEnabled: true; IsPassword: false; IsChecked: false; IsFullScreen: false; Scrollable: false; BeforeText: null; FromIndex: 0; ToIndex: 0; ScrollX: -1; ScrollY: -1; MaxScrollX: -1; MaxScrollY: -1; AddedCount: -1; RemovedCount: -1; ParcelableData: null ]'
p1039
sS'MovementGranularity'
p1040
g6
sa(dp1041
S'EventTime'
p1042
S'41047299'
p1043
sg4
L1449904086260L
sS'recordCount'
p1044
g6
sS'EventType'
p1045
S'TYPE_VIEW_SCROLLED'
p1046
sS'PackageName'
p1047
S'com.taobao.ishopping'
p1048
sS'OutBounds'
p1049
S'Rect(0, 345 - 1080, 922)'
p1050
sS'Action'
p1051
S'[ ClassName: android.widget.ListView; Text: []; ContentDescription: null; ItemCount: 1; CurrentItemIndex: -1; IsEnabled: true; IsPassword: false; IsChecked: false; IsFullScreen: false; Scrollable: false; BeforeText: null; FromIndex: 0; ToIndex: 0; ScrollX: -1; ScrollY: -1; MaxScrollX: -1; MaxScrollY: -1; AddedCount: -1; RemovedCount: -1; ParcelableData: null ]'
p1052
sS'MovementGranularity'
p1053
g6
sa(dp1054
S'EventTime'
p1055
S'41047311'
p1056
sg4
L1449904086269L
sS'recordCount'
p1057
S'1'
p1058
sS'EventType'
p1059
S'TYPE_WINDOW_CONTENT_CHANGED'
p1060
sS'PackageName'
p1061
S'com.taobao.ishopping'
p1062
sS'OutBounds'
p1063
S'Rect(638, 414 - 686, 462)'
p1064
sS'Action'
p1065
S'[ ClassName: android.widget.ProgressBar; Text: []; ContentDescription: null; ItemCount: 100; CurrentItemIndex: 0; IsEnabled: true; IsPassword: false; IsChecked: false; IsFullScreen: false; Scrollable: false; BeforeText: null; FromIndex: -1; ToIndex: -1; ScrollX: -1; ScrollY: -1; MaxScrollX: -1; MaxScrollY: -1; AddedCount: -1; RemovedCount: -1; ParcelableData: null ]'
p1066
sS'MovementGranularity'
p1067
g6
sa(dp1068
S'EventTime'
p1069
S'41047953'
p1070
sg4
L1449904086907L
sS'recordCount'
p1071
g1058
sS'EventType'
p1072
S'TYPE_WINDOW_CONTENT_CHANGED'
p1073
sS'PackageName'
p1074
S'com.taobao.ishopping'
p1075
sS'OutBounds'
p1076
S'Rect(686, 438 - 686, 438)'
p1077
sS'Action'
p1078
S'[ ClassName: android.widget.LinearLayout; Text: []; ContentDescription: null; ItemCount: -1; CurrentItemIndex: -1; IsEnabled: true; IsPassword: false; IsChecked: false; IsFullScreen: false; Scrollable: false; BeforeText: null; FromIndex: -1; ToIndex: -1; ScrollX: -1; ScrollY: -1; MaxScrollX: -1; MaxScrollY: -1; AddedCount: -1; RemovedCount: -1; ParcelableData: null ]'
p1079
sS'MovementGranularity'
p1080
g6
sa(dp1081
S'EventTime'
p1082
S'41048868'
p1083
sg4
L1449904087854L
sS'recordCount'
p1084
g6
sS'EventType'
p1085
S'TYPE_WINDOW_CONTENT_CHANGED'
p1086
sS'PackageName'
p1087
S'com.taobao.ishopping'
p1088
sS'OutBounds'
p1089
S'Rect(0, 345 - 1080, 1626)'
p1090
sS'Action'
p1091
S'[ ClassName: android.widget.ListView; Text: []; ContentDescription: null; ItemCount: 1; CurrentItemIndex: -1; IsEnabled: true; IsPassword: false; IsChecked: false; IsFullScreen: false; Scrollable: false; BeforeText: null; FromIndex: 0; ToIndex: 0; ScrollX: -1; ScrollY: -1; MaxScrollX: -1; MaxScrollY: -1; AddedCount: -1; RemovedCount: -1; ParcelableData: null ]'
p1092
sS'MovementGranularity'
p1093
g6
sa(dp1094
S'EventTime'
p1095
S'41061757'
p1096
sg4
L1449904100708L
sS'recordCount'
p1097
g6
sS'EventType'
p1098
S'TYPE_VIEW_CLICKED'
p1099
sS'PackageName'
p1100
S'com.taobao.ishopping'
p1101
sS'OutBounds'
p1102
S'Rect(0, 75 - 168, 207)'
p1103
sS'Action'
p1104
S'[ ClassName: android.widget.ImageButton; Text: [\xe8\xbd\xac\xe5\x88\xb0\xe4\xb8\x8a\xe4\xb8\x80\xe5\xb1\x82\xe7\xba\xa7]; ContentDescription: \xe8\xbd\xac\xe5\x88\xb0\xe4\xb8\x8a\xe4\xb8\x80\xe5\xb1\x82\xe7\xba\xa7; ItemCount: -1; CurrentItemIndex: -1; IsEnabled: true; IsPassword: false; IsChecked: false; IsFullScreen: false; Scrollable: false; BeforeText: null; FromIndex: -1; ToIndex: -1; ScrollX: -1; ScrollY: -1; MaxScrollX: -1; MaxScrollY: -1; AddedCount: -1; RemovedCount: -1; ParcelableData: null ]'
p1105
sS'MovementGranularity'
p1106
g6
sa(dp1107
S'EventTime'
p1108
S'41061791'
p1109
sg4
L1449904100749L
sS'recordCount'
p1110
g6
sS'EventType'
p1111
S'TYPE_WINDOW_STATE_CHANGED'
p1112
sS'PackageName'
p1113
S'com.taobao.ishopping'
p1114
sS'OutBounds'
p1115
S'Rect(0, 0 - 1080, 1776)'
p1116
sS'Action'
p1117
S'[ ClassName: com.taobao.ishopping.thirdparty.windvane.HybridWVActivity; Text: [\xe7\x88\xb1\xe9\x80\x9b\xe8\xa1\x97]; ContentDescription: null; ItemCount: -1; CurrentItemIndex: -1; IsEnabled: true; IsPassword: false; IsChecked: false; IsFullScreen: true; Scrollable: false; BeforeText: null; FromIndex: -1; ToIndex: -1; ScrollX: -1; ScrollY: -1; MaxScrollX: -1; MaxScrollY: -1; AddedCount: -1; RemovedCount: -1; ParcelableData: null ]'
p1118
sS'MovementGranularity'
p1119
g6
sa(dp1120
S'EventTime'
p1121
S'41065954'
p1122
sg4
L1449904104914L
sS'recordCount'
p1123
g6
sS'EventType'
p1124
S'TYPE_WINDOW_STATE_CHANGED'
p1125
sS'PackageName'
p1126
S'com.taobao.ishopping'
p1127
sS'OutBounds'
p1128
S'Rect(0, 0 - 1080, 1776)'
p1129
sS'Action'
p1130
S'[ ClassName: com.taobao.ishopping.im.activity.GroupChatActivity; Text: [\xe7\x88\xb1\xe9\x80\x9b\xe8\xa1\x97]; ContentDescription: null; ItemCount: -1; CurrentItemIndex: -1; IsEnabled: true; IsPassword: false; IsChecked: false; IsFullScreen: true; Scrollable: false; BeforeText: null; FromIndex: -1; ToIndex: -1; ScrollX: -1; ScrollY: -1; MaxScrollX: -1; MaxScrollY: -1; AddedCount: -1; RemovedCount: -1; ParcelableData: null ]'
p1131
sS'MovementGranularity'
p1132
g6
sa(dp1133
S'EventTime'
p1134
S'41066004'
p1135
sg4
L1449904104957L
sS'recordCount'
p1136
g6
sS'EventType'
p1137
S'TYPE_VIEW_FOCUSED'
p1138
sS'PackageName'
p1139
S'com.taobao.ishopping'
p1140
sS'OutBounds'
p1141
S'Rect(0, 345 - 1080, 1626)'
p1142
sS'Action'
p1143
S'[ ClassName: android.widget.ListView; Text: []; ContentDescription: null; ItemCount: 1; CurrentItemIndex: -1; IsEnabled: true; IsPassword: false; IsChecked: false; IsFullScreen: false; Scrollable: true; BeforeText: null; FromIndex: 0; ToIndex: -1; ScrollX: -1; ScrollY: -1; MaxScrollX: -1; MaxScrollY: -1; AddedCount: -1; RemovedCount: -1; ParcelableData: null ]'
p1144
sS'MovementGranularity'
p1145
g6
sa(dp1146
S'EventTime'
p1147
S'41066171'
p1148
sg4
L1449904105124L
sS'recordCount'
p1149
g1058
sS'EventType'
p1150
S'TYPE_WINDOW_CONTENT_CHANGED'
p1151
sS'PackageName'
p1152
S'com.taobao.ishopping'
p1153
sS'OutBounds'
p1154
S'Rect(686, 375 - 900, 501)'
p1155
sS'Action'
p1156
S'[ ClassName: android.widget.TextView; Text: []; ContentDescription: null; ItemCount: -1; CurrentItemIndex: -1; IsEnabled: true; IsPassword: false; IsChecked: false; IsFullScreen: false; Scrollable: false; BeforeText: null; FromIndex: -1; ToIndex: -1; ScrollX: -1; ScrollY: -1; MaxScrollX: -1; MaxScrollY: -1; AddedCount: -1; RemovedCount: -1; ParcelableData: null ]'
p1157
sS'MovementGranularity'
p1158
g6
sa(dp1159
S'EventTime'
p1160
S'41074999'
p1161
sg4
L1449904113950L
sS'recordCount'
p1162
g6
sS'EventType'
p1163
S'TYPE_VIEW_CLICKED'
p1164
sS'PackageName'
p1165
S'com.taobao.ishopping'
p1166
sS'OutBounds'
p1167
S'Rect(541, 210 - 1080, 345)'
p1168
sS'Action'
p1169
S'[ ClassName: android.widget.TextView; Text: [\xe8\xbf\x9b\xe7\xbe\xa4\xe9\x80\x9b\xe9\x80\x9b]; ContentDescription: null; ItemCount: -1; CurrentItemIndex: -1; IsEnabled: true; IsPassword: false; IsChecked: false; IsFullScreen: false; Scrollable: false; BeforeText: null; FromIndex: -1; ToIndex: -1; ScrollX: -1; ScrollY: -1; MaxScrollX: -1; MaxScrollY: -1; AddedCount: -1; RemovedCount: -1; ParcelableData: null ]'
p1170
sS'MovementGranularity'
p1171
g6
sa(dp1172
S'EventTime'
p1173
S'41075136'
p1174
sg4
L1449904114105L
sS'recordCount'
p1175
g6
sS'EventType'
p1176
S'TYPE_WINDOW_STATE_CHANGED'
p1177
sS'PackageName'
p1178
S'com.taobao.ishopping'
p1179
sS'OutBounds'
p1180
S'Rect(0, 0 - 1080, 1776)'
p1181
sS'Action'
p1182
S'[ ClassName: com.taobao.ishopping.thirdparty.windvane.HybridWVActivity; Text: [\xe7\x88\xb1\xe9\x80\x9b\xe8\xa1\x97]; ContentDescription: null; ItemCount: -1; CurrentItemIndex: -1; IsEnabled: true; IsPassword: false; IsChecked: false; IsFullScreen: true; Scrollable: false; BeforeText: null; FromIndex: -1; ToIndex: -1; ScrollX: -1; ScrollY: -1; MaxScrollX: -1; MaxScrollY: -1; AddedCount: -1; RemovedCount: -1; ParcelableData: null ]'
p1183
sS'MovementGranularity'
p1184
g6
sa(dp1185
S'EventTime'
p1186
S'41075304'
p1187
sg4
L1449904114263L
sS'recordCount'
p1188
g6
sS'EventType'
p1189
S'TYPE_WINDOW_CONTENT_CHANGED'
p1190
sS'PackageName'
p1191
S'com.taobao.ishopping'
p1192
sS'OutBounds'
p1193
S'Rect(513, 109 - 567, 172)'
p1194
sS'Action'
p1195
S'[ ClassName: android.widget.TextView; Text: []; ContentDescription: null; ItemCount: -1; CurrentItemIndex: -1; IsEnabled: true; IsPassword: false; IsChecked: false; IsFullScreen: false; Scrollable: false; BeforeText: null; FromIndex: -1; ToIndex: -1; ScrollX: -1; ScrollY: -1; MaxScrollX: -1; MaxScrollY: -1; AddedCount: -1; RemovedCount: -1; ParcelableData: null ]'
p1196
sS'MovementGranularity'
p1197
g6
sa(dp1198
S'EventTime'
p1199
S'41075933'
p1200
sg4
L1449904114889L
sS'recordCount'
p1201
g6
sS'EventType'
p1202
S'TYPE_WINDOW_CONTENT_CHANGED'
p1203
sS'PackageName'
p1204
S'com.taobao.ishopping'
p1205
sS'OutBounds'
p1206
S'Rect(432, 109 - 648, 172)'
p1207
sS'Action'
p1208
S'[ ClassName: android.widget.TextView; Text: []; ContentDescription: null; ItemCount: -1; CurrentItemIndex: -1; IsEnabled: true; IsPassword: false; IsChecked: false; IsFullScreen: false; Scrollable: false; BeforeText: null; FromIndex: -1; ToIndex: -1; ScrollX: -1; ScrollY: -1; MaxScrollX: -1; MaxScrollY: -1; AddedCount: -1; RemovedCount: -1; ParcelableData: null ]'
p1209
sS'MovementGranularity'
p1210
g6
sa(dp1211
S'EventTime'
p1212
S'41076084'
p1213
sg4
L1449904115036L
sS'recordCount'
p1214
g6
sS'EventType'
p1215
S'TYPE_WINDOW_CONTENT_CHANGED'
p1216
sS'PackageName'
p1217
S'com.taobao.ishopping'
p1218
sS'OutBounds'
p1219
S'Rect(936, 75 - 1080, 207)'
p1220
sS'Action'
p1221
S'[ ClassName: android.widget.TextView; Text: []; ContentDescription: \xe8\xae\xbe\xe7\xbd\xae; ItemCount: -1; CurrentItemIndex: -1; IsEnabled: true; IsPassword: false; IsChecked: false; IsFullScreen: false; Scrollable: false; BeforeText: null; FromIndex: -1; ToIndex: -1; ScrollX: -1; ScrollY: -1; MaxScrollX: -1; MaxScrollY: -1; AddedCount: -1; RemovedCount: -1; ParcelableData: null ]'
p1222
sS'MovementGranularity'
p1223
g6
sa(dp1224
S'EventTime'
p1225
S'41076305'
p1226
sg4
L1449904115258L
sS'recordCount'
p1227
g6
sS'EventType'
p1228
S'TYPE_WINDOW_CONTENT_CHANGED'
p1229
sS'PackageName'
p1230
S'com.taobao.ishopping'
p1231
sS'OutBounds'
p1232
S'Rect(0, 207 - 1080, 1776)'
p1233
sS'Action'
p1234
S'[ ClassName: com.android.org.chromium.content.browser.ContentViewCore; Text: []; ContentDescription: \xe7\xbd\x91\xe9\xa1\xb5\xe8\xa7\x86\xe5\x9b\xbe; ItemCount: -1; CurrentItemIndex: -1; IsEnabled: true; IsPassword: false; IsChecked: false; IsFullScreen: false; Scrollable: false; BeforeText: null; FromIndex: -1; ToIndex: -1; ScrollX: 0; ScrollY: 0; MaxScrollX: 0; MaxScrollY: 0; AddedCount: -1; RemovedCount: -1; ParcelableData: null ]'
p1235
sS'MovementGranularity'
p1236
g6
sa(dp1237
S'EventTime'
p1238
S'41076425'
p1239
sg4
L1449904115384L
sS'recordCount'
p1240
g6
sS'EventType'
p1241
S'TYPE_VIEW_SCROLLED'
p1242
sS'PackageName'
p1243
S'com.taobao.ishopping'
p1244
sS'OutBounds'
p1245
S'Rect(0, 207 - 1080, 1776)'
p1246
sS'Action'
p1247
S'[ ClassName: com.android.org.chromium.content.browser.ContentViewCore; Text: []; ContentDescription: \xe7\xbd\x91\xe9\xa1\xb5\xe8\xa7\x86\xe5\x9b\xbe; ItemCount: -1; CurrentItemIndex: -1; IsEnabled: true; IsPassword: false; IsChecked: false; IsFullScreen: false; Scrollable: true; BeforeText: null; FromIndex: -1; ToIndex: -1; ScrollX: 0; ScrollY: 1; MaxScrollX: 0; MaxScrollY: 435; AddedCount: -1; RemovedCount: -1; ParcelableData: null ]'
p1248
sS'MovementGranularity'
p1249
g6
sa(dp1250
S'EventTime'
p1251
S'41079405'
p1252
sg4
L1449904118365L
sS'recordCount'
p1253
g6
sS'EventType'
p1254
S'TYPE_VIEW_SCROLLED'
p1255
sS'PackageName'
p1256
S'com.taobao.ishopping'
p1257
sS'OutBounds'
p1258
S'Rect(0, 207 - 1080, 1776)'
p1259
sS'Action'
p1260
S'[ ClassName: com.android.org.chromium.content.browser.ContentViewCore; Text: []; ContentDescription: \xe7\xbd\x91\xe9\xa1\xb5\xe8\xa7\x86\xe5\x9b\xbe; ItemCount: -1; CurrentItemIndex: -1; IsEnabled: true; IsPassword: false; IsChecked: false; IsFullScreen: false; Scrollable: true; BeforeText: null; FromIndex: -1; ToIndex: -1; ScrollX: 0; ScrollY: 77; MaxScrollX: 0; MaxScrollY: 435; AddedCount: -1; RemovedCount: -1; ParcelableData: null ]'
p1261
sS'MovementGranularity'
p1262
g6
sa(dp1263
S'EventTime'
p1264
S'41079507'
p1265
sg4
L1449904118466L
sS'recordCount'
p1266
g6
sS'EventType'
p1267
S'TYPE_VIEW_SCROLLED'
p1268
sS'PackageName'
p1269
S'com.taobao.ishopping'
p1270
sS'OutBounds'
p1271
S'Rect(0, 207 - 1080, 1776)'
p1272
sS'Action'
p1273
S'[ ClassName: com.android.org.chromium.content.browser.ContentViewCore; Text: []; ContentDescription: \xe7\xbd\x91\xe9\xa1\xb5\xe8\xa7\x86\xe5\x9b\xbe; ItemCount: -1; CurrentItemIndex: -1; IsEnabled: true; IsPassword: false; IsChecked: false; IsFullScreen: false; Scrollable: true; BeforeText: null; FromIndex: -1; ToIndex: -1; ScrollX: 0; ScrollY: 105; MaxScrollX: 0; MaxScrollY: 435; AddedCount: -1; RemovedCount: -1; ParcelableData: null ]'
p1274
sS'MovementGranularity'
p1275
g6
sa(dp1276
S'EventTime'
p1277
S'41079618'
p1278
sg4
L1449904118587L
sS'recordCount'
p1279
g6
sS'EventType'
p1280
S'TYPE_VIEW_SCROLLED'
p1281
sS'PackageName'
p1282
S'com.taobao.ishopping'
p1283
sS'OutBounds'
p1284
S'Rect(0, 207 - 1080, 1776)'
p1285
sS'Action'
p1286
S'[ ClassName: com.android.org.chromium.content.browser.ContentViewCore; Text: []; ContentDescription: \xe7\xbd\x91\xe9\xa1\xb5\xe8\xa7\x86\xe5\x9b\xbe; ItemCount: -1; CurrentItemIndex: -1; IsEnabled: true; IsPassword: false; IsChecked: false; IsFullScreen: false; Scrollable: true; BeforeText: null; FromIndex: -1; ToIndex: -1; ScrollX: 0; ScrollY: 115; MaxScrollX: 0; MaxScrollY: 435; AddedCount: -1; RemovedCount: -1; ParcelableData: null ]'
p1287
sS'MovementGranularity'
p1288
g6
sa(dp1289
S'EventTime'
p1290
S'41079730'
p1291
sg4
L1449904118708L
sS'recordCount'
p1292
g6
sS'EventType'
p1293
S'TYPE_VIEW_SCROLLED'
p1294
sS'PackageName'
p1295
S'com.taobao.ishopping'
p1296
sS'OutBounds'
p1297
S'Rect(0, 207 - 1080, 1776)'
p1298
sS'Action'
p1299
S'[ ClassName: com.android.org.chromium.content.browser.ContentViewCore; Text: []; ContentDescription: \xe7\xbd\x91\xe9\xa1\xb5\xe8\xa7\x86\xe5\x9b\xbe; ItemCount: -1; CurrentItemIndex: -1; IsEnabled: true; IsPassword: false; IsChecked: false; IsFullScreen: false; Scrollable: true; BeforeText: null; FromIndex: -1; ToIndex: -1; ScrollX: 0; ScrollY: 163; MaxScrollX: 0; MaxScrollY: 435; AddedCount: -1; RemovedCount: -1; ParcelableData: null ]'
p1300
sS'MovementGranularity'
p1301
g6
sa(dp1302
S'EventTime'
p1303
S'41079858'
p1304
sg4
L1449904118814L
sS'recordCount'
p1305
g6
sS'EventType'
p1306
S'TYPE_VIEW_SCROLLED'
p1307
sS'PackageName'
p1308
S'com.taobao.ishopping'
p1309
sS'OutBounds'
p1310
S'Rect(0, 207 - 1080, 1776)'
p1311
sS'Action'
p1312
S'[ ClassName: com.android.org.chromium.content.browser.ContentViewCore; Text: []; ContentDescription: \xe7\xbd\x91\xe9\xa1\xb5\xe8\xa7\x86\xe5\x9b\xbe; ItemCount: -1; CurrentItemIndex: -1; IsEnabled: true; IsPassword: false; IsChecked: false; IsFullScreen: false; Scrollable: true; BeforeText: null; FromIndex: -1; ToIndex: -1; ScrollX: 0; ScrollY: 180; MaxScrollX: 0; MaxScrollY: 435; AddedCount: -1; RemovedCount: -1; ParcelableData: null ]'
p1313
sS'MovementGranularity'
p1314
g6
sa(dp1315
S'EventTime'
p1316
S'41080345'
p1317
sg4
L1449904119302L
sS'recordCount'
p1318
g6
sS'EventType'
p1319
S'TYPE_VIEW_SCROLLED'
p1320
sS'PackageName'
p1321
S'com.taobao.ishopping'
p1322
sS'OutBounds'
p1323
S'Rect(0, 207 - 1080, 1776)'
p1324
sS'Action'
p1325
S'[ ClassName: com.android.org.chromium.content.browser.ContentViewCore; Text: []; ContentDescription: \xe7\xbd\x91\xe9\xa1\xb5\xe8\xa7\x86\xe5\x9b\xbe; ItemCount: -1; CurrentItemIndex: -1; IsEnabled: true; IsPassword: false; IsChecked: false; IsFullScreen: false; Scrollable: true; BeforeText: null; FromIndex: -1; ToIndex: -1; ScrollX: 0; ScrollY: 122; MaxScrollX: 0; MaxScrollY: 435; AddedCount: -1; RemovedCount: -1; ParcelableData: null ]'
p1326
sS'MovementGranularity'
p1327
g6
sa(dp1328
S'EventTime'
p1329
S'41080473'
p1330
sg4
L1449904119430L
sS'recordCount'
p1331
g6
sS'EventType'
p1332
S'TYPE_VIEW_SCROLLED'
p1333
sS'PackageName'
p1334
S'com.taobao.ishopping'
p1335
sS'OutBounds'
p1336
S'Rect(0, 207 - 1080, 1776)'
p1337
sS'Action'
p1338
S'[ ClassName: com.android.org.chromium.content.browser.ContentViewCore; Text: []; ContentDescription: \xe7\xbd\x91\xe9\xa1\xb5\xe8\xa7\x86\xe5\x9b\xbe; ItemCount: -1; CurrentItemIndex: -1; IsEnabled: true; IsPassword: false; IsChecked: false; IsFullScreen: false; Scrollable: true; BeforeText: null; FromIndex: -1; ToIndex: -1; ScrollX: 0; ScrollY: 121; MaxScrollX: 0; MaxScrollY: 435; AddedCount: -1; RemovedCount: -1; ParcelableData: null ]'
p1339
sS'MovementGranularity'
p1340
g6
sa(dp1341
S'EventTime'
p1342
S'41085535'
p1343
sg4
L1449904124506L
sS'recordCount'
p1344
g6
sS'EventType'
p1345
S'TYPE_WINDOW_STATE_CHANGED'
p1346
sS'PackageName'
p1347
S'com.taobao.ishopping'
p1348
sS'OutBounds'
p1349
S'Rect(0, 0 - 1080, 1776)'
p1350
sS'Action'
p1351
S'[ ClassName: com.taobao.ishopping.im.activity.GroupChatActivity; Text: [\xe7\x88\xb1\xe9\x80\x9b\xe8\xa1\x97]; ContentDescription: null; ItemCount: -1; CurrentItemIndex: -1; IsEnabled: true; IsPassword: false; IsChecked: false; IsFullScreen: true; Scrollable: false; BeforeText: null; FromIndex: -1; ToIndex: -1; ScrollX: -1; ScrollY: -1; MaxScrollX: -1; MaxScrollY: -1; AddedCount: -1; RemovedCount: -1; ParcelableData: null ]'
p1352
sS'MovementGranularity'
p1353
g6
sa(dp1354
S'EventTime'
p1355
S'41086787'
p1356
sg4
L1449904125744L
sS'recordCount'
p1357
g6
sS'EventType'
p1358
S'TYPE_WINDOW_STATE_CHANGED'
p1359
sS'PackageName'
p1360
S'com.taobao.ishopping'
p1361
sS'OutBounds'
p1362
S'Rect(0, 0 - 1080, 1776)'
p1363
sS'Action'
p1364
S'[ ClassName: com.taobao.ishopping.thirdparty.windvane.HybridWVActivity; Text: [\xe7\x88\xb1\xe9\x80\x9b\xe8\xa1\x97]; ContentDescription: null; ItemCount: -1; CurrentItemIndex: -1; IsEnabled: true; IsPassword: false; IsChecked: false; IsFullScreen: true; Scrollable: false; BeforeText: null; FromIndex: -1; ToIndex: -1; ScrollX: -1; ScrollY: -1; MaxScrollX: -1; MaxScrollY: -1; AddedCount: -1; RemovedCount: -1; ParcelableData: null ]'
p1365
sS'MovementGranularity'
p1366
g6
sa(dp1367
S'EventTime'
p1368
S'41091641'
p1369
sg4
L1449904130601L
sS'recordCount'
p1370
g6
sS'EventType'
p1371
S'TYPE_WINDOW_STATE_CHANGED'
p1372
sS'PackageName'
p1373
S'com.taobao.ishopping'
p1374
sS'OutBounds'
p1375
S'Rect(0, 0 - 1080, 1776)'
p1376
sS'Action'
p1377
S'[ ClassName: com.taobao.ishopping.activity.home.MainActivity; Text: [\xe7\x88\xb1\xe9\x80\x9b\xe8\xa1\x97]; ContentDescription: null; ItemCount: -1; CurrentItemIndex: -1; IsEnabled: true; IsPassword: false; IsChecked: false; IsFullScreen: true; Scrollable: false; BeforeText: null; FromIndex: -1; ToIndex: -1; ScrollX: -1; ScrollY: -1; MaxScrollX: -1; MaxScrollY: -1; AddedCount: -1; RemovedCount: -1; ParcelableData: null ]'
p1378
sS'MovementGranularity'
p1379
g6
sa(dp1380
S'EventTime'
p1381
S'41093921'
p1382
sg4
L1449904132912L
sS'recordCount'
p1383
g6
sS'EventType'
p1384
S'TYPE_WINDOW_STATE_CHANGED'
p1385
sS'PackageName'
p1386
S'com.taobao.ishopping'
p1387
sS'OutBounds'
p1388
S'Rect(0, 0 - 1080, 1776)'
p1389
sS'Action'
p1390
S'[ ClassName: com.taobao.ishopping.thirdparty.windvane.HybridWVActivity; Text: [\xe7\x88\xb1\xe9\x80\x9b\xe8\xa1\x97]; ContentDescription: null; ItemCount: -1; CurrentItemIndex: -1; IsEnabled: true; IsPassword: false; IsChecked: false; IsFullScreen: true; Scrollable: false; BeforeText: null; FromIndex: -1; ToIndex: -1; ScrollX: -1; ScrollY: -1; MaxScrollX: -1; MaxScrollY: -1; AddedCount: -1; RemovedCount: -1; ParcelableData: null ]'
p1391
sS'MovementGranularity'
p1392
g6
sa(dp1393
S'EventTime'
p1394
S'41094087'
p1395
sg4
L1449904133039L
sS'recordCount'
p1396
g6
sS'EventType'
p1397
S'TYPE_WINDOW_CONTENT_CHANGED'
p1398
sS'PackageName'
p1399
S'com.taobao.ishopping'
p1400
sS'OutBounds'
p1401
S'Rect(513, 109 - 567, 172)'
p1402
sS'Action'
p1403
S'[ ClassName: android.widget.TextView; Text: []; ContentDescription: null; ItemCount: -1; CurrentItemIndex: -1; IsEnabled: true; IsPassword: false; IsChecked: false; IsFullScreen: false; Scrollable: false; BeforeText: null; FromIndex: -1; ToIndex: -1; ScrollX: -1; ScrollY: -1; MaxScrollX: -1; MaxScrollY: -1; AddedCount: -1; RemovedCount: -1; ParcelableData: null ]'
p1404
sS'MovementGranularity'
p1405
g6
sa(dp1406
S'EventTime'
p1407
S'41094690'
p1408
sg4
L1449904133644L
sS'recordCount'
p1409
g6
sS'EventType'
p1410
S'TYPE_WINDOW_CONTENT_CHANGED'
p1411
sS'PackageName'
p1412
S'com.taobao.ishopping'
p1413
sS'OutBounds'
p1414
S'Rect(432, 109 - 648, 172)'
p1415
sS'Action'
p1416
S'[ ClassName: android.widget.TextView; Text: []; ContentDescription: null; ItemCount: -1; CurrentItemIndex: -1; IsEnabled: true; IsPassword: false; IsChecked: false; IsFullScreen: false; Scrollable: false; BeforeText: null; FromIndex: -1; ToIndex: -1; ScrollX: -1; ScrollY: -1; MaxScrollX: -1; MaxScrollY: -1; AddedCount: -1; RemovedCount: -1; ParcelableData: null ]'
p1417
sS'MovementGranularity'
p1418
g6
sa(dp1419
S'EventTime'
p1420
S'41094950'
p1421
sg4
L1449904133906L
sS'recordCount'
p1422
g6
sS'EventType'
p1423
S'TYPE_WINDOW_CONTENT_CHANGED'
p1424
sS'PackageName'
p1425
S'com.taobao.ishopping'
p1426
sS'OutBounds'
p1427
S'Rect(0, 206 - 1080, 2210)'
p1428
sS'Action'
p1429
S'[ ClassName: android.view.View; Text: []; ContentDescription: null; ItemCount: 0; CurrentItemIndex: 0; IsEnabled: true; IsPassword: false; IsChecked: false; IsFullScreen: false; Scrollable: true; BeforeText: null; FromIndex: -1; ToIndex: -1; ScrollX: 0; ScrollY: 1; MaxScrollX: 0; MaxScrollY: 435; AddedCount: -1; RemovedCount: -1; ParcelableData: null ]'
p1430
sS'MovementGranularity'
p1431
g6
sa(dp1432
S'EventTime'
p1433
S'41095057'
p1434
sg4
L1449904134014L
sS'recordCount'
p1435
g6
sS'EventType'
p1436
S'TYPE_VIEW_SCROLLED'
p1437
sS'PackageName'
p1438
S'com.taobao.ishopping'
p1439
sS'OutBounds'
p1440
S'Rect(0, 207 - 1080, 1776)'
p1441
sS'Action'
p1442
S'[ ClassName: com.android.org.chromium.content.browser.ContentViewCore; Text: []; ContentDescription: \xe7\xbd\x91\xe9\xa1\xb5\xe8\xa7\x86\xe5\x9b\xbe; ItemCount: -1; CurrentItemIndex: -1; IsEnabled: true; IsPassword: false; IsChecked: false; IsFullScreen: false; Scrollable: true; BeforeText: null; FromIndex: -1; ToIndex: -1; ScrollX: 0; ScrollY: 1; MaxScrollX: 0; MaxScrollY: 435; AddedCount: -1; RemovedCount: -1; ParcelableData: null ]'
p1443
sS'MovementGranularity'
p1444
g6
sa(dp1445
S'EventTime'
p1446
S'41095340'
p1447
sg4
L1449904134315L
sS'recordCount'
p1448
g6
sS'EventType'
p1449
S'TYPE_WINDOW_CONTENT_CHANGED'
p1450
sS'PackageName'
p1451
S'com.taobao.ishopping'
p1452
sS'OutBounds'
p1453
S'Rect(0, 206 - 1080, 2210)'
p1454
sS'Action'
p1455
S'[ ClassName: android.view.View; Text: []; ContentDescription: null; ItemCount: 0; CurrentItemIndex: 0; IsEnabled: true; IsPassword: false; IsChecked: false; IsFullScreen: false; Scrollable: true; BeforeText: null; FromIndex: -1; ToIndex: -1; ScrollX: 0; ScrollY: 1; MaxScrollX: 0; MaxScrollY: 435; AddedCount: -1; RemovedCount: -1; ParcelableData: null ]'
p1456
sS'MovementGranularity'
p1457
g6
sa(dp1458
S'EventTime'
p1459
S'41095468'
p1460
sg4
L1449904134423L
sS'recordCount'
p1461
g6
sS'EventType'
p1462
S'TYPE_WINDOW_STATE_CHANGED'
p1463
sS'PackageName'
p1464
S'com.taobao.ishopping'
p1465
sS'OutBounds'
p1466
S'Rect(0, 0 - 1080, 1776)'
p1467
sS'Action'
p1468
S'[ ClassName: com.taobao.ishopping.thirdparty.windvane.HybridWVActivity; Text: [\xe7\x88\xb1\xe9\x80\x9b\xe8\xa1\x97]; ContentDescription: null; ItemCount: -1; CurrentItemIndex: -1; IsEnabled: true; IsPassword: false; IsChecked: false; IsFullScreen: true; Scrollable: false; BeforeText: null; FromIndex: -1; ToIndex: -1; ScrollX: -1; ScrollY: -1; MaxScrollX: -1; MaxScrollY: -1; AddedCount: -1; RemovedCount: -1; ParcelableData: null ]'
p1469
sS'MovementGranularity'
p1470
g6
sa(dp1471
S'EventTime'
p1472
S'41095510'
p1473
sg4
L1449904134502L
sS'recordCount'
p1474
g6
sS'EventType'
p1475
S'TYPE_WINDOW_CONTENT_CHANGED'
p1476
sS'PackageName'
p1477
S'com.taobao.ishopping'
p1478
sS'OutBounds'
p1479
S'Rect(0, 75 - 168, 207)'
p1480
sS'Action'
p1481
S'[ ClassName: android.widget.ImageButton; Text: []; ContentDescription: \xe8\xbd\xac\xe5\x88\xb0\xe4\xb8\x8a\xe4\xb8\x80\xe5\xb1\x82\xe7\xba\xa7; ItemCount: -1; CurrentItemIndex: -1; IsEnabled: true; IsPassword: false; IsChecked: false; IsFullScreen: false; Scrollable: false; BeforeText: null; FromIndex: -1; ToIndex: -1; ScrollX: -1; ScrollY: -1; MaxScrollX: -1; MaxScrollY: -1; AddedCount: -1; RemovedCount: -1; ParcelableData: null ]'
p1482
sS'MovementGranularity'
p1483
g6
sa(dp1484
S'EventTime'
p1485
S'41095639'
p1486
sg4
L1449904134636L
sS'recordCount'
p1487
g6
sS'EventType'
p1488
S'TYPE_WINDOW_CONTENT_CHANGED'
p1489
sS'PackageName'
p1490
S'com.taobao.ishopping'
p1491
sS'OutBounds'
p1492
S'Rect(405, 109 - 675, 172)'
p1493
sS'Action'
p1494
S'[ ClassName: android.widget.TextView; Text: []; ContentDescription: null; ItemCount: -1; CurrentItemIndex: -1; IsEnabled: true; IsPassword: false; IsChecked: false; IsFullScreen: false; Scrollable: false; BeforeText: null; FromIndex: -1; ToIndex: -1; ScrollX: -1; ScrollY: -1; MaxScrollX: -1; MaxScrollY: -1; AddedCount: -1; RemovedCount: -1; ParcelableData: null ]'
p1495
sS'MovementGranularity'
p1496
g6
sa(dp1497
S'EventTime'
p1498
S'41095906'
p1499
sg4
L1449904134884L
sS'recordCount'
p1500
g6
sS'EventType'
p1501
S'TYPE_WINDOW_CONTENT_CHANGED'
p1502
sS'PackageName'
p1503
S'com.taobao.ishopping'
p1504
sS'OutBounds'
p1505
S'Rect(405, 109 - 675, 172)'
p1506
sS'Action'
p1507
S'[ ClassName: android.widget.TextView; Text: []; ContentDescription: null; ItemCount: -1; CurrentItemIndex: -1; IsEnabled: true; IsPassword: false; IsChecked: false; IsFullScreen: false; Scrollable: false; BeforeText: null; FromIndex: -1; ToIndex: -1; ScrollX: -1; ScrollY: -1; MaxScrollX: -1; MaxScrollY: -1; AddedCount: -1; RemovedCount: -1; ParcelableData: null ]'
p1508
sS'MovementGranularity'
p1509
g6
sa(dp1510
S'EventTime'
p1511
S'41096097'
p1512
sg4
L1449904135057L
sS'recordCount'
p1513
g6
sS'EventType'
p1514
S'TYPE_WINDOW_CONTENT_CHANGED'
p1515
sS'PackageName'
p1516
S'com.taobao.ishopping'
p1517
sS'OutBounds'
p1518
S'Rect(0, 207 - 1080, 1776)'
p1519
sS'Action'
p1520
S'[ ClassName: android.view.View; Text: []; ContentDescription: null; ItemCount: 0; CurrentItemIndex: 0; IsEnabled: true; IsPassword: false; IsChecked: false; IsFullScreen: false; Scrollable: true; BeforeText: null; FromIndex: -1; ToIndex: -1; ScrollX: 0; ScrollY: 0; MaxScrollX: 0; MaxScrollY: 0; AddedCount: -1; RemovedCount: -1; ParcelableData: null ]'
p1521
sS'MovementGranularity'
p1522
g6
sa(dp1523
S'EventTime'
p1524
S'41096354'
p1525
sg4
L1449904135311L
sS'recordCount'
p1526
g6
sS'EventType'
p1527
S'TYPE_WINDOW_CONTENT_CHANGED'
p1528
sS'PackageName'
p1529
S'com.taobao.ishopping'
p1530
sS'OutBounds'
p1531
S'Rect(0, 207 - 1080, 1776)'
p1532
sS'Action'
p1533
S'[ ClassName: android.view.View; Text: []; ContentDescription: null; ItemCount: 0; CurrentItemIndex: 0; IsEnabled: true; IsPassword: false; IsChecked: false; IsFullScreen: false; Scrollable: true; BeforeText: null; FromIndex: -1; ToIndex: -1; ScrollX: 0; ScrollY: 1; MaxScrollX: 0; MaxScrollY: 3442; AddedCount: -1; RemovedCount: -1; ParcelableData: null ]'
p1534
sS'MovementGranularity'
p1535
g6
sa(dp1536
S'EventTime'
p1537
S'41096623'
p1538
sg4
L1449904135598L
sS'recordCount'
p1539
g6
sS'EventType'
p1540
S'TYPE_VIEW_SCROLLED'
p1541
sS'PackageName'
p1542
S'com.taobao.ishopping'
p1543
sS'OutBounds'
p1544
S'Rect(0, 207 - 1080, 1776)'
p1545
sS'Action'
p1546
S'[ ClassName: com.android.org.chromium.content.browser.ContentViewCore; Text: []; ContentDescription: \xe7\xbd\x91\xe9\xa1\xb5\xe8\xa7\x86\xe5\x9b\xbe; ItemCount: -1; CurrentItemIndex: -1; IsEnabled: true; IsPassword: false; IsChecked: false; IsFullScreen: false; Scrollable: true; BeforeText: null; FromIndex: -1; ToIndex: -1; ScrollX: 0; ScrollY: 1; MaxScrollX: 0; MaxScrollY: 3442; AddedCount: -1; RemovedCount: -1; ParcelableData: null ]'
p1547
sS'MovementGranularity'
p1548
g6
sa(dp1549
S'EventTime'
p1550
S'41096833'
p1551
sg4
L1449904135797L
sS'recordCount'
p1552
g6
sS'EventType'
p1553
S'TYPE_WINDOW_CONTENT_CHANGED'
p1554
sS'PackageName'
p1555
S'com.taobao.ishopping'
p1556
sS'OutBounds'
p1557
S'Rect(0, 206 - 1080, 1775)'
p1558
sS'Action'
p1559
S'[ ClassName: android.view.View; Text: []; ContentDescription: null; ItemCount: 0; CurrentItemIndex: 0; IsEnabled: true; IsPassword: false; IsChecked: false; IsFullScreen: false; Scrollable: true; BeforeText: null; FromIndex: -1; ToIndex: -1; ScrollX: 0; ScrollY: 1; MaxScrollX: 0; MaxScrollY: 3710; AddedCount: -1; RemovedCount: -1; ParcelableData: null ]'
p1560
sS'MovementGranularity'
p1561
g6
sa(dp1562
S'EventTime'
p1563
S'41097919'
p1564
sg4
L1449904136878L
sS'recordCount'
p1565
g6
sS'EventType'
p1566
S'TYPE_WINDOW_STATE_CHANGED'
p1567
sS'PackageName'
p1568
S'com.taobao.ishopping'
p1569
sS'OutBounds'
p1570
S'Rect(0, 0 - 1080, 1776)'
p1571
sS'Action'
p1572
S'[ ClassName: com.taobao.ishopping.thirdparty.windvane.HybridWVActivity; Text: [\xe7\x88\xb1\xe9\x80\x9b\xe8\xa1\x97]; ContentDescription: null; ItemCount: -1; CurrentItemIndex: -1; IsEnabled: true; IsPassword: false; IsChecked: false; IsFullScreen: true; Scrollable: false; BeforeText: null; FromIndex: -1; ToIndex: -1; ScrollX: -1; ScrollY: -1; MaxScrollX: -1; MaxScrollY: -1; AddedCount: -1; RemovedCount: -1; ParcelableData: null ]'
p1573
sS'MovementGranularity'
p1574
g6
sa(dp1575
S'EventTime'
p1576
S'41100373'
p1577
sg4
L1449904139332L
sS'recordCount'
p1578
g6
sS'EventType'
p1579
S'TYPE_WINDOW_STATE_CHANGED'
p1580
sS'PackageName'
p1581
S'com.taobao.ishopping'
p1582
sS'OutBounds'
p1583
S'Rect(0, 1061 - 1080, 1776)'
p1584
sS'Action'
p1585
S'[ ClassName: com.taobao.ishopping.thirdparty.share.DefaultShareMenuDialog; Text: [\xe9\x82\x80\xe8\xaf\xb7\xe5\xa5\xbd\xe5\x8f\x8b, \xe5\xa5\xbd\xe5\x8f\x8b\xe6\x8e\xa5\xe5\x8f\x97\xe9\x82\x80\xe8\xaf\xb7\xe5\xb0\xb1\xe8\x83\xbd\xe6\x88\x90\xe5\x8a\x9f\xe5\xbb\xba\xe7\xbe\xa4! (30\xe5\xa4\xa9\xe5\x86\x85\xe6\x9c\x89\xe6\x95\x88), \xe5\x8f\x96\xe6\xb6\x88]; ContentDescription: null; ItemCount: -1; CurrentItemIndex: -1; IsEnabled: true; IsPassword: false; IsChecked: false; IsFullScreen: false; Scrollable: false; BeforeText: null; FromIndex: -1; ToIndex: -1; ScrollX: -1; ScrollY: -1; MaxScrollX: -1; MaxScrollY: -1; AddedCount: -1; RemovedCount: -1; ParcelableData: null ]'
p1586
sS'MovementGranularity'
p1587
g6
sa(dp1588
S'EventTime'
p1589
S'41100470'
p1590
sg4
L1449904139424L
sS'recordCount'
p1591
g6
sS'EventType'
p1592
S'TYPE_VIEW_SCROLLED'
p1593
sS'PackageName'
p1594
S'com.taobao.ishopping'
p1595
sS'OutBounds'
p1596
S'Rect(0, 1310 - 1080, 1542)'
p1597
sS'Action'
p1598
S'[ ClassName: android.widget.GridView; Text: []; ContentDescription: null; ItemCount: 3; CurrentItemIndex: -1; IsEnabled: true; IsPassword: false; IsChecked: false; IsFullScreen: false; Scrollable: false; BeforeText: null; FromIndex: 0; ToIndex: 2; ScrollX: -1; ScrollY: -1; MaxScrollX: -1; MaxScrollY: -1; AddedCount: -1; RemovedCount: -1; ParcelableData: null ]'
p1599
sS'MovementGranularity'
p1600
g6
sa(dp1601
S'EventTime'
p1602
S'41100516'
p1603
sg4
L1449904139467L
sS'recordCount'
p1604
g6
sS'EventType'
p1605
S'TYPE_WINDOW_CONTENT_CHANGED'
p1606
sS'PackageName'
p1607
S'com.taobao.ishopping'
p1608
sS'OutBounds'
p1609
S'Rect(0, 1632 - 1080, 1776)'
p1610
sS'Action'
p1611
S'[ ClassName: android.widget.TextView; Text: []; ContentDescription: null; ItemCount: -1; CurrentItemIndex: -1; IsEnabled: true; IsPassword: false; IsChecked: false; IsFullScreen: false; Scrollable: false; BeforeText: null; FromIndex: -1; ToIndex: -1; ScrollX: -1; ScrollY: -1; MaxScrollX: -1; MaxScrollY: -1; AddedCount: -1; RemovedCount: -1; ParcelableData: null ]'
p1612
sS'MovementGranularity'
p1613
g6
sa(dp1614
S'EventTime'
p1615
S'41105411'
p1616
sg4
L1449904144361L
sS'recordCount'
p1617
g1058
sS'EventType'
p1618
S'TYPE_VIEW_CLICKED'
p1619
sS'PackageName'
p1620
S'com.taobao.ishopping'
p1621
sS'OutBounds'
p1622
S'Rect(720, 1310 - 1080, 1542)'
p1623
sS'Action'
p1624
S'[ ClassName: android.widget.RelativeLayout; Text: [\xe6\xb7\x98\xe5\x8f\xa3\xe4\xbb\xa4]; ContentDescription: null; ItemCount: -1; CurrentItemIndex: -1; IsEnabled: true; IsPassword: false; IsChecked: false; IsFullScreen: false; Scrollable: false; BeforeText: null; FromIndex: -1; ToIndex: -1; ScrollX: -1; ScrollY: -1; MaxScrollX: -1; MaxScrollY: -1; AddedCount: -1; RemovedCount: -1; ParcelableData: null ]'
p1625
sS'MovementGranularity'
p1626
g6
sa(dp1627
S'EventTime'
p1628
S'41105429'
p1629
sg4
L1449904144393L
sS'recordCount'
p1630
g6
sS'EventType'
p1631
S'TYPE_WINDOW_STATE_CHANGED'
p1632
sS'PackageName'
p1633
S'com.taobao.ishopping'
p1634
sS'OutBounds'
p1635
S'Rect(0, 0 - 1080, 1776)'
p1636
sS'Action'
p1637
S'[ ClassName: com.taobao.ishopping.thirdparty.windvane.HybridWVActivity; Text: [\xe7\x88\xb1\xe9\x80\x9b\xe8\xa1\x97]; ContentDescription: null; ItemCount: -1; CurrentItemIndex: -1; IsEnabled: true; IsPassword: false; IsChecked: false; IsFullScreen: true; Scrollable: false; BeforeText: null; FromIndex: -1; ToIndex: -1; ScrollX: -1; ScrollY: -1; MaxScrollX: -1; MaxScrollY: -1; AddedCount: -1; RemovedCount: -1; ParcelableData: null ]'
p1638
sS'MovementGranularity'
p1639
g6
sa(dp1640
S'EventTime'
p1641
S'41105913'
p1642
sg4
L1449904144872L
sS'recordCount'
p1643
g6
sS'EventType'
p1644
S'TYPE_WINDOW_STATE_CHANGED'
p1645
sS'PackageName'
p1646
S'com.taobao.ishopping'
p1647
sS'OutBounds'
p1648
S'Rect(60, 644 - 1020, 1206)'
p1649
sS'Action'
p1650
S'[ ClassName: android.app.Dialog; Text: [\xe6\x82\xa8\xe7\x9a\x84\xe6\xb7\x98\xe5\x8f\xa3\xe4\xbb\xa4\xe5\xb7\xb2\xe7\xbb\x8f\xe7\x94\x9f\xe6\x88\x90, \xe5\xa4\x8d\xe5\x88\xb6\xe8\xbf\x99\xe6\x9d\xa1\xe4\xbf\xa1\xe6\x81\xaf\xef\xbc\x8c\xe6\x89\x93\xe5\xbc\x80 \xf0\x9f\x91\x89\xe6\x89\x8b\xe6\x9c\xba\xe6\xb7\x98\xe5\xae\x9d\xe6\x88\x96\xe7\x88\xb1\xe9\x80\x9b\xe8\xa1\x97app \xf0\x9f\x91\x88\xe5\x8d\xb3\xe5\x8f\xaf\xe7\x9c\x8b\xe5\x88\xb0\xe3\x80\x90 swordsmanliu \xe9\x82\x80\xe8\xaf\xb7\xe4\xbd\xa0\xe8\xbf\x9b\xe7\xbe\xa4!\xe3\x80\x91 \xef\xbf\xa5AABprDUn\xef\xbf\xa5\xf0\x9f\x94\x91\xe6\xb7\x98\xe5\x8f\xa3\xe4\xbb\xa4 \xf0\x9f\x94\x91, \xe4\xb8\x8d\xe5\x88\x86\xe4\xba\xab\xe4\xba\x86, \xe5\x8e\xbb\xe7\xb2\x98\xe8\xb4\xb4]; ContentDescription: null; ItemCount: -1; CurrentItemIndex: -1; IsEnabled: true; IsPassword: false; IsChecked: false; IsFullScreen: false; Scrollable: false; BeforeText: null; FromIndex: -1; ToIndex: -1; ScrollX: -1; ScrollY: -1; MaxScrollX: -1; MaxScrollY: -1; AddedCount: -1; RemovedCount: -1; ParcelableData: null ]'
p1651
sS'MovementGranularity'
p1652
g6
sa(dp1653
S'EventTime'
p1654
S'41106085'
p1655
sg4
L1449904145037L
sS'recordCount'
p1656
g6
sS'EventType'
p1657
S'TYPE_WINDOW_CONTENT_CHANGED'
p1658
sS'PackageName'
p1659
S'com.taobao.ishopping'
p1660
sS'OutBounds'
p1661
S'Rect(60, 1062 - 538, 1206)'
p1662
sS'Action'
p1663
S'[ ClassName: android.widget.Button; Text: []; ContentDescription: null; ItemCount: -1; CurrentItemIndex: -1; IsEnabled: true; IsPassword: false; IsChecked: false; IsFullScreen: false; Scrollable: false; BeforeText: null; FromIndex: -1; ToIndex: -1; ScrollX: -1; ScrollY: -1; MaxScrollX: -1; MaxScrollY: -1; AddedCount: -1; RemovedCount: -1; ParcelableData: null ]'
p1664
sS'MovementGranularity'
p1665
g6
sa(dp1666
S'EventTime'
p1667
S'41108103'
p1668
sg4
L1449904147055L
sS'recordCount'
p1669
g6
sS'EventType'
p1670
S'TYPE_VIEW_CLICKED'
p1671
sS'PackageName'
p1672
S'com.taobao.ishopping'
p1673
sS'OutBounds'
p1674
S'Rect(60, 1062 - 538, 1206)'
p1675
sS'Action'
p1676
S'[ ClassName: android.widget.Button; Text: [\xe4\xb8\x8d\xe5\x88\x86\xe4\xba\xab\xe4\xba\x86]; ContentDescription: null; ItemCount: -1; CurrentItemIndex: -1; IsEnabled: true; IsPassword: false; IsChecked: false; IsFullScreen: false; Scrollable: false; BeforeText: null; FromIndex: -1; ToIndex: -1; ScrollX: -1; ScrollY: -1; MaxScrollX: -1; MaxScrollY: -1; AddedCount: -1; RemovedCount: -1; ParcelableData: null ]'
p1677
sS'MovementGranularity'
p1678
g6
sa(dp1679
S'EventTime'
p1680
S'41108134'
p1681
sg4
L1449904147094L
sS'recordCount'
p1682
g6
sS'EventType'
p1683
S'TYPE_WINDOW_STATE_CHANGED'
p1684
sS'PackageName'
p1685
S'com.taobao.ishopping'
p1686
sS'OutBounds'
p1687
S'Rect(0, 0 - 1080, 1776)'
p1688
sS'Action'
p1689
S'[ ClassName: com.taobao.ishopping.thirdparty.windvane.HybridWVActivity; Text: [\xe7\x88\xb1\xe9\x80\x9b\xe8\xa1\x97]; ContentDescription: null; ItemCount: -1; CurrentItemIndex: -1; IsEnabled: true; IsPassword: false; IsChecked: false; IsFullScreen: true; Scrollable: false; BeforeText: null; FromIndex: -1; ToIndex: -1; ScrollX: -1; ScrollY: -1; MaxScrollX: -1; MaxScrollY: -1; AddedCount: -1; RemovedCount: -1; ParcelableData: null ]'
p1690
sS'MovementGranularity'
p1691
g6
sa(dp1692
S'EventTime'
p1693
S'41109102'
p1694
sg4
L1449904148061L
sS'recordCount'
p1695
g6
sS'EventType'
p1696
S'TYPE_WINDOW_STATE_CHANGED'
p1697
sS'PackageName'
p1698
S'com.taobao.ishopping'
p1699
sS'OutBounds'
p1700
S'Rect(0, 1061 - 1080, 1776)'
p1701
sS'Action'
p1702
S'[ ClassName: com.taobao.ishopping.thirdparty.share.DefaultShareMenuDialog; Text: [\xe9\x82\x80\xe8\xaf\xb7\xe5\xa5\xbd\xe5\x8f\x8b, \xe5\xa5\xbd\xe5\x8f\x8b\xe6\x8e\xa5\xe5\x8f\x97\xe9\x82\x80\xe8\xaf\xb7\xe5\xb0\xb1\xe8\x83\xbd\xe6\x88\x90\xe5\x8a\x9f\xe5\xbb\xba\xe7\xbe\xa4! (30\xe5\xa4\xa9\xe5\x86\x85\xe6\x9c\x89\xe6\x95\x88), \xe5\x8f\x96\xe6\xb6\x88]; ContentDescription: null; ItemCount: -1; CurrentItemIndex: -1; IsEnabled: true; IsPassword: false; IsChecked: false; IsFullScreen: false; Scrollable: false; BeforeText: null; FromIndex: -1; ToIndex: -1; ScrollX: -1; ScrollY: -1; MaxScrollX: -1; MaxScrollY: -1; AddedCount: -1; RemovedCount: -1; ParcelableData: null ]'
p1703
sS'MovementGranularity'
p1704
g6
sa(dp1705
S'EventTime'
p1706
S'41109199'
p1707
sg4
L1449904148158L
sS'recordCount'
p1708
g6
sS'EventType'
p1709
S'TYPE_VIEW_SCROLLED'
p1710
sS'PackageName'
p1711
S'com.taobao.ishopping'
p1712
sS'OutBounds'
p1713
S'Rect(0, 1310 - 1080, 1542)'
p1714
sS'Action'
p1715
S'[ ClassName: android.widget.GridView; Text: []; ContentDescription: null; ItemCount: 3; CurrentItemIndex: -1; IsEnabled: true; IsPassword: false; IsChecked: false; IsFullScreen: false; Scrollable: false; BeforeText: null; FromIndex: 0; ToIndex: 2; ScrollX: -1; ScrollY: -1; MaxScrollX: -1; MaxScrollY: -1; AddedCount: -1; RemovedCount: -1; ParcelableData: null ]'
p1716
sS'MovementGranularity'
p1717
g6
sa(dp1718
S'EventTime'
p1719
S'41109261'
p1720
sg4
L1449904148216L
sS'recordCount'
p1721
g6
sS'EventType'
p1722
S'TYPE_WINDOW_CONTENT_CHANGED'
p1723
sS'PackageName'
p1724
S'com.taobao.ishopping'
p1725
sS'OutBounds'
p1726
S'Rect(0, 1310 - 1080, 1542)'
p1727
sS'Action'
p1728
S'[ ClassName: android.widget.GridView; Text: []; ContentDescription: null; ItemCount: 3; CurrentItemIndex: -1; IsEnabled: true; IsPassword: false; IsChecked: false; IsFullScreen: false; Scrollable: false; BeforeText: null; FromIndex: 0; ToIndex: 2; ScrollX: -1; ScrollY: -1; MaxScrollX: -1; MaxScrollY: -1; AddedCount: -1; RemovedCount: -1; ParcelableData: null ]'
p1729
sS'MovementGranularity'
p1730
g6
sa(dp1731
S'EventTime'
p1732
S'41110798'
p1733
sg4
L1449904149750L
sS'recordCount'
p1734
g1058
sS'EventType'
p1735
S'TYPE_VIEW_CLICKED'
p1736
sS'PackageName'
p1737
S'com.taobao.ishopping'
p1738
sS'OutBounds'
p1739
S'Rect(360, 1310 - 720, 1542)'
p1740
sS'Action'
p1741
S'[ ClassName: android.widget.RelativeLayout; Text: [\xe4\xba\x8c\xe7\xbb\xb4\xe7\xa0\x81]; ContentDescription: null; ItemCount: -1; CurrentItemIndex: -1; IsEnabled: true; IsPassword: false; IsChecked: false; IsFullScreen: false; Scrollable: false; BeforeText: null; FromIndex: -1; ToIndex: -1; ScrollX: -1; ScrollY: -1; MaxScrollX: -1; MaxScrollY: -1; AddedCount: -1; RemovedCount: -1; ParcelableData: null ]'
p1742
sS'MovementGranularity'
p1743
g6
sa(dp1744
S'EventTime'
p1745
S'41110816'
p1746
sg4
L1449904149774L
sS'recordCount'
p1747
g6
sS'EventType'
p1748
S'TYPE_WINDOW_STATE_CHANGED'
p1749
sS'PackageName'
p1750
S'com.taobao.ishopping'
p1751
sS'OutBounds'
p1752
S'Rect(0, 0 - 1080, 1776)'
p1753
sS'Action'
p1754
S'[ ClassName: com.taobao.ishopping.thirdparty.windvane.HybridWVActivity; Text: [\xe7\x88\xb1\xe9\x80\x9b\xe8\xa1\x97]; ContentDescription: null; ItemCount: -1; CurrentItemIndex: -1; IsEnabled: true; IsPassword: false; IsChecked: false; IsFullScreen: true; Scrollable: false; BeforeText: null; FromIndex: -1; ToIndex: -1; ScrollX: -1; ScrollY: -1; MaxScrollX: -1; MaxScrollY: -1; AddedCount: -1; RemovedCount: -1; ParcelableData: null ]'
p1755
sS'MovementGranularity'
p1756
g6
sa(dp1757
S'EventTime'
p1758
S'41111195'
p1759
sg4
L1449904150149L
sS'recordCount'
p1760
g6
sS'EventType'
p1761
S'TYPE_WINDOW_STATE_CHANGED'
p1762
sS'PackageName'
p1763
S'com.taobao.ishopping'
p1764
sS'OutBounds'
p1765
S'Rect(60, 449 - 1020, 1401)'
p1766
sS'Action'
p1767
S'[ ClassName: com.taobao.ishopping.thirdparty.share.QRDialog; Text: [\xe6\x89\xab\xe7\xa0\x81\xe5\x88\x86\xe4\xba\xab, \xe9\x82\x80\xe8\xaf\xb7\xe5\xa5\xbd\xe5\x8f\x8b\xe6\x89\xab\xe4\xb8\x80\xe6\x89\xab\xe8\xbf\x9b\xe7\xbe\xa4\xe6\x89\xab\xe8\xb4\xa7]; ContentDescription: null; ItemCount: -1; CurrentItemIndex: -1; IsEnabled: true; IsPassword: false; IsChecked: false; IsFullScreen: false; Scrollable: false; BeforeText: null; FromIndex: -1; ToIndex: -1; ScrollX: -1; ScrollY: -1; MaxScrollX: -1; MaxScrollY: -1; AddedCount: -1; RemovedCount: -1; ParcelableData: null ]'
p1768
sS'MovementGranularity'
p1769
g6
sa(dp1770
S'EventTime'
p1771
S'41111366'
p1772
sg4
L1449904150318L
sS'recordCount'
p1773
g6
sS'EventType'
p1774
S'TYPE_WINDOW_CONTENT_CHANGED'
p1775
sS'PackageName'
p1776
S'com.taobao.ishopping'
p1777
sS'OutBounds'
p1778
S'Rect(60, 1277 - 1020, 1326)'
p1779
sS'Action'
p1780
S'[ ClassName: android.widget.TextView; Text: []; ContentDescription: null; ItemCount: -1; CurrentItemIndex: -1; IsEnabled: true; IsPassword: false; IsChecked: false; IsFullScreen: false; Scrollable: false; BeforeText: null; FromIndex: -1; ToIndex: -1; ScrollX: -1; ScrollY: -1; MaxScrollX: -1; MaxScrollY: -1; AddedCount: -1; RemovedCount: -1; ParcelableData: null ]'
p1781
sS'MovementGranularity'
p1782
g6
sa(dp1783
S'EventTime'
p1784
S'41126933'
p1785
sg4
L1449904165884L
sS'recordCount'
p1786
g6
sS'EventType'
p1787
S'TYPE_VIEW_CLICKED'
p1788
sS'PackageName'
p1789
S'com.taobao.ishopping'
p1790
sS'OutBounds'
p1791
S'Rect(888, 449 - 1020, 581)'
p1792
sS'Action'
p1793
S'[ ClassName: android.widget.ImageView; Text: []; ContentDescription: null; ItemCount: -1; CurrentItemIndex: -1; IsEnabled: true; IsPassword: false; IsChecked: false; IsFullScreen: false; Scrollable: false; BeforeText: null; FromIndex: -1; ToIndex: -1; ScrollX: -1; ScrollY: -1; MaxScrollX: -1; MaxScrollY: -1; AddedCount: -1; RemovedCount: -1; ParcelableData: null ]'
p1794
sS'MovementGranularity'
p1795
g6
sa(dp1796
S'EventTime'
p1797
S'41126950'
p1798
sg4
L1449904165906L
sS'recordCount'
p1799
g6
sS'EventType'
p1800
S'TYPE_WINDOW_STATE_CHANGED'
p1801
sS'PackageName'
p1802
S'com.taobao.ishopping'
p1803
sS'OutBounds'
p1804
S'Rect(0, 0 - 1080, 1776)'
p1805
sS'Action'
p1806
S'[ ClassName: com.taobao.ishopping.thirdparty.windvane.HybridWVActivity; Text: [\xe7\x88\xb1\xe9\x80\x9b\xe8\xa1\x97]; ContentDescription: null; ItemCount: -1; CurrentItemIndex: -1; IsEnabled: true; IsPassword: false; IsChecked: false; IsFullScreen: true; Scrollable: false; BeforeText: null; FromIndex: -1; ToIndex: -1; ScrollX: -1; ScrollY: -1; MaxScrollX: -1; MaxScrollY: -1; AddedCount: -1; RemovedCount: -1; ParcelableData: null ]'
p1807
sS'MovementGranularity'
p1808
g6
sa(dp1809
S'EventTime'
p1810
S'41133715'
p1811
sg4
L1449904172667L
sS'recordCount'
p1812
g6
sS'EventType'
p1813
S'TYPE_VIEW_CLICKED'
p1814
sS'PackageName'
p1815
S'com.taobao.ishopping'
p1816
sS'OutBounds'
p1817
S'Rect(0, 75 - 168, 207)'
p1818
sS'Action'
p1819
S'[ ClassName: android.widget.ImageButton; Text: [\xe8\xbd\xac\xe5\x88\xb0\xe4\xb8\x8a\xe4\xb8\x80\xe5\xb1\x82\xe7\xba\xa7]; ContentDescription: \xe8\xbd\xac\xe5\x88\xb0\xe4\xb8\x8a\xe4\xb8\x80\xe5\xb1\x82\xe7\xba\xa7; ItemCount: -1; CurrentItemIndex: -1; IsEnabled: true; IsPassword: false; IsChecked: false; IsFullScreen: false; Scrollable: false; BeforeText: null; FromIndex: -1; ToIndex: -1; ScrollX: -1; ScrollY: -1; MaxScrollX: -1; MaxScrollY: -1; AddedCount: -1; RemovedCount: -1; ParcelableData: null ]'
p1820
sS'MovementGranularity'
p1821
g6
sa(dp1822
S'EventTime'
p1823
S'41133749'
p1824
sg4
L1449904172716L
sS'recordCount'
p1825
g6
sS'EventType'
p1826
S'TYPE_WINDOW_STATE_CHANGED'
p1827
sS'PackageName'
p1828
S'com.taobao.ishopping'
p1829
sS'OutBounds'
p1830
S'Rect(0, 0 - 1080, 1776)'
p1831
sS'Action'
p1832
S'[ ClassName: com.taobao.ishopping.activity.home.MainActivity; Text: [\xe7\x88\xb1\xe9\x80\x9b\xe8\xa1\x97]; ContentDescription: null; ItemCount: -1; CurrentItemIndex: -1; IsEnabled: true; IsPassword: false; IsChecked: false; IsFullScreen: true; Scrollable: false; BeforeText: null; FromIndex: -1; ToIndex: -1; ScrollX: -1; ScrollY: -1; MaxScrollX: -1; MaxScrollY: -1; AddedCount: -1; RemovedCount: -1; ParcelableData: null ]'
p1833
sS'MovementGranularity'
p1834
g6
sa(dp1835
S'EventTime'
p1836
S'41135784'
p1837
sg4
L1449904174735L
sS'recordCount'
p1838
g6
sS'EventType'
p1839
S'TYPE_VIEW_CLICKED'
p1840
sS'PackageName'
p1841
S'com.taobao.ishopping'
p1842
sS'OutBounds'
p1843
S'Rect(0, 1615 - 216, 1776)'
p1844
sS'Action'
p1845
S'[ ClassName: android.widget.RelativeLayout; Text: [\xe9\xa6\x96\xe9\xa1\xb5]; ContentDescription: null; ItemCount: -1; CurrentItemIndex: -1; IsEnabled: true; IsPassword: false; IsChecked: false; IsFullScreen: false; Scrollable: false; BeforeText: null; FromIndex: -1; ToIndex: -1; ScrollX: -1; ScrollY: -1; MaxScrollX: -1; MaxScrollY: -1; AddedCount: -1; RemovedCount: -1; ParcelableData: null ]'
p1846
sS'MovementGranularity'
p1847
g6
sa(dp1848
S'EventTime'
p1849
S'41135806'
p1850
sg4
L1449904174846L
sS'recordCount'
p1851
g6
sS'EventType'
p1852
S'TYPE_WINDOW_CONTENT_CHANGED'
p1853
sS'PackageName'
p1854
S'com.taobao.ishopping'
p1855
sS'OutBounds'
p1856
S'Rect(0, 75 - 1080, 1615)'
p1857
sS'Action'
p1858
S'[ ClassName: android.support.v7.widget.RecyclerView; Text: []; ContentDescription: null; ItemCount: 14; CurrentItemIndex: -1; IsEnabled: true; IsPassword: false; IsChecked: false; IsFullScreen: false; Scrollable: true; BeforeText: null; FromIndex: 0; ToIndex: 2; ScrollX: -1; ScrollY: -1; MaxScrollX: -1; MaxScrollY: -1; AddedCount: -1; RemovedCount: -1; ParcelableData: null ]'
p1859
sS'MovementGranularity'
p1860
g6
sa(dp1861
S'EventTime'
p1862
S'41136000'
p1863
sg4
L1449904174953L
sS'recordCount'
p1864
g6
sS'EventType'
p1865
S'TYPE_WINDOW_CONTENT_CHANGED'
p1866
sS'PackageName'
p1867
S'com.taobao.ishopping'
p1868
sS'OutBounds'
p1869
S'Rect(0, 207 - 1080, 926)'
p1870
sS'Action'
p1871
S'[ ClassName: android.support.v4.view.ViewPager; Text: []; ContentDescription: null; ItemCount: -1; CurrentItemIndex: -1; IsEnabled: true; IsPassword: false; IsChecked: false; IsFullScreen: false; Scrollable: false; BeforeText: null; FromIndex: -1; ToIndex: -1; ScrollX: -1; ScrollY: -1; MaxScrollX: -1; MaxScrollY: -1; AddedCount: -1; RemovedCount: -1; ParcelableData: null ]'
p1872
sS'MovementGranularity'
p1873
g6
sa(dp1874
S'EventTime'
p1875
S'41138945'
p1876
sg4
L1449904177916L
sS'recordCount'
p1877
g6
sS'EventType'
p1878
S'TYPE_VIEW_SCROLLED'
p1879
sS'PackageName'
p1880
S'com.taobao.ishopping'
p1881
sS'OutBounds'
p1882
S'Rect(0, 207 - 1080, 926)'
p1883
sS'Action'
p1884
S'[ ClassName: android.support.v4.view.ViewPager; Text: []; ContentDescription: null; ItemCount: -1; CurrentItemIndex: -1; IsEnabled: true; IsPassword: false; IsChecked: false; IsFullScreen: false; Scrollable: false; BeforeText: null; FromIndex: -1; ToIndex: -1; ScrollX: -1; ScrollY: -1; MaxScrollX: -1; MaxScrollY: -1; AddedCount: -1; RemovedCount: -1; ParcelableData: null ]'
p1885
sS'MovementGranularity'
p1886
g6
sa(dp1887
S'EventTime'
p1888
S'41139059'
p1889
sg4
L1449904178011L
sS'recordCount'
p1890
g6
sS'EventType'
p1891
S'TYPE_WINDOW_CONTENT_CHANGED'
p1892
sS'PackageName'
p1893
S'com.taobao.ishopping'
p1894
sS'OutBounds'
p1895
S'Rect(1776, 781 - 1871, 826)'
p1896
sS'Action'
p1897
S'[ ClassName: android.widget.TextView; Text: []; ContentDescription: null; ItemCount: -1; CurrentItemIndex: -1; IsEnabled: true; IsPassword: false; IsChecked: false; IsFullScreen: false; Scrollable: false; BeforeText: null; FromIndex: -1; ToIndex: -1; ScrollX: -1; ScrollY: -1; MaxScrollX: -1; MaxScrollY: -1; AddedCount: -1; RemovedCount: -1; ParcelableData: null ]'
p1898
sS'MovementGranularity'
p1899
g6
sa(dp1900
S'EventTime'
p1901
S'41139073'
p1902
sg4
L1449904178045L
sS'recordCount'
p1903
g6
sS'EventType'
p1904
S'TYPE_VIEW_SCROLLED'
p1905
sS'PackageName'
p1906
S'com.taobao.ishopping'
p1907
sS'OutBounds'
p1908
S'Rect(0, 207 - 1080, 926)'
p1909
sS'Action'
p1910
S'[ ClassName: android.support.v4.view.ViewPager; Text: []; ContentDescription: null; ItemCount: -1; CurrentItemIndex: -1; IsEnabled: true; IsPassword: false; IsChecked: false; IsFullScreen: false; Scrollable: false; BeforeText: null; FromIndex: -1; ToIndex: -1; ScrollX: -1; ScrollY: -1; MaxScrollX: -1; MaxScrollY: -1; AddedCount: -1; RemovedCount: -1; ParcelableData: null ]'
p1911
sS'MovementGranularity'
p1912
g6
sa(dp1913
S'EventTime'
p1914
S'41139940'
p1915
sg4
L1449904178891L
sS'recordCount'
p1916
g6
sS'EventType'
p1917
S'TYPE_VIEW_CLICKED'
p1918
sS'PackageName'
p1919
S'com.taobao.ishopping'
p1920
sS'OutBounds'
p1921
S'Rect(45, 105 - 117, 177)'
p1922
sS'Action'
p1923
S'[ ClassName: android.widget.ImageView; Text: [\xe6\x89\xab\xe7\xa0\x81]; ContentDescription: \xe6\x89\xab\xe7\xa0\x81; ItemCount: -1; CurrentItemIndex: -1; IsEnabled: true; IsPassword: false; IsChecked: false; IsFullScreen: false; Scrollable: false; BeforeText: null; FromIndex: -1; ToIndex: -1; ScrollX: -1; ScrollY: -1; MaxScrollX: -1; MaxScrollY: -1; AddedCount: -1; RemovedCount: -1; ParcelableData: null ]'
p1924
sS'MovementGranularity'
p1925
g6
sa(dp1926
S'EventTime'
p1927
S'41145572'
p1928
sg4
L1449904184610L
sS'recordCount'
p1929
g6
sS'EventType'
p1930
S'TYPE_WINDOW_STATE_CHANGED'
p1931
sS'PackageName'
p1932
S'com.taobao.ishopping'
p1933
sS'OutBounds'
p1934
S'Rect(0, 0 - 1080, 1776)'
p1935
sS'Action'
p1936
S'[ ClassName: com.taobao.ishopping.activity.CameraActivity; Text: [\xe7\x88\xb1\xe9\x80\x9b\xe8\xa1\x97]; ContentDescription: null; ItemCount: -1; CurrentItemIndex: -1; IsEnabled: true; IsPassword: false; IsChecked: false; IsFullScreen: true; Scrollable: false; BeforeText: null; FromIndex: -1; ToIndex: -1; ScrollX: -1; ScrollY: -1; MaxScrollX: -1; MaxScrollY: -1; AddedCount: -1; RemovedCount: -1; ParcelableData: null ]'
p1937
sS'MovementGranularity'
p1938
g6
sa(dp1939
S'EventTime'
p1940
S'41145599'
p1941
sg4
L1449904184629L
sS'recordCount'
p1942
g6
sS'EventType'
p1943
S'TYPE_WINDOW_CONTENT_CHANGED'
p1944
sS'PackageName'
p1945
S'com.taobao.ishopping'
p1946
sS'OutBounds'
p1947
S'Rect(0, 0 - 1080, 1776)'
p1948
sS'Action'
p1949
S'[ ClassName: android.widget.FrameLayout; Text: []; ContentDescription: null; ItemCount: -1; CurrentItemIndex: -1; IsEnabled: true; IsPassword: false; IsChecked: false; IsFullScreen: false; Scrollable: false; BeforeText: null; FromIndex: -1; ToIndex: -1; ScrollX: -1; ScrollY: -1; MaxScrollX: -1; MaxScrollY: -1; AddedCount: -1; RemovedCount: -1; ParcelableData: null ]'
p1950
sS'MovementGranularity'
p1951
g6
sa(dp1952
S'EventTime'
p1953
S'41145714'
p1954
sg4
L1449904184665L
sS'recordCount'
p1955
g6
sS'EventType'
p1956
S'TYPE_WINDOW_STATE_CHANGED'
p1957
sS'PackageName'
p1958
S'com.taobao.ishopping'
p1959
sS'OutBounds'
p1960
S'Rect(0, 0 - 1080, 1776)'
p1961
sS'Action'
p1962
S'[ ClassName: com.taobao.ishopping.activity.CameraActivity; Text: [\xe7\x88\xb1\xe9\x80\x9b\xe8\xa1\x97]; ContentDescription: null; ItemCount: -1; CurrentItemIndex: -1; IsEnabled: true; IsPassword: false; IsChecked: false; IsFullScreen: true; Scrollable: false; BeforeText: null; FromIndex: -1; ToIndex: -1; ScrollX: -1; ScrollY: -1; MaxScrollX: -1; MaxScrollY: -1; AddedCount: -1; RemovedCount: -1; ParcelableData: null ]'
p1963
sS'MovementGranularity'
p1964
g6
sa(dp1965
S'EventTime'
p1966
S'41180261'
p1967
sg4
L1449904219237L
sS'recordCount'
p1968
g6
sS'EventType'
p1969
S'TYPE_WINDOW_STATE_CHANGED'
p1970
sS'PackageName'
p1971
S'com.taobao.ishopping'
p1972
sS'OutBounds'
p1973
S'Rect(0, 0 - 1080, 1776)'
p1974
sS'Action'
p1975
S'[ ClassName: com.taobao.ishopping.activity.SplashActivity; Text: [\xe7\x88\xb1\xe9\x80\x9b\xe8\xa1\x97]; ContentDescription: null; ItemCount: -1; CurrentItemIndex: -1; IsEnabled: true; IsPassword: false; IsChecked: false; IsFullScreen: true; Scrollable: false; BeforeText: null; FromIndex: -1; ToIndex: -1; ScrollX: -1; ScrollY: -1; MaxScrollX: -1; MaxScrollY: -1; AddedCount: -1; RemovedCount: -1; ParcelableData: null ]'
p1976
sS'MovementGranularity'
p1977
g6
sa(dp1978
S'EventTime'
p1979
S'41180335'
p1980
sg4
L1449904219414L
sS'recordCount'
p1981
g6
sS'EventType'
p1982
S'TYPE_WINDOW_CONTENT_CHANGED'
p1983
sS'PackageName'
p1984
S'com.taobao.ishopping'
p1985
sS'OutBounds'
p1986
S'Rect(0, 0 - 1080, 1776)'
p1987
sS'Action'
p1988
S'[ ClassName: android.widget.FrameLayout; Text: []; ContentDescription: null; ItemCount: -1; CurrentItemIndex: -1; IsEnabled: true; IsPassword: false; IsChecked: false; IsFullScreen: false; Scrollable: false; BeforeText: null; FromIndex: -1; ToIndex: -1; ScrollX: -1; ScrollY: -1; MaxScrollX: -1; MaxScrollY: -1; AddedCount: -1; RemovedCount: -1; ParcelableData: null ]'
p1989
sS'MovementGranularity'
p1990
g6
sa(dp1991
S'EventTime'
p1992
S'41182164'
p1993
sg4
L1449904221193L
sS'recordCount'
p1994
g6
sS'EventType'
p1995
S'TYPE_WINDOW_CONTENT_CHANGED'
p1996
sS'PackageName'
p1997
S'com.taobao.ishopping'
p1998
sS'OutBounds'
p1999
S'Rect(205, 1518 - 875, 1584)'
p2000
sS'Action'
p2001
S'[ ClassName: android.widget.TextView; Text: []; ContentDescription: null; ItemCount: -1; CurrentItemIndex: -1; IsEnabled: true; IsPassword: false; IsChecked: false; IsFullScreen: false; Scrollable: false; BeforeText: null; FromIndex: -1; ToIndex: -1; ScrollX: -1; ScrollY: -1; MaxScrollX: -1; MaxScrollY: -1; AddedCount: -1; RemovedCount: -1; ParcelableData: null ]'
p2002
sS'MovementGranularity'
p2003
g6
sa(dp2004
S'EventTime'
p2005
S'41182341'
p2006
sg4
L1449904221379L
sS'recordCount'
p2007
g6
sS'EventType'
p2008
S'TYPE_WINDOW_CONTENT_CHANGED'
p2009
sS'PackageName'
p2010
S'com.taobao.ishopping'
p2011
sS'OutBounds'
p2012
S'Rect(205, 1584 - 875, 1658)'
p2013
sS'Action'
p2014
S'[ ClassName: android.widget.TextView; Text: []; ContentDescription: null; ItemCount: -1; CurrentItemIndex: -1; IsEnabled: true; IsPassword: false; IsChecked: false; IsFullScreen: false; Scrollable: false; BeforeText: null; FromIndex: -1; ToIndex: -1; ScrollX: -1; ScrollY: -1; MaxScrollX: -1; MaxScrollY: -1; AddedCount: -1; RemovedCount: -1; ParcelableData: null ]'
p2015
sS'MovementGranularity'
p2016
g6
sa(dp2017
S'EventTime'
p2018
S'41182528'
p2019
sg4
L1449904221503L
sS'recordCount'
p2020
g6
sS'EventType'
p2021
S'TYPE_WINDOW_CONTENT_CHANGED'
p2022
sS'PackageName'
p2023
S'com.taobao.ishopping'
p2024
sS'OutBounds'
p2025
S'Rect(205, 1584 - 875, 1658)'
p2026
sS'Action'
p2027
S'[ ClassName: android.widget.TextView; Text: []; ContentDescription: null; ItemCount: -1; CurrentItemIndex: -1; IsEnabled: true; IsPassword: false; IsChecked: false; IsFullScreen: false; Scrollable: false; BeforeText: null; FromIndex: -1; ToIndex: -1; ScrollX: -1; ScrollY: -1; MaxScrollX: -1; MaxScrollY: -1; AddedCount: -1; RemovedCount: -1; ParcelableData: null ]'
p2028
sS'MovementGranularity'
p2029
g6
sa(dp2030
S'EventTime'
p2031
S'41186281'
p2032
sg4
L1449904225951L
sS'recordCount'
p2033
g6
sS'EventType'
p2034
S'TYPE_WINDOW_STATE_CHANGED'
p2035
sS'PackageName'
p2036
S'com.taobao.ishopping'
p2037
sS'OutBounds'
p2038
S'Rect(0, 0 - 1080, 1776)'
p2039
sS'Action'
p2040
S'[ ClassName: com.taobao.ishopping.activity.CameraActivity; Text: [\xe7\x88\xb1\xe9\x80\x9b\xe8\xa1\x97]; ContentDescription: null; ItemCount: -1; CurrentItemIndex: -1; IsEnabled: true; IsPassword: false; IsChecked: false; IsFullScreen: true; Scrollable: false; BeforeText: null; FromIndex: -1; ToIndex: -1; ScrollX: -1; ScrollY: -1; MaxScrollX: -1; MaxScrollY: -1; AddedCount: -1; RemovedCount: -1; ParcelableData: null ]'
p2041
sS'MovementGranularity'
p2042
g6
sa(dp2043
S'EventTime'
p2044
S'41187179'
p2045
sg4
L1449904226162L
sS'recordCount'
p2046
g6
sS'EventType'
p2047
S'TYPE_WINDOW_STATE_CHANGED'
p2048
sS'PackageName'
p2049
S'com.taobao.ishopping'
p2050
sS'OutBounds'
p2051
S'Rect(0, 0 - 1080, 1776)'
p2052
sS'Action'
p2053
S'[ ClassName: com.taobao.ishopping.activity.home.MainActivity; Text: [\xe7\x88\xb1\xe9\x80\x9b\xe8\xa1\x97]; ContentDescription: null; ItemCount: -1; CurrentItemIndex: -1; IsEnabled: true; IsPassword: false; IsChecked: false; IsFullScreen: true; Scrollable: false; BeforeText: null; FromIndex: -1; ToIndex: -1; ScrollX: -1; ScrollY: -1; MaxScrollX: -1; MaxScrollY: -1; AddedCount: -1; RemovedCount: -1; ParcelableData: null ]'
p2054
sS'MovementGranularity'
p2055
g6
sa(dp2056
S'EventTime'
p2057
S'41187204'
p2058
sg4
L1449904226214L
sS'recordCount'
p2059
g6
sS'EventType'
p2060
S'TYPE_WINDOW_CONTENT_CHANGED'
p2061
sS'PackageName'
p2062
S'com.taobao.ishopping'
p2063
sS'OutBounds'
p2064
S'Rect(0, 207 - 1080, 2207)'
p2065
sS'Action'
p2066
S'[ ClassName: android.widget.FrameLayout; Text: []; ContentDescription: null; ItemCount: -1; CurrentItemIndex: -1; IsEnabled: true; IsPassword: false; IsChecked: false; IsFullScreen: false; Scrollable: false; BeforeText: null; FromIndex: -1; ToIndex: -1; ScrollX: -1; ScrollY: -1; MaxScrollX: -1; MaxScrollY: -1; AddedCount: -1; RemovedCount: -1; ParcelableData: null ]'
p2067
sS'MovementGranularity'
p2068
g6
sa(dp2069
S'EventTime'
p2070
S'41189457'
p2071
sg4
L1449904228409L
sS'recordCount'
p2072
g6
sS'EventType'
p2073
S'TYPE_VIEW_CLICKED'
p2074
sS'PackageName'
p2075
S'com.taobao.ishopping'
p2076
sS'OutBounds'
p2077
S'Rect(648, 1615 - 864, 1776)'
p2078
sS'Action'
p2079
S'[ ClassName: android.widget.RelativeLayout; Text: [\xe6\xb6\x88\xe6\x81\xaf]; ContentDescription: null; ItemCount: -1; CurrentItemIndex: -1; IsEnabled: true; IsPassword: false; IsChecked: false; IsFullScreen: false; Scrollable: false; BeforeText: null; FromIndex: -1; ToIndex: -1; ScrollX: -1; ScrollY: -1; MaxScrollX: -1; MaxScrollY: -1; AddedCount: -1; RemovedCount: -1; ParcelableData: null ]'
p2080
sS'MovementGranularity'
p2081
g6
sa(dp2082
S'EventTime'
p2083
S'41189469'
p2084
sg4
L1449904228472L
sS'recordCount'
p2085
g6
sS'EventType'
p2086
S'TYPE_WINDOW_CONTENT_CHANGED'
p2087
sS'PackageName'
p2088
S'com.taobao.ishopping'
p2089
sS'OutBounds'
p2090
S'Rect(648, 1615 - 864, 1776)'
p2091
sS'Action'
p2092
S'[ ClassName: android.widget.RelativeLayout; Text: []; ContentDescription: null; ItemCount: -1; CurrentItemIndex: -1; IsEnabled: true; IsPassword: false; IsChecked: false; IsFullScreen: false; Scrollable: false; BeforeText: null; FromIndex: -1; ToIndex: -1; ScrollX: -1; ScrollY: -1; MaxScrollX: -1; MaxScrollY: -1; AddedCount: -1; RemovedCount: -1; ParcelableData: null ]'
p2093
sS'MovementGranularity'
p2094
g6
sa(dp2095
S'EventTime'
p2096
S'41189667'
p2097
sg4
L1449904228631L
sS'recordCount'
p2098
g6
sS'EventType'
p2099
S'TYPE_VIEW_SCROLLED'
p2100
sS'PackageName'
p2101
S'com.taobao.ishopping'
p2102
sS'OutBounds'
p2103
S'Rect(0, 207 - 1080, 1615)'
p2104
sS'Action'
p2105
S'[ ClassName: android.widget.ListView; Text: []; ContentDescription: null; ItemCount: 3; CurrentItemIndex: -1; IsEnabled: true; IsPassword: false; IsChecked: false; IsFullScreen: false; Scrollable: false; BeforeText: null; FromIndex: 0; ToIndex: 2; ScrollX: -1; ScrollY: -1; MaxScrollX: -1; MaxScrollY: -1; AddedCount: -1; RemovedCount: -1; ParcelableData: null ]'
p2106
sS'MovementGranularity'
p2107
g6
sa(dp2108
S'EventTime'
p2109
S'41189698'
p2110
sg4
L1449904228651L
sS'recordCount'
p2111
g1058
sS'EventType'
p2112
S'TYPE_WINDOW_CONTENT_CHANGED'
p2113
sS'PackageName'
p2114
S'com.taobao.ishopping'
p2115
sS'OutBounds'
p2116
S'Rect(210, 760 - 444, 801)'
p2117
sS'Action'
p2118
S'[ ClassName: android.widget.TextView; Text: []; ContentDescription: null; ItemCount: -1; CurrentItemIndex: -1; IsEnabled: true; IsPassword: false; IsChecked: false; IsFullScreen: false; Scrollable: false; BeforeText: null; FromIndex: -1; ToIndex: -1; ScrollX: -1; ScrollY: -1; MaxScrollX: -1; MaxScrollY: -1; AddedCount: -1; RemovedCount: -1; ParcelableData: null ]'
p2119
sS'MovementGranularity'
p2120
g6
sa(dp2121
S'EventTime'
p2122
S'41190638'
p2123
sg4
L1449904229589L
sS'recordCount'
p2124
g1058
sS'EventType'
p2125
S'TYPE_VIEW_CLICKED'
p2126
sS'PackageName'
p2127
S'com.taobao.ishopping'
p2128
sS'OutBounds'
p2129
S'Rect(0, 627 - 1080, 837)'
p2130
sS'Action'
p2131
S'[ ClassName: android.widget.RelativeLayout; Text: [\xe4\xb9\xb0\xe4\xb9\xb0\xe4\xb9\xb0, 15 : 08, sw***iu\xef\xbc\x9a\xe4\xbd\xa0\xe5\xa5\xbd]; ContentDescription: null; ItemCount: -1; CurrentItemIndex: -1; IsEnabled: true; IsPassword: false; IsChecked: false; IsFullScreen: false; Scrollable: false; BeforeText: null; FromIndex: -1; ToIndex: -1; ScrollX: -1; ScrollY: -1; MaxScrollX: -1; MaxScrollY: -1; AddedCount: -1; RemovedCount: -1; ParcelableData: null ]'
p2132
sS'MovementGranularity'
p2133
g6
sa(dp2134
S'EventTime'
p2135
S'41190853'
p2136
sg4
L1449904229811L
sS'recordCount'
p2137
g6
sS'EventType'
p2138
S'TYPE_WINDOW_STATE_CHANGED'
p2139
sS'PackageName'
p2140
S'com.taobao.ishopping'
p2141
sS'OutBounds'
p2142
S'Rect(0, 0 - 1080, 1776)'
p2143
sS'Action'
p2144
S'[ ClassName: com.taobao.ishopping.im.activity.GroupChatActivity; Text: [\xe7\x88\xb1\xe9\x80\x9b\xe8\xa1\x97]; ContentDescription: null; ItemCount: -1; CurrentItemIndex: -1; IsEnabled: true; IsPassword: false; IsChecked: false; IsFullScreen: true; Scrollable: false; BeforeText: null; FromIndex: -1; ToIndex: -1; ScrollX: -1; ScrollY: -1; MaxScrollX: -1; MaxScrollY: -1; AddedCount: -1; RemovedCount: -1; ParcelableData: null ]'
p2145
sS'MovementGranularity'
p2146
g6
sa(dp2147
S'EventTime'
p2148
S'41190986'
p2149
sg4
L1449904229938L
sS'recordCount'
p2150
g6
sS'EventType'
p2151
S'TYPE_WINDOW_CONTENT_CHANGED'
p2152
sS'PackageName'
p2153
S'com.taobao.ishopping'
p2154
sS'OutBounds'
p2155
S'Rect(541, 210 - 1080, 345)'
p2156
sS'Action'
p2157
S'[ ClassName: android.widget.TextView; Text: []; ContentDescription: null; ItemCount: -1; CurrentItemIndex: -1; IsEnabled: true; IsPassword: false; IsChecked: false; IsFullScreen: false; Scrollable: false; BeforeText: null; FromIndex: -1; ToIndex: -1; ScrollX: -1; ScrollY: -1; MaxScrollX: -1; MaxScrollY: -1; AddedCount: -1; RemovedCount: -1; ParcelableData: null ]'
p2158
sS'MovementGranularity'
p2159
g6
sa(dp2160
S'EventTime'
p2161
S'41194130'
p2162
sg4
L1449904233082L
sS'recordCount'
p2163
g6
sS'EventType'
p2164
S'TYPE_WINDOW_STATE_CHANGED'
p2165
sS'PackageName'
p2166
S'com.taobao.ishopping'
p2167
sS'OutBounds'
p2168
S'Rect(0, 0 - 1080, 1776)'
p2169
sS'Action'
p2170
S'[ ClassName: com.taobao.ishopping.im.activity.GroupChatActivity; Text: [\xe7\x88\xb1\xe9\x80\x9b\xe8\xa1\x97]; ContentDescription: null; ItemCount: -1; CurrentItemIndex: -1; IsEnabled: true; IsPassword: false; IsChecked: false; IsFullScreen: true; Scrollable: false; BeforeText: null; FromIndex: -1; ToIndex: -1; ScrollX: -1; ScrollY: -1; MaxScrollX: -1; MaxScrollY: -1; AddedCount: -1; RemovedCount: -1; ParcelableData: null ]'
p2171
sS'MovementGranularity'
p2172
g6
sa(dp2173
S'EventTime'
p2174
S'41196145'
p2175
sg4
L1449904235101L
sS'recordCount'
p2176
g6
sS'EventType'
p2177
S'TYPE_VIEW_CLICKED'
p2178
sS'PackageName'
p2179
S'com.taobao.ishopping'
p2180
sS'OutBounds'
p2181
S'Rect(0, 75 - 168, 207)'
p2182
sS'Action'
p2183
S'[ ClassName: android.widget.ImageButton; Text: [\xe8\xbd\xac\xe5\x88\xb0\xe4\xb8\x8a\xe4\xb8\x80\xe5\xb1\x82\xe7\xba\xa7]; ContentDescription: \xe8\xbd\xac\xe5\x88\xb0\xe4\xb8\x8a\xe4\xb8\x80\xe5\xb1\x82\xe7\xba\xa7; ItemCount: -1; CurrentItemIndex: -1; IsEnabled: true; IsPassword: false; IsChecked: false; IsFullScreen: false; Scrollable: false; BeforeText: null; FromIndex: -1; ToIndex: -1; ScrollX: -1; ScrollY: -1; MaxScrollX: -1; MaxScrollY: -1; AddedCount: -1; RemovedCount: -1; ParcelableData: null ]'
p2184
sS'MovementGranularity'
p2185
g6
sa(dp2186
S'EventTime'
p2187
S'41196183'
p2188
sg4
L1449904235142L
sS'recordCount'
p2189
g6
sS'EventType'
p2190
S'TYPE_WINDOW_STATE_CHANGED'
p2191
sS'PackageName'
p2192
S'com.taobao.ishopping'
p2193
sS'OutBounds'
p2194
S'Rect(0, 0 - 1080, 1776)'
p2195
sS'Action'
p2196
S'[ ClassName: com.taobao.ishopping.activity.home.MainActivity; Text: [\xe7\x88\xb1\xe9\x80\x9b\xe8\xa1\x97]; ContentDescription: null; ItemCount: -1; CurrentItemIndex: -1; IsEnabled: true; IsPassword: false; IsChecked: false; IsFullScreen: true; Scrollable: false; BeforeText: null; FromIndex: -1; ToIndex: -1; ScrollX: -1; ScrollY: -1; MaxScrollX: -1; MaxScrollY: -1; AddedCount: -1; RemovedCount: -1; ParcelableData: null ]'
p2197
sS'MovementGranularity'
p2198
g6
sa(dp2199
S'EventTime'
p2200
S'41197147'
p2201
sg4
L1449904236097L
sS'recordCount'
p2202
g6
sS'EventType'
p2203
S'TYPE_VIEW_CLICKED'
p2204
sS'PackageName'
p2205
S'com.taobao.ishopping'
p2206
sS'OutBounds'
p2207
S'Rect(864, 1615 - 1080, 1776)'
p2208
sS'Action'
p2209
S'[ ClassName: android.widget.RelativeLayout; Text: [\xe5\x8f\x91\xe7\x8e\xb0]; ContentDescription: null; ItemCount: -1; CurrentItemIndex: -1; IsEnabled: true; IsPassword: false; IsChecked: false; IsFullScreen: false; Scrollable: false; BeforeText: null; FromIndex: -1; ToIndex: -1; ScrollX: -1; ScrollY: -1; MaxScrollX: -1; MaxScrollY: -1; AddedCount: -1; RemovedCount: -1; ParcelableData: null ]'
p2210
sS'MovementGranularity'
p2211
g6
sa(dp2212
S'EventTime'
p2213
S'41197308'
p2214
sg4
L1449904236260L
sS'recordCount'
p2215
g6
sS'EventType'
p2216
S'TYPE_WINDOW_CONTENT_CHANGED'
p2217
sS'PackageName'
p2218
S'com.taobao.ishopping'
p2219
sS'OutBounds'
p2220
S'Rect(0, 109 - 1080, 172)'
p2221
sS'Action'
p2222
S'[ ClassName: android.widget.TextView; Text: []; ContentDescription: null; ItemCount: -1; CurrentItemIndex: -1; IsEnabled: true; IsPassword: false; IsChecked: false; IsFullScreen: false; Scrollable: false; BeforeText: null; FromIndex: -1; ToIndex: -1; ScrollX: -1; ScrollY: -1; MaxScrollX: -1; MaxScrollY: -1; AddedCount: -1; RemovedCount: -1; ParcelableData: null ]'
p2223
sS'MovementGranularity'
p2224
g6
sa(dp2225
S'EventTime'
p2226
S'41198988'
p2227
sg4
L1449904237945L
sS'recordCount'
p2228
g6
sS'EventType'
p2229
S'TYPE_WINDOW_CONTENT_CHANGED'
p2230
sS'PackageName'
p2231
S'com.taobao.ishopping'
p2232
sS'OutBounds'
p2233
S'Rect(0, 207 - 1080, 1615)'
p2234
sS'Action'
p2235
S'[ ClassName: com.android.org.chromium.content.browser.ContentViewCore; Text: []; ContentDescription: \xe7\xbd\x91\xe9\xa1\xb5\xe8\xa7\x86\xe5\x9b\xbe; ItemCount: -1; CurrentItemIndex: -1; IsEnabled: true; IsPassword: false; IsChecked: false; IsFullScreen: false; Scrollable: true; BeforeText: null; FromIndex: -1; ToIndex: -1; ScrollX: 0; ScrollY: 0; MaxScrollX: 0; MaxScrollY: 2146; AddedCount: -1; RemovedCount: -1; ParcelableData: null ]'
p2236
sS'MovementGranularity'
p2237
g6
sa(dp2238
S'EventTime'
p2239
S'41199391'
p2240
sg4
L1449904238343L
sS'recordCount'
p2241
g6
sS'EventType'
p2242
S'TYPE_WINDOW_CONTENT_CHANGED'
p2243
sS'PackageName'
p2244
S'com.taobao.ishopping'
p2245
sS'OutBounds'
p2246
S'Rect(0, 207 - 1080, 3761)'
p2247
sS'Action'
p2248
S'[ ClassName: android.view.View; Text: []; ContentDescription: null; ItemCount: 0; CurrentItemIndex: 0; IsEnabled: true; IsPassword: false; IsChecked: false; IsFullScreen: false; Scrollable: true; BeforeText: null; FromIndex: -1; ToIndex: -1; ScrollX: 0; ScrollY: 0; MaxScrollX: 0; MaxScrollY: 2144; AddedCount: -1; RemovedCount: -1; ParcelableData: null ]'
p2249
sS'MovementGranularity'
p2250
g6
sa(dp2251
S'EventTime'
p2252
S'41200329'
p2253
sg4
L1449904239280L
sS'recordCount'
p2254
g6
sS'EventType'
p2255
S'TYPE_VIEW_CLICKED'
p2256
sS'PackageName'
p2257
S'com.taobao.ishopping'
p2258
sS'OutBounds'
p2259
S'Rect(0, 1615 - 216, 1776)'
p2260
sS'Action'
p2261
S'[ ClassName: android.widget.RelativeLayout; Text: [\xe9\xa6\x96\xe9\xa1\xb5]; ContentDescription: null; ItemCount: -1; CurrentItemIndex: -1; IsEnabled: true; IsPassword: false; IsChecked: false; IsFullScreen: false; Scrollable: false; BeforeText: null; FromIndex: -1; ToIndex: -1; ScrollX: -1; ScrollY: -1; MaxScrollX: -1; MaxScrollY: -1; AddedCount: -1; RemovedCount: -1; ParcelableData: null ]'
p2262
sS'MovementGranularity'
p2263
g6
sa(dp2264
S'EventTime'
p2265
S'41200336'
p2266
sg4
L1449904239326L
sS'recordCount'
p2267
g6
sS'EventType'
p2268
S'TYPE_WINDOW_CONTENT_CHANGED'
p2269
sS'PackageName'
p2270
S'com.taobao.ishopping'
p2271
sS'OutBounds'
p2272
S'Rect(0, 1615 - 216, 1776)'
p2273
sS'Action'
p2274
S'[ ClassName: android.widget.RelativeLayout; Text: []; ContentDescription: null; ItemCount: -1; CurrentItemIndex: -1; IsEnabled: true; IsPassword: false; IsChecked: false; IsFullScreen: false; Scrollable: false; BeforeText: null; FromIndex: -1; ToIndex: -1; ScrollX: -1; ScrollY: -1; MaxScrollX: -1; MaxScrollY: -1; AddedCount: -1; RemovedCount: -1; ParcelableData: null ]'
p2275
sS'MovementGranularity'
p2276
g6
sa(dp2277
S'EventTime'
p2278
S'41200477'
p2279
sg4
L1449904239441L
sS'recordCount'
p2280
g6
sS'EventType'
p2281
S'TYPE_WINDOW_CONTENT_CHANGED'
p2282
sS'PackageName'
p2283
S'com.taobao.ishopping'
p2284
sS'OutBounds'
p2285
S'Rect(0, 207 - 1080, 926)'
p2286
sS'Action'
p2287
S'[ ClassName: android.support.v4.view.ViewPager; Text: []; ContentDescription: null; ItemCount: -1; CurrentItemIndex: -1; IsEnabled: true; IsPassword: false; IsChecked: false; IsFullScreen: false; Scrollable: false; BeforeText: null; FromIndex: -1; ToIndex: -1; ScrollX: -1; ScrollY: -1; MaxScrollX: -1; MaxScrollY: -1; AddedCount: -1; RemovedCount: -1; ParcelableData: null ]'
p2288
sS'MovementGranularity'
p2289
g6
sa(dp2290
S'EventTime'
p2291
S'41200478'
p2292
sg4
L1449904239473L
sS'recordCount'
p2293
g6
sS'EventType'
p2294
S'TYPE_VIEW_SCROLLED'
p2295
sS'PackageName'
p2296
S'com.taobao.ishopping'
p2297
sS'OutBounds'
p2298
S'Rect(0, 207 - 1080, 926)'
p2299
sS'Action'
p2300
S'[ ClassName: android.support.v4.view.ViewPager; Text: []; ContentDescription: null; ItemCount: -1; CurrentItemIndex: -1; IsEnabled: true; IsPassword: false; IsChecked: false; IsFullScreen: false; Scrollable: false; BeforeText: null; FromIndex: -1; ToIndex: -1; ScrollX: -1; ScrollY: -1; MaxScrollX: -1; MaxScrollY: -1; AddedCount: -1; RemovedCount: -1; ParcelableData: null ]'
p2301
sS'MovementGranularity'
p2302
g6
sa(dp2303
S'EventTime'
p2304
S'41202811'
p2305
sg4
L1449904241787L
sS'recordCount'
p2306
g6
sS'EventType'
p2307
S'TYPE_VIEW_SCROLLED'
p2308
sS'PackageName'
p2309
S'com.taobao.ishopping'
p2310
sS'OutBounds'
p2311
S'Rect(0, 207 - 1080, 926)'
p2312
sS'Action'
p2313
S'[ ClassName: android.support.v4.view.ViewPager; Text: []; ContentDescription: null; ItemCount: -1; CurrentItemIndex: -1; IsEnabled: true; IsPassword: false; IsChecked: false; IsFullScreen: false; Scrollable: false; BeforeText: null; FromIndex: -1; ToIndex: -1; ScrollX: -1; ScrollY: -1; MaxScrollX: -1; MaxScrollY: -1; AddedCount: -1; RemovedCount: -1; ParcelableData: null ]'
p2314
sS'MovementGranularity'
p2315
g6
sa(dp2316
S'EventTime'
p2317
S'41202933'
p2318
sg4
L1449904241884L
sS'recordCount'
p2319
g6
sS'EventType'
p2320
S'TYPE_WINDOW_CONTENT_CHANGED'
p2321
sS'PackageName'
p2322
S'com.taobao.ishopping'
p2323
sS'OutBounds'
p2324
S'Rect(1777, 781 - 1873, 826)'
p2325
sS'Action'
p2326
S'[ ClassName: android.widget.TextView; Text: []; ContentDescription: null; ItemCount: -1; CurrentItemIndex: -1; IsEnabled: true; IsPassword: false; IsChecked: false; IsFullScreen: false; Scrollable: false; BeforeText: null; FromIndex: -1; ToIndex: -1; ScrollX: -1; ScrollY: -1; MaxScrollX: -1; MaxScrollY: -1; AddedCount: -1; RemovedCount: -1; ParcelableData: null ]'
p2327
sS'MovementGranularity'
p2328
g6
sa(dp2329
S'EventTime'
p2330
S'41202936'
p2331
sg4
L1449904241917L
sS'recordCount'
p2332
g6
sS'EventType'
p2333
S'TYPE_VIEW_SCROLLED'
p2334
sS'PackageName'
p2335
S'com.taobao.ishopping'
p2336
sS'OutBounds'
p2337
S'Rect(0, 207 - 1080, 926)'
p2338
sS'Action'
p2339
S'[ ClassName: android.support.v4.view.ViewPager; Text: []; ContentDescription: null; ItemCount: -1; CurrentItemIndex: -1; IsEnabled: true; IsPassword: false; IsChecked: false; IsFullScreen: false; Scrollable: false; BeforeText: null; FromIndex: -1; ToIndex: -1; ScrollX: -1; ScrollY: -1; MaxScrollX: -1; MaxScrollY: -1; AddedCount: -1; RemovedCount: -1; ParcelableData: null ]'
p2340
sS'MovementGranularity'
p2341
g6
sa(dp2342
S'EventTime'
p2343
S'41203477'
p2344
sg4
L1449904242427L
sS'recordCount'
p2345
g6
sS'EventType'
p2346
S'TYPE_VIEW_CLICKED'
p2347
sS'PackageName'
p2348
S'com.taobao.ishopping'
p2349
sS'OutBounds'
p2350
S'Rect(951, 99 - 1035, 183)'
p2351
sS'Action'
p2352
S'[ ClassName: android.widget.ImageView; Text: []; ContentDescription: null; ItemCount: -1; CurrentItemIndex: -1; IsEnabled: true; IsPassword: false; IsChecked: false; IsFullScreen: false; Scrollable: false; BeforeText: null; FromIndex: -1; ToIndex: -1; ScrollX: -1; ScrollY: -1; MaxScrollX: -1; MaxScrollY: -1; AddedCount: -1; RemovedCount: -1; ParcelableData: null ]'
p2353
sS'MovementGranularity'
p2354
g6
sa(dp2355
S'EventTime'
p2356
S'41203617'
p2357
sg4
L1449904242572L
sS'recordCount'
p2358
g6
sS'EventType'
p2359
S'TYPE_WINDOW_STATE_CHANGED'
p2360
sS'PackageName'
p2361
S'com.taobao.ishopping'
p2362
sS'OutBounds'
p2363
S'Rect(0, 0 - 1080, 1776)'
p2364
sS'Action'
p2365
S'[ ClassName: com.taobao.ishopping.thirdparty.windvane.HybridWVActivity; Text: [\xe7\x88\xb1\xe9\x80\x9b\xe8\xa1\x97]; ContentDescription: null; ItemCount: -1; CurrentItemIndex: -1; IsEnabled: true; IsPassword: false; IsChecked: false; IsFullScreen: true; Scrollable: false; BeforeText: null; FromIndex: -1; ToIndex: -1; ScrollX: -1; ScrollY: -1; MaxScrollX: -1; MaxScrollY: -1; AddedCount: -1; RemovedCount: -1; ParcelableData: null ]'
p2366
sS'MovementGranularity'
p2367
g6
sa(dp2368
S'EventTime'
p2369
S'41203868'
p2370
sg4
L1449904242830L
sS'recordCount'
p2371
g6
sS'EventType'
p2372
S'TYPE_WINDOW_CONTENT_CHANGED'
p2373
sS'PackageName'
p2374
S'com.taobao.ishopping'
p2375
sS'OutBounds'
p2376
S'Rect(378, 109 - 702, 172)'
p2377
sS'Action'
p2378
S'[ ClassName: android.widget.TextView; Text: []; ContentDescription: null; ItemCount: -1; CurrentItemIndex: -1; IsEnabled: true; IsPassword: false; IsChecked: false; IsFullScreen: false; Scrollable: false; BeforeText: null; FromIndex: -1; ToIndex: -1; ScrollX: -1; ScrollY: -1; MaxScrollX: -1; MaxScrollY: -1; AddedCount: -1; RemovedCount: -1; ParcelableData: null ]'
p2379
sS'MovementGranularity'
p2380
g6
sa(dp2381
S'EventTime'
p2382
S'41204412'
p2383
sg4
L1449904243364L
sS'recordCount'
p2384
g6
sS'EventType'
p2385
S'TYPE_WINDOW_CONTENT_CHANGED'
p2386
sS'PackageName'
p2387
S'com.taobao.ishopping'
p2388
sS'OutBounds'
p2389
S'Rect(0, 207 - 1080, 1776)'
p2390
sS'Action'
p2391
S'[ ClassName: com.android.org.chromium.content.browser.ContentViewCore; Text: []; ContentDescription: \xe7\xbd\x91\xe9\xa1\xb5\xe8\xa7\x86\xe5\x9b\xbe; ItemCount: -1; CurrentItemIndex: -1; IsEnabled: true; IsPassword: false; IsChecked: false; IsFullScreen: false; Scrollable: true; BeforeText: null; FromIndex: -1; ToIndex: -1; ScrollX: 0; ScrollY: 0; MaxScrollX: 0; MaxScrollY: 167; AddedCount: -1; RemovedCount: -1; ParcelableData: null ]'
p2392
sS'MovementGranularity'
p2393
g6
sa(dp2394
S'EventTime'
p2395
S'41205405'
p2396
sg4
L1449904244359L
sS'recordCount'
p2397
g6
sS'EventType'
p2398
S'TYPE_WINDOW_CONTENT_CHANGED'
p2399
sS'PackageName'
p2400
S'com.taobao.ishopping'
p2401
sS'OutBounds'
p2402
S'Rect(0, 207 - 1080, 1776)'
p2403
sS'Action'
p2404
S'[ ClassName: com.android.org.chromium.content.browser.ContentViewCore; Text: []; ContentDescription: \xe7\xbd\x91\xe9\xa1\xb5\xe8\xa7\x86\xe5\x9b\xbe; ItemCount: -1; CurrentItemIndex: -1; IsEnabled: true; IsPassword: false; IsChecked: false; IsFullScreen: false; Scrollable: true; BeforeText: null; FromIndex: -1; ToIndex: -1; ScrollX: 0; ScrollY: 0; MaxScrollX: 0; MaxScrollY: 167; AddedCount: -1; RemovedCount: -1; ParcelableData: null ]'
p2405
sS'MovementGranularity'
p2406
g6
sa(dp2407
S'EventTime'
p2408
S'41205651'
p2409
sg4
L1449904244607L
sS'recordCount'
p2410
g6
sS'EventType'
p2411
S'TYPE_WINDOW_CONTENT_CHANGED'
p2412
sS'PackageName'
p2413
S'com.taobao.ishopping'
p2414
sS'OutBounds'
p2415
S'Rect(432, 109 - 648, 172)'
p2416
sS'Action'
p2417
S'[ ClassName: android.widget.TextView; Text: []; ContentDescription: null; ItemCount: -1; CurrentItemIndex: -1; IsEnabled: true; IsPassword: false; IsChecked: false; IsFullScreen: false; Scrollable: false; BeforeText: null; FromIndex: -1; ToIndex: -1; ScrollX: -1; ScrollY: -1; MaxScrollX: -1; MaxScrollY: -1; AddedCount: -1; RemovedCount: -1; ParcelableData: null ]'
p2418
sS'MovementGranularity'
p2419
g6
sa(dp2420
S'EventTime'
p2421
S'41205916'
p2422
sg4
L1449904244868L
sS'recordCount'
p2423
g6
sS'EventType'
p2424
S'TYPE_WINDOW_CONTENT_CHANGED'
p2425
sS'PackageName'
p2426
S'com.taobao.ishopping'
p2427
sS'OutBounds'
p2428
S'Rect(0, 207 - 1080, 1776)'
p2429
sS'Action'
p2430
S'[ ClassName: com.android.org.chromium.content.browser.ContentViewCore; Text: []; ContentDescription: \xe7\xbd\x91\xe9\xa1\xb5\xe8\xa7\x86\xe5\x9b\xbe; ItemCount: -1; CurrentItemIndex: -1; IsEnabled: true; IsPassword: false; IsChecked: false; IsFullScreen: false; Scrollable: false; BeforeText: null; FromIndex: -1; ToIndex: -1; ScrollX: 0; ScrollY: 0; MaxScrollX: 0; MaxScrollY: 0; AddedCount: -1; RemovedCount: -1; ParcelableData: null ]'
p2431
sS'MovementGranularity'
p2432
g6
sa(dp2433
S'EventTime'
p2434
S'41206818'
p2435
sg4
L1449904245821L
sS'recordCount'
p2436
g6
sS'EventType'
p2437
S'TYPE_WINDOW_STATE_CHANGED'
p2438
sS'PackageName'
p2439
S'com.taobao.ishopping'
p2440
sS'OutBounds'
p2441
S'Rect(0, 0 - 1080, 1776)'
p2442
sS'Action'
p2443
S'[ ClassName: com.taobao.ishopping.thirdparty.windvane.HybridWVActivity; Text: [\xe7\x88\xb1\xe9\x80\x9b\xe8\xa1\x97]; ContentDescription: null; ItemCount: -1; CurrentItemIndex: -1; IsEnabled: true; IsPassword: false; IsChecked: false; IsFullScreen: true; Scrollable: false; BeforeText: null; FromIndex: -1; ToIndex: -1; ScrollX: -1; ScrollY: -1; MaxScrollX: -1; MaxScrollY: -1; AddedCount: -1; RemovedCount: -1; ParcelableData: null ]'
p2444
sS'MovementGranularity'
p2445
g6
sa(dp2446
S'EventTime'
p2447
S'41206967'
p2448
sg4
L1449904245920L
sS'recordCount'
p2449
g6
sS'EventType'
p2450
S'TYPE_WINDOW_CONTENT_CHANGED'
p2451
sS'PackageName'
p2452
S'com.taobao.ishopping'
p2453
sS'OutBounds'
p2454
S'Rect(513, 109 - 567, 172)'
p2455
sS'Action'
p2456
S'[ ClassName: android.widget.TextView; Text: []; ContentDescription: null; ItemCount: -1; CurrentItemIndex: -1; IsEnabled: true; IsPassword: false; IsChecked: false; IsFullScreen: false; Scrollable: false; BeforeText: null; FromIndex: -1; ToIndex: -1; ScrollX: -1; ScrollY: -1; MaxScrollX: -1; MaxScrollY: -1; AddedCount: -1; RemovedCount: -1; ParcelableData: null ]'
p2457
sS'MovementGranularity'
p2458
g6
sa(dp2459
S'EventTime'
p2460
S'41207282'
p2461
sg4
L1449904246237L
sS'recordCount'
p2462
g6
sS'EventType'
p2463
S'TYPE_WINDOW_CONTENT_CHANGED'
p2464
sS'PackageName'
p2465
S'com.taobao.ishopping'
p2466
sS'OutBounds'
p2467
S'Rect(432, 109 - 648, 172)'
p2468
sS'Action'
p2469
S'[ ClassName: android.widget.TextView; Text: []; ContentDescription: null; ItemCount: -1; CurrentItemIndex: -1; IsEnabled: true; IsPassword: false; IsChecked: false; IsFullScreen: false; Scrollable: false; BeforeText: null; FromIndex: -1; ToIndex: -1; ScrollX: -1; ScrollY: -1; MaxScrollX: -1; MaxScrollY: -1; AddedCount: -1; RemovedCount: -1; ParcelableData: null ]'
p2470
sS'MovementGranularity'
p2471
g6
sa(dp2472
S'EventTime'
p2473
S'41207416'
p2474
sg4
L1449904246368L
sS'recordCount'
p2475
g6
sS'EventType'
p2476
S'TYPE_WINDOW_CONTENT_CHANGED'
p2477
sS'PackageName'
p2478
S'com.taobao.ishopping'
p2479
sS'OutBounds'
p2480
S'Rect(936, 75 - 1080, 207)'
p2481
sS'Action'
p2482
S'[ ClassName: android.widget.TextView; Text: []; ContentDescription: \xe8\xae\xbe\xe7\xbd\xae; ItemCount: -1; CurrentItemIndex: -1; IsEnabled: true; IsPassword: false; IsChecked: false; IsFullScreen: false; Scrollable: false; BeforeText: null; FromIndex: -1; ToIndex: -1; ScrollX: -1; ScrollY: -1; MaxScrollX: -1; MaxScrollY: -1; AddedCount: -1; RemovedCount: -1; ParcelableData: null ]'
p2483
sS'MovementGranularity'
p2484
g6
sa(dp2485
S'EventTime'
p2486
S'41207725'
p2487
sg4
L1449904246678L
sS'recordCount'
p2488
g6
sS'EventType'
p2489
S'TYPE_WINDOW_CONTENT_CHANGED'
p2490
sS'PackageName'
p2491
S'com.taobao.ishopping'
p2492
sS'OutBounds'
p2493
S'Rect(0, 207 - 1080, 1776)'
p2494
sS'Action'
p2495
S'[ ClassName: com.android.org.chromium.content.browser.ContentViewCore; Text: []; ContentDescription: \xe7\xbd\x91\xe9\xa1\xb5\xe8\xa7\x86\xe5\x9b\xbe; ItemCount: -1; CurrentItemIndex: -1; IsEnabled: true; IsPassword: false; IsChecked: false; IsFullScreen: false; Scrollable: true; BeforeText: null; FromIndex: -1; ToIndex: -1; ScrollX: 0; ScrollY: 1; MaxScrollX: 0; MaxScrollY: 435; AddedCount: -1; RemovedCount: -1; ParcelableData: null ]'
p2496
sS'MovementGranularity'
p2497
g6
sa(dp2498
S'EventTime'
p2499
S'41207755'
p2500
sg4
L1449904246708L
sS'recordCount'
p2501
g6
sS'EventType'
p2502
S'TYPE_VIEW_SCROLLED'
p2503
sS'PackageName'
p2504
S'com.taobao.ishopping'
p2505
sS'OutBounds'
p2506
S'Rect(0, 207 - 1080, 1776)'
p2507
sS'Action'
p2508
S'[ ClassName: com.android.org.chromium.content.browser.ContentViewCore; Text: []; ContentDescription: \xe7\xbd\x91\xe9\xa1\xb5\xe8\xa7\x86\xe5\x9b\xbe; ItemCount: -1; CurrentItemIndex: -1; IsEnabled: true; IsPassword: false; IsChecked: false; IsFullScreen: false; Scrollable: true; BeforeText: null; FromIndex: -1; ToIndex: -1; ScrollX: 0; ScrollY: 1; MaxScrollX: 0; MaxScrollY: 435; AddedCount: -1; RemovedCount: -1; ParcelableData: null ]'
p2509
sS'MovementGranularity'
p2510
g6
sa(dp2511
S'EventTime'
p2512
S'41208167'
p2513
sg4
L1449904247118L
sS'recordCount'
p2514
g6
sS'EventType'
p2515
S'TYPE_WINDOW_CONTENT_CHANGED'
p2516
sS'PackageName'
p2517
S'com.taobao.ishopping'
p2518
sS'OutBounds'
p2519
S'Rect(0, 207 - 1080, 1776)'
p2520
sS'Action'
p2521
S'[ ClassName: com.android.org.chromium.content.browser.ContentViewCore; Text: []; ContentDescription: \xe7\xbd\x91\xe9\xa1\xb5\xe8\xa7\x86\xe5\x9b\xbe; ItemCount: -1; CurrentItemIndex: -1; IsEnabled: true; IsPassword: false; IsChecked: false; IsFullScreen: false; Scrollable: true; BeforeText: null; FromIndex: -1; ToIndex: -1; ScrollX: 0; ScrollY: 1; MaxScrollX: 0; MaxScrollY: 435; AddedCount: -1; RemovedCount: -1; ParcelableData: null ]'
p2522
sS'MovementGranularity'
p2523
g6
sa(dp2524
S'EventTime'
p2525
S'41213067'
p2526
sg4
L1449904252023L
sS'recordCount'
p2527
g6
sS'EventType'
p2528
S'TYPE_WINDOW_STATE_CHANGED'
p2529
sS'PackageName'
p2530
S'com.taobao.ishopping'
p2531
sS'OutBounds'
p2532
S'Rect(0, 1061 - 1080, 1776)'
p2533
sS'Action'
p2534
S'[ ClassName: com.taobao.ishopping.thirdparty.share.DefaultShareMenuDialog; Text: [\xe9\x82\x80\xe8\xaf\xb7\xe5\xa5\xbd\xe5\x8f\x8b, \xe5\xa5\xbd\xe5\x8f\x8b\xe6\x8e\xa5\xe5\x8f\x97\xe9\x82\x80\xe8\xaf\xb7\xe5\xb0\xb1\xe8\x83\xbd\xe6\x88\x90\xe5\x8a\x9f\xe5\xbb\xba\xe7\xbe\xa4! (30\xe5\xa4\xa9\xe5\x86\x85\xe6\x9c\x89\xe6\x95\x88), \xe5\x8f\x96\xe6\xb6\x88]; ContentDescription: null; ItemCount: -1; CurrentItemIndex: -1; IsEnabled: true; IsPassword: false; IsChecked: false; IsFullScreen: false; Scrollable: false; BeforeText: null; FromIndex: -1; ToIndex: -1; ScrollX: -1; ScrollY: -1; MaxScrollX: -1; MaxScrollY: -1; AddedCount: -1; RemovedCount: -1; ParcelableData: null ]'
p2535
sS'MovementGranularity'
p2536
g6
sa(dp2537
S'EventTime'
p2538
S'41213163'
p2539
sg4
L1449904252118L
sS'recordCount'
p2540
g6
sS'EventType'
p2541
S'TYPE_VIEW_SCROLLED'
p2542
sS'PackageName'
p2543
S'com.taobao.ishopping'
p2544
sS'OutBounds'
p2545
S'Rect(0, 1310 - 1080, 1542)'
p2546
sS'Action'
p2547
S'[ ClassName: android.widget.GridView; Text: []; ContentDescription: null; ItemCount: 3; CurrentItemIndex: -1; IsEnabled: true; IsPassword: false; IsChecked: false; IsFullScreen: false; Scrollable: false; BeforeText: null; FromIndex: 0; ToIndex: 2; ScrollX: -1; ScrollY: -1; MaxScrollX: -1; MaxScrollY: -1; AddedCount: -1; RemovedCount: -1; ParcelableData: null ]'
p2548
sS'MovementGranularity'
p2549
g6
sa(dp2550
S'EventTime'
p2551
S'41213196'
p2552
sg4
L1449904252147L
sS'recordCount'
p2553
g6
sS'EventType'
p2554
S'TYPE_WINDOW_CONTENT_CHANGED'
p2555
sS'PackageName'
p2556
S'com.taobao.ishopping'
p2557
sS'OutBounds'
p2558
S'Rect(0, 1632 - 1080, 1776)'
p2559
sS'Action'
p2560
S'[ ClassName: android.widget.TextView; Text: []; ContentDescription: null; ItemCount: -1; CurrentItemIndex: -1; IsEnabled: true; IsPassword: false; IsChecked: false; IsFullScreen: false; Scrollable: false; BeforeText: null; FromIndex: -1; ToIndex: -1; ScrollX: -1; ScrollY: -1; MaxScrollX: -1; MaxScrollY: -1; AddedCount: -1; RemovedCount: -1; ParcelableData: null ]'
p2561
sS'MovementGranularity'
p2562
g6
sa(dp2563
S'EventTime'
p2564
S'41214237'
p2565
sg4
L1449904253188L
sS'recordCount'
p2566
g1058
sS'EventType'
p2567
S'TYPE_VIEW_CLICKED'
p2568
sS'PackageName'
p2569
S'com.taobao.ishopping'
p2570
sS'OutBounds'
p2571
S'Rect(360, 1310 - 720, 1542)'
p2572
sS'Action'
p2573
S'[ ClassName: android.widget.RelativeLayout; Text: [\xe4\xba\x8c\xe7\xbb\xb4\xe7\xa0\x81]; ContentDescription: null; ItemCount: -1; CurrentItemIndex: -1; IsEnabled: true; IsPassword: false; IsChecked: false; IsFullScreen: false; Scrollable: false; BeforeText: null; FromIndex: -1; ToIndex: -1; ScrollX: -1; ScrollY: -1; MaxScrollX: -1; MaxScrollY: -1; AddedCount: -1; RemovedCount: -1; ParcelableData: null ]'
p2574
sS'MovementGranularity'
p2575
g6
sa(dp2576
S'EventTime'
p2577
S'41214255'
p2578
sg4
L1449904253212L
sS'recordCount'
p2579
g6
sS'EventType'
p2580
S'TYPE_WINDOW_STATE_CHANGED'
p2581
sS'PackageName'
p2582
S'com.taobao.ishopping'
p2583
sS'OutBounds'
p2584
S'Rect(0, 0 - 1080, 1776)'
p2585
sS'Action'
p2586
S'[ ClassName: com.taobao.ishopping.thirdparty.windvane.HybridWVActivity; Text: [\xe7\x88\xb1\xe9\x80\x9b\xe8\xa1\x97]; ContentDescription: null; ItemCount: -1; CurrentItemIndex: -1; IsEnabled: true; IsPassword: false; IsChecked: false; IsFullScreen: true; Scrollable: false; BeforeText: null; FromIndex: -1; ToIndex: -1; ScrollX: -1; ScrollY: -1; MaxScrollX: -1; MaxScrollY: -1; AddedCount: -1; RemovedCount: -1; ParcelableData: null ]'
p2587
sS'MovementGranularity'
p2588
g6
sa(dp2589
S'EventTime'
p2590
S'41214439'
p2591
sg4
L1449904253394L
sS'recordCount'
p2592
g6
sS'EventType'
p2593
S'TYPE_WINDOW_STATE_CHANGED'
p2594
sS'PackageName'
p2595
S'com.taobao.ishopping'
p2596
sS'OutBounds'
p2597
S'Rect(60, 449 - 1020, 1401)'
p2598
sS'Action'
p2599
S'[ ClassName: com.taobao.ishopping.thirdparty.share.QRDialog; Text: [\xe6\x89\xab\xe7\xa0\x81\xe5\x88\x86\xe4\xba\xab, \xe9\x82\x80\xe8\xaf\xb7\xe5\xa5\xbd\xe5\x8f\x8b\xe6\x89\xab\xe4\xb8\x80\xe6\x89\xab\xe8\xbf\x9b\xe7\xbe\xa4\xe6\x89\xab\xe8\xb4\xa7]; ContentDescription: null; ItemCount: -1; CurrentItemIndex: -1; IsEnabled: true; IsPassword: false; IsChecked: false; IsFullScreen: false; Scrollable: false; BeforeText: null; FromIndex: -1; ToIndex: -1; ScrollX: -1; ScrollY: -1; MaxScrollX: -1; MaxScrollY: -1; AddedCount: -1; RemovedCount: -1; ParcelableData: null ]'
p2600
sS'MovementGranularity'
p2601
g6
sa(dp2602
S'EventTime'
p2603
S'41214605'
p2604
sg4
L1449904253558L
sS'recordCount'
p2605
g6
sS'EventType'
p2606
S'TYPE_WINDOW_CONTENT_CHANGED'
p2607
sS'PackageName'
p2608
S'com.taobao.ishopping'
p2609
sS'OutBounds'
p2610
S'Rect(60, 1277 - 1020, 1326)'
p2611
sS'Action'
p2612
S'[ ClassName: android.widget.TextView; Text: []; ContentDescription: null; ItemCount: -1; CurrentItemIndex: -1; IsEnabled: true; IsPassword: false; IsChecked: false; IsFullScreen: false; Scrollable: false; BeforeText: null; FromIndex: -1; ToIndex: -1; ScrollX: -1; ScrollY: -1; MaxScrollX: -1; MaxScrollY: -1; AddedCount: -1; RemovedCount: -1; ParcelableData: null ]'
p2613
sS'MovementGranularity'
p2614
g6
sa(dp2615
S'EventTime'
p2616
S'41250766'
p2617
sg4
L1449904289718L
sS'recordCount'
p2618
g6
sS'EventType'
p2619
S'TYPE_WINDOW_STATE_CHANGED'
p2620
sS'PackageName'
p2621
S'com.taobao.ishopping'
p2622
sS'OutBounds'
p2623
S'Rect(60, 449 - 1020, 1401)'
p2624
sS'Action'
p2625
S'[ ClassName: com.taobao.ishopping.thirdparty.share.QRDialog; Text: [\xe6\x89\xab\xe7\xa0\x81\xe5\x88\x86\xe4\xba\xab, \xe9\x82\x80\xe8\xaf\xb7\xe5\xa5\xbd\xe5\x8f\x8b\xe6\x89\xab\xe4\xb8\x80\xe6\x89\xab\xe8\xbf\x9b\xe7\xbe\xa4\xe6\x89\xab\xe8\xb4\xa7]; ContentDescription: null; ItemCount: -1; CurrentItemIndex: -1; IsEnabled: true; IsPassword: false; IsChecked: false; IsFullScreen: false; Scrollable: false; BeforeText: null; FromIndex: -1; ToIndex: -1; ScrollX: -1; ScrollY: -1; MaxScrollX: -1; MaxScrollY: -1; AddedCount: -1; RemovedCount: -1; ParcelableData: null ]'
p2626
sS'MovementGranularity'
p2627
g6
sa(dp2628
S'EventTime'
p2629
S'41255302'
p2630
sg4
L1449904294253L
sS'recordCount'
p2631
g6
sS'EventType'
p2632
S'TYPE_VIEW_CLICKED'
p2633
sS'PackageName'
p2634
S'com.taobao.ishopping'
p2635
sS'OutBounds'
p2636
S'Rect(888, 449 - 1020, 581)'
p2637
sS'Action'
p2638
S'[ ClassName: android.widget.ImageView; Text: []; ContentDescription: null; ItemCount: -1; CurrentItemIndex: -1; IsEnabled: true; IsPassword: false; IsChecked: false; IsFullScreen: false; Scrollable: false; BeforeText: null; FromIndex: -1; ToIndex: -1; ScrollX: -1; ScrollY: -1; MaxScrollX: -1; MaxScrollY: -1; AddedCount: -1; RemovedCount: -1; ParcelableData: null ]'
p2639
sS'MovementGranularity'
p2640
g6
sa(dp2641
S'EventTime'
p2642
S'41255320'
p2643
sg4
L1449904294277L
sS'recordCount'
p2644
g6
sS'EventType'
p2645
S'TYPE_WINDOW_STATE_CHANGED'
p2646
sS'PackageName'
p2647
S'com.taobao.ishopping'
p2648
sS'OutBounds'
p2649
S'Rect(0, 0 - 1080, 1776)'
p2650
sS'Action'
p2651
S'[ ClassName: com.taobao.ishopping.thirdparty.windvane.HybridWVActivity; Text: [\xe7\x88\xb1\xe9\x80\x9b\xe8\xa1\x97]; ContentDescription: null; ItemCount: -1; CurrentItemIndex: -1; IsEnabled: true; IsPassword: false; IsChecked: false; IsFullScreen: true; Scrollable: false; BeforeText: null; FromIndex: -1; ToIndex: -1; ScrollX: -1; ScrollY: -1; MaxScrollX: -1; MaxScrollY: -1; AddedCount: -1; RemovedCount: -1; ParcelableData: null ]'
p2652
sS'MovementGranularity'
p2653
g6
sa(dp2654
S'EventTime'
p2655
S'41257136'
p2656
sg4
L1449904296119L
sS'recordCount'
p2657
g6
sS'EventType'
p2658
S'TYPE_WINDOW_CONTENT_CHANGED'
p2659
sS'PackageName'
p2660
S'com.taobao.ishopping'
p2661
sS'OutBounds'
p2662
S'Rect(0, 206 - 1080, 2210)'
p2663
sS'Action'
p2664
S'[ ClassName: android.view.View; Text: []; ContentDescription: null; ItemCount: 0; CurrentItemIndex: 0; IsEnabled: true; IsPassword: false; IsChecked: false; IsFullScreen: false; Scrollable: true; BeforeText: null; FromIndex: -1; ToIndex: -1; ScrollX: 0; ScrollY: 1; MaxScrollX: 0; MaxScrollY: 435; AddedCount: -1; RemovedCount: -1; ParcelableData: null ]'
p2665
sS'MovementGranularity'
p2666
g6
sa(dp2667
S'EventTime'
p2668
S'41257317'
p2669
sg4
L1449904296272L
sS'recordCount'
p2670
g6
sS'EventType'
p2671
S'TYPE_WINDOW_STATE_CHANGED'
p2672
sS'PackageName'
p2673
S'com.taobao.ishopping'
p2674
sS'OutBounds'
p2675
S'Rect(0, 0 - 1080, 1776)'
p2676
sS'Action'
p2677
S'[ ClassName: com.taobao.ishopping.thirdparty.windvane.HybridWVActivity; Text: [\xe7\x88\xb1\xe9\x80\x9b\xe8\xa1\x97]; ContentDescription: null; ItemCount: -1; CurrentItemIndex: -1; IsEnabled: true; IsPassword: false; IsChecked: false; IsFullScreen: true; Scrollable: false; BeforeText: null; FromIndex: -1; ToIndex: -1; ScrollX: -1; ScrollY: -1; MaxScrollX: -1; MaxScrollY: -1; AddedCount: -1; RemovedCount: -1; ParcelableData: null ]'
p2678
sS'MovementGranularity'
p2679
g6
sa(dp2680
S'EventTime'
p2681
S'41257476'
p2682
sg4
L1449904296429L
sS'recordCount'
p2683
g6
sS'EventType'
p2684
S'TYPE_WINDOW_CONTENT_CHANGED'
p2685
sS'PackageName'
p2686
S'com.taobao.ishopping'
p2687
sS'OutBounds'
p2688
S'Rect(405, 109 - 675, 172)'
p2689
sS'Action'
p2690
S'[ ClassName: android.widget.TextView; Text: []; ContentDescription: null; ItemCount: -1; CurrentItemIndex: -1; IsEnabled: true; IsPassword: false; IsChecked: false; IsFullScreen: false; Scrollable: false; BeforeText: null; FromIndex: -1; ToIndex: -1; ScrollX: -1; ScrollY: -1; MaxScrollX: -1; MaxScrollY: -1; AddedCount: -1; RemovedCount: -1; ParcelableData: null ]'
p2691
sS'MovementGranularity'
p2692
g6
sa(dp2693
S'EventTime'
p2694
S'41257630'
p2695
sg4
L1449904296587L
sS'recordCount'
p2696
g6
sS'EventType'
p2697
S'TYPE_WINDOW_CONTENT_CHANGED'
p2698
sS'PackageName'
p2699
S'com.taobao.ishopping'
p2700
sS'OutBounds'
p2701
S'Rect(0, 207 - 1080, 1776)'
p2702
sS'Action'
p2703
S'[ ClassName: com.android.org.chromium.content.browser.ContentViewCore; Text: []; ContentDescription: \xe7\xbd\x91\xe9\xa1\xb5\xe8\xa7\x86\xe5\x9b\xbe; ItemCount: -1; CurrentItemIndex: -1; IsEnabled: true; IsPassword: false; IsChecked: false; IsFullScreen: false; Scrollable: true; BeforeText: null; FromIndex: -1; ToIndex: -1; ScrollX: 0; ScrollY: 0; MaxScrollX: 0; MaxScrollY: 48; AddedCount: -1; RemovedCount: -1; ParcelableData: null ]'
p2704
sS'MovementGranularity'
p2705
g6
sa(dp2706
S'EventTime'
p2707
S'41257741'
p2708
sg4
L1449904296692L
sS'recordCount'
p2709
g6
sS'EventType'
p2710
S'TYPE_WINDOW_CONTENT_CHANGED'
p2711
sS'PackageName'
p2712
S'com.taobao.ishopping'
p2713
sS'OutBounds'
p2714
S'Rect(0, 207 - 1080, 1776)'
p2715
sS'Action'
p2716
S'[ ClassName: android.view.View; Text: []; ContentDescription: null; ItemCount: 0; CurrentItemIndex: 0; IsEnabled: true; IsPassword: false; IsChecked: false; IsFullScreen: false; Scrollable: true; BeforeText: null; FromIndex: -1; ToIndex: -1; ScrollX: 0; ScrollY: 0; MaxScrollX: 0; MaxScrollY: 0; AddedCount: -1; RemovedCount: -1; ParcelableData: null ]'
p2717
sS'MovementGranularity'
p2718
g6
sa(dp2719
S'EventTime'
p2720
S'41258322'
p2721
sg4
L1449904297277L
sS'recordCount'
p2722
g6
sS'EventType'
p2723
S'TYPE_WINDOW_CONTENT_CHANGED'
p2724
sS'PackageName'
p2725
S'com.taobao.ishopping'
p2726
sS'OutBounds'
p2727
S'Rect(0, 207 - 1080, 1776)'
p2728
sS'Action'
p2729
S'[ ClassName: android.view.View; Text: []; ContentDescription: null; ItemCount: 0; CurrentItemIndex: 0; IsEnabled: true; IsPassword: false; IsChecked: false; IsFullScreen: false; Scrollable: true; BeforeText: null; FromIndex: -1; ToIndex: -1; ScrollX: 0; ScrollY: 1; MaxScrollX: 0; MaxScrollY: 3174; AddedCount: -1; RemovedCount: -1; ParcelableData: null ]'
p2730
sS'MovementGranularity'
p2731
g6
sa(dp2732
S'EventTime'
p2733
S'41258652'
p2734
sg4
L1449904297619L
sS'recordCount'
p2735
g6
sS'EventType'
p2736
S'TYPE_VIEW_SCROLLED'
p2737
sS'PackageName'
p2738
S'com.taobao.ishopping'
p2739
sS'OutBounds'
p2740
S'Rect(0, 207 - 1080, 1776)'
p2741
sS'Action'
p2742
S'[ ClassName: com.android.org.chromium.content.browser.ContentViewCore; Text: []; ContentDescription: \xe7\xbd\x91\xe9\xa1\xb5\xe8\xa7\x86\xe5\x9b\xbe; ItemCount: -1; CurrentItemIndex: -1; IsEnabled: true; IsPassword: false; IsChecked: false; IsFullScreen: false; Scrollable: true; BeforeText: null; FromIndex: -1; ToIndex: -1; ScrollX: 0; ScrollY: 1; MaxScrollX: 0; MaxScrollY: 3174; AddedCount: -1; RemovedCount: -1; ParcelableData: null ]'
p2743
sS'MovementGranularity'
p2744
g6
sa(dp2745
S'EventTime'
p2746
S'41258698'
p2747
sg4
L1449904297656L
sS'recordCount'
p2748
g6
sS'EventType'
p2749
S'TYPE_WINDOW_CONTENT_CHANGED'
p2750
sS'PackageName'
p2751
S'com.taobao.ishopping'
p2752
sS'OutBounds'
p2753
S'Rect(0, 206 - 1080, 1775)'
p2754
sS'Action'
p2755
S'[ ClassName: android.view.View; Text: []; ContentDescription: null; ItemCount: 0; CurrentItemIndex: 0; IsEnabled: true; IsPassword: false; IsChecked: false; IsFullScreen: false; Scrollable: true; BeforeText: null; FromIndex: -1; ToIndex: -1; ScrollX: 0; ScrollY: 1; MaxScrollX: 0; MaxScrollY: 3710; AddedCount: -1; RemovedCount: -1; ParcelableData: null ]'
p2756
sS'MovementGranularity'
p2757
g6
sa(dp2758
S'EventTime'
p2759
S'41259074'
p2760
sg4
L1449904298031L
sS'recordCount'
p2761
g6
sS'EventType'
p2762
S'TYPE_WINDOW_STATE_CHANGED'
p2763
sS'PackageName'
p2764
S'com.taobao.ishopping'
p2765
sS'OutBounds'
p2766
S'Rect(0, 0 - 1080, 1776)'
p2767
sS'Action'
p2768
S'[ ClassName: com.taobao.ishopping.thirdparty.windvane.HybridWVActivity; Text: [\xe7\x88\xb1\xe9\x80\x9b\xe8\xa1\x97]; ContentDescription: null; ItemCount: -1; CurrentItemIndex: -1; IsEnabled: true; IsPassword: false; IsChecked: false; IsFullScreen: true; Scrollable: false; BeforeText: null; FromIndex: -1; ToIndex: -1; ScrollX: -1; ScrollY: -1; MaxScrollX: -1; MaxScrollY: -1; AddedCount: -1; RemovedCount: -1; ParcelableData: null ]'
p2769
sS'MovementGranularity'
p2770
g6
sa(dp2771
S'EventTime'
p2772
S'41263822'
p2773
sg4
L1449904302772L
sS'recordCount'
p2774
g6
sS'EventType'
p2775
S'TYPE_VIEW_CLICKED'
p2776
sS'PackageName'
p2777
S'com.taobao.ishopping'
p2778
sS'OutBounds'
p2779
S'Rect(0, 75 - 168, 207)'
p2780
sS'Action'
p2781
S'[ ClassName: android.widget.ImageButton; Text: [\xe8\xbd\xac\xe5\x88\xb0\xe4\xb8\x8a\xe4\xb8\x80\xe5\xb1\x82\xe7\xba\xa7]; ContentDescription: \xe8\xbd\xac\xe5\x88\xb0\xe4\xb8\x8a\xe4\xb8\x80\xe5\xb1\x82\xe7\xba\xa7; ItemCount: -1; CurrentItemIndex: -1; IsEnabled: true; IsPassword: false; IsChecked: false; IsFullScreen: false; Scrollable: false; BeforeText: null; FromIndex: -1; ToIndex: -1; ScrollX: -1; ScrollY: -1; MaxScrollX: -1; MaxScrollY: -1; AddedCount: -1; RemovedCount: -1; ParcelableData: null ]'
p2782
sS'MovementGranularity'
p2783
g6
sa(dp2784
S'EventTime'
p2785
S'41263853'
p2786
sg4
L1449904302808L
sS'recordCount'
p2787
g6
sS'EventType'
p2788
S'TYPE_WINDOW_STATE_CHANGED'
p2789
sS'PackageName'
p2790
S'com.taobao.ishopping'
p2791
sS'OutBounds'
p2792
S'Rect(0, 0 - 1080, 1776)'
p2793
sS'Action'
p2794
S'[ ClassName: com.taobao.ishopping.thirdparty.windvane.HybridWVActivity; Text: [\xe7\x88\xb1\xe9\x80\x9b\xe8\xa1\x97]; ContentDescription: null; ItemCount: -1; CurrentItemIndex: -1; IsEnabled: true; IsPassword: false; IsChecked: false; IsFullScreen: true; Scrollable: false; BeforeText: null; FromIndex: -1; ToIndex: -1; ScrollX: -1; ScrollY: -1; MaxScrollX: -1; MaxScrollY: -1; AddedCount: -1; RemovedCount: -1; ParcelableData: null ]'
p2795
sS'MovementGranularity'
p2796
g6
sa(dp2797
S'EventTime'
p2798
S'41264572'
p2799
sg4
L1449904303523L
sS'recordCount'
p2800
g6
sS'EventType'
p2801
S'TYPE_VIEW_CLICKED'
p2802
sS'PackageName'
p2803
S'com.taobao.ishopping'
p2804
sS'OutBounds'
p2805
S'Rect(0, 75 - 168, 207)'
p2806
sS'Action'
p2807
S'[ ClassName: android.widget.ImageButton; Text: [\xe8\xbd\xac\xe5\x88\xb0\xe4\xb8\x8a\xe4\xb8\x80\xe5\xb1\x82\xe7\xba\xa7]; ContentDescription: \xe8\xbd\xac\xe5\x88\xb0\xe4\xb8\x8a\xe4\xb8\x80\xe5\xb1\x82\xe7\xba\xa7; ItemCount: -1; CurrentItemIndex: -1; IsEnabled: true; IsPassword: false; IsChecked: false; IsFullScreen: false; Scrollable: false; BeforeText: null; FromIndex: -1; ToIndex: -1; ScrollX: -1; ScrollY: -1; MaxScrollX: -1; MaxScrollY: -1; AddedCount: -1; RemovedCount: -1; ParcelableData: null ]'
p2808
sS'MovementGranularity'
p2809
g6
sa(dp2810
S'EventTime'
p2811
S'41265309'
p2812
sg4
L1449904304261L
sS'recordCount'
p2813
g6
sS'EventType'
p2814
S'TYPE_VIEW_CLICKED'
p2815
sS'PackageName'
p2816
S'com.taobao.ishopping'
p2817
sS'OutBounds'
p2818
S'Rect(0, 75 - 168, 207)'
p2819
sS'Action'
p2820
S'[ ClassName: android.widget.ImageButton; Text: [\xe8\xbd\xac\xe5\x88\xb0\xe4\xb8\x8a\xe4\xb8\x80\xe5\xb1\x82\xe7\xba\xa7]; ContentDescription: \xe8\xbd\xac\xe5\x88\xb0\xe4\xb8\x8a\xe4\xb8\x80\xe5\xb1\x82\xe7\xba\xa7; ItemCount: -1; CurrentItemIndex: -1; IsEnabled: true; IsPassword: false; IsChecked: false; IsFullScreen: false; Scrollable: false; BeforeText: null; FromIndex: -1; ToIndex: -1; ScrollX: -1; ScrollY: -1; MaxScrollX: -1; MaxScrollY: -1; AddedCount: -1; RemovedCount: -1; ParcelableData: null ]'
p2821
sS'MovementGranularity'
p2822
g6
sa(dp2823
S'EventTime'
p2824
S'41265347'
p2825
sg4
L1449904304320L
sS'recordCount'
p2826
g6
sS'EventType'
p2827
S'TYPE_WINDOW_STATE_CHANGED'
p2828
sS'PackageName'
p2829
S'com.taobao.ishopping'
p2830
sS'OutBounds'
p2831
S'Rect(0, 0 - 1080, 1776)'
p2832
sS'Action'
p2833
S'[ ClassName: com.taobao.ishopping.activity.home.MainActivity; Text: [\xe7\x88\xb1\xe9\x80\x9b\xe8\xa1\x97]; ContentDescription: null; ItemCount: -1; CurrentItemIndex: -1; IsEnabled: true; IsPassword: false; IsChecked: false; IsFullScreen: true; Scrollable: false; BeforeText: null; FromIndex: -1; ToIndex: -1; ScrollX: -1; ScrollY: -1; MaxScrollX: -1; MaxScrollY: -1; AddedCount: -1; RemovedCount: -1; ParcelableData: null ]'
p2834
sS'MovementGranularity'
p2835
g6
sa(dp2836
S'EventTime'
p2837
S'41266271'
p2838
sg4
L1449904305221L
sS'recordCount'
p2839
g6
sS'EventType'
p2840
S'TYPE_VIEW_CLICKED'
p2841
sS'PackageName'
p2842
S'com.taobao.ishopping'
p2843
sS'OutBounds'
p2844
S'Rect(45, 105 - 117, 177)'
p2845
sS'Action'
p2846
S'[ ClassName: android.widget.ImageView; Text: [\xe6\x89\xab\xe7\xa0\x81]; ContentDescription: \xe6\x89\xab\xe7\xa0\x81; ItemCount: -1; CurrentItemIndex: -1; IsEnabled: true; IsPassword: false; IsChecked: false; IsFullScreen: false; Scrollable: false; BeforeText: null; FromIndex: -1; ToIndex: -1; ScrollX: -1; ScrollY: -1; MaxScrollX: -1; MaxScrollY: -1; AddedCount: -1; RemovedCount: -1; ParcelableData: null ]'
p2847
sS'MovementGranularity'
p2848
g6
sa(dp2849
S'EventTime'
p2850
S'41267260'
p2851
sg4
L1449904306215L
sS'recordCount'
p2852
g6
sS'EventType'
p2853
S'TYPE_WINDOW_STATE_CHANGED'
p2854
sS'PackageName'
p2855
S'com.taobao.ishopping'
p2856
sS'OutBounds'
p2857
S'Rect(0, 0 - 1080, 1776)'
p2858
sS'Action'
p2859
S'[ ClassName: com.taobao.ishopping.activity.CameraActivity; Text: [\xe7\x88\xb1\xe9\x80\x9b\xe8\xa1\x97]; ContentDescription: null; ItemCount: -1; CurrentItemIndex: -1; IsEnabled: true; IsPassword: false; IsChecked: false; IsFullScreen: true; Scrollable: false; BeforeText: null; FromIndex: -1; ToIndex: -1; ScrollX: -1; ScrollY: -1; MaxScrollX: -1; MaxScrollY: -1; AddedCount: -1; RemovedCount: -1; ParcelableData: null ]'
p2860
sS'MovementGranularity'
p2861
g6
sa(dp2862
S'EventTime'
p2863
S'41267261'
p2864
sg4
L1449904306232L
sS'recordCount'
p2865
g6
sS'EventType'
p2866
S'TYPE_WINDOW_CONTENT_CHANGED'
p2867
sS'PackageName'
p2868
S'com.taobao.ishopping'
p2869
sS'OutBounds'
p2870
S'Rect(0, 0 - 1080, 1776)'
p2871
sS'Action'
p2872
S'[ ClassName: android.widget.FrameLayout; Text: []; ContentDescription: null; ItemCount: -1; CurrentItemIndex: -1; IsEnabled: true; IsPassword: false; IsChecked: false; IsFullScreen: false; Scrollable: false; BeforeText: null; FromIndex: -1; ToIndex: -1; ScrollX: -1; ScrollY: -1; MaxScrollX: -1; MaxScrollY: -1; AddedCount: -1; RemovedCount: -1; ParcelableData: null ]'
p2873
sS'MovementGranularity'
p2874
g6
sa(dp2875
S'EventTime'
p2876
S'41292291'
p2877
sg4
L1449904331265L
sS'recordCount'
p2878
g6
sS'EventType'
p2879
S'TYPE_WINDOW_STATE_CHANGED'
p2880
sS'PackageName'
p2881
S'com.taobao.ishopping'
p2882
sS'OutBounds'
p2883
S'Rect(0, 0 - 1080, 1776)'
p2884
sS'Action'
p2885
S'[ ClassName: com.taobao.ishopping.activity.home.MainActivity; Text: [\xe7\x88\xb1\xe9\x80\x9b\xe8\xa1\x97]; ContentDescription: null; ItemCount: -1; CurrentItemIndex: -1; IsEnabled: true; IsPassword: false; IsChecked: false; IsFullScreen: true; Scrollable: false; BeforeText: null; FromIndex: -1; ToIndex: -1; ScrollX: -1; ScrollY: -1; MaxScrollX: -1; MaxScrollY: -1; AddedCount: -1; RemovedCount: -1; ParcelableData: null ]'
p2886
sS'MovementGranularity'
p2887
g6
sa.