(lp0
(dp1
S'EventTime'
p2
S'5870033'
p3
sS'SyscTime'
p4
L1449905420993L
sS'recordCount'
p5
S'0'
p6
sS'EventType'
p7
S'TYPE_WINDOW_STATE_CHANGED'
p8
sS'PackageName'
p9
S'com.taobao.ishopping'
p10
sS'OutBounds'
p11
S'Rect(0, 0 - 1080, 1920)'
p12
sS'Action'
p13
S'[ ClassName: com.taobao.ishopping.activity.SplashActivity; Text: [\xe7\x88\xb1\xe9\x80\x9b\xe8\xa1\x97]; ContentDescription: null; ItemCount: -1; CurrentItemIndex: -1; IsEnabled: true; IsPassword: false; IsChecked: false; IsFullScreen: true; Scrollable: false; BeforeText: null; FromIndex: -1; ToIndex: -1; ScrollX: -1; ScrollY: -1; MaxScrollX: -1; MaxScrollY: -1; AddedCount: -1; RemovedCount: -1; ParcelableData: null ]'
p14
sS'MovementGranularity'
p15
g6
sa(dp16
S'EventTime'
p17
S'5870163'
p18
sg4
L1449905421092L
sS'recordCount'
p19
g6
sS'EventType'
p20
S'TYPE_WINDOW_CONTENT_CHANGED'
p21
sS'PackageName'
p22
S'com.taobao.ishopping'
p23
sS'OutBounds'
p24
S'Rect(0, 0 - 1080, 1920)'
p25
sS'Action'
p26
S'[ ClassName: android.widget.FrameLayout; Text: []; ContentDescription: null; ItemCount: -1; CurrentItemIndex: -1; IsEnabled: true; IsPassword: false; IsChecked: false; IsFullScreen: false; Scrollable: false; BeforeText: null; FromIndex: -1; ToIndex: -1; ScrollX: -1; ScrollY: -1; MaxScrollX: -1; MaxScrollY: -1; AddedCount: -1; RemovedCount: -1; ParcelableData: null ]'
p27
sS'MovementGranularity'
p28
g6
sa(dp29
S'EventTime'
p30
S'5870265'
p31
sg4
L1449905421193L
sS'recordCount'
p32
g6
sS'EventType'
p33
S'TYPE_WINDOW_CONTENT_CHANGED'
p34
sS'PackageName'
p35
S'com.taobao.ishopping'
p36
sS'OutBounds'
p37
S'Rect(0, 0 - 1080, 1920)'
p38
sS'Action'
p39
S'[ ClassName: android.widget.FrameLayout; Text: []; ContentDescription: null; ItemCount: -1; CurrentItemIndex: -1; IsEnabled: true; IsPassword: false; IsChecked: false; IsFullScreen: false; Scrollable: false; BeforeText: null; FromIndex: -1; ToIndex: -1; ScrollX: -1; ScrollY: -1; MaxScrollX: -1; MaxScrollY: -1; AddedCount: -1; RemovedCount: -1; ParcelableData: null ]'
p40
sS'MovementGranularity'
p41
g6
sa(dp42
S'EventTime'
p43
S'5872519'
p44
sg4
L1449905423454L
sS'recordCount'
p45
g6
sS'EventType'
p46
S'TYPE_WINDOW_STATE_CHANGED'
p47
sS'PackageName'
p48
S'com.taobao.ishopping'
p49
sS'OutBounds'
p50
S'Rect(0, 0 - 1080, 1920)'
p51
sS'Action'
p52
S'[ ClassName: com.taobao.ishopping.activity.home.MainActivity; Text: [\xe7\x88\xb1\xe9\x80\x9b\xe8\xa1\x97]; ContentDescription: null; ItemCount: -1; CurrentItemIndex: -1; IsEnabled: true; IsPassword: false; IsChecked: false; IsFullScreen: true; Scrollable: false; BeforeText: null; FromIndex: -1; ToIndex: -1; ScrollX: -1; ScrollY: -1; MaxScrollX: -1; MaxScrollY: -1; AddedCount: -1; RemovedCount: -1; ParcelableData: null ]'
p53
sS'MovementGranularity'
p54
g6
sa(dp55
S'EventTime'
p56
S'5872537'
p57
sg4
L1449905423466L
sS'recordCount'
p58
g6
sS'EventType'
p59
S'TYPE_WINDOW_CONTENT_CHANGED'
p60
sS'PackageName'
p61
S'com.taobao.ishopping'
p62
sS'OutBounds'
p63
S'Rect(447, 322 - 747, 207)'
p64
sS'Action'
p65
S'[ ClassName: android.widget.TextView; Text: []; ContentDescription: null; ItemCount: -1; CurrentItemIndex: -1; IsEnabled: true; IsPassword: false; IsChecked: false; IsFullScreen: false; Scrollable: false; BeforeText: null; FromIndex: -1; ToIndex: -1; ScrollX: -1; ScrollY: -1; MaxScrollX: -1; MaxScrollY: -1; AddedCount: -1; RemovedCount: -1; ParcelableData: null ]'
p66
sS'MovementGranularity'
p67
g6
sa(dp68
S'EventTime'
p69
S'5872539'
p70
sg4
L1449905423476L
sS'recordCount'
p71
g6
sS'EventType'
p72
S'TYPE_VIEW_SCROLLED'
p73
sS'PackageName'
p74
S'com.taobao.ishopping'
p75
sS'OutBounds'
p76
S'Rect(0, 75 - 1080, 1761)'
p77
sS'Action'
p78
S'[ ClassName: android.support.v7.widget.RecyclerView; Text: []; ContentDescription: null; ItemCount: 4; CurrentItemIndex: -1; IsEnabled: true; IsPassword: false; IsChecked: false; IsFullScreen: false; Scrollable: false; BeforeText: null; FromIndex: 0; ToIndex: 3; ScrollX: -1; ScrollY: -1; MaxScrollX: -1; MaxScrollY: -1; AddedCount: -1; RemovedCount: -1; ParcelableData: null ]'
p79
sS'MovementGranularity'
p80
g6
sa(dp81
S'EventTime'
p82
S'5877795'
p83
sg4
L1449905428770L
sS'recordCount'
p84
g6
sS'EventType'
p85
S'TYPE_WINDOW_CONTENT_CHANGED'
p86
sS'PackageName'
p87
S'com.taobao.ishopping'
p88
sS'OutBounds'
p89
S'Rect(0, 1761 - 216, 1920)'
p90
sS'Action'
p91
S'[ ClassName: android.widget.RelativeLayout; Text: []; ContentDescription: null; ItemCount: -1; CurrentItemIndex: -1; IsEnabled: true; IsPassword: false; IsChecked: false; IsFullScreen: false; Scrollable: false; BeforeText: null; FromIndex: -1; ToIndex: -1; ScrollX: -1; ScrollY: -1; MaxScrollX: -1; MaxScrollY: -1; AddedCount: -1; RemovedCount: -1; ParcelableData: null ]'
p92
sS'MovementGranularity'
p93
g6
sa(dp94
S'EventTime'
p95
S'5877796'
p96
sg4
L1449905428809L
sS'recordCount'
p97
g6
sS'EventType'
p98
S'TYPE_VIEW_SELECTED'
p99
sS'PackageName'
p100
S'com.taobao.ishopping'
p101
sS'OutBounds'
p102
S'Rect(648, 1761 - 864, 1920)'
p103
sS'Action'
p104
S'[ ClassName: android.widget.RelativeLayout; Text: [\xe6\xb6\x88\xe6\x81\xaf]; ContentDescription: null; ItemCount: -1; CurrentItemIndex: -1; IsEnabled: true; IsPassword: false; IsChecked: false; IsFullScreen: false; Scrollable: false; BeforeText: null; FromIndex: -1; ToIndex: -1; ScrollX: -1; ScrollY: -1; MaxScrollX: -1; MaxScrollY: -1; AddedCount: -1; RemovedCount: -1; ParcelableData: null ]'
p105
sS'MovementGranularity'
p106
g6
sa(dp107
S'EventTime'
p108
S'5877796'
p109
sg4
L1449905428853L
sS'recordCount'
p110
g6
sS'EventType'
p111
S'TYPE_VIEW_CLICKED'
p112
sS'PackageName'
p113
S'com.taobao.ishopping'
p114
sS'OutBounds'
p115
S'Rect(648, 1761 - 864, 1920)'
p116
sS'Action'
p117
S'[ ClassName: android.widget.RelativeLayout; Text: [\xe6\xb6\x88\xe6\x81\xaf]; ContentDescription: null; ItemCount: -1; CurrentItemIndex: -1; IsEnabled: true; IsPassword: false; IsChecked: false; IsFullScreen: false; Scrollable: false; BeforeText: null; FromIndex: -1; ToIndex: -1; ScrollX: -1; ScrollY: -1; MaxScrollX: -1; MaxScrollY: -1; AddedCount: -1; RemovedCount: -1; ParcelableData: null ]'
p118
sS'MovementGranularity'
p119
g6
sa(dp120
S'EventTime'
p121
S'5877974'
p122
sg4
L1449905428907L
sS'recordCount'
p123
g6
sS'EventType'
p124
S'TYPE_VIEW_SCROLLED'
p125
sS'PackageName'
p126
S'com.taobao.ishopping'
p127
sS'OutBounds'
p128
S'Rect(0, 207 - 1080, 1761)'
p129
sS'Action'
p130
S'[ ClassName: android.widget.ListView; Text: []; ContentDescription: null; ItemCount: 5; CurrentItemIndex: -1; IsEnabled: true; IsPassword: false; IsChecked: false; IsFullScreen: false; Scrollable: false; BeforeText: null; FromIndex: 0; ToIndex: 4; ScrollX: -1; ScrollY: -1; MaxScrollX: -1; MaxScrollY: -1; AddedCount: -1; RemovedCount: -1; ParcelableData: null ]'
p131
sS'MovementGranularity'
p132
g6
sa(dp133
S'EventTime'
p134
S'5878062'
p135
sg4
L1449905428991L
sS'recordCount'
p136
S'1'
p137
sS'EventType'
p138
S'TYPE_WINDOW_CONTENT_CHANGED'
p139
sS'PackageName'
p140
S'com.taobao.ishopping'
p141
sS'OutBounds'
p142
S'Rect(916, 1088 - 1035, 1133)'
p143
sS'Action'
p144
S'[ ClassName: android.widget.TextView; Text: []; ContentDescription: null; ItemCount: -1; CurrentItemIndex: -1; IsEnabled: true; IsPassword: false; IsChecked: false; IsFullScreen: false; Scrollable: false; BeforeText: null; FromIndex: -1; ToIndex: -1; ScrollX: -1; ScrollY: -1; MaxScrollX: -1; MaxScrollY: -1; AddedCount: -1; RemovedCount: -1; ParcelableData: null ]'
p145
sS'MovementGranularity'
p146
g6
sa(dp147
S'EventTime'
p148
S'5879468'
p149
sg4
L1449905430538L
sS'recordCount'
p150
g137
sS'EventType'
p151
S'TYPE_VIEW_CLICKED'
p152
sS'PackageName'
p153
S'com.taobao.ishopping'
p154
sS'OutBounds'
p155
S'Rect(0, 625 - 1080, 834)'
p156
sS'Action'
p157
S'[ ClassName: android.widget.RelativeLayout; Text: [\xe4\xb9\xb0\xe4\xb9\xb0\xe4\xb9\xb0, 15:30, sw***iu\xef\xbc\x9a\xe6\x88\x91\xe8\xbf\x99\xe6\x9c\x89\xe8\x8d\xa4\xe7\xb4\xa0\xe6\x90\xad\xe9\x85\x8d\xef\xbc\x8c\xe5\xb9\xb2\xe6\xb4\xbb\xe4\xb8\x8d\xe7\xb4\xaf]; ContentDescription: null; ItemCount: -1; CurrentItemIndex: -1; IsEnabled: true; IsPassword: false; IsChecked: false; IsFullScreen: false; Scrollable: false; BeforeText: null; FromIndex: -1; ToIndex: -1; ScrollX: -1; ScrollY: -1; MaxScrollX: -1; MaxScrollY: -1; AddedCount: -1; RemovedCount: -1; ParcelableData: null ]'
p158
sS'MovementGranularity'
p159
g6
sa(dp160
S'EventTime'
p161
S'5879874'
p162
sg4
L1449905430863L
sS'recordCount'
p163
g6
sS'EventType'
p164
S'TYPE_WINDOW_STATE_CHANGED'
p165
sS'PackageName'
p166
S'com.taobao.ishopping'
p167
sS'OutBounds'
p168
S'Rect(0, 0 - 1080, 1920)'
p169
sS'Action'
p170
S'[ ClassName: com.taobao.ishopping.im.activity.GroupChatActivity; Text: [\xe7\x88\xb1\xe9\x80\x9b\xe8\xa1\x97]; ContentDescription: null; ItemCount: -1; CurrentItemIndex: -1; IsEnabled: true; IsPassword: false; IsChecked: false; IsFullScreen: true; Scrollable: false; BeforeText: null; FromIndex: -1; ToIndex: -1; ScrollX: -1; ScrollY: -1; MaxScrollX: -1; MaxScrollY: -1; AddedCount: -1; RemovedCount: -1; ParcelableData: null ]'
p171
sS'MovementGranularity'
p172
g6
sa(dp173
S'EventTime'
p174
S'5879879'
p175
sg4
L1449905430890L
sS'recordCount'
p176
g6
sS'EventType'
p177
S'TYPE_VIEW_SCROLLED'
p178
sS'PackageName'
p179
S'com.taobao.ishopping'
p180
sS'OutBounds'
p181
S'Rect(0, 345 - 1080, 1767)'
p182
sS'Action'
p183
S'[ ClassName: android.widget.ListView; Text: []; ContentDescription: null; ItemCount: 8; CurrentItemIndex: -1; IsEnabled: true; IsPassword: false; IsChecked: false; IsFullScreen: false; Scrollable: true; BeforeText: null; FromIndex: 3; ToIndex: 7; ScrollX: -1; ScrollY: -1; MaxScrollX: -1; MaxScrollY: -1; AddedCount: -1; RemovedCount: -1; ParcelableData: null ]'
p184
sS'MovementGranularity'
p185
g6
sa(dp186
S'EventTime'
p187
S'5880039'
p188
sg4
L1449905430971L
sS'recordCount'
p189
g6
sS'EventType'
p190
S'TYPE_VIEW_SCROLLED'
p191
sS'PackageName'
p192
S'com.taobao.ishopping'
p193
sS'OutBounds'
p194
S'Rect(0, 345 - 1080, 1767)'
p195
sS'Action'
p196
S'[ ClassName: android.widget.ListView; Text: []; ContentDescription: null; ItemCount: 8; CurrentItemIndex: -1; IsEnabled: true; IsPassword: false; IsChecked: false; IsFullScreen: false; Scrollable: true; BeforeText: null; FromIndex: 1; ToIndex: 7; ScrollX: -1; ScrollY: -1; MaxScrollX: -1; MaxScrollY: -1; AddedCount: -1; RemovedCount: -1; ParcelableData: null ]'
p197
sS'MovementGranularity'
p198
g6
sa(dp199
S'EventTime'
p200
S'5880140'
p201
sg4
L1449905431068L
sS'recordCount'
p202
g137
sS'EventType'
p203
S'TYPE_WINDOW_CONTENT_CHANGED'
p204
sS'PackageName'
p205
S'com.taobao.ishopping'
p206
sS'OutBounds'
p207
S'Rect(180, 345 - 388, 417)'
p208
sS'Action'
p209
S'[ ClassName: android.widget.TextView; Text: []; ContentDescription: null; ItemCount: -1; CurrentItemIndex: -1; IsEnabled: true; IsPassword: false; IsChecked: false; IsFullScreen: false; Scrollable: false; BeforeText: null; FromIndex: -1; ToIndex: -1; ScrollX: -1; ScrollY: -1; MaxScrollX: -1; MaxScrollY: -1; AddedCount: -1; RemovedCount: -1; ParcelableData: null ]'
p210
sS'MovementGranularity'
p211
g6
sa(dp212
S'EventTime'
p213
S'5896834'
p214
sg4
L1449905447819L
sS'recordCount'
p215
g6
sS'EventType'
p216
S'TYPE_WINDOW_CONTENT_CHANGED'
p217
sS'PackageName'
p218
S'com.taobao.ishopping'
p219
sS'OutBounds'
p220
S'Rect(0, 793 - 1080, 1020)'
p221
sS'Action'
p222
S'[ ClassName: android.widget.ListView; Text: []; ContentDescription: null; ItemCount: 8; CurrentItemIndex: -1; IsEnabled: true; IsPassword: false; IsChecked: false; IsFullScreen: false; Scrollable: true; BeforeText: null; FromIndex: 1; ToIndex: 7; ScrollX: -1; ScrollY: -1; MaxScrollX: -1; MaxScrollY: -1; AddedCount: -1; RemovedCount: -1; ParcelableData: null ]'
p223
sS'MovementGranularity'
p224
g6
sa(dp225
S'EventTime'
p226
S'5896836'
p227
sg4
L1449905447886L
sS'recordCount'
p228
g6
sS'EventType'
p229
S'TYPE_VIEW_FOCUSED'
p230
sS'PackageName'
p231
S'com.taobao.ishopping'
p232
sS'OutBounds'
p233
S'Rect(144, 1047 - 936, 1143)'
p234
sS'Action'
p235
S'[ ClassName: android.widget.EditText; Text: []; ContentDescription: null; ItemCount: 10; CurrentItemIndex: 9; IsEnabled: true; IsPassword: false; IsChecked: false; IsFullScreen: false; Scrollable: false; BeforeText: null; FromIndex: -1; ToIndex: -1; ScrollX: -1; ScrollY: -1; MaxScrollX: -1; MaxScrollY: -1; AddedCount: -1; RemovedCount: -1; ParcelableData: null ]'
p236
sS'MovementGranularity'
p237
g6
sa(dp238
S'EventTime'
p239
S'5897103'
p240
sg4
L1449905448032L
sS'recordCount'
p241
g6
sS'EventType'
p242
S'TYPE_WINDOW_CONTENT_CHANGED'
p243
sS'PackageName'
p244
S'com.taobao.ishopping'
p245
sS'OutBounds'
p246
S'Rect(0, 345 - 1080, 1020)'
p247
sS'Action'
p248
S'[ ClassName: android.widget.ListView; Text: []; ContentDescription: null; ItemCount: 8; CurrentItemIndex: -1; IsEnabled: true; IsPassword: false; IsChecked: false; IsFullScreen: false; Scrollable: true; BeforeText: null; FromIndex: 4; ToIndex: 7; ScrollX: -1; ScrollY: -1; MaxScrollX: -1; MaxScrollY: -1; AddedCount: -1; RemovedCount: -1; ParcelableData: null ]'
p249
sS'MovementGranularity'
p250
g6
sa(dp251
S'EventTime'
p252
S'5897122'
p253
sg4
L1449905448053L
sS'recordCount'
p254
g6
sS'EventType'
p255
S'TYPE_VIEW_SCROLLED'
p256
sS'PackageName'
p257
S'com.taobao.ishopping'
p258
sS'OutBounds'
p259
S'Rect(0, 345 - 1080, 1020)'
p260
sS'Action'
p261
S'[ ClassName: android.widget.ListView; Text: []; ContentDescription: null; ItemCount: 8; CurrentItemIndex: -1; IsEnabled: true; IsPassword: false; IsChecked: false; IsFullScreen: false; Scrollable: true; BeforeText: null; FromIndex: 4; ToIndex: 7; ScrollX: -1; ScrollY: -1; MaxScrollX: -1; MaxScrollY: -1; AddedCount: -1; RemovedCount: -1; ParcelableData: null ]'
p262
sS'MovementGranularity'
p263
g6
sa(dp264
S'EventTime'
p265
S'5899036'
p266
sg4
L1449905449966L
sS'recordCount'
p267
g6
sS'EventType'
p268
S'TYPE_WINDOW_CONTENT_CHANGED'
p269
sS'PackageName'
p270
S'com.taobao.ishopping'
p271
sS'OutBounds'
p272
S'Rect(870, 1047 - 1050, 1143)'
p273
sS'Action'
p274
S'[ ClassName: android.widget.TextView; Text: []; ContentDescription: null; ItemCount: -1; CurrentItemIndex: -1; IsEnabled: true; IsPassword: false; IsChecked: false; IsFullScreen: false; Scrollable: false; BeforeText: null; FromIndex: -1; ToIndex: -1; ScrollX: -1; ScrollY: -1; MaxScrollX: -1; MaxScrollY: -1; AddedCount: -1; RemovedCount: -1; ParcelableData: null ]'
p275
sS'MovementGranularity'
p276
g6
sa(dp277
S'EventTime'
p278
S'5899037'
p279
sg4
L1449905449973L
sS'recordCount'
p280
g6
sS'EventType'
p281
S'TYPE_VIEW_TEXT_CHANGED'
p282
sS'PackageName'
p283
S'com.taobao.ishopping'
p284
sS'OutBounds'
p285
S'Rect(144, 1047 - 840, 1143)'
p286
sS'Action'
p287
S'[ ClassName: android.widget.EditText; Text: [\xe4\xba\x94\xe6\xaf\x9b]; ContentDescription: null; ItemCount: -1; CurrentItemIndex: -1; IsEnabled: true; IsPassword: false; IsChecked: false; IsFullScreen: false; Scrollable: false; BeforeText: ; FromIndex: 0; ToIndex: -1; ScrollX: -1; ScrollY: -1; MaxScrollX: -1; MaxScrollY: -1; AddedCount: 2; RemovedCount: 0; ParcelableData: null ]'
p288
sS'MovementGranularity'
p289
g6
sa(dp290
S'EventTime'
p291
S'5899038'
p292
sg4
L1449905449982L
sS'recordCount'
p293
g6
sS'EventType'
p294
S'TYPE_VIEW_TEXT_SELECTION_CHANGED'
p295
sS'PackageName'
p296
S'com.taobao.ishopping'
p297
sS'OutBounds'
p298
S'Rect(144, 1047 - 840, 1143)'
p299
sS'Action'
p300
S'[ ClassName: android.widget.EditText; Text: [\xe4\xba\x94\xe6\xaf\x9b]; ContentDescription: null; ItemCount: 2; CurrentItemIndex: -1; IsEnabled: true; IsPassword: false; IsChecked: false; IsFullScreen: false; Scrollable: false; BeforeText: null; FromIndex: 2; ToIndex: 2; ScrollX: -1; ScrollY: -1; MaxScrollX: -1; MaxScrollY: -1; AddedCount: -1; RemovedCount: -1; ParcelableData: null ]'
p301
sS'MovementGranularity'
p302
g6
sa(dp303
S'EventTime'
p304
S'5899917'
p305
sg4
L1449905450846L
sS'recordCount'
p306
g6
sS'EventType'
p307
S'TYPE_VIEW_TEXT_CHANGED'
p308
sS'PackageName'
p309
S'com.taobao.ishopping'
p310
sS'OutBounds'
p311
S'Rect(144, 1047 - 840, 1143)'
p312
sS'Action'
p313
S'[ ClassName: android.widget.EditText; Text: [\xe4\xba\x94\xe6\xaf\x9b\xe7\x9a\x84]; ContentDescription: null; ItemCount: -1; CurrentItemIndex: -1; IsEnabled: true; IsPassword: false; IsChecked: false; IsFullScreen: false; Scrollable: false; BeforeText: \xe4\xba\x94\xe6\xaf\x9b; FromIndex: 2; ToIndex: -1; ScrollX: -1; ScrollY: -1; MaxScrollX: -1; MaxScrollY: -1; AddedCount: 1; RemovedCount: 0; ParcelableData: null ]'
p314
sS'MovementGranularity'
p315
g6
sa(dp316
S'EventTime'
p317
S'5899918'
p318
sg4
L1449905450853L
sS'recordCount'
p319
g6
sS'EventType'
p320
S'TYPE_VIEW_TEXT_SELECTION_CHANGED'
p321
sS'PackageName'
p322
S'com.taobao.ishopping'
p323
sS'OutBounds'
p324
S'Rect(144, 1047 - 840, 1143)'
p325
sS'Action'
p326
S'[ ClassName: android.widget.EditText; Text: [\xe4\xba\x94\xe6\xaf\x9b\xe7\x9a\x84]; ContentDescription: null; ItemCount: 3; CurrentItemIndex: -1; IsEnabled: true; IsPassword: false; IsChecked: false; IsFullScreen: false; Scrollable: false; BeforeText: null; FromIndex: 3; ToIndex: 3; ScrollX: -1; ScrollY: -1; MaxScrollX: -1; MaxScrollY: -1; AddedCount: -1; RemovedCount: -1; ParcelableData: null ]'
p327
sS'MovementGranularity'
p328
g6
sa(dp329
S'EventTime'
p330
S'5900408'
p331
sg4
L1449905451358L
sS'recordCount'
p332
g6
sS'EventType'
p333
S'TYPE_VIEW_TEXT_SELECTION_CHANGED'
p334
sS'PackageName'
p335
S'com.taobao.ishopping'
p336
sS'OutBounds'
p337
S'Rect(144, 1047 - 936, 1143)'
p338
sS'Action'
p339
S'[ ClassName: android.widget.EditText; Text: []; ContentDescription: null; ItemCount: 0; CurrentItemIndex: -1; IsEnabled: true; IsPassword: false; IsChecked: false; IsFullScreen: false; Scrollable: false; BeforeText: null; FromIndex: 0; ToIndex: 0; ScrollX: -1; ScrollY: -1; MaxScrollX: -1; MaxScrollY: -1; AddedCount: -1; RemovedCount: -1; ParcelableData: null ]'
p340
sS'MovementGranularity'
p341
g6
sa(dp342
S'EventTime'
p343
S'5900470'
p344
sg4
L1449905451406L
sS'recordCount'
p345
g137
sS'EventType'
p346
S'TYPE_WINDOW_CONTENT_CHANGED'
p347
sS'PackageName'
p348
S'com.taobao.ishopping'
p349
sS'OutBounds'
p350
S'Rect(219, 393 - 338, 432)'
p351
sS'Action'
p352
S'[ ClassName: android.widget.TextView; Text: []; ContentDescription: null; ItemCount: -1; CurrentItemIndex: -1; IsEnabled: true; IsPassword: false; IsChecked: false; IsFullScreen: false; Scrollable: false; BeforeText: null; FromIndex: -1; ToIndex: -1; ScrollX: -1; ScrollY: -1; MaxScrollX: -1; MaxScrollY: -1; AddedCount: -1; RemovedCount: -1; ParcelableData: null ]'
p353
sS'MovementGranularity'
p354
g6
sa(dp355
S'EventTime'
p356
S'5900577'
p357
sg4
L1449905451507L
sS'recordCount'
p358
g6
sS'EventType'
p359
S'TYPE_VIEW_SCROLLED'
p360
sS'PackageName'
p361
S'com.taobao.ishopping'
p362
sS'OutBounds'
p363
S'Rect(0, 345 - 1080, 1020)'
p364
sS'Action'
p365
S'[ ClassName: android.widget.ListView; Text: []; ContentDescription: null; ItemCount: 9; CurrentItemIndex: -1; IsEnabled: true; IsPassword: false; IsChecked: false; IsFullScreen: false; Scrollable: true; BeforeText: null; FromIndex: 5; ToIndex: 8; ScrollX: -1; ScrollY: -1; MaxScrollX: -1; MaxScrollY: -1; AddedCount: -1; RemovedCount: -1; ParcelableData: null ]'
p366
sS'MovementGranularity'
p367
g6
sa(dp368
S'EventTime'
p369
S'5900630'
p370
sg4
L1449905451561L
sS'recordCount'
p371
g137
sS'EventType'
p372
S'TYPE_WINDOW_CONTENT_CHANGED'
p373
sS'PackageName'
p374
S'com.taobao.ishopping'
p375
sS'OutBounds'
p376
S'Rect(647, 929 - 647, 929)'
p377
sS'Action'
p378
S'[ ClassName: android.widget.LinearLayout; Text: []; ContentDescription: null; ItemCount: -1; CurrentItemIndex: -1; IsEnabled: true; IsPassword: false; IsChecked: false; IsFullScreen: false; Scrollable: false; BeforeText: null; FromIndex: -1; ToIndex: -1; ScrollX: -1; ScrollY: -1; MaxScrollX: -1; MaxScrollY: -1; AddedCount: -1; RemovedCount: -1; ParcelableData: null ]'
p379
sS'MovementGranularity'
p380
g6
sa(dp381
S'EventTime'
p382
S'5901433'
p383
sg4
L1449905452368L
sS'recordCount'
p384
g6
sS'EventType'
p385
S'TYPE_VIEW_SCROLLED'
p386
sS'PackageName'
p387
S'com.taobao.ishopping'
p388
sS'OutBounds'
p389
S'Rect(0, 345 - 1080, 1767)'
p390
sS'Action'
p391
S'[ ClassName: android.widget.ListView; Text: []; ContentDescription: null; ItemCount: 9; CurrentItemIndex: -1; IsEnabled: true; IsPassword: false; IsChecked: false; IsFullScreen: false; Scrollable: true; BeforeText: null; FromIndex: 2; ToIndex: 8; ScrollX: -1; ScrollY: -1; MaxScrollX: -1; MaxScrollY: -1; AddedCount: -1; RemovedCount: -1; ParcelableData: null ]'
p392
sS'MovementGranularity'
p393
g6
sa(dp394
S'EventTime'
p395
S'5901524'
p396
sg4
L1449905452453L
sS'recordCount'
p397
g137
sS'EventType'
p398
S'TYPE_WINDOW_CONTENT_CHANGED'
p399
sS'PackageName'
p400
S'com.taobao.ishopping'
p401
sS'OutBounds'
p402
S'Rect(692, 345 - 900, 417)'
p403
sS'Action'
p404
S'[ ClassName: android.widget.TextView; Text: []; ContentDescription: null; ItemCount: -1; CurrentItemIndex: -1; IsEnabled: true; IsPassword: false; IsChecked: false; IsFullScreen: false; Scrollable: false; BeforeText: null; FromIndex: -1; ToIndex: -1; ScrollX: -1; ScrollY: -1; MaxScrollX: -1; MaxScrollY: -1; AddedCount: -1; RemovedCount: -1; ParcelableData: null ]'
p405
sS'MovementGranularity'
p406
g6
sa(dp407
S'EventTime'
p408
S'5914153'
p409
sg4
L1449905465080L
sS'recordCount'
p410
g6
sS'EventType'
p411
S'TYPE_VIEW_CLICKED'
p412
sS'PackageName'
p413
S'com.taobao.ishopping'
p414
sS'Action'
p415
S'[ ClassName: android.widget.ImageButton; Text: [\xe8\xbd\xac\xe5\x88\xb0\xe4\xb8\x8a\xe4\xb8\x80\xe5\xb1\x82\xe7\xba\xa7]; ContentDescription: \xe8\xbd\xac\xe5\x88\xb0\xe4\xb8\x8a\xe4\xb8\x80\xe5\xb1\x82\xe7\xba\xa7; ItemCount: -1; CurrentItemIndex: -1; IsEnabled: true; IsPassword: false; IsChecked: false; IsFullScreen: false; Scrollable: false; BeforeText: null; FromIndex: -1; ToIndex: -1; ScrollX: -1; ScrollY: -1; MaxScrollX: -1; MaxScrollY: -1; AddedCount: -1; RemovedCount: -1; ParcelableData: null ]'
p416
sS'MovementGranularity'
p417
g6
sa(dp418
S'EventTime'
p419
S'5914173'
p420
sg4
L1449905465106L
sS'recordCount'
p421
g6
sS'EventType'
p422
S'TYPE_WINDOW_STATE_CHANGED'
p423
sS'PackageName'
p424
S'com.taobao.ishopping'
p425
sS'OutBounds'
p426
S'Rect(0, 0 - 1080, 1920)'
p427
sS'Action'
p428
S'[ ClassName: com.taobao.ishopping.activity.home.MainActivity; Text: [\xe7\x88\xb1\xe9\x80\x9b\xe8\xa1\x97]; ContentDescription: null; ItemCount: -1; CurrentItemIndex: -1; IsEnabled: true; IsPassword: false; IsChecked: false; IsFullScreen: true; Scrollable: false; BeforeText: null; FromIndex: -1; ToIndex: -1; ScrollX: -1; ScrollY: -1; MaxScrollX: -1; MaxScrollY: -1; AddedCount: -1; RemovedCount: -1; ParcelableData: null ]'
p429
sS'MovementGranularity'
p430
g6
sa.