(lp0
(dp1
S'processID'
p2
S'25460'
p3
sS'SyscTime'
p4
L1449712248966L
sS'priority'
p5
S'D'
p6
sS'tag'
p7
S'dalvikvm'
p8
sS'threadID'
p9
S'25460'
p10
sS'message'
p11
S'Late-enabling CheckJNI\n'
p12
sa(dp13
g2
S'25460'
p14
sg4
L1449712249006L
sg5
g6
sg7
S'ActivityThread'
p15
sg9
S'25460'
p16
sg11
S'setTargetHeapUtilization:0.75\n'
p17
sa(dp18
g2
S'25460'
p19
sg4
L1449712249006L
sg5
g6
sg7
S'ActivityThread'
p20
sg9
S'25460'
p21
sg11
S'setTargetHeapConcurrentStart:2097152\n'
p22
sa(dp23
g2
S'25460'
p24
sg4
L1449712249276L
sg5
g6
sg7
S'dalvikvm'
p25
sg9
S'25460'
p26
sg11
S'GC_FOR_ALLOC freed 50K, 18% free 6596K/8040K, paused 12ms, total 13ms\n'
p27
sa(dp28
g2
S'25460'
p29
sg4
L1449712249286L
sg5
S'I'
p30
sg7
S'dalvikvm-heap'
p31
sg9
S'25460'
p32
sg11
S'Grow heap (frag case) to 16.926MB for 8721484-byte allocation\n'
p33
sa(dp34
g2
S'25460'
p35
sg4
L1449712249306L
sg5
g6
sg7
S'dalvikvm'
p36
sg9
S'25464'
p37
sg11
S'GC_CONCURRENT freed <1K, 9% free 15113K/16560K, paused 2ms+1ms, total 15ms\n'
p38
sa(dp39
g2
S'25479'
p40
sg4
L1449712249466L
sg5
g6
sg7
S'dalvikvm'
p41
sg9
S'25479'
p42
sg11
S'Late-enabling CheckJNI\n'
p43
sa(dp44
g2
S'25479'
p45
sg4
L1449712249486L
sg5
g6
sg7
S'ActivityThread'
p46
sg9
S'25479'
p47
sg11
S'setTargetHeapUtilization:0.75\n'
p48
sa(dp49
g2
S'25479'
p50
sg4
L1449712249486L
sg5
g6
sg7
S'ActivityThread'
p51
sg9
S'25479'
p52
sg11
S'setTargetHeapConcurrentStart:2097152\n'
p53
sa(dp54
g2
S'25460'
p55
sg4
L1449712249506L
sg5
g6
sg7
S'libEGL  '
p56
sg9
S'25460'
p57
sg11
S'loaded /vendor/lib/egl/libEGL_adreno.so\n'
p58
sa(dp59
g2
S'25460'
p60
sg4
L1449712249506L
sg5
g6
sg7
S'libEGL  '
p61
sg9
S'25460'
p62
sg11
S'loaded /vendor/lib/egl/libGLESv1_CM_adreno.so\n'
p63
sa(dp64
g2
S'25479'
p65
sg4
L1449712249506L
sg5
g6
sg7
S'SocketService'
p66
sg9
S'25479'
p67
sg11
S'onStartCommand : bLogin:false\n'
p68
sa(dp69
g2
S'25479'
p70
sg4
L1449712249506L
sg5
g6
sg7
S'SocketService'
p71
sg9
S'25479'
p72
sg11
S'pid:25479 myPid:25479\n'
p73
sa(dp74
g2
S'25479'
p75
sg4
L1449712249506L
sg5
g6
sg7
S'SocketService'
p76
sg9
S'25479'
p77
sg11
S'start to run current thread!id:14672\n'
p78
sa(dp79
g2
S'25460'
p80
sg4
L1449712249506L
sg5
g6
sg7
S'libEGL  '
p81
sg9
S'25460'
p82
sg11
S'loaded /vendor/lib/egl/libGLESv2_adreno.so\n'
p83
sa(dp84
g2
S'25460'
p85
sg4
L1449712249506L
sg5
g30
sg7
S'Adreno-EGL'
p86
sg9
S'25460'
p87
sg11
S'<qeglDrvAPI_eglInitialize:381>: EGL 1.4 QUALCOMM build: AU_LINUX_ANDROID_JB_3.2_RB2.04.03.00.129.095_msm8226_JB_3.2_RB2__release_AU ()\nOpenGL ES Shader Compiler Version: 20.00.08\nBuild Date: 01/30/14 Thu\nLocal Branch: \nRemote Branch: quic/jb_3.2_rb2.32\nLocal Patches: NONE\nReconstruct Branch: AU_LINUX_ANDROID_JB_3.2_RB2.04.03.00.129.095 + 16788c7 +  NOTHING\n'
p88
sa(dp89
g2
S'25460'
p90
sg4
L1449712249536L
sg5
g6
sg7
S'OpenGLRenderer'
p91
sg9
S'25460'
p92
sg11
S'Enabling debug mode 0\n'
p93
sa(dp94
g2
S'25460'
p95
sg4
L1449712251686L
sg5
g6
sg7
S'MainActivity'
p96
sg9
S'25460'
p97
sg11
S'Start One Client\n'
p98
sa(dp99
g2
S'25460'
p100
sg4
L1449712251686L
sg5
g6
sg7
S'StrictMode'
p101
sg9
S'25460'
p102
sg11
S'StrictMode policy violation; ~duration=7 ms: android.os.StrictMode$StrictModeDiskReadViolation: policy=23 violation=2\n\tat android.os.StrictMode$AndroidBlockGuardPolicy.onReadFromDisk(StrictMode.java:1126)\n\tat android.app.SharedPreferencesImpl.awaitLoadedLocked(SharedPreferencesImpl.java:203)\n\tat android.app.SharedPreferencesImpl.edit(SharedPreferencesImpl.java:282)\n\tat com.example.myfristandroid.MainActivity.initCfg(MainActivity.java:454)\n\tat com.example.myfristandroid.MainActivity.onCreate(MainActivity.java:295)\n\tat android.app.Activity.performCreate(Activity.java:5234)\n\tat android.app.Instrumentation.callActivityOnCreate(Instrumentation.java:1087)\n\tat android.app.ActivityThread.performLaunchActivity(ActivityThread.java:2302)\n\tat android.app.ActivityThread.handleLaunchActivity(ActivityThread.java:2388)\n\tat android.app.ActivityThread.access$900(ActivityThread.java:148)\n\tat android.app.ActivityThread$H.handleMessage(ActivityThread.java:1319)\n\tat android.os.Handler.dispatchMessage(Handler.java:99)\n\tat android.os.Looper.loop(Looper.java:137)\n\tat android.app.ActivityThread.main(ActivityThread.java:5473)\n\tat java.lang.reflect.Method.invokeNative(Native Method)\n\tat java.lang.reflect.Method.invoke(Method.java:525)\n\tat com.android.internal.os.ZygoteInit$MethodAndArgsCaller.run(ZygoteInit.java:806)\n\tat com.android.internal.os.ZygoteInit.main(ZygoteInit.java:622)\n\tat dalvik.system.NativeStart.main(Native Method)\n'
p103
sa(dp104
g2
S'25460'
p105
sg4
L1449712251746L
sg5
g6
sg7
S'dalvikvm'
p106
sg9
S'25464'
p107
sg11
S'GC_CONCURRENT freed 4247K, 26% free 13101K/17524K, paused 1ms+2ms, total 16ms\n'
p108
sa(dp109
g2
S'25460'
p110
sg4
L1449712251896L
sg5
g6
sg7
S'dalvikvm'
p111
sg9
S'25464'
p112
sg11
S'GC_CONCURRENT freed 482K, 18% free 14381K/17524K, paused 1ms+5ms, total 22ms\n'
p113
sa(dp114
g2
S'25460'
p115
sg4
L1449712252396L
sg5
g6
sg7
S'webcoreglue'
p116
sg9
S'25526'
p117
sg11
S'netstack: Memory Cache feature is ON\n'
p118
sa(dp119
g2
S'25460'
p120
sg4
L1449712252406L
sg5
g6
sg7
S'JSENGINE'
p121
sg9
S'25526'
p122
sg11
S'qualcomm.jsengine.version:C.3-patch5-git:35c0a3d\n'
p123
sa(dp124
g2
S'25460'
p125
sg4
L1449712252456L
sg5
g6
sg7
S'HostStatisticManager'
p126
sg9
S'25526'
p127
sg11
S'netstack: DNS Host Prioritization is: ON, Version: 5.0.2\n'
p128
sa(dp129
g2
S'25460'
p130
sg4
L1449712252456L
sg5
g30
sg7
S'        '
p131
sg9
S'25526'
p132
sg11
S'netstack: LIB_MGR - Lib loaded: libdnshostprio.so\n'
p133
sa(dp134
g2
S'25460'
p135
sg4
L1449712252456L
sg5
g30
sg7
S'        '
p136
sg9
S'25526'
p137
sg11
S'netstack: STAT_HUB - Succeeded to load plugin: libdnshostprio.so\n'
p138
sa(dp139
g2
S'25460'
p140
sg4
L1449712252476L
sg5
g30
sg7
S'        '
p141
sg9
S'25526'
p142
sg11
S'netstack: LIB_MGR - Lib loaded: spl_proc_plugin.so\n'
p143
sa(dp144
g2
S'25460'
p145
sg4
L1449712252476L
sg5
g30
sg7
S'        '
p146
sg9
S'25526'
p147
sg11
S'netstack: STAT_HUB - Succeeded to load plugin: spl_proc_plugin.so\n'
p148
sa(dp149
g2
S'25460'
p150
sg4
L1449712252476L
sg5
g30
sg7
S'        '
p151
sg9
S'25526'
p152
sg11
S'netstack: LIB_MGR - Lib loaded: pp_proc_plugin.so\n'
p153
sa(dp154
g2
S'25460'
p155
sg4
L1449712252476L
sg5
g30
sg7
S'        '
p156
sg9
S'25526'
p157
sg11
S'netstack: STAT_HUB - Succeeded to load plugin: pp_proc_plugin.so\n'
p158
sa(dp159
g2
S'25460'
p160
sg4
L1449712252476L
sg5
S'E'
p161
sg7
S'        '
p162
sg9
S'25526'
p163
sg11
S"netstack:  STAT_HUB - App com.example.myfristandroid isn't supported\n"
p164
sa(dp165
g2
S'25460'
p166
sg4
L1449712252506L
sg5
S'V'
p167
sg7
S'chromium_net'
p168
sg9
S'25526'
p169
sg11
S'external/chromium/net/host_resolver_helper/host_resolver_helper.cc:66: [1210/095052:INFO:host_resolver_helper.cc(66)] DNSPreResolver::Init got hostprovider:0x5fef200c\n'
p170
sa(dp171
g2
S'25460'
p172
sg4
L1449712252506L
sg5
g167
sg7
S'chromium_net'
p173
sg9
S'25526'
p174
sg11
S'external/chromium/net/base/host_resolver_impl.cc:1510: [1210/095052:INFO:host_resolver_impl.cc(1510)] HostResolverImpl::SetPreresolver preresolver:0x5ff03580\n'
p175
sa(dp176
g2
S'25460'
p177
sg4
L1449712252506L
sg5
g6
sg7
S'        '
p178
sg9
S'25526'
p179
sg11
S'dl error message dlopen failed: library "libtcpfinaggr.so" not found\n'
p180
sa(dp181
g2
S'25460'
p182
sg4
L1449712252506L
sg5
g6
sg7
S'Socket_Pool'
p183
sg9
S'25526'
p184
sg11
S'Failed to create TCP Fin Aggregation interface.\n'
p185
sa(dp186
g2
S'25460'
p187
sg4
L1449712252506L
sg5
g6
sg7
S'Socket_Pool'
p188
sg9
S'25526'
p189
sg11
S'netstack: CloseUnusedSockets is ON\n'
p190
sa(dp191
g2
S'25460'
p192
sg4
L1449712252506L
sg5
g6
sg7
S'Socket_Pool'
p193
sg9
S'25526'
p194
sg11
S'netstack: system net.statistics value: 0\n'
p195
sa(dp196
g2
S'25460'
p197
sg4
L1449712252516L
sg5
g6
sg7
S'        '
p198
sg9
S'25526'
p199
sg11
S"external/chromium/net/http/http_getzip_factory.cc: Failed to construct GETzip manager, didn't find the library!\n"
p200
sa(dp201
g2
S'25460'
p202
sg4
L1449712252536L
sg5
g6
sg7
S'netstack'
p203
sg9
S'25526'
p204
sg11
S'netstack: Request Priority is ON\n'
p205
sa(dp206
g2
S'25460'
p207
sg4
L1449712252636L
sg5
g6
sg7
S'        '
p208
sg9
S'25533'
p209
sg11
S'Failed to load DoObserveConnections symbol in tcp-connections.so\n'
p210
sa(dp211
g2
S'25460'
p212
sg4
L1449712257106L
sg5
g6
sg7
S'WebKit  '
p213
sg9
S'25526'
p214
sg11
S'ERROR: \n'
p215
sa(dp216
g2
S'25460'
p217
sg4
L1449712257106L
sg5
g6
sg7
S'WebKit  '
p218
sg9
S'25526'
p219
sg11
S'alias gb18030 maps to GB18030 already, but someone is trying to make it map to GBK\n'
p220
sa(dp221
g2
S'25460'
p222
sg4
L1449712257106L
sg5
g6
sg7
S'WebKit  '
p223
sg9
S'25526'
p224
sg11
S''
p225
sa(dp226
g2
S'25460'
p227
sg4
L1449712257106L
sg5
g6
sg7
S'WebKit  '
p228
sg9
S'25526'
p229
sg11
S'external/webkit/Source/WebCore/platform/text/TextEncodingRegistry.cpp(152) : void WebCore::checkExistingName(const char*, const char*)\n'
p230
sa(dp231
g2
S'25460'
p232
sg4
L1449712257256L
sg5
S'W'
p233
sg7
S'Web Console'
p234
sg9
S'25460'
p235
sg11
S'The page at https://m.baidu.com/?from=844b&vit=fps ran insecure content from http://127.0.0.1:6259/getapn?callback=getapn&mcmdf=inapp_test.\n at null:1\n'
p236
sa(dp237
g2
S'25460'
p238
sg4
L1449712257256L
sg5
g233
sg7
S'Web Console'
p239
sg9
S'25460'
p240
sg11
S'The page at https://m.baidu.com/?from=844b&vit=fps ran insecure content from http://127.0.0.1:40310/getapn?callback=getapn&mcmdf=inapp_test.\n at null:1\n'
p241
sa(dp242
g2
S'25460'
p243
sg4
L1449712257536L
sg5
g161
sg7
S'cutils-trace'
p244
sg9
S'25526'
p245
sg11
S'Error opening trace file: No such file or directory (2)\n'
p246
sa(dp247
g2
S'25460'
p248
sg4
L1449712258066L
sg5
g233
sg7
S'Web Console'
p249
sg9
S'25460'
p250
sg11
S'The page at https://m.baidu.com/?from=844b&vit=fps ran insecure content from http://127.0.0.1:40310/getsearchboxinfo?mcmdf=inapp_boxserver&callback=_box_jsonp929.\n at null:1\n'
p251
sa(dp252
g2
S'25460'
p253
sg4
L1449712258076L
sg5
g161
sg7
S'SQLiteLog'
p254
sg9
S'25565'
p255
sg11
S'(14) cannot open file at line 30196 of [00bb9c9ce4]\n'
p256
sa(dp257
g2
S'25460'
p258
sg4
L1449712258076L
sg5
g161
sg7
S'SQLiteLog'
p259
sg9
S'25565'
p260
sg11
S'(14) os_unix.c:30196: (2) open(/CachedGeoposition.db) - \n'
p261
sa(dp262
g2
S'25460'
p263
sg4
L1449712258076L
sg5
g6
sg7
S'WebKit  '
p264
sg9
S'25565'
p265
sg11
S'ERROR: \n'
p266
sa(dp267
g2
S'25460'
p268
sg4
L1449712258076L
sg5
g6
sg7
S'WebKit  '
p269
sg9
S'25565'
p270
sg11
S'SQLite database failed to load from /CachedGeoposition.db\nCause - unable to open database file\n'
p271
sa(dp272
g2
S'25460'
p273
sg4
L1449712258076L
sg5
g6
sg7
S'WebKit  '
p274
sg9
S'25565'
p275
sg11
g225
sa(dp276
g2
S'25460'
p277
sg4
L1449712258076L
sg5
g6
sg7
S'WebKit  '
p278
sg9
S'25565'
p279
sg11
S'external/webkit/Source/WebCore/platform/sql/SQLiteDatabase.cpp(71) : bool WebCore::SQLiteDatabase::open(const WTF::String&, bool)\n'
p280
sa(dp281
g2
S'25460'
p282
sg4
L1449712258076L
sg5
g161
sg7
S'SQLiteLog'
p283
sg9
S'25526'
p284
sg11
S'(14) cannot open file at line 30196 of [00bb9c9ce4]\n'
p285
sa(dp286
g2
S'25460'
p287
sg4
L1449712258076L
sg5
g161
sg7
S'SQLiteLog'
p288
sg9
S'25526'
p289
sg11
S'(14) os_unix.c:30196: (2) open(/GeolocationPermissions.db) - \n'
p290
sa(dp291
g2
S'25460'
p292
sg4
L1449712258076L
sg5
g6
sg7
S'WebKit  '
p293
sg9
S'25526'
p294
sg11
S'ERROR: \n'
p295
sa(dp296
g2
S'25460'
p297
sg4
L1449712258076L
sg5
g6
sg7
S'WebKit  '
p298
sg9
S'25526'
p299
sg11
S'SQLite database failed to load from /GeolocationPermissions.db\nCause - unable to open database file\n'
p300
sa(dp301
g2
S'25460'
p302
sg4
L1449712258076L
sg5
g6
sg7
S'WebKit  '
p303
sg9
S'25526'
p304
sg11
g225
sa(dp305
g2
S'25460'
p306
sg4
L1449712258076L
sg5
g6
sg7
S'WebKit  '
p307
sg9
S'25526'
p308
sg11
S'external/webkit/Source/WebCore/platform/sql/SQLiteDatabase.cpp(71) : bool WebCore::SQLiteDatabase::open(const WTF::String&, bool)\n'
p309
sa(dp310
g2
S'25460'
p311
sg4
L1449712258086L
sg5
g233
sg7
S'Web Console'
p312
sg9
S'25460'
p313
sg11
S'The page at https://m.baidu.com/?from=844b&vit=fps ran insecure content from http://127.0.0.1:7777/geolocation?timeout=10000&callback=jsonp2&gps=1&t=0.9485581764020026&_=1449712258092.\n at null:1\n'
p314
sa(dp315
g2
S'25460'
p316
sg4
L1449712258396L
sg5
g233
sg7
S'Web Console'
p317
sg9
S'25460'
p318
sg11
S'The page at https://m.baidu.com/?from=844b&vit=fps displayed insecure content from http://111.13.12.43/static/tj.gif?pagetype=nindexs&sids=101085_102577_102393_102601_102324_100617_100122_100191_100289_102030_100100_100152_101981_101625_101999_102143_102510_102195_102624_102233_102239_102241_102251_101532_102360_102626_102184_102354_100993&logid=17240262901348061834&ta_net=1&header=50&plus_default=88&domc=123&load=134&combo_net=472&combo_code=990&plus_net=1074&plus_code=1282&net1=1527&net2=0&net3=0.\n at null:1\n'
p319
sa(dp320
g2
S'25460'
p321
sg4
L1449712258726L
sg5
g233
sg7
S'Web Console'
p322
sg9
S'25460'
p323
sg11
S'The page at https://m.baidu.com/?from=844b&vit=fps ran insecure content from http://127.0.0.1:40310/getsearchboxinfo?mcmdf=inapp_boxserver&callback=_box_jsonp930.\n at null:1\n'
p324
sa(dp325
g2
S'25479'
p326
sg4
L1449712264556L
sg5
g6
sg7
S'SocketService'
p327
sg9
S'25497'
p328
sg11
S'ip/192.168.1.190 lport:33443 p:143\n'
p329
sa(dp330
g2
S'25479'
p331
sg4
L1449712264576L
sg5
g6
sg7
S'ForegroundActivity'
p332
sg9
S'25497'
p333
sg11
S'\xe6\x9c\xac\xe6\xac\xa1\xe5\x8f\x91\xe9\x80\x81\xe5\xb8\xa7\xe9\x95\xbf:34\t\xe6\x80\xbb\xe5\xb8\xa7\xe9\x95\xbf:34\n'
p334
sa(dp335
g2
S'25479'
p336
sg4
L1449712264576L
sg5
g6
sg7
S'SocketService'
p337
sg9
S'25497'
p338
sg11
S'success to connect server!id:14672 bLogin:false\n'
p339
sa(dp340
g2
S'25479'
p341
sg4
L1449712264686L
sg5
g6
sg7
S'ForegroundActivity'
p342
sg9
S'25585'
p343
sg11
S'\xe6\x9c\xac\xe6\xac\xa1\xe6\x94\xb6\xe5\x88\xb0\xe5\xb8\xa7\xe9\x95\xbf:13\t\xe6\x80\xbb\xe5\xb8\xa7\xe9\x95\xbf:13\n'
p344
sa(dp345
g2
S'25479'
p346
sg4
L1449712265526L
sg5
g6
sg7
S'SocketService1'
p347
sg9
S'25495'
p348
sg11
S'\xe6\x9c\xac\xe6\xac\xa1\xe6\x8f\x90\xe5\x8f\x961:LoadPtr:13 HeadIndex:0 GetSize:13 13 0 \xe5\xa4\xb4\xe4\xbf\xa1\xe6\x81\xaf:EB 90 EB 90 EB 90 0D 00 0E 01 \n'
p349
sa(dp350
g2
S'25460'
p351
sg4
L1449712265526L
sg5
g6
sg7
S'MainActivity'
p352
sg9
S'25460'
p353
sg11
S'Unkown Report:ffffffeb ffffff90 ffffffeb ffffff90 ffffffeb ffffff90 d 0 e 1 1 0 ffffff81 \n'
p354
sa(dp355
g2
S'25479'
p356
sg4
L1449712265576L
sg5
g6
sg7
S'ForegroundActivity'
p357
sg9
S'25497'
p358
sg11
S'\xe6\x9c\xac\xe6\xac\xa1\xe5\x8f\x91\xe9\x80\x81\xe5\xb8\xa7\xe9\x95\xbf:11\t\xe6\x80\xbb\xe5\xb8\xa7\xe9\x95\xbf:45\n'
p359
sa(dp360
g2
S'25479'
p361
sg4
L1449712265676L
sg5
g6
sg7
S'ForegroundActivity'
p362
sg9
S'25585'
p363
sg11
S'\xe6\x9c\xac\xe6\xac\xa1\xe6\x94\xb6\xe5\x88\xb0\xe5\xb8\xa7\xe9\x95\xbf:642\t\xe6\x80\xbb\xe5\xb8\xa7\xe9\x95\xbf:655\n'
p364
sa(dp365
g2
S'25460'
p366
sg4
L1449712266096L
sg5
g233
sg7
S'Web Console'
p367
sg9
S'25460'
p368
sg11
S'The page at https://m.baidu.com/?from=844b&vit=fps ran insecure content from http://127.0.0.1:40310/geolocation?timeout=10000&gps=1&mcmdf=inapp_wiselocation&callback=_box_jsonp931.\n at null:1\n'
p369
sa(dp370
g2
S'25479'
p371
sg4
L1449712266546L
sg5
g6
sg7
S'SocketService1'
p372
sg9
S'25495'
p373
sg11
S'\xe6\x9c\xac\xe6\xac\xa1\xe6\x8f\x90\xe5\x8f\x961:LoadPtr:655 HeadIndex:13 GetSize:642 130 512 \xe5\xa4\xb4\xe4\xbf\xa1\xe6\x81\xaf:EB 90 EB 90 EB 90 82 02 14 0A \n'
p374
sa(dp375
g2
S'25460'
p376
sg4
L1449712266546L
sg5
g6
sg7
S'MainActivity'
p377
sg9
S'25460'
p378
sg11
S'page0:http://oa.paneng.cn:1143/se9200/realdata/realdata.html\n'
p379
sa(dp380
g2
S'25460'
p381
sg4
L1449712266546L
sg5
g6
sg7
S'MainActivity'
p382
sg9
S'25460'
p383
sg11
S'page1:http://oa.paneng.cn:1143/se9200/graph/gshow.jsp?mRID=1130000050\n'
p384
sa(dp385
g2
S'25460'
p386
sg4
L1449712266546L
sg5
g6
sg7
S'MainActivity'
p387
sg9
S'25460'
p388
sg11
S'page2:http://oa.paneng.cn:1143/se9200/graph/gshow.jsp?mRID=1130000052\n'
p389
sa(dp390
g2
S'25460'
p391
sg4
L1449712266546L
sg5
g6
sg7
S'MainActivity'
p392
sg9
S'25460'
p393
sg11
S'page3:http://oa.paneng.cn:1143/se9200/graph/gshow.jsp?mRID=1130000054\n'
p394
sa(dp395
g2
S'25460'
p396
sg4
L1449712266546L
sg5
g6
sg7
S'MainActivity'
p397
sg9
S'25460'
p398
sg11
S'page4:http://oa.paneng.cn:1143/se9200/graph/gshow.jsp?mRID=1130000007\n'
p399
sa(dp400
g2
S'25460'
p401
sg4
L1449712266546L
sg5
g6
sg7
S'MainActivity'
p402
sg9
S'25460'
p403
sg11
S'page5:http://oa.paneng.cn:1143/se9200/graph/gshow.jsp?mRID=1130000047\n'
p404
sa(dp405
g2
S'25460'
p406
sg4
L1449712266546L
sg5
g6
sg7
S'MainActivity'
p407
sg9
S'25460'
p408
sg11
S'page6:http://oa.paneng.cn:1143/se9200/graph/gshow.jsp?mRID=1130000011\n'
p409
sa(dp410
g2
S'25460'
p411
sg4
L1449712266546L
sg5
g6
sg7
S'MainActivity'
p412
sg9
S'25460'
p413
sg11
S'page7:http://oa.paneng.cn:1143/se9200/graph/gshow.jsp?mRID=1130000005\n'
p414
sa(dp415
g2
S'25460'
p416
sg4
L1449712266546L
sg5
g6
sg7
S'MainActivity'
p417
sg9
S'25460'
p418
sg11
S'page8:http://oa.paneng.cn:1143/se9200/graph/gshow.jsp?mRID=1130000148\n'
p419
sa(dp420
g2
S'25460'
p421
sg4
L1449712266546L
sg5
g6
sg7
S'MainActivity'
p422
sg9
S'25460'
p423
sg11
S'page9:http://oa.paneng.cn:1143/se9200/graph/gshow.jsp?mRID=1130000296\n'
p424
sa(dp425
g2
S'25479'
p426
sg4
L1449712266616L
sg5
g6
sg7
S'ForegroundActivity'
p427
sg9
S'25497'
p428
sg11
S'\xe6\x9c\xac\xe6\xac\xa1\xe5\x8f\x91\xe9\x80\x81\xe5\xb8\xa7\xe9\x95\xbf:11\t\xe6\x80\xbb\xe5\xb8\xa7\xe9\x95\xbf:56\n'
p429
sa(dp430
g2
S'25460'
p431
sg4
L1449712266646L
sg5
g6
sg7
S'StrictMode'
p432
sg9
S'25460'
p433
sg11
S'StrictMode policy violation; ~duration=34 ms: android.os.StrictMode$StrictModeDiskReadViolation: policy=23 violation=2\n\tat android.os.StrictMode$AndroidBlockGuardPolicy.onReadFromDisk(StrictMode.java:1126)\n\tat libcore.io.BlockGuardOs.open(BlockGuardOs.java:106)\n\tat libcore.io.IoBridge.open(IoBridge.java:393)\n\tat java.io.FileOutputStream.<init>(FileOutputStream.java:88)\n\tat java.io.FileOutputStream.<init>(FileOutputStream.java:73)\n\tat android.app.SharedPreferencesImpl.createFileOutputStream(SharedPreferencesImpl.java:543)\n\tat android.app.SharedPreferencesImpl.writeToFile(SharedPreferencesImpl.java:591)\n\tat android.app.SharedPreferencesImpl.access$800(SharedPreferencesImpl.java:52)\n\tat android.app.SharedPreferencesImpl$2.run(SharedPreferencesImpl.java:511)\n\tat android.app.SharedPreferencesImpl.enqueueDiskWrite(SharedPreferencesImpl.java:532)\n\tat android.app.SharedPreferencesImpl.access$100(SharedPreferencesImpl.java:52)\n\tat android.app.SharedPreferencesImpl$EditorImpl.commit(SharedPreferencesImpl.java:454)\n\tat com.example.myfristandroid.MainActivity$3.AnalysisMessage(MainActivity.java:809)\n\tat com.example.myfristandroid.MainActivity$3.run(MainActivity.java:478)\n\tat android.app.Activity.runOnUiThread(Activity.java:4774)\n\tat com.example.myfristandroid.MainActivity.AnalysisBroadCastReport(MainActivity.java:470)\n\tat com.example.myfristandroid.MainActivity.access$1(MainActivity.java:468)\n\tat com.example.myfristandroid.MainActivity$CmdReceiver.onReceive(MainActivity.java:371)\n\tat android.app.LoadedApk$ReceiverDispatcher$Args.run(LoadedApk.java:792)\n\tat android.os.Handler.handleCallback(Handler.java:730)\n\tat android.os.Handler.dispatchMessage(Handler.java:92)\n\tat android.os.Looper.loop(Looper.java:137)\n\tat android.app.ActivityThread.main(ActivityThread.java:5473)\n\tat java.lang.reflect.Method.invokeNative(Native Method)\n\tat java.lang.reflect.Method.invoke(Method.java:525)\n\tat com.android.internal.os.ZygoteInit$MethodAndArgsCaller.run(ZygoteInit.java:806)\n\tat com.android.internal.os.ZygoteInit.main(ZygoteInit.java:622)\n\tat dalvik.system.NativeStart.main(Native Method)\n'
p434
sa(dp435
g2
S'25460'
p436
sg4
L1449712266646L
sg5
g6
sg7
S'StrictMode'
p437
sg9
S'25460'
p438
sg11
S'StrictMode policy violation; ~duration=31 ms: android.os.StrictMode$StrictModeDiskReadViolation: policy=23 violation=2\n\tat android.os.StrictMode$AndroidBlockGuardPolicy.onReadFromDisk(StrictMode.java:1126)\n\tat libcore.io.BlockGuardOs.open(BlockGuardOs.java:106)\n\tat libcore.io.IoBridge.open(IoBridge.java:393)\n\tat java.io.FileOutputStream.<init>(FileOutputStream.java:88)\n\tat java.io.FileOutputStream.<init>(FileOutputStream.java:73)\n\tat android.app.SharedPreferencesImpl.createFileOutputStream(SharedPreferencesImpl.java:555)\n\tat android.app.SharedPreferencesImpl.writeToFile(SharedPreferencesImpl.java:591)\n\tat android.app.SharedPreferencesImpl.access$800(SharedPreferencesImpl.java:52)\n\tat android.app.SharedPreferencesImpl$2.run(SharedPreferencesImpl.java:511)\n\tat android.app.SharedPreferencesImpl.enqueueDiskWrite(SharedPreferencesImpl.java:532)\n\tat android.app.SharedPreferencesImpl.access$100(SharedPreferencesImpl.java:52)\n\tat android.app.SharedPreferencesImpl$EditorImpl.commit(SharedPreferencesImpl.java:454)\n\tat com.example.myfristandroid.MainActivity$3.AnalysisMessage(MainActivity.java:809)\n\tat com.example.myfristandroid.MainActivity$3.run(MainActivity.java:478)\n\tat android.app.Activity.runOnUiThread(Activity.java:4774)\n\tat com.example.myfristandroid.MainActivity.AnalysisBroadCastReport(MainActivity.java:470)\n\tat com.example.myfristandroid.MainActivity.access$1(MainActivity.java:468)\n\tat com.example.myfristandroid.MainActivity$CmdReceiver.onReceive(MainActivity.java:371)\n\tat android.app.LoadedApk$ReceiverDispatcher$Args.run(LoadedApk.java:792)\n\tat android.os.Handler.handleCallback(Handler.java:730)\n\tat android.os.Handler.dispatchMessage(Handler.java:92)\n\tat android.os.Looper.loop(Looper.java:137)\n\tat android.app.ActivityThread.main(ActivityThread.java:5473)\n\tat java.lang.reflect.Method.invokeNative(Native Method)\n\tat java.lang.reflect.Method.invoke(Method.java:525)\n\tat com.android.internal.os.ZygoteInit$MethodAndArgsCaller.run(ZygoteInit.java:806)\n\tat com.android.internal.os.ZygoteInit.main(ZygoteInit.java:622)\n\tat dalvik.system.NativeStart.main(Native Method)\n'
p439
sa(dp440
g2
S'25460'
p441
sg4
L1449712266646L
sg5
g6
sg7
S'StrictMode'
p442
sg9
S'25460'
p443
sg11
S'StrictMode policy violation; ~duration=21 ms: android.os.StrictMode$StrictModeDiskWriteViolation: policy=23 violation=1\n\tat android.os.StrictMode$AndroidBlockGuardPolicy.onWriteToDisk(StrictMode.java:1100)\n\tat libcore.io.BlockGuardOs.write(BlockGuardOs.java:196)\n\tat libcore.io.IoBridge.write(IoBridge.java:450)\n\tat java.io.FileOutputStream.write(FileOutputStream.java:187)\n\tat com.android.internal.util.FastXmlSerializer.flushBytes(FastXmlSerializer.java:232)\n\tat com.android.internal.util.FastXmlSerializer.flush(FastXmlSerializer.java:253)\n\tat com.android.internal.util.FastXmlSerializer.endDocument(FastXmlSerializer.java:198)\n\tat com.android.internal.util.XmlUtils.writeMapXml(XmlUtils.java:182)\n\tat android.app.SharedPreferencesImpl.writeToFile(SharedPreferencesImpl.java:596)\n\tat android.app.SharedPreferencesImpl.access$800(SharedPreferencesImpl.java:52)\n\tat android.app.SharedPreferencesImpl$2.run(SharedPreferencesImpl.java:511)\n\tat android.app.SharedPreferencesImpl.enqueueDiskWrite(SharedPreferencesImpl.java:532)\n\tat android.app.SharedPreferencesImpl.access$100(SharedPreferencesImpl.java:52)\n\tat android.app.SharedPreferencesImpl$EditorImpl.commit(SharedPreferencesImpl.java:454)\n\tat com.example.myfristandroid.MainActivity$3.AnalysisMessage(MainActivity.java:809)\n\tat com.example.myfristandroid.MainActivity$3.run(MainActivity.java:478)\n\tat android.app.Activity.runOnUiThread(Activity.java:4774)\n\tat com.example.myfristandroid.MainActivity.AnalysisBroadCastReport(MainActivity.java:470)\n\tat com.example.myfristandroid.MainActivity.access$1(MainActivity.java:468)\n\tat com.example.myfristandroid.MainActivity$CmdReceiver.onReceive(MainActivity.java:371)\n\tat android.app.LoadedApk$ReceiverDispatcher$Args.run(LoadedApk.java:792)\n\tat android.os.Handler.handleCallback(Handler.java:730)\n\tat android.os.Handler.dispatchMessage(Handler.java:92)\n\tat android.os.Looper.loop(Looper.java:137)\n\tat android.app.ActivityThread.main(ActivityThread.java:5473)\n\tat java.lang.reflect.Method.invokeNative(Native Method)\n\tat java.lang.reflect.Method.invoke(Method.java:525)\n\tat com.android.internal.os.ZygoteInit$MethodAndArgsCaller.run(ZygoteInit.java:806)\n\tat com.android.internal.os.ZygoteInit.main(ZygoteInit.java:622)\n\tat dalvik.system.NativeStart.main(Native Method)\n'
p444
sa(dp445
g2
S'25460'
p446
sg4
L1449712266646L
sg5
g6
sg7
S'StrictMode'
p447
sg9
S'25460'
p448
sg11
S'StrictMode policy violation; ~duration=17 ms: android.os.StrictMode$StrictModeDiskWriteViolation: policy=23 violation=1\n\tat android.os.StrictMode$AndroidBlockGuardPolicy.onWriteToDisk(StrictMode.java:1100)\n\tat libcore.io.BlockGuardOs.fsync(BlockGuardOs.java:96)\n\tat java.io.FileDescriptor.sync(FileDescriptor.java:74)\n\tat android.os.FileUtils.sync(FileUtils.java:77)\n\tat android.app.SharedPreferencesImpl.writeToFile(SharedPreferencesImpl.java:597)\n\tat android.app.SharedPreferencesImpl.access$800(SharedPreferencesImpl.java:52)\n\tat android.app.SharedPreferencesImpl$2.run(SharedPreferencesImpl.java:511)\n\tat android.app.SharedPreferencesImpl.enqueueDiskWrite(SharedPreferencesImpl.java:532)\n\tat android.app.SharedPreferencesImpl.access$100(SharedPreferencesImpl.java:52)\n\tat android.app.SharedPreferencesImpl$EditorImpl.commit(SharedPreferencesImpl.java:454)\n\tat com.example.myfristandroid.MainActivity$3.AnalysisMessage(MainActivity.java:809)\n\tat com.example.myfristandroid.MainActivity$3.run(MainActivity.java:478)\n\tat android.app.Activity.runOnUiThread(Activity.java:4774)\n\tat com.example.myfristandroid.MainActivity.AnalysisBroadCastReport(MainActivity.java:470)\n\tat com.example.myfristandroid.MainActivity.access$1(MainActivity.java:468)\n\tat com.example.myfristandroid.MainActivity$CmdReceiver.onReceive(MainActivity.java:371)\n\tat android.app.LoadedApk$ReceiverDispatcher$Args.run(LoadedApk.java:792)\n\tat android.os.Handler.handleCallback(Handler.java:730)\n\tat android.os.Handler.dispatchMessage(Handler.java:92)\n\tat android.os.Looper.loop(Looper.java:137)\n\tat android.app.ActivityThread.main(ActivityThread.java:5473)\n\tat java.lang.reflect.Method.invokeNative(Native Method)\n\tat java.lang.reflect.Method.invoke(Method.java:525)\n\tat com.android.internal.os.ZygoteInit$MethodAndArgsCaller.run(ZygoteInit.java:806)\n\tat com.android.internal.os.ZygoteInit.main(ZygoteInit.java:622)\n\tat dalvik.system.NativeStart.main(Native Method)\n'
p449
sa(dp450
g2
S'25479'
p451
sg4
L1449712266656L
sg5
g6
sg7
S'ForegroundActivity'
p452
sg9
S'25585'
p453
sg11
S'\xe6\x9c\xac\xe6\xac\xa1\xe6\x94\xb6\xe5\x88\xb0\xe5\xb8\xa7\xe9\x95\xbf:67\t\xe6\x80\xbb\xe5\xb8\xa7\xe9\x95\xbf:722\n'
p454
sa(dp455
g2
S'25479'
p456
sg4
L1449712267636L
sg5
g6
sg7
S'SocketService1'
p457
sg9
S'25495'
p458
sg11
S'\xe6\x9c\xac\xe6\xac\xa1\xe6\x8f\x90\xe5\x8f\x961:LoadPtr:722 HeadIndex:655 GetSize:67 67 0 \xe5\xa4\xb4\xe4\xbf\xa1\xe6\x81\xaf:EB 90 EB 90 EB 90 43 00 15 02 \n'
p459
sa(dp460
g2
S'25460'
p461
sg4
L1449712267636L
sg5
g6
sg7
S'MainActivity'
p462
sg9
S'25460'
p463
sg11
S'ServerVersion:22 LocalVersion:12\n'
p464
sa(dp465
g2
S'25460'
p466
sg4
L1449712298416L
sg5
g6
sg7
S'MainActivity'
p467
sg9
S'25460'
p468
sg11
S'V.getTag:null v.id:2131230740\n'
p469
sa(dp470
g2
S'25460'
p471
sg4
L1449712298486L
sg5
g6
sg7
S'dalvikvm'
p472
sg9
S'25464'
p473
sg11
S'GC_CONCURRENT freed 2039K, 20% free 14186K/17524K, paused 2ms+10ms, total 46ms\n'
p474
sa(dp475
g2
S'25460'
p476
sg4
L1449712298556L
sg5
g167
sg7
S'RenderScript'
p477
sg9
S'25460'
p478
sg11
S'0x626633f8 Launching thread(s), CPUs 4\n'
p479
sa(dp480
g2
S'25479'
p481
sg4
L1449712299536L
sg5
g6
sg7
S'ForegroundActivity'
p482
sg9
S'25493'
p483
sg11
S'\xe6\x9c\xac\xe6\xac\xa1\xe5\x8f\x91\xe9\x80\x81\xe5\xb8\xa7\xe9\x95\xbf:13\t\xe6\x80\xbb\xe5\xb8\xa7\xe9\x95\xbf:69\n'
p484
sa(dp485
g2
S'25479'
p486
sg4
L1449712299666L
sg5
g6
sg7
S'ForegroundActivity'
p487
sg9
S'25585'
p488
sg11
S'\xe6\x9c\xac\xe6\xac\xa1\xe6\x94\xb6\xe5\x88\xb0\xe5\xb8\xa7\xe9\x95\xbf:13\t\xe6\x80\xbb\xe5\xb8\xa7\xe9\x95\xbf:735\n'
p489
sa(dp490
g2
S'25479'
p491
sg4
L1449712299746L
sg5
g6
sg7
S'SocketService1'
p492
sg9
S'25495'
p493
sg11
S'\xe6\x9c\xac\xe6\xac\xa1\xe6\x8f\x90\xe5\x8f\x961:LoadPtr:735 HeadIndex:722 GetSize:13 13 0 \xe5\xa4\xb4\xe4\xbf\xa1\xe6\x81\xaf:EB 90 EB 90 EB 90 0D 00 10 01 \n'
p494
sa(dp495
g2
S'25460'
p496
sg4
L1449712306186L
sg5
g6
sg7
S'dalvikvm'
p497
sg9
S'25460'
p498
sg11
S'GC_FOR_ALLOC freed 455K, 16% free 14117K/16792K, paused 17ms, total 17ms\n'
p499
sa(dp500
g2
S'25460'
p501
sg4
L1449712306206L
sg5
g30
sg7
S'dalvikvm-heap'
p502
sg9
S'25460'
p503
sg11
S'Grow heap (frag case) to 17.931MB for 2073616-byte allocation\n'
p504
sa(dp505
g2
S'25460'
p506
sg4
L1449712306236L
sg5
g6
sg7
S'dalvikvm'
p507
sg9
S'25464'
p508
sg11
S'GC_CONCURRENT freed 15K, 15% free 16127K/18820K, paused 2ms+7ms, total 29ms\n'
p509
sa(dp510
g2
S'25460'
p511
sg4
L1449712306256L
sg5
g6
sg7
S'dalvikvm'
p512
sg9
S'25460'
p513
sg11
S'GC_FOR_ALLOC freed <1K, 15% free 16127K/18820K, paused 14ms, total 14ms\n'
p514
sa(dp515
g2
S'25460'
p516
sg4
L1449712306256L
sg5
g30
sg7
S'dalvikvm-heap'
p517
sg9
S'25460'
p518
sg11
S'Grow heap (frag case) to 19.895MB for 2073616-byte allocation\n'
p519
sa(dp520
g2
S'25460'
p521
sg4
L1449712306346L
sg5
g6
sg7
S'cn.edu.nju.ise.kikandroid'
p522
sg9
S'25505'
p523
sg11
S'Screenshot:1449712306117\n'
p524
sa(dp525
g2
S'25460'
p526
sg4
L1449712325506L
sg5
g6
sg7
S'MainActivity'
p527
sg9
S'25460'
p528
sg11
S'V.getTag:null v.id:2131230736\n'
p529
sa(dp530
g2
S'25460'
p531
sg4
L1449712327026L
sg5
g6
sg7
S'MainActivity'
p532
sg9
S'25460'
p533
sg11
S'V.getTag:null v.id:2131230734\n'
p534
sa(dp535
g2
S'25460'
p536
sg4
L1449712327076L
sg5
g6
sg7
S'dalvikvm'
p537
sg9
S'25464'
p538
sg11
S'GC_CONCURRENT freed 4272K, 12% free 14825K/16792K, paused 2ms+13ms, total 33ms\n'
p539
sa(dp540
g2
S'25460'
p541
sg4
L1449712329696L
sg5
g6
sg7
S'MainActivity'
p542
sg9
S'25460'
p543
sg11
S'V.getTag:null v.id:2131230738\n'
p544
sa(dp545
g2
S'25460'
p546
sg4
L1449712330566L
sg5
g6
sg7
S'MainActivity'
p547
sg9
S'25460'
p548
sg11
S'V.getTag:null v.id:2131230736\n'
p549
sa(dp550
g2
S'25460'
p551
sg4
L1449712331796L
sg5
g6
sg7
S'MainActivity'
p552
sg9
S'25460'
p553
sg11
S'V.getTag:null v.id:2131230738\n'
p554
sa(dp555
g2
S'25460'
p556
sg4
L1449712335716L
sg5
g6
sg7
S'cn.edu.nju.ise.kikandroid'
p557
sg9
S'25505'
p558
sg11
S'Log:1449712335722\n'
p559
sa(dp560
g2
S'25460'
p561
sg4
L1449712336556L
sg5
g6
sg7
S'dalvikvm'
p562
sg9
S'25464'
p563
sg11
S'GC_CONCURRENT freed 1421K, 14% free 16191K/18820K, paused 4ms+8ms, total 47ms\n'
p564
sa(dp565
g2
S'25460'
p566
sg4
L1449712336646L
sg5
g6
sg7
S'cn.edu.nju.ise.kikandroid'
p567
sg9
S'25505'
p568
sg11
S'Screenshot:1449712336483\n'
p569
sa(dp570
g2
S'25460'
p571
sg4
L1449712338366L
sg5
g6
sg7
S'dalvikvm'
p572
sg9
S'25460'
p573
sg11
S'GC_FOR_ALLOC freed 4195K, 16% free 14161K/16792K, paused 17ms, total 17ms\n'
p574
sa(dp575
g2
S'25460'
p576
sg4
L1449712338366L
sg5
g30
sg7
S'dalvikvm-heap'
p577
sg9
S'25460'
p578
sg11
S'Grow heap (frag case) to 17.974MB for 2073616-byte allocation\n'
p579
sa(dp580
g2
S'25460'
p581
sg4
L1449712338386L
sg5
g6
sg7
S'dalvikvm'
p582
sg9
S'25464'
p583
sg11
S'GC_CONCURRENT freed <1K, 14% free 16185K/18820K, paused 2ms+2ms, total 18ms\n'
p584
sa(dp585
g2
S'25460'
p586
sg4
L1449712338386L
sg5
g6
sg7
S'dalvikvm'
p587
sg9
S'25460'
p588
sg11
S'WAIT_FOR_CONCURRENT_GC blocked 7ms\n'
p589
sa(dp590
g2
S'25460'
p591
sg4
L1449712338386L
sg5
g30
sg7
S'dalvikvm-heap'
p592
sg9
S'25460'
p593
sg11
S'Grow heap (frag case) to 19.952MB for 2073616-byte allocation\n'
p594
sa(dp595
g2
S'25460'
p596
sg4
L1449712338466L
sg5
g6
sg7
S'cn.edu.nju.ise.kikandroid'
p597
sg9
S'25505'
p598
sg11
S'Screenshot:1449712338304\n'
p599
sa(dp600
g2
S'25460'
p601
sg4
L1449712339166L
sg5
g6
sg7
S'MainActivity'
p602
sg9
S'25460'
p603
sg11
S'V.getTag:null v.id:2131230790\n'
p604
sa(dp605
g2
S'25479'
p606
sg4
L1449712339536L
sg5
g6
sg7
S'ForegroundActivity'
p607
sg9
S'25493'
p608
sg11
S'\xe6\x9c\xac\xe6\xac\xa1\xe5\x8f\x91\xe9\x80\x81\xe5\xb8\xa7\xe9\x95\xbf:13\t\xe6\x80\xbb\xe5\xb8\xa7\xe9\x95\xbf:82\n'
p609
sa(dp610
g2
S'25479'
p611
sg4
L1449712339626L
sg5
g6
sg7
S'ForegroundActivity'
p612
sg9
S'25585'
p613
sg11
S'\xe6\x9c\xac\xe6\xac\xa1\xe6\x94\xb6\xe5\x88\xb0\xe5\xb8\xa7\xe9\x95\xbf:13\t\xe6\x80\xbb\xe5\xb8\xa7\xe9\x95\xbf:748\n'
p614
sa(dp615
g2
S'25479'
p616
sg4
L1449712339796L
sg5
g6
sg7
S'SocketService1'
p617
sg9
S'25495'
p618
sg11
S'\xe6\x9c\xac\xe6\xac\xa1\xe6\x8f\x90\xe5\x8f\x961:LoadPtr:748 HeadIndex:735 GetSize:13 13 0 \xe5\xa4\xb4\xe4\xbf\xa1\xe6\x81\xaf:EB 90 EB 90 EB 90 0D 00 10 01 \n'
p619
sa(dp620
g2
S'25460'
p621
sg4
L1449712340426L
sg5
g6
sg7
S'MainActivity'
p622
sg9
S'25460'
p623
sg11
S'V.getTag:null v.id:2131230790\n'
p624
sa(dp625
g2
S'25460'
p626
sg4
L1449712340706L
sg5
g6
sg7
S'MainActivity'
p627
sg9
S'25460'
p628
sg11
S'V.getTag:null v.id:2131230790\n'
p629
sa(dp630
g2
S'25460'
p631
sg4
L1449712341606L
sg5
g6
sg7
S'MainActivity'
p632
sg9
S'25460'
p633
sg11
S'V.getTag:null v.id:2131230790\n'
p634
sa(dp635
g2
S'25460'
p636
sg4
L1449712342266L
sg5
g6
sg7
S'MainActivity'
p637
sg9
S'25460'
p638
sg11
S'V.getTag:null v.id:2131230791\n'
p639
sa(dp640
g2
S'25460'
p641
sg4
L1449712342396L
sg5
g6
sg7
S'dalvikvm'
p642
sg9
S'25464'
p643
sg11
S'GC_CONCURRENT freed 4452K, 16% free 14175K/16792K, paused 3ms+6ms, total 26ms\n'
p644
sa(dp645
g2
S'25460'
p646
sg4
L1449712349826L
sg5
g6
sg7
S'cn.edu.nju.ise.kikandroid'
p647
sg9
S'25505'
p648
sg11
S'Log:1449712349838\n'
p649
sa(dp650
g2
S'25460'
p651
sg4
L1449712350796L
sg5
g6
sg7
S'dalvikvm'
p652
sg9
S'25460'
p653
sg11
S'GC_FOR_ALLOC freed 242K, 15% free 14330K/16792K, paused 23ms, total 24ms\n'
p654
sa(dp655
g2
S'25460'
p656
sg4
L1449712350806L
sg5
g30
sg7
S'dalvikvm-heap'
p657
sg9
S'25460'
p658
sg11
S'Grow heap (frag case) to 18.139MB for 2073616-byte allocation\n'
p659
sa(dp660
g2
S'25460'
p661
sg4
L1449712350836L
sg5
g6
sg7
S'dalvikvm'
p662
sg9
S'25464'
p663
sg11
S'GC_CONCURRENT freed 6K, 14% free 16350K/18820K, paused 2ms+2ms, total 27ms\n'
p664
sa(dp665
g2
S'25460'
p666
sg4
L1449712350836L
sg5
g6
sg7
S'dalvikvm'
p667
sg9
S'25460'
p668
sg11
S'WAIT_FOR_CONCURRENT_GC blocked 6ms\n'
p669
sa(dp670
g2
S'25460'
p671
sg4
L1449712350916L
sg5
g6
sg7
S'cn.edu.nju.ise.kikandroid'
p672
sg9
S'25505'
p673
sg11
S'Screenshot:1449712350742\n'
p674
sa(dp675
g2
S'25460'
p676
sg4
L1449712353576L
sg5
g6
sg7
S'dalvikvm'
p677
sg9
S'25460'
p678
sg11
S'GC_FOR_ALLOC freed 4161K, 15% free 14325K/16792K, paused 31ms, total 31ms\n'
p679
sa(dp680
g2
S'25460'
p681
sg4
L1449712353576L
sg5
g30
sg7
S'dalvikvm-heap'
p682
sg9
S'25460'
p683
sg11
S'Grow heap (frag case) to 18.134MB for 2073616-byte allocation\n'
p684
sa(dp685
g2
S'25460'
p686
sg4
L1449712353596L
sg5
g6
sg7
S'dalvikvm'
p687
sg9
S'25464'
p688
sg11
S'GC_CONCURRENT freed <1K, 14% free 16349K/18820K, paused 2ms+2ms, total 16ms\n'
p689
sa(dp690
g2
S'25460'
p691
sg4
L1449712353596L
sg5
g6
sg7
S'dalvikvm'
p692
sg9
S'25460'
p693
sg11
S'WAIT_FOR_CONCURRENT_GC blocked 3ms\n'
p694
sa(dp695
g2
S'25460'
p696
sg4
L1449712353686L
sg5
g6
sg7
S'cn.edu.nju.ise.kikandroid'
p697
sg9
S'25505'
p698
sg11
S'Screenshot:1449712353509\n'
p699
sa(dp700
g2
S'25460'
p701
sg4
L1449712354906L
sg5
g6
sg7
S'MainActivity'
p702
sg9
S'25460'
p703
sg11
S'logList.size2():0 com.example.myfristandroid.myListView{42d847c0 V.ED.VC. ......ID 8,8-522,8 #7f08003c app:id/id_lv_logView}\n'
p704
sa(dp705
g2
S'25460'
p706
sg4
L1449712354906L
sg5
g6
sg7
S'MainActivity'
p707
sg9
S'25460'
p708
sg11
S'MainActivity Send BroadCast Length:22\n'
p709
sa(dp710
g2
S'25479'
p711
sg4
L1449712354926L
sg5
g6
sg7
S'ForegroundActivity'
p712
sg9
S'25479'
p713
sg11
S'\xe6\x9c\xac\xe6\xac\xa1\xe5\x8f\x91\xe9\x80\x81\xe5\xb8\xa7\xe9\x95\xbf:22\t\xe6\x80\xbb\xe5\xb8\xa7\xe9\x95\xbf:104\n'
p714
sa(dp715
g2
S'25479'
p716
sg4
L1449712355026L
sg5
g6
sg7
S'ForegroundActivity'
p717
sg9
S'25585'
p718
sg11
S'\xe6\x9c\xac\xe6\xac\xa1\xe6\x94\xb6\xe5\x88\xb0\xe5\xb8\xa7\xe9\x95\xbf:17\t\xe6\x80\xbb\xe5\xb8\xa7\xe9\x95\xbf:765\n'
p719
sa(dp720
g2
S'25479'
p721
sg4
L1449712355856L
sg5
g6
sg7
S'SocketService1'
p722
sg9
S'25495'
p723
sg11
S'\xe6\x9c\xac\xe6\xac\xa1\xe6\x8f\x90\xe5\x8f\x961:LoadPtr:765 HeadIndex:748 GetSize:17 17 0 \xe5\xa4\xb4\xe4\xbf\xa1\xe6\x81\xaf:EB 90 EB 90 EB 90 11 00 0D 01 \n'
p724
sa(dp725
g2
S'25460'
p726
sg4
L1449712356626L
sg5
g6
sg7
S'MainActivity'
p727
sg9
S'25460'
p728
sg11
S'V.getTag:null v.id:2131230791\n'
p729
sa(dp730
g2
S'25460'
p731
sg4
L1449712356696L
sg5
g30
sg7
S'dalvikvm'
p732
sg9
S'25467'
p733
sg11
S'Jit: resizing JitTable from 4096 to 8192\n'
p734
sa(dp735
g2
S'25460'
p736
sg4
L1449712357016L
sg5
g6
sg7
S'dalvikvm'
p737
sg9
S'25464'
p738
sg11
S'GC_CONCURRENT freed 4450K, 15% free 14386K/16792K, paused 3ms+3ms, total 33ms\n'
p739
sa(dp740
g2
S'25460'
p741
sg4
L1449712357746L
sg5
g6
sg7
S'MainActivity'
p742
sg9
S'25460'
p743
sg11
S'logList.size2():0 com.example.myfristandroid.myListView{42d847c0 V.ED.VC. ......ID 8,8-522,8 #7f08003c app:id/id_lv_logView}\n'
p744
sa(dp745
g2
S'25460'
p746
sg4
L1449712357746L
sg5
g6
sg7
S'MainActivity'
p747
sg9
S'25460'
p748
sg11
S'MainActivity Send BroadCast Length:22\n'
p749
sa(dp750
g2
S'25479'
p751
sg4
L1449712357766L
sg5
g6
sg7
S'ForegroundActivity'
p752
sg9
S'25585'
p753
sg11
S'\xe6\x9c\xac\xe6\xac\xa1\xe6\x94\xb6\xe5\x88\xb0\xe5\xb8\xa7\xe9\x95\xbf:17\t\xe6\x80\xbb\xe5\xb8\xa7\xe9\x95\xbf:782\n'
p754
sa(dp755
g2
S'25479'
p756
sg4
L1449712357766L
sg5
g6
sg7
S'ForegroundActivity'
p757
sg9
S'25479'
p758
sg11
S'\xe6\x9c\xac\xe6\xac\xa1\xe5\x8f\x91\xe9\x80\x81\xe5\xb8\xa7\xe9\x95\xbf:22\t\xe6\x80\xbb\xe5\xb8\xa7\xe9\x95\xbf:126\n'
p759
sa(dp760
g2
S'25479'
p761
sg4
L1449712357876L
sg5
g6
sg7
S'SocketService1'
p762
sg9
S'25495'
p763
sg11
S'\xe6\x9c\xac\xe6\xac\xa1\xe6\x8f\x90\xe5\x8f\x961:LoadPtr:782 HeadIndex:765 GetSize:17 17 0 \xe5\xa4\xb4\xe4\xbf\xa1\xe6\x81\xaf:EB 90 EB 90 EB 90 11 00 0D 01 \n'
p764
sa(dp765
g2
S'25460'
p766
sg4
L1449712370066L
sg5
g6
sg7
S'MainActivity'
p767
sg9
S'25460'
p768
sg11
S'V.getTag:null v.id:2131230740\n'
p769
sa(dp770
g2
S'25460'
p771
sg4
L1449712371046L
sg5
g6
sg7
S'MainActivity'
p772
sg9
S'25460'
p773
sg11
S'V.getTag:null v.id:2131230740\n'
p774
sa(dp775
g2
S'25479'
p776
sg4
L1449712389546L
sg5
g6
sg7
S'ForegroundActivity'
p777
sg9
S'25493'
p778
sg11
S'\xe6\x9c\xac\xe6\xac\xa1\xe5\x8f\x91\xe9\x80\x81\xe5\xb8\xa7\xe9\x95\xbf:13\t\xe6\x80\xbb\xe5\xb8\xa7\xe9\x95\xbf:139\n'
p779
sa(dp780
g2
S'25479'
p781
sg4
L1449712389656L
sg5
g6
sg7
S'ForegroundActivity'
p782
sg9
S'25585'
p783
sg11
S'\xe6\x9c\xac\xe6\xac\xa1\xe6\x94\xb6\xe5\x88\xb0\xe5\xb8\xa7\xe9\x95\xbf:13\t\xe6\x80\xbb\xe5\xb8\xa7\xe9\x95\xbf:795\n'
p784
sa(dp785
g2
S'25479'
p786
sg4
L1449712389986L
sg5
g6
sg7
S'SocketService1'
p787
sg9
S'25495'
p788
sg11
S'\xe6\x9c\xac\xe6\xac\xa1\xe6\x8f\x90\xe5\x8f\x961:LoadPtr:795 HeadIndex:782 GetSize:13 13 0 \xe5\xa4\xb4\xe4\xbf\xa1\xe6\x81\xaf:EB 90 EB 90 EB 90 0D 00 10 01 \n'
p789
sa(dp790
g2
S'25479'
p791
sg4
L1449712429546L
sg5
g6
sg7
S'ForegroundActivity'
p792
sg9
S'25493'
p793
sg11
S'\xe6\x9c\xac\xe6\xac\xa1\xe5\x8f\x91\xe9\x80\x81\xe5\xb8\xa7\xe9\x95\xbf:13\t\xe6\x80\xbb\xe5\xb8\xa7\xe9\x95\xbf:152\n'
p794
sa(dp795
g2
S'25479'
p796
sg4
L1449712429666L
sg5
g6
sg7
S'ForegroundActivity'
p797
sg9
S'25585'
p798
sg11
S'\xe6\x9c\xac\xe6\xac\xa1\xe6\x94\xb6\xe5\x88\xb0\xe5\xb8\xa7\xe9\x95\xbf:13\t\xe6\x80\xbb\xe5\xb8\xa7\xe9\x95\xbf:808\n'
p799
sa(dp800
g2
S'25479'
p801
sg4
L1449712430046L
sg5
g6
sg7
S'SocketService1'
p802
sg9
S'25495'
p803
sg11
S'\xe6\x9c\xac\xe6\xac\xa1\xe6\x8f\x90\xe5\x8f\x961:LoadPtr:808 HeadIndex:795 GetSize:13 13 0 \xe5\xa4\xb4\xe4\xbf\xa1\xe6\x81\xaf:EB 90 EB 90 EB 90 0D 00 10 01 \n'
p804
sa(dp805
g2
S'25479'
p806
sg4
L1449712469556L
sg5
g6
sg7
S'ForegroundActivity'
p807
sg9
S'25493'
p808
sg11
S'\xe6\x9c\xac\xe6\xac\xa1\xe5\x8f\x91\xe9\x80\x81\xe5\xb8\xa7\xe9\x95\xbf:13\t\xe6\x80\xbb\xe5\xb8\xa7\xe9\x95\xbf:165\n'
p809
sa(dp810
g2
S'25479'
p811
sg4
L1449712469676L
sg5
g6
sg7
S'ForegroundActivity'
p812
sg9
S'25585'
p813
sg11
S'\xe6\x9c\xac\xe6\xac\xa1\xe6\x94\xb6\xe5\x88\xb0\xe5\xb8\xa7\xe9\x95\xbf:13\t\xe6\x80\xbb\xe5\xb8\xa7\xe9\x95\xbf:821\n'
p814
sa(dp815
g2
S'25479'
p816
sg4
L1449712470096L
sg5
g6
sg7
S'SocketService1'
p817
sg9
S'25495'
p818
sg11
S'\xe6\x9c\xac\xe6\xac\xa1\xe6\x8f\x90\xe5\x8f\x961:LoadPtr:821 HeadIndex:808 GetSize:13 13 0 \xe5\xa4\xb4\xe4\xbf\xa1\xe6\x81\xaf:EB 90 EB 90 EB 90 0D 00 10 01 \n'
p819
sa(dp820
g2
S'25479'
p821
sg4
L1449712497906L
sg5
g6
sg7
S'dalvikvm'
p822
sg9
S'25483'
p823
sg11
S'GC_CONCURRENT freed 3940K, 53% free 3810K/8040K, paused 4ms+2ms, total 50ms\n'
p824
sa(dp825
g2
S'25479'
p826
sg4
L1449712509556L
sg5
g6
sg7
S'ForegroundActivity'
p827
sg9
S'25493'
p828
sg11
S'\xe6\x9c\xac\xe6\xac\xa1\xe5\x8f\x91\xe9\x80\x81\xe5\xb8\xa7\xe9\x95\xbf:13\t\xe6\x80\xbb\xe5\xb8\xa7\xe9\x95\xbf:178\n'
p829
sa(dp830
g2
S'25479'
p831
sg4
L1449712509646L
sg5
g6
sg7
S'ForegroundActivity'
p832
sg9
S'25585'
p833
sg11
S'\xe6\x9c\xac\xe6\xac\xa1\xe6\x94\xb6\xe5\x88\xb0\xe5\xb8\xa7\xe9\x95\xbf:13\t\xe6\x80\xbb\xe5\xb8\xa7\xe9\x95\xbf:834\n'
p834
sa(dp835
g2
S'25479'
p836
sg4
L1449712510146L
sg5
g6
sg7
S'SocketService1'
p837
sg9
S'25495'
p838
sg11
S'\xe6\x9c\xac\xe6\xac\xa1\xe6\x8f\x90\xe5\x8f\x961:LoadPtr:834 HeadIndex:821 GetSize:13 13 0 \xe5\xa4\xb4\xe4\xbf\xa1\xe6\x81\xaf:EB 90 EB 90 EB 90 0D 00 10 01 \n'
p839
sa(dp840
g2
S'25479'
p841
sg4
L1449712615457L
sg5
g6
sg7
S'ForegroundActivity'
p842
sg9
S'25493'
p843
sg11
S'\xe6\x9c\xac\xe6\xac\xa1\xe5\x8f\x91\xe9\x80\x81\xe5\xb8\xa7\xe9\x95\xbf:13\t\xe6\x80\xbb\xe5\xb8\xa7\xe9\x95\xbf:191\n'
p844
sa(dp845
g2
S'25460'
p846
sg4
L1449712615717L
sg5
g6
sg7
S'MainActivity'
p847
sg9
S'25460'
p848
sg11
S'V.getTag:null v.id:2131230734\n'
p849
sa(dp850
g2
S'25479'
p851
sg4
L1449712625457L
sg5
g6
sg7
S'ForegroundActivity'
p852
sg9
S'25493'
p853
sg11
S'\xe6\x9c\xac\xe6\xac\xa1\xe5\x8f\x91\xe9\x80\x81\xe5\xb8\xa7\xe9\x95\xbf:13\t\xe6\x80\xbb\xe5\xb8\xa7\xe9\x95\xbf:204\n'
p854
sa(dp855
g2
S'25460'
p856
sg4
L1449712627577L
sg5
g6
sg7
S'MainActivity'
p857
sg9
S'25460'
p858
sg11
S'V.getTag:null v.id:2131230738\n'
p859
sa(dp860
g2
S'25479'
p861
sg4
L1449712635457L
sg5
g6
sg7
S'ForegroundActivity'
p862
sg9
S'25493'
p863
sg11
S'\xe6\x9c\xac\xe6\xac\xa1\xe5\x8f\x91\xe9\x80\x81\xe5\xb8\xa7\xe9\x95\xbf:13\t\xe6\x80\xbb\xe5\xb8\xa7\xe9\x95\xbf:217\n'
p864
sa(dp865
g2
S'25479'
p866
sg4
L1449712635457L
sg5
g6
sg7
S'SocketService'
p867
sg9
S'25493'
p868
sg11
S'start to run current thread!id:14674\n'
p869
sa(dp870
g2
S'25479'
p871
sg4
L1449712635467L
sg5
g6
sg7
S'SocketService'
p872
sg9
S'26132'
p873
sg11
S'ip/192.168.1.190 lport:53785 p:143\n'
p874
sa(dp875
g2
S'25479'
p876
sg4
L1449712635477L
sg5
g6
sg7
S'ForegroundActivity'
p877
sg9
S'26132'
p878
sg11
S'\xe6\x9c\xac\xe6\xac\xa1\xe5\x8f\x91\xe9\x80\x81\xe5\xb8\xa7\xe9\x95\xbf:34\t\xe6\x80\xbb\xe5\xb8\xa7\xe9\x95\xbf:251\n'
p879
sa(dp880
g2
S'25479'
p881
sg4
L1449712635477L
sg5
g6
sg7
S'SocketService'
p882
sg9
S'26132'
p883
sg11
S'success to connect server!id:14674 bLogin:false\n'
p884
sa(dp885
g2
S'25479'
p886
sg4
L1449712636477L
sg5
g6
sg7
S'ForegroundActivity'
p887
sg9
S'26132'
p888
sg11
S'\xe6\x9c\xac\xe6\xac\xa1\xe5\x8f\x91\xe9\x80\x81\xe5\xb8\xa7\xe9\x95\xbf:11\t\xe6\x80\xbb\xe5\xb8\xa7\xe9\x95\xbf:262\n'
p889
sa(dp890
g2
S'25479'
p891
sg4
L1449712637477L
sg5
g6
sg7
S'SocketService'
p892
sg9
S'26132'
p893
sg11
S'current thread is runing!id:14674\n'
p894
sa(dp895
g2
S'25460'
p896
sg4
L1449712639057L
sg5
g6
sg7
S'MainActivity'
p897
sg9
S'25460'
p898
sg11
S'V.getTag:null v.id:2131230740\n'
p899
sa(dp900
g2
S'25479'
p901
sg4
L1449712645467L
sg5
g6
sg7
S'SocketService'
p902
sg9
S'25493'
p903
sg11
S'start to run current thread!id:14676\n'
p904
sa(dp905
g2
S'25479'
p906
sg4
L1449712645467L
sg5
g6
sg7
S'SocketService'
p907
sg9
S'25493'
p908
sg11
S'current thread is runing!id:14676\n'
p909
sa(dp910
g2
S'25479'
p911
sg4
L1449712645477L
sg5
g6
sg7
S'SocketService'
p912
sg9
S'26151'
p913
sg11
S'ip/192.168.1.190 lport:42259 p:143\n'
p914
sa(dp915
g2
S'25479'
p916
sg4
L1449712645487L
sg5
g6
sg7
S'ForegroundActivity'
p917
sg9
S'26151'
p918
sg11
S'\xe6\x9c\xac\xe6\xac\xa1\xe5\x8f\x91\xe9\x80\x81\xe5\xb8\xa7\xe9\x95\xbf:34\t\xe6\x80\xbb\xe5\xb8\xa7\xe9\x95\xbf:296\n'
p919
sa(dp920
g2
S'25479'
p921
sg4
L1449712645487L
sg5
g6
sg7
S'SocketService'
p922
sg9
S'26151'
p923
sg11
S'success to connect server!id:14676 bLogin:false\n'
p924
sa(dp925
g2
S'25479'
p926
sg4
L1449712646487L
sg5
g6
sg7
S'ForegroundActivity'
p927
sg9
S'26151'
p928
sg11
S'\xe6\x9c\xac\xe6\xac\xa1\xe5\x8f\x91\xe9\x80\x81\xe5\xb8\xa7\xe9\x95\xbf:11\t\xe6\x80\xbb\xe5\xb8\xa7\xe9\x95\xbf:307\n'
p929
sa(dp930
g2
S'25479'
p931
sg4
L1449712647487L
sg5
g6
sg7
S'SocketService'
p932
sg9
S'26151'
p933
sg11
S'current thread is runing!id:14676\n'
p934
sa(dp935
g2
S'25460'
p936
sg4
L1449712647597L
sg5
g6
sg7
S'MainActivity'
p937
sg9
S'25460'
p938
sg11
S'V.getTag:null v.id:2131230799\n'
p939
sa(dp940
g2
S'25460'
p941
sg4
L1449712647617L
sg5
g6
sg7
S'MainActivity'
p942
sg9
S'25460'
p943
sg11
S'MainActivity Send BroadCast Length:32\n'
p944
sa(dp945
g2
S'25460'
p946
sg4
L1449712647617L
sg5
g6
sg7
S'StrictMode'
p947
sg9
S'25460'
p948
sg11
S'StrictMode policy violation; ~duration=17 ms: android.os.StrictMode$StrictModeDiskReadViolation: policy=23 violation=2\n\tat android.os.StrictMode$AndroidBlockGuardPolicy.onReadFromDisk(StrictMode.java:1126)\n\tat libcore.io.BlockGuardOs.open(BlockGuardOs.java:106)\n\tat libcore.io.IoBridge.open(IoBridge.java:393)\n\tat java.io.FileOutputStream.<init>(FileOutputStream.java:88)\n\tat java.io.FileOutputStream.<init>(FileOutputStream.java:73)\n\tat android.app.SharedPreferencesImpl.createFileOutputStream(SharedPreferencesImpl.java:543)\n\tat android.app.SharedPreferencesImpl.writeToFile(SharedPreferencesImpl.java:591)\n\tat android.app.SharedPreferencesImpl.access$800(SharedPreferencesImpl.java:52)\n\tat android.app.SharedPreferencesImpl$2.run(SharedPreferencesImpl.java:511)\n\tat android.app.SharedPreferencesImpl.enqueueDiskWrite(SharedPreferencesImpl.java:532)\n\tat android.app.SharedPreferencesImpl.access$100(SharedPreferencesImpl.java:52)\n\tat android.app.SharedPreferencesImpl$EditorImpl.commit(SharedPreferencesImpl.java:454)\n\tat com.example.myfristandroid.MainActivity.SaveCfg(MainActivity.java:2050)\n\tat com.example.myfristandroid.MainActivity.onClick(MainActivity.java:1681)\n\tat android.view.View.performClick(View.java:4242)\n\tat android.view.View$PerformClick.run(View.java:17754)\n\tat android.os.Handler.handleCallback(Handler.java:730)\n\tat android.os.Handler.dispatchMessage(Handler.java:92)\n\tat android.os.Looper.loop(Looper.java:137)\n\tat android.app.ActivityThread.main(ActivityThread.java:5473)\n\tat java.lang.reflect.Method.invokeNative(Native Method)\n\tat java.lang.reflect.Method.invoke(Method.java:525)\n\tat com.android.internal.os.ZygoteInit$MethodAndArgsCaller.run(ZygoteInit.java:806)\n\tat com.android.internal.os.ZygoteInit.main(ZygoteInit.java:622)\n\tat dalvik.system.NativeStart.main(Native Method)\n'
p949
sa(dp950
g2
S'25460'
p951
sg4
L1449712647617L
sg5
g6
sg7
S'StrictMode'
p952
sg9
S'25460'
p953
sg11
S'StrictMode policy violation; ~duration=12 ms: android.os.StrictMode$StrictModeDiskWriteViolation: policy=23 violation=1\n\tat android.os.StrictMode$AndroidBlockGuardPolicy.onWriteToDisk(StrictMode.java:1100)\n\tat libcore.io.BlockGuardOs.write(BlockGuardOs.java:196)\n\tat libcore.io.IoBridge.write(IoBridge.java:450)\n\tat java.io.FileOutputStream.write(FileOutputStream.java:187)\n\tat com.android.internal.util.FastXmlSerializer.flushBytes(FastXmlSerializer.java:232)\n\tat com.android.internal.util.FastXmlSerializer.flush(FastXmlSerializer.java:253)\n\tat com.android.internal.util.FastXmlSerializer.endDocument(FastXmlSerializer.java:198)\n\tat com.android.internal.util.XmlUtils.writeMapXml(XmlUtils.java:182)\n\tat android.app.SharedPreferencesImpl.writeToFile(SharedPreferencesImpl.java:596)\n\tat android.app.SharedPreferencesImpl.access$800(SharedPreferencesImpl.java:52)\n\tat android.app.SharedPreferencesImpl$2.run(SharedPreferencesImpl.java:511)\n\tat android.app.SharedPreferencesImpl.enqueueDiskWrite(SharedPreferencesImpl.java:532)\n\tat android.app.SharedPreferencesImpl.access$100(SharedPreferencesImpl.java:52)\n\tat android.app.SharedPreferencesImpl$EditorImpl.commit(SharedPreferencesImpl.java:454)\n\tat com.example.myfristandroid.MainActivity.SaveCfg(MainActivity.java:2050)\n\tat com.example.myfristandroid.MainActivity.onClick(MainActivity.java:1681)\n\tat android.view.View.performClick(View.java:4242)\n\tat android.view.View$PerformClick.run(View.java:17754)\n\tat android.os.Handler.handleCallback(Handler.java:730)\n\tat android.os.Handler.dispatchMessage(Handler.java:92)\n\tat android.os.Looper.loop(Looper.java:137)\n\tat android.app.ActivityThread.main(ActivityThread.java:5473)\n\tat java.lang.reflect.Method.invokeNative(Native Method)\n\tat java.lang.reflect.Method.invoke(Method.java:525)\n\tat com.android.internal.os.ZygoteInit$MethodAndArgsCaller.run(ZygoteInit.java:806)\n\tat com.android.internal.os.ZygoteInit.main(ZygoteInit.java:622)\n\tat dalvik.system.NativeStart.main(Native Method)\n'
p954
sa(dp955
g2
S'25460'
p956
sg4
L1449712647617L
sg5
g6
sg7
S'StrictMode'
p957
sg9
S'25460'
p958
sg11
S'StrictMode policy violation; ~duration=9 ms: android.os.StrictMode$StrictModeDiskWriteViolation: policy=23 violation=1\n\tat android.os.StrictMode$AndroidBlockGuardPolicy.onWriteToDisk(StrictMode.java:1100)\n\tat libcore.io.BlockGuardOs.fsync(BlockGuardOs.java:96)\n\tat java.io.FileDescriptor.sync(FileDescriptor.java:74)\n\tat android.os.FileUtils.sync(FileUtils.java:77)\n\tat android.app.SharedPreferencesImpl.writeToFile(SharedPreferencesImpl.java:597)\n\tat android.app.SharedPreferencesImpl.access$800(SharedPreferencesImpl.java:52)\n\tat android.app.SharedPreferencesImpl$2.run(SharedPreferencesImpl.java:511)\n\tat android.app.SharedPreferencesImpl.enqueueDiskWrite(SharedPreferencesImpl.java:532)\n\tat android.app.SharedPreferencesImpl.access$100(SharedPreferencesImpl.java:52)\n\tat android.app.SharedPreferencesImpl$EditorImpl.commit(SharedPreferencesImpl.java:454)\n\tat com.example.myfristandroid.MainActivity.SaveCfg(MainActivity.java:2050)\n\tat com.example.myfristandroid.MainActivity.onClick(MainActivity.java:1681)\n\tat android.view.View.performClick(View.java:4242)\n\tat android.view.View$PerformClick.run(View.java:17754)\n\tat android.os.Handler.handleCallback(Handler.java:730)\n\tat android.os.Handler.dispatchMessage(Handler.java:92)\n\tat android.os.Looper.loop(Looper.java:137)\n\tat android.app.ActivityThread.main(ActivityThread.java:5473)\n\tat java.lang.reflect.Method.invokeNative(Native Method)\n\tat java.lang.reflect.Method.invoke(Method.java:525)\n\tat com.android.internal.os.ZygoteInit$MethodAndArgsCaller.run(ZygoteInit.java:806)\n\tat com.android.internal.os.ZygoteInit.main(ZygoteInit.java:622)\n\tat dalvik.system.NativeStart.main(Native Method)\n'
p959
sa(dp960
g2
S'25479'
p961
sg4
L1449712647627L
sg5
g6
sg7
S'SocketService'
p962
sg9
S'25479'
p963
sg11
S'start to run current thread!id:14678\n'
p964
sa(dp965
g2
S'25479'
p966
sg4
L1449712647637L
sg5
g6
sg7
S'SocketService'
p967
sg9
S'26163'
p968
sg11
S'ip/192.168.1.190 lport:58270 p:143\n'
p969
sa(dp970
g2
S'25479'
p971
sg4
L1449712647637L
sg5
g6
sg7
S'ForegroundActivity'
p972
sg9
S'26163'
p973
sg11
S'\xe6\x9c\xac\xe6\xac\xa1\xe5\x8f\x91\xe9\x80\x81\xe5\xb8\xa7\xe9\x95\xbf:34\t\xe6\x80\xbb\xe5\xb8\xa7\xe9\x95\xbf:341\n'
p974
sa(dp975
g2
S'25479'
p976
sg4
L1449712647637L
sg5
g6
sg7
S'SocketService'
p977
sg9
S'26163'
p978
sg11
S'success to connect server!id:14678 bLogin:false\n'
p979
sa(dp980
g2
S'25479'
p981
sg4
L1449712648637L
sg5
g6
sg7
S'ForegroundActivity'
p982
sg9
S'26163'
p983
sg11
S'\xe6\x9c\xac\xe6\xac\xa1\xe5\x8f\x91\xe9\x80\x81\xe5\xb8\xa7\xe9\x95\xbf:11\t\xe6\x80\xbb\xe5\xb8\xa7\xe9\x95\xbf:352\n'
p984
sa(dp985
g2
S'25479'
p986
sg4
L1449712649637L
sg5
g6
sg7
S'SocketService'
p987
sg9
S'26163'
p988
sg11
S'current thread is runing!id:14678\n'
p989
sa(dp990
g2
S'25479'
p991
sg4
L1449712653977L
sg5
g6
sg7
S'dalvikvm'
p992
sg9
S'25483'
p993
sg11
S'GC_CONCURRENT freed 1424K, 53% free 3817K/8040K, paused 2ms+3ms, total 17ms\n'
p994
sa(dp995
g2
S'25479'
p996
sg4
L1449712655467L
sg5
g6
sg7
S'SocketService'
p997
sg9
S'25493'
p998
sg11
S'start to run current thread!id:14680\n'
p999
sa(dp1000
g2
S'25479'
p1001
sg4
L1449712655467L
sg5
g6
sg7
S'SocketService'
p1002
sg9
S'25493'
p1003
sg11
S'current thread is runing!id:14680\n'
p1004
sa(dp1005
g2
S'25460'
p1006
sg4
L1449712660407L
sg5
g6
sg7
S'MainActivity'
p1007
sg9
S'25460'
p1008
sg11
S'V.getTag:null v.id:2131230799\n'
p1009
sa(dp1010
g2
S'25460'
p1011
sg4
L1449712660407L
sg5
g6
sg7
S'MainActivity'
p1012
sg9
S'25460'
p1013
sg11
S'MainActivity Send BroadCast Length:32\n'
p1014
sa(dp1015
g2
S'25479'
p1016
sg4
L1449712660407L
sg5
g6
sg7
S'SocketService'
p1017
sg9
S'25479'
p1018
sg11
S'current thread is runing!id:14680\n'
p1019
sa(dp1020
g2
S'25460'
p1021
sg4
L1449712661107L
sg5
g6
sg7
S'MainActivity'
p1022
sg9
S'25460'
p1023
sg11
S'V.getTag:null v.id:2131230799\n'
p1024
sa(dp1025
g2
S'25460'
p1026
sg4
L1449712661107L
sg5
g6
sg7
S'MainActivity'
p1027
sg9
S'25460'
p1028
sg11
S'MainActivity Send BroadCast Length:32\n'
p1029
sa(dp1030
g2
S'25479'
p1031
sg4
L1449712661107L
sg5
g6
sg7
S'SocketService'
p1032
sg9
S'25479'
p1033
sg11
S'current thread is runing!id:14680\n'
p1034
sa(dp1035
g2
S'25460'
p1036
sg4
L1449712665227L
sg5
g6
sg7
S'MainActivity'
p1037
sg9
S'25460'
p1038
sg11
S'V.getTag:null v.id:2131230799\n'
p1039
sa(dp1040
g2
S'25460'
p1041
sg4
L1449712665227L
sg5
g6
sg7
S'MainActivity'
p1042
sg9
S'25460'
p1043
sg11
S'MainActivity Send BroadCast Length:32\n'
p1044
sa(dp1045
g2
S'25479'
p1046
sg4
L1449712665227L
sg5
g6
sg7
S'SocketService'
p1047
sg9
S'25479'
p1048
sg11
S'current thread is runing!id:14680\n'
p1049
sa(dp1050
g2
S'25479'
p1051
sg4
L1449712665457L
sg5
g6
sg7
S'SocketService'
p1052
sg9
S'25493'
p1053
sg11
S'current thread is runing!id:14680\n'
p1054
sa(dp1055
g2
S'25460'
p1056
sg4
L1449712665987L
sg5
g6
sg7
S'MainActivity'
p1057
sg9
S'25460'
p1058
sg11
S'V.getTag:null v.id:2131230799\n'
p1059
sa(dp1060
g2
S'25460'
p1061
sg4
L1449712665987L
sg5
g6
sg7
S'MainActivity'
p1062
sg9
S'25460'
p1063
sg11
S'MainActivity Send BroadCast Length:32\n'
p1064
sa(dp1065
g2
S'25479'
p1066
sg4
L1449712665987L
sg5
g6
sg7
S'SocketService'
p1067
sg9
S'25479'
p1068
sg11
S'current thread is runing!id:14680\n'
p1069
sa(dp1070
g2
S'25460'
p1071
sg4
L1449712666117L
sg5
g6
sg7
S'dalvikvm'
p1072
sg9
S'25464'
p1073
sg11
S'GC_CONCURRENT freed 1938K, 15% free 14288K/16792K, paused 2ms+2ms, total 23ms\n'
p1074
sa(dp1075
g2
S'25460'
p1076
sg4
L1449712669917L
sg5
g6
sg7
S'MainActivity'
p1077
sg9
S'25460'
p1078
sg11
S'V.getTag:null v.id:2131230799\n'
p1079
sa(dp1080
g2
S'25460'
p1081
sg4
L1449712669917L
sg5
g6
sg7
S'MainActivity'
p1082
sg9
S'25460'
p1083
sg11
S'MainActivity Send BroadCast Length:32\n'
p1084
sa(dp1085
g2
S'25479'
p1086
sg4
L1449712669917L
sg5
g6
sg7
S'SocketService'
p1087
sg9
S'25479'
p1088
sg11
S'current thread is runing!id:14680\n'
p1089
sa(dp1090
g2
S'25460'
p1091
sg4
L1449712670247L
sg5
g6
sg7
S'MainActivity'
p1092
sg9
S'25460'
p1093
sg11
S'V.getTag:null v.id:2131230799\n'
p1094
sa(dp1095
g2
S'25460'
p1096
sg4
L1449712670247L
sg5
g6
sg7
S'MainActivity'
p1097
sg9
S'25460'
p1098
sg11
S'MainActivity Send BroadCast Length:32\n'
p1099
sa(dp1100
g2
S'25479'
p1101
sg4
L1449712670257L
sg5
g6
sg7
S'SocketService'
p1102
sg9
S'25479'
p1103
sg11
S'current thread is runing!id:14680\n'
p1104
sa(dp1105
g2
S'25460'
p1106
sg4
L1449712670507L
sg5
g6
sg7
S'MainActivity'
p1107
sg9
S'25460'
p1108
sg11
S'V.getTag:null v.id:2131230799\n'
p1109
sa(dp1110
g2
S'25460'
p1111
sg4
L1449712670507L
sg5
g6
sg7
S'MainActivity'
p1112
sg9
S'25460'
p1113
sg11
S'MainActivity Send BroadCast Length:32\n'
p1114
sa(dp1115
g2
S'25479'
p1116
sg4
L1449712670507L
sg5
g6
sg7
S'SocketService'
p1117
sg9
S'25479'
p1118
sg11
S'current thread is runing!id:14680\n'
p1119
sa(dp1120
g2
S'25460'
p1121
sg4
L1449712670777L
sg5
g6
sg7
S'MainActivity'
p1122
sg9
S'25460'
p1123
sg11
S'V.getTag:null v.id:2131230799\n'
p1124
sa(dp1125
g2
S'25460'
p1126
sg4
L1449712670777L
sg5
g6
sg7
S'MainActivity'
p1127
sg9
S'25460'
p1128
sg11
S'MainActivity Send BroadCast Length:32\n'
p1129
sa(dp1130
g2
S'25479'
p1131
sg4
L1449712670777L
sg5
g6
sg7
S'SocketService'
p1132
sg9
S'25479'
p1133
sg11
S'current thread is runing!id:14680\n'
p1134
sa(dp1135
g2
S'25460'
p1136
sg4
L1449712670967L
sg5
g6
sg7
S'MainActivity'
p1137
sg9
S'25460'
p1138
sg11
S'V.getTag:null v.id:2131230799\n'
p1139
sa(dp1140
g2
S'25460'
p1141
sg4
L1449712670977L
sg5
g6
sg7
S'MainActivity'
p1142
sg9
S'25460'
p1143
sg11
S'MainActivity Send BroadCast Length:32\n'
p1144
sa(dp1145
g2
S'25479'
p1146
sg4
L1449712670977L
sg5
g6
sg7
S'SocketService'
p1147
sg9
S'25479'
p1148
sg11
S'current thread is runing!id:14680\n'
p1149
sa(dp1150
g2
S'25460'
p1151
sg4
L1449712671167L
sg5
g6
sg7
S'MainActivity'
p1152
sg9
S'25460'
p1153
sg11
S'V.getTag:null v.id:2131230799\n'
p1154
sa(dp1155
g2
S'25460'
p1156
sg4
L1449712671167L
sg5
g6
sg7
S'MainActivity'
p1157
sg9
S'25460'
p1158
sg11
S'MainActivity Send BroadCast Length:32\n'
p1159
sa(dp1160
g2
S'25479'
p1161
sg4
L1449712671167L
sg5
g6
sg7
S'SocketService'
p1162
sg9
S'25479'
p1163
sg11
S'current thread is runing!id:14680\n'
p1164
sa(dp1165
g2
S'25460'
p1166
sg4
L1449712671877L
sg5
g6
sg7
S'MainActivity'
p1167
sg9
S'25460'
p1168
sg11
S'V.getTag:null v.id:2131230799\n'
p1169
sa(dp1170
g2
S'25460'
p1171
sg4
L1449712671877L
sg5
g6
sg7
S'MainActivity'
p1172
sg9
S'25460'
p1173
sg11
S'MainActivity Send BroadCast Length:32\n'
p1174
sa(dp1175
g2
S'25479'
p1176
sg4
L1449712671877L
sg5
g6
sg7
S'SocketService'
p1177
sg9
S'25479'
p1178
sg11
S'current thread is runing!id:14680\n'
p1179
sa(dp1180
g2
S'25460'
p1181
sg4
L1449712672067L
sg5
g6
sg7
S'MainActivity'
p1182
sg9
S'25460'
p1183
sg11
S'V.getTag:null v.id:2131230799\n'
p1184
sa(dp1185
g2
S'25460'
p1186
sg4
L1449712672067L
sg5
g6
sg7
S'MainActivity'
p1187
sg9
S'25460'
p1188
sg11
S'MainActivity Send BroadCast Length:32\n'
p1189
sa(dp1190
g2
S'25479'
p1191
sg4
L1449712672067L
sg5
g6
sg7
S'SocketService'
p1192
sg9
S'25479'
p1193
sg11
S'current thread is runing!id:14680\n'
p1194
sa(dp1195
g2
S'25460'
p1196
sg4
L1449712672247L
sg5
g6
sg7
S'MainActivity'
p1197
sg9
S'25460'
p1198
sg11
S'V.getTag:null v.id:2131230799\n'
p1199
sa(dp1200
g2
S'25460'
p1201
sg4
L1449712672247L
sg5
g6
sg7
S'MainActivity'
p1202
sg9
S'25460'
p1203
sg11
S'MainActivity Send BroadCast Length:32\n'
p1204
sa(dp1205
g2
S'25479'
p1206
sg4
L1449712672247L
sg5
g6
sg7
S'SocketService'
p1207
sg9
S'25479'
p1208
sg11
S'current thread is runing!id:14680\n'
p1209
sa(dp1210
g2
S'25460'
p1211
sg4
L1449712672597L
sg5
g6
sg7
S'MainActivity'
p1212
sg9
S'25460'
p1213
sg11
S'V.getTag:null v.id:2131230799\n'
p1214
sa(dp1215
g2
S'25460'
p1216
sg4
L1449712672597L
sg5
g6
sg7
S'MainActivity'
p1217
sg9
S'25460'
p1218
sg11
S'MainActivity Send BroadCast Length:32\n'
p1219
sa(dp1220
g2
S'25479'
p1221
sg4
L1449712672597L
sg5
g6
sg7
S'SocketService'
p1222
sg9
S'25479'
p1223
sg11
S'current thread is runing!id:14680\n'
p1224
sa(dp1225
g2
S'25460'
p1226
sg4
L1449712672777L
sg5
g6
sg7
S'MainActivity'
p1227
sg9
S'25460'
p1228
sg11
S'V.getTag:null v.id:2131230799\n'
p1229
sa(dp1230
g2
S'25460'
p1231
sg4
L1449712672777L
sg5
g6
sg7
S'MainActivity'
p1232
sg9
S'25460'
p1233
sg11
S'MainActivity Send BroadCast Length:32\n'
p1234
sa(dp1235
g2
S'25479'
p1236
sg4
L1449712672777L
sg5
g6
sg7
S'SocketService'
p1237
sg9
S'25479'
p1238
sg11
S'current thread is runing!id:14680\n'
p1239
sa(dp1240
g2
S'25460'
p1241
sg4
L1449712672967L
sg5
g6
sg7
S'MainActivity'
p1242
sg9
S'25460'
p1243
sg11
S'V.getTag:null v.id:2131230799\n'
p1244
sa(dp1245
g2
S'25460'
p1246
sg4
L1449712672967L
sg5
g6
sg7
S'MainActivity'
p1247
sg9
S'25460'
p1248
sg11
S'MainActivity Send BroadCast Length:32\n'
p1249
sa(dp1250
g2
S'25479'
p1251
sg4
L1449712672967L
sg5
g6
sg7
S'SocketService'
p1252
sg9
S'25479'
p1253
sg11
S'current thread is runing!id:14680\n'
p1254
sa(dp1255
g2
S'25460'
p1256
sg4
L1449712673147L
sg5
g6
sg7
S'MainActivity'
p1257
sg9
S'25460'
p1258
sg11
S'V.getTag:null v.id:2131230799\n'
p1259
sa(dp1260
g2
S'25460'
p1261
sg4
L1449712673147L
sg5
g6
sg7
S'MainActivity'
p1262
sg9
S'25460'
p1263
sg11
S'MainActivity Send BroadCast Length:32\n'
p1264
sa(dp1265
g2
S'25479'
p1266
sg4
L1449712673147L
sg5
g6
sg7
S'SocketService'
p1267
sg9
S'25479'
p1268
sg11
S'current thread is runing!id:14680\n'
p1269
sa(dp1270
g2
S'25460'
p1271
sg4
L1449712673327L
sg5
g6
sg7
S'MainActivity'
p1272
sg9
S'25460'
p1273
sg11
S'V.getTag:null v.id:2131230799\n'
p1274
sa(dp1275
g2
S'25460'
p1276
sg4
L1449712673327L
sg5
g6
sg7
S'MainActivity'
p1277
sg9
S'25460'
p1278
sg11
S'MainActivity Send BroadCast Length:32\n'
p1279
sa(dp1280
g2
S'25479'
p1281
sg4
L1449712673337L
sg5
g6
sg7
S'SocketService'
p1282
sg9
S'25479'
p1283
sg11
S'current thread is runing!id:14680\n'
p1284
sa(dp1285
g2
S'25460'
p1286
sg4
L1449712674797L
sg5
g6
sg7
S'MainActivity'
p1287
sg9
S'25460'
p1288
sg11
S'V.getTag:null v.id:2131230799\n'
p1289
sa(dp1290
g2
S'25460'
p1291
sg4
L1449712674797L
sg5
g6
sg7
S'MainActivity'
p1292
sg9
S'25460'
p1293
sg11
S'MainActivity Send BroadCast Length:32\n'
p1294
sa(dp1295
g2
S'25479'
p1296
sg4
L1449712674807L
sg5
g6
sg7
S'SocketService'
p1297
sg9
S'25479'
p1298
sg11
S'current thread is runing!id:14680\n'
p1299
sa(dp1300
g2
S'25479'
p1301
sg4
L1449712675457L
sg5
g6
sg7
S'SocketService'
p1302
sg9
S'25493'
p1303
sg11
S'current thread is runing!id:14680\n'
p1304
sa(dp1305
g2
S'25479'
p1306
sg4
L1449712685457L
sg5
g6
sg7
S'SocketService'
p1307
sg9
S'25493'
p1308
sg11
S'current thread is runing!id:14680\n'
p1309
sa(dp1310
g2
S'25460'
p1311
sg4
L1449712691307L
sg5
g6
sg7
S'MainActivity'
p1312
sg9
S'25460'
p1313
sg11
S'V.getTag:null v.id:2131230799\n'
p1314
sa(dp1315
g2
S'25460'
p1316
sg4
L1449712691307L
sg5
g6
sg7
S'MainActivity'
p1317
sg9
S'25460'
p1318
sg11
S'MainActivity Send BroadCast Length:32\n'
p1319
sa(dp1320
g2
S'25479'
p1321
sg4
L1449712691307L
sg5
g6
sg7
S'SocketService'
p1322
sg9
S'25479'
p1323
sg11
S'current thread is runing!id:14680\n'
p1324
sa(dp1325
g2
S'25460'
p1326
sg4
L1449712691847L
sg5
g6
sg7
S'MainActivity'
p1327
sg9
S'25460'
p1328
sg11
S'V.getTag:null v.id:2131230799\n'
p1329
sa(dp1330
g2
S'25460'
p1331
sg4
L1449712691847L
sg5
g6
sg7
S'MainActivity'
p1332
sg9
S'25460'
p1333
sg11
S'MainActivity Send BroadCast Length:32\n'
p1334
sa(dp1335
g2
S'25479'
p1336
sg4
L1449712691847L
sg5
g6
sg7
S'SocketService'
p1337
sg9
S'25479'
p1338
sg11
S'current thread is runing!id:14680\n'
p1339
sa(dp1340
g2
S'25460'
p1341
sg4
L1449712695217L
sg5
g6
sg7
S'MainActivity'
p1342
sg9
S'25460'
p1343
sg11
S'V.getTag:null v.id:2131230799\n'
p1344
sa(dp1345
g2
S'25460'
p1346
sg4
L1449712695217L
sg5
g6
sg7
S'MainActivity'
p1347
sg9
S'25460'
p1348
sg11
S'MainActivity Send BroadCast Length:32\n'
p1349
sa(dp1350
g2
S'25479'
p1351
sg4
L1449712695217L
sg5
g6
sg7
S'SocketService'
p1352
sg9
S'25479'
p1353
sg11
S'current thread is runing!id:14680\n'
p1354
sa(dp1355
g2
S'25479'
p1356
sg4
L1449712695457L
sg5
g6
sg7
S'SocketService'
p1357
sg9
S'25493'
p1358
sg11
S'current thread is runing!id:14680\n'
p1359
sa(dp1360
g2
S'25479'
p1361
sg4
L1449712705457L
sg5
g6
sg7
S'SocketService'
p1362
sg9
S'25493'
p1363
sg11
S'current thread is runing!id:14680\n'
p1364
sa(dp1365
g2
S'25460'
p1366
sg4
L1449712708537L
sg5
g6
sg7
S'MainActivity'
p1367
sg9
S'25460'
p1368
sg11
S'V.getTag:null v.id:2131230799\n'
p1369
sa(dp1370
g2
S'25460'
p1371
sg4
L1449712708537L
sg5
g6
sg7
S'MainActivity'
p1372
sg9
S'25460'
p1373
sg11
S'MainActivity Send BroadCast Length:32\n'
p1374
sa(dp1375
g2
S'25479'
p1376
sg4
L1449712708547L
sg5
g6
sg7
S'SocketService'
p1377
sg9
S'25479'
p1378
sg11
S'current thread is runing!id:14680\n'
p1379
sa(dp1380
g2
S'25479'
p1381
sg4
L1449712715457L
sg5
g6
sg7
S'SocketService'
p1382
sg9
S'25493'
p1383
sg11
S'current thread is runing!id:14680\n'
p1384
sa(dp1385
g2
S'25479'
p1386
sg4
L1449712718617L
sg5
g6
sg7
S'SocketService'
p1387
sg9
S'26170'
p1388
sg11
S'failured to connect Server:java.net.ConnectException: failed to connect to /218.94.19.234 (port 143): connect failed: ETIMEDOUT (Connection timed out)\n'
p1389
sa(dp1390
g2
S'25460'
p1391
sg4
L1449712724697L
sg5
g6
sg7
S'cn.edu.nju.ise.kikandroid'
p1392
sg9
S'25505'
p1393
sg11
S'Log:1449712724706\n'
p1394
sa(dp1395
g2
S'25479'
p1396
sg4
L1449712725477L
sg5
g6
sg7
S'SocketService'
p1397
sg9
S'25493'
p1398
sg11
S'start to run current thread!id:14681\n'
p1399
sa(dp1400
g2
S'25479'
p1401
sg4
L1449712725477L
sg5
g6
sg7
S'SocketService'
p1402
sg9
S'25493'
p1403
sg11
S'current thread is runing!id:14681\n'
p1404
sa(dp1405
g2
S'25479'
p1406
sg4
L1449712725487L
sg5
g6
sg7
S'SocketService'
p1407
sg9
S'26204'
p1408
sg11
S'ip/192.168.1.190 lport:50665 p:143\n'
p1409
sa(dp1410
g2
S'25479'
p1411
sg4
L1449712725487L
sg5
g6
sg7
S'ForegroundActivity'
p1412
sg9
S'26204'
p1413
sg11
S'\xe6\x9c\xac\xe6\xac\xa1\xe5\x8f\x91\xe9\x80\x81\xe5\xb8\xa7\xe9\x95\xbf:34\t\xe6\x80\xbb\xe5\xb8\xa7\xe9\x95\xbf:386\n'
p1414
sa(dp1415
g2
S'25479'
p1416
sg4
L1449712725487L
sg5
g6
sg7
S'SocketService'
p1417
sg9
S'26204'
p1418
sg11
S'success to connect server!id:14681 bLogin:false\n'
p1419
sa(dp1420
g2
S'25479'
p1421
sg4
L1449712726487L
sg5
g6
sg7
S'ForegroundActivity'
p1422
sg9
S'26204'
p1423
sg11
S'\xe6\x9c\xac\xe6\xac\xa1\xe5\x8f\x91\xe9\x80\x81\xe5\xb8\xa7\xe9\x95\xbf:11\t\xe6\x80\xbb\xe5\xb8\xa7\xe9\x95\xbf:397\n'
p1424
sa(dp1425
g2
S'25479'
p1426
sg4
L1449712727487L
sg5
g6
sg7
S'SocketService'
p1427
sg9
S'26204'
p1428
sg11
S'current thread is runing!id:14681\n'
p1429
sa(dp1430
g2
S'25460'
p1431
sg4
L1449712732987L
sg5
g6
sg7
S'cn.edu.nju.ise.kikandroid'
p1432
sg9
S'25505'
p1433
sg11
S'Log:1449712732996\n'
p1434
sa(dp1435
g2
S'25460'
p1436
sg4
L1449712733047L
sg5
g6
sg7
S'dalvikvm'
p1437
sg9
S'25460'
p1438
sg11
S'GC_FOR_ALLOC freed 854K, 15% free 14323K/16792K, paused 17ms, total 17ms\n'
p1439
sa(dp1440
g2
S'25460'
p1441
sg4
L1449712733057L
sg5
g30
sg7
S'dalvikvm-heap'
p1442
sg9
S'25460'
p1443
sg11
S'Grow heap (frag case) to 18.132MB for 2073616-byte allocation\n'
p1444
sa(dp1445
g2
S'25460'
p1446
sg4
L1449712733087L
sg5
g6
sg7
S'dalvikvm'
p1447
sg9
S'25464'
p1448
sg11
S'GC_CONCURRENT freed 3K, 14% free 16345K/18820K, paused 2ms+2ms, total 29ms\n'
p1449
sa(dp1450
g2
S'25460'
p1451
sg4
L1449712733187L
sg5
g6
sg7
S'cn.edu.nju.ise.kikandroid'
p1452
sg9
S'25505'
p1453
sg11
S'Screenshot:1449712733021\n'
p1454
sa(dp1455
g2
S'25460'
p1456
sg4
L1449712733187L
sg5
g233
sg7
S'dalvikvm'
p1457
sg9
S'25505'
p1458
sg11
S'threadid=14: thread exiting with uncaught exception (group=0x41d698e0)\n'
p1459
sa(dp1460
g2
S'25460'
p1461
sg4
L1449712733187L
sg5
g161
sg7
S'AndroidRuntime'
p1462
sg9
S'25505'
p1463
sg11
S'FATAL EXCEPTION: Thread-14667\njava.lang.NullPointerException\n\tat android.app.Instrumentation.finish(Instrumentation.java:190)\n\tat cn.edu.nju.ise.kikandroid.AUTInstrument.quitInstr(AUTInstrument.java:195)\n\tat cn.edu.nju.ise.kikandroid.AUTInstrument.startServer(AUTInstrument.java:161)\n\tat cn.edu.nju.ise.kikandroid.AUTInstrument$1.run(AUTInstrument.java:107)\n\tat java.lang.Thread.run(Thread.java:841)\n'
p1464
sa.