(lp0
(dp1
S'EventTime'
p2
S'20473212'
p3
sS'SyscTime'
p4
L1449714823084L
sS'recordCount'
p5
S'0'
p6
sS'EventType'
p7
S'TYPE_WINDOW_STATE_CHANGED'
p8
sS'PackageName'
p9
S'com.example.myfristandroid'
p10
sS'OutBounds'
p11
S'Rect(0, 0 - 480, 800)'
p12
sS'Action'
p13
S'[ ClassName: com.example.myfristandroid.SplashActivity; Text: [SE-1800\xe7\xa7\xbb\xe5\x8a\xa8APP]; ContentDescription: null; ItemCount: -1; CurrentItemIndex: -1; IsEnabled: true; IsPassword: false; IsChecked: false; IsFullScreen: true; Scrollable: false; BeforeText: null; FromIndex: -1; ToIndex: -1; ScrollX: -1; ScrollY: -1; MaxScrollX: -1; MaxScrollY: -1; AddedCount: -1; RemovedCount: -1; ParcelableData: null ]'
p14
sS'MovementGranularity'
p15
g6
sa(dp16
S'EventTime'
p17
S'20473215'
p18
sg4
L1449714823088L
sS'recordCount'
p19
g6
sS'EventType'
p20
S'TYPE_WINDOW_CONTENT_CHANGED'
p21
sS'PackageName'
p22
S'com.example.myfristandroid'
p23
sS'OutBounds'
p24
S'Rect(0, 0 - 480, 800)'
p25
sS'Action'
p26
S'[ ClassName: android.widget.FrameLayout; Text: []; ContentDescription: null; ItemCount: -1; CurrentItemIndex: -1; IsEnabled: true; IsPassword: false; IsChecked: false; IsFullScreen: false; Scrollable: false; BeforeText: null; FromIndex: -1; ToIndex: -1; ScrollX: -1; ScrollY: -1; MaxScrollX: -1; MaxScrollY: -1; AddedCount: -1; RemovedCount: -1; ParcelableData: null ]'
p27
sS'MovementGranularity'
p28
g6
sa(dp29
S'EventTime'
p30
S'20475699'
p31
sg4
L1449714825617L
sS'recordCount'
p32
g6
sS'EventType'
p33
S'TYPE_WINDOW_STATE_CHANGED'
p34
sS'PackageName'
p35
S'com.example.myfristandroid'
p36
sS'OutBounds'
p37
S'Rect(0, 0 - 480, 800)'
p38
sS'Action'
p39
S'[ ClassName: com.example.myfristandroid.MainActivity; Text: [SE-1800\xe7\xa7\xbb\xe5\x8a\xa8APP]; ContentDescription: null; ItemCount: -1; CurrentItemIndex: -1; IsEnabled: true; IsPassword: false; IsChecked: false; IsFullScreen: true; Scrollable: false; BeforeText: null; FromIndex: -1; ToIndex: -1; ScrollX: -1; ScrollY: -1; MaxScrollX: -1; MaxScrollY: -1; AddedCount: -1; RemovedCount: -1; ParcelableData: null ]'
p40
sS'MovementGranularity'
p41
g6
sa(dp42
S'EventTime'
p43
S'20475758'
p44
sg4
L1449714825662L
sS'recordCount'
p45
g6
sS'EventType'
p46
S'TYPE_VIEW_SCROLLED'
p47
sS'PackageName'
p48
S'com.example.myfristandroid'
p49
sS'OutBounds'
p50
S'Rect(490, 315 - 950, 315)'
p51
sS'Action'
p52
S'[ ClassName: android.widget.ListView; Text: []; ContentDescription: null; ItemCount: 0; CurrentItemIndex: -1; IsEnabled: true; IsPassword: false; IsChecked: false; IsFullScreen: false; Scrollable: false; BeforeText: null; FromIndex: 0; ToIndex: -1; ScrollX: -1; ScrollY: -1; MaxScrollX: -1; MaxScrollY: -1; AddedCount: -1; RemovedCount: -1; ParcelableData: null ]'
p53
sS'MovementGranularity'
p54
g6
sa(dp55
S'EventTime'
p56
S'20475897'
p57
sg4
L1449714825763L
sS'recordCount'
p58
S'1'
p59
sS'EventType'
p60
S'TYPE_WINDOW_CONTENT_CHANGED'
p61
sS'PackageName'
p62
S'com.example.myfristandroid'
p63
sS'OutBounds'
p64
S'Rect(319, 548 - 475, 577)'
p65
sS'Action'
p66
S'[ ClassName: android.widget.TextView; Text: []; ContentDescription: null; ItemCount: -1; CurrentItemIndex: -1; IsEnabled: true; IsPassword: false; IsChecked: false; IsFullScreen: false; Scrollable: false; BeforeText: null; FromIndex: -1; ToIndex: -1; ScrollX: -1; ScrollY: -1; MaxScrollX: -1; MaxScrollY: -1; AddedCount: -1; RemovedCount: -1; ParcelableData: null ]'
p67
sS'MovementGranularity'
p68
g6
sa(dp69
S'EventTime'
p70
S'20477791'
p71
sg4
L1449714827654L
sS'recordCount'
p72
g6
sS'EventType'
p73
S'TYPE_VIEW_CLICKED'
p74
sS'PackageName'
p75
S'com.example.myfristandroid'
p76
sS'OutBounds'
p77
S'Rect(240, 717 - 360, 800)'
p78
sS'Action'
p79
S'[ ClassName: android.widget.LinearLayout; Text: [\xe6\x9f\xa5\xe7\x9c\x8b\xe5\xae\x9e\xe6\x97\xb6\xe5\x91\x8a\xe8\xad\xa6\xe4\xbf\xa1\xe6\x81\xaf, \xe5\x91\x8a\xe8\xad\xa6]; ContentDescription: null; ItemCount: -1; CurrentItemIndex: -1; IsEnabled: true; IsPassword: false; IsChecked: false; IsFullScreen: false; Scrollable: false; BeforeText: null; FromIndex: -1; ToIndex: -1; ScrollX: -1; ScrollY: -1; MaxScrollX: -1; MaxScrollY: -1; AddedCount: -1; RemovedCount: -1; ParcelableData: null ]'
p80
sS'MovementGranularity'
p81
g6
sa(dp82
S'EventTime'
p83
S'20477818'
p84
sg4
L1449714827782L
sS'recordCount'
p85
g6
sS'EventType'
p86
S'TYPE_WINDOW_CONTENT_CHANGED'
p87
sS'PackageName'
p88
S'com.example.myfristandroid'
p89
sS'OutBounds'
p90
S'Rect(-952, 106 - -952, 106)'
p91
sS'Action'
p92
S'[ ClassName: android.widget.LinearLayout; Text: []; ContentDescription: null; ItemCount: -1; CurrentItemIndex: -1; IsEnabled: true; IsPassword: false; IsChecked: false; IsFullScreen: false; Scrollable: false; BeforeText: null; FromIndex: -1; ToIndex: -1; ScrollX: -1; ScrollY: -1; MaxScrollX: -1; MaxScrollY: -1; AddedCount: -1; RemovedCount: -1; ParcelableData: null ]'
p93
sS'MovementGranularity'
p94
g6
sa(dp95
S'EventTime'
p96
S'20477820'
p97
sg4
L1449714827817L
sS'recordCount'
p98
g6
sS'EventType'
p99
S'TYPE_VIEW_FOCUSED'
p100
sS'PackageName'
p101
S'com.example.myfristandroid'
p102
sS'OutBounds'
p103
S'Rect(6, 189 - 476, 234)'
p104
sS'Action'
p105
S'[ ClassName: android.widget.EditText; Text: [\xe6\x90\x9c\xe7\xb4\xa2]; ContentDescription: null; ItemCount: 8; CurrentItemIndex: 2; IsEnabled: true; IsPassword: false; IsChecked: false; IsFullScreen: false; Scrollable: false; BeforeText: null; FromIndex: -1; ToIndex: -1; ScrollX: -1; ScrollY: -1; MaxScrollX: -1; MaxScrollY: -1; AddedCount: -1; RemovedCount: -1; ParcelableData: null ]'
p106
sS'MovementGranularity'
p107
g6
sa(dp108
S'EventTime'
p109
S'20478017'
p110
sg4
L1449714827924L
sS'recordCount'
p111
g6
sS'EventType'
p112
S'TYPE_WINDOW_CONTENT_CHANGED'
p113
sS'PackageName'
p114
S'com.example.myfristandroid'
p115
sS'OutBounds'
p116
S'Rect(0, 106 - 480, 717)'
p117
sS'Action'
p118
S'[ ClassName: android.support.v4.view.ViewPager; Text: []; ContentDescription: null; ItemCount: -1; CurrentItemIndex: -1; IsEnabled: true; IsPassword: false; IsChecked: false; IsFullScreen: false; Scrollable: false; BeforeText: null; FromIndex: -1; ToIndex: -1; ScrollX: -1; ScrollY: -1; MaxScrollX: -1; MaxScrollY: -1; AddedCount: -1; RemovedCount: -1; ParcelableData: null ]'
p119
sS'MovementGranularity'
p120
g6
sa(dp121
S'EventTime'
p122
S'20478019'
p123
sg4
L1449714827991L
sS'recordCount'
p124
g6
sS'EventType'
p125
S'TYPE_VIEW_SCROLLED'
p126
sS'PackageName'
p127
S'com.example.myfristandroid'
p128
sS'OutBounds'
p129
S'Rect(0, 106 - 480, 717)'
p130
sS'Action'
p131
S'[ ClassName: android.support.v4.view.ViewPager; Text: []; ContentDescription: null; ItemCount: -1; CurrentItemIndex: -1; IsEnabled: true; IsPassword: false; IsChecked: false; IsFullScreen: false; Scrollable: false; BeforeText: null; FromIndex: -1; ToIndex: -1; ScrollX: -1; ScrollY: -1; MaxScrollX: -1; MaxScrollY: -1; AddedCount: -1; RemovedCount: -1; ParcelableData: null ]'
p132
sS'MovementGranularity'
p133
g6
sa(dp134
S'EventTime'
p135
S'20478164'
p136
sg4
L1449714828053L
sS'recordCount'
p137
g6
sS'EventType'
p138
S'TYPE_VIEW_SCROLLED'
p139
sS'PackageName'
p140
S'com.example.myfristandroid'
p141
sS'OutBounds'
p142
S'Rect(0, 106 - 480, 717)'
p143
sS'Action'
p144
S'[ ClassName: android.support.v4.view.ViewPager; Text: []; ContentDescription: null; ItemCount: -1; CurrentItemIndex: -1; IsEnabled: true; IsPassword: false; IsChecked: false; IsFullScreen: false; Scrollable: false; BeforeText: null; FromIndex: -1; ToIndex: -1; ScrollX: -1; ScrollY: -1; MaxScrollX: -1; MaxScrollY: -1; AddedCount: -1; RemovedCount: -1; ParcelableData: null ]'
p145
sS'MovementGranularity'
p146
g6
sa(dp147
S'EventTime'
p148
S'20479345'
p149
sg4
L1449714829237L
sS'recordCount'
p150
g6
sS'EventType'
p151
S'TYPE_WINDOW_STATE_CHANGED'
p152
sS'PackageName'
p153
S'com.example.myfristandroid'
p154
sS'OutBounds'
p155
S'Rect(0, 0 - 480, 800)'
p156
sS'Action'
p157
S'[ ClassName: com.example.myfristandroid.HuzAlertDialog; Text: [\xe6\x8f\x90\xe7\xa4\xba, \xe7\x89\x88\xe6\x9c\xac\xe6\x9c\x89\xe6\x9b\xb4\xe6\x96\xb0\xef\xbc\x8c\xe6\x98\xaf\xe5\x90\xa6\xe9\x9c\x80\xe8\xa6\x81\xe6\x9b\xb4\xe6\x96\xb0, \xe7\xab\x8b\xe5\x8d\xb3\xe6\x9b\xb4\xe6\x96\xb0, \xe7\xa8\x8d\xe5\x90\x8e\xe6\x9b\xb4\xe6\x96\xb0]; ContentDescription: null; ItemCount: -1; CurrentItemIndex: -1; IsEnabled: true; IsPassword: false; IsChecked: false; IsFullScreen: true; Scrollable: false; BeforeText: null; FromIndex: -1; ToIndex: -1; ScrollX: -1; ScrollY: -1; MaxScrollX: -1; MaxScrollY: -1; AddedCount: -1; RemovedCount: -1; ParcelableData: null ]'
p158
sS'MovementGranularity'
p159
g6
sa(dp160
S'EventTime'
p161
S'20479513'
p162
sg4
L1449714829381L
sS'recordCount'
p163
g6
sS'EventType'
p164
S'TYPE_WINDOW_CONTENT_CHANGED'
p165
sS'PackageName'
p166
S'com.example.myfristandroid'
p167
sS'OutBounds'
p168
S'Rect(45, 377 - 444, 430)'
p169
sS'Action'
p170
S'[ ClassName: android.widget.TextView; Text: []; ContentDescription: null; ItemCount: -1; CurrentItemIndex: -1; IsEnabled: true; IsPassword: false; IsChecked: false; IsFullScreen: false; Scrollable: false; BeforeText: null; FromIndex: -1; ToIndex: -1; ScrollX: -1; ScrollY: -1; MaxScrollX: -1; MaxScrollY: -1; AddedCount: -1; RemovedCount: -1; ParcelableData: null ]'
p171
sS'MovementGranularity'
p172
g6
sa(dp173
S'EventTime'
p174
S'20481073'
p175
sg4
L1449714830936L
sS'recordCount'
p176
g6
sS'EventType'
p177
S'TYPE_VIEW_CLICKED'
p178
sS'PackageName'
p179
S'com.example.myfristandroid'
p180
sS'OutBounds'
p181
S'Rect(249, 454 - 448, 526)'
p182
sS'Action'
p183
S'[ ClassName: android.widget.Button; Text: [\xe7\xa8\x8d\xe5\x90\x8e\xe6\x9b\xb4\xe6\x96\xb0]; ContentDescription: null; ItemCount: -1; CurrentItemIndex: -1; IsEnabled: true; IsPassword: false; IsChecked: false; IsFullScreen: false; Scrollable: false; BeforeText: null; FromIndex: -1; ToIndex: -1; ScrollX: -1; ScrollY: -1; MaxScrollX: -1; MaxScrollY: -1; AddedCount: -1; RemovedCount: -1; ParcelableData: null ]'
p184
sS'MovementGranularity'
p185
g6
sa(dp186
S'EventTime'
p187
S'20481111'
p188
sg4
L1449714830999L
sS'recordCount'
p189
g6
sS'EventType'
p190
S'TYPE_WINDOW_STATE_CHANGED'
p191
sS'PackageName'
p192
S'com.example.myfristandroid'
p193
sS'OutBounds'
p194
S'Rect(0, 0 - 480, 800)'
p195
sS'Action'
p196
S'[ ClassName: com.example.myfristandroid.MainActivity; Text: [SE-1800\xe7\xa7\xbb\xe5\x8a\xa8APP]; ContentDescription: null; ItemCount: -1; CurrentItemIndex: -1; IsEnabled: true; IsPassword: false; IsChecked: false; IsFullScreen: true; Scrollable: false; BeforeText: null; FromIndex: -1; ToIndex: -1; ScrollX: -1; ScrollY: -1; MaxScrollX: -1; MaxScrollY: -1; AddedCount: -1; RemovedCount: -1; ParcelableData: null ]'
p197
sS'MovementGranularity'
p198
g6
sa(dp199
S'EventTime'
p200
S'20482924'
p201
sg4
L1449714832789L
sS'recordCount'
p202
g6
sS'EventType'
p203
S'TYPE_VIEW_CLICKED'
p204
sS'PackageName'
p205
S'com.example.myfristandroid'
p206
sS'OutBounds'
p207
S'Rect(52, 129 - 232, 173)'
p208
sS'Action'
p209
S'[ ClassName: android.widget.Button; Text: [\xe5\xae\x9e\xe6\x97\xb6]; ContentDescription: null; ItemCount: -1; CurrentItemIndex: -1; IsEnabled: true; IsPassword: false; IsChecked: false; IsFullScreen: false; Scrollable: false; BeforeText: null; FromIndex: -1; ToIndex: -1; ScrollX: -1; ScrollY: -1; MaxScrollX: -1; MaxScrollY: -1; AddedCount: -1; RemovedCount: -1; ParcelableData: null ]'
p210
sS'MovementGranularity'
p211
g6
sa(dp212
S'EventTime'
p213
S'20483627'
p214
sg4
L1449714833490L
sS'recordCount'
p215
g6
sS'EventType'
p216
S'TYPE_VIEW_CLICKED'
p217
sS'PackageName'
p218
S'com.example.myfristandroid'
p219
sS'OutBounds'
p220
S'Rect(52, 129 - 232, 173)'
p221
sS'Action'
p222
S'[ ClassName: android.widget.Button; Text: [\xe5\xae\x9e\xe6\x97\xb6]; ContentDescription: null; ItemCount: -1; CurrentItemIndex: -1; IsEnabled: true; IsPassword: false; IsChecked: false; IsFullScreen: false; Scrollable: false; BeforeText: null; FromIndex: -1; ToIndex: -1; ScrollX: -1; ScrollY: -1; MaxScrollX: -1; MaxScrollY: -1; AddedCount: -1; RemovedCount: -1; ParcelableData: null ]'
p223
sS'MovementGranularity'
p224
g6
sa(dp225
S'EventTime'
p226
S'20484156'
p227
sg4
L1449714834035L
sS'recordCount'
p228
g6
sS'EventType'
p229
S'TYPE_VIEW_CLICKED'
p230
sS'PackageName'
p231
S'com.example.myfristandroid'
p232
sS'OutBounds'
p233
S'Rect(52, 129 - 232, 173)'
p234
sS'Action'
p235
S'[ ClassName: android.widget.Button; Text: [\xe5\xae\x9e\xe6\x97\xb6]; ContentDescription: null; ItemCount: -1; CurrentItemIndex: -1; IsEnabled: true; IsPassword: false; IsChecked: false; IsFullScreen: false; Scrollable: false; BeforeText: null; FromIndex: -1; ToIndex: -1; ScrollX: -1; ScrollY: -1; MaxScrollX: -1; MaxScrollY: -1; AddedCount: -1; RemovedCount: -1; ParcelableData: null ]'
p236
sS'MovementGranularity'
p237
g6
sa(dp238
S'EventTime'
p239
S'20484671'
p240
sg4
L1449714834533L
sS'recordCount'
p241
g6
sS'EventType'
p242
S'TYPE_VIEW_CLICKED'
p243
sS'PackageName'
p244
S'com.example.myfristandroid'
p245
sS'OutBounds'
p246
S'Rect(248, 129 - 428, 173)'
p247
sS'Action'
p248
S'[ ClassName: android.widget.Button; Text: [\xe5\x8e\x86\xe5\x8f\xb2]; ContentDescription: null; ItemCount: -1; CurrentItemIndex: -1; IsEnabled: true; IsPassword: false; IsChecked: false; IsFullScreen: false; Scrollable: false; BeforeText: null; FromIndex: -1; ToIndex: -1; ScrollX: -1; ScrollY: -1; MaxScrollX: -1; MaxScrollY: -1; AddedCount: -1; RemovedCount: -1; ParcelableData: null ]'
p249
sS'MovementGranularity'
p250
g6
sa(dp251
S'EventTime'
p252
S'20484906'
p253
sg4
L1449714834799L
sS'recordCount'
p254
g6
sS'EventType'
p255
S'TYPE_WINDOW_STATE_CHANGED'
p256
sS'PackageName'
p257
S'com.example.myfristandroid'
p258
sS'OutBounds'
p259
S'Rect(0, 0 - 480, 800)'
p260
sS'Action'
p261
S'[ ClassName: com.example.myfristandroid.HuzAlertDialog; Text: [2015-12-10, 2015\xe5\xb9\xb412\xe6\x9c\x8810\xe6\x97\xa5]; ContentDescription: null; ItemCount: -1; CurrentItemIndex: -1; IsEnabled: true; IsPassword: false; IsChecked: false; IsFullScreen: true; Scrollable: false; BeforeText: null; FromIndex: -1; ToIndex: -1; ScrollX: -1; ScrollY: -1; MaxScrollX: -1; MaxScrollY: -1; AddedCount: -1; RemovedCount: -1; ParcelableData: null ]'
p262
sS'MovementGranularity'
p263
g6
sa(dp264
S'EventTime'
p265
S'20484907'
p266
sg4
L1449714834840L
sS'recordCount'
p267
g6
sS'EventType'
p268
S'TYPE_VIEW_TEXT_SELECTION_CHANGED'
p269
sS'PackageName'
p270
S'com.example.myfristandroid'
p271
sS'OutBounds'
p272
S'Rect(199, 392 - 295, 429)'
p273
sS'Action'
p274
S'[ ClassName: android.widget.EditText; Text: [12]; ContentDescription: null; ItemCount: 2; CurrentItemIndex: -1; IsEnabled: true; IsPassword: false; IsChecked: false; IsFullScreen: false; Scrollable: false; BeforeText: null; FromIndex: 2; ToIndex: 2; ScrollX: -1; ScrollY: -1; MaxScrollX: -1; MaxScrollY: -1; AddedCount: -1; RemovedCount: -1; ParcelableData: null ]'
p275
sS'MovementGranularity'
p276
g6
sa(dp277
S'EventTime'
p278
S'20484946'
p279
sg4
L1449714834850L
sS'recordCount'
p280
g6
sS'EventType'
p281
S'TYPE_WINDOW_CONTENT_CHANGED'
p282
sS'PackageName'
p283
S'com.example.myfristandroid'
p284
sS'OutBounds'
p285
S'Rect(249, 584 - 448, 656)'
p286
sS'Action'
p287
S'[ ClassName: android.widget.Button; Text: []; ContentDescription: null; ItemCount: -1; CurrentItemIndex: -1; IsEnabled: true; IsPassword: false; IsChecked: false; IsFullScreen: false; Scrollable: false; BeforeText: null; FromIndex: -1; ToIndex: -1; ScrollX: -1; ScrollY: -1; MaxScrollX: -1; MaxScrollY: -1; AddedCount: -1; RemovedCount: -1; ParcelableData: null ]'
p288
sS'MovementGranularity'
p289
g6
sa(dp290
S'EventTime'
p291
S'20485074'
p292
sg4
L1449714834941L
sS'recordCount'
p293
g6
sS'EventType'
p294
S'TYPE_WINDOW_CONTENT_CHANGED'
p295
sS'PackageName'
p296
S'com.example.myfristandroid'
p297
sS'OutBounds'
p298
S'Rect(249, 584 - 448, 656)'
p299
sS'Action'
p300
S'[ ClassName: android.widget.Button; Text: []; ContentDescription: null; ItemCount: -1; CurrentItemIndex: -1; IsEnabled: true; IsPassword: false; IsChecked: false; IsFullScreen: false; Scrollable: false; BeforeText: null; FromIndex: -1; ToIndex: -1; ScrollX: -1; ScrollY: -1; MaxScrollX: -1; MaxScrollY: -1; AddedCount: -1; RemovedCount: -1; ParcelableData: null ]'
p301
sS'MovementGranularity'
p302
g6
sa(dp303
S'EventTime'
p304
S'20490595'
p305
sg4
L1449714840516L
sS'recordCount'
p306
g6
sS'EventType'
p307
S'TYPE_WINDOW_STATE_CHANGED'
p308
sS'PackageName'
p309
S'com.example.myfristandroid'
p310
sS'OutBounds'
p311
S'Rect(0, 0 - 480, 800)'
p312
sS'Action'
p313
S'[ ClassName: com.example.myfristandroid.MainActivity; Text: [SE-1800\xe7\xa7\xbb\xe5\x8a\xa8APP]; ContentDescription: null; ItemCount: -1; CurrentItemIndex: -1; IsEnabled: true; IsPassword: false; IsChecked: false; IsFullScreen: true; Scrollable: false; BeforeText: null; FromIndex: -1; ToIndex: -1; ScrollX: -1; ScrollY: -1; MaxScrollX: -1; MaxScrollY: -1; AddedCount: -1; RemovedCount: -1; ParcelableData: null ]'
p314
sS'MovementGranularity'
p315
g6
sa(dp316
S'EventTime'
p317
S'20491799'
p318
sg4
L1449714841664L
sS'recordCount'
p319
g6
sS'EventType'
p320
S'TYPE_VIEW_CLICKED'
p321
sS'PackageName'
p322
S'com.example.myfristandroid'
p323
sS'OutBounds'
p324
S'Rect(52, 129 - 232, 173)'
p325
sS'Action'
p326
S'[ ClassName: android.widget.Button; Text: [\xe5\xae\x9e\xe6\x97\xb6]; ContentDescription: null; ItemCount: -1; CurrentItemIndex: -1; IsEnabled: true; IsPassword: false; IsChecked: false; IsFullScreen: false; Scrollable: false; BeforeText: null; FromIndex: -1; ToIndex: -1; ScrollX: -1; ScrollY: -1; MaxScrollX: -1; MaxScrollY: -1; AddedCount: -1; RemovedCount: -1; ParcelableData: null ]'
p327
sS'MovementGranularity'
p328
g6
sa(dp329
S'EventTime'
p330
S'20493423'
p331
sg4
L1449714843288L
sS'recordCount'
p332
g6
sS'EventType'
p333
S'TYPE_VIEW_CLICKED'
p334
sS'PackageName'
p335
S'com.example.myfristandroid'
p336
sS'OutBounds'
p337
S'Rect(52, 129 - 232, 173)'
p338
sS'Action'
p339
S'[ ClassName: android.widget.Button; Text: [\xe5\xae\x9e\xe6\x97\xb6]; ContentDescription: null; ItemCount: -1; CurrentItemIndex: -1; IsEnabled: true; IsPassword: false; IsChecked: false; IsFullScreen: false; Scrollable: false; BeforeText: null; FromIndex: -1; ToIndex: -1; ScrollX: -1; ScrollY: -1; MaxScrollX: -1; MaxScrollY: -1; AddedCount: -1; RemovedCount: -1; ParcelableData: null ]'
p340
sS'MovementGranularity'
p341
g6
sa(dp342
S'EventTime'
p343
S'20494174'
p344
sg4
L1449714844036L
sS'recordCount'
p345
g6
sS'EventType'
p346
S'TYPE_VIEW_CLICKED'
p347
sS'PackageName'
p348
S'com.example.myfristandroid'
p349
sS'OutBounds'
p350
S'Rect(5, 189 - 475, 234)'
p351
sS'Action'
p352
S'[ ClassName: android.widget.EditText; Text: [\xe6\x90\x9c\xe7\xb4\xa2]; ContentDescription: null; ItemCount: -1; CurrentItemIndex: -1; IsEnabled: true; IsPassword: false; IsChecked: false; IsFullScreen: false; Scrollable: false; BeforeText: null; FromIndex: -1; ToIndex: -1; ScrollX: -1; ScrollY: -1; MaxScrollX: -1; MaxScrollY: -1; AddedCount: -1; RemovedCount: -1; ParcelableData: null ]'
p353
sS'MovementGranularity'
p354
g6
sa(dp355
S'EventTime'
p356
S'20496155'
p357
sg4
L1449714846021L
sS'recordCount'
p358
g6
sS'EventType'
p359
S'TYPE_VIEW_TEXT_CHANGED'
p360
sS'PackageName'
p361
S'com.example.myfristandroid'
p362
sS'OutBounds'
p363
S'Rect(5, 189 - 475, 234)'
p364
sS'Action'
p365
S'[ ClassName: android.widget.EditText; Text: [ggg]; ContentDescription: null; ItemCount: -1; CurrentItemIndex: -1; IsEnabled: true; IsPassword: false; IsChecked: false; IsFullScreen: false; Scrollable: false; BeforeText: ; FromIndex: 0; ToIndex: -1; ScrollX: -1; ScrollY: -1; MaxScrollX: -1; MaxScrollY: -1; AddedCount: 3; RemovedCount: 0; ParcelableData: null ]'
p366
sS'MovementGranularity'
p367
g6
sa(dp368
S'EventTime'
p369
S'20496157'
p370
sg4
L1449714846043L
sS'recordCount'
p371
g6
sS'EventType'
p372
S'TYPE_VIEW_TEXT_SELECTION_CHANGED'
p373
sS'PackageName'
p374
S'com.example.myfristandroid'
p375
sS'OutBounds'
p376
S'Rect(5, 189 - 475, 234)'
p377
sS'Action'
p378
S'[ ClassName: android.widget.EditText; Text: [ggg]; ContentDescription: null; ItemCount: 3; CurrentItemIndex: -1; IsEnabled: true; IsPassword: false; IsChecked: false; IsFullScreen: false; Scrollable: false; BeforeText: null; FromIndex: 3; ToIndex: 3; ScrollX: -1; ScrollY: -1; MaxScrollX: -1; MaxScrollY: -1; AddedCount: -1; RemovedCount: -1; ParcelableData: null ]'
p379
sS'MovementGranularity'
p380
g6
sa(dp381
S'EventTime'
p382
S'20496164'
p383
sg4
L1449714846076L
sS'recordCount'
p384
g6
sS'EventType'
p385
S'TYPE_WINDOW_CONTENT_CHANGED'
p386
sS'PackageName'
p387
S'com.example.myfristandroid'
p388
sS'OutBounds'
p389
S'Rect(437, 192 - 475, 230)'
p390
sS'Action'
p391
S'[ ClassName: android.widget.ImageButton; Text: []; ContentDescription: null; ItemCount: -1; CurrentItemIndex: -1; IsEnabled: true; IsPassword: false; IsChecked: false; IsFullScreen: false; Scrollable: false; BeforeText: null; FromIndex: -1; ToIndex: -1; ScrollX: -1; ScrollY: -1; MaxScrollX: -1; MaxScrollY: -1; AddedCount: -1; RemovedCount: -1; ParcelableData: null ]'
p392
sS'MovementGranularity'
p393
g6
sa.