(lp0
(dp1
S'processID'
p2
S'29859'
p3
sS'SyscTime'
p4
L1449714676552L
sS'priority'
p5
S'V'
p6
sS'tag'
p7
S'Activity'
p8
sS'threadID'
p9
S'29859'
p10
sS'message'
p11
S'onPause com.example.myfristandroid.graphWebShow@4190d200\n'
p12
sa(dp13
g2
S'29859'
p14
sg4
L1449714676682L
sg5
g6
sg7
S'Activity'
p15
sg9
S'29859'
p16
sg11
S'onStart com.example.myfristandroid.MainActivity@424a8e30\n'
p17
sa(dp18
g2
S'29859'
p19
sg4
L1449714676682L
sg5
g6
sg7
S'Activity'
p20
sg9
S'29859'
p21
sg11
S'onResume com.example.myfristandroid.MainActivity@424a8e30\n'
p22
sa(dp23
g2
S'29859'
p24
sg4
L1449714676772L
sg5
g6
sg7
S'Activity'
p25
sg9
S'29859'
p26
sg11
S'onStop com.example.myfristandroid.graphWebShow@4190d200\n'
p27
sa(dp28
g2
S'29859'
p29
sg4
L1449714676772L
sg5
g6
sg7
S'Activity'
p30
sg9
S'29859'
p31
sg11
S'onDestroy com.example.myfristandroid.graphWebShow@4190d200\n'
p32
sa(dp33
g2
S'29859'
p34
sg4
L1449714677802L
sg5
g6
sg7
S'Activity'
p35
sg9
S'29859'
p36
sg11
S'onPause com.example.myfristandroid.MainActivity@424a8e30\n'
p37
sa(dp38
g2
S'29859'
p39
sg4
L1449714677822L
sg5
g6
sg7
S'Activity'
p40
sg9
S'29859'
p41
sg11
S'onCreate com.example.myfristandroid.graphWebShow@4191efd8: null\n'
p42
sa(dp43
g2
S'29859'
p44
sg4
L1449714677852L
sg5
g6
sg7
S'Activity'
p45
sg9
S'29859'
p46
sg11
S'onStart com.example.myfristandroid.graphWebShow@4191efd8\n'
p47
sa(dp48
g2
S'29859'
p49
sg4
L1449714677852L
sg5
g6
sg7
S'Activity'
p50
sg9
S'29859'
p51
sg11
S'onResume com.example.myfristandroid.graphWebShow@4191efd8\n'
p52
sa(dp53
g2
S'29859'
p54
sg4
L1449714678292L
sg5
g6
sg7
S'Activity'
p55
sg9
S'29859'
p56
sg11
S'onStop com.example.myfristandroid.MainActivity@424a8e30\n'
p57
sa(dp58
g2
S'29859'
p59
sg4
L1449714688682L
sg5
g6
sg7
S'Activity'
p60
sg9
S'29859'
p61
sg11
S'onPause com.example.myfristandroid.graphWebShow@4191efd8\n'
p62
sa(dp63
g2
S'29859'
p64
sg4
L1449714688702L
sg5
g6
sg7
S'Activity'
p65
sg9
S'29859'
p66
sg11
S'onStart com.example.myfristandroid.MainActivity@424a8e30\n'
p67
sa(dp68
g2
S'29859'
p69
sg4
L1449714688702L
sg5
g6
sg7
S'Activity'
p70
sg9
S'29859'
p71
sg11
S'onResume com.example.myfristandroid.MainActivity@424a8e30\n'
p72
sa(dp73
g2
S'29859'
p74
sg4
L1449714689122L
sg5
g6
sg7
S'Activity'
p75
sg9
S'29859'
p76
sg11
S'onStop com.example.myfristandroid.graphWebShow@4191efd8\n'
p77
sa(dp78
g2
S'29859'
p79
sg4
L1449714689122L
sg5
g6
sg7
S'Activity'
p80
sg9
S'29859'
p81
sg11
S'onDestroy com.example.myfristandroid.graphWebShow@4191efd8\n'
p82
sa(dp83
g2
S'29859'
p84
sg4
L1449714689612L
sg5
g6
sg7
S'Activity'
p85
sg9
S'29859'
p86
sg11
S'onPause com.example.myfristandroid.MainActivity@424a8e30\n'
p87
sa(dp88
g2
S'29859'
p89
sg4
L1449714689642L
sg5
g6
sg7
S'Activity'
p90
sg9
S'29859'
p91
sg11
S'onCreate com.example.myfristandroid.graphWebShow@4192a698: null\n'
p92
sa(dp93
g2
S'29859'
p94
sg4
L1449714689672L
sg5
g6
sg7
S'Activity'
p95
sg9
S'29859'
p96
sg11
S'onStart com.example.myfristandroid.graphWebShow@4192a698\n'
p97
sa(dp98
g2
S'29859'
p99
sg4
L1449714689672L
sg5
g6
sg7
S'Activity'
p100
sg9
S'29859'
p101
sg11
S'onResume com.example.myfristandroid.graphWebShow@4192a698\n'
p102
sa(dp103
g2
S'29859'
p104
sg4
L1449714690112L
sg5
g6
sg7
S'Activity'
p105
sg9
S'29859'
p106
sg11
S'onStop com.example.myfristandroid.MainActivity@424a8e30\n'
p107
sa(dp108
g2
S'29859'
p109
sg4
L1449714702882L
sg5
g6
sg7
S'Activity'
p110
sg9
S'29859'
p111
sg11
S'onConfigurationChanged com.example.myfristandroid.graphWebShow@4192a698: {1.0 0mcc0mnc zh_CN sw455dp w303dp h360dp smll land finger -keyb/v/h -nav/h s.325}\n'
p112
sa(dp113
g2
S'29859'
p114
sg4
L1449714706572L
sg5
g6
sg7
S'Activity'
p115
sg9
S'29859'
p116
sg11
S'onPause com.example.myfristandroid.graphWebShow@4192a698\n'
p117
sa(dp118
g2
S'29859'
p119
sg4
L1449714706712L
sg5
g6
sg7
S'Activity'
p120
sg9
S'29859'
p121
sg11
S'onStart com.example.myfristandroid.MainActivity@424a8e30\n'
p122
sa(dp123
g2
S'29859'
p124
sg4
L1449714706712L
sg5
g6
sg7
S'Activity'
p125
sg9
S'29859'
p126
sg11
S'onResume com.example.myfristandroid.MainActivity@424a8e30\n'
p127
sa(dp128
g2
S'29859'
p129
sg4
L1449714706792L
sg5
g6
sg7
S'Activity'
p130
sg9
S'29859'
p131
sg11
S'onStop com.example.myfristandroid.graphWebShow@4192a698\n'
p132
sa(dp133
g2
S'29859'
p134
sg4
L1449714706792L
sg5
g6
sg7
S'Activity'
p135
sg9
S'29859'
p136
sg11
S'onDestroy com.example.myfristandroid.graphWebShow@4192a698\n'
p137
sa(dp138
g2
S'29859'
p139
sg4
L1449714714742L
sg5
S'E'
p140
sg7
S'AndroidRuntime'
p141
sg9
S'29913'
p142
sg11
S'FATAL EXCEPTION: Thread-585\njava.lang.NullPointerException\n\tat android.app.Instrumentation.finish(Instrumentation.java:191)\n\tat cn.edu.nju.ise.kikandroid.AUTInstrument.quitInstr(AUTInstrument.java:195)\n\tat cn.edu.nju.ise.kikandroid.AUTInstrument.startServer(AUTInstrument.java:161)\n\tat cn.edu.nju.ise.kikandroid.AUTInstrument$1.run(AUTInstrument.java:107)\n\tat java.lang.Thread.run(Thread.java:856)\n'
p143
sa(dp144
g2
S'31769'
p145
sg4
L1449715019152L
sg5
S'I'
p146
sg7
S'Log_level_control'
p147
sg9
S'31769'
p148
sg11
S'YVV7\n'
p149
sa(dp150
g2
S'31769'
p151
sg4
L1449715019152L
sg5
S'D'
p152
sg7
S'dalvikvm'
p153
sg9
S'31769'
p154
sg11
S'DexOpt: load 81ms, verify+opt 239ms, 1199452 bytes\n'
p155
sa(dp156
g2
S'32012'
p157
sg4
L1449715031162L
sg5
g152
sg7
S'dalvikvm'
p158
sg9
S'32012'
p159
sg11
S'Late-enabling CheckJNI\n'
p160
sa(dp161
g2
S'32012'
p162
sg4
L1449715031212L
sg5
g140
sg7
S'Trace   '
p163
sg9
S'32012'
p164
sg11
S'error opening trace file: No such file or directory (2)\n'
p165
sa(dp166
g2
S'32012'
p167
sg4
L1449715031342L
sg5
g6
sg7
S'Activity'
p168
sg9
S'32012'
p169
sg11
S'onCreate com.example.myfristandroid.SplashActivity@418994a0: null\n'
p170
sa(dp171
g2
S'32012'
p172
sg4
L1449715031392L
sg5
g152
sg7
S'dalvikvm'
p173
sg9
S'32012'
p174
sg11
S'GC_FOR_ALLOC freed 55K, 16% free 9606K/11331K, paused 15ms, total 15ms\n'
p175
sa(dp176
g2
S'32012'
p177
sg4
L1449715031402L
sg5
g146
sg7
S'dalvikvm-heap'
p178
sg9
S'32012'
p179
sg11
S'Grow heap (frag case) to 16.593MB for 3876224-byte allocation\n'
p180
sa(dp181
g2
S'32012'
p182
sg4
L1449715031432L
sg5
g152
sg7
S'dalvikvm'
p183
sg9
S'32014'
p184
sg11
S'GC_CONCURRENT freed <1K, 12% free 13390K/15175K, paused 12ms+2ms, total 24ms\n'
p185
sa(dp186
g2
S'32012'
p187
sg4
L1449715031562L
sg5
g152
sg7
S'dalvikvm'
p188
sg9
S'32012'
p189
sg11
S'GC_FOR_ALLOC freed 0K, 12% free 13390K/15175K, paused 12ms, total 12ms\n'
p190
sa(dp191
g2
S'32012'
p192
sg4
L1449715031582L
sg5
g146
sg7
S'dalvikvm-heap'
p193
sg9
S'32012'
p194
sg11
S'Grow heap (frag case) to 24.910MB for 8721484-byte allocation\n'
p195
sa(dp196
g2
S'32012'
p197
sg4
L1449715031612L
sg5
g152
sg7
S'dalvikvm'
p198
sg9
S'32014'
p199
sg11
S'GC_CONCURRENT freed 0K, 8% free 21908K/23751K, paused 12ms+2ms, total 25ms\n'
p200
sa(dp201
g2
S'32029'
p202
sg4
L1449715031682L
sg5
g152
sg7
S'dalvikvm'
p203
sg9
S'32029'
p204
sg11
S'Late-enabling CheckJNI\n'
p205
sa(dp206
g2
S'32012'
p207
sg4
L1449715031682L
sg5
g6
sg7
S'Activity'
p208
sg9
S'32012'
p209
sg11
S'onStart com.example.myfristandroid.SplashActivity@418994a0\n'
p210
sa(dp211
g2
S'32012'
p212
sg4
L1449715031682L
sg5
g6
sg7
S'Activity'
p213
sg9
S'32012'
p214
sg11
S'onResume com.example.myfristandroid.SplashActivity@418994a0\n'
p215
sa(dp216
g2
S'32029'
p217
sg4
L1449715031712L
sg5
g140
sg7
S'Trace   '
p218
sg9
S'32029'
p219
sg11
S'error opening trace file: No such file or directory (2)\n'
p220
sa(dp221
g2
S'32012'
p222
sg4
L1449715031732L
sg5
g152
sg7
S'libEGL  '
p223
sg9
S'32012'
p224
sg11
S'loaded /system/lib/egl/libEGL_adreno200.so\n'
p225
sa(dp226
g2
S'32012'
p227
sg4
L1449715031742L
sg5
g152
sg7
S'libEGL  '
p228
sg9
S'32012'
p229
sg11
S'loaded /system/lib/egl/libGLESv1_CM_adreno200.so\n'
p230
sa(dp231
g2
S'32012'
p232
sg4
L1449715031742L
sg5
g152
sg7
S'libEGL  '
p233
sg9
S'32012'
p234
sg11
S'loaded /system/lib/egl/libGLESv2_adreno200.so\n'
p235
sa(dp236
g2
S'32012'
p237
sg4
L1449715031752L
sg5
g146
sg7
S'Log_level_control'
p238
sg9
S'32012'
p239
sg11
S'YVV7\n'
p240
sa(dp241
g2
S'32012'
p242
sg4
L1449715031752L
sg5
g146
sg7
S'Adreno200-EGL'
p243
sg9
S'32012'
p244
sg11
S'<qeglDrvAPI_eglInitialize:299>: EGL 1.4 QUALCOMM build: Nondeterministic AU_msm8625_REFS/TAGS/JB_REL_RB5_QRD_D20130303_CL3285357_release_AU (CL3285357)\nBuild Date: 03/04/13 Mon\nLocal Branch: \nRemote Branch: m/refs/tags/jb_rel_rb5_qrd_D20130303\nLocal Patches: NONE\nReconstruct Branch: NOTHING\n'
p245
sa(dp246
g2
S'32029'
p247
sg4
L1449715031782L
sg5
g152
sg7
S'dalvikvm'
p248
sg9
S'32029'
p249
sg11
S'GC_FOR_ALLOC freed 41K, 16% free 9578K/11331K, paused 17ms, total 17ms\n'
p250
sa(dp251
g2
S'32029'
p252
sg4
L1449715031782L
sg5
g146
sg7
S'dalvikvm-heap'
p253
sg9
S'32029'
p254
sg11
S'Grow heap (frag case) to 13.846MB for 1024016-byte allocation\n'
p255
sa(dp256
g2
S'32012'
p257
sg4
L1449715031792L
sg5
g152
sg7
S'OpenGLRenderer'
p258
sg9
S'32012'
p259
sg11
S'Enabling debug mode 0\n'
p260
sa(dp261
g2
S'32029'
p262
sg4
L1449715031822L
sg5
g152
sg7
S'dalvikvm'
p263
sg9
S'32031'
p264
sg11
S'GC_CONCURRENT freed 52K, 15% free 10584K/12359K, paused 2ms+12ms, total 32ms\n'
p265
sa(dp266
g2
S'32029'
p267
sg4
L1449715031832L
sg5
g152
sg7
S'SocketService'
p268
sg9
S'32029'
p269
sg11
S'onStartCommand : bLogin:false\n'
p270
sa(dp271
g2
S'32029'
p272
sg4
L1449715031842L
sg5
g152
sg7
S'SocketService'
p273
sg9
S'32029'
p274
sg11
S'pid:32029 myPid:32029\n'
p275
sa(dp276
g2
S'32029'
p277
sg4
L1449715031842L
sg5
g152
sg7
S'SocketService'
p278
sg9
S'32029'
p279
sg11
S'start to run current thread!id:614\n'
p280
sa(dp281
g2
S'32029'
p282
sg4
L1449715031972L
sg5
g152
sg7
S'SocketService'
p283
sg9
S'32051'
p284
sg11
S'ip/192.168.43.86 lport:46393 p:143\n'
p285
sa(dp286
g2
S'32029'
p287
sg4
L1449715031982L
sg5
g152
sg7
S'ForegroundActivity'
p288
sg9
S'32051'
p289
sg11
S'\xe6\x9c\xac\xe6\xac\xa1\xe5\x8f\x91\xe9\x80\x81\xe5\xb8\xa7\xe9\x95\xbf:34\t\xe6\x80\xbb\xe5\xb8\xa7\xe9\x95\xbf:34\n'
p290
sa(dp291
g2
S'32029'
p292
sg4
L1449715031982L
sg5
g152
sg7
S'SocketService'
p293
sg9
S'32051'
p294
sg11
S'success to connect server!id:614 bLogin:false\n'
p295
sa(dp296
g2
S'32029'
p297
sg4
L1449715032042L
sg5
g152
sg7
S'ForegroundActivity'
p298
sg9
S'32052'
p299
sg11
S'\xe6\x9c\xac\xe6\xac\xa1\xe6\x94\xb6\xe5\x88\xb0\xe5\xb8\xa7\xe9\x95\xbf:13\t\xe6\x80\xbb\xe5\xb8\xa7\xe9\x95\xbf:13\n'
p300
sa(dp301
g2
S'32012'
p302
sg4
L1449715032202L
sg5
g146
sg7
S'Environment'
p303
sg9
S'32025'
p304
sg11
S'GetExternalStorageDirectory info:ApplicationInfo{41886590 com.example.myfristandroid},packagename:com.example.myfristandroid,UID:0\n'
p305
sa(dp306
g2
S'32012'
p307
sg4
L1449715032202L
sg5
g146
sg7
S'Environment'
p308
sg9
S'32025'
p309
sg11
S'This apk install on sd and we call getExternalAppStorageDirectory()!\n'
p310
sa(dp311
g2
S'32029'
p312
sg4
L1449715032842L
sg5
g152
sg7
S'SocketService1'
p313
sg9
S'32049'
p314
sg11
S'\xe6\x9c\xac\xe6\xac\xa1\xe6\x8f\x90\xe5\x8f\x961:LoadPtr:13 HeadIndex:0 GetSize:13 13 0 \xe5\xa4\xb4\xe4\xbf\xa1\xe6\x81\xaf:EB 90 EB 90 EB 90 0D 00 0E 01 \n'
p315
sa(dp316
g2
S'32029'
p317
sg4
L1449715032982L
sg5
g152
sg7
S'ForegroundActivity'
p318
sg9
S'32051'
p319
sg11
S'\xe6\x9c\xac\xe6\xac\xa1\xe5\x8f\x91\xe9\x80\x81\xe5\xb8\xa7\xe9\x95\xbf:11\t\xe6\x80\xbb\xe5\xb8\xa7\xe9\x95\xbf:45\n'
p320
sa(dp321
g2
S'32029'
p322
sg4
L1449715033102L
sg5
g152
sg7
S'ForegroundActivity'
p323
sg9
S'32052'
p324
sg11
S'\xe6\x9c\xac\xe6\xac\xa1\xe6\x94\xb6\xe5\x88\xb0\xe5\xb8\xa7\xe9\x95\xbf:642\t\xe6\x80\xbb\xe5\xb8\xa7\xe9\x95\xbf:655\n'
p325
sa(dp326
g2
S'32012'
p327
sg4
L1449715033832L
sg5
g6
sg7
S'Activity'
p328
sg9
S'32012'
p329
sg11
S'onPause com.example.myfristandroid.SplashActivity@418994a0\n'
p330
sa(dp331
g2
S'32012'
p332
sg4
L1449715033842L
sg5
g6
sg7
S'Activity'
p333
sg9
S'32012'
p334
sg11
S'onCreate com.example.myfristandroid.MainActivity@424a8e60: null\n'
p335
sa(dp336
g2
S'32029'
p337
sg4
L1449715033872L
sg5
g152
sg7
S'SocketService1'
p338
sg9
S'32049'
p339
sg11
S'\xe6\x9c\xac\xe6\xac\xa1\xe6\x8f\x90\xe5\x8f\x961:LoadPtr:655 HeadIndex:13 GetSize:642 130 512 \xe5\xa4\xb4\xe4\xbf\xa1\xe6\x81\xaf:EB 90 EB 90 EB 90 82 02 14 0A \n'
p340
sa(dp341
g2
S'32029'
p342
sg4
L1449715033982L
sg5
g152
sg7
S'ForegroundActivity'
p343
sg9
S'32051'
p344
sg11
S'\xe6\x9c\xac\xe6\xac\xa1\xe5\x8f\x91\xe9\x80\x81\xe5\xb8\xa7\xe9\x95\xbf:11\t\xe6\x80\xbb\xe5\xb8\xa7\xe9\x95\xbf:56\n'
p345
sa(dp346
g2
S'32012'
p347
sg4
L1449715034022L
sg5
g152
sg7
S'MainActivity'
p348
sg9
S'32012'
p349
sg11
S'Start One Client\n'
p350
sa(dp351
g2
S'32012'
p352
sg4
L1449715034022L
sg5
g6
sg7
S'Activity'
p353
sg9
S'32012'
p354
sg11
S'onStart com.example.myfristandroid.MainActivity@424a8e60\n'
p355
sa(dp356
g2
S'32012'
p357
sg4
L1449715034022L
sg5
g6
sg7
S'Activity'
p358
sg9
S'32012'
p359
sg11
S'onResume com.example.myfristandroid.MainActivity@424a8e60\n'
p360
sa(dp361
g2
S'32029'
p362
sg4
L1449715034122L
sg5
g152
sg7
S'ForegroundActivity'
p363
sg9
S'32052'
p364
sg11
S'\xe6\x9c\xac\xe6\xac\xa1\xe6\x94\xb6\xe5\x88\xb0\xe5\xb8\xa7\xe9\x95\xbf:67\t\xe6\x80\xbb\xe5\xb8\xa7\xe9\x95\xbf:722\n'
p365
sa(dp366
g2
S'32012'
p367
sg4
L1449715034212L
sg5
g152
sg7
S'dalvikvm'
p368
sg9
S'32012'
p369
sg11
S'GC_FOR_ALLOC freed 4985K, 26% free 18842K/25415K, paused 15ms, total 20ms\n'
p370
sa(dp371
g2
S'32012'
p372
sg4
L1449715034312L
sg5
g152
sg7
S'dalvikvm'
p373
sg9
S'32014'
p374
sg11
S'GC_CONCURRENT freed 1081K, 23% free 19758K/25415K, paused 3ms+3ms, total 20ms\n'
p375
sa(dp376
g2
S'32012'
p377
sg4
L1449715034312L
sg5
g152
sg7
S'dalvikvm'
p378
sg9
S'32012'
p379
sg11
S'WAIT_FOR_CONCURRENT_GC blocked 9ms\n'
p380
sa(dp381
g2
S'32012'
p382
sg4
L1449715034762L
sg5
g6
sg7
S'Activity'
p383
sg9
S'32012'
p384
sg11
S'onStop com.example.myfristandroid.SplashActivity@418994a0\n'
p385
sa(dp386
g2
S'32012'
p387
sg4
L1449715034762L
sg5
g6
sg7
S'Activity'
p388
sg9
S'32012'
p389
sg11
S'onDestroy com.example.myfristandroid.SplashActivity@418994a0\n'
p390
sa(dp391
g2
S'32029'
p392
sg4
L1449715034892L
sg5
g152
sg7
S'SocketService1'
p393
sg9
S'32049'
p394
sg11
S'\xe6\x9c\xac\xe6\xac\xa1\xe6\x8f\x90\xe5\x8f\x961:LoadPtr:722 HeadIndex:655 GetSize:67 67 0 \xe5\xa4\xb4\xe4\xbf\xa1\xe6\x81\xaf:EB 90 EB 90 EB 90 43 00 15 02 \n'
p395
sa(dp396
g2
S'32012'
p397
sg4
L1449715034912L
sg5
g152
sg7
S'MainActivity'
p398
sg9
S'32012'
p399
sg11
S'ServerVersion:22 LocalVersion:12\n'
p400
sa(dp401
g2
S'32012'
p402
sg4
L1449715036192L
sg5
g6
sg7
S'AudioManager'
p403
sg9
S'32012'
p404
sg11
S'AudioManager ctor mUseMasterVolume:false\n'
p405
sa(dp406
g2
S'32012'
p407
sg4
L1449715039602L
sg5
g152
sg7
S'cn.edu.nju.ise.kikandroid'
p408
sg9
S'32059'
p409
sg11
S'Log:1449715039613\n'
p410
sa(dp411
g2
S'32012'
p412
sg4
L1449715039652L
sg5
g152
sg7
S'cn.edu.nju.ise.kikandroid'
p413
sg9
S'32059'
p414
sg11
S'Screenshot:1449715039663\n'
p415
sa(dp416
g2
S'32012'
p417
sg4
L1449715039712L
sg5
g152
sg7
S'dalvikvm'
p418
sg9
S'32012'
p419
sg11
S'GC_FOR_ALLOC freed 1002K, 22% free 20045K/25415K, paused 27ms, total 33ms\n'
p420
sa(dp421
g2
S'32012'
p422
sg4
L1449715039742L
sg5
g152
sg7
S'dalvikvm'
p423
sg9
S'32014'
p424
sg11
S'GC_CONCURRENT freed 60K, 14% free 22010K/25415K, paused 14ms+3ms, total 31ms\n'
p425
sa(dp426
g2
S'32012'
p427
sg4
L1449715039742L
sg5
g152
sg7
S'dalvikvm'
p428
sg9
S'32012'
p429
sg11
S'WAIT_FOR_CONCURRENT_GC blocked 9ms\n'
p430
sa(dp431
g2
S'32012'
p432
sg4
L1449715039762L
sg5
g152
sg7
S'dalvikvm'
p433
sg9
S'32012'
p434
sg11
S'GC_FOR_ALLOC freed <1K, 14% free 22009K/25415K, paused 16ms, total 16ms\n'
p435
sa(dp436
g2
S'32012'
p437
sg4
L1449715039762L
sg5
g146
sg7
S'dalvikvm-heap'
p438
sg9
S'32012'
p439
sg11
S'Grow heap (frag case) to 26.987MB for 2073616-byte allocation\n'
p440
sa(dp441
g2
S'32012'
p442
sg4
L1449715039792L
sg5
g152
sg7
S'dalvikvm'
p443
sg9
S'32014'
p444
sg11
S'GC_CONCURRENT freed 2026K, 20% free 22015K/27463K, paused 3ms+3ms, total 24ms\n'
p445
sa(dp446
g2
S'32012'
p447
sg4
L1449715039852L
sg5
S'W'
p448
sg7
S'dalvikvm'
p449
sg9
S'32059'
p450
sg11
S'threadid=14: thread exiting with uncaught exception (group=0x40db9588)\n'
p451
sa(dp452
g2
S'32012'
p453
sg4
L1449715039852L
sg5
g140
sg7
S'AndroidRuntime'
p454
sg9
S'32059'
p455
sg11
S'FATAL EXCEPTION: Thread-609\njava.lang.NullPointerException\n\tat android.app.Instrumentation.finish(Instrumentation.java:191)\n\tat cn.edu.nju.ise.kikandroid.AUTInstrument.quitInstr(AUTInstrument.java:195)\n\tat cn.edu.nju.ise.kikandroid.AUTInstrument.startServer(AUTInstrument.java:161)\n\tat cn.edu.nju.ise.kikandroid.AUTInstrument$1.run(AUTInstrument.java:107)\n\tat java.lang.Thread.run(Thread.java:856)\n'
p456
sa(dp457
g2
S'32188'
p458
sg4
L1449715120722L
sg5
g152
sg7
S'dalvikvm'
p459
sg9
S'32188'
p460
sg11
S'Late-enabling CheckJNI\n'
p461
sa(dp462
g2
S'32188'
p463
sg4
L1449715120752L
sg5
g140
sg7
S'Trace   '
p464
sg9
S'32188'
p465
sg11
S'error opening trace file: No such file or directory (2)\n'
p466
sa(dp467
g2
S'32188'
p468
sg4
L1449715120922L
sg5
g6
sg7
S'Activity'
p469
sg9
S'32188'
p470
sg11
S'onCreate com.example.myfristandroid.SplashActivity@4189b3f8: null\n'
p471
sa(dp472
g2
S'32188'
p473
sg4
L1449715120962L
sg5
g152
sg7
S'dalvikvm'
p474
sg9
S'32188'
p475
sg11
S'GC_FOR_ALLOC freed 63K, 16% free 9606K/11331K, paused 15ms, total 15ms\n'
p476
sa(dp477
g2
S'32188'
p478
sg4
L1449715120982L
sg5
g146
sg7
S'dalvikvm-heap'
p479
sg9
S'32188'
p480
sg11
S'Grow heap (frag case) to 16.593MB for 3876224-byte allocation\n'
p481
sa(dp482
g2
S'32188'
p483
sg4
L1449715121012L
sg5
g152
sg7
S'dalvikvm'
p484
sg9
S'32190'
p485
sg11
S'GC_CONCURRENT freed <1K, 12% free 13390K/15175K, paused 2ms+2ms, total 29ms\n'
p486
sa(dp487
g2
S'32188'
p488
sg4
L1449715121132L
sg5
g152
sg7
S'dalvikvm'
p489
sg9
S'32188'
p490
sg11
S'GC_FOR_ALLOC freed 0K, 12% free 13390K/15175K, paused 11ms, total 11ms\n'
p491
sa(dp492
g2
S'32188'
p493
sg4
L1449715121152L
sg5
g146
sg7
S'dalvikvm-heap'
p494
sg9
S'32188'
p495
sg11
S'Grow heap (frag case) to 24.910MB for 8721484-byte allocation\n'
p496
sa(dp497
g2
S'32188'
p498
sg4
L1449715121182L
sg5
g152
sg7
S'dalvikvm'
p499
sg9
S'32190'
p500
sg11
S'GC_CONCURRENT freed 0K, 8% free 21907K/23751K, paused 12ms+2ms, total 25ms\n'
p501
sa(dp502
g2
S'32212'
p503
sg4
L1449715121262L
sg5
g152
sg7
S'dalvikvm'
p504
sg9
S'32212'
p505
sg11
S'Late-enabling CheckJNI\n'
p506
sa(dp507
g2
S'32188'
p508
sg4
L1449715121262L
sg5
g6
sg7
S'Activity'
p509
sg9
S'32188'
p510
sg11
S'onStart com.example.myfristandroid.SplashActivity@4189b3f8\n'
p511
sa(dp512
g2
S'32188'
p513
sg4
L1449715121262L
sg5
g6
sg7
S'Activity'
p514
sg9
S'32188'
p515
sg11
S'onResume com.example.myfristandroid.SplashActivity@4189b3f8\n'
p516
sa(dp517
g2
S'32212'
p518
sg4
L1449715121292L
sg5
g140
sg7
S'Trace   '
p519
sg9
S'32212'
p520
sg11
S'error opening trace file: No such file or directory (2)\n'
p521
sa(dp522
g2
S'32188'
p523
sg4
L1449715121302L
sg5
g152
sg7
S'libEGL  '
p524
sg9
S'32188'
p525
sg11
S'loaded /system/lib/egl/libEGL_adreno200.so\n'
p526
sa(dp527
g2
S'32188'
p528
sg4
L1449715121312L
sg5
g152
sg7
S'libEGL  '
p529
sg9
S'32188'
p530
sg11
S'loaded /system/lib/egl/libGLESv1_CM_adreno200.so\n'
p531
sa(dp532
g2
S'32188'
p533
sg4
L1449715121312L
sg5
g152
sg7
S'libEGL  '
p534
sg9
S'32188'
p535
sg11
S'loaded /system/lib/egl/libGLESv2_adreno200.so\n'
p536
sa(dp537
g2
S'32188'
p538
sg4
L1449715121312L
sg5
g146
sg7
S'Log_level_control'
p539
sg9
S'32188'
p540
sg11
S'YVV7\n'
p541
sa(dp542
g2
S'32188'
p543
sg4
L1449715121312L
sg5
g146
sg7
S'Adreno200-EGL'
p544
sg9
S'32188'
p545
sg11
S'<qeglDrvAPI_eglInitialize:299>: EGL 1.4 QUALCOMM build: Nondeterministic AU_msm8625_REFS/TAGS/JB_REL_RB5_QRD_D20130303_CL3285357_release_AU (CL3285357)\nBuild Date: 03/04/13 Mon\nLocal Branch: \nRemote Branch: m/refs/tags/jb_rel_rb5_qrd_D20130303\nLocal Patches: NONE\nReconstruct Branch: NOTHING\n'
p546
sa(dp547
g2
S'32212'
p548
sg4
L1449715121342L
sg5
g152
sg7
S'dalvikvm'
p549
sg9
S'32212'
p550
sg11
S'GC_FOR_ALLOC freed 49K, 16% free 9578K/11331K, paused 17ms, total 17ms\n'
p551
sa(dp552
g2
S'32188'
p553
sg4
L1449715121342L
sg5
g152
sg7
S'OpenGLRenderer'
p554
sg9
S'32188'
p555
sg11
S'Enabling debug mode 0\n'
p556
sa(dp557
g2
S'32212'
p558
sg4
L1449715121342L
sg5
g146
sg7
S'dalvikvm-heap'
p559
sg9
S'32212'
p560
sg11
S'Grow heap (frag case) to 13.846MB for 1024016-byte allocation\n'
p561
sa(dp562
g2
S'32212'
p563
sg4
L1449715121372L
sg5
g152
sg7
S'dalvikvm'
p564
sg9
S'32215'
p565
sg11
S'GC_CONCURRENT freed 53K, 15% free 10585K/12359K, paused 3ms+12ms, total 26ms\n'
p566
sa(dp567
g2
S'32212'
p568
sg4
L1449715121382L
sg5
g152
sg7
S'SocketService'
p569
sg9
S'32212'
p570
sg11
S'onStartCommand : bLogin:false\n'
p571
sa(dp572
g2
S'32212'
p573
sg4
L1449715121392L
sg5
g152
sg7
S'SocketService'
p574
sg9
S'32212'
p575
sg11
S'pid:32212 myPid:32212\n'
p576
sa(dp577
g2
S'32212'
p578
sg4
L1449715121392L
sg5
g152
sg7
S'SocketService'
p579
sg9
S'32212'
p580
sg11
S'start to run current thread!id:620\n'
p581
sa(dp582
g2
S'32212'
p583
sg4
L1449715121472L
sg5
g152
sg7
S'SocketService'
p584
sg9
S'32234'
p585
sg11
S'ip/192.168.43.86 lport:57481 p:143\n'
p586
sa(dp587
g2
S'32212'
p588
sg4
L1449715121482L
sg5
g152
sg7
S'ForegroundActivity'
p589
sg9
S'32234'
p590
sg11
S'\xe6\x9c\xac\xe6\xac\xa1\xe5\x8f\x91\xe9\x80\x81\xe5\xb8\xa7\xe9\x95\xbf:34\t\xe6\x80\xbb\xe5\xb8\xa7\xe9\x95\xbf:34\n'
p591
sa(dp592
g2
S'32212'
p593
sg4
L1449715121482L
sg5
g152
sg7
S'SocketService'
p594
sg9
S'32234'
p595
sg11
S'success to connect server!id:620 bLogin:false\n'
p596
sa(dp597
g2
S'32212'
p598
sg4
L1449715121602L
sg5
g152
sg7
S'ForegroundActivity'
p599
sg9
S'32235'
p600
sg11
S'\xe6\x9c\xac\xe6\xac\xa1\xe6\x94\xb6\xe5\x88\xb0\xe5\xb8\xa7\xe9\x95\xbf:13\t\xe6\x80\xbb\xe5\xb8\xa7\xe9\x95\xbf:13\n'
p601
sa(dp602
g2
S'32188'
p603
sg4
L1449715121712L
sg5
g146
sg7
S'Environment'
p604
sg9
S'32204'
p605
sg11
S'GetExternalStorageDirectory info:ApplicationInfo{41888530 com.example.myfristandroid},packagename:com.example.myfristandroid,UID:0\n'
p606
sa(dp607
g2
S'32188'
p608
sg4
L1449715121712L
sg5
g146
sg7
S'Environment'
p609
sg9
S'32204'
p610
sg11
S'This apk install on sd and we call getExternalAppStorageDirectory()!\n'
p611
sa(dp612
g2
S'32212'
p613
sg4
L1449715122382L
sg5
g152
sg7
S'SocketService1'
p614
sg9
S'32232'
p615
sg11
S'\xe6\x9c\xac\xe6\xac\xa1\xe6\x8f\x90\xe5\x8f\x961:LoadPtr:13 HeadIndex:0 GetSize:13 13 0 \xe5\xa4\xb4\xe4\xbf\xa1\xe6\x81\xaf:EB 90 EB 90 EB 90 0D 00 0E 01 \n'
p616
sa(dp617
g2
S'32212'
p618
sg4
L1449715122492L
sg5
g152
sg7
S'ForegroundActivity'
p619
sg9
S'32234'
p620
sg11
S'\xe6\x9c\xac\xe6\xac\xa1\xe5\x8f\x91\xe9\x80\x81\xe5\xb8\xa7\xe9\x95\xbf:11\t\xe6\x80\xbb\xe5\xb8\xa7\xe9\x95\xbf:45\n'
p621
sa(dp622
g2
S'32212'
p623
sg4
L1449715122702L
sg5
g152
sg7
S'ForegroundActivity'
p624
sg9
S'32235'
p625
sg11
S'\xe6\x9c\xac\xe6\xac\xa1\xe6\x94\xb6\xe5\x88\xb0\xe5\xb8\xa7\xe9\x95\xbf:642\t\xe6\x80\xbb\xe5\xb8\xa7\xe9\x95\xbf:655\n'
p626
sa(dp627
g2
S'32188'
p628
sg4
L1449715123342L
sg5
g6
sg7
S'Activity'
p629
sg9
S'32188'
p630
sg11
S'onPause com.example.myfristandroid.SplashActivity@4189b3f8\n'
p631
sa(dp632
g2
S'32188'
p633
sg4
L1449715123352L
sg5
g6
sg7
S'Activity'
p634
sg9
S'32188'
p635
sg11
S'onCreate com.example.myfristandroid.MainActivity@424a9010: null\n'
p636
sa(dp637
g2
S'32212'
p638
sg4
L1449715123432L
sg5
g152
sg7
S'SocketService1'
p639
sg9
S'32232'
p640
sg11
S'\xe6\x9c\xac\xe6\xac\xa1\xe6\x8f\x90\xe5\x8f\x961:LoadPtr:655 HeadIndex:13 GetSize:642 130 512 \xe5\xa4\xb4\xe4\xbf\xa1\xe6\x81\xaf:EB 90 EB 90 EB 90 82 02 14 0A \n'
p641
sa(dp642
g2
S'32212'
p643
sg4
L1449715123482L
sg5
g152
sg7
S'ForegroundActivity'
p644
sg9
S'32234'
p645
sg11
S'\xe6\x9c\xac\xe6\xac\xa1\xe5\x8f\x91\xe9\x80\x81\xe5\xb8\xa7\xe9\x95\xbf:11\t\xe6\x80\xbb\xe5\xb8\xa7\xe9\x95\xbf:56\n'
p646
sa(dp647
g2
S'32188'
p648
sg4
L1449715123542L
sg5
g152
sg7
S'MainActivity'
p649
sg9
S'32188'
p650
sg11
S'Start One Client\n'
p651
sa(dp652
g2
S'32188'
p653
sg4
L1449715123542L
sg5
g6
sg7
S'Activity'
p654
sg9
S'32188'
p655
sg11
S'onStart com.example.myfristandroid.MainActivity@424a9010\n'
p656
sa(dp657
g2
S'32188'
p658
sg4
L1449715123542L
sg5
g6
sg7
S'Activity'
p659
sg9
S'32188'
p660
sg11
S'onResume com.example.myfristandroid.MainActivity@424a9010\n'
p661
sa(dp662
g2
S'32212'
p663
sg4
L1449715123622L
sg5
g152
sg7
S'ForegroundActivity'
p664
sg9
S'32235'
p665
sg11
S'\xe6\x9c\xac\xe6\xac\xa1\xe6\x94\xb6\xe5\x88\xb0\xe5\xb8\xa7\xe9\x95\xbf:67\t\xe6\x80\xbb\xe5\xb8\xa7\xe9\x95\xbf:722\n'
p666
sa(dp667
g2
S'32188'
p668
sg4
L1449715123712L
sg5
g152
sg7
S'dalvikvm'
p669
sg9
S'32188'
p670
sg11
S'GC_FOR_ALLOC freed 4985K, 26% free 18842K/25415K, paused 19ms, total 19ms\n'
p671
sa(dp672
g2
S'32188'
p673
sg4
L1449715123842L
sg5
g152
sg7
S'dalvikvm'
p674
sg9
S'32190'
p675
sg11
S'GC_CONCURRENT freed 1078K, 23% free 19697K/25415K, paused 12ms+16ms, total 47ms\n'
p676
sa(dp677
g2
S'32188'
p678
sg4
L1449715123842L
sg5
g152
sg7
S'dalvikvm'
p679
sg9
S'32188'
p680
sg11
S'WAIT_FOR_CONCURRENT_GC blocked 4ms\n'
p681
sa(dp682
g2
S'32188'
p683
sg4
L1449715124332L
sg5
g6
sg7
S'Activity'
p684
sg9
S'32188'
p685
sg11
S'onStop com.example.myfristandroid.SplashActivity@4189b3f8\n'
p686
sa(dp687
g2
S'32188'
p688
sg4
L1449715124332L
sg5
g6
sg7
S'Activity'
p689
sg9
S'32188'
p690
sg11
S'onDestroy com.example.myfristandroid.SplashActivity@4189b3f8\n'
p691
sa(dp692
g2
S'32212'
p693
sg4
L1449715124442L
sg5
g152
sg7
S'SocketService1'
p694
sg9
S'32232'
p695
sg11
S'\xe6\x9c\xac\xe6\xac\xa1\xe6\x8f\x90\xe5\x8f\x961:LoadPtr:722 HeadIndex:655 GetSize:67 67 0 \xe5\xa4\xb4\xe4\xbf\xa1\xe6\x81\xaf:EB 90 EB 90 EB 90 43 00 15 02 \n'
p696
sa(dp697
g2
S'32188'
p698
sg4
L1449715124452L
sg5
g152
sg7
S'MainActivity'
p699
sg9
S'32188'
p700
sg11
S'ServerVersion:22 LocalVersion:12\n'
p701
sa(dp702
g2
S'32188'
p703
sg4
L1449715125932L
sg5
g6
sg7
S'AudioManager'
p704
sg9
S'32188'
p705
sg11
S'AudioManager ctor mUseMasterVolume:false\n'
p706
sa(dp707
g2
S'32188'
p708
sg4
L1449715127892L
sg5
g152
sg7
S'MainActivity'
p709
sg9
S'32188'
p710
sg11
S'V.getTag:null v.id:2131230738\n'
p711
sa(dp712
g2
S'32188'
p713
sg4
L1449715133242L
sg5
g152
sg7
S'cn.edu.nju.ise.kikandroid'
p714
sg9
S'32240'
p715
sg11
S'Screenshot:1449715133255\n'
p716
sa(dp717
g2
S'32188'
p718
sg4
L1449715133332L
sg5
g152
sg7
S'dalvikvm'
p719
sg9
S'32188'
p720
sg11
S'GC_FOR_ALLOC freed 1163K, 22% free 20053K/25415K, paused 18ms, total 19ms\n'
p721
sa(dp722
g2
S'32188'
p723
sg4
L1449715133382L
sg5
g152
sg7
S'dalvikvm'
p724
sg9
S'32190'
p725
sg11
S'GC_CONCURRENT freed 107K, 14% free 21971K/25415K, paused 2ms+3ms, total 36ms\n'
p726
sa(dp727
g2
S'32188'
p728
sg4
L1449715133382L
sg5
g152
sg7
S'dalvikvm'
p729
sg9
S'32188'
p730
sg11
S'WAIT_FOR_CONCURRENT_GC blocked 6ms\n'
p731
sa(dp732
g2
S'32188'
p733
sg4
L1449715133402L
sg5
g152
sg7
S'dalvikvm'
p734
sg9
S'32188'
p735
sg11
S'GC_FOR_ALLOC freed <1K, 14% free 21970K/25415K, paused 21ms, total 21ms\n'
p736
sa(dp737
g2
S'32188'
p738
sg4
L1449715133402L
sg5
g146
sg7
S'dalvikvm-heap'
p739
sg9
S'32188'
p740
sg11
S'Grow heap (frag case) to 26.949MB for 2073616-byte allocation\n'
p741
sa(dp742
g2
S'32188'
p743
sg4
L1449715133442L
sg5
g152
sg7
S'dalvikvm'
p744
sg9
S'32190'
p745
sg11
S'GC_CONCURRENT freed 2026K, 20% free 21977K/27463K, paused 12ms+5ms, total 39ms\n'
p746
sa(dp747
g2
S'32188'
p748
sg4
L1449715134372L
sg5
g152
sg7
S'MainActivity'
p749
sg9
S'32188'
p750
sg11
S'V.getTag:null v.id:2131230790\n'
p751
sa(dp752
g2
S'32188'
p753
sg4
L1449715135072L
sg5
g152
sg7
S'MainActivity'
p754
sg9
S'32188'
p755
sg11
S'V.getTag:null v.id:2131230790\n'
p756
sa(dp757
g2
S'32188'
p758
sg4
L1449715136672L
sg5
g152
sg7
S'MainActivity'
p759
sg9
S'32188'
p760
sg11
S'V.getTag:null v.id:2131230791\n'
p761
sa(dp762
g2
S'32188'
p763
sg4
L1449715136962L
sg5
g448
sg7
S'IInputConnectionWrapper'
p764
sg9
S'32188'
p765
sg11
S'performPrivateCommand on inactive InputConnection\n'
p766
sa(dp767
g2
S'32188'
p768
sg4
L1449715139922L
sg5
g152
sg7
S'cn.edu.nju.ise.kikandroid'
p769
sg9
S'32240'
p770
sg11
S'Screenshot:1449715139929\n'
p771
sa(dp772
g2
S'32188'
p773
sg4
L1449715140022L
sg5
g152
sg7
S'dalvikvm'
p774
sg9
S'32188'
p775
sg11
S'GC_FOR_ALLOC freed 2303K, 27% free 20129K/27463K, paused 39ms, total 39ms\n'
p776
sa(dp777
g2
S'32188'
p778
sg4
L1449715140072L
sg5
g152
sg7
S'dalvikvm'
p779
sg9
S'32190'
p780
sg11
S'GC_CONCURRENT freed 9K, 20% free 22144K/27463K, paused 13ms+2ms, total 43ms\n'
p781
sa(dp782
g2
S'32188'
p783
sg4
L1449715140072L
sg5
g152
sg7
S'dalvikvm'
p784
sg9
S'32188'
p785
sg11
S'WAIT_FOR_CONCURRENT_GC blocked 7ms\n'
p786
sa(dp787
g2
S'32188'
p788
sg4
L1449715140112L
sg5
g152
sg7
S'dalvikvm'
p789
sg9
S'32190'
p790
sg11
S'GC_CONCURRENT freed 2026K, 20% free 22149K/27463K, paused 4ms+3ms, total 34ms\n'
p791
sa(dp792
g2
S'32188'
p793
sg4
L1449715141652L
sg5
g152
sg7
S'MainActivity'
p794
sg9
S'32188'
p795
sg11
S'logList.size2():0 com.example.myfristandroid.myListView@42511ef0\n'
p796
sa(dp797
g2
S'32188'
p798
sg4
L1449715141652L
sg5
g152
sg7
S'MainActivity'
p799
sg9
S'32188'
p800
sg11
S'MainActivity Send BroadCast Length:22\n'
p801
sa(dp802
g2
S'32212'
p803
sg4
L1449715141672L
sg5
g152
sg7
S'ForegroundActivity'
p804
sg9
S'32212'
p805
sg11
S'\xe6\x9c\xac\xe6\xac\xa1\xe5\x8f\x91\xe9\x80\x81\xe5\xb8\xa7\xe9\x95\xbf:22\t\xe6\x80\xbb\xe5\xb8\xa7\xe9\x95\xbf:78\n'
p806
sa(dp807
g2
S'32212'
p808
sg4
L1449715141852L
sg5
g152
sg7
S'ForegroundActivity'
p809
sg9
S'32235'
p810
sg11
S'\xe6\x9c\xac\xe6\xac\xa1\xe6\x94\xb6\xe5\x88\xb0\xe5\xb8\xa7\xe9\x95\xbf:17\t\xe6\x80\xbb\xe5\xb8\xa7\xe9\x95\xbf:739\n'
p811
sa(dp812
g2
S'32212'
p813
sg4
L1449715142482L
sg5
g152
sg7
S'SocketService1'
p814
sg9
S'32232'
p815
sg11
S'\xe6\x9c\xac\xe6\xac\xa1\xe6\x8f\x90\xe5\x8f\x961:LoadPtr:739 HeadIndex:722 GetSize:17 17 0 \xe5\xa4\xb4\xe4\xbf\xa1\xe6\x81\xaf:EB 90 EB 90 EB 90 11 00 0D 01 \n'
p816
sa(dp817
g2
S'32188'
p818
sg4
L1449715143512L
sg5
g152
sg7
S'MainActivity'
p819
sg9
S'32188'
p820
sg11
S'V.getTag:null v.id:2131230791\n'
p821
sa(dp822
g2
S'32188'
p823
sg4
L1449715143692L
sg5
g448
sg7
S'IInputConnectionWrapper'
p824
sg9
S'32188'
p825
sg11
S'performPrivateCommand on inactive InputConnection\n'
p826
sa(dp827
g2
S'32212'
p828
sg4
L1449715144922L
sg5
g152
sg7
S'dalvikvm'
p829
sg9
S'32215'
p830
sg11
S'GC_CONCURRENT freed 388K, 16% free 10615K/12615K, paused 2ms+1ms, total 44ms\n'
p831
sa(dp832
g2
S'32188'
p833
sg4
L1449715146572L
sg5
g152
sg7
S'MainActivity'
p834
sg9
S'32188'
p835
sg11
S'logList.size2():0 com.example.myfristandroid.myListView@42511ef0\n'
p836
sa(dp837
g2
S'32188'
p838
sg4
L1449715146572L
sg5
g152
sg7
S'MainActivity'
p839
sg9
S'32188'
p840
sg11
S'MainActivity Send BroadCast Length:22\n'
p841
sa(dp842
g2
S'32212'
p843
sg4
L1449715146582L
sg5
g152
sg7
S'ForegroundActivity'
p844
sg9
S'32212'
p845
sg11
S'\xe6\x9c\xac\xe6\xac\xa1\xe5\x8f\x91\xe9\x80\x81\xe5\xb8\xa7\xe9\x95\xbf:22\t\xe6\x80\xbb\xe5\xb8\xa7\xe9\x95\xbf:100\n'
p846
sa(dp847
g2
S'32212'
p848
sg4
L1449715146762L
sg5
g152
sg7
S'ForegroundActivity'
p849
sg9
S'32235'
p850
sg11
S'\xe6\x9c\xac\xe6\xac\xa1\xe6\x94\xb6\xe5\x88\xb0\xe5\xb8\xa7\xe9\x95\xbf:17\t\xe6\x80\xbb\xe5\xb8\xa7\xe9\x95\xbf:756\n'
p851
sa(dp852
g2
S'32212'
p853
sg4
L1449715147522L
sg5
g152
sg7
S'SocketService1'
p854
sg9
S'32232'
p855
sg11
S'\xe6\x9c\xac\xe6\xac\xa1\xe6\x8f\x90\xe5\x8f\x961:LoadPtr:756 HeadIndex:739 GetSize:17 17 0 \xe5\xa4\xb4\xe4\xbf\xa1\xe6\x81\xaf:EB 90 EB 90 EB 90 11 00 0D 01 \n'
p856
sa(dp857
g2
S'32188'
p858
sg4
L1449715151042L
sg5
g152
sg7
S'cn.edu.nju.ise.kikandroid'
p859
sg9
S'32240'
p860
sg11
S'Screenshot:1449715151056\n'
p861
sa(dp862
g2
S'32188'
p863
sg4
L1449715151162L
sg5
g152
sg7
S'dalvikvm'
p864
sg9
S'32188'
p865
sg11
S'GC_FOR_ALLOC freed 2375K, 27% free 20223K/27463K, paused 34ms, total 34ms\n'
p866
sa(dp867
g2
S'32188'
p868
sg4
L1449715151222L
sg5
g152
sg7
S'dalvikvm'
p869
sg9
S'32190'
p870
sg11
S'GC_CONCURRENT freed 243K, 20% free 22005K/27463K, paused 13ms+2ms, total 54ms\n'
p871
sa(dp872
g2
S'32188'
p873
sg4
L1449715151222L
sg5
g152
sg7
S'dalvikvm'
p874
sg9
S'32188'
p875
sg11
S'WAIT_FOR_CONCURRENT_GC blocked 10ms\n'
p876
sa(dp877
g2
S'32188'
p878
sg4
L1449715151242L
sg5
g152
sg7
S'dalvikvm'
p879
sg9
S'32188'
p880
sg11
S'GC_FOR_ALLOC freed <1K, 20% free 22005K/27463K, paused 16ms, total 16ms\n'
p881
sa(dp882
g2
S'32188'
p883
sg4
L1449715151242L
sg5
g146
sg7
S'dalvikvm-heap'
p884
sg9
S'32188'
p885
sg11
S'Grow heap (frag case) to 26.982MB for 2073616-byte allocation\n'
p886
sa(dp887
g2
S'32188'
p888
sg4
L1449715151282L
sg5
g152
sg7
S'dalvikvm'
p889
sg9
S'32190'
p890
sg11
S'GC_CONCURRENT freed 2026K, 26% free 22010K/29511K, paused 4ms+2ms, total 39ms\n'
p891
sa(dp892
g2
S'32188'
p893
sg4
L1449715158022L
sg5
g152
sg7
S'MainActivity'
p894
sg9
S'32188'
p895
sg11
S'V.getTag:null v.id:2131230740\n'
p896
sa(dp897
g2
S'32188'
p898
sg4
L1449715158132L
sg5
g448
sg7
S'IInputConnectionWrapper'
p899
sg9
S'32188'
p900
sg11
S'performPrivateCommand on inactive InputConnection\n'
p901
sa(dp902
g2
S'32188'
p903
sg4
L1449715159152L
sg5
g152
sg7
S'MainActivity'
p904
sg9
S'32188'
p905
sg11
S'V.getTag:null v.id:2131230734\n'
p906
sa(dp907
g2
S'32188'
p908
sg4
L1449715159242L
sg5
g448
sg7
S'IInputConnectionWrapper'
p909
sg9
S'32188'
p910
sg11
S'performPrivateCommand on inactive InputConnection\n'
p911
sa(dp912
g2
S'32188'
p913
sg4
L1449715159892L
sg5
g152
sg7
S'MainActivity'
p914
sg9
S'32188'
p915
sg11
S'V.getTag:null v.id:2131230736\n'
p916
sa(dp917
g2
S'32188'
p918
sg4
L1449715162472L
sg5
g152
sg7
S'cn.edu.nju.ise.kikandroid'
p919
sg9
S'32240'
p920
sg11
S'Screenshot:1449715162483\n'
p921
sa(dp922
g2
S'32188'
p923
sg4
L1449715162562L
sg5
g152
sg7
S'dalvikvm'
p924
sg9
S'32188'
p925
sg11
S'GC_FOR_ALLOC freed 3096K, 33% free 20000K/29511K, paused 24ms, total 24ms\n'
p926
sa(dp927
g2
S'32188'
p928
sg4
L1449715162652L
sg5
g152
sg7
S'dalvikvm'
p929
sg9
S'32190'
p930
sg11
S'GC_CONCURRENT freed 7K, 26% free 22017K/29511K, paused 20ms+13ms, total 80ms\n'
p931
sa(dp932
g2
S'32188'
p933
sg4
L1449715162722L
sg5
g152
sg7
S'dalvikvm'
p934
sg9
S'32190'
p935
sg11
S'GC_CONCURRENT freed 2026K, 26% free 22022K/29511K, paused 3ms+3ms, total 50ms\n'
p936
sa(dp937
g2
S'32188'
p938
sg4
L1449715163142L
sg5
g152
sg7
S'MainActivity'
p939
sg9
S'32188'
p940
sg11
S'V.getTag:null v.id:2131230734\n'
p941
sa(dp942
g2
S'32188'
p943
sg4
L1449715163182L
sg5
g448
sg7
S'IInputConnectionWrapper'
p944
sg9
S'32188'
p945
sg11
S'performPrivateCommand on inactive InputConnection\n'
p946
sa(dp947
g2
S'32188'
p948
sg4
L1449715164392L
sg5
g152
sg7
S'cn.edu.nju.ise.kikandroid'
p949
sg9
S'32240'
p950
sg11
S'Screenshot:1449715164398\n'
p951
sa(dp952
g2
S'32188'
p953
sg4
L1449715164442L
sg5
g152
sg7
S'dalvikvm'
p954
sg9
S'32188'
p955
sg11
S'GC_FOR_ALLOC freed 2207K, 33% free 19994K/29511K, paused 22ms, total 22ms\n'
p956
sa(dp957
g2
S'32188'
p958
sg4
L1449715164502L
sg5
g152
sg7
S'dalvikvm'
p959
sg9
S'32190'
p960
sg11
S'GC_CONCURRENT freed 1K, 26% free 22017K/29511K, paused 12ms+13ms, total 48ms\n'
p961
sa(dp962
g2
S'32188'
p963
sg4
L1449715164572L
sg5
g152
sg7
S'dalvikvm'
p964
sg9
S'32190'
p965
sg11
S'GC_CONCURRENT freed 2026K, 26% free 22022K/29511K, paused 13ms+3ms, total 47ms\n'
p966
sa(dp967
g2
S'32188'
p968
sg4
L1449715164972L
sg5
g152
sg7
S'MainActivity'
p969
sg9
S'32188'
p970
sg11
S'V.getTag:null v.id:2131230740\n'
p971
sa(dp972
g2
S'32188'
p973
sg4
L1449715166652L
sg5
g152
sg7
S'cn.edu.nju.ise.kikandroid'
p974
sg9
S'32240'
p975
sg11
S'Screenshot:1449715166658\n'
p976
sa(dp977
g2
S'32188'
p978
sg4
L1449715166722L
sg5
g152
sg7
S'dalvikvm'
p979
sg9
S'32188'
p980
sg11
S'GC_FOR_ALLOC freed 2243K, 33% free 19990K/29511K, paused 36ms, total 37ms\n'
p981
sa(dp982
g2
S'32188'
p983
sg4
L1449715166772L
sg5
g152
sg7
S'dalvikvm'
p984
sg9
S'32190'
p985
sg11
S'GC_CONCURRENT freed 3K, 26% free 22012K/29511K, paused 17ms+13ms, total 48ms\n'
p986
sa(dp987
g2
S'32188'
p988
sg4
L1449715166802L
sg5
g152
sg7
S'dalvikvm'
p989
sg9
S'32190'
p990
sg11
S'GC_CONCURRENT freed 2026K, 26% free 22017K/29511K, paused 4ms+4ms, total 27ms\n'
p991
sa(dp992
g2
S'32188'
p993
sg4
L1449715169402L
sg5
g152
sg7
S'cn.edu.nju.ise.kikandroid'
p994
sg9
S'32240'
p995
sg11
S'Log:1449715169409\n'
p996
sa(dp997
g2
S'32188'
p998
sg4
L1449715169462L
sg5
g152
sg7
S'cn.edu.nju.ise.kikandroid'
p999
sg9
S'32240'
p1000
sg11
S'Screenshot:1449715169474\n'
p1001
sa(dp1002
g2
S'32188'
p1003
sg4
L1449715169552L
sg5
g152
sg7
S'dalvikvm'
p1004
sg9
S'32188'
p1005
sg11
S'GC_FOR_ALLOC freed 2151K, 33% free 19991K/29511K, paused 29ms, total 29ms\n'
p1006
sa(dp1007
g2
S'32188'
p1008
sg4
L1449715169582L
sg5
g152
sg7
S'dalvikvm'
p1009
sg9
S'32190'
p1010
sg11
S'GC_CONCURRENT freed 1K, 26% free 22015K/29511K, paused 13ms+3ms, total 34ms\n'
p1011
sa(dp1012
g2
S'32188'
p1013
sg4
L1449715169622L
sg5
g152
sg7
S'dalvikvm'
p1014
sg9
S'32190'
p1015
sg11
S'GC_CONCURRENT freed 2026K, 26% free 22020K/29511K, paused 4ms+3ms, total 22ms\n'
p1016
sa(dp1017
g2
S'32188'
p1018
sg4
L1449715169702L
sg5
g448
sg7
S'dalvikvm'
p1019
sg9
S'32240'
p1020
sg11
S'threadid=15: thread exiting with uncaught exception (group=0x40db9588)\n'
p1021
sa(dp1022
g2
S'32188'
p1023
sg4
L1449715169702L
sg5
g140
sg7
S'AndroidRuntime'
p1024
sg9
S'32240'
p1025
sg11
S'FATAL EXCEPTION: Thread-616\njava.lang.NullPointerException\n\tat android.app.Instrumentation.finish(Instrumentation.java:191)\n\tat cn.edu.nju.ise.kikandroid.AUTInstrument.quitInstr(AUTInstrument.java:195)\n\tat cn.edu.nju.ise.kikandroid.AUTInstrument.startServer(AUTInstrument.java:161)\n\tat cn.edu.nju.ise.kikandroid.AUTInstrument$1.run(AUTInstrument.java:107)\n\tat java.lang.Thread.run(Thread.java:856)\n'
p1026
sa.