(lp0
(dp1
S'processID'
p2
S'4928'
p3
sS'SyscTime'
p4
L1449973258100L
sS'priority'
p5
S'I'
p6
sS'tag'
p7
S'Log_level_control'
p8
sS'threadID'
p9
S' 4928'
p10
sS'message'
p11
S'YWW4\n'
p12
sa(dp13
g2
S'5680'
p14
sg4
L1449973305380L
sg5
S'E'
p15
sg7
S'Trace   '
p16
sg9
S' 5680'
p17
sg11
S'error opening trace file: No such file or directory (2)\n'
p18
sa(dp19
g2
S'5680'
p20
sg4
L1449973305560L
sg5
S'W'
p21
sg7
S'dalvikvm'
p22
sg9
S' 5680'
p23
sg11
S'VFY: unable to resolve virtual method 557: Landroid/graphics/Bitmap;.getAllocationByteCount ()I\n'
p24
sa(dp25
g2
S'5680'
p26
sg4
L1449973305890L
sg5
g21
sg7
S'ImageLoader'
p27
sg9
S' 5680'
p28
sg11
S'diskCache(), diskCacheSize() and diskCacheFileCount calls overlap each other\n'
p29
sa(dp30
g2
S'5680'
p31
sg4
L1449973307550L
sg5
g6
sg7
S'Log_level_control'
p32
sg9
S' 5680'
p33
sg11
S'YWW4\n'
p34
sa(dp35
g2
S'5680'
p36
sg4
L1449973307850L
sg5
g15
sg7
S'libEGL  '
p37
sg9
S' 5680'
p38
sg11
S'call to OpenGL ES API with no current context (logged once per thread)\n'
p39
sa(dp40
g2
S'5680'
p41
sg4
L1449973309450L
sg5
g21
sg7
S'JPushReceiver'
p42
sg9
S' 5680'
p43
sg11
S'[MyReceiver]cn.jpush.android.intent.CONNECTION connected state change to true\n'
p44
sa(dp45
g2
S'5680'
p46
sg4
L1449973433030L
sg5
g21
sg7
S'dalvikvm'
p47
sg9
S' 5795'
p48
sg11
S'threadid=35: thread exiting with uncaught exception (group=0x410f3588)\n'
p49
sa(dp50
g2
S'5680'
p51
sg4
L1449973434230L
sg5
S'F'
p52
sg7
S'MobUncaughtExceptionHandler'
p53
sg9
S' 5795'
p54
sg11
S'null\njava.lang.NullPointerException\n\tat android.app.Instrumentation.finish(Instrumentation.java:191)\n\tat cn.edu.nju.ise.kikandroid.AUTInstrument.quitInstr(AUTInstrument.java:195)\n\tat cn.edu.nju.ise.kikandroid.AUTInstrument.startServer(AUTInstrument.java:161)\n\tat cn.edu.nju.ise.kikandroid.AUTInstrument$1.run(AUTInstrument.java:107)\n\tat java.lang.Thread.run(Thread.java:856)\n'
p55
sa(dp56
g2
S'5680'
p57
sg4
L1449973434850L
sg5
g15
sg7
S'AndroidRuntime'
p58
sg9
S' 5795'
p59
sg11
S'FATAL EXCEPTION: Thread-7532\njava.lang.NullPointerException\n\tat android.app.Instrumentation.finish(Instrumentation.java:191)\n\tat cn.edu.nju.ise.kikandroid.AUTInstrument.quitInstr(AUTInstrument.java:195)\n\tat cn.edu.nju.ise.kikandroid.AUTInstrument.startServer(AUTInstrument.java:161)\n\tat cn.edu.nju.ise.kikandroid.AUTInstrument$1.run(AUTInstrument.java:107)\n\tat java.lang.Thread.run(Thread.java:856)\n'
p60
sa(dp61
g2
S'6580'
p62
sg4
L1449973434980L
sg5
g15
sg7
S'Trace   '
p63
sg9
S' 6580'
p64
sg11
S'error opening trace file: No such file or directory (2)\n'
p65
sa(dp66
g2
S'6580'
p67
sg4
L1449973435070L
sg5
g21
sg7
S'dalvikvm'
p68
sg9
S' 6580'
p69
sg11
S'VFY: unable to resolve virtual method 557: Landroid/graphics/Bitmap;.getAllocationByteCount ()I\n'
p70
sa(dp71
g2
S'6580'
p72
sg4
L1449973435210L
sg5
g21
sg7
S'ImageLoader'
p73
sg9
S' 6580'
p74
sg11
S'diskCache(), diskCacheSize() and diskCacheFileCount calls overlap each other\n'
p75
sa(dp76
g2
S'6580'
p77
sg4
L1449973436230L
sg5
g21
sg7
S'JPushReceiver'
p78
sg9
S' 6580'
p79
sg11
S'[MyReceiver]cn.jpush.android.intent.CONNECTION connected state change to true\n'
p80
sa(dp81
g2
S'6665'
p82
sg4
L1449973437970L
sg5
g15
sg7
S'Trace   '
p83
sg9
S' 6665'
p84
sg11
S'error opening trace file: No such file or directory (2)\n'
p85
sa(dp86
g2
S'6665'
p87
sg4
L1449973438100L
sg5
g21
sg7
S'dalvikvm'
p88
sg9
S' 6665'
p89
sg11
S'VFY: unable to resolve virtual method 557: Landroid/graphics/Bitmap;.getAllocationByteCount ()I\n'
p90
sa(dp91
g2
S'6665'
p92
sg4
L1449973438210L
sg5
g21
sg7
S'ImageLoader'
p93
sg9
S' 6665'
p94
sg11
S'diskCache(), diskCacheSize() and diskCacheFileCount calls overlap each other\n'
p95
sa(dp96
g2
S'6665'
p97
sg4
L1449973438980L
sg5
g6
sg7
S'Log_level_control'
p98
sg9
S' 6665'
p99
sg11
S'YWW4\n'
p100
sa(dp101
g2
S'6665'
p102
sg4
L1449973439530L
sg5
g15
sg7
S'libEGL  '
p103
sg9
S' 6665'
p104
sg11
S'call to OpenGL ES API with no current context (logged once per thread)\n'
p105
sa(dp106
g2
S'6665'
p107
sg4
L1449973439790L
sg5
g21
sg7
S'JPushReceiver'
p108
sg9
S' 6665'
p109
sg11
S'[MyReceiver]cn.jpush.android.intent.CONNECTION connected state change to true\n'
p110
sa(dp111
g2
S'6665'
p112
sg4
L1449973547770L
sg5
g21
sg7
S'dalvikvm'
p113
sg9
S' 6748'
p114
sg11
S'threadid=31: thread exiting with uncaught exception (group=0x410f3588)\n'
p115
sa(dp116
g2
S'6665'
p117
sg4
L1449973547780L
sg5
g52
sg7
S'MobUncaughtExceptionHandler'
p118
sg9
S' 6748'
p119
sg11
S'null\njava.lang.NullPointerException\n\tat android.app.Instrumentation.finish(Instrumentation.java:191)\n\tat cn.edu.nju.ise.kikandroid.AUTInstrument.quitInstr(AUTInstrument.java:195)\n\tat cn.edu.nju.ise.kikandroid.AUTInstrument.startServer(AUTInstrument.java:161)\n\tat cn.edu.nju.ise.kikandroid.AUTInstrument$1.run(AUTInstrument.java:107)\n\tat java.lang.Thread.run(Thread.java:856)\n'
p120
sa(dp121
g2
S'6665'
p122
sg4
L1449973548940L
sg5
g15
sg7
S'AndroidRuntime'
p123
sg9
S' 6748'
p124
sg11
S'FATAL EXCEPTION: Thread-7539\njava.lang.NullPointerException\n\tat android.app.Instrumentation.finish(Instrumentation.java:191)\n\tat cn.edu.nju.ise.kikandroid.AUTInstrument.quitInstr(AUTInstrument.java:195)\n\tat cn.edu.nju.ise.kikandroid.AUTInstrument.startServer(AUTInstrument.java:161)\n\tat cn.edu.nju.ise.kikandroid.AUTInstrument$1.run(AUTInstrument.java:107)\n\tat java.lang.Thread.run(Thread.java:856)\n'
p125
sa(dp126
g2
S'8161'
p127
sg4
L1449973740050L
sg5
g15
sg7
S'Trace   '
p128
sg9
S' 8161'
p129
sg11
S'error opening trace file: No such file or directory (2)\n'
p130
sa(dp131
g2
S'8161'
p132
sg4
L1449973740100L
sg5
g21
sg7
S'dalvikvm'
p133
sg9
S' 8161'
p134
sg11
S'VFY: unable to resolve virtual method 557: Landroid/graphics/Bitmap;.getAllocationByteCount ()I\n'
p135
sa(dp136
g2
S'8161'
p137
sg4
L1449973740160L
sg5
g21
sg7
S'ImageLoader'
p138
sg9
S' 8161'
p139
sg11
S'diskCache(), diskCacheSize() and diskCacheFileCount calls overlap each other\n'
p140
sa(dp141
g2
S'8161'
p142
sg4
L1449973741640L
sg5
g21
sg7
S'JPushReceiver'
p143
sg9
S' 8161'
p144
sg11
S'[MyReceiver]cn.jpush.android.intent.CONNECTION connected state change to true\n'
p145
sa.