(lp0
(dp1
S'processID'
p2
S'28039'
p3
sS'SyscTime'
p4
L1449583832908L
sS'priority'
p5
S'E'
p6
sS'tag'
p7
S'ActivityThread'
p8
sS'threadID'
p9
S'28039'
p10
sS'message'
p11
S'Activity com.example.myfristandroid.MainActivity has leaked IntentReceiver com.example.myfristandroid.MainActivity$CmdReceiver@42de5368 that was originally registered here. Are you missing a call to unregisterReceiver()?\nandroid.app.IntentReceiverLeaked: Activity com.example.myfristandroid.MainActivity has leaked IntentReceiver com.example.myfristandroid.MainActivity$CmdReceiver@42de5368 that was originally registered here. Are you missing a call to unregisterReceiver()?\n\tat android.app.LoadedApk$ReceiverDispatcher.<init>(LoadedApk.java:798)\n\tat android.app.LoadedApk.getReceiverDispatcher(LoadedApk.java:599)\n\tat android.app.ContextImpl.registerReceiverInternal(ContextImpl.java:1480)\n\tat android.app.ContextImpl.registerReceiver(ContextImpl.java:1460)\n\tat android.app.ContextImpl.registerReceiver(ContextImpl.java:1454)\n\tat android.content.ContextWrapper.registerReceiver(ContextWrapper.java:467)\n\tat com.example.myfristandroid.MainActivity.onCreate(MainActivity.java:311)\n\tat android.app.Activity.performCreate(Activity.java:5249)\n\tat android.app.Instrumentation.callActivityOnCreate(Instrumentation.java:1087)\n\tat android.app.ActivityThread.performLaunchActivity(ActivityThread.java:2165)\n\tat android.app.ActivityThread.handleLaunchActivity(ActivityThread.java:2250)\n\tat android.app.ActivityThread.access$900(ActivityThread.java:141)\n\tat android.app.ActivityThread$H.handleMessage(ActivityThread.java:1213)\n\tat android.os.Handler.dispatchMessage(Handler.java:102)\n\tat android.os.Looper.loop(Looper.java:136)\n\tat android.app.ActivityThread.main(ActivityThread.java:5072)\n\tat java.lang.reflect.Method.invokeNative(Native Method)\n\tat java.lang.reflect.Method.invoke(Method.java:515)\n\tat com.android.internal.os.ZygoteInit$MethodAndArgsCaller.run(ZygoteInit.java:793)\n\tat com.android.internal.os.ZygoteInit.main(ZygoteInit.java:609)\n\tat dalvik.system.NativeStart.main(Native Method)\n'
p12
sa(dp13
g2
S'28385'
p14
sg4
L1449583842148L
sg5
g6
sg7
S'ActivityThread'
p15
sg9
S'28385'
p16
sg11
S'Activity com.example.myfristandroid.MainActivity has leaked IntentReceiver com.example.myfristandroid.MainActivity$CmdReceiver@42de5438 that was originally registered here. Are you missing a call to unregisterReceiver()?\nandroid.app.IntentReceiverLeaked: Activity com.example.myfristandroid.MainActivity has leaked IntentReceiver com.example.myfristandroid.MainActivity$CmdReceiver@42de5438 that was originally registered here. Are you missing a call to unregisterReceiver()?\n\tat android.app.LoadedApk$ReceiverDispatcher.<init>(LoadedApk.java:798)\n\tat android.app.LoadedApk.getReceiverDispatcher(LoadedApk.java:599)\n\tat android.app.ContextImpl.registerReceiverInternal(ContextImpl.java:1480)\n\tat android.app.ContextImpl.registerReceiver(ContextImpl.java:1460)\n\tat android.app.ContextImpl.registerReceiver(ContextImpl.java:1454)\n\tat android.content.ContextWrapper.registerReceiver(ContextWrapper.java:467)\n\tat com.example.myfristandroid.MainActivity.onCreate(MainActivity.java:311)\n\tat android.app.Activity.performCreate(Activity.java:5249)\n\tat android.app.Instrumentation.callActivityOnCreate(Instrumentation.java:1087)\n\tat android.app.ActivityThread.performLaunchActivity(ActivityThread.java:2165)\n\tat android.app.ActivityThread.handleLaunchActivity(ActivityThread.java:2250)\n\tat android.app.ActivityThread.access$900(ActivityThread.java:141)\n\tat android.app.ActivityThread$H.handleMessage(ActivityThread.java:1213)\n\tat android.os.Handler.dispatchMessage(Handler.java:102)\n\tat android.os.Looper.loop(Looper.java:136)\n\tat android.app.ActivityThread.main(ActivityThread.java:5072)\n\tat java.lang.reflect.Method.invokeNative(Native Method)\n\tat java.lang.reflect.Method.invoke(Method.java:515)\n\tat com.android.internal.os.ZygoteInit$MethodAndArgsCaller.run(ZygoteInit.java:793)\n\tat com.android.internal.os.ZygoteInit.main(ZygoteInit.java:609)\n\tat dalvik.system.NativeStart.main(Native Method)\n'
p17
sa(dp18
g2
S'28684'
p19
sg4
L1449583984428L
sg5
g6
sg7
S'ActivityThread'
p20
sg9
S'28684'
p21
sg11
S'Activity com.example.myfristandroid.MainActivity has leaked IntentReceiver com.example.myfristandroid.MainActivity$CmdReceiver@42de5818 that was originally registered here. Are you missing a call to unregisterReceiver()?\nandroid.app.IntentReceiverLeaked: Activity com.example.myfristandroid.MainActivity has leaked IntentReceiver com.example.myfristandroid.MainActivity$CmdReceiver@42de5818 that was originally registered here. Are you missing a call to unregisterReceiver()?\n\tat android.app.LoadedApk$ReceiverDispatcher.<init>(LoadedApk.java:798)\n\tat android.app.LoadedApk.getReceiverDispatcher(LoadedApk.java:599)\n\tat android.app.ContextImpl.registerReceiverInternal(ContextImpl.java:1480)\n\tat android.app.ContextImpl.registerReceiver(ContextImpl.java:1460)\n\tat android.app.ContextImpl.registerReceiver(ContextImpl.java:1454)\n\tat android.content.ContextWrapper.registerReceiver(ContextWrapper.java:467)\n\tat com.example.myfristandroid.MainActivity.onCreate(MainActivity.java:311)\n\tat android.app.Activity.performCreate(Activity.java:5249)\n\tat android.app.Instrumentation.callActivityOnCreate(Instrumentation.java:1087)\n\tat android.app.ActivityThread.performLaunchActivity(ActivityThread.java:2165)\n\tat android.app.ActivityThread.handleLaunchActivity(ActivityThread.java:2250)\n\tat android.app.ActivityThread.access$900(ActivityThread.java:141)\n\tat android.app.ActivityThread$H.handleMessage(ActivityThread.java:1213)\n\tat android.os.Handler.dispatchMessage(Handler.java:102)\n\tat android.os.Looper.loop(Looper.java:136)\n\tat android.app.ActivityThread.main(ActivityThread.java:5072)\n\tat java.lang.reflect.Method.invokeNative(Native Method)\n\tat java.lang.reflect.Method.invoke(Method.java:515)\n\tat com.android.internal.os.ZygoteInit$MethodAndArgsCaller.run(ZygoteInit.java:793)\n\tat com.android.internal.os.ZygoteInit.main(ZygoteInit.java:609)\n\tat dalvik.system.NativeStart.main(Native Method)\n'
p22
sa(dp23
g2
S'28684'
p24
sg4
L1449583996578L
sg5
g6
sg7
S'AndroidRuntime'
p25
sg9
S'28750'
p26
sg11
S'FATAL EXCEPTION: Thread-2303\nProcess: com.example.myfristandroid, PID: 28684\njava.lang.NullPointerException\n\tat android.app.Instrumentation.finish(Instrumentation.java:190)\n\tat cn.edu.nju.ise.kikandroid.AUTInstrument.quitInstr(AUTInstrument.java:195)\n\tat cn.edu.nju.ise.kikandroid.AUTInstrument.startServer(AUTInstrument.java:161)\n\tat cn.edu.nju.ise.kikandroid.AUTInstrument$1.run(AUTInstrument.java:107)\n\tat java.lang.Thread.run(Thread.java:841)\n'
p27
sa(dp28
g2
S'6785'
p29
sg4
L1449586014578L
sg5
S'D'
p30
sg7
S'dalvikvm'
p31
sg9
S' 6785'
p32
sg11
S'Late-enabling CheckJNI\n'
p33
sa(dp34
g2
S'6785'
p35
sg4
L1449586014638L
sg5
S'I'
p36
sg7
S'Timeline'
p37
sg9
S' 6809'
p38
sg11
S'Timeline: Activity_launch_request time:83375135\n'
p39
sa(dp40
g2
S'6785'
p41
sg4
L1449586014748L
sg5
g30
sg7
S'dalvikvm'
p42
sg9
S' 6785'
p43
sg11
S'GC_FOR_ALLOC freed 97K, 27% free 22634K/30772K, paused 12ms, total 12ms\n'
p44
sa(dp45
g2
S'6785'
p46
sg4
L1449586014788L
sg5
g36
sg7
S'dalvikvm-heap'
p47
sg9
S' 6785'
p48
sg11
S'Grow heap (frag case) to 63.394MB for 34885888-byte allocation\n'
p49
sa(dp50
g2
S'6785'
p51
sg4
L1449586014808L
sg5
g30
sg7
S'dalvikvm'
p52
sg9
S' 6789'
p53
sg11
S'GC_CONCURRENT freed <1K, 13% free 56702K/64844K, paused 4ms+1ms, total 14ms\n'
p54
sa(dp55
g2
S'6816'
p56
sg4
L1449586014828L
sg5
g30
sg7
S'dalvikvm'
p57
sg9
S' 6816'
p58
sg11
S'Late-enabling CheckJNI\n'
p59
sa(dp60
g2
S'6816'
p61
sg4
L1449586014878L
sg5
g30
sg7
S'SocketService'
p62
sg9
S' 6816'
p63
sg11
S'onStartCommand : bLogin:false\n'
p64
sa(dp65
g2
S'6816'
p66
sg4
L1449586014878L
sg5
g30
sg7
S'SocketService'
p67
sg9
S' 6816'
p68
sg11
S'pid:6816 myPid:6816\n'
p69
sa(dp70
g2
S'6816'
p71
sg4
L1449586014888L
sg5
g30
sg7
S'SocketService'
p72
sg9
S' 6816'
p73
sg11
S'start to run current thread!id:2479\n'
p74
sa(dp75
g2
S'6785'
p76
sg4
L1449586014888L
sg5
g36
sg7
S'Adreno-EGL'
p77
sg9
S' 6785'
p78
sg11
S'<qeglDrvAPI_eglInitialize:410>: EGL 1.4 QUALCOMM build: YWEN_+PATCH[ES]_msm8974_refs/tags/AU_LINUX_ANDROID_LNX.LA.3.5.2.2.1_RB1.04.04.04.090.059__release_ENGG ()\nOpenGL ES Shader Compiler Version: E031.24.00.15\nBuild Date: 11/04/15 Wed\nLocal Branch: tip\nRemote Branch: quic/kk_3.5_1\nLocal Patches: 14b1eae272f4a5ed345b2294a1c76becd9b27371 rb: re-work change "ES2.0 Fix for shadow cached VBO validation"\n                 c63208cf6c1fe92a04d7ed7e26be44f2f51c94e9 Revert "Fix for perf regression from "ES2.0 Fix for shadow cached VBO validation""\n'
p79
sa(dp80
g2
S'6785'
p81
sg4
L1449586014908L
sg5
g30
sg7
S'OpenGLRenderer'
p82
sg9
S' 6785'
p83
sg11
S'Enabling debug mode 0\n'
p84
sa(dp85
g2
S'6785'
p86
sg4
L1449586015408L
sg5
g36
sg7
S'Timeline'
p87
sg9
S' 6785'
p88
sg11
S'Timeline: Activity_idle id: android.os.BinderProxy@42d16cf0 time:83375904\n'
p89
sa(dp90
g2
S'6785'
p91
sg4
L1449586016838L
sg5
g36
sg7
S'Timeline'
p92
sg9
S' 6785'
p93
sg11
S'Timeline: Activity_launch_request time:83377336\n'
p94
sa(dp95
g2
S'6785'
p96
sg4
L1449586016968L
sg5
g30
sg7
S'MainActivity'
p97
sg9
S' 6785'
p98
sg11
S'Start One Client\n'
p99
sa(dp100
g2
S'6785'
p101
sg4
L1449586016968L
sg5
g30
sg7
S'StrictMode'
p102
sg9
S' 6785'
p103
sg11
S'StrictMode policy violation; ~duration=8 ms: android.os.StrictMode$StrictModeDiskReadViolation: policy=23 violation=2\n\tat android.os.StrictMode$AndroidBlockGuardPolicy.onReadFromDisk(StrictMode.java:1135)\n\tat android.app.SharedPreferencesImpl.awaitLoadedLocked(SharedPreferencesImpl.java:203)\n\tat android.app.SharedPreferencesImpl.edit(SharedPreferencesImpl.java:282)\n\tat com.example.myfristandroid.MainActivity.initCfg(MainActivity.java:454)\n\tat com.example.myfristandroid.MainActivity.onCreate(MainActivity.java:295)\n\tat android.app.Activity.performCreate(Activity.java:5249)\n\tat android.app.Instrumentation.callActivityOnCreate(Instrumentation.java:1087)\n\tat android.app.ActivityThread.performLaunchActivity(ActivityThread.java:2165)\n\tat android.app.ActivityThread.handleLaunchActivity(ActivityThread.java:2250)\n\tat android.app.ActivityThread.access$900(ActivityThread.java:141)\n\tat android.app.ActivityThread$H.handleMessage(ActivityThread.java:1213)\n\tat android.os.Handler.dispatchMessage(Handler.java:102)\n\tat android.os.Looper.loop(Looper.java:136)\n\tat android.app.ActivityThread.main(ActivityThread.java:5072)\n\tat java.lang.reflect.Method.invokeNative(Native Method)\n\tat java.lang.reflect.Method.invoke(Method.java:515)\n\tat com.android.internal.os.ZygoteInit$MethodAndArgsCaller.run(ZygoteInit.java:793)\n\tat com.android.internal.os.ZygoteInit.main(ZygoteInit.java:609)\n\tat dalvik.system.NativeStart.main(Native Method)\n'
p104
sa(dp105
g2
S'6785'
p106
sg4
L1449586017028L
sg5
g36
sg7
S'dalvikvm'
p107
sg9
S' 6792'
p108
sg11
S'Total arena pages for JIT: 11\n'
p109
sa(dp110
g2
S'6785'
p111
sg4
L1449586017028L
sg5
g36
sg7
S'dalvikvm'
p112
sg9
S' 6792'
p113
sg11
S'Total arena pages for JIT: 12\n'
p114
sa(dp115
g2
S'6785'
p116
sg4
L1449586017248L
sg5
g36
sg7
S'Timeline'
p117
sg9
S' 6785'
p118
sg11
S'Timeline: Activity_idle id: android.os.BinderProxy@42d052c0 time:83377748\n'
p119
sa(dp120
g2
S'6785'
p121
sg4
L1449586021508L
sg5
g36
sg7
S'Timeline'
p122
sg9
S' 6785'
p123
sg11
S'Timeline: Activity_launch_request time:83382005\n'
p124
sa(dp125
g2
S'6785'
p126
sg4
L1449586021548L
sg5
S'V'
p127
sg7
S'WebViewChromiumFactoryProvider'
p128
sg9
S' 6785'
p129
sg11
S'Binding Chromium to main looper Looper (main, tid 1) {42d032b0}\n'
p130
sa(dp131
g2
S'6785'
p132
sg4
L1449586021548L
sg5
g36
sg7
S'LibraryLoader'
p133
sg9
S' 6785'
p134
sg11
S'Expected native library version number "",actual native library version number ""\n'
p135
sa(dp136
g2
S'6785'
p137
sg4
L1449586021558L
sg5
g36
sg7
S'chromium'
p138
sg9
S' 6785'
p139
sg11
S'[INFO:library_loader_hooks.cc(116)] Chromium logging enabled: level = 0, default verbosity = 0\n'
p140
sa(dp141
g2
S'6785'
p142
sg4
L1449586021558L
sg5
g36
sg7
S'BrowserStartupController'
p143
sg9
S' 6785'
p144
sg11
S'Initializing chromium process, renderers=0\n'
p145
sa(dp146
g2
S'6785'
p147
sg4
L1449586021598L
sg5
S'W'
p148
sg7
S'chromium'
p149
sg9
S' 6882'
p150
sg11
S'[WARNING:proxy_service.cc(890)] PAC support disabled because there is no system implementation\n'
p151
sa(dp152
g2
S'6785'
p153
sg4
L1449586021628L
sg5
g30
sg7
S'EgretLoader'
p154
sg9
S' 6785'
p155
sg11
S'EgretLoader(Context context)\n'
p156
sa(dp157
g2
S'6785'
p158
sg4
L1449586021628L
sg5
g30
sg7
S'EgretLoader'
p159
sg9
S' 6785'
p160
sg11
S'The context is not activity\n'
p161
sa(dp162
g2
S'6785'
p163
sg4
L1449586021658L
sg5
g30
sg7
S'miuisdk '
p164
sg9
S' 6892'
p165
sg11
S'current sdk level is 4\n'
p166
sa(dp167
g2
S'6785'
p168
sg4
L1449586021738L
sg5
g30
sg7
S'StrictMode'
p169
sg9
S' 6785'
p170
sg11
S'StrictMode policy violation; ~duration=118 ms: android.os.StrictMode$StrictModeDiskReadViolation: policy=23 violation=2\n\tat android.os.StrictMode$AndroidBlockGuardPolicy.onReadFromDisk(StrictMode.java:1135)\n\tat libcore.io.BlockGuardOs.open(BlockGuardOs.java:106)\n\tat libcore.io.IoBridge.open(IoBridge.java:393)\n\tat java.io.FileInputStream.<init>(FileInputStream.java:78)\n\tat java.io.FileInputStream.<init>(FileInputStream.java:105)\n\tat java.io.FileReader.<init>(FileReader.java:66)\n\tat com.android.org.chromium.base.SysUtils.amountOfPhysicalMemoryKB(SysUtils.java:56)\n\tat com.android.org.chromium.base.SysUtils.detectLowEndDevice(SysUtils.java:125)\n\tat com.android.org.chromium.base.SysUtils.isLowEndDevice(SysUtils.java:99)\n\tat com.android.org.chromium.content.browser.BindingManager.createBindingManager(BindingManager.java:126)\n\tat com.android.org.chromium.content.browser.ChildProcessLauncher.<clinit>(ChildProcessLauncher.java:211)\n\tat com.android.org.chromium.content.browser.ContentViewCore.onShow(ContentViewCore.java:1621)\n\tat com.android.org.chromium.android_webview.AwContents.setNewAwContents(AwContents.java:576)\n\tat com.android.org.chromium.android_webview.AwContents.<init>(AwContents.java:517)\n\tat com.android.org.chromium.android_webview.AwContents.<init>(AwContents.java:464)\n\tat com.android.webview.chromium.WebViewChromium.initForReal(WebViewChromium.java:252)\n\tat com.android.webview.chromium.WebViewChromium.access$100(WebViewChromium.java:86)\n\tat com.android.webview.chromium.WebViewChromium$1.run(WebViewChromium.java:239)\n\tat com.android.webview.chromium.WebViewChromium$WebViewChromiumRunQueue.drainQueue(WebViewChromium.java:113)\n\tat com.android.webview.chromium.WebViewChromium$WebViewChromiumRunQueue$1.run(WebViewChromium.java:100)\n\tat com.android.org.chromium.base.ThreadUtils.runOnUiThread(ThreadUtils.java:144)\n\tat com.android.webview.chromium.WebViewChromium$WebViewChromiumRunQueue.addTask(WebViewChromium.java:97)\n\tat com.android.webview.chromium.WebViewChromium.init(WebViewChromium.java:236)\n\tat android.webkit.WebView.<init>(WebView.java:508)\n\tat android.webkit.WebView.<init>(WebView.java:475)\n\tat android.webkit.WebView.<init>(WebView.java:455)\n\tat android.webkit.WebView.<init>(WebView.java:444)\n\tat com.example.myfristandroid.MyWebView.<init>(MyWebView.java:36)\n\tat java.lang.reflect.Constructor.constructNative(Native Method)\n\tat java.lang.reflect.Constructor.newInstance(Constructor.java:423)\n\tat android.view.LayoutInflater.createView(LayoutInflater.java:597)\n\tat android.view.LayoutInflater.createViewFromTag(LayoutInflater.java:699)\n\tat android.view.LayoutInflater.rInflate(LayoutInflater.java:758)\n\tat android.view.LayoutInflater.inflate(LayoutInflater.java:495)\n\tat android.view.LayoutInflater.inflate(LayoutInflater.java:400)\n\tat android.view.LayoutInflater.inflate(LayoutInflater.java:353)\n\tat com.android.internal.policy.impl.PhoneWindow.setContentView(PhoneWindow.java:290)\n\tat android.app.Activity.setContentView(Activity.java:1947)\n\tat com.example.myfristandroid.graphWebShow.onCreate(graphWebShow.java:42)\n\tat android.app.Activity.performCreate(Activity.java:5249)\n\tat android.app.Instrumentation.callActivityOnCreate(Instrumentation.java:1087)\n\tat android.app.ActivityThread.performLaunchActivity(ActivityThread.java:2165)\n\tat android.app.ActivityThread.handleLaunchActivity(ActivityThread.java:2250)\n\tat android.app.ActivityThread.access$900(ActivityThread.java:141)\n\tat android.app.ActivityThread$H.handleMessage(ActivityThread.java:1213)\n\tat android.os.Handler.dispatchMessage(Handler.java:102)\n\tat android.os.Looper.loop(Looper.java:136)\n\tat android.app.ActivityThread.main(ActivityThread.java:5072)\n\tat java.lang.reflect.Method.invokeNative(Native Method)\n\tat java.lang.reflect.Method.invoke(Method.java:515)\n\tat com.android.internal.os.ZygoteInit$MethodAndArgsCaller.run(ZygoteInit.java:793)\n\tat com.android.internal.os.ZygoteInit.main(ZygoteInit.java:609)\n\tat dalvik.system.NativeStart.main(Native Method)\n'
p171
sa(dp172
g2
S'6785'
p173
sg4
L1449586021738L
sg5
g30
sg7
S'StrictMode'
p174
sg9
S' 6785'
p175
sg11
S'StrictMode policy violation; ~duration=115 ms: android.os.StrictMode$StrictModeDiskReadViolation: policy=23 violation=2\n\tat android.os.StrictMode$AndroidBlockGuardPolicy.onReadFromDisk(StrictMode.java:1135)\n\tat libcore.io.BlockGuardOs.read(BlockGuardOs.java:148)\n\tat libcore.io.IoBridge.read(IoBridge.java:425)\n\tat java.io.FileInputStream.read(FileInputStream.java:179)\n\tat java.io.InputStreamReader.read(InputStreamReader.java:233)\n\tat java.io.BufferedReader.fillBuf(BufferedReader.java:145)\n\tat java.io.BufferedReader.readLine(BufferedReader.java:397)\n\tat com.android.org.chromium.base.SysUtils.amountOfPhysicalMemoryKB(SysUtils.java:62)\n\tat com.android.org.chromium.base.SysUtils.detectLowEndDevice(SysUtils.java:125)\n\tat com.android.org.chromium.base.SysUtils.isLowEndDevice(SysUtils.java:99)\n\tat com.android.org.chromium.content.browser.BindingManager.createBindingManager(BindingManager.java:126)\n\tat com.android.org.chromium.content.browser.ChildProcessLauncher.<clinit>(ChildProcessLauncher.java:211)\n\tat com.android.org.chromium.content.browser.ContentViewCore.onShow(ContentViewCore.java:1621)\n\tat com.android.org.chromium.android_webview.AwContents.setNewAwContents(AwContents.java:576)\n\tat com.android.org.chromium.android_webview.AwContents.<init>(AwContents.java:517)\n\tat com.android.org.chromium.android_webview.AwContents.<init>(AwContents.java:464)\n\tat com.android.webview.chromium.WebViewChromium.initForReal(WebViewChromium.java:252)\n\tat com.android.webview.chromium.WebViewChromium.access$100(WebViewChromium.java:86)\n\tat com.android.webview.chromium.WebViewChromium$1.run(WebViewChromium.java:239)\n\tat com.android.webview.chromium.WebViewChromium$WebViewChromiumRunQueue.drainQueue(WebViewChromium.java:113)\n\tat com.android.webview.chromium.WebViewChromium$WebViewChromiumRunQueue$1.run(WebViewChromium.java:100)\n\tat com.android.org.chromium.base.ThreadUtils.runOnUiThread(ThreadUtils.java:144)\n\tat com.android.webview.chromium.WebViewChromium$WebViewChromiumRunQueue.addTask(WebViewChromium.java:97)\n\tat com.android.webview.chromium.WebViewChromium.init(WebViewChromium.java:236)\n\tat android.webkit.WebView.<init>(WebView.java:508)\n\tat android.webkit.WebView.<init>(WebView.java:475)\n\tat android.webkit.WebView.<init>(WebView.java:455)\n\tat android.webkit.WebView.<init>(WebView.java:444)\n\tat com.example.myfristandroid.MyWebView.<init>(MyWebView.java:36)\n\tat java.lang.reflect.Constructor.constructNative(Native Method)\n\tat java.lang.reflect.Constructor.newInstance(Constructor.java:423)\n\tat android.view.LayoutInflater.createView(LayoutInflater.java:597)\n\tat android.view.LayoutInflater.createViewFromTag(LayoutInflater.java:699)\n\tat android.view.LayoutInflater.rInflate(LayoutInflater.java:758)\n\tat android.view.LayoutInflater.inflate(LayoutInflater.java:495)\n\tat android.view.LayoutInflater.inflate(LayoutInflater.java:400)\n\tat android.view.LayoutInflater.inflate(LayoutInflater.java:353)\n\tat com.android.internal.policy.impl.PhoneWindow.setContentView(PhoneWindow.java:290)\n\tat android.app.Activity.setContentView(Activity.java:1947)\n\tat com.example.myfristandroid.graphWebShow.onCreate(graphWebShow.java:42)\n\tat android.app.Activity.performCreate(Activity.java:5249)\n\tat android.app.Instrumentation.callActivityOnCreate(Instrumentation.java:1087)\n\tat android.app.ActivityThread.performLaunchActivity(ActivityThread.java:2165)\n\tat android.app.ActivityThread.handleLaunchActivity(ActivityThread.java:2250)\n\tat android.app.ActivityThread.access$900(ActivityThread.java:141)\n\tat android.app.ActivityThread$H.handleMessage(ActivityThread.java:1213)\n\tat android.os.Handler.dispatchMessage(Handler.java:102)\n\tat android.os.Looper.loop(Looper.java:136)\n\tat android.app.ActivityThread.main(ActivityThread.java:5072)\n\tat java.lang.reflect.Method.invokeNative(Native Method)\n\tat java.lang.reflect.Method.invoke(Method.java:515)\n\tat com.android.internal.os.ZygoteInit$MethodAndArgsCaller.run(ZygoteInit.java:793)\n\tat com.android.internal.os.ZygoteInit.main(ZygoteInit.java:609)\n\tat dalvik.system.NativeStart.main(Native Method)\n'
p176
sa(dp177
g2
S'6785'
p178
sg4
L1449586021778L
sg5
g148
sg7
S'AwContents'
p179
sg9
S' 6785'
p180
sg11
S'nativeOnDraw failed; clearing to background color.\n'
p181
sa(dp182
g2
S'6785'
p183
sg4
L1449586021798L
sg5
g148
sg7
S'AwContents'
p184
sg9
S' 6785'
p185
sg11
S'nativeOnDraw failed; clearing to background color.\n'
p186
sa(dp187
g2
S'6785'
p188
sg4
L1449586021828L
sg5
g36
sg7
S'Timeline'
p189
sg9
S' 6785'
p190
sg11
S'Timeline: Activity_idle id: android.os.BinderProxy@433c3bb0 time:83382327\n'
p191
sa(dp192
g2
S'6785'
p193
sg4
L1449586021858L
sg5
g36
sg7
S'chromium'
p194
sg9
S' 6909'
p195
sg11
S'[INFO:simple_index_file.cc(437)] Simple Cache Index is being restored from disk.\n'
p196
sa(dp197
g2
S'6785'
p198
sg4
L1449586022618L
sg5
g36
sg7
S'chromium'
p199
sg9
S' 6785'
p200
sg11
S'[INFO:CONSOLE(0)] "The page at \'https://m.baidu.com/?from=1010888z\' was loaded over HTTPS, but ran insecure content from \'http://127.0.0.1:6259/getapn?callback=getapn&mcmdf=inapp_test\': this content should also be loaded over HTTPS.\n", source: https://m.baidu.com/?from=1010888z (0)\n'
p201
sa(dp202
g2
S'6785'
p203
sg4
L1449586022618L
sg5
g148
sg7
S'chromium'
p204
sg9
S' 6785'
p205
sg11
S'[WARNING:web_contents_impl.cc(2250)] https://m.baidu.com ran insecure content from http://127.0.0.1:6259/getapn?callback=getapn&mcmdf=inapp_test\n'
p206
sa(dp207
g2
S'6785'
p208
sg4
L1449586022618L
sg5
g36
sg7
S'chromium'
p209
sg9
S' 6785'
p210
sg11
S'[INFO:CONSOLE(0)] "The page at \'https://m.baidu.com/?from=1010888z\' was loaded over HTTPS, but ran insecure content from \'http://127.0.0.1:40310/getapn?callback=getapn&mcmdf=inapp_test\': this content should also be loaded over HTTPS.\n", source: https://m.baidu.com/?from=1010888z (0)\n'
p211
sa(dp212
g2
S'6785'
p213
sg4
L1449586022618L
sg5
g148
sg7
S'chromium'
p214
sg9
S' 6785'
p215
sg11
S'[WARNING:web_contents_impl.cc(2250)] https://m.baidu.com ran insecure content from http://127.0.0.1:40310/getapn?callback=getapn&mcmdf=inapp_test\n'
p216
sa(dp217
g2
S'6785'
p218
sg4
L1449586023048L
sg5
g36
sg7
S'chromium'
p219
sg9
S' 6785'
p220
sg11
S'[INFO:CONSOLE(0)] "The page at \'https://m.baidu.com/?from=1010888z\' was loaded over HTTPS, but ran insecure content from \'http://127.0.0.1:40310/getsearchboxinfo?mcmdf=inapp_boxserver&callback=_box_jsonp923\': this content should also be loaded over HTTPS.\n", source: https://m.baidu.com/?from=1010888z (0)\n'
p221
sa(dp222
g2
S'6785'
p223
sg4
L1449586023048L
sg5
g148
sg7
S'chromium'
p224
sg9
S' 6785'
p225
sg11
S'[WARNING:web_contents_impl.cc(2250)] https://m.baidu.com ran insecure content from http://127.0.0.1:40310/getsearchboxinfo?mcmdf=inapp_boxserver&callback=_box_jsonp923\n'
p226
sa(dp227
g2
S'6785'
p228
sg4
L1449586023068L
sg5
g36
sg7
S'chromium'
p229
sg9
S' 6785'
p230
sg11
S'[INFO:CONSOLE(0)] "The page at \'https://m.baidu.com/?from=1010888z\' was loaded over HTTPS, but ran insecure content from \'http://127.0.0.1:7777/geolocation?timeout=10000&callback=jsonp2&gps=1&t=0.4056112098041922&_=1449586023074\': this content should also be loaded over HTTPS.\n", source: https://m.baidu.com/?from=1010888z (0)\n'
p231
sa(dp232
g2
S'6785'
p233
sg4
L1449586023068L
sg5
g148
sg7
S'chromium'
p234
sg9
S' 6785'
p235
sg11
S'[WARNING:web_contents_impl.cc(2250)] https://m.baidu.com ran insecure content from http://127.0.0.1:7777/geolocation?timeout=10000&callback=jsonp2&gps=1&t=0.4056112098041922&_=1449586023074\n'
p236
sa(dp237
g2
S'6785'
p238
sg4
L1449586023508L
sg5
g36
sg7
S'chromium'
p239
sg9
S' 6785'
p240
sg11
S'[INFO:CONSOLE(0)] "The page at \'https://m.baidu.com/?from=1010888z\' was loaded over HTTPS, but ran insecure content from \'http://127.0.0.1:40310/getsearchboxinfo?mcmdf=inapp_boxserver&callback=_box_jsonp924\': this content should also be loaded over HTTPS.\n", source: https://m.baidu.com/?from=1010888z (0)\n'
p241
sa(dp242
g2
S'6785'
p243
sg4
L1449586023508L
sg5
g148
sg7
S'chromium'
p244
sg9
S' 6785'
p245
sg11
S'[WARNING:web_contents_impl.cc(2250)] https://m.baidu.com ran insecure content from http://127.0.0.1:40310/getsearchboxinfo?mcmdf=inapp_boxserver&callback=_box_jsonp924\n'
p246
sa(dp247
g2
S'6785'
p248
sg4
L1449586023688L
sg5
g36
sg7
S'Timeline'
p249
sg9
S' 6785'
p250
sg11
S'Timeline: Activity_idle id: android.os.BinderProxy@42d052c0 time:83384184\n'
p251
sa(dp252
g2
S'6785'
p253
sg4
L1449586026818L
sg5
g36
sg7
S'Timeline'
p254
sg9
S' 6785'
p255
sg11
S'Timeline: Activity_launch_request time:83387311\n'
p256
sa(dp257
g2
S'6785'
p258
sg4
L1449586026858L
sg5
g30
sg7
S'EgretLoader'
p259
sg9
S' 6785'
p260
sg11
S'EgretLoader(Context context)\n'
p261
sa(dp262
g2
S'6785'
p263
sg4
L1449586026858L
sg5
g30
sg7
S'EgretLoader'
p264
sg9
S' 6785'
p265
sg11
S'The context is not activity\n'
p266
sa(dp267
g2
S'6785'
p268
sg4
L1449586026908L
sg5
g148
sg7
S'AwContents'
p269
sg9
S' 6785'
p270
sg11
S'nativeOnDraw failed; clearing to background color.\n'
p271
sa(dp272
g2
S'6785'
p273
sg4
L1449586026928L
sg5
g148
sg7
S'AwContents'
p274
sg9
S' 6785'
p275
sg11
S'nativeOnDraw failed; clearing to background color.\n'
p276
sa(dp277
g2
S'6785'
p278
sg4
L1449586026978L
sg5
g36
sg7
S'Timeline'
p279
sg9
S' 6785'
p280
sg11
S'Timeline: Activity_idle id: android.os.BinderProxy@457decc8 time:83387478\n'
p281
sa(dp282
g2
S'6785'
p283
sg4
L1449586027758L
sg5
g36
sg7
S'chromium'
p284
sg9
S' 6785'
p285
sg11
S'[INFO:CONSOLE(0)] "The page at \'https://m.baidu.com/?from=1010888z\' was loaded over HTTPS, but ran insecure content from \'http://127.0.0.1:6259/getapn?callback=getapn&mcmdf=inapp_test\': this content should also be loaded over HTTPS.\n", source: https://m.baidu.com/?from=1010888z (0)\n'
p286
sa(dp287
g2
S'6785'
p288
sg4
L1449586027758L
sg5
g148
sg7
S'chromium'
p289
sg9
S' 6785'
p290
sg11
S'[WARNING:web_contents_impl.cc(2250)] https://m.baidu.com ran insecure content from http://127.0.0.1:6259/getapn?callback=getapn&mcmdf=inapp_test\n'
p291
sa(dp292
g2
S'6785'
p293
sg4
L1449586027768L
sg5
g36
sg7
S'chromium'
p294
sg9
S' 6785'
p295
sg11
S'[INFO:CONSOLE(0)] "The page at \'https://m.baidu.com/?from=1010888z\' was loaded over HTTPS, but ran insecure content from \'http://127.0.0.1:40310/getapn?callback=getapn&mcmdf=inapp_test\': this content should also be loaded over HTTPS.\n", source: https://m.baidu.com/?from=1010888z (0)\n'
p296
sa(dp297
g2
S'6785'
p298
sg4
L1449586027768L
sg5
g148
sg7
S'chromium'
p299
sg9
S' 6785'
p300
sg11
S'[WARNING:web_contents_impl.cc(2250)] https://m.baidu.com ran insecure content from http://127.0.0.1:40310/getapn?callback=getapn&mcmdf=inapp_test\n'
p301
sa(dp302
g2
S'6785'
p303
sg4
L1449586028108L
sg5
g36
sg7
S'chromium'
p304
sg9
S' 6785'
p305
sg11
S'[INFO:CONSOLE(0)] "The page at \'https://m.baidu.com/?from=1010888z\' was loaded over HTTPS, but ran insecure content from \'http://127.0.0.1:40310/getsearchboxinfo?mcmdf=inapp_boxserver&callback=_box_jsonp59\': this content should also be loaded over HTTPS.\n", source: https://m.baidu.com/?from=1010888z (0)\n'
p306
sa(dp307
g2
S'6785'
p308
sg4
L1449586028128L
sg5
g148
sg7
S'chromium'
p309
sg9
S' 6785'
p310
sg11
S'[WARNING:web_contents_impl.cc(2250)] https://m.baidu.com ran insecure content from http://127.0.0.1:40310/getsearchboxinfo?mcmdf=inapp_boxserver&callback=_box_jsonp59\n'
p311
sa(dp312
g2
S'6785'
p313
sg4
L1449586028128L
sg5
g36
sg7
S'chromium'
p314
sg9
S' 6785'
p315
sg11
S'[INFO:CONSOLE(0)] "The page at \'https://m.baidu.com/?from=1010888z\' was loaded over HTTPS, but ran insecure content from \'http://127.0.0.1:7777/geolocation?timeout=10000&callback=jsonp2&gps=1&t=0.21107040904462337&_=1449586028131\': this content should also be loaded over HTTPS.\n", source: https://m.baidu.com/?from=1010888z (0)\n'
p316
sa(dp317
g2
S'6785'
p318
sg4
L1449586028128L
sg5
g148
sg7
S'chromium'
p319
sg9
S' 6785'
p320
sg11
S'[WARNING:web_contents_impl.cc(2250)] https://m.baidu.com ran insecure content from http://127.0.0.1:7777/geolocation?timeout=10000&callback=jsonp2&gps=1&t=0.21107040904462337&_=1449586028131\n'
p321
sa(dp322
g2
S'6785'
p323
sg4
L1449586028298L
sg5
g30
sg7
S'dalvikvm'
p324
sg9
S' 6785'
p325
sg11
S'GC_FOR_ALLOC freed 2210K, 4% free 64513K/66748K, paused 18ms, total 18ms\n'
p326
sa(dp327
g2
S'6785'
p328
sg4
L1449586028388L
sg5
g30
sg7
S'dalvikvm'
p329
sg9
S' 6785'
p330
sg11
S'GC_FOR_ALLOC freed 76K, 4% free 72539K/74852K, paused 12ms, total 12ms\n'
p331
sa(dp332
g2
S'6785'
p333
sg4
L1449586028408L
sg5
g36
sg7
S'chromium'
p334
sg9
S' 6785'
p335
sg11
S'[INFO:CONSOLE(0)] "The page at \'https://m.baidu.com/?from=1010888z\' was loaded over HTTPS, but displayed insecure content from \'http://111.13.12.43/static/tj.gif?pagetype=nindexs&sids=101085_100978_102280_102323_102017_100039_100819_102552_102406_102545_102278_102277_100100_100152_101598_101980_101626_101964_101999_102144_102510_102195_102232_102240_102242_102251_101530_102361_102451_102355&logid=13865547980382795348&ta_net=1&header=19&plus_default=280&domc=536&load=537&combo_net=781&combo_code=904&plus_net=1025&plus_code=1145&net1=611&net2=68&net3=68\': this content should also be loaded over HTTPS.\n", source: https://m.baidu.com/?from=1010888z (0)\n'
p336
sa(dp337
g2
S'6785'
p338
sg4
L1449586028528L
sg5
g36
sg7
S'chromium'
p339
sg9
S' 6785'
p340
sg11
S'[INFO:CONSOLE(0)] "The page at \'https://m.baidu.com/?from=1010888z\' was loaded over HTTPS, but ran insecure content from \'http://127.0.0.1:40310/getsearchboxinfo?mcmdf=inapp_boxserver&callback=_box_jsonp60\': this content should also be loaded over HTTPS.\n", source: https://m.baidu.com/?from=1010888z (0)\n'
p341
sa(dp342
g2
S'6785'
p343
sg4
L1449586028528L
sg5
g148
sg7
S'chromium'
p344
sg9
S' 6785'
p345
sg11
S'[WARNING:web_contents_impl.cc(2250)] https://m.baidu.com ran insecure content from http://127.0.0.1:40310/getsearchboxinfo?mcmdf=inapp_boxserver&callback=_box_jsonp60\n'
p346
sa(dp347
g2
S'6785'
p348
sg4
L1449586028608L
sg5
g30
sg7
S'cn.edu.nju.ise.kikandroid'
p349
sg9
S' 6847'
p350
sg11
S'Screenshot:1449586028281\n'
p351
sa(dp352
g2
S'6785'
p353
sg4
L1449586030408L
sg5
g36
sg7
S'Timeline'
p354
sg9
S' 6785'
p355
sg11
S'Timeline: Activity_idle id: android.os.BinderProxy@42d052c0 time:83390903\n'
p356
sa(dp357
g2
S'6785'
p358
sg4
L1449586031088L
sg5
g36
sg7
S'chromium'
p359
sg9
S' 6785'
p360
sg11
S'[INFO:CONSOLE(0)] "The page at \'https://m.baidu.com/?from=1010888z\' was loaded over HTTPS, but ran insecure content from \'http://127.0.0.1:40310/geolocation?timeout=10000&gps=1&mcmdf=inapp_wiselocation&callback=_box_jsonp925\': this content should also be loaded over HTTPS.\n", source: https://m.baidu.com/?from=1010888z (0)\n'
p361
sa(dp362
g2
S'6785'
p363
sg4
L1449586031088L
sg5
g148
sg7
S'chromium'
p364
sg9
S' 6785'
p365
sg11
S'[WARNING:web_contents_impl.cc(2250)] https://m.baidu.com ran insecure content from http://127.0.0.1:40310/geolocation?timeout=10000&gps=1&mcmdf=inapp_wiselocation&callback=_box_jsonp925\n'
p366
sa(dp367
g2
S'6785'
p368
sg4
L1449586033158L
sg5
g36
sg7
S'Timeline'
p369
sg9
S' 6785'
p370
sg11
S'Timeline: Activity_launch_request time:83393647\n'
p371
sa(dp372
g2
S'6785'
p373
sg4
L1449586033188L
sg5
g30
sg7
S'EgretLoader'
p374
sg9
S' 6785'
p375
sg11
S'EgretLoader(Context context)\n'
p376
sa(dp377
g2
S'6785'
p378
sg4
L1449586033188L
sg5
g30
sg7
S'EgretLoader'
p379
sg9
S' 6785'
p380
sg11
S'The context is not activity\n'
p381
sa(dp382
g2
S'6785'
p383
sg4
L1449586033238L
sg5
g148
sg7
S'AwContents'
p384
sg9
S' 6785'
p385
sg11
S'nativeOnDraw failed; clearing to background color.\n'
p386
sa(dp387
g2
S'6785'
p388
sg4
L1449586033258L
sg5
g148
sg7
S'AwContents'
p389
sg9
S' 6785'
p390
sg11
S'nativeOnDraw failed; clearing to background color.\n'
p391
sa(dp392
g2
S'6785'
p393
sg4
L1449586033308L
sg5
g36
sg7
S'Timeline'
p394
sg9
S' 6785'
p395
sg11
S'Timeline: Activity_idle id: android.os.BinderProxy@433ae020 time:83393800\n'
p396
sa(dp397
g2
S'6785'
p398
sg4
L1449586033568L
sg5
g36
sg7
S'chromium'
p399
sg9
S' 6785'
p400
sg11
S'[INFO:CONSOLE(0)] "The page at \'https://m.baidu.com/?from=1010888z\' was loaded over HTTPS, but ran insecure content from \'http://127.0.0.1:6259/getapn?callback=getapn&mcmdf=inapp_test\': this content should also be loaded over HTTPS.\n", source: https://m.baidu.com/?from=1010888z (0)\n'
p401
sa(dp402
g2
S'6785'
p403
sg4
L1449586033568L
sg5
g148
sg7
S'chromium'
p404
sg9
S' 6785'
p405
sg11
S'[WARNING:web_contents_impl.cc(2250)] https://m.baidu.com ran insecure content from http://127.0.0.1:6259/getapn?callback=getapn&mcmdf=inapp_test\n'
p406
sa(dp407
g2
S'6785'
p408
sg4
L1449586033568L
sg5
g36
sg7
S'chromium'
p409
sg9
S' 6785'
p410
sg11
S'[INFO:CONSOLE(0)] "The page at \'https://m.baidu.com/?from=1010888z\' was loaded over HTTPS, but ran insecure content from \'http://127.0.0.1:40310/getapn?callback=getapn&mcmdf=inapp_test\': this content should also be loaded over HTTPS.\n", source: https://m.baidu.com/?from=1010888z (0)\n'
p411
sa(dp412
g2
S'6785'
p413
sg4
L1449586033568L
sg5
g148
sg7
S'chromium'
p414
sg9
S' 6785'
p415
sg11
S'[WARNING:web_contents_impl.cc(2250)] https://m.baidu.com ran insecure content from http://127.0.0.1:40310/getapn?callback=getapn&mcmdf=inapp_test\n'
p416
sa(dp417
g2
S'6785'
p418
sg4
L1449586033838L
sg5
g36
sg7
S'chromium'
p419
sg9
S' 6785'
p420
sg11
S'[INFO:CONSOLE(0)] "The page at \'https://m.baidu.com/?from=1010888z\' was loaded over HTTPS, but ran insecure content from \'http://127.0.0.1:40310/getsearchboxinfo?mcmdf=inapp_boxserver&callback=_box_jsonp806\': this content should also be loaded over HTTPS.\n", source: https://m.baidu.com/?from=1010888z (0)\n'
p421
sa(dp422
g2
S'6785'
p423
sg4
L1449586033838L
sg5
g148
sg7
S'chromium'
p424
sg9
S' 6785'
p425
sg11
S'[WARNING:web_contents_impl.cc(2250)] https://m.baidu.com ran insecure content from http://127.0.0.1:40310/getsearchboxinfo?mcmdf=inapp_boxserver&callback=_box_jsonp806\n'
p426
sa(dp427
g2
S'6785'
p428
sg4
L1449586033848L
sg5
g36
sg7
S'chromium'
p429
sg9
S' 6785'
p430
sg11
S'[INFO:CONSOLE(0)] "The page at \'https://m.baidu.com/?from=1010888z\' was loaded over HTTPS, but ran insecure content from \'http://127.0.0.1:7777/geolocation?timeout=10000&callback=jsonp2&gps=1&t=0.3091479451395571&_=1449586033862\': this content should also be loaded over HTTPS.\n", source: https://m.baidu.com/?from=1010888z (0)\n'
p431
sa(dp432
g2
S'6785'
p433
sg4
L1449586033848L
sg5
g148
sg7
S'chromium'
p434
sg9
S' 6785'
p435
sg11
S'[WARNING:web_contents_impl.cc(2250)] https://m.baidu.com ran insecure content from http://127.0.0.1:7777/geolocation?timeout=10000&callback=jsonp2&gps=1&t=0.3091479451395571&_=1449586033862\n'
p436
sa(dp437
g2
S'6785'
p438
sg4
L1449586034158L
sg5
g36
sg7
S'chromium'
p439
sg9
S' 6785'
p440
sg11
S'[INFO:CONSOLE(0)] "The page at \'https://m.baidu.com/?from=1010888z\' was loaded over HTTPS, but ran insecure content from \'http://127.0.0.1:40310/getsearchboxinfo?mcmdf=inapp_boxserver&callback=_box_jsonp807\': this content should also be loaded over HTTPS.\n", source: https://m.baidu.com/?from=1010888z (0)\n'
p441
sa(dp442
g2
S'6785'
p443
sg4
L1449586034158L
sg5
g148
sg7
S'chromium'
p444
sg9
S' 6785'
p445
sg11
S'[WARNING:web_contents_impl.cc(2250)] https://m.baidu.com ran insecure content from http://127.0.0.1:40310/getsearchboxinfo?mcmdf=inapp_boxserver&callback=_box_jsonp807\n'
p446
sa(dp447
g2
S'6785'
p448
sg4
L1449586036128L
sg5
g30
sg7
S'dalvikvm'
p449
sg9
S' 6785'
p450
sg11
S'GC_FOR_ALLOC freed 16514K, 4% free 64523K/66748K, paused 39ms, total 41ms\n'
p451
sa(dp452
g2
S'6785'
p453
sg4
L1449586036178L
sg5
g30
sg7
S'dalvikvm'
p454
sg9
S' 6785'
p455
sg11
S'GC_FOR_ALLOC freed 22K, 4% free 72601K/74852K, paused 13ms, total 13ms\n'
p456
sa(dp457
g2
S'6785'
p458
sg4
L1449586036198L
sg5
g36
sg7
S'chromium'
p459
sg9
S' 6785'
p460
sg11
S'[INFO:CONSOLE(0)] "The page at \'https://m.baidu.com/?from=1010888z\' was loaded over HTTPS, but ran insecure content from \'http://127.0.0.1:40310/geolocation?timeout=10000&gps=1&mcmdf=inapp_wiselocation&callback=_box_jsonp61\': this content should also be loaded over HTTPS.\n", source: https://m.baidu.com/?from=1010888z (0)\n'
p461
sa(dp462
g2
S'6785'
p463
sg4
L1449586036198L
sg5
g148
sg7
S'chromium'
p464
sg9
S' 6785'
p465
sg11
S'[WARNING:web_contents_impl.cc(2250)] https://m.baidu.com ran insecure content from http://127.0.0.1:40310/geolocation?timeout=10000&gps=1&mcmdf=inapp_wiselocation&callback=_box_jsonp61\n'
p466
sa(dp467
g2
S'6785'
p468
sg4
L1449586036508L
sg5
g30
sg7
S'cn.edu.nju.ise.kikandroid'
p469
sg9
S' 6847'
p470
sg11
S'Screenshot:1449586036101\n'
p471
sa(dp472
g2
S'6785'
p473
sg4
L1449586037178L
sg5
g36
sg7
S'Timeline'
p474
sg9
S' 6785'
p475
sg11
S'Timeline: Activity_idle id: android.os.BinderProxy@42d052c0 time:83397672\n'
p476
sa(dp477
g2
S'6785'
p478
sg4
L1449586038728L
sg5
g36
sg7
S'Timeline'
p479
sg9
S' 6785'
p480
sg11
S'Timeline: Activity_launch_request time:83399222\n'
p481
sa(dp482
g2
S'6785'
p483
sg4
L1449586038768L
sg5
g30
sg7
S'EgretLoader'
p484
sg9
S' 6785'
p485
sg11
S'EgretLoader(Context context)\n'
p486
sa(dp487
g2
S'6785'
p488
sg4
L1449586038768L
sg5
g30
sg7
S'EgretLoader'
p489
sg9
S' 6785'
p490
sg11
S'The context is not activity\n'
p491
sa(dp492
g2
S'6785'
p493
sg4
L1449586038808L
sg5
g148
sg7
S'AwContents'
p494
sg9
S' 6785'
p495
sg11
S'nativeOnDraw failed; clearing to background color.\n'
p496
sa(dp497
g2
S'6785'
p498
sg4
L1449586038828L
sg5
g148
sg7
S'AwContents'
p499
sg9
S' 6785'
p500
sg11
S'nativeOnDraw failed; clearing to background color.\n'
p501
sa(dp502
g2
S'6785'
p503
sg4
L1449586038868L
sg5
g36
sg7
S'Timeline'
p504
sg9
S' 6785'
p505
sg11
S'Timeline: Activity_idle id: android.os.BinderProxy@433a9420 time:83399362\n'
p506
sa(dp507
g2
S'6785'
p508
sg4
L1449586039238L
sg5
g36
sg7
S'chromium'
p509
sg9
S' 6785'
p510
sg11
S'[INFO:CONSOLE(0)] "The page at \'https://m.baidu.com/?from=1010888z\' was loaded over HTTPS, but ran insecure content from \'http://127.0.0.1:6259/getapn?callback=getapn&mcmdf=inapp_test\': this content should also be loaded over HTTPS.\n", source: https://m.baidu.com/?from=1010888z (0)\n'
p511
sa(dp512
g2
S'6785'
p513
sg4
L1449586039238L
sg5
g148
sg7
S'chromium'
p514
sg9
S' 6785'
p515
sg11
S'[WARNING:web_contents_impl.cc(2250)] https://m.baidu.com ran insecure content from http://127.0.0.1:6259/getapn?callback=getapn&mcmdf=inapp_test\n'
p516
sa(dp517
g2
S'6785'
p518
sg4
L1449586039238L
sg5
g36
sg7
S'chromium'
p519
sg9
S' 6785'
p520
sg11
S'[INFO:CONSOLE(0)] "The page at \'https://m.baidu.com/?from=1010888z\' was loaded over HTTPS, but ran insecure content from \'http://127.0.0.1:40310/getapn?callback=getapn&mcmdf=inapp_test\': this content should also be loaded over HTTPS.\n", source: https://m.baidu.com/?from=1010888z (0)\n'
p521
sa(dp522
g2
S'6785'
p523
sg4
L1449586039238L
sg5
g148
sg7
S'chromium'
p524
sg9
S' 6785'
p525
sg11
S'[WARNING:web_contents_impl.cc(2250)] https://m.baidu.com ran insecure content from http://127.0.0.1:40310/getapn?callback=getapn&mcmdf=inapp_test\n'
p526
sa(dp527
g2
S'6785'
p528
sg4
L1449586039598L
sg5
g36
sg7
S'chromium'
p529
sg9
S' 6785'
p530
sg11
S'[INFO:CONSOLE(0)] "The page at \'https://m.baidu.com/?from=1010888z\' was loaded over HTTPS, but ran insecure content from \'http://127.0.0.1:40310/getsearchboxinfo?mcmdf=inapp_boxserver&callback=_box_jsonp561\': this content should also be loaded over HTTPS.\n", source: https://m.baidu.com/?from=1010888z (0)\n'
p531
sa(dp532
g2
S'6785'
p533
sg4
L1449586039598L
sg5
g148
sg7
S'chromium'
p534
sg9
S' 6785'
p535
sg11
S'[WARNING:web_contents_impl.cc(2250)] https://m.baidu.com ran insecure content from http://127.0.0.1:40310/getsearchboxinfo?mcmdf=inapp_boxserver&callback=_box_jsonp561\n'
p536
sa(dp537
g2
S'6785'
p538
sg4
L1449586039608L
sg5
g36
sg7
S'chromium'
p539
sg9
S' 6785'
p540
sg11
S'[INFO:CONSOLE(0)] "The page at \'https://m.baidu.com/?from=1010888z\' was loaded over HTTPS, but ran insecure content from \'http://127.0.0.1:7777/geolocation?timeout=10000&callback=jsonp2&gps=1&t=0.3047237789724022&_=1449586039623\': this content should also be loaded over HTTPS.\n", source: https://m.baidu.com/?from=1010888z (0)\n'
p541
sa(dp542
g2
S'6785'
p543
sg4
L1449586039608L
sg5
g148
sg7
S'chromium'
p544
sg9
S' 6785'
p545
sg11
S'[WARNING:web_contents_impl.cc(2250)] https://m.baidu.com ran insecure content from http://127.0.0.1:7777/geolocation?timeout=10000&callback=jsonp2&gps=1&t=0.3047237789724022&_=1449586039623\n'
p546
sa(dp547
g2
S'6785'
p548
sg4
L1449586039898L
sg5
g36
sg7
S'chromium'
p549
sg9
S' 6785'
p550
sg11
S'[INFO:CONSOLE(0)] "The page at \'https://m.baidu.com/?from=1010888z\' was loaded over HTTPS, but ran insecure content from \'http://127.0.0.1:40310/getsearchboxinfo?mcmdf=inapp_boxserver&callback=_box_jsonp562\': this content should also be loaded over HTTPS.\n", source: https://m.baidu.com/?from=1010888z (0)\n'
p551
sa(dp552
g2
S'6785'
p553
sg4
L1449586039898L
sg5
g148
sg7
S'chromium'
p554
sg9
S' 6785'
p555
sg11
S'[WARNING:web_contents_impl.cc(2250)] https://m.baidu.com ran insecure content from http://127.0.0.1:40310/getsearchboxinfo?mcmdf=inapp_boxserver&callback=_box_jsonp562\n'
p556
sa(dp557
g2
S'6785'
p558
sg4
L1449586041378L
sg5
g30
sg7
S'dalvikvm'
p559
sg9
S' 6785'
p560
sg11
S'GC_FOR_ALLOC freed 16468K, 4% free 64571K/66748K, paused 36ms, total 37ms\n'
p561
sa(dp562
g2
S'6785'
p563
sg4
L1449586041428L
sg5
g30
sg7
S'dalvikvm'
p564
sg9
S' 6785'
p565
sg11
S'GC_FOR_ALLOC freed 22K, 3% free 72649K/74852K, paused 14ms, total 14ms\n'
p566
sa(dp567
g2
S'6785'
p568
sg4
L1449586041598L
sg5
g30
sg7
S'cn.edu.nju.ise.kikandroid'
p569
sg9
S' 6847'
p570
sg11
S'Screenshot:1449586041353\n'
p571
sa(dp572
g2
S'6785'
p573
sg4
L1449586041858L
sg5
g36
sg7
S'chromium'
p574
sg9
S' 6785'
p575
sg11
S'[INFO:CONSOLE(0)] "The page at \'https://m.baidu.com/?from=1010888z\' was loaded over HTTPS, but ran insecure content from \'http://127.0.0.1:40310/geolocation?timeout=10000&gps=1&mcmdf=inapp_wiselocation&callback=_box_jsonp808\': this content should also be loaded over HTTPS.\n", source: https://m.baidu.com/?from=1010888z (0)\n'
p576
sa(dp577
g2
S'6785'
p578
sg4
L1449586041858L
sg5
g148
sg7
S'chromium'
p579
sg9
S' 6785'
p580
sg11
S'[WARNING:web_contents_impl.cc(2250)] https://m.baidu.com ran insecure content from http://127.0.0.1:40310/geolocation?timeout=10000&gps=1&mcmdf=inapp_wiselocation&callback=_box_jsonp808\n'
p581
sa(dp582
g2
S'6785'
p583
sg4
L1449586042098L
sg5
g36
sg7
S'Timeline'
p584
sg9
S' 6785'
p585
sg11
S'Timeline: Activity_idle id: android.os.BinderProxy@42d052c0 time:83402591\n'
p586
sa(dp587
g2
S'6785'
p588
sg4
L1449586043088L
sg5
g36
sg7
S'Timeline'
p589
sg9
S' 6785'
p590
sg11
S'Timeline: Activity_launch_request time:83403587\n'
p591
sa(dp592
g2
S'6785'
p593
sg4
L1449586043128L
sg5
g30
sg7
S'EgretLoader'
p594
sg9
S' 6785'
p595
sg11
S'EgretLoader(Context context)\n'
p596
sa(dp597
g2
S'6785'
p598
sg4
L1449586043128L
sg5
g30
sg7
S'EgretLoader'
p599
sg9
S' 6785'
p600
sg11
S'The context is not activity\n'
p601
sa(dp602
g2
S'6785'
p603
sg4
L1449586043168L
sg5
g148
sg7
S'AwContents'
p604
sg9
S' 6785'
p605
sg11
S'nativeOnDraw failed; clearing to background color.\n'
p606
sa(dp607
g2
S'6785'
p608
sg4
L1449586043198L
sg5
g148
sg7
S'AwContents'
p609
sg9
S' 6785'
p610
sg11
S'nativeOnDraw failed; clearing to background color.\n'
p611
sa(dp612
g2
S'6785'
p613
sg4
L1449586043228L
sg5
g36
sg7
S'Timeline'
p614
sg9
S' 6785'
p615
sg11
S'Timeline: Activity_idle id: android.os.BinderProxy@4571e120 time:83403728\n'
p616
sa(dp617
g2
S'6785'
p618
sg4
L1449586043488L
sg5
g36
sg7
S'chromium'
p619
sg9
S' 6785'
p620
sg11
S'[INFO:CONSOLE(0)] "The page at \'https://m.baidu.com/?from=1010888z\' was loaded over HTTPS, but ran insecure content from \'http://127.0.0.1:6259/getapn?callback=getapn&mcmdf=inapp_test\': this content should also be loaded over HTTPS.\n", source: https://m.baidu.com/?from=1010888z (0)\n'
p621
sa(dp622
g2
S'6785'
p623
sg4
L1449586043488L
sg5
g148
sg7
S'chromium'
p624
sg9
S' 6785'
p625
sg11
S'[WARNING:web_contents_impl.cc(2250)] https://m.baidu.com ran insecure content from http://127.0.0.1:6259/getapn?callback=getapn&mcmdf=inapp_test\n'
p626
sa(dp627
g2
S'6785'
p628
sg4
L1449586043498L
sg5
g36
sg7
S'chromium'
p629
sg9
S' 6785'
p630
sg11
S'[INFO:CONSOLE(0)] "The page at \'https://m.baidu.com/?from=1010888z\' was loaded over HTTPS, but ran insecure content from \'http://127.0.0.1:40310/getapn?callback=getapn&mcmdf=inapp_test\': this content should also be loaded over HTTPS.\n", source: https://m.baidu.com/?from=1010888z (0)\n'
p631
sa(dp632
g2
S'6785'
p633
sg4
L1449586043498L
sg5
g148
sg7
S'chromium'
p634
sg9
S' 6785'
p635
sg11
S'[WARNING:web_contents_impl.cc(2250)] https://m.baidu.com ran insecure content from http://127.0.0.1:40310/getapn?callback=getapn&mcmdf=inapp_test\n'
p636
sa(dp637
g2
S'6785'
p638
sg4
L1449586043808L
sg5
g36
sg7
S'chromium'
p639
sg9
S' 6785'
p640
sg11
S'[INFO:CONSOLE(0)] "The page at \'https://m.baidu.com/?from=1010888z\' was loaded over HTTPS, but ran insecure content from \'http://127.0.0.1:40310/getsearchboxinfo?mcmdf=inapp_boxserver&callback=_box_jsonp730\': this content should also be loaded over HTTPS.\n", source: https://m.baidu.com/?from=1010888z (0)\n'
p641
sa(dp642
g2
S'6785'
p643
sg4
L1449586043808L
sg5
g148
sg7
S'chromium'
p644
sg9
S' 6785'
p645
sg11
S'[WARNING:web_contents_impl.cc(2250)] https://m.baidu.com ran insecure content from http://127.0.0.1:40310/getsearchboxinfo?mcmdf=inapp_boxserver&callback=_box_jsonp730\n'
p646
sa(dp647
g2
S'6785'
p648
sg4
L1449586043818L
sg5
g36
sg7
S'chromium'
p649
sg9
S' 6785'
p650
sg11
S'[INFO:CONSOLE(0)] "The page at \'https://m.baidu.com/?from=1010888z\' was loaded over HTTPS, but ran insecure content from \'http://127.0.0.1:7777/geolocation?timeout=10000&callback=jsonp2&gps=1&t=0.807280003093183&_=1449586043832\': this content should also be loaded over HTTPS.\n", source: https://m.baidu.com/?from=1010888z (0)\n'
p651
sa(dp652
g2
S'6785'
p653
sg4
L1449586043818L
sg5
g148
sg7
S'chromium'
p654
sg9
S' 6785'
p655
sg11
S'[WARNING:web_contents_impl.cc(2250)] https://m.baidu.com ran insecure content from http://127.0.0.1:7777/geolocation?timeout=10000&callback=jsonp2&gps=1&t=0.807280003093183&_=1449586043832\n'
p656
sa(dp657
g2
S'6785'
p658
sg4
L1449586044148L
sg5
g36
sg7
S'chromium'
p659
sg9
S' 6785'
p660
sg11
S'[INFO:CONSOLE(0)] "The page at \'https://m.baidu.com/?from=1010888z\' was loaded over HTTPS, but ran insecure content from \'http://127.0.0.1:40310/getsearchboxinfo?mcmdf=inapp_boxserver&callback=_box_jsonp731\': this content should also be loaded over HTTPS.\n", source: https://m.baidu.com/?from=1010888z (0)\n'
p661
sa(dp662
g2
S'6785'
p663
sg4
L1449586044148L
sg5
g148
sg7
S'chromium'
p664
sg9
S' 6785'
p665
sg11
S'[WARNING:web_contents_impl.cc(2250)] https://m.baidu.com ran insecure content from http://127.0.0.1:40310/getsearchboxinfo?mcmdf=inapp_boxserver&callback=_box_jsonp731\n'
p666
sa(dp667
g2
S'6816'
p668
sg4
L1449586044878L
sg5
g30
sg7
S'SocketService'
p669
sg9
S' 6833'
p670
sg11
S'current thread is runing!id:2479\n'
p671
sa(dp672
g2
S'6785'
p673
sg4
L1449586046088L
sg5
g30
sg7
S'dalvikvm'
p674
sg9
S' 6785'
p675
sg11
S'GC_FOR_ALLOC freed 16454K, 4% free 64619K/66748K, paused 23ms, total 24ms\n'
p676
sa(dp677
g2
S'6785'
p678
sg4
L1449586046128L
sg5
g30
sg7
S'dalvikvm'
p679
sg9
S' 6785'
p680
sg11
S'GC_FOR_ALLOC freed 23K, 3% free 72696K/74852K, paused 13ms, total 13ms\n'
p681
sa(dp682
g2
S'6785'
p683
sg4
L1449586046288L
sg5
g30
sg7
S'cn.edu.nju.ise.kikandroid'
p684
sg9
S' 6847'
p685
sg11
S'Screenshot:1449586046072\n'
p686
sa(dp687
g2
S'6785'
p688
sg4
L1449586046878L
sg5
g36
sg7
S'Timeline'
p689
sg9
S' 6785'
p690
sg11
S'Timeline: Activity_idle id: android.os.BinderProxy@42d052c0 time:83407376\n'
p691
sa(dp692
g2
S'6785'
p693
sg4
L1449586047618L
sg5
g36
sg7
S'chromium'
p694
sg9
S' 6785'
p695
sg11
S'[INFO:CONSOLE(0)] "The page at \'https://m.baidu.com/?from=1010888z\' was loaded over HTTPS, but ran insecure content from \'http://127.0.0.1:40310/geolocation?timeout=10000&gps=1&mcmdf=inapp_wiselocation&callback=_box_jsonp563\': this content should also be loaded over HTTPS.\n", source: https://m.baidu.com/?from=1010888z (0)\n'
p696
sa(dp697
g2
S'6785'
p698
sg4
L1449586047618L
sg5
g148
sg7
S'chromium'
p699
sg9
S' 6785'
p700
sg11
S'[WARNING:web_contents_impl.cc(2250)] https://m.baidu.com ran insecure content from http://127.0.0.1:40310/geolocation?timeout=10000&gps=1&mcmdf=inapp_wiselocation&callback=_box_jsonp563\n'
p701
sa(dp702
g2
S'6785'
p703
sg4
L1449586048108L
sg5
g36
sg7
S'Timeline'
p704
sg9
S' 6785'
p705
sg11
S'Timeline: Activity_launch_request time:83408599\n'
p706
sa(dp707
g2
S'6785'
p708
sg4
L1449586048158L
sg5
g30
sg7
S'EgretLoader'
p709
sg9
S' 6785'
p710
sg11
S'EgretLoader(Context context)\n'
p711
sa(dp712
g2
S'6785'
p713
sg4
L1449586048158L
sg5
g30
sg7
S'EgretLoader'
p714
sg9
S' 6785'
p715
sg11
S'The context is not activity\n'
p716
sa(dp717
g2
S'6785'
p718
sg4
L1449586048198L
sg5
g148
sg7
S'AwContents'
p719
sg9
S' 6785'
p720
sg11
S'nativeOnDraw failed; clearing to background color.\n'
p721
sa(dp722
g2
S'6785'
p723
sg4
L1449586048208L
sg5
g148
sg7
S'AwContents'
p724
sg9
S' 6785'
p725
sg11
S'nativeOnDraw failed; clearing to background color.\n'
p726
sa(dp727
g2
S'6785'
p728
sg4
L1449586048238L
sg5
g36
sg7
S'Timeline'
p729
sg9
S' 6785'
p730
sg11
S'Timeline: Activity_idle id: android.os.BinderProxy@45714ab0 time:83408735\n'
p731
sa(dp732
g2
S'6785'
p733
sg4
L1449586048598L
sg5
g36
sg7
S'chromium'
p734
sg9
S' 6785'
p735
sg11
S'[INFO:CONSOLE(0)] "The page at \'https://m.baidu.com/?from=1010888z\' was loaded over HTTPS, but ran insecure content from \'http://127.0.0.1:6259/getapn?callback=getapn&mcmdf=inapp_test\': this content should also be loaded over HTTPS.\n", source: https://m.baidu.com/?from=1010888z (0)\n'
p736
sa(dp737
g2
S'6785'
p738
sg4
L1449586048598L
sg5
g148
sg7
S'chromium'
p739
sg9
S' 6785'
p740
sg11
S'[WARNING:web_contents_impl.cc(2250)] https://m.baidu.com ran insecure content from http://127.0.0.1:6259/getapn?callback=getapn&mcmdf=inapp_test\n'
p741
sa(dp742
g2
S'6785'
p743
sg4
L1449586048598L
sg5
g36
sg7
S'chromium'
p744
sg9
S' 6785'
p745
sg11
S'[INFO:CONSOLE(0)] "The page at \'https://m.baidu.com/?from=1010888z\' was loaded over HTTPS, but ran insecure content from \'http://127.0.0.1:40310/getapn?callback=getapn&mcmdf=inapp_test\': this content should also be loaded over HTTPS.\n", source: https://m.baidu.com/?from=1010888z (0)\n'
p746
sa(dp747
g2
S'6785'
p748
sg4
L1449586048598L
sg5
g148
sg7
S'chromium'
p749
sg9
S' 6785'
p750
sg11
S'[WARNING:web_contents_impl.cc(2250)] https://m.baidu.com ran insecure content from http://127.0.0.1:40310/getapn?callback=getapn&mcmdf=inapp_test\n'
p751
sa(dp752
g2
S'6785'
p753
sg4
L1449586048918L
sg5
g36
sg7
S'chromium'
p754
sg9
S' 6785'
p755
sg11
S'[INFO:CONSOLE(0)] "The page at \'https://m.baidu.com/?from=1010888z\' was loaded over HTTPS, but ran insecure content from \'http://127.0.0.1:40310/getsearchboxinfo?mcmdf=inapp_boxserver&callback=_box_jsonp875\': this content should also be loaded over HTTPS.\n", source: https://m.baidu.com/?from=1010888z (0)\n'
p756
sa(dp757
g2
S'6785'
p758
sg4
L1449586048918L
sg5
g148
sg7
S'chromium'
p759
sg9
S' 6785'
p760
sg11
S'[WARNING:web_contents_impl.cc(2250)] https://m.baidu.com ran insecure content from http://127.0.0.1:40310/getsearchboxinfo?mcmdf=inapp_boxserver&callback=_box_jsonp875\n'
p761
sa(dp762
g2
S'6785'
p763
sg4
L1449586048928L
sg5
g36
sg7
S'chromium'
p764
sg9
S' 6785'
p765
sg11
S'[INFO:CONSOLE(0)] "The page at \'https://m.baidu.com/?from=1010888z\' was loaded over HTTPS, but ran insecure content from \'http://127.0.0.1:7777/geolocation?timeout=10000&callback=jsonp2&gps=1&t=0.7203359010163695&_=1449586048940\': this content should also be loaded over HTTPS.\n", source: https://m.baidu.com/?from=1010888z (0)\n'
p766
sa(dp767
g2
S'6785'
p768
sg4
L1449586048928L
sg5
g148
sg7
S'chromium'
p769
sg9
S' 6785'
p770
sg11
S'[WARNING:web_contents_impl.cc(2250)] https://m.baidu.com ran insecure content from http://127.0.0.1:7777/geolocation?timeout=10000&callback=jsonp2&gps=1&t=0.7203359010163695&_=1449586048940\n'
p771
sa(dp772
g2
S'6785'
p773
sg4
L1449586049268L
sg5
g36
sg7
S'chromium'
p774
sg9
S' 6785'
p775
sg11
S'[INFO:CONSOLE(0)] "The page at \'https://m.baidu.com/?from=1010888z\' was loaded over HTTPS, but ran insecure content from \'http://127.0.0.1:40310/getsearchboxinfo?mcmdf=inapp_boxserver&callback=_box_jsonp876\': this content should also be loaded over HTTPS.\n", source: https://m.baidu.com/?from=1010888z (0)\n'
p776
sa(dp777
g2
S'6785'
p778
sg4
L1449586049288L
sg5
g148
sg7
S'chromium'
p779
sg9
S' 6785'
p780
sg11
S'[WARNING:web_contents_impl.cc(2250)] https://m.baidu.com ran insecure content from http://127.0.0.1:40310/getsearchboxinfo?mcmdf=inapp_boxserver&callback=_box_jsonp876\n'
p781
sa(dp782
g2
S'6785'
p783
sg4
L1449586050458L
sg5
g30
sg7
S'dalvikvm'
p784
sg9
S' 6785'
p785
sg11
S'GC_FOR_ALLOC freed 16465K, 4% free 64667K/66748K, paused 27ms, total 28ms\n'
p786
sa(dp787
g2
S'6785'
p788
sg4
L1449586050498L
sg5
g30
sg7
S'dalvikvm'
p789
sg9
S' 6785'
p790
sg11
S'GC_FOR_ALLOC freed 23K, 3% free 72744K/74852K, paused 14ms, total 14ms\n'
p791
sa(dp792
g2
S'6785'
p793
sg4
L1449586050708L
sg5
g30
sg7
S'cn.edu.nju.ise.kikandroid'
p794
sg9
S' 6847'
p795
sg11
S'Screenshot:1449586050445\n'
p796
sa(dp797
g2
S'6785'
p798
sg4
L1449586051168L
sg5
g36
sg7
S'Timeline'
p799
sg9
S' 6785'
p800
sg11
S'Timeline: Activity_idle id: android.os.BinderProxy@42d052c0 time:83411665\n'
p801
sa(dp802
g2
S'6785'
p803
sg4
L1449586051828L
sg5
g36
sg7
S'chromium'
p804
sg9
S' 6785'
p805
sg11
S'[INFO:CONSOLE(0)] "The page at \'https://m.baidu.com/?from=1010888z\' was loaded over HTTPS, but ran insecure content from \'http://127.0.0.1:40310/geolocation?timeout=10000&gps=1&mcmdf=inapp_wiselocation&callback=_box_jsonp732\': this content should also be loaded over HTTPS.\n", source: https://m.baidu.com/?from=1010888z (0)\n'
p806
sa(dp807
g2
S'6785'
p808
sg4
L1449586051828L
sg5
g148
sg7
S'chromium'
p809
sg9
S' 6785'
p810
sg11
S'[WARNING:web_contents_impl.cc(2250)] https://m.baidu.com ran insecure content from http://127.0.0.1:40310/geolocation?timeout=10000&gps=1&mcmdf=inapp_wiselocation&callback=_box_jsonp732\n'
p811
sa(dp812
g2
S'6785'
p813
sg4
L1449586052628L
sg5
g30
sg7
S'MainActivity'
p814
sg9
S' 6785'
p815
sg11
S'V.getTag:null v.id:2131230734\n'
p816
sa(dp817
g2
S'6816'
p818
sg4
L1449586054878L
sg5
g30
sg7
S'SocketService'
p819
sg9
S' 6833'
p820
sg11
S'current thread is runing!id:2479\n'
p821
sa(dp822
g2
S'6785'
p823
sg4
L1449586055118L
sg5
g30
sg7
S'cn.edu.nju.ise.kikandroid'
p824
sg9
S' 6847'
p825
sg11
S'Log:1449586055134\n'
p826
sa(dp827
g2
S'6785'
p828
sg4
L1449586055218L
sg5
g30
sg7
S'dalvikvm'
p829
sg9
S' 6785'
p830
sg11
S'GC_FOR_ALLOC freed 16412K, 4% free 64647K/66748K, paused 38ms, total 39ms\n'
p831
sa(dp832
g2
S'6785'
p833
sg4
L1449586055278L
sg5
g30
sg7
S'dalvikvm'
p834
sg9
S' 6785'
p835
sg11
S'GC_FOR_ALLOC freed 9K, 3% free 72739K/74852K, paused 13ms, total 13ms\n'
p836
sa(dp837
g2
S'6785'
p838
sg4
L1449586055498L
sg5
g30
sg7
S'cn.edu.nju.ise.kikandroid'
p839
sg9
S' 6847'
p840
sg11
S'Screenshot:1449586055182\n'
p841
sa(dp842
g2
S'6785'
p843
sg4
L1449586055498L
sg5
g148
sg7
S'dalvikvm'
p844
sg9
S' 6847'
p845
sg11
S'threadid=15: thread exiting with uncaught exception (group=0x416f7d58)\n'
p846
sa(dp847
g2
S'6785'
p848
sg4
L1449586055508L
sg5
g6
sg7
S'AndroidRuntime'
p849
sg9
S' 6847'
p850
sg11
S'FATAL EXCEPTION: Thread-2474\nProcess: com.example.myfristandroid, PID: 6785\njava.lang.NullPointerException\n\tat android.app.Instrumentation.finish(Instrumentation.java:190)\n\tat cn.edu.nju.ise.kikandroid.AUTInstrument.quitInstr(AUTInstrument.java:195)\n\tat cn.edu.nju.ise.kikandroid.AUTInstrument.startServer(AUTInstrument.java:161)\n\tat cn.edu.nju.ise.kikandroid.AUTInstrument$1.run(AUTInstrument.java:107)\n\tat java.lang.Thread.run(Thread.java:841)\n'
p851
sa.