(lp0
(dp1
S'EventTime'
p2
S'46952235'
p3
sS'SyscTime'
p4
L1449731969302L
sS'recordCount'
p5
S'0'
p6
sS'EventType'
p7
S'TYPE_WINDOW_STATE_CHANGED'
p8
sS'PackageName'
p9
S'com.xdf.ucan'
p10
sS'OutBounds'
p11
S'Rect(0, 0 - 540, 960)'
p12
sS'Action'
p13
S'[ ClassName: com.xdf.ucan.ui.login.StartActivity; Text: [\xe4\xbc\x98\xe6\x92\xad\xe8\xaf\xbe]; ContentDescription: null; ItemCount: -1; CurrentItemIndex: -1; IsEnabled: true; IsPassword: false; IsChecked: false; IsFullScreen: true; Scrollable: false; BeforeText: null; FromIndex: -1; ToIndex: -1; ScrollX: -1; ScrollY: -1; MaxScrollX: -1; MaxScrollY: -1; AddedCount: -1; RemovedCount: -1; ParcelableData: null ]'
p14
sS'MovementGranularity'
p15
g6
sa(dp16
S'EventTime'
p17
S'46952301'
p18
sg4
L1449731969308L
sS'recordCount'
p19
g6
sS'EventType'
p20
S'TYPE_WINDOW_CONTENT_CHANGED'
p21
sS'PackageName'
p22
S'com.xdf.ucan'
p23
sS'OutBounds'
p24
S'Rect(0, 0 - 540, 960)'
p25
sS'Action'
p26
S'[ ClassName: android.widget.FrameLayout; Text: []; ContentDescription: null; ItemCount: -1; CurrentItemIndex: -1; IsEnabled: true; IsPassword: false; IsChecked: false; IsFullScreen: false; Scrollable: false; BeforeText: null; FromIndex: -1; ToIndex: -1; ScrollX: -1; ScrollY: -1; MaxScrollX: -1; MaxScrollY: -1; AddedCount: -1; RemovedCount: -1; ParcelableData: null ]'
p27
sS'MovementGranularity'
p28
g6
sa(dp29
S'EventTime'
p30
S'46953328'
p31
sg4
L1449731970431L
sS'recordCount'
p32
g6
sS'EventType'
p33
S'TYPE_WINDOW_STATE_CHANGED'
p34
sS'PackageName'
p35
S'com.xdf.ucan'
p36
sS'OutBounds'
p37
S'Rect(0, 0 - 540, 960)'
p38
sS'Action'
p39
S'[ ClassName: com.xdf.ucan.MainActivity; Text: [\xe4\xbc\x98\xe6\x92\xad\xe8\xaf\xbe]; ContentDescription: null; ItemCount: -1; CurrentItemIndex: -1; IsEnabled: true; IsPassword: false; IsChecked: false; IsFullScreen: true; Scrollable: false; BeforeText: null; FromIndex: -1; ToIndex: -1; ScrollX: -1; ScrollY: -1; MaxScrollX: -1; MaxScrollY: -1; AddedCount: -1; RemovedCount: -1; ParcelableData: null ]'
p40
sS'MovementGranularity'
p41
g6
sa(dp42
S'EventTime'
p43
S'46953338'
p44
sg4
L1449731970432L
sS'recordCount'
p45
g6
sS'EventType'
p46
S'TYPE_NOTIFICATION_STATE_CHANGED'
p47
sS'PackageName'
p48
S'com.xdf.ucan'
p49
sS'Action'
p50
S'[ ClassName: android.widget.Toast$TN; Text: [\xe7\xbd\x91\xe7\xbb\x9c\xe4\xb8\x8d\xe7\xbb\x99\xe5\x8a\x9b]; ContentDescription: null; ItemCount: -1; CurrentItemIndex: -1; IsEnabled: false; IsPassword: false; IsChecked: false; IsFullScreen: false; Scrollable: false; BeforeText: null; FromIndex: -1; ToIndex: -1; ScrollX: -1; ScrollY: -1; MaxScrollX: -1; MaxScrollY: -1; AddedCount: -1; RemovedCount: -1; ParcelableData: null ]'
p51
sS'MovementGranularity'
p52
g6
sa(dp53
S'EventTime'
p54
S'46953570'
p55
sg4
L1449731970592L
sS'recordCount'
p56
g6
sS'EventType'
p57
S'TYPE_WINDOW_CONTENT_CHANGED'
p58
sS'PackageName'
p59
S'com.xdf.ucan'
p60
sS'OutBounds'
p61
S'Rect(0, 0 - 540, 960)'
p62
sS'Action'
p63
S'[ ClassName: android.widget.FrameLayout; Text: []; ContentDescription: null; ItemCount: -1; CurrentItemIndex: -1; IsEnabled: true; IsPassword: false; IsChecked: false; IsFullScreen: false; Scrollable: false; BeforeText: null; FromIndex: -1; ToIndex: -1; ScrollX: -1; ScrollY: -1; MaxScrollX: -1; MaxScrollY: -1; AddedCount: -1; RemovedCount: -1; ParcelableData: null ]'
p64
sS'MovementGranularity'
p65
g6
sa(dp66
S'EventTime'
p67
S'46968839'
p68
sg4
L1449731985838L
sS'recordCount'
p69
g6
sS'EventType'
p70
S'TYPE_VIEW_CLICKED'
p71
sS'PackageName'
p72
S'com.xdf.ucan'
p73
sS'OutBounds'
p74
S'Rect(360, 889 - 540, 960)'
p75
sS'Action'
p76
S'[ ClassName: android.widget.RelativeLayout; Text: [\xe6\x88\x91]; ContentDescription: null; ItemCount: -1; CurrentItemIndex: -1; IsEnabled: true; IsPassword: false; IsChecked: false; IsFullScreen: false; Scrollable: false; BeforeText: null; FromIndex: -1; ToIndex: -1; ScrollX: -1; ScrollY: -1; MaxScrollX: -1; MaxScrollY: -1; AddedCount: -1; RemovedCount: -1; ParcelableData: null ]'
p77
sS'MovementGranularity'
p78
g6
sa(dp79
S'EventTime'
p80
S'46968848'
p81
sg4
L1449731985897L
sS'recordCount'
p82
g6
sS'EventType'
p83
S'TYPE_VIEW_SELECTED'
p84
sS'PackageName'
p85
S'com.xdf.ucan'
p86
sS'OutBounds'
p87
S'Rect(0, 888 - 540, 960)'
p88
sS'Action'
p89
S'[ ClassName: android.widget.TabWidget; Text: [\xe6\x88\x91]; ContentDescription: null; ItemCount: 3; CurrentItemIndex: 2; IsEnabled: true; IsPassword: false; IsChecked: false; IsFullScreen: false; Scrollable: false; BeforeText: null; FromIndex: -1; ToIndex: -1; ScrollX: -1; ScrollY: -1; MaxScrollX: -1; MaxScrollY: -1; AddedCount: -1; RemovedCount: -1; ParcelableData: null ]'
p90
sS'MovementGranularity'
p91
g6
sa(dp92
S'EventTime'
p93
S'46968991'
p94
sg4
L1449731986015L
sS'recordCount'
p95
g6
sS'EventType'
p96
S'TYPE_WINDOW_CONTENT_CHANGED'
p97
sS'PackageName'
p98
S'com.xdf.ucan'
p99
sS'OutBounds'
p100
S'Rect(0, 0 - 540, 960)'
p101
sS'Action'
p102
S'[ ClassName: android.widget.FrameLayout; Text: []; ContentDescription: null; ItemCount: -1; CurrentItemIndex: -1; IsEnabled: true; IsPassword: false; IsChecked: false; IsFullScreen: false; Scrollable: false; BeforeText: null; FromIndex: -1; ToIndex: -1; ScrollX: -1; ScrollY: -1; MaxScrollX: -1; MaxScrollY: -1; AddedCount: -1; RemovedCount: -1; ParcelableData: null ]'
p103
sS'MovementGranularity'
p104
g6
sa(dp105
S'EventTime'
p106
S'46969224'
p107
sg4
L1449731986288L
sS'recordCount'
p108
g6
sS'EventType'
p109
S'TYPE_WINDOW_CONTENT_CHANGED'
p110
sS'PackageName'
p111
S'com.xdf.ucan'
p112
sS'OutBounds'
p113
S'Rect(0, 0 - 540, 960)'
p114
sS'Action'
p115
S'[ ClassName: android.widget.FrameLayout; Text: []; ContentDescription: null; ItemCount: -1; CurrentItemIndex: -1; IsEnabled: true; IsPassword: false; IsChecked: false; IsFullScreen: false; Scrollable: false; BeforeText: null; FromIndex: -1; ToIndex: -1; ScrollX: -1; ScrollY: -1; MaxScrollX: -1; MaxScrollY: -1; AddedCount: -1; RemovedCount: -1; ParcelableData: null ]'
p116
sS'MovementGranularity'
p117
g6
sa(dp118
S'EventTime'
p119
S'46969912'
p120
sg4
L1449731986912L
sS'recordCount'
p121
g6
sS'EventType'
p122
S'TYPE_VIEW_CLICKED'
p123
sS'PackageName'
p124
S'com.xdf.ucan'
p125
sS'OutBounds'
p126
S'Rect(180, 888 - 360, 960)'
p127
sS'Action'
p128
S'[ ClassName: android.widget.RelativeLayout; Text: [\xe8\xaf\xbe\xe8\xa1\xa8]; ContentDescription: null; ItemCount: -1; CurrentItemIndex: -1; IsEnabled: true; IsPassword: false; IsChecked: false; IsFullScreen: false; Scrollable: false; BeforeText: null; FromIndex: -1; ToIndex: -1; ScrollX: -1; ScrollY: -1; MaxScrollX: -1; MaxScrollY: -1; AddedCount: -1; RemovedCount: -1; ParcelableData: null ]'
p129
sS'MovementGranularity'
p130
g6
sa(dp131
S'EventTime'
p132
S'46969917'
p133
sg4
L1449731987058L
sS'recordCount'
p134
g6
sS'EventType'
p135
S'TYPE_VIEW_SELECTED'
p136
sS'PackageName'
p137
S'com.xdf.ucan'
p138
sS'OutBounds'
p139
S'Rect(0, 889 - 540, 960)'
p140
sS'Action'
p141
S'[ ClassName: android.widget.TabWidget; Text: [\xe8\xaf\xbe\xe8\xa1\xa8]; ContentDescription: null; ItemCount: 3; CurrentItemIndex: 1; IsEnabled: true; IsPassword: false; IsChecked: false; IsFullScreen: false; Scrollable: false; BeforeText: null; FromIndex: -1; ToIndex: -1; ScrollX: -1; ScrollY: -1; MaxScrollX: -1; MaxScrollY: -1; AddedCount: -1; RemovedCount: -1; ParcelableData: null ]'
p142
sS'MovementGranularity'
p143
g6
sa(dp144
S'EventTime'
p145
S'46970152'
p146
sg4
L1449731987212L
sS'recordCount'
p147
g6
sS'EventType'
p148
S'TYPE_WINDOW_CONTENT_CHANGED'
p149
sS'PackageName'
p150
S'com.xdf.ucan'
p151
sS'OutBounds'
p152
S'Rect(0, 0 - 540, 960)'
p153
sS'Action'
p154
S'[ ClassName: android.widget.FrameLayout; Text: []; ContentDescription: null; ItemCount: -1; CurrentItemIndex: -1; IsEnabled: true; IsPassword: false; IsChecked: false; IsFullScreen: false; Scrollable: false; BeforeText: null; FromIndex: -1; ToIndex: -1; ScrollX: -1; ScrollY: -1; MaxScrollX: -1; MaxScrollY: -1; AddedCount: -1; RemovedCount: -1; ParcelableData: null ]'
p155
sS'MovementGranularity'
p156
g6
sa(dp157
S'EventTime'
p158
S'46970178'
p159
sg4
L1449731987223L
sS'recordCount'
p160
g6
sS'EventType'
p161
S'TYPE_VIEW_SCROLLED'
p162
sS'PackageName'
p163
S'com.xdf.ucan'
p164
sS'OutBounds'
p165
S'Rect(0, 142 - 540, 218)'
p166
sS'Action'
p167
S'[ ClassName: android.widget.GridView; Text: []; ContentDescription: null; ItemCount: 7; CurrentItemIndex: -1; IsEnabled: true; IsPassword: false; IsChecked: false; IsFullScreen: false; Scrollable: false; BeforeText: null; FromIndex: 0; ToIndex: 6; ScrollX: -1; ScrollY: -1; MaxScrollX: -1; MaxScrollY: -1; AddedCount: -1; RemovedCount: -1; ParcelableData: null ]'
p168
sS'MovementGranularity'
p169
g6
sa(dp170
S'EventTime'
p171
S'46970317'
p172
sg4
L1449731987369L
sS'recordCount'
p173
g6
sS'EventType'
p174
S'TYPE_WINDOW_CONTENT_CHANGED'
p175
sS'PackageName'
p176
S'com.xdf.ucan'
p177
sS'OutBounds'
p178
S'Rect(0, 0 - 540, 960)'
p179
sS'Action'
p180
S'[ ClassName: android.widget.FrameLayout; Text: []; ContentDescription: null; ItemCount: -1; CurrentItemIndex: -1; IsEnabled: true; IsPassword: false; IsChecked: false; IsFullScreen: false; Scrollable: false; BeforeText: null; FromIndex: -1; ToIndex: -1; ScrollX: -1; ScrollY: -1; MaxScrollX: -1; MaxScrollY: -1; AddedCount: -1; RemovedCount: -1; ParcelableData: null ]'
p181
sS'MovementGranularity'
p182
g6
sa(dp183
S'EventTime'
p184
S'46970609'
p185
sg4
L1449731987608L
sS'recordCount'
p186
g6
sS'EventType'
p187
S'TYPE_VIEW_CLICKED'
p188
sS'PackageName'
p189
S'com.xdf.ucan'
p190
sS'OutBounds'
p191
S'Rect(0, 889 - 180, 960)'
p192
sS'Action'
p193
S'[ ClassName: android.widget.RelativeLayout; Text: [\xe5\xad\xa6\xe4\xb9\xa0]; ContentDescription: null; ItemCount: -1; CurrentItemIndex: -1; IsEnabled: true; IsPassword: false; IsChecked: false; IsFullScreen: false; Scrollable: false; BeforeText: null; FromIndex: -1; ToIndex: -1; ScrollX: -1; ScrollY: -1; MaxScrollX: -1; MaxScrollY: -1; AddedCount: -1; RemovedCount: -1; ParcelableData: null ]'
p194
sS'MovementGranularity'
p195
g6
sa(dp196
S'EventTime'
p197
S'46970612'
p198
sg4
L1449731987678L
sS'recordCount'
p199
g6
sS'EventType'
p200
S'TYPE_VIEW_SELECTED'
p201
sS'PackageName'
p202
S'com.xdf.ucan'
p203
sS'OutBounds'
p204
S'Rect(0, 889 - 540, 960)'
p205
sS'Action'
p206
S'[ ClassName: android.widget.TabWidget; Text: [\xe5\xad\xa6\xe4\xb9\xa0]; ContentDescription: null; ItemCount: 3; CurrentItemIndex: 0; IsEnabled: true; IsPassword: false; IsChecked: false; IsFullScreen: false; Scrollable: false; BeforeText: null; FromIndex: -1; ToIndex: -1; ScrollX: -1; ScrollY: -1; MaxScrollX: -1; MaxScrollY: -1; AddedCount: -1; RemovedCount: -1; ParcelableData: null ]'
p207
sS'MovementGranularity'
p208
g6
sa(dp209
S'EventTime'
p210
S'46970775'
p211
sg4
L1449731987818L
sS'recordCount'
p212
g6
sS'EventType'
p213
S'TYPE_WINDOW_CONTENT_CHANGED'
p214
sS'PackageName'
p215
S'com.xdf.ucan'
p216
sS'OutBounds'
p217
S'Rect(0, 0 - 540, 960)'
p218
sS'Action'
p219
S'[ ClassName: android.widget.FrameLayout; Text: []; ContentDescription: null; ItemCount: -1; CurrentItemIndex: -1; IsEnabled: true; IsPassword: false; IsChecked: false; IsFullScreen: false; Scrollable: false; BeforeText: null; FromIndex: -1; ToIndex: -1; ScrollX: -1; ScrollY: -1; MaxScrollX: -1; MaxScrollY: -1; AddedCount: -1; RemovedCount: -1; ParcelableData: null ]'
p220
sS'MovementGranularity'
p221
g6
sa(dp222
S'EventTime'
p223
S'46970886'
p224
sg4
L1449731987908L
sS'recordCount'
p225
g6
sS'EventType'
p226
S'TYPE_WINDOW_CONTENT_CHANGED'
p227
sS'PackageName'
p228
S'com.xdf.ucan'
p229
sS'OutBounds'
p230
S'Rect(0, 0 - 540, 960)'
p231
sS'Action'
p232
S'[ ClassName: android.widget.FrameLayout; Text: []; ContentDescription: null; ItemCount: -1; CurrentItemIndex: -1; IsEnabled: true; IsPassword: false; IsChecked: false; IsFullScreen: false; Scrollable: false; BeforeText: null; FromIndex: -1; ToIndex: -1; ScrollX: -1; ScrollY: -1; MaxScrollX: -1; MaxScrollY: -1; AddedCount: -1; RemovedCount: -1; ParcelableData: null ]'
p233
sS'MovementGranularity'
p234
g6
sa(dp235
S'EventTime'
p236
S'46971019'
p237
sg4
L1449731988021L
sS'recordCount'
p238
g6
sS'EventType'
p239
S'TYPE_VIEW_CLICKED'
p240
sS'PackageName'
p241
S'com.xdf.ucan'
p242
sS'OutBounds'
p243
S'Rect(360, 889 - 540, 960)'
p244
sS'Action'
p245
S'[ ClassName: android.widget.RelativeLayout; Text: [\xe6\x88\x91]; ContentDescription: null; ItemCount: -1; CurrentItemIndex: -1; IsEnabled: true; IsPassword: false; IsChecked: false; IsFullScreen: false; Scrollable: false; BeforeText: null; FromIndex: -1; ToIndex: -1; ScrollX: -1; ScrollY: -1; MaxScrollX: -1; MaxScrollY: -1; AddedCount: -1; RemovedCount: -1; ParcelableData: null ]'
p246
sS'MovementGranularity'
p247
g6
sa(dp248
S'EventTime'
p249
S'46971022'
p250
sg4
L1449731988045L
sS'recordCount'
p251
g6
sS'EventType'
p252
S'TYPE_VIEW_SELECTED'
p253
sS'PackageName'
p254
S'com.xdf.ucan'
p255
sS'OutBounds'
p256
S'Rect(0, 888 - 540, 960)'
p257
sS'Action'
p258
S'[ ClassName: android.widget.TabWidget; Text: [\xe6\x88\x91]; ContentDescription: null; ItemCount: 3; CurrentItemIndex: 2; IsEnabled: true; IsPassword: false; IsChecked: false; IsFullScreen: false; Scrollable: false; BeforeText: null; FromIndex: -1; ToIndex: -1; ScrollX: -1; ScrollY: -1; MaxScrollX: -1; MaxScrollY: -1; AddedCount: -1; RemovedCount: -1; ParcelableData: null ]'
p259
sS'MovementGranularity'
p260
g6
sa(dp261
S'EventTime'
p262
S'46971123'
p263
sg4
L1449731988176L
sS'recordCount'
p264
g6
sS'EventType'
p265
S'TYPE_WINDOW_CONTENT_CHANGED'
p266
sS'PackageName'
p267
S'com.xdf.ucan'
p268
sS'OutBounds'
p269
S'Rect(0, 0 - 540, 960)'
p270
sS'Action'
p271
S'[ ClassName: android.widget.FrameLayout; Text: []; ContentDescription: null; ItemCount: -1; CurrentItemIndex: -1; IsEnabled: true; IsPassword: false; IsChecked: false; IsFullScreen: false; Scrollable: false; BeforeText: null; FromIndex: -1; ToIndex: -1; ScrollX: -1; ScrollY: -1; MaxScrollX: -1; MaxScrollY: -1; AddedCount: -1; RemovedCount: -1; ParcelableData: null ]'
p272
sS'MovementGranularity'
p273
g6
sa.