(lp0
(dp1
S'processID'
p2
S'32630'
p3
sS'SyscTime'
p4
L1449904170971L
sS'priority'
p5
S'D'
p6
sS'tag'
p7
S'libc-netbsd'
p8
sS'threadID'
p9
S'0x7f9d'
p10
sS'message'
p11
S'getaddrinfo: adash.m.taobao.com get result from proxy >>\n'
p12
sa(dp13
g2
S'32630'
p14
sg4
L1449904182120L
sg5
g6
sg7
S'libc-netbsd'
p15
sg9
S'0x7f9d'
p16
sg11
S'getaddrinfo: adash.m.taobao.com get result from proxy >>\n'
p17
sa(dp18
g2
S'32630'
p19
sg4
L1449904183924L
sg5
g6
sg7
S'libc-netbsd'
p20
sg9
S'0x3b5'
p21
sg11
S'getaddrinfo: amdc.m.taobao.com get result from proxy >>\n'
p22
sa(dp23
g2
S'32630'
p24
sg4
L1449904184150L
sg5
g6
sg7
S'libc-netbsd'
p25
sg9
S'0x181'
p26
sg11
S'getaddrinfo: wwc.alicdn.com get result from proxy >>\n'
p27
sa(dp28
g2
S'32630'
p29
sg4
L1449904184154L
sg5
g6
sg7
S'libc-netbsd'
p30
sg9
S'0x138'
p31
sg11
S'getaddrinfo: api.m.taobao.com get result from proxy >>\n'
p32
sa(dp33
g2
S'32630'
p34
sg4
L1449904184158L
sg5
g6
sg7
S'libc-netbsd'
p35
sg9
S'0x13a'
p36
sg11
S'getaddrinfo: api.m.taobao.com get result from proxy >>\n'
p37
sa(dp38
g2
S'32630'
p39
sg4
L1449904184159L
sg5
g6
sg7
S'libc-netbsd'
p40
sg9
S'0x139'
p41
sg11
S'getaddrinfo: api.m.taobao.com get result from proxy >>\n'
p42
sa(dp43
g2
S'32630'
p44
sg4
L1449904184198L
sg5
S'E'
p45
sg7
S'db      '
p46
sg9
S'0x14b'
p47
sg11
S'into---[initALog]\n'
p48
sa(dp49
g2
S'32630'
p50
sg4
L1449904184592L
sg5
g6
sg7
S'libc-netbsd'
p51
sg9
S'0x183'
p52
sg11
S'getaddrinfo: wwc.taobaocdn.com get result from proxy >>\n'
p53
sa(dp54
g2
S'32630'
p55
sg4
L1449904184625L
sg5
g6
sg7
S'libc-netbsd'
p56
sg9
S'0x17e'
p57
sg11
S'getaddrinfo: wwc.taobaocdn.com get result from proxy >>\n'
p58
sa(dp59
g2
S'32630'
p60
sg4
L1449904184645L
sg5
g6
sg7
S'libc-netbsd'
p61
sg9
S'0x181'
p62
sg11
S'getaddrinfo: gtms03.alicdn.com get result from proxy >>\n'
p63
sa(dp64
g2
S'32630'
p65
sg4
L1449904184673L
sg5
g45
sg7
S'NativeCrypto'
p66
sg9
S'0x183'
p67
sg11
S'ssl=0x7b731fa8 cert_verify_callback x509_store_ctx=0x8af10650 arg=0x0\n'
p68
sa(dp69
g2
S'32630'
p70
sg4
L1449904184674L
sg5
g45
sg7
S'NativeCrypto'
p71
sg9
S'0x183'
p72
sg11
S'ssl=0x7b731fa8 cert_verify_callback calling verifyCertificateChain authMethod=RSA\n'
p73
sa(dp74
g2
S'32630'
p75
sg4
L1449904184694L
sg5
g45
sg7
S'NativeCrypto'
p76
sg9
S'0x17e'
p77
sg11
S'ssl=0x7b4679f0 cert_verify_callback x509_store_ctx=0x86a1c650 arg=0x0\n'
p78
sa(dp79
g2
S'32630'
p80
sg4
L1449904184695L
sg5
g45
sg7
S'NativeCrypto'
p81
sg9
S'0x17e'
p82
sg11
S'ssl=0x7b4679f0 cert_verify_callback calling verifyCertificateChain authMethod=RSA\n'
p83
sa(dp84
g2
S'32630'
p85
sg4
L1449904184814L
sg5
g6
sg7
S'libc-netbsd'
p86
sg9
S'0x17e'
p87
sg11
S'getaddrinfo: gw.alicdn.com get result from proxy >>\n'
p88
sa(dp89
g2
S'32630'
p90
sg4
L1449904184815L
sg5
g6
sg7
S'libc-netbsd'
p91
sg9
S'0x183'
p92
sg11
S'getaddrinfo: gw.alicdn.com get result from proxy >>\n'
p93
sa(dp94
g2
S'32630'
p95
sg4
L1449904184818L
sg5
g45
sg7
S'doraemon:TraceId'
p96
sg9
S'0x3e1'
p97
sg11
S'an thread has traceid,but cache loss it\n'
p98
sa(dp99
g2
S'32630'
p100
sg4
L1449904184818L
sg5
g45
sg7
S'doraemon:TraceId'
p101
sg9
S'0x3e4'
p102
sg11
S'an thread has traceid,but cache loss it\n'
p103
sa(dp104
g2
S'32630'
p105
sg4
L1449904184821L
sg5
g45
sg7
S'doraemon:TraceId'
p106
sg9
S'0x3e7'
p107
sg11
S'an thread has traceid,but cache loss it\n'
p108
sa(dp109
g2
S'32630'
p110
sg4
L1449904184822L
sg5
g45
sg7
S'doraemon:TraceId'
p111
sg9
S'0x3e6'
p112
sg11
S'an thread has traceid,but cache loss it\n'
p113
sa(dp114
g2
S'32630'
p115
sg4
L1449904184872L
sg5
g45
sg7
S'NativeCrypto'
p116
sg9
S'0x181'
p117
sg11
S'ssl=0x8aa477e0 cert_verify_callback x509_store_ctx=0x8ae126d0 arg=0x0\n'
p118
sa(dp119
g2
S'32630'
p120
sg4
L1449904184872L
sg5
g45
sg7
S'NativeCrypto'
p121
sg9
S'0x181'
p122
sg11
S'ssl=0x8aa477e0 cert_verify_callback calling verifyCertificateChain authMethod=RSA\n'
p123
sa(dp124
g2
S'32630'
p125
sg4
L1449904184880L
sg5
g45
sg7
S'doraemon:TraceId'
p126
sg9
S'0x13e'
p127
sg11
S'an thread has traceid,but cache loss it\n'
p128
sa(dp129
g2
S'32630'
p130
sg4
L1449904184881L
sg5
g45
sg7
S'doraemon:TraceId'
p131
sg9
S'0x1de'
p132
sg11
S'an thread has traceid,but cache loss it\n'
p133
sa(dp134
g2
S'32630'
p135
sg4
L1449904184884L
sg5
g45
sg7
S'doraemon:TraceId'
p136
sg9
S'0x3d5'
p137
sg11
S'an thread has traceid,but cache loss it\n'
p138
sa(dp139
g2
S'32630'
p140
sg4
L1449904184895L
sg5
g45
sg7
S'NativeCrypto'
p141
sg9
S'0x183'
p142
sg11
S'ssl=0x7b4679f0 cert_verify_callback x509_store_ctx=0x8af106d0 arg=0x0\n'
p143
sa(dp144
g2
S'32630'
p145
sg4
L1449904184895L
sg5
g45
sg7
S'NativeCrypto'
p146
sg9
S'0x183'
p147
sg11
S'ssl=0x7b4679f0 cert_verify_callback calling verifyCertificateChain authMethod=RSA\n'
p148
sa(dp149
g2
S'32630'
p150
sg4
L1449904184913L
sg5
g45
sg7
S'NativeCrypto'
p151
sg9
S'0x17e'
p152
sg11
S'ssl=0x7b731fa8 cert_verify_callback x509_store_ctx=0x86a1c650 arg=0x0\n'
p153
sa(dp154
g2
S'32630'
p155
sg4
L1449904184913L
sg5
g45
sg7
S'NativeCrypto'
p156
sg9
S'0x17e'
p157
sg11
S'ssl=0x7b731fa8 cert_verify_callback calling verifyCertificateChain authMethod=RSA\n'
p158
sa(dp159
g2
S'32630'
p160
sg4
L1449904187433L
sg5
S'W'
p161
sg7
S'chromium'
p162
sg9
S'0x7f76'
p163
sg11
S'[WARNING:password_handler.cc(26)] create-->contents = 0x7b648550, delegate = 0x8affc858\n'
p164
sa(dp165
g2
S'32630'
p166
sg4
L1449904187433L
sg5
g161
sg7
S'chromium'
p167
sg9
S'0x7f76'
p168
sg11
S'[WARNING:password_handler.cc(34)] attaching to web_contents \n'
p169
sa(dp170
g2
S'32630'
p171
sg4
L1449904187473L
sg5
g6
sg7
S'libc-netbsd'
p172
sg9
S'0x7fbe'
p173
sg11
S'getaddrinfo: h5.m.taobao.com get result from proxy >>\n'
p174
sa(dp175
g2
S'32630'
p176
sg4
L1449904187643L
sg5
g161
sg7
S'chromium'
p177
sg9
S'0x7f76'
p178
sg11
S'[WARNING:password_handler.cc(60)] DidNavigateAnyFrame can_save = 0\n'
p179
sa(dp180
g2
S'32630'
p181
sg4
L1449904187643L
sg5
g161
sg7
S'chromium'
p182
sg9
S'0x7f76'
p183
sg11
S'[WARNING:aw_password_handler_delegate_impl.cc(201)] IsSavePasswordEnabled ret is \n'
p184
sa(dp185
g2
S'32630'
p186
sg4
L1449904187643L
sg5
g161
sg7
S'chromium'
p187
sg9
S'0x7f76'
p188
sg11
S'[WARNING:password_handler.cc(64)] DidNavigateAnyFrame IsEnabledSavePassword is false!!\n'
p189
sa(dp190
g2
S'32630'
p191
sg4
L1449904188205L
sg5
g161
sg7
S'chromium'
p192
sg9
S'0x7f76'
p193
sg11
S'[WARNING:password_handler.cc(195)] OnPasswordFormsRendered called\n'
p194
sa(dp195
g2
S'32630'
p196
sg4
L1449904188205L
sg5
g161
sg7
S'chromium'
p197
sg9
S'0x7f76'
p198
sg11
S'[WARNING:aw_password_handler_delegate_impl.cc(201)] IsSavePasswordEnabled ret is \n'
p199
sa(dp200
g2
S'32630'
p201
sg4
L1449904188205L
sg5
g161
sg7
S'chromium'
p202
sg9
S'0x7f76'
p203
sg11
S'[WARNING:password_handler.cc(197)] OnPasswordFormsRendered IsEnabledSavePassword is false\n'
p204
sa(dp205
g2
S'32630'
p206
sg4
L1449904188365L
sg5
g6
sg7
S'libc-netbsd'
p207
sg9
S'0x1c1'
p208
sg11
S'getaddrinfo: api.m.taobao.com get result from proxy >>\n'
p209
sa(dp210
g2
S'32630'
p211
sg4
L1449904190858L
sg5
g6
sg7
S'libc-netbsd'
p212
sg9
S'0x7f9c'
p213
sg11
S'getaddrinfo: adash.m.taobao.com get result from proxy >>\n'
p214
sa(dp215
g2
S'32630'
p216
sg4
L1449904191173L
sg5
g161
sg7
S'chromium'
p217
sg9
S'0x7f76'
p218
sg11
S'[WARNING:password_handler.cc(26)] create-->contents = 0x8eefb800, delegate = 0x7b6ec998\n'
p219
sa(dp220
g2
S'32630'
p221
sg4
L1449904191173L
sg5
g161
sg7
S'chromium'
p222
sg9
S'0x7f76'
p223
sg11
S'[WARNING:password_handler.cc(34)] attaching to web_contents \n'
p224
sa(dp225
g2
S'32630'
p226
sg4
L1449904191200L
sg5
g6
sg7
S'libc-netbsd'
p227
sg9
S'0x7fbc'
p228
sg11
S'getaddrinfo: h5.m.taobao.com get result from proxy >>\n'
p229
sa(dp230
g2
S'32630'
p231
sg4
L1449904191372L
sg5
g161
sg7
S'chromium'
p232
sg9
S'0x7f76'
p233
sg11
S'[WARNING:password_handler.cc(60)] DidNavigateAnyFrame can_save = 0\n'
p234
sa(dp235
g2
S'32630'
p236
sg4
L1449904191372L
sg5
g161
sg7
S'chromium'
p237
sg9
S'0x7f76'
p238
sg11
S'[WARNING:aw_password_handler_delegate_impl.cc(201)] IsSavePasswordEnabled ret is \n'
p239
sa(dp240
g2
S'32630'
p241
sg4
L1449904191372L
sg5
g161
sg7
S'chromium'
p242
sg9
S'0x7f76'
p243
sg11
S'[WARNING:password_handler.cc(64)] DidNavigateAnyFrame IsEnabledSavePassword is false!!\n'
p244
sa(dp245
g2
S'32630'
p246
sg4
L1449904191878L
sg5
g161
sg7
S'chromium'
p247
sg9
S'0x7f76'
p248
sg11
S'[WARNING:password_handler.cc(195)] OnPasswordFormsRendered called\n'
p249
sa(dp250
g2
S'32630'
p251
sg4
L1449904191879L
sg5
g161
sg7
S'chromium'
p252
sg9
S'0x7f76'
p253
sg11
S'[WARNING:aw_password_handler_delegate_impl.cc(201)] IsSavePasswordEnabled ret is \n'
p254
sa(dp255
g2
S'32630'
p256
sg4
L1449904191879L
sg5
g161
sg7
S'chromium'
p257
sg9
S'0x7f76'
p258
sg11
S'[WARNING:password_handler.cc(197)] OnPasswordFormsRendered IsEnabledSavePassword is false\n'
p259
sa(dp260
g2
S'32630'
p261
sg4
L1449904192044L
sg5
g161
sg7
S'chromium'
p262
sg9
S'0x7f76'
p263
sg11
S'[WARNING:password_handler.cc(195)] OnPasswordFormsRendered called\n'
p264
sa(dp265
g2
S'32630'
p266
sg4
L1449904192044L
sg5
g161
sg7
S'chromium'
p267
sg9
S'0x7f76'
p268
sg11
S'[WARNING:aw_password_handler_delegate_impl.cc(201)] IsSavePasswordEnabled ret is \n'
p269
sa(dp270
g2
S'32630'
p271
sg4
L1449904192044L
sg5
g161
sg7
S'chromium'
p272
sg9
S'0x7f76'
p273
sg11
S'[WARNING:password_handler.cc(197)] OnPasswordFormsRendered IsEnabledSavePassword is false\n'
p274
sa(dp275
g2
S'32630'
p276
sg4
L1449904192128L
sg5
g161
sg7
S'chromium'
p277
sg9
S'0x7f76'
p278
sg11
S'[WARNING:password_handler.cc(60)] DidNavigateAnyFrame can_save = 0\n'
p279
sa(dp280
g2
S'32630'
p281
sg4
L1449904192129L
sg5
g161
sg7
S'chromium'
p282
sg9
S'0x7f76'
p283
sg11
S'[WARNING:aw_password_handler_delegate_impl.cc(201)] IsSavePasswordEnabled ret is \n'
p284
sa(dp285
g2
S'32630'
p286
sg4
L1449904192129L
sg5
g161
sg7
S'chromium'
p287
sg9
S'0x7f76'
p288
sg11
S'[WARNING:password_handler.cc(64)] DidNavigateAnyFrame IsEnabledSavePassword is false!!\n'
p289
sa(dp290
g2
S'32630'
p291
sg4
L1449904198727L
sg5
g6
sg7
S'libc-netbsd'
p292
sg9
S'0x17e'
p293
sg11
S'getaddrinfo: img.alicdn.com get result from proxy >>\n'
p294
sa(dp295
g2
S'32630'
p296
sg4
L1449904198727L
sg5
g6
sg7
S'libc-netbsd'
p297
sg9
S'0x183'
p298
sg11
S'getaddrinfo: img.alicdn.com get result from proxy >>\n'
p299
sa(dp300
g2
S'32630'
p301
sg4
L1449904198728L
sg5
g6
sg7
S'libc-netbsd'
p302
sg9
S'0x181'
p303
sg11
S'getaddrinfo: img.alicdn.com get result from proxy >>\n'
p304
sa(dp305
g2
S'32630'
p306
sg4
L1449904198784L
sg5
g45
sg7
S'NativeCrypto'
p307
sg9
S'0x17e'
p308
sg11
S'ssl=0x918fd870 cert_verify_callback x509_store_ctx=0x86a1c650 arg=0x0\n'
p309
sa(dp310
g2
S'32630'
p311
sg4
L1449904198785L
sg5
g45
sg7
S'NativeCrypto'
p312
sg9
S'0x17e'
p313
sg11
S'ssl=0x918fd870 cert_verify_callback calling verifyCertificateChain authMethod=RSA\n'
p314
sa(dp315
g2
S'32630'
p316
sg4
L1449904198793L
sg5
g45
sg7
S'NativeCrypto'
p317
sg9
S'0x181'
p318
sg11
S'ssl=0x8d514b50 cert_verify_callback x509_store_ctx=0x8ae12650 arg=0x0\n'
p319
sa(dp320
g2
S'32630'
p321
sg4
L1449904198794L
sg5
g45
sg7
S'NativeCrypto'
p322
sg9
S'0x181'
p323
sg11
S'ssl=0x8d514b50 cert_verify_callback calling verifyCertificateChain authMethod=RSA\n'
p324
sa(dp325
g2
S'32630'
p326
sg4
L1449904198801L
sg5
g45
sg7
S'NativeCrypto'
p327
sg9
S'0x183'
p328
sg11
S'ssl=0x9411c220 cert_verify_callback x509_store_ctx=0x8af10650 arg=0x0\n'
p329
sa(dp330
g2
S'32630'
p331
sg4
L1449904198802L
sg5
g45
sg7
S'NativeCrypto'
p332
sg9
S'0x183'
p333
sg11
S'ssl=0x9411c220 cert_verify_callback calling verifyCertificateChain authMethod=RSA\n'
p334
sa(dp335
g2
S'32630'
p336
sg4
L1449904198917L
sg5
g6
sg7
S'libc-netbsd'
p337
sg9
S'0x17e'
p338
sg11
S'getaddrinfo: wwc.taobaocdn.com get result from proxy >>\n'
p339
sa(dp340
g2
S'32630'
p341
sg4
L1449904198963L
sg5
g45
sg7
S'NativeCrypto'
p342
sg9
S'0x17e'
p343
sg11
S'ssl=0x91750260 cert_verify_callback x509_store_ctx=0x86a1c650 arg=0x0\n'
p344
sa(dp345
g2
S'32630'
p346
sg4
L1449904198965L
sg5
g45
sg7
S'NativeCrypto'
p347
sg9
S'0x17e'
p348
sg11
S'ssl=0x91750260 cert_verify_callback calling verifyCertificateChain authMethod=RSA\n'
p349
sa(dp350
g2
S'32630'
p351
sg4
L1449904198992L
sg5
g45
sg7
S'NativeCrypto'
p352
sg9
S'0x181'
p353
sg11
S'ssl=0x915e11e0 cert_verify_callback x509_store_ctx=0x8ae12650 arg=0x0\n'
p354
sa(dp355
g2
S'32630'
p356
sg4
L1449904199042L
sg5
g45
sg7
S'NativeCrypto'
p357
sg9
S'0x181'
p358
sg11
S'ssl=0x915e11e0 cert_verify_callback calling verifyCertificateChain authMethod=RSA\n'
p359
sa(dp360
g2
S'32630'
p361
sg4
L1449904199071L
sg5
g45
sg7
S'NativeCrypto'
p362
sg9
S'0x183'
p363
sg11
S'ssl=0x9400c0d8 cert_verify_callback x509_store_ctx=0x8af10650 arg=0x0\n'
p364
sa(dp365
g2
S'32630'
p366
sg4
L1449904199072L
sg5
g45
sg7
S'NativeCrypto'
p367
sg9
S'0x183'
p368
sg11
S'ssl=0x9400c0d8 cert_verify_callback calling verifyCertificateChain authMethod=RSA\n'
p369
sa(dp370
g2
S'32630'
p371
sg4
L1449904199142L
sg5
g45
sg7
S'NativeCrypto'
p372
sg9
S'0x17e'
p373
sg11
S'ssl=0x8bf1c688 cert_verify_callback x509_store_ctx=0x86a1c650 arg=0x0\n'
p374
sa(dp375
g2
S'32630'
p376
sg4
L1449904199143L
sg5
g45
sg7
S'NativeCrypto'
p377
sg9
S'0x17e'
p378
sg11
S'ssl=0x8bf1c688 cert_verify_callback calling verifyCertificateChain authMethod=RSA\n'
p379
sa(dp380
g2
S'32630'
p381
sg4
L1449904199180L
sg5
g45
sg7
S'NativeCrypto'
p382
sg9
S'0x181'
p383
sg11
S'ssl=0x915b3130 cert_verify_callback x509_store_ctx=0x8ae12650 arg=0x0\n'
p384
sa(dp385
g2
S'32630'
p386
sg4
L1449904199180L
sg5
g45
sg7
S'NativeCrypto'
p387
sg9
S'0x181'
p388
sg11
S'ssl=0x915b3130 cert_verify_callback calling verifyCertificateChain authMethod=RSA\n'
p389
sa(dp390
g2
S'32630'
p391
sg4
L1449904199245L
sg5
g45
sg7
S'NativeCrypto'
p392
sg9
S'0x183'
p393
sg11
S'ssl=0x91c12ca8 cert_verify_callback x509_store_ctx=0x8af106d0 arg=0x0\n'
p394
sa(dp395
g2
S'32630'
p396
sg4
L1449904199245L
sg5
g45
sg7
S'NativeCrypto'
p397
sg9
S'0x183'
p398
sg11
S'ssl=0x91c12ca8 cert_verify_callback calling verifyCertificateChain authMethod=RSA\n'
p399
sa(dp400
g2
S'32630'
p401
sg4
L1449904199276L
sg5
g45
sg7
S'NativeCrypto'
p402
sg9
S'0x17e'
p403
sg11
S'ssl=0x88cb1128 cert_verify_callback x509_store_ctx=0x86a1c650 arg=0x0\n'
p404
sa(dp405
g2
S'32630'
p406
sg4
L1449904199277L
sg5
g45
sg7
S'NativeCrypto'
p407
sg9
S'0x17e'
p408
sg11
S'ssl=0x88cb1128 cert_verify_callback calling verifyCertificateChain authMethod=RSA\n'
p409
sa(dp410
g2
S'32630'
p411
sg4
L1449904199280L
sg5
g6
sg7
S'libc-netbsd'
p412
sg9
S'0x181'
p413
sg11
S'getaddrinfo: gtms03.alicdn.com get result from proxy >>\n'
p414
sa(dp415
g2
S'32630'
p416
sg4
L1449904199358L
sg5
g45
sg7
S'NativeCrypto'
p417
sg9
S'0x181'
p418
sg11
S'ssl=0x91c12ca8 cert_verify_callback x509_store_ctx=0x8ae126d0 arg=0x0\n'
p419
sa(dp420
g2
S'32630'
p421
sg4
L1449904199358L
sg5
g45
sg7
S'NativeCrypto'
p422
sg9
S'0x181'
p423
sg11
S'ssl=0x91c12ca8 cert_verify_callback calling verifyCertificateChain authMethod=RSA\n'
p424
sa(dp425
g2
S'32630'
p426
sg4
L1449904199396L
sg5
g45
sg7
S'NativeCrypto'
p427
sg9
S'0x17e'
p428
sg11
S'ssl=0x8aa3ecb8 cert_verify_callback x509_store_ctx=0x86a1c650 arg=0x0\n'
p429
sa(dp430
g2
S'32630'
p431
sg4
L1449904199396L
sg5
g45
sg7
S'NativeCrypto'
p432
sg9
S'0x17e'
p433
sg11
S'ssl=0x8aa3ecb8 cert_verify_callback calling verifyCertificateChain authMethod=RSA\n'
p434
sa(dp435
g2
S'32630'
p436
sg4
L1449904199414L
sg5
g45
sg7
S'NativeCrypto'
p437
sg9
S'0x183'
p438
sg11
S'ssl=0x917458b8 cert_verify_callback x509_store_ctx=0x8af10650 arg=0x0\n'
p439
sa(dp440
g2
S'32630'
p441
sg4
L1449904199420L
sg5
g45
sg7
S'NativeCrypto'
p442
sg9
S'0x183'
p443
sg11
S'ssl=0x917458b8 cert_verify_callback calling verifyCertificateChain authMethod=RSA\n'
p444
sa(dp445
g2
S'32630'
p446
sg4
L1449904199565L
sg5
g45
sg7
S'NativeCrypto'
p447
sg9
S'0x181'
p448
sg11
S'ssl=0x8d4fb3a8 cert_verify_callback x509_store_ctx=0x8ae12650 arg=0x0\n'
p449
sa(dp450
g2
S'32630'
p451
sg4
L1449904199565L
sg5
g45
sg7
S'NativeCrypto'
p452
sg9
S'0x181'
p453
sg11
S'ssl=0x8d4fb3a8 cert_verify_callback calling verifyCertificateChain authMethod=RSA\n'
p454
sa(dp455
g2
S'32630'
p456
sg4
L1449904199590L
sg5
g45
sg7
S'NativeCrypto'
p457
sg9
S'0x17e'
p458
sg11
S'ssl=0x9479c190 cert_verify_callback x509_store_ctx=0x86a1c650 arg=0x0\n'
p459
sa(dp460
g2
S'32630'
p461
sg4
L1449904199590L
sg5
g45
sg7
S'NativeCrypto'
p462
sg9
S'0x17e'
p463
sg11
S'ssl=0x9479c190 cert_verify_callback calling verifyCertificateChain authMethod=RSA\n'
p464
sa(dp465
g2
S'32630'
p466
sg4
L1449904199628L
sg5
g45
sg7
S'NativeCrypto'
p467
sg9
S'0x183'
p468
sg11
S'ssl=0x948a9ea8 cert_verify_callback x509_store_ctx=0x8af10650 arg=0x0\n'
p469
sa(dp470
g2
S'32630'
p471
sg4
L1449904199630L
sg5
g45
sg7
S'NativeCrypto'
p472
sg9
S'0x183'
p473
sg11
S'ssl=0x948a9ea8 cert_verify_callback calling verifyCertificateChain authMethod=RSA\n'
p474
sa(dp475
g2
S'32630'
p476
sg4
L1449904199750L
sg5
g45
sg7
S'NativeCrypto'
p477
sg9
S'0x181'
p478
sg11
S'ssl=0x940703d8 cert_verify_callback x509_store_ctx=0x8ae12650 arg=0x0\n'
p479
sa(dp480
g2
S'32630'
p481
sg4
L1449904199750L
sg5
g45
sg7
S'NativeCrypto'
p482
sg9
S'0x181'
p483
sg11
S'ssl=0x940703d8 cert_verify_callback calling verifyCertificateChain authMethod=RSA\n'
p484
sa(dp485
g2
S'32630'
p486
sg4
L1449904199792L
sg5
g45
sg7
S'NativeCrypto'
p487
sg9
S'0x17e'
p488
sg11
S'ssl=0x9294d750 cert_verify_callback x509_store_ctx=0x86a1c650 arg=0x0\n'
p489
sa(dp490
g2
S'32630'
p491
sg4
L1449904199792L
sg5
g45
sg7
S'NativeCrypto'
p492
sg9
S'0x17e'
p493
sg11
S'ssl=0x9294d750 cert_verify_callback calling verifyCertificateChain authMethod=RSA\n'
p494
sa(dp495
g2
S'32630'
p496
sg4
L1449904199865L
sg5
g45
sg7
S'NativeCrypto'
p497
sg9
S'0x183'
p498
sg11
S'ssl=0x949aa040 cert_verify_callback x509_store_ctx=0x8af106d0 arg=0x0\n'
p499
sa(dp500
g2
S'32630'
p501
sg4
L1449904199865L
sg5
g45
sg7
S'NativeCrypto'
p502
sg9
S'0x183'
p503
sg11
S'ssl=0x949aa040 cert_verify_callback calling verifyCertificateChain authMethod=RSA\n'
p504
sa(dp505
g2
S'32630'
p506
sg4
L1449904199936L
sg5
g45
sg7
S'NativeCrypto'
p507
sg9
S'0x17e'
p508
sg11
S'ssl=0x9479ea08 cert_verify_callback x509_store_ctx=0x86a1c6d0 arg=0x0\n'
p509
sa(dp510
g2
S'32630'
p511
sg4
L1449904199936L
sg5
g45
sg7
S'NativeCrypto'
p512
sg9
S'0x17e'
p513
sg11
S'ssl=0x9479ea08 cert_verify_callback calling verifyCertificateChain authMethod=RSA\n'
p514
sa(dp515
g2
S'32630'
p516
sg4
L1449904199950L
sg5
g45
sg7
S'NativeCrypto'
p517
sg9
S'0x181'
p518
sg11
S'ssl=0x9479ede8 cert_verify_callback x509_store_ctx=0x8ae12650 arg=0x0\n'
p519
sa(dp520
g2
S'32630'
p521
sg4
L1449904199950L
sg5
g45
sg7
S'NativeCrypto'
p522
sg9
S'0x181'
p523
sg11
S'ssl=0x9479ede8 cert_verify_callback calling verifyCertificateChain authMethod=RSA\n'
p524
sa(dp525
g2
S'32630'
p526
sg4
L1449904199969L
sg5
g6
sg7
S'libc-netbsd'
p527
sg9
S'0x183'
p528
sg11
S'getaddrinfo: gw.alicdn.com get result from proxy >>\n'
p529
sa(dp530
g2
S'32630'
p531
sg4
L1449904200049L
sg5
g45
sg7
S'NativeCrypto'
p532
sg9
S'0x183'
p533
sg11
S'ssl=0x91c57858 cert_verify_callback x509_store_ctx=0x8af10650 arg=0x0\n'
p534
sa(dp535
g2
S'32630'
p536
sg4
L1449904200077L
sg5
g45
sg7
S'NativeCrypto'
p537
sg9
S'0x183'
p538
sg11
S'ssl=0x91c57858 cert_verify_callback calling verifyCertificateChain authMethod=RSA\n'
p539
sa(dp540
g2
S'32630'
p541
sg4
L1449904200149L
sg5
g45
sg7
S'NativeCrypto'
p542
sg9
S'0x181'
p543
sg11
S'ssl=0x91c12ca8 cert_verify_callback x509_store_ctx=0x8ae126d0 arg=0x0\n'
p544
sa(dp545
g2
S'32630'
p546
sg4
L1449904200149L
sg5
g45
sg7
S'NativeCrypto'
p547
sg9
S'0x181'
p548
sg11
S'ssl=0x91c12ca8 cert_verify_callback calling verifyCertificateChain authMethod=RSA\n'
p549
sa(dp550
g2
S'32630'
p551
sg4
L1449904200163L
sg5
g45
sg7
S'NativeCrypto'
p552
sg9
S'0x17e'
p553
sg11
S'ssl=0x94116760 cert_verify_callback x509_store_ctx=0x86a1c650 arg=0x0\n'
p554
sa(dp555
g2
S'32630'
p556
sg4
L1449904200163L
sg5
g45
sg7
S'NativeCrypto'
p557
sg9
S'0x17e'
p558
sg11
S'ssl=0x94116760 cert_verify_callback calling verifyCertificateChain authMethod=RSA\n'
p559
sa(dp560
g2
S'32630'
p561
sg4
L1449904200298L
sg5
g45
sg7
S'NativeCrypto'
p562
sg9
S'0x181'
p563
sg11
S'ssl=0x91c12ca8 cert_verify_callback x509_store_ctx=0x8ae12650 arg=0x0\n'
p564
sa(dp565
g2
S'32630'
p566
sg4
L1449904200299L
sg5
g45
sg7
S'NativeCrypto'
p567
sg9
S'0x181'
p568
sg11
S'ssl=0x91c12ca8 cert_verify_callback calling verifyCertificateChain authMethod=RSA\n'
p569
sa(dp570
g2
S'32630'
p571
sg4
L1449904200309L
sg5
g45
sg7
S'NativeCrypto'
p572
sg9
S'0x17e'
p573
sg11
S'ssl=0x94116760 cert_verify_callback x509_store_ctx=0x86a1c650 arg=0x0\n'
p574
sa(dp575
g2
S'32630'
p576
sg4
L1449904200309L
sg5
g45
sg7
S'NativeCrypto'
p577
sg9
S'0x17e'
p578
sg11
S'ssl=0x94116760 cert_verify_callback calling verifyCertificateChain authMethod=RSA\n'
p579
sa(dp580
g2
S'32630'
p581
sg4
L1449904200418L
sg5
g45
sg7
S'NativeCrypto'
p582
sg9
S'0x183'
p583
sg11
S'ssl=0x91c5ccf8 cert_verify_callback x509_store_ctx=0x8af10650 arg=0x0\n'
p584
sa(dp585
g2
S'32630'
p586
sg4
L1449904200419L
sg5
g45
sg7
S'NativeCrypto'
p587
sg9
S'0x183'
p588
sg11
S'ssl=0x91c5ccf8 cert_verify_callback calling verifyCertificateChain authMethod=RSA\n'
p589
sa(dp590
g2
S'32630'
p591
sg4
L1449904200446L
sg5
g45
sg7
S'NativeCrypto'
p592
sg9
S'0x181'
p593
sg11
S'ssl=0x88cf97d8 cert_verify_callback x509_store_ctx=0x8ae126d0 arg=0x0\n'
p594
sa(dp595
g2
S'32630'
p596
sg4
L1449904200447L
sg5
g45
sg7
S'NativeCrypto'
p597
sg9
S'0x181'
p598
sg11
S'ssl=0x88cf97d8 cert_verify_callback calling verifyCertificateChain authMethod=RSA\n'
p599
sa(dp600
g2
S'32630'
p601
sg4
L1449904200480L
sg5
g45
sg7
S'NativeCrypto'
p602
sg9
S'0x17e'
p603
sg11
S'ssl=0x8bf187b8 cert_verify_callback x509_store_ctx=0x86a1c6d0 arg=0x0\n'
p604
sa(dp605
g2
S'32630'
p606
sg4
L1449904200480L
sg5
g45
sg7
S'NativeCrypto'
p607
sg9
S'0x17e'
p608
sg11
S'ssl=0x8bf187b8 cert_verify_callback calling verifyCertificateChain authMethod=RSA\n'
p609
sa(dp610
g2
S'32630'
p611
sg4
L1449904200594L
sg5
g45
sg7
S'NativeCrypto'
p612
sg9
S'0x181'
p613
sg11
S'ssl=0x915d7a10 cert_verify_callback x509_store_ctx=0x8ae126d0 arg=0x0\n'
p614
sa(dp615
g2
S'32630'
p616
sg4
L1449904200595L
sg5
g45
sg7
S'NativeCrypto'
p617
sg9
S'0x181'
p618
sg11
S'ssl=0x915d7a10 cert_verify_callback calling verifyCertificateChain authMethod=RSA\n'
p619
sa(dp620
g2
S'32630'
p621
sg4
L1449904200756L
sg5
g45
sg7
S'NativeCrypto'
p622
sg9
S'0x181'
p623
sg11
S'ssl=0x91770f48 cert_verify_callback x509_store_ctx=0x8ae12650 arg=0x0\n'
p624
sa(dp625
g2
S'32630'
p626
sg4
L1449904200757L
sg5
g45
sg7
S'NativeCrypto'
p627
sg9
S'0x181'
p628
sg11
S'ssl=0x91770f48 cert_verify_callback calling verifyCertificateChain authMethod=RSA\n'
p629
sa(dp630
g2
S'32630'
p631
sg4
L1449904200946L
sg5
g45
sg7
S'NativeCrypto'
p632
sg9
S'0x181'
p633
sg11
S'ssl=0x91712800 cert_verify_callback x509_store_ctx=0x8ae12650 arg=0x0\n'
p634
sa(dp635
g2
S'32630'
p636
sg4
L1449904200946L
sg5
g45
sg7
S'NativeCrypto'
p637
sg9
S'0x181'
p638
sg11
S'ssl=0x91712800 cert_verify_callback calling verifyCertificateChain authMethod=RSA\n'
p639
sa(dp640
g2
S'32630'
p641
sg4
L1449904200980L
sg5
g6
sg7
S'libc-netbsd'
p642
sg9
S'0x17e'
p643
sg11
S'getaddrinfo: wwc.taobaocdn.com get result from proxy >>\n'
p644
sa(dp645
g2
S'32630'
p646
sg4
L1449904201000L
sg5
g45
sg7
S'NativeCrypto'
p647
sg9
S'0x183'
p648
sg11
S'ssl=0x947f8f80 cert_verify_callback x509_store_ctx=0x8af10650 arg=0x0\n'
p649
sa(dp650
g2
S'32630'
p651
sg4
L1449904201001L
sg5
g45
sg7
S'NativeCrypto'
p652
sg9
S'0x183'
p653
sg11
S'ssl=0x947f8f80 cert_verify_callback calling verifyCertificateChain authMethod=RSA\n'
p654
sa(dp655
g2
S'32630'
p656
sg4
L1449904201032L
sg5
g45
sg7
S'NativeCrypto'
p657
sg9
S'0x17e'
p658
sg11
S'ssl=0x8bbfb5e8 cert_verify_callback x509_store_ctx=0x86a1c6d0 arg=0x0\n'
p659
sa(dp660
g2
S'32630'
p661
sg4
L1449904201033L
sg5
g45
sg7
S'NativeCrypto'
p662
sg9
S'0x17e'
p663
sg11
S'ssl=0x8bbfb5e8 cert_verify_callback calling verifyCertificateChain authMethod=RSA\n'
p664
sa(dp665
g2
S'32630'
p666
sg4
L1449904201170L
sg5
g45
sg7
S'NativeCrypto'
p667
sg9
S'0x17e'
p668
sg11
S'ssl=0x8befdca0 cert_verify_callback x509_store_ctx=0x86a1c6d0 arg=0x0\n'
p669
sa(dp670
g2
S'32630'
p671
sg4
L1449904201170L
sg5
g45
sg7
S'NativeCrypto'
p672
sg9
S'0x17e'
p673
sg11
S'ssl=0x8befdca0 cert_verify_callback calling verifyCertificateChain authMethod=RSA\n'
p674
sa(dp675
g2
S'32630'
p676
sg4
L1449904201403L
sg5
g6
sg7
S'libc-netbsd'
p677
sg9
S'0x181'
p678
sg11
S'getaddrinfo: img.alicdn.com get result from proxy >>\n'
p679
sa(dp680
g2
S'32630'
p681
sg4
L1449904201424L
sg5
g45
sg7
S'NativeCrypto'
p682
sg9
S'0x183'
p683
sg11
S'ssl=0x88d1e390 cert_verify_callback x509_store_ctx=0x8af106d0 arg=0x0\n'
p684
sa(dp685
g2
S'32630'
p686
sg4
L1449904201424L
sg5
g45
sg7
S'NativeCrypto'
p687
sg9
S'0x183'
p688
sg11
S'ssl=0x88d1e390 cert_verify_callback calling verifyCertificateChain authMethod=RSA\n'
p689
sa(dp690
g2
S'32630'
p691
sg4
L1449904201441L
sg5
g45
sg7
S'NativeCrypto'
p692
sg9
S'0x17e'
p693
sg11
S'ssl=0x7b7333e8 cert_verify_callback x509_store_ctx=0x86a1c650 arg=0x0\n'
p694
sa(dp695
g2
S'32630'
p696
sg4
L1449904201441L
sg5
g45
sg7
S'NativeCrypto'
p697
sg9
S'0x17e'
p698
sg11
S'ssl=0x7b7333e8 cert_verify_callback calling verifyCertificateChain authMethod=RSA\n'
p699
sa(dp700
g2
S'32630'
p701
sg4
L1449904201451L
sg5
g45
sg7
S'NativeCrypto'
p702
sg9
S'0x181'
p703
sg11
S'ssl=0x94116760 cert_verify_callback x509_store_ctx=0x8ae12650 arg=0x0\n'
p704
sa(dp705
g2
S'32630'
p706
sg4
L1449904201451L
sg5
g45
sg7
S'NativeCrypto'
p707
sg9
S'0x181'
p708
sg11
S'ssl=0x94116760 cert_verify_callback calling verifyCertificateChain authMethod=RSA\n'
p709
sa(dp710
g2
S'32630'
p711
sg4
L1449904201672L
sg5
g45
sg7
S'NativeCrypto'
p712
sg9
S'0x181'
p713
sg11
S'ssl=0x8bbf9158 cert_verify_callback x509_store_ctx=0x8ae12650 arg=0x0\n'
p714
sa(dp715
g2
S'32630'
p716
sg4
L1449904201672L
sg5
g45
sg7
S'NativeCrypto'
p717
sg9
S'0x181'
p718
sg11
S'ssl=0x8bbf9158 cert_verify_callback calling verifyCertificateChain authMethod=RSA\n'
p719
sa(dp720
g2
S'32630'
p721
sg4
L1449904201779L
sg5
g45
sg7
S'NativeCrypto'
p722
sg9
S'0x183'
p723
sg11
S'ssl=0x88c799b0 cert_verify_callback x509_store_ctx=0x8af106d0 arg=0x0\n'
p724
sa(dp725
g2
S'32630'
p726
sg4
L1449904201780L
sg5
g45
sg7
S'NativeCrypto'
p727
sg9
S'0x183'
p728
sg11
S'ssl=0x88c799b0 cert_verify_callback calling verifyCertificateChain authMethod=RSA\n'
p729
sa(dp730
g2
S'32630'
p731
sg4
L1449904205214L
sg5
g6
sg7
S'libc-netbsd'
p732
sg9
S'0x7f9c'
p733
sg11
S'getaddrinfo: adash.m.taobao.com get result from proxy >>\n'
p734
sa(dp735
g2
S'32630'
p736
sg4
L1449904205804L
sg5
g161
sg7
S'chromium'
p737
sg9
S'0x7f76'
p738
sg11
S'[WARNING:password_handler.cc(26)] create-->contents = 0x94031888, delegate = 0x91756f40\n'
p739
sa(dp740
g2
S'32630'
p741
sg4
L1449904205804L
sg5
g161
sg7
S'chromium'
p742
sg9
S'0x7f76'
p743
sg11
S'[WARNING:password_handler.cc(34)] attaching to web_contents \n'
p744
sa(dp745
g2
S'32630'
p746
sg4
L1449904205853L
sg5
g6
sg7
S'libc-netbsd'
p747
sg9
S'0x7fbe'
p748
sg11
S'getaddrinfo: h5.m.taobao.com get result from proxy >>\n'
p749
sa(dp750
g2
S'32630'
p751
sg4
L1449904206049L
sg5
g161
sg7
S'chromium'
p752
sg9
S'0x7f76'
p753
sg11
S'[WARNING:password_handler.cc(60)] DidNavigateAnyFrame can_save = 0\n'
p754
sa(dp755
g2
S'32630'
p756
sg4
L1449904206049L
sg5
g161
sg7
S'chromium'
p757
sg9
S'0x7f76'
p758
sg11
S'[WARNING:aw_password_handler_delegate_impl.cc(201)] IsSavePasswordEnabled ret is \n'
p759
sa(dp760
g2
S'32630'
p761
sg4
L1449904206049L
sg5
g161
sg7
S'chromium'
p762
sg9
S'0x7f76'
p763
sg11
S'[WARNING:password_handler.cc(64)] DidNavigateAnyFrame IsEnabledSavePassword is false!!\n'
p764
sa(dp765
g2
S'32630'
p766
sg4
L1449904206449L
sg5
g161
sg7
S'chromium'
p767
sg9
S'0x7f76'
p768
sg11
S'[WARNING:password_handler.cc(195)] OnPasswordFormsRendered called\n'
p769
sa(dp770
g2
S'32630'
p771
sg4
L1449904206450L
sg5
g161
sg7
S'chromium'
p772
sg9
S'0x7f76'
p773
sg11
S'[WARNING:aw_password_handler_delegate_impl.cc(201)] IsSavePasswordEnabled ret is \n'
p774
sa(dp775
g2
S'32630'
p776
sg4
L1449904206450L
sg5
g161
sg7
S'chromium'
p777
sg9
S'0x7f76'
p778
sg11
S'[WARNING:password_handler.cc(197)] OnPasswordFormsRendered IsEnabledSavePassword is false\n'
p779
sa(dp780
g2
S'32630'
p781
sg4
L1449904209687L
sg5
g6
sg7
S'libc-netbsd'
p782
sg9
S'0x7ff2'
p783
sg11
S'getaddrinfo: api.m.taobao.com get result from proxy >>\n'
p784
sa(dp785
g2
S'32630'
p786
sg4
L1449904209748L
sg5
g161
sg7
S'chromium'
p787
sg9
S'0x7f76'
p788
sg11
S'[WARNING:password_handler.cc(26)] create-->contents = 0x94095530, delegate = 0x948a9208\n'
p789
sa(dp790
g2
S'32630'
p791
sg4
L1449904209749L
sg5
g161
sg7
S'chromium'
p792
sg9
S'0x7f76'
p793
sg11
S'[WARNING:password_handler.cc(34)] attaching to web_contents \n'
p794
sa(dp795
g2
S'32630'
p796
sg4
L1449904209784L
sg5
g6
sg7
S'libc-netbsd'
p797
sg9
S'0x7fbc'
p798
sg11
S'getaddrinfo: h5.m.taobao.com get result from proxy >>\n'
p799
sa(dp800
g2
S'32630'
p801
sg4
L1449904209926L
sg5
g161
sg7
S'chromium'
p802
sg9
S'0x7f76'
p803
sg11
S'[WARNING:password_handler.cc(60)] DidNavigateAnyFrame can_save = 0\n'
p804
sa(dp805
g2
S'32630'
p806
sg4
L1449904209927L
sg5
g161
sg7
S'chromium'
p807
sg9
S'0x7f76'
p808
sg11
S'[WARNING:aw_password_handler_delegate_impl.cc(201)] IsSavePasswordEnabled ret is \n'
p809
sa(dp810
g2
S'32630'
p811
sg4
L1449904209927L
sg5
g161
sg7
S'chromium'
p812
sg9
S'0x7f76'
p813
sg11
S'[WARNING:password_handler.cc(64)] DidNavigateAnyFrame IsEnabledSavePassword is false!!\n'
p814
sa(dp815
g2
S'32630'
p816
sg4
L1449904210084L
sg5
g6
sg7
S'libc-netbsd'
p817
sg9
S'0x1c1'
p818
sg11
S'getaddrinfo: img.alicdn.com get result from proxy >>\n'
p819
sa(dp820
g2
S'32630'
p821
sg4
L1449904210282L
sg5
g161
sg7
S'chromium'
p822
sg9
S'0x7f76'
p823
sg11
S'[WARNING:password_handler.cc(195)] OnPasswordFormsRendered called\n'
p824
sa(dp825
g2
S'32630'
p826
sg4
L1449904210282L
sg5
g161
sg7
S'chromium'
p827
sg9
S'0x7f76'
p828
sg11
S'[WARNING:aw_password_handler_delegate_impl.cc(201)] IsSavePasswordEnabled ret is \n'
p829
sa(dp830
g2
S'32630'
p831
sg4
L1449904210282L
sg5
g161
sg7
S'chromium'
p832
sg9
S'0x7f76'
p833
sg11
S'[WARNING:password_handler.cc(197)] OnPasswordFormsRendered IsEnabledSavePassword is false\n'
p834
sa(dp835
g2
S'32630'
p836
sg4
L1449904211170L
sg5
g6
sg7
S'libc-netbsd'
p837
sg9
S'0x2c6'
p838
sg11
S'getaddrinfo: kgb.alibaba.com get result from proxy >>\n'
p839
sa(dp840
g2
S'32630'
p841
sg4
L1449904213027L
sg5
g6
sg7
S'libc-netbsd'
p842
sg9
S'0x1c1'
p843
sg11
S'getaddrinfo: wgo.mmstat.com get result from proxy >>\n'
p844
sa(dp845
g2
S'32630'
p846
sg4
L1449904214397L
sg5
g6
sg7
S'libc-netbsd'
p847
sg9
S'0x7f9c'
p848
sg11
S'getaddrinfo: adash.m.taobao.com get result from proxy >>\n'
p849
sa(dp850
g2
S'32630'
p851
sg4
L1449904216771L
sg5
g45
sg7
S'doraemon:TraceId'
p852
sg9
S'0x3e7'
p853
sg11
S'an thread has traceid,but cache loss it\n'
p854
sa(dp855
g2
S'32630'
p856
sg4
L1449904217092L
sg5
g161
sg7
S'chromium'
p857
sg9
S'0x7f76'
p858
sg11
S'[WARNING:password_handler.cc(60)] DidNavigateAnyFrame can_save = 0\n'
p859
sa(dp860
g2
S'32630'
p861
sg4
L1449904217092L
sg5
g161
sg7
S'chromium'
p862
sg9
S'0x7f76'
p863
sg11
S'[WARNING:aw_password_handler_delegate_impl.cc(201)] IsSavePasswordEnabled ret is \n'
p864
sa(dp865
g2
S'32630'
p866
sg4
L1449904217093L
sg5
g161
sg7
S'chromium'
p867
sg9
S'0x7f76'
p868
sg11
S'[WARNING:password_handler.cc(64)] DidNavigateAnyFrame IsEnabledSavePassword is false!!\n'
p869
sa(dp870
g2
S'32630'
p871
sg4
L1449904217988L
sg5
g161
sg7
S'chromium'
p872
sg9
S'0x7f76'
p873
sg11
S'[WARNING:password_handler.cc(195)] OnPasswordFormsRendered called\n'
p874
sa(dp875
g2
S'32630'
p876
sg4
L1449904217988L
sg5
g161
sg7
S'chromium'
p877
sg9
S'0x7f76'
p878
sg11
S'[WARNING:aw_password_handler_delegate_impl.cc(201)] IsSavePasswordEnabled ret is \n'
p879
sa(dp880
g2
S'32630'
p881
sg4
L1449904217988L
sg5
g161
sg7
S'chromium'
p882
sg9
S'0x7f76'
p883
sg11
S'[WARNING:password_handler.cc(197)] OnPasswordFormsRendered IsEnabledSavePassword is false\n'
p884
sa(dp885
g2
S'32630'
p886
sg4
L1449904218279L
sg5
g6
sg7
S'libc-netbsd'
p887
sg9
S'0x1c1'
p888
sg11
S'getaddrinfo: www.taobao.com get result from proxy >>\n'
p889
sa(dp890
g2
S'32630'
p891
sg4
L1449904220897L
sg5
g6
sg7
S'libc-netbsd'
p892
sg9
S'0x7f9e'
p893
sg11
S'getaddrinfo: adash.m.taobao.com get result from proxy >>\n'
p894
sa(dp895
g2
S'32630'
p896
sg4
L1449904221183L
sg5
g6
sg7
S'libc-netbsd'
p897
sg9
S'0x34c'
p898
sg11
S'getaddrinfo: kgb.alibaba.com get result from proxy >>\n'
p899
sa(dp900
g2
S'32630'
p901
sg4
L1449904233404L
sg5
g6
sg7
S'libc-netbsd'
p902
sg9
S'0x1d5'
p903
sg11
S'getaddrinfo: tb.cn get result from proxy >>\n'
p904
sa(dp905
g2
S'32630'
p906
sg4
L1449904234579L
sg5
g45
sg7
S'http-action:'
p907
sg9
S'0x1d5'
p908
sg11
S'ori http encode or decode action fail,detail:\n'
p909
sa(dp910
g2
S'32630'
p911
sg4
L1449904234666L
sg5
g6
sg7
S'libc-netbsd'
p912
sg9
S'0x138'
p913
sg11
S'getaddrinfo: api.m.taobao.com get result from proxy >>\n'
p914
sa(dp915
g2
S'32630'
p916
sg4
L1449904241024L
sg5
g45
sg7
S'WindowManager'
p917
sg9
S'0x7f76'
p918
sg11
S''
p919
sa(dp920
g2
S'32630'
p921
sg4
L1449904243630L
sg5
g161
sg7
S'chromium'
p922
sg9
S'0x7f76'
p923
sg11
S'[WARNING:password_handler.cc(26)] create-->contents = 0x94095530, delegate = 0x88e7b348\n'
p924
sa(dp925
g2
S'32630'
p926
sg4
L1449904243630L
sg5
g161
sg7
S'chromium'
p927
sg9
S'0x7f76'
p928
sg11
S'[WARNING:password_handler.cc(34)] attaching to web_contents \n'
p929
sa(dp930
g2
S'32630'
p931
sg4
L1449904243661L
sg5
g6
sg7
S'libc-netbsd'
p932
sg9
S'0x7fbe'
p933
sg11
S'getaddrinfo: h5.m.taobao.com get result from proxy >>\n'
p934
sa(dp935
g2
S'32630'
p936
sg4
L1449904243776L
sg5
g161
sg7
S'chromium'
p937
sg9
S'0x7f76'
p938
sg11
S'[WARNING:password_handler.cc(60)] DidNavigateAnyFrame can_save = 0\n'
p939
sa(dp940
g2
S'32630'
p941
sg4
L1449904243776L
sg5
g161
sg7
S'chromium'
p942
sg9
S'0x7f76'
p943
sg11
S'[WARNING:aw_password_handler_delegate_impl.cc(201)] IsSavePasswordEnabled ret is \n'
p944
sa(dp945
g2
S'32630'
p946
sg4
L1449904243776L
sg5
g161
sg7
S'chromium'
p947
sg9
S'0x7f76'
p948
sg11
S'[WARNING:password_handler.cc(64)] DidNavigateAnyFrame IsEnabledSavePassword is false!!\n'
p949
sa(dp950
g2
S'32630'
p951
sg4
L1449904244134L
sg5
g161
sg7
S'chromium'
p952
sg9
S'0x7f76'
p953
sg11
S'[WARNING:password_handler.cc(195)] OnPasswordFormsRendered called\n'
p954
sa(dp955
g2
S'32630'
p956
sg4
L1449904244134L
sg5
g161
sg7
S'chromium'
p957
sg9
S'0x7f76'
p958
sg11
S'[WARNING:aw_password_handler_delegate_impl.cc(201)] IsSavePasswordEnabled ret is \n'
p959
sa(dp960
g2
S'32630'
p961
sg4
L1449904244134L
sg5
g161
sg7
S'chromium'
p962
sg9
S'0x7f76'
p963
sg11
S'[WARNING:password_handler.cc(197)] OnPasswordFormsRendered IsEnabledSavePassword is false\n'
p964
sa(dp965
g2
S'32630'
p966
sg4
L1449904245334L
sg5
g161
sg7
S'chromium'
p967
sg9
S'0x7f76'
p968
sg11
S'[WARNING:password_handler.cc(26)] create-->contents = 0x92997c38, delegate = 0x904eb8d8\n'
p969
sa(dp970
g2
S'32630'
p971
sg4
L1449904245334L
sg5
g161
sg7
S'chromium'
p972
sg9
S'0x7f76'
p973
sg11
S'[WARNING:password_handler.cc(34)] attaching to web_contents \n'
p974
sa(dp975
g2
S'32630'
p976
sg4
L1449904245472L
sg5
g161
sg7
S'chromium'
p977
sg9
S'0x7f76'
p978
sg11
S'[WARNING:password_handler.cc(60)] DidNavigateAnyFrame can_save = 0\n'
p979
sa(dp980
g2
S'32630'
p981
sg4
L1449904245472L
sg5
g161
sg7
S'chromium'
p982
sg9
S'0x7f76'
p983
sg11
S'[WARNING:aw_password_handler_delegate_impl.cc(201)] IsSavePasswordEnabled ret is \n'
p984
sa(dp985
g2
S'32630'
p986
sg4
L1449904245472L
sg5
g161
sg7
S'chromium'
p987
sg9
S'0x7f76'
p988
sg11
S'[WARNING:password_handler.cc(64)] DidNavigateAnyFrame IsEnabledSavePassword is false!!\n'
p989
sa(dp990
g2
S'32630'
p991
sg4
L1449904245575L
sg5
g161
sg7
S'chromium'
p992
sg9
S'0x7f76'
p993
sg11
S'[WARNING:password_handler.cc(195)] OnPasswordFormsRendered called\n'
p994
sa(dp995
g2
S'32630'
p996
sg4
L1449904245575L
sg5
g161
sg7
S'chromium'
p997
sg9
S'0x7f76'
p998
sg11
S'[WARNING:aw_password_handler_delegate_impl.cc(201)] IsSavePasswordEnabled ret is \n'
p999
sa(dp1000
g2
S'32630'
p1001
sg4
L1449904245575L
sg5
g161
sg7
S'chromium'
p1002
sg9
S'0x7f76'
p1003
sg11
S'[WARNING:password_handler.cc(197)] OnPasswordFormsRendered IsEnabledSavePassword is false\n'
p1004
sa(dp1005
g2
S'32630'
p1006
sg4
L1449904248275L
sg5
g45
sg7
S'doraemon:TraceId'
p1007
sg9
S'0x3e4'
p1008
sg11
S'an thread has traceid,but cache loss it\n'
p1009
sa(dp1010
g2
S'32630'
p1011
sg4
L1449904248394L
sg5
g45
sg7
S'doraemon:TraceId'
p1012
sg9
S'0x3e1'
p1013
sg11
S'an thread has traceid,but cache loss it\n'
p1014
sa(dp1015
g2
S'32630'
p1016
sg4
L1449904253159L
sg5
g45
sg7
S'doraemon:TraceId'
p1017
sg9
S'0x13e'
p1018
sg11
S'an thread has traceid,but cache loss it\n'
p1019
sa(dp1020
g2
S'32630'
p1021
sg4
L1449904253346L
sg5
g6
sg7
S'libc-netbsd'
p1022
sg9
S'0x17e'
p1023
sg11
S'getaddrinfo: wwc.taobaocdn.com get result from proxy >>\n'
p1024
sa(dp1025
g2
S'32630'
p1026
sg4
L1449904253484L
sg5
g45
sg7
S'NativeCrypto'
p1027
sg9
S'0x17e'
p1028
sg11
S'ssl=0x88d2ed78 cert_verify_callback x509_store_ctx=0x86a1c6d0 arg=0x0\n'
p1029
sa(dp1030
g2
S'32630'
p1031
sg4
L1449904253484L
sg5
g45
sg7
S'NativeCrypto'
p1032
sg9
S'0x17e'
p1033
sg11
S'ssl=0x88d2ed78 cert_verify_callback calling verifyCertificateChain authMethod=RSA\n'
p1034
sa(dp1035
g2
S'32630'
p1036
sg4
L1449904253727L
sg5
g6
sg7
S'libc-netbsd'
p1037
sg9
S'0x17e'
p1038
sg11
S'getaddrinfo: gtms03.alicdn.com get result from proxy >>\n'
p1039
sa(dp1040
g2
S'32630'
p1041
sg4
L1449904253891L
sg5
g45
sg7
S'NativeCrypto'
p1042
sg9
S'0x17e'
p1043
sg11
S'ssl=0x9293acb8 cert_verify_callback x509_store_ctx=0x86a1c650 arg=0x0\n'
p1044
sa(dp1045
g2
S'32630'
p1046
sg4
L1449904253892L
sg5
g45
sg7
S'NativeCrypto'
p1047
sg9
S'0x17e'
p1048
sg11
S'ssl=0x9293acb8 cert_verify_callback calling verifyCertificateChain authMethod=RSA\n'
p1049
sa(dp1050
g2
S'32630'
p1051
sg4
L1449904258997L
sg5
g45
sg7
S'doraemon:TraceId'
p1052
sg9
S'0x3e7'
p1053
sg11
S'an thread has traceid,but cache loss it\n'
p1054
sa(dp1055
g2
S'32630'
p1056
sg4
L1449904259829L
sg5
g45
sg7
S'doraemon:TraceId'
p1057
sg9
S'0x3d5'
p1058
sg11
S'an thread has traceid,but cache loss it\n'
p1059
sa(dp1060
g2
S'32630'
p1061
sg4
L1449904260213L
sg5
g45
sg7
S'doraemon:TraceId'
p1062
sg9
S'0x3de'
p1063
sg11
S'an thread has traceid,but cache loss it\n'
p1064
sa(dp1065
g2
S'1506'
p1066
sg4
L1449904278155L
sg5
g161
sg7
S'linker  '
p1067
sg9
S'0x61f'
p1068
sg11
S'libsecuritysdk-4.1.21.so has text relocations. This is wasting memory and is a security risk. Please fix.\n'
p1069
sa(dp1070
g2
S'1506'
p1071
sg4
L1449904278163L
sg5
g161
sg7
S'linker  '
p1072
sg9
S'0x61f'
p1073
sg11
S'libsecuritysdkx-4.1.21.so has text relocations. This is wasting memory and is a security risk. Please fix.\n'
p1074
sa(dp1075
g2
S'1506'
p1076
sg4
L1449904278176L
sg5
g45
sg7
S'linker  '
p1077
sg9
S'0x624'
p1078
sg11
S'"app_process": ignoring 2-entry DT_PREINIT_ARRAY in shared library!\n'
p1079
sa(dp1080
g2
S'1506'
p1081
sg4
L1449904278255L
sg5
g161
sg7
S'dalvikvm'
p1082
sg9
S'0x61e'
p1083
sg11
S'VFY: unable to resolve interface method 51629: Lcom/taobao/tao/log/ITLogController;.getLogLevel (Ljava/lang/String;)Lcom/taobao/tao/log/LogLevel;\n'
p1084
sa(dp1085
g2
S'1506'
p1086
sg4
L1449904278256L
sg5
g161
sg7
S'dalvikvm'
p1087
sg9
S'0x61e'
p1088
sg11
S'VFY: unable to resolve static method 51655: Lcom/taobao/tao/log/TLog;.logv (Ljava/lang/String;Ljava/lang/String;)V\n'
p1089
sa(dp1090
g2
S'1506'
p1091
sg4
L1449904278355L
sg5
g161
sg7
S'dalvikvm'
p1092
sg9
S'0x640'
p1093
sg11
S'VFY: unable to resolve static method 51491: Lcom/taobao/statistic/TBS$Adv;.forceUpload ()V\n'
p1094
sa(dp1095
g2
S'1506'
p1096
sg4
L1449904278483L
sg5
g161
sg7
S'dalvikvm'
p1097
sg9
S'0x63d'
p1098
sg11
S'VFY: unable to resolve static field 188 (SUPPORTED_ABIS) in Landroid/os/Build;\n'
p1099
sa(dp1100
g2
S'1506'
p1101
sg4
L1449904278484L
sg5
g6
sg7
S'libc-netbsd'
p1102
sg9
S'0x628'
p1103
sg11
S'getaddrinfo: acjs.aliyun.com get result from proxy >>\n'
p1104
sa(dp1105
g2
S'1506'
p1106
sg4
L1449904278653L
sg5
g6
sg7
S'libc-netbsd'
p1107
sg9
S'0x66d'
p1108
sg11
S'getaddrinfo: h5.m.taobao.com get result from proxy >>\n'
p1109
sa(dp1110
g2
S'1506'
p1111
sg4
L1449904278677L
sg5
g45
sg7
S'doraemon:TraceId'
p1112
sg9
S'0x67b'
p1113
sg11
S'an thread has traceid,but cache loss it\n'
p1114
sa(dp1115
g2
S'1506'
p1116
sg4
L1449904278690L
sg5
g45
sg7
S'doraemon:TraceId'
p1117
sg9
S'0x67c'
p1118
sg11
S'an thread has traceid,but cache loss it\n'
p1119
sa(dp1120
g2
S'1506'
p1121
sg4
L1449904279040L
sg5
g45
sg7
S'doraemon:TraceId'
p1122
sg9
S'0x695'
p1123
sg11
S'an thread has traceid,but cache loss it\n'
p1124
sa(dp1125
g2
S'1506'
p1126
sg4
L1449904279077L
sg5
g45
sg7
S'doraemon:TraceId'
p1127
sg9
S'0x696'
p1128
sg11
S'an thread has traceid,but cache loss it\n'
p1129
sa(dp1130
g2
S'1506'
p1131
sg4
L1449904295977L
sg5
g6
sg7
S'libc-netbsd'
p1132
sg9
S'0x719'
p1133
sg11
S'getaddrinfo: api.m.taobao.com get result from proxy >>\n'
p1134
sa(dp1135
g2
S'2182'
p1136
sg4
L1449904397573L
sg5
g161
sg7
S'linker  '
p1137
sg9
S'0x8a8'
p1138
sg11
S'libsecuritysdk-4.1.21.so has text relocations. This is wasting memory and is a security risk. Please fix.\n'
p1139
sa(dp1140
g2
S'2182'
p1141
sg4
L1449904397585L
sg5
g161
sg7
S'linker  '
p1142
sg9
S'0x8a8'
p1143
sg11
S'libsecuritysdkx-4.1.21.so has text relocations. This is wasting memory and is a security risk. Please fix.\n'
p1144
sa(dp1145
g2
S'2182'
p1146
sg4
L1449904397598L
sg5
g45
sg7
S'linker  '
p1147
sg9
S'0x8ac'
p1148
sg11
S'"app_process": ignoring 2-entry DT_PREINIT_ARRAY in shared library!\n'
p1149
sa(dp1150
g2
S'2182'
p1151
sg4
L1449904397674L
sg5
g161
sg7
S'dalvikvm'
p1152
sg9
S'0x8b4'
p1153
sg11
S'VFY: unable to resolve interface method 51629: Lcom/taobao/tao/log/ITLogController;.getLogLevel (Ljava/lang/String;)Lcom/taobao/tao/log/LogLevel;\n'
p1154
sa(dp1155
g2
S'2182'
p1156
sg4
L1449904397674L
sg5
g161
sg7
S'dalvikvm'
p1157
sg9
S'0x8b4'
p1158
sg11
S'VFY: unable to resolve static method 51655: Lcom/taobao/tao/log/TLog;.logv (Ljava/lang/String;Ljava/lang/String;)V\n'
p1159
sa(dp1160
g2
S'2182'
p1161
sg4
L1449904397809L
sg5
g161
sg7
S'dalvikvm'
p1162
sg9
S'0x8c1'
p1163
sg11
S'VFY: unable to resolve static method 51491: Lcom/taobao/statistic/TBS$Adv;.forceUpload ()V\n'
p1164
sa(dp1165
g2
S'2182'
p1166
sg4
L1449904397847L
sg5
g6
sg7
S'libc-netbsd'
p1167
sg9
S'0x8ae'
p1168
sg11
S'getaddrinfo: acjs.aliyun.com get result from proxy >>\n'
p1169
sa(dp1170
g2
S'2182'
p1171
sg4
L1449904397855L
sg5
g161
sg7
S'dalvikvm'
p1172
sg9
S'0x8bf'
p1173
sg11
S'VFY: unable to resolve static field 188 (SUPPORTED_ABIS) in Landroid/os/Build;\n'
p1174
sa(dp1175
g2
S'2182'
p1176
sg4
L1449904397994L
sg5
g45
sg7
S'doraemon:TraceId'
p1177
sg9
S'0x8e5'
p1178
sg11
S'an thread has traceid,but cache loss it\n'
p1179
sa(dp1180
g2
S'2182'
p1181
sg4
L1449904398040L
sg5
g6
sg7
S'libc-netbsd'
p1182
sg9
S'0x8dd'
p1183
sg11
S'getaddrinfo: h5.m.taobao.com get result from proxy >>\n'
p1184
sa(dp1185
g2
S'2182'
p1186
sg4
L1449904398066L
sg5
g45
sg7
S'doraemon:TraceId'
p1187
sg9
S'0x8e6'
p1188
sg11
S'an thread has traceid,but cache loss it\n'
p1189
sa(dp1190
g2
S'2182'
p1191
sg4
L1449904398386L
sg5
g161
sg7
S'dalvikvm'
p1192
sg9
S'0x886'
p1193
sg11
S'VFY: unable to resolve virtual method 60448: Lmtopsdk/mtop/intf/MtopBuilder;.get ()Lmtopsdk/mtop/domain/MtopResponse;\n'
p1194
sa(dp1195
g2
S'2182'
p1196
sg4
L1449904398507L
sg5
g45
sg7
S'        '
p1197
sg9
S'0x886'
p1198
sg11
S'appName=com.taobao.ishopping, acAppName=/system/bin/surfaceflinger\n'
p1199
sa(dp1200
g2
S'2182'
p1201
sg4
L1449904398507L
sg5
g45
sg7
S'        '
p1202
sg9
S'0x886'
p1203
sg11
g919
sa(dp1204
g2
S'2333'
p1205
sg4
L1449904399228L
sg5
g161
sg7
S'linker  '
p1206
sg9
S'0x938'
p1207
sg11
S'libsecuritysdk-4.1.21.so has text relocations. This is wasting memory and is a security risk. Please fix.\n'
p1208
sa(dp1209
g2
S'2333'
p1210
sg4
L1449904399234L
sg5
g161
sg7
S'linker  '
p1211
sg9
S'0x938'
p1212
sg11
S'libsecuritysdkx-4.1.21.so has text relocations. This is wasting memory and is a security risk. Please fix.\n'
p1213
sa(dp1214
g2
S'2333'
p1215
sg4
L1449904399242L
sg5
g45
sg7
S'linker  '
p1216
sg9
S'0x93e'
p1217
sg11
S'"app_process": ignoring 2-entry DT_PREINIT_ARRAY in shared library!\n'
p1218
sa(dp1219
g2
S'2333'
p1220
sg4
L1449904399308L
sg5
g161
sg7
S'dalvikvm'
p1221
sg9
S'0x938'
p1222
sg11
S'VFY: unable to resolve interface method 51629: Lcom/taobao/tao/log/ITLogController;.getLogLevel (Ljava/lang/String;)Lcom/taobao/tao/log/LogLevel;\n'
p1223
sa(dp1224
g2
S'2333'
p1225
sg4
L1449904399324L
sg5
g161
sg7
S'dalvikvm'
p1226
sg9
S'0x938'
p1227
sg11
S'VFY: unable to resolve static method 51655: Lcom/taobao/tao/log/TLog;.logv (Ljava/lang/String;Ljava/lang/String;)V\n'
p1228
sa(dp1229
g2
S'2333'
p1230
sg4
L1449904399447L
sg5
g6
sg7
S'libc-netbsd'
p1231
sg9
S'0x941'
p1232
sg11
S'getaddrinfo: acjs.aliyun.com get result from proxy >>\n'
p1233
sa(dp1234
g2
S'2333'
p1235
sg4
L1449904399469L
sg5
g161
sg7
S'dalvikvm'
p1236
sg9
S'0x95d'
p1237
sg11
S'VFY: unable to resolve static method 51491: Lcom/taobao/statistic/TBS$Adv;.forceUpload ()V\n'
p1238
sa(dp1239
g2
S'2333'
p1240
sg4
L1449904399525L
sg5
g161
sg7
S'dalvikvm'
p1241
sg9
S'0x95b'
p1242
sg11
S'VFY: unable to resolve static field 188 (SUPPORTED_ABIS) in Landroid/os/Build;\n'
p1243
sa(dp1244
g2
S'2333'
p1245
sg4
L1449904399601L
sg5
g6
sg7
S'libc-netbsd'
p1246
sg9
S'0x977'
p1247
sg11
S'getaddrinfo: h5.m.taobao.com get result from proxy >>\n'
p1248
sa(dp1249
g2
S'2333'
p1250
sg4
L1449904399664L
sg5
g45
sg7
S'doraemon:TraceId'
p1251
sg9
S'0x982'
p1252
sg11
S'an thread has traceid,but cache loss it\n'
p1253
sa(dp1254
g2
S'2333'
p1255
sg4
L1449904399753L
sg5
g45
sg7
S'doraemon:TraceId'
p1256
sg9
S'0x983'
p1257
sg11
S'an thread has traceid,but cache loss it\n'
p1258
sa(dp1259
g2
S'2333'
p1260
sg4
L1449904400145L
sg5
g161
sg7
S'dalvikvm'
p1261
sg9
S'0x91d'
p1262
sg11
S'VFY: unable to resolve virtual method 60448: Lmtopsdk/mtop/intf/MtopBuilder;.get ()Lmtopsdk/mtop/domain/MtopResponse;\n'
p1263
sa(dp1264
g2
S'2333'
p1265
sg4
L1449904400217L
sg5
g45
sg7
S'        '
p1266
sg9
S'0x91d'
p1267
sg11
S'appName=com.taobao.ishopping, acAppName=/system/bin/surfaceflinger\n'
p1268
sa(dp1269
g2
S'2333'
p1270
sg4
L1449904400218L
sg5
g45
sg7
S'        '
p1271
sg9
S'0x91d'
p1272
sg11
g919
sa(dp1273
g2
S'2333'
p1274
sg4
L1449904402734L
sg5
g161
sg7
S'dalvikvm'
p1275
sg9
S'0x91d'
p1276
sg11
S'VFY: unable to resolve virtual method 696: Landroid/content/res/TypedArray;.getChangingConfigurations ()I\n'
p1277
sa(dp1278
g2
S'2333'
p1279
sg4
L1449904402735L
sg5
g161
sg7
S'dalvikvm'
p1280
sg9
S'0x91d'
p1281
sg11
S'VFY: unable to resolve virtual method 718: Landroid/content/res/TypedArray;.getType (I)I\n'
p1282
sa(dp1283
g2
S'2333'
p1284
sg4
L1449904402766L
sg5
g45
sg7
S'CellLocation'
p1285
sg9
S'0x9b5'
p1286
sg11
S'create GsmCellLocation\n'
p1287
sa(dp1288
g2
S'2333'
p1289
sg4
L1449904403326L
sg5
g6
sg7
S'libc-netbsd'
p1290
sg9
S'0x9b5'
p1291
sg11
S'getaddrinfo: apiinit.amap.com get result from proxy >>\n'
p1292
sa(dp1293
g2
S'2333'
p1294
sg4
L1449904403725L
sg5
g6
sg7
S'libc-netbsd'
p1295
sg9
S'0x9b5'
p1296
sg11
S'getaddrinfo: restapi.amap.com get result from proxy >>\n'
p1297
sa(dp1298
g2
S'2333'
p1299
sg4
L1449904403766L
sg5
g6
sg7
S'libc-netbsd'
p1300
sg9
S'0x9b8'
p1301
sg11
S'getaddrinfo: api.m.taobao.com get result from proxy >>\n'
p1302
sa(dp1303
g2
S'2333'
p1304
sg4
L1449904403768L
sg5
g6
sg7
S'libc-netbsd'
p1305
sg9
S'0x9aa'
p1306
sg11
S'getaddrinfo: api.m.taobao.com get result from proxy >>\n'
p1307
sa(dp1308
g2
S'2333'
p1309
sg4
L1449904403769L
sg5
g6
sg7
S'libc-netbsd'
p1310
sg9
S'0x9c4'
p1311
sg11
S'getaddrinfo: api.m.taobao.com get result from proxy >>\n'
p1312
sa(dp1313
g2
S'2333'
p1314
sg4
L1449904403770L
sg5
g6
sg7
S'libc-netbsd'
p1315
sg9
S'0x9c3'
p1316
sg11
S'getaddrinfo: api.m.taobao.com get result from proxy >>\n'
p1317
sa(dp1318
g2
S'2333'
p1319
sg4
L1449904403770L
sg5
g6
sg7
S'libc-netbsd'
p1320
sg9
S'0x9bc'
p1321
sg11
S'getaddrinfo: api.m.taobao.com get result from proxy >>\n'
p1322
sa(dp1323
g2
S'2333'
p1324
sg4
L1449904404177L
sg5
g45
sg7
S'doraemon:TraceId'
p1325
sg9
S'0x9de'
p1326
sg11
S'an thread has traceid,but cache loss it\n'
p1327
sa(dp1328
g2
S'2333'
p1329
sg4
L1449904404346L
sg5
g6
sg7
S'libc-netbsd'
p1330
sg9
S'0x9df'
p1331
sg11
S'getaddrinfo: wwc.taobaocdn.com get result from proxy >>\n'
p1332
sa(dp1333
g2
S'2333'
p1334
sg4
L1449904404354L
sg5
g6
sg7
S'libc-netbsd'
p1335
sg9
S'0x9e3'
p1336
sg11
S'getaddrinfo: gw.alicdn.com get result from proxy >>\n'
p1337
sa(dp1338
g2
S'2333'
p1339
sg4
L1449904404357L
sg5
g6
sg7
S'libc-netbsd'
p1340
sg9
S'0x9e1'
p1341
sg11
S'getaddrinfo: gw.alicdn.com get result from proxy >>\n'
p1342
sa(dp1343
g2
S'2333'
p1344
sg4
L1449904404464L
sg5
g45
sg7
S'NativeCrypto'
p1345
sg9
S'0x9e1'
p1346
sg11
S'ssl=0x84b7f118 cert_verify_callback x509_store_ctx=0x8958a6d0 arg=0x0\n'
p1347
sa(dp1348
g2
S'2333'
p1349
sg4
L1449904404464L
sg5
g45
sg7
S'NativeCrypto'
p1350
sg9
S'0x9df'
p1351
sg11
S'ssl=0x8715a408 cert_verify_callback x509_store_ctx=0x8946a650 arg=0x0\n'
p1352
sa(dp1353
g2
S'2333'
p1354
sg4
L1449904404465L
sg5
g45
sg7
S'NativeCrypto'
p1355
sg9
S'0x9df'
p1356
sg11
S'ssl=0x8715a408 cert_verify_callback calling verifyCertificateChain authMethod=RSA\n'
p1357
sa(dp1358
g2
S'2333'
p1359
sg4
L1449904404465L
sg5
g45
sg7
S'NativeCrypto'
p1360
sg9
S'0x9e1'
p1361
sg11
S'ssl=0x84b7f118 cert_verify_callback calling verifyCertificateChain authMethod=RSA\n'
p1362
sa(dp1363
g2
S'2333'
p1364
sg4
L1449904404479L
sg5
g45
sg7
S'NativeCrypto'
p1365
sg9
S'0x9e3'
p1366
sg11
S'ssl=0x77621530 cert_verify_callback x509_store_ctx=0x896aa6d0 arg=0x0\n'
p1367
sa(dp1368
g2
S'2333'
p1369
sg4
L1449904404487L
sg5
g45
sg7
S'NativeCrypto'
p1370
sg9
S'0x9e3'
p1371
sg11
S'ssl=0x77621530 cert_verify_callback calling verifyCertificateChain authMethod=RSA\n'
p1372
sa(dp1373
g2
S'2333'
p1374
sg4
L1449904404630L
sg5
g6
sg7
S'libc-netbsd'
p1375
sg9
S'0x958'
p1376
sg11
S'getaddrinfo: adash.m.taobao.com get result from proxy >>\n'
p1377
sa(dp1378
g2
S'2550'
p1379
sg4
L1449904405509L
sg5
g161
sg7
S'linker  '
p1380
sg9
S'0xa0c'
p1381
sg11
S'libsecuritysdk-4.1.21.so has text relocations. This is wasting memory and is a security risk. Please fix.\n'
p1382
sa(dp1383
g2
S'2550'
p1384
sg4
L1449904405515L
sg5
g161
sg7
S'linker  '
p1385
sg9
S'0xa0c'
p1386
sg11
S'libsecuritysdkx-4.1.21.so has text relocations. This is wasting memory and is a security risk. Please fix.\n'
p1387
sa(dp1388
g2
S'2550'
p1389
sg4
L1449904405522L
sg5
g45
sg7
S'linker  '
p1390
sg9
S'0xa12'
p1391
sg11
S'"app_process": ignoring 2-entry DT_PREINIT_ARRAY in shared library!\n'
p1392
sa(dp1393
g2
S'2550'
p1394
sg4
L1449904405584L
sg5
g161
sg7
S'dalvikvm'
p1395
sg9
S'0xa0c'
p1396
sg11
S'VFY: unable to resolve interface method 51629: Lcom/taobao/tao/log/ITLogController;.getLogLevel (Ljava/lang/String;)Lcom/taobao/tao/log/LogLevel;\n'
p1397
sa(dp1398
g2
S'2550'
p1399
sg4
L1449904405585L
sg5
g161
sg7
S'dalvikvm'
p1400
sg9
S'0xa0c'
p1401
sg11
S'VFY: unable to resolve static method 51655: Lcom/taobao/tao/log/TLog;.logv (Ljava/lang/String;Ljava/lang/String;)V\n'
p1402
sa(dp1403
g2
S'2550'
p1404
sg4
L1449904405686L
sg5
g6
sg7
S'libc-netbsd'
p1405
sg9
S'0xa14'
p1406
sg11
S'getaddrinfo: acjs.aliyun.com get result from proxy >>\n'
p1407
sa(dp1408
g2
S'2550'
p1409
sg4
L1449904405701L
sg5
g161
sg7
S'dalvikvm'
p1410
sg9
S'0xa30'
p1411
sg11
S'VFY: unable to resolve static method 51491: Lcom/taobao/statistic/TBS$Adv;.forceUpload ()V\n'
p1412
sa(dp1413
g2
S'2550'
p1414
sg4
L1449904405867L
sg5
g161
sg7
S'dalvikvm'
p1415
sg9
S'0xa2e'
p1416
sg11
S'VFY: unable to resolve static field 188 (SUPPORTED_ABIS) in Landroid/os/Build;\n'
p1417
sa(dp1418
g2
S'2550'
p1419
sg4
L1449904405873L
sg5
g6
sg7
S'libc-netbsd'
p1420
sg9
S'0xa4a'
p1421
sg11
S'getaddrinfo: h5.m.taobao.com get result from proxy >>\n'
p1422
sa(dp1423
g2
S'2550'
p1424
sg4
L1449904405904L
sg5
g45
sg7
S'doraemon:TraceId'
p1425
sg9
S'0xa55'
p1426
sg11
S'an thread has traceid,but cache loss it\n'
p1427
sa(dp1428
g2
S'2550'
p1429
sg4
L1449904405987L
sg5
g45
sg7
S'doraemon:TraceId'
p1430
sg9
S'0xa57'
p1431
sg11
S'an thread has traceid,but cache loss it\n'
p1432
sa(dp1433
g2
S'2550'
p1434
sg4
L1449904406277L
sg5
g161
sg7
S'dalvikvm'
p1435
sg9
S'0x9f6'
p1436
sg11
S'VFY: unable to resolve virtual method 60448: Lmtopsdk/mtop/intf/MtopBuilder;.get ()Lmtopsdk/mtop/domain/MtopResponse;\n'
p1437
sa(dp1438
g2
S'2550'
p1439
sg4
L1449904406377L
sg5
g45
sg7
S'        '
p1440
sg9
S'0x9f6'
p1441
sg11
S'appName=com.taobao.ishopping, acAppName=/system/bin/surfaceflinger\n'
p1442
sa(dp1443
g2
S'2550'
p1444
sg4
L1449904406377L
sg5
g45
sg7
S'        '
p1445
sg9
S'0x9f6'
p1446
sg11
g919
sa(dp1447
g2
S'2550'
p1448
sg4
L1449904406545L
sg5
g6
sg7
S'libc-netbsd'
p1449
sg9
S'0xa84'
p1450
sg11
S'getaddrinfo: api.m.taobao.com get result from proxy >>\n'
p1451
sa(dp1452
g2
S'2550'
p1453
sg4
L1449904413005L
sg5
g161
sg7
S'dalvikvm'
p1454
sg9
S'0x9f6'
p1455
sg11
S'VFY: unable to resolve virtual method 696: Landroid/content/res/TypedArray;.getChangingConfigurations ()I\n'
p1456
sa(dp1457
g2
S'2550'
p1458
sg4
L1449904413007L
sg5
g161
sg7
S'dalvikvm'
p1459
sg9
S'0x9f6'
p1460
sg11
S'VFY: unable to resolve virtual method 718: Landroid/content/res/TypedArray;.getType (I)I\n'
p1461
sa(dp1462
g2
S'2550'
p1463
sg4
L1449904413030L
sg5
g45
sg7
S'CellLocation'
p1464
sg9
S'0xa9d'
p1465
sg11
S'create GsmCellLocation\n'
p1466
sa(dp1467
g2
S'2550'
p1468
sg4
L1449904413647L
sg5
g6
sg7
S'libc-netbsd'
p1469
sg9
S'0xa9d'
p1470
sg11
S'getaddrinfo: apilocate.amap.com get result from proxy >>\n'
p1471
sa(dp1472
g2
S'2550'
p1473
sg4
L1449904414185L
sg5
g6
sg7
S'libc-netbsd'
p1474
sg9
S'0xac1'
p1475
sg11
S'getaddrinfo: wwc.taobaocdn.com get result from proxy >>\n'
p1476
sa(dp1477
g2
S'2550'
p1478
sg4
L1449904414193L
sg5
g6
sg7
S'libc-netbsd'
p1479
sg9
S'0xac3'
p1480
sg11
S'getaddrinfo: gw.alicdn.com get result from proxy >>\n'
p1481
sa(dp1482
g2
S'2550'
p1483
sg4
L1449904414194L
sg5
g6
sg7
S'libc-netbsd'
p1484
sg9
S'0xac4'
p1485
sg11
S'getaddrinfo: gw.alicdn.com get result from proxy >>\n'
p1486
sa(dp1487
g2
S'2550'
p1488
sg4
L1449904414258L
sg5
g45
sg7
S'NativeCrypto'
p1489
sg9
S'0xac1'
p1490
sg11
S'ssl=0x85bca010 cert_verify_callback x509_store_ctx=0x869866d0 arg=0x0\n'
p1491
sa(dp1492
g2
S'2550'
p1493
sg4
L1449904414258L
sg5
g45
sg7
S'NativeCrypto'
p1494
sg9
S'0xac1'
p1495
sg11
S'ssl=0x85bca010 cert_verify_callback calling verifyCertificateChain authMethod=RSA\n'
p1496
sa(dp1497
g2
S'2550'
p1498
sg4
L1449904414278L
sg5
g45
sg7
S'NativeCrypto'
p1499
sg9
S'0xac3'
p1500
sg11
S'ssl=0x89061648 cert_verify_callback x509_store_ctx=0x86aa46d0 arg=0x0\n'
p1501
sa(dp1502
g2
S'2550'
p1503
sg4
L1449904414278L
sg5
g45
sg7
S'NativeCrypto'
p1504
sg9
S'0xac3'
p1505
sg11
S'ssl=0x89061648 cert_verify_callback calling verifyCertificateChain authMethod=RSA\n'
p1506
sa(dp1507
g2
S'2550'
p1508
sg4
L1449904414283L
sg5
g45
sg7
S'NativeCrypto'
p1509
sg9
S'0xac4'
p1510
sg11
S'ssl=0x7b3e8af0 cert_verify_callback x509_store_ctx=0x86bc26d0 arg=0x0\n'
p1511
sa(dp1512
g2
S'2550'
p1513
sg4
L1449904414283L
sg5
g45
sg7
S'NativeCrypto'
p1514
sg9
S'0xac4'
p1515
sg11
S'ssl=0x7b3e8af0 cert_verify_callback calling verifyCertificateChain authMethod=RSA\n'
p1516
sa(dp1517
g2
S'2550'
p1518
sg4
L1449904414396L
sg5
g6
sg7
S'libc-netbsd'
p1519
sg9
S'0xac1'
p1520
sg11
S'getaddrinfo: gtms03.alicdn.com get result from proxy >>\n'
p1521
sa(dp1522
g2
S'2550'
p1523
sg4
L1449904414439L
sg5
g45
sg7
S'doraemon:TraceId'
p1524
sg9
S'0xac8'
p1525
sg11
S'an thread has traceid,but cache loss it\n'
p1526
sa(dp1527
g2
S'2550'
p1528
sg4
L1449904414475L
sg5
g45
sg7
S'NativeCrypto'
p1529
sg9
S'0xac1'
p1530
sg11
S'ssl=0x85bb76e8 cert_verify_callback x509_store_ctx=0x869866d0 arg=0x0\n'
p1531
sa(dp1532
g2
S'2550'
p1533
sg4
L1449904414475L
sg5
g45
sg7
S'NativeCrypto'
p1534
sg9
S'0xac1'
p1535
sg11
S'ssl=0x85bb76e8 cert_verify_callback calling verifyCertificateChain authMethod=RSA\n'
p1536
sa(dp1537
g2
S'2550'
p1538
sg4
L1449904414640L
sg5
g45
sg7
S'NativeCrypto'
p1539
sg9
S'0xac4'
p1540
sg11
S'ssl=0x8a239818 cert_verify_callback x509_store_ctx=0x86bc2650 arg=0x0\n'
p1541
sa(dp1542
g2
S'2550'
p1543
sg4
L1449904414640L
sg5
g45
sg7
S'NativeCrypto'
p1544
sg9
S'0xac4'
p1545
sg11
S'ssl=0x8a239818 cert_verify_callback calling verifyCertificateChain authMethod=RSA\n'
p1546
sa(dp1547
g2
S'2550'
p1548
sg4
L1449904414743L
sg5
g45
sg7
S'NativeCrypto'
p1549
sg9
S'0xac1'
p1550
sg11
S'ssl=0x807f0418 cert_verify_callback x509_store_ctx=0x86986650 arg=0x0\n'
p1551
sa(dp1552
g2
S'2550'
p1553
sg4
L1449904414744L
sg5
g45
sg7
S'NativeCrypto'
p1554
sg9
S'0xac1'
p1555
sg11
S'ssl=0x807f0418 cert_verify_callback calling verifyCertificateChain authMethod=RSA\n'
p1556
sa(dp1557
g2
S'2550'
p1558
sg4
L1449904414930L
sg5
g45
sg7
S'NativeCrypto'
p1559
sg9
S'0xac3'
p1560
sg11
S'ssl=0x807f0708 cert_verify_callback x509_store_ctx=0x86aa46d0 arg=0x0\n'
p1561
sa(dp1562
g2
S'2550'
p1563
sg4
L1449904414930L
sg5
g45
sg7
S'NativeCrypto'
p1564
sg9
S'0xac3'
p1565
sg11
S'ssl=0x807f0708 cert_verify_callback calling verifyCertificateChain authMethod=RSA\n'
p1566
sa(dp1567
g2
S'2550'
p1568
sg4
L1449904415025L
sg5
g45
sg7
S'NativeCrypto'
p1569
sg9
S'0xac4'
p1570
sg11
S'ssl=0x8af69ae0 cert_verify_callback x509_store_ctx=0x86bc26d0 arg=0x0\n'
p1571
sa(dp1572
g2
S'2550'
p1573
sg4
L1449904415026L
sg5
g45
sg7
S'NativeCrypto'
p1574
sg9
S'0xac4'
p1575
sg11
S'ssl=0x8af69ae0 cert_verify_callback calling verifyCertificateChain authMethod=RSA\n'
p1576
sa(dp1577
g2
S'2550'
p1578
sg4
L1449904415658L
sg5
g45
sg7
S'doraemon:TraceId'
p1579
sg9
S'0xacf'
p1580
sg11
S'an thread has traceid,but cache loss it\n'
p1581
sa(dp1582
g2
S'2550'
p1583
sg4
L1449904415712L
sg5
g45
sg7
S'doraemon:TraceId'
p1584
sg9
S'0xad0'
p1585
sg11
S'an thread has traceid,but cache loss it\n'
p1586
sa(dp1587
g2
S'2550'
p1588
sg4
L1449904415719L
sg5
g45
sg7
S'doraemon:TraceId'
p1589
sg9
S'0xad1'
p1590
sg11
S'an thread has traceid,but cache loss it\n'
p1591
sa(dp1592
g2
S'2550'
p1593
sg4
L1449904415786L
sg5
S'I'
p1594
sg7
S'chromium'
p1595
sg9
S'0x9f6'
p1596
sg11
S'[INFO:library_loader_hooks.cc(114)] Chromium logging enabled: level = 0, default verbosity = 0 isUserLoad=1\n'
p1597
sa(dp1598
g2
S'2550'
p1599
sg4
L1449904415980L
sg5
g161
sg7
S'chromium'
p1600
sg9
S'0xad8'
p1601
sg11
S'[WARNING:proxy_service.cc(888)] PAC support disabled because there is no system implementation\n'
p1602
sa(dp1603
g2
S'2550'
p1604
sg4
L1449904416004L
sg5
g45
sg7
S'        '
p1605
sg9
S'0x9f6'
p1606
sg11
S'appName=com.taobao.ishopping, acAppName=/system/bin/surfaceflinger\n'
p1607
sa(dp1608
g2
S'2550'
p1609
sg4
L1449904416004L
sg5
g45
sg7
S'        '
p1610
sg9
S'0x9f6'
p1611
sg11
g919
sa(dp1612
g2
S'2550'
p1613
sg4
L1449904416066L
sg5
g161
sg7
S'chromium'
p1614
sg9
S'0x9f6'
p1615
sg11
S'[WARNING:password_handler.cc(26)] create-->contents = 0x789bb270, delegate = 0x8af5cb70\n'
p1616
sa(dp1617
g2
S'2550'
p1618
sg4
L1449904416066L
sg5
g161
sg7
S'chromium'
p1619
sg9
S'0x9f6'
p1620
sg11
S'[WARNING:password_handler.cc(34)] attaching to web_contents \n'
p1621
sa(dp1622
g2
S'2550'
p1623
sg4
L1449904416156L
sg5
g6
sg7
S'libc-netbsd'
p1624
sg9
S'0xa40'
p1625
sg11
S'getaddrinfo: h5.m.taobao.com get result from proxy >>\n'
p1626
sa(dp1627
g2
S'2550'
p1628
sg4
L1449904416192L
sg5
g6
sg7
S'libc-netbsd'
p1629
sg9
S'0xac3'
p1630
sg11
S'getaddrinfo: wwc.taobaocdn.com get result from proxy >>\n'
p1631
sa(dp1632
g2
S'2550'
p1633
sg4
L1449904416200L
sg5
g6
sg7
S'libc-netbsd'
p1634
sg9
S'0xac1'
p1635
sg11
S'getaddrinfo: wwc.taobaocdn.com get result from proxy >>\n'
p1636
sa(dp1637
g2
S'2550'
p1638
sg4
L1449904416227L
sg5
g161
sg7
S'chromium'
p1639
sg9
S'0x9f6'
p1640
sg11
S'[WARNING:password_handler.cc(26)] create-->contents = 0x86bc3488, delegate = 0x7dc71880\n'
p1641
sa(dp1642
g2
S'2550'
p1643
sg4
L1449904416227L
sg5
g161
sg7
S'chromium'
p1644
sg9
S'0x9f6'
p1645
sg11
S'[WARNING:password_handler.cc(34)] attaching to web_contents \n'
p1646
sa(dp1647
g2
S'2550'
p1648
sg4
L1449904416247L
sg5
g45
sg7
S'NativeCrypto'
p1649
sg9
S'0xac3'
p1650
sg11
S'ssl=0x8af18070 cert_verify_callback x509_store_ctx=0x86aa4650 arg=0x0\n'
p1651
sa(dp1652
g2
S'2550'
p1653
sg4
L1449904416248L
sg5
g45
sg7
S'NativeCrypto'
p1654
sg9
S'0xac3'
p1655
sg11
S'ssl=0x8af18070 cert_verify_callback calling verifyCertificateChain authMethod=RSA\n'
p1656
sa(dp1657
g2
S'2550'
p1658
sg4
L1449904416278L
sg5
g45
sg7
S'NativeCrypto'
p1659
sg9
S'0xac1'
p1660
sg11
S'ssl=0x7dc76458 cert_verify_callback x509_store_ctx=0x869866d0 arg=0x0\n'
p1661
sa(dp1662
g2
S'2550'
p1663
sg4
L1449904416278L
sg5
g45
sg7
S'NativeCrypto'
p1664
sg9
S'0xac1'
p1665
sg11
S'ssl=0x7dc76458 cert_verify_callback calling verifyCertificateChain authMethod=RSA\n'
p1666
sa(dp1667
g2
S'2550'
p1668
sg4
L1449904416411L
sg5
g6
sg7
S'libc-netbsd'
p1669
sg9
S'0xac1'
p1670
sg11
S'getaddrinfo: gtms03.alicdn.com get result from proxy >>\n'
p1671
sa(dp1672
g2
S'2550'
p1673
sg4
L1449904416421L
sg5
g45
sg7
S'NativeCrypto'
p1674
sg9
S'0xac3'
p1675
sg11
S'ssl=0x8adc56e0 cert_verify_callback x509_store_ctx=0x86aa4650 arg=0x0\n'
p1676
sa(dp1677
g2
S'2550'
p1678
sg4
L1449904416421L
sg5
g45
sg7
S'NativeCrypto'
p1679
sg9
S'0xac3'
p1680
sg11
S'ssl=0x8adc56e0 cert_verify_callback calling verifyCertificateChain authMethod=RSA\n'
p1681
sa(dp1682
g2
S'2550'
p1683
sg4
L1449904416480L
sg5
g45
sg7
S'NativeCrypto'
p1684
sg9
S'0xac1'
p1685
sg11
S'ssl=0x86be54b0 cert_verify_callback x509_store_ctx=0x86986650 arg=0x0\n'
p1686
sa(dp1687
g2
S'2550'
p1688
sg4
L1449904416480L
sg5
g45
sg7
S'NativeCrypto'
p1689
sg9
S'0xac1'
p1690
sg11
S'ssl=0x86be54b0 cert_verify_callback calling verifyCertificateChain authMethod=RSA\n'
p1691
sa(dp1692
g2
S'2550'
p1693
sg4
L1449904416648L
sg5
g6
sg7
S'libc-netbsd'
p1694
sg9
S'0xafa'
p1695
sg11
S'getaddrinfo: h5.m.taobao.com get result from proxy >>\n'
p1696
sa(dp1697
g2
S'2550'
p1698
sg4
L1449904416753L
sg5
g161
sg7
S'chromium'
p1699
sg9
S'0x9f6'
p1700
sg11
S'[WARNING:password_handler.cc(60)] DidNavigateAnyFrame can_save = 0\n'
p1701
sa(dp1702
g2
S'2550'
p1703
sg4
L1449904416754L
sg5
g161
sg7
S'chromium'
p1704
sg9
S'0x9f6'
p1705
sg11
S'[WARNING:aw_password_handler_delegate_impl.cc(201)] IsSavePasswordEnabled ret is \n'
p1706
sa(dp1707
g2
S'2550'
p1708
sg4
L1449904416754L
sg5
g161
sg7
S'chromium'
p1709
sg9
S'0x9f6'
p1710
sg11
S'[WARNING:password_handler.cc(64)] DidNavigateAnyFrame IsEnabledSavePassword is false!!\n'
p1711
sa(dp1712
g2
S'2550'
p1713
sg4
L1449904416964L
sg5
g6
sg7
S'libc-netbsd'
p1714
sg9
S'0xa9d'
p1715
sg11
S'getaddrinfo: apiinit.amap.com get result from proxy >>\n'
p1716
sa(dp1717
g2
S'2550'
p1718
sg4
L1449904417036L
sg5
g6
sg7
S'libc-netbsd'
p1719
sg9
S'0xa9d'
p1720
sg11
S'getaddrinfo: restapi.amap.com get result from proxy >>\n'
p1721
sa(dp1722
g2
S'2550'
p1723
sg4
L1449904417102L
sg5
g161
sg7
S'chromium'
p1724
sg9
S'0x9f6'
p1725
sg11
S'[WARNING:password_handler.cc(60)] DidNavigateAnyFrame can_save = 0\n'
p1726
sa(dp1727
g2
S'2550'
p1728
sg4
L1449904417103L
sg5
g161
sg7
S'chromium'
p1729
sg9
S'0x9f6'
p1730
sg11
S'[WARNING:aw_password_handler_delegate_impl.cc(201)] IsSavePasswordEnabled ret is \n'
p1731
sa(dp1732
g2
S'2550'
p1733
sg4
L1449904417103L
sg5
g161
sg7
S'chromium'
p1734
sg9
S'0x9f6'
p1735
sg11
S'[WARNING:password_handler.cc(64)] DidNavigateAnyFrame IsEnabledSavePassword is false!!\n'
p1736
sa(dp1737
g2
S'2550'
p1738
sg4
L1449904417109L
sg5
g161
sg7
S'chromium'
p1739
sg9
S'0x9f6'
p1740
sg11
S'[WARNING:password_handler.cc(195)] OnPasswordFormsRendered called\n'
p1741
sa(dp1742
g2
S'2550'
p1743
sg4
L1449904417109L
sg5
g161
sg7
S'chromium'
p1744
sg9
S'0x9f6'
p1745
sg11
S'[WARNING:aw_password_handler_delegate_impl.cc(201)] IsSavePasswordEnabled ret is \n'
p1746
sa(dp1747
g2
S'2550'
p1748
sg4
L1449904417109L
sg5
g161
sg7
S'chromium'
p1749
sg9
S'0x9f6'
p1750
sg11
S'[WARNING:password_handler.cc(197)] OnPasswordFormsRendered IsEnabledSavePassword is false\n'
p1751
sa(dp1752
g2
S'2550'
p1753
sg4
L1449904417264L
sg5
g6
sg7
S'libc-netbsd'
p1754
sg9
S'0xafa'
p1755
sg11
S'getaddrinfo: api.m.taobao.com get result from proxy >>\n'
p1756
sa(dp1757
g2
S'2550'
p1758
sg4
L1449904417450L
sg5
g161
sg7
S'chromium'
p1759
sg9
S'0x9f6'
p1760
sg11
S'[WARNING:password_handler.cc(195)] OnPasswordFormsRendered called\n'
p1761
sa(dp1762
g2
S'2550'
p1763
sg4
L1449904417450L
sg5
g161
sg7
S'chromium'
p1764
sg9
S'0x9f6'
p1765
sg11
S'[WARNING:aw_password_handler_delegate_impl.cc(201)] IsSavePasswordEnabled ret is \n'
p1766
sa(dp1767
g2
S'2550'
p1768
sg4
L1449904417450L
sg5
g161
sg7
S'chromium'
p1769
sg9
S'0x9f6'
p1770
sg11
S'[WARNING:password_handler.cc(197)] OnPasswordFormsRendered IsEnabledSavePassword is false\n'
p1771
sa(dp1772
g2
S'2550'
p1773
sg4
L1449904417639L
sg5
g6
sg7
S'libc-netbsd'
p1774
sg9
S'0xafa'
p1775
sg11
S'getaddrinfo: www.taobao.com get result from proxy >>\n'
p1776
sa(dp1777
g2
S'2550'
p1778
sg4
L1449904418116L
sg5
g6
sg7
S'libc-netbsd'
p1779
sg9
S'0xafa'
p1780
sg11
S'getaddrinfo: gw.alicdn.com get result from proxy >>\n'
p1781
sa(dp1782
g2
S'2550'
p1783
sg4
L1449904421153L
sg5
g161
sg7
S'chromium'
p1784
sg9
S'0x9f6'
p1785
sg11
S'[WARNING:password_handler.cc(26)] create-->contents = 0x8e3eb650, delegate = 0x8e3ebbe0\n'
p1786
sa(dp1787
g2
S'2550'
p1788
sg4
L1449904421153L
sg5
g161
sg7
S'chromium'
p1789
sg9
S'0x9f6'
p1790
sg11
S'[WARNING:password_handler.cc(34)] attaching to web_contents \n'
p1791
sa(dp1792
g2
S'2550'
p1793
sg4
L1449904421184L
sg5
g6
sg7
S'libc-netbsd'
p1794
sg9
S'0xa40'
p1795
sg11
S'getaddrinfo: h5.m.taobao.com get result from proxy >>\n'
p1796
sa(dp1797
g2
S'2550'
p1798
sg4
L1449904421327L
sg5
g161
sg7
S'chromium'
p1799
sg9
S'0x9f6'
p1800
sg11
S'[WARNING:password_handler.cc(60)] DidNavigateAnyFrame can_save = 0\n'
p1801
sa(dp1802
g2
S'2550'
p1803
sg4
L1449904421328L
sg5
g161
sg7
S'chromium'
p1804
sg9
S'0x9f6'
p1805
sg11
S'[WARNING:aw_password_handler_delegate_impl.cc(201)] IsSavePasswordEnabled ret is \n'
p1806
sa(dp1807
g2
S'2550'
p1808
sg4
L1449904421328L
sg5
g161
sg7
S'chromium'
p1809
sg9
S'0x9f6'
p1810
sg11
S'[WARNING:password_handler.cc(64)] DidNavigateAnyFrame IsEnabledSavePassword is false!!\n'
p1811
sa(dp1812
g2
S'2550'
p1813
sg4
L1449904421453L
sg5
g161
sg7
S'chromium'
p1814
sg9
S'0x9f6'
p1815
sg11
S'[WARNING:password_handler.cc(195)] OnPasswordFormsRendered called\n'
p1816
sa(dp1817
g2
S'2550'
p1818
sg4
L1449904421453L
sg5
g161
sg7
S'chromium'
p1819
sg9
S'0x9f6'
p1820
sg11
S'[WARNING:aw_password_handler_delegate_impl.cc(201)] IsSavePasswordEnabled ret is \n'
p1821
sa(dp1822
g2
S'2550'
p1823
sg4
L1449904421453L
sg5
g161
sg7
S'chromium'
p1824
sg9
S'0x9f6'
p1825
sg11
S'[WARNING:password_handler.cc(197)] OnPasswordFormsRendered IsEnabledSavePassword is false\n'
p1826
sa(dp1827
g2
S'2550'
p1828
sg4
L1449904421613L
sg5
g161
sg7
S'chromium'
p1829
sg9
S'0x9f6'
p1830
sg11
S'[WARNING:password_handler.cc(195)] OnPasswordFormsRendered called\n'
p1831
sa(dp1832
g2
S'2550'
p1833
sg4
L1449904421614L
sg5
g161
sg7
S'chromium'
p1834
sg9
S'0x9f6'
p1835
sg11
S'[WARNING:aw_password_handler_delegate_impl.cc(201)] IsSavePasswordEnabled ret is \n'
p1836
sa(dp1837
g2
S'2550'
p1838
sg4
L1449904421614L
sg5
g161
sg7
S'chromium'
p1839
sg9
S'0x9f6'
p1840
sg11
S'[WARNING:password_handler.cc(197)] OnPasswordFormsRendered IsEnabledSavePassword is false\n'
p1841
sa(dp1842
g2
S'2550'
p1843
sg4
L1449904421729L
sg5
g161
sg7
S'chromium'
p1844
sg9
S'0x9f6'
p1845
sg11
S'[WARNING:password_handler.cc(60)] DidNavigateAnyFrame can_save = 0\n'
p1846
sa(dp1847
g2
S'2550'
p1848
sg4
L1449904421730L
sg5
g161
sg7
S'chromium'
p1849
sg9
S'0x9f6'
p1850
sg11
S'[WARNING:aw_password_handler_delegate_impl.cc(201)] IsSavePasswordEnabled ret is \n'
p1851
sa(dp1852
g2
S'2550'
p1853
sg4
L1449904421730L
sg5
g161
sg7
S'chromium'
p1854
sg9
S'0x9f6'
p1855
sg11
S'[WARNING:password_handler.cc(64)] DidNavigateAnyFrame IsEnabledSavePassword is false!!\n'
p1856
sa(dp1857
g2
S'2550'
p1858
sg4
L1449904431745L
sg5
g161
sg7
S'chromium'
p1859
sg9
S'0x9f6'
p1860
sg11
S'[WARNING:password_handler.cc(26)] create-->contents = 0x919baea0, delegate = 0x8af609a0\n'
p1861
sa(dp1862
g2
S'2550'
p1863
sg4
L1449904431745L
sg5
g161
sg7
S'chromium'
p1864
sg9
S'0x9f6'
p1865
sg11
S'[WARNING:password_handler.cc(34)] attaching to web_contents \n'
p1866
sa(dp1867
g2
S'2550'
p1868
sg4
L1449904431771L
sg5
g6
sg7
S'libc-netbsd'
p1869
sg9
S'0xa4a'
p1870
sg11
S'getaddrinfo: h5.m.taobao.com get result from proxy >>\n'
p1871
sa(dp1872
g2
S'2550'
p1873
sg4
L1449904431925L
sg5
g161
sg7
S'chromium'
p1874
sg9
S'0x9f6'
p1875
sg11
S'[WARNING:password_handler.cc(60)] DidNavigateAnyFrame can_save = 0\n'
p1876
sa(dp1877
g2
S'2550'
p1878
sg4
L1449904431925L
sg5
g161
sg7
S'chromium'
p1879
sg9
S'0x9f6'
p1880
sg11
S'[WARNING:aw_password_handler_delegate_impl.cc(201)] IsSavePasswordEnabled ret is \n'
p1881
sa(dp1882
g2
S'2550'
p1883
sg4
L1449904431926L
sg5
g161
sg7
S'chromium'
p1884
sg9
S'0x9f6'
p1885
sg11
S'[WARNING:password_handler.cc(64)] DidNavigateAnyFrame IsEnabledSavePassword is false!!\n'
p1886
sa(dp1887
g2
S'2550'
p1888
sg4
L1449904432003L
sg5
g6
sg7
S'libc-netbsd'
p1889
sg9
S'0xafa'
p1890
sg11
S'getaddrinfo: g.alicdn.com get result from proxy >>\n'
p1891
sa(dp1892
g2
S'2550'
p1893
sg4
L1449904432868L
sg5
g161
sg7
S'chromium'
p1894
sg9
S'0x9f6'
p1895
sg11
S'[WARNING:password_handler.cc(195)] OnPasswordFormsRendered called\n'
p1896
sa(dp1897
g2
S'2550'
p1898
sg4
L1449904432868L
sg5
g161
sg7
S'chromium'
p1899
sg9
S'0x9f6'
p1900
sg11
S'[WARNING:aw_password_handler_delegate_impl.cc(201)] IsSavePasswordEnabled ret is \n'
p1901
sa(dp1902
g2
S'2550'
p1903
sg4
L1449904432868L
sg5
g161
sg7
S'chromium'
p1904
sg9
S'0x9f6'
p1905
sg11
S'[WARNING:password_handler.cc(197)] OnPasswordFormsRendered IsEnabledSavePassword is false\n'
p1906
sa(dp1907
g2
S'2550'
p1908
sg4
L1449904434219L
sg5
g161
sg7
S'chromium'
p1909
sg9
S'0x9f6'
p1910
sg11
S'[WARNING:password_handler.cc(26)] create-->contents = 0x919baea0, delegate = 0x91b51b10\n'
p1911
sa(dp1912
g2
S'2550'
p1913
sg4
L1449904434219L
sg5
g161
sg7
S'chromium'
p1914
sg9
S'0x9f6'
p1915
sg11
S'[WARNING:password_handler.cc(34)] attaching to web_contents \n'
p1916
sa(dp1917
g2
S'2550'
p1918
sg4
L1449904434247L
sg5
g6
sg7
S'libc-netbsd'
p1919
sg9
S'0xa40'
p1920
sg11
S'getaddrinfo: h5.m.taobao.com get result from proxy >>\n'
p1921
sa(dp1922
g2
S'2550'
p1923
sg4
L1449904434326L
sg5
g161
sg7
S'chromium'
p1924
sg9
S'0x9f6'
p1925
sg11
S'[WARNING:password_handler.cc(26)] create-->contents = 0x91ed15e8, delegate = 0x91b408b8\n'
p1926
sa(dp1927
g2
S'2550'
p1928
sg4
L1449904434326L
sg5
g161
sg7
S'chromium'
p1929
sg9
S'0x9f6'
p1930
sg11
S'[WARNING:password_handler.cc(34)] attaching to web_contents \n'
p1931
sa(dp1932
g2
S'2550'
p1933
sg4
L1449904434525L
sg5
g161
sg7
S'chromium'
p1934
sg9
S'0x9f6'
p1935
sg11
S'[WARNING:password_handler.cc(60)] DidNavigateAnyFrame can_save = 0\n'
p1936
sa(dp1937
g2
S'2550'
p1938
sg4
L1449904434525L
sg5
g161
sg7
S'chromium'
p1939
sg9
S'0x9f6'
p1940
sg11
S'[WARNING:aw_password_handler_delegate_impl.cc(201)] IsSavePasswordEnabled ret is \n'
p1941
sa(dp1942
g2
S'2550'
p1943
sg4
L1449904434525L
sg5
g161
sg7
S'chromium'
p1944
sg9
S'0x9f6'
p1945
sg11
S'[WARNING:password_handler.cc(64)] DidNavigateAnyFrame IsEnabledSavePassword is false!!\n'
p1946
sa(dp1947
g2
S'2550'
p1948
sg4
L1449904434530L
sg5
g161
sg7
S'chromium'
p1949
sg9
S'0x9f6'
p1950
sg11
S'[WARNING:password_handler.cc(60)] DidNavigateAnyFrame can_save = 0\n'
p1951
sa(dp1952
g2
S'2550'
p1953
sg4
L1449904434531L
sg5
g161
sg7
S'chromium'
p1954
sg9
S'0x9f6'
p1955
sg11
S'[WARNING:aw_password_handler_delegate_impl.cc(201)] IsSavePasswordEnabled ret is \n'
p1956
sa(dp1957
g2
S'2550'
p1958
sg4
L1449904434531L
sg5
g161
sg7
S'chromium'
p1959
sg9
S'0x9f6'
p1960
sg11
S'[WARNING:password_handler.cc(64)] DidNavigateAnyFrame IsEnabledSavePassword is false!!\n'
p1961
sa(dp1962
g2
S'2550'
p1963
sg4
L1449904434702L
sg5
g161
sg7
S'chromium'
p1964
sg9
S'0x9f6'
p1965
sg11
S'[WARNING:password_handler.cc(195)] OnPasswordFormsRendered called\n'
p1966
sa(dp1967
g2
S'2550'
p1968
sg4
L1449904434708L
sg5
g161
sg7
S'chromium'
p1969
sg9
S'0x9f6'
p1970
sg11
S'[WARNING:aw_password_handler_delegate_impl.cc(201)] IsSavePasswordEnabled ret is \n'
p1971
sa(dp1972
g2
S'2550'
p1973
sg4
L1449904434708L
sg5
g161
sg7
S'chromium'
p1974
sg9
S'0x9f6'
p1975
sg11
S'[WARNING:password_handler.cc(197)] OnPasswordFormsRendered IsEnabledSavePassword is false\n'
p1976
sa(dp1977
g2
S'2550'
p1978
sg4
L1449904434754L
sg5
g161
sg7
S'chromium'
p1979
sg9
S'0x9f6'
p1980
sg11
S'[WARNING:password_handler.cc(195)] OnPasswordFormsRendered called\n'
p1981
sa(dp1982
g2
S'2550'
p1983
sg4
L1449904434754L
sg5
g161
sg7
S'chromium'
p1984
sg9
S'0x9f6'
p1985
sg11
S'[WARNING:aw_password_handler_delegate_impl.cc(201)] IsSavePasswordEnabled ret is \n'
p1986
sa(dp1987
g2
S'2550'
p1988
sg4
L1449904434759L
sg5
g161
sg7
S'chromium'
p1989
sg9
S'0x9f6'
p1990
sg11
S'[WARNING:password_handler.cc(197)] OnPasswordFormsRendered IsEnabledSavePassword is false\n'
p1991
sa(dp1992
g2
S'2550'
p1993
sg4
L1449904436356L
sg5
g6
sg7
S'libc-netbsd'
p1994
sg9
S'0xa2b'
p1995
sg11
S'getaddrinfo: adash.m.taobao.com get result from proxy >>\n'
p1996
sa(dp1997
g2
S'2550'
p1998
sg4
L1449904438819L
sg5
g6
sg7
S'libc-netbsd'
p1999
sg9
S'0xa2b'
p2000
sg11
S'getaddrinfo: adash.m.taobao.com get result from proxy >>\n'
p2001
sa(dp2002
g2
S'2550'
p2003
sg4
L1449904442216L
sg5
g6
sg7
S'libc-netbsd'
p2004
sg9
S'0xa2b'
p2005
sg11
S'getaddrinfo: adash.m.taobao.com get result from proxy >>\n'
p2006
sa.