(lp0
(dp1
S'processID'
p2
S'8318'
p3
sS'SyscTime'
p4
L1449721832261L
sS'priority'
p5
S'D'
p6
sS'tag'
p7
S'dalvikvm'
p8
sS'threadID'
p9
S' 8318'
p10
sS'message'
p11
S'Late-enabling CheckJNI\n'
p12
sa(dp13
g2
S'8318'
p14
sg4
L1449721832791L
sg5
g6
sg7
S'dalvikvm'
p15
sg9
S' 8318'
p16
sg11
S'GC_FOR_ALLOC freed 59K, 30% free 18317K/25956K, paused 23ms, total 23ms\n'
p17
sa(dp18
g2
S'8318'
p19
sg4
L1449721832871L
sg5
S'I'
p20
sg7
S'dalvikvm-heap'
p21
sg9
S' 8318'
p22
sg11
S'Grow heap (frag case) to 54.889MB for 34885888-byte allocation\n'
p23
sa(dp24
g2
S'8318'
p25
sg4
L1449721832911L
sg5
g6
sg7
S'dalvikvm'
p26
sg9
S' 8322'
p27
sg11
S'GC_CONCURRENT freed <1K, 13% free 52385K/60028K, paused 3ms+2ms, total 34ms\n'
p28
sa(dp29
g2
S'8343'
p30
sg4
L1449721832991L
sg5
g6
sg7
S'dalvikvm'
p31
sg9
S' 8343'
p32
sg11
S'Late-enabling CheckJNI\n'
p33
sa(dp34
g2
S'8318'
p35
sg4
L1449721833062L
sg5
g6
sg7
S'libEGL  '
p36
sg9
S' 8318'
p37
sg11
S'loaded /vendor/lib/egl/libEGL_adreno.so\n'
p38
sa(dp39
g2
S'8318'
p40
sg4
L1449721833072L
sg5
g6
sg7
S'libEGL  '
p41
sg9
S' 8318'
p42
sg11
S'loaded /vendor/lib/egl/libGLESv1_CM_adreno.so\n'
p43
sa(dp44
g2
S'8318'
p45
sg4
L1449721833082L
sg5
g6
sg7
S'libEGL  '
p46
sg9
S' 8318'
p47
sg11
S'loaded /vendor/lib/egl/libGLESv2_adreno.so\n'
p48
sa(dp49
g2
S'8318'
p50
sg4
L1449721833082L
sg5
g20
sg7
S'Adreno-EGL'
p51
sg9
S' 8318'
p52
sg11
S'<qeglDrvAPI_eglInitialize:316>: EGL 1.4 QUALCOMM build:  (CL4169980)\nOpenGL ES Shader Compiler Version: 17.01.10.SPL\nBuild Date: 09/26/13 Thu\nLocal Branch: \nRemote Branch: \nLocal Patches: \nReconstruct Branch: \n'
p53
sa(dp54
g2
S'8343'
p55
sg4
L1449721833092L
sg5
g6
sg7
S'SocketService'
p56
sg9
S' 8343'
p57
sg11
S'onStartCommand : bLogin:false\n'
p58
sa(dp59
g2
S'8343'
p60
sg4
L1449721833092L
sg5
g6
sg7
S'SocketService'
p61
sg9
S' 8343'
p62
sg11
S'pid:8343 myPid:8343\n'
p63
sa(dp64
g2
S'8343'
p65
sg4
L1449721833092L
sg5
g6
sg7
S'SocketService'
p66
sg9
S' 8343'
p67
sg11
S'start to run current thread!id:725\n'
p68
sa(dp69
g2
S'8343'
p70
sg4
L1449721833142L
sg5
g6
sg7
S'SocketService'
p71
sg9
S' 8361'
p72
sg11
S'ip/192.168.155.2 lport:60771 p:143\n'
p73
sa(dp74
g2
S'8343'
p75
sg4
L1449721833142L
sg5
g6
sg7
S'ForegroundActivity'
p76
sg9
S' 8361'
p77
sg11
S'\xe6\x9c\xac\xe6\xac\xa1\xe5\x8f\x91\xe9\x80\x81\xe5\xb8\xa7\xe9\x95\xbf:35\t\xe6\x80\xbb\xe5\xb8\xa7\xe9\x95\xbf:35\n'
p78
sa(dp79
g2
S'8343'
p80
sg4
L1449721833142L
sg5
g6
sg7
S'SocketService'
p81
sg9
S' 8361'
p82
sg11
S'success to connect server!id:725 bLogin:false\n'
p83
sa(dp84
g2
S'8318'
p85
sg4
L1449721833162L
sg5
g6
sg7
S'OpenGLRenderer'
p86
sg9
S' 8318'
p87
sg11
S'Enabling debug mode 0\n'
p88
sa(dp89
g2
S'8343'
p90
sg4
L1449721833272L
sg5
g6
sg7
S'ForegroundActivity'
p91
sg9
S' 8362'
p92
sg11
S'\xe6\x9c\xac\xe6\xac\xa1\xe6\x94\xb6\xe5\x88\xb0\xe5\xb8\xa7\xe9\x95\xbf:13\t\xe6\x80\xbb\xe5\xb8\xa7\xe9\x95\xbf:13\n'
p93
sa(dp94
g2
S'8343'
p95
sg4
L1449721834093L
sg5
g6
sg7
S'SocketService1'
p96
sg9
S' 8359'
p97
sg11
S'\xe6\x9c\xac\xe6\xac\xa1\xe6\x8f\x90\xe5\x8f\x961:LoadPtr:13 HeadIndex:0 GetSize:13 13 0 \xe5\xa4\xb4\xe4\xbf\xa1\xe6\x81\xaf:EB 90 EB 90 EB 90 0D 00 0E 01 \n'
p98
sa(dp99
g2
S'8343'
p100
sg4
L1449721834143L
sg5
g6
sg7
S'ForegroundActivity'
p101
sg9
S' 8361'
p102
sg11
S'\xe6\x9c\xac\xe6\xac\xa1\xe5\x8f\x91\xe9\x80\x81\xe5\xb8\xa7\xe9\x95\xbf:11\t\xe6\x80\xbb\xe5\xb8\xa7\xe9\x95\xbf:46\n'
p103
sa(dp104
g2
S'8343'
p105
sg4
L1449721834243L
sg5
g6
sg7
S'ForegroundActivity'
p106
sg9
S' 8362'
p107
sg11
S'\xe6\x9c\xac\xe6\xac\xa1\xe6\x94\xb6\xe5\x88\xb0\xe5\xb8\xa7\xe9\x95\xbf:642\t\xe6\x80\xbb\xe5\xb8\xa7\xe9\x95\xbf:655\n'
p108
sa(dp109
g2
S'8343'
p110
sg4
L1449721835114L
sg5
g6
sg7
S'SocketService1'
p111
sg9
S' 8359'
p112
sg11
S'\xe6\x9c\xac\xe6\xac\xa1\xe6\x8f\x90\xe5\x8f\x961:LoadPtr:655 HeadIndex:13 GetSize:642 130 512 \xe5\xa4\xb4\xe4\xbf\xa1\xe6\x81\xaf:EB 90 EB 90 EB 90 82 02 14 0A \n'
p113
sa(dp114
g2
S'8343'
p115
sg4
L1449721835144L
sg5
g6
sg7
S'ForegroundActivity'
p116
sg9
S' 8361'
p117
sg11
S'\xe6\x9c\xac\xe6\xac\xa1\xe5\x8f\x91\xe9\x80\x81\xe5\xb8\xa7\xe9\x95\xbf:11\t\xe6\x80\xbb\xe5\xb8\xa7\xe9\x95\xbf:57\n'
p118
sa(dp119
g2
S'8343'
p120
sg4
L1449721835224L
sg5
g6
sg7
S'ForegroundActivity'
p121
sg9
S' 8362'
p122
sg11
S'\xe6\x9c\xac\xe6\xac\xa1\xe6\x94\xb6\xe5\x88\xb0\xe5\xb8\xa7\xe9\x95\xbf:67\t\xe6\x80\xbb\xe5\xb8\xa7\xe9\x95\xbf:722\n'
p123
sa(dp124
g2
S'8318'
p125
sg4
L1449721835284L
sg5
g6
sg7
S'AbsListView'
p126
sg9
S' 8318'
p127
sg11
S'Get MotionRecognitionManager\n'
p128
sa(dp129
g2
S'8318'
p130
sg4
L1449721835324L
sg5
g6
sg7
S'AbsListView'
p131
sg9
S' 8318'
p132
sg11
S'Get MotionRecognitionManager\n'
p133
sa(dp134
g2
S'8318'
p135
sg4
L1449721835354L
sg5
g6
sg7
S'AbsListView'
p136
sg9
S' 8318'
p137
sg11
S'Get MotionRecognitionManager\n'
p138
sa(dp139
g2
S'8318'
p140
sg4
L1449721835394L
sg5
g6
sg7
S'MainActivity'
p141
sg9
S' 8318'
p142
sg11
S'Start One Client\n'
p143
sa(dp144
g2
S'8318'
p145
sg4
L1449721835544L
sg5
g6
sg7
S'AbsListView'
p146
sg9
S' 8318'
p147
sg11
S'unregisterIRListener() is called \n'
p148
sa(dp149
g2
S'8318'
p150
sg4
L1449721835744L
sg5
g6
sg7
S'dalvikvm'
p151
sg9
S' 8322'
p152
sg11
S'GC_CONCURRENT freed 4834K, 13% free 55731K/63880K, paused 2ms+3ms, total 25ms\n'
p153
sa(dp154
g2
S'8318'
p155
sg4
L1449721835744L
sg5
g6
sg7
S'dalvikvm'
p156
sg9
S' 8318'
p157
sg11
S'WAIT_FOR_CONCURRENT_GC blocked 19ms\n'
p158
sa(dp159
g2
S'8318'
p160
sg4
L1449721835794L
sg5
g6
sg7
S'AbsListView'
p161
sg9
S' 8318'
p162
sg11
S'unregisterIRListener() is called \n'
p163
sa(dp164
g2
S'8318'
p165
sg4
L1449721835804L
sg5
g6
sg7
S'AbsListView'
p166
sg9
S' 8318'
p167
sg11
S'unregisterIRListener() is called \n'
p168
sa(dp169
g2
S'8318'
p170
sg4
L1449721835914L
sg5
g6
sg7
S'AbsListView'
p171
sg9
S' 8318'
p172
sg11
S'unregisterIRListener() is called \n'
p173
sa(dp174
g2
S'8318'
p175
sg4
L1449721835954L
sg5
g6
sg7
S'AbsListView'
p176
sg9
S' 8318'
p177
sg11
S'unregisterIRListener() is called \n'
p178
sa(dp179
g2
S'8318'
p180
sg4
L1449721836084L
sg5
g6
sg7
S'AbsListView'
p181
sg9
S' 8318'
p182
sg11
S'unregisterIRListener() is called \n'
p183
sa(dp184
g2
S'8343'
p185
sg4
L1449721836175L
sg5
g6
sg7
S'SocketService1'
p186
sg9
S' 8359'
p187
sg11
S'\xe6\x9c\xac\xe6\xac\xa1\xe6\x8f\x90\xe5\x8f\x961:LoadPtr:722 HeadIndex:655 GetSize:67 67 0 \xe5\xa4\xb4\xe4\xbf\xa1\xe6\x81\xaf:EB 90 EB 90 EB 90 43 00 15 02 \n'
p188
sa(dp189
g2
S'8318'
p190
sg4
L1449721836185L
sg5
g6
sg7
S'MainActivity'
p191
sg9
S' 8318'
p192
sg11
S'ServerVersion:23 LocalVersion:12\n'
p193
sa(dp194
g2
S'8318'
p195
sg4
L1449721836465L
sg5
g6
sg7
S'AbsListView'
p196
sg9
S' 8318'
p197
sg11
S'unregisterIRListener() is called \n'
p198
sa(dp199
g2
S'8318'
p200
sg4
L1449721836475L
sg5
g6
sg7
S'AbsListView'
p201
sg9
S' 8318'
p202
sg11
S'unregisterIRListener() is called \n'
p203
sa(dp204
g2
S'8318'
p205
sg4
L1449721837786L
sg5
g6
sg7
S'AbsListView'
p206
sg9
S' 8318'
p207
sg11
S'unregisterIRListener() is called \n'
p208
sa(dp209
g2
S'8318'
p210
sg4
L1449721837786L
sg5
S'E'
p211
sg7
S'ViewRootImpl'
p212
sg9
S' 8318'
p213
sg11
S'sendUserActionEvent() mView == null\n'
p214
sa(dp215
g2
S'8318'
p216
sg4
L1449721839258L
sg5
g6
sg7
S'dalvikvm'
p217
sg9
S' 8318'
p218
sg11
S'GC_FOR_ALLOC freed 1336K, 10% free 57542K/63880K, paused 26ms, total 27ms\n'
p219
sa(dp220
g2
S'8318'
p221
sg4
L1449721839278L
sg5
g20
sg7
S'dalvikvm-heap'
p222
sg9
S' 8318'
p223
sg11
S'Grow heap (frag case) to 67.836MB for 8294416-byte allocation\n'
p224
sa(dp225
g2
S'8318'
p226
sg4
L1449721839308L
sg5
g6
sg7
S'dalvikvm'
p227
sg9
S' 8322'
p228
sg11
S'GC_CONCURRENT freed 43K, 9% free 65600K/71984K, paused 2ms+4ms, total 25ms\n'
p229
sa(dp230
g2
S'8318'
p231
sg4
L1449721839348L
sg5
g6
sg7
S'dalvikvm'
p232
sg9
S' 8318'
p233
sg11
S'GC_FOR_ALLOC freed 1K, 9% free 65599K/71984K, paused 23ms, total 23ms\n'
p234
sa(dp235
g2
S'8318'
p236
sg4
L1449721839358L
sg5
g20
sg7
S'dalvikvm-heap'
p237
sg9
S' 8318'
p238
sg11
S'Grow heap (frag case) to 77.205MB for 8294416-byte allocation\n'
p239
sa(dp240
g2
S'8318'
p241
sg4
L1449721839388L
sg5
g6
sg7
S'dalvikvm'
p242
sg9
S' 8322'
p243
sg11
S'GC_CONCURRENT freed 8102K, 19% free 65605K/80088K, paused 3ms+4ms, total 28ms\n'
p244
sa(dp245
g2
S'8318'
p246
sg4
L1449721839648L
sg5
g6
sg7
S'cn.edu.nju.ise.kikandroid'
p247
sg9
S' 8369'
p248
sg11
S'Screenshot:1449721839195\n'
p249
sa(dp250
g2
S'8318'
p251
sg4
L1449721839978L
sg5
g6
sg7
S'MainActivity'
p252
sg9
S' 8318'
p253
sg11
S'V.getTag:null v.id:2131230738\n'
p254
sa(dp255
g2
S'8318'
p256
sg4
L1449721839978L
sg5
g6
sg7
S'AbsListView'
p257
sg9
S' 8318'
p258
sg11
S'unregisterIRListener() is called \n'
p259
sa(dp260
g2
S'8318'
p261
sg4
L1449721840038L
sg5
g6
sg7
S'AbsListView'
p262
sg9
S' 8318'
p263
sg11
S'unregisterIRListener() is called \n'
p264
sa(dp265
g2
S'8318'
p266
sg4
L1449721840108L
sg5
S'V'
p267
sg7
S'RenderScript'
p268
sg9
S' 8318'
p269
sg11
S'0x75d49010 Launching thread(s), CPUs 4\n'
p270
sa(dp271
g2
S'8318'
p272
sg4
L1449721840379L
sg5
g6
sg7
S'AbsListView'
p273
sg9
S' 8318'
p274
sg11
S'onDetachedFromWindow\n'
p275
sa(dp276
g2
S'8318'
p277
sg4
L1449721840379L
sg5
g6
sg7
S'AbsListView'
p278
sg9
S' 8318'
p279
sg11
S'unregisterIRListener() is called \n'
p280
sa(dp281
g2
S'8318'
p282
sg4
L1449721842070L
sg5
g6
sg7
S'dalvikvm'
p283
sg9
S' 8318'
p284
sg11
S'GC_FOR_ALLOC freed 8568K, 10% free 57708K/63880K, paused 29ms, total 29ms\n'
p285
sa(dp286
g2
S'8318'
p287
sg4
L1449721842090L
sg5
g20
sg7
S'dalvikvm-heap'
p288
sg9
S' 8318'
p289
sg11
S'Grow heap (frag case) to 67.999MB for 8294416-byte allocation\n'
p290
sa(dp291
g2
S'8318'
p292
sg4
L1449721842110L
sg5
g6
sg7
S'dalvikvm'
p293
sg9
S' 8322'
p294
sg11
S'GC_CONCURRENT freed 262K, 9% free 65547K/71984K, paused 2ms+3ms, total 27ms\n'
p295
sa(dp296
g2
S'8318'
p297
sg4
L1449721842140L
sg5
g6
sg7
S'dalvikvm'
p298
sg9
S' 8318'
p299
sg11
S'GC_FOR_ALLOC freed <1K, 9% free 65547K/71984K, paused 23ms, total 23ms\n'
p300
sa(dp301
g2
S'8318'
p302
sg4
L1449721842160L
sg5
g20
sg7
S'dalvikvm-heap'
p303
sg9
S' 8318'
p304
sg11
S'Grow heap (frag case) to 77.153MB for 8294416-byte allocation\n'
p305
sa(dp306
g2
S'8318'
p307
sg4
L1449721842190L
sg5
g6
sg7
S'dalvikvm'
p308
sg9
S' 8322'
p309
sg11
S'GC_CONCURRENT freed 8101K, 19% free 65551K/80088K, paused 2ms+6ms, total 35ms\n'
p310
sa(dp311
g2
S'8318'
p312
sg4
L1449721842331L
sg5
g6
sg7
S'cn.edu.nju.ise.kikandroid'
p313
sg9
S' 8369'
p314
sg11
S'Screenshot:1449721841966\n'
p315
sa(dp316
g2
S'8318'
p317
sg4
L1449721842601L
sg5
g6
sg7
S'MainActivity'
p318
sg9
S' 8318'
p319
sg11
S'V.getTag:null v.id:2131230790\n'
p320
sa(dp321
g2
S'8318'
p322
sg4
L1449721842601L
sg5
g6
sg7
S'AbsListView'
p323
sg9
S' 8318'
p324
sg11
S'unregisterIRListener() is called \n'
p325
sa(dp326
g2
S'8318'
p327
sg4
L1449721843241L
sg5
g6
sg7
S'MainActivity'
p328
sg9
S' 8318'
p329
sg11
S'V.getTag:null v.id:2131230790\n'
p330
sa(dp331
g2
S'8318'
p332
sg4
L1449721843241L
sg5
g6
sg7
S'AbsListView'
p333
sg9
S' 8318'
p334
sg11
S'unregisterIRListener() is called \n'
p335
sa(dp336
g2
S'8318'
p337
sg4
L1449721843732L
sg5
g6
sg7
S'MainActivity'
p338
sg9
S' 8318'
p339
sg11
S'V.getTag:null v.id:2131230790\n'
p340
sa(dp341
g2
S'8318'
p342
sg4
L1449721843742L
sg5
g6
sg7
S'AbsListView'
p343
sg9
S' 8318'
p344
sg11
S'unregisterIRListener() is called \n'
p345
sa(dp346
g2
S'8318'
p347
sg4
L1449721844463L
sg5
g6
sg7
S'MainActivity'
p348
sg9
S' 8318'
p349
sg11
S'V.getTag:null v.id:2131230790\n'
p350
sa(dp351
g2
S'8318'
p352
sg4
L1449721844473L
sg5
g6
sg7
S'AbsListView'
p353
sg9
S' 8318'
p354
sg11
S'unregisterIRListener() is called \n'
p355
sa(dp356
g2
S'8318'
p357
sg4
L1449721844773L
sg5
g6
sg7
S'MainActivity'
p358
sg9
S' 8318'
p359
sg11
S'V.getTag:null v.id:2131230791\n'
p360
sa(dp361
g2
S'8318'
p362
sg4
L1449721844843L
sg5
g6
sg7
S'AbsListView'
p363
sg9
S' 8318'
p364
sg11
S'Get MotionRecognitionManager\n'
p365
sa(dp366
g2
S'8318'
p367
sg4
L1449721844873L
sg5
g6
sg7
S'AbsListView'
p368
sg9
S' 8318'
p369
sg11
S'onVisibilityChanged() is called, visibility : 8\n'
p370
sa(dp371
g2
S'8318'
p372
sg4
L1449721844873L
sg5
g6
sg7
S'AbsListView'
p373
sg9
S' 8318'
p374
sg11
S'unregisterIRListener() is called \n'
p375
sa(dp376
g2
S'8318'
p377
sg4
L1449721844953L
sg5
g6
sg7
S'AbsListView'
p378
sg9
S' 8318'
p379
sg11
S'unregisterIRListener() is called \n'
p380
sa(dp381
g2
S'8318'
p382
sg4
L1449721845033L
sg5
g6
sg7
S'AbsListView'
p383
sg9
S' 8318'
p384
sg11
S'unregisterIRListener() is called \n'
p385
sa(dp386
g2
S'8318'
p387
sg4
L1449721845113L
sg5
g6
sg7
S'AbsListView'
p388
sg9
S' 8318'
p389
sg11
S'unregisterIRListener() is called \n'
p390
sa(dp391
g2
S'8318'
p392
sg4
L1449721847766L
sg5
g6
sg7
S'MainActivity'
p393
sg9
S' 8318'
p394
sg11
S'logList.size2():0 com.example.myfristandroid.myListView{431b8950 V.ED.VC. ......ID 15,15-1047,15 #7f08003c app:id/id_lv_logView}\n'
p395
sa(dp396
g2
S'8318'
p397
sg4
L1449721847766L
sg5
g6
sg7
S'MainActivity'
p398
sg9
S' 8318'
p399
sg11
S'MainActivity Send BroadCast Length:22\n'
p400
sa(dp401
g2
S'8318'
p402
sg4
L1449721847766L
sg5
g6
sg7
S'AbsListView'
p403
sg9
S' 8318'
p404
sg11
S'onDetachedFromWindow\n'
p405
sa(dp406
g2
S'8343'
p407
sg4
L1449721847766L
sg5
g6
sg7
S'ForegroundActivity'
p408
sg9
S' 8343'
p409
sg11
S'\xe6\x9c\xac\xe6\xac\xa1\xe5\x8f\x91\xe9\x80\x81\xe5\xb8\xa7\xe9\x95\xbf:22\t\xe6\x80\xbb\xe5\xb8\xa7\xe9\x95\xbf:79\n'
p410
sa(dp411
g2
S'8318'
p412
sg4
L1449721847766L
sg5
g6
sg7
S'AbsListView'
p413
sg9
S' 8318'
p414
sg11
S'unregisterIRListener() is called \n'
p415
sa(dp416
g2
S'8318'
p417
sg4
L1449721847776L
sg5
g6
sg7
S'AbsListView'
p418
sg9
S' 8318'
p419
sg11
S'unregisterIRListener() is called \n'
p420
sa(dp421
g2
S'8318'
p422
sg4
L1449721847796L
sg5
g211
sg7
S'ViewRootImpl'
p423
sg9
S' 8318'
p424
sg11
S'sendUserActionEvent() mView == null\n'
p425
sa(dp426
g2
S'8343'
p427
sg4
L1449721847906L
sg5
g6
sg7
S'ForegroundActivity'
p428
sg9
S' 8362'
p429
sg11
S'\xe6\x9c\xac\xe6\xac\xa1\xe6\x94\xb6\xe5\x88\xb0\xe5\xb8\xa7\xe9\x95\xbf:17\t\xe6\x80\xbb\xe5\xb8\xa7\xe9\x95\xbf:739\n'
p430
sa(dp431
g2
S'8343'
p432
sg4
L1449721848206L
sg5
g6
sg7
S'SocketService1'
p433
sg9
S' 8359'
p434
sg11
S'\xe6\x9c\xac\xe6\xac\xa1\xe6\x8f\x90\xe5\x8f\x961:LoadPtr:739 HeadIndex:722 GetSize:17 17 0 \xe5\xa4\xb4\xe4\xbf\xa1\xe6\x81\xaf:EB 90 EB 90 EB 90 11 00 0D 01 \n'
p435
sa(dp436
g2
S'8318'
p437
sg4
L1449721849197L
sg5
g6
sg7
S'dalvikvm'
p438
sg9
S' 8318'
p439
sg11
S'GC_FOR_ALLOC freed 8791K, 10% free 57810K/63880K, paused 33ms, total 33ms\n'
p440
sa(dp441
g2
S'8318'
p442
sg4
L1449721849217L
sg5
g20
sg7
S'dalvikvm-heap'
p443
sg9
S' 8318'
p444
sg11
S'Grow heap (frag case) to 68.097MB for 8294416-byte allocation\n'
p445
sa(dp446
g2
S'8318'
p447
sg4
L1449721849247L
sg5
g6
sg7
S'dalvikvm'
p448
sg9
S' 8322'
p449
sg11
S'GC_CONCURRENT freed 35K, 9% free 65876K/71984K, paused 3ms+4ms, total 26ms\n'
p450
sa(dp451
g2
S'8318'
p452
sg4
L1449721849247L
sg5
g6
sg7
S'dalvikvm'
p453
sg9
S' 8318'
p454
sg11
S'WAIT_FOR_CONCURRENT_GC blocked 2ms\n'
p455
sa(dp456
g2
S'8318'
p457
sg4
L1449721849267L
sg5
g20
sg7
S'dalvikvm-heap'
p458
sg9
S' 8318'
p459
sg11
S'Grow heap (frag case) to 75.974MB for 8294416-byte allocation\n'
p460
sa(dp461
g2
S'8318'
p462
sg4
L1449721849297L
sg5
g6
sg7
S'dalvikvm'
p463
sg9
S' 8322'
p464
sg11
S'GC_CONCURRENT freed 8101K, 18% free 65880K/80088K, paused 3ms+5ms, total 28ms\n'
p465
sa(dp466
g2
S'8318'
p467
sg4
L1449721849457L
sg5
g6
sg7
S'cn.edu.nju.ise.kikandroid'
p468
sg9
S' 8369'
p469
sg11
S'Screenshot:1449721849130\n'
p470
sa(dp471
g2
S'8318'
p472
sg4
L1449721851650L
sg5
g6
sg7
S'cn.edu.nju.ise.kikandroid'
p473
sg9
S' 8369'
p474
sg11
S'Log:1449721851652\n'
p475
sa(dp476
g2
S'8318'
p477
sg4
L1449721854422L
sg5
g6
sg7
S'cn.edu.nju.ise.kikandroid'
p478
sg9
S' 8369'
p479
sg11
S'Log:1449721854438\n'
p480
sa(dp481
g2
S'8318'
p482
sg4
L1449721854532L
sg5
g6
sg7
S'dalvikvm'
p483
sg9
S' 8318'
p484
sg11
S'GC_FOR_ALLOC freed 8288K, 10% free 57780K/63880K, paused 33ms, total 33ms\n'
p485
sa(dp486
g2
S'8318'
p487
sg4
L1449721854552L
sg5
g20
sg7
S'dalvikvm-heap'
p488
sg9
S' 8318'
p489
sg11
S'Grow heap (frag case) to 68.068MB for 8294416-byte allocation\n'
p490
sa(dp491
g2
S'8318'
p492
sg4
L1449721854593L
sg5
g6
sg7
S'dalvikvm'
p493
sg9
S' 8322'
p494
sg11
S'GC_CONCURRENT freed 3K, 9% free 65878K/71984K, paused 3ms+4ms, total 44ms\n'
p495
sa(dp496
g2
S'8318'
p497
sg4
L1449721854593L
sg5
g6
sg7
S'dalvikvm'
p498
sg9
S' 8318'
p499
sg11
S'WAIT_FOR_CONCURRENT_GC blocked 13ms\n'
p500
sa(dp501
g2
S'8318'
p502
sg4
L1449721854613L
sg5
g20
sg7
S'dalvikvm-heap'
p503
sg9
S' 8318'
p504
sg11
S'Grow heap (frag case) to 75.976MB for 8294416-byte allocation\n'
p505
sa(dp506
g2
S'8318'
p507
sg4
L1449721854643L
sg5
g6
sg7
S'dalvikvm'
p508
sg9
S' 8322'
p509
sg11
S'GC_CONCURRENT freed 8101K, 18% free 65883K/80088K, paused 2ms+4ms, total 28ms\n'
p510
sa(dp511
g2
S'8318'
p512
sg4
L1449721854813L
sg5
g6
sg7
S'cn.edu.nju.ise.kikandroid'
p513
sg9
S' 8369'
p514
sg11
S'Screenshot:1449721854481\n'
p515
sa(dp516
g2
S'8318'
p517
sg4
L1449721854813L
sg5
S'W'
p518
sg7
S'dalvikvm'
p519
sg9
S' 8369'
p520
sg11
S'threadid=14: thread exiting with uncaught exception (group=0x41938898)\n'
p521
sa(dp522
g2
S'8318'
p523
sg4
L1449721854813L
sg5
g211
sg7
S'AndroidRuntime'
p524
sg9
S' 8369'
p525
sg11
S'FATAL EXCEPTION: Thread-720\njava.lang.NullPointerException\n\tat android.app.Instrumentation.finish(Instrumentation.java:195)\n\tat cn.edu.nju.ise.kikandroid.AUTInstrument.quitInstr(AUTInstrument.java:195)\n\tat cn.edu.nju.ise.kikandroid.AUTInstrument.startServer(AUTInstrument.java:161)\n\tat cn.edu.nju.ise.kikandroid.AUTInstrument$1.run(AUTInstrument.java:107)\n\tat java.lang.Thread.run(Thread.java:841)\n'
p526
sa.