(lp0
(dp1
S'processID'
p2
S'17916'
p3
sS'SyscTime'
p4
L1449969852468L
sS'priority'
p5
S'I'
p6
sS'tag'
p7
S'Log_level_control'
p8
sS'threadID'
p9
S'17916'
p10
sS'message'
p11
S'YWW4\n'
p12
sa(dp13
g2
S'17899'
p14
sg4
L1449969852664L
sg5
S'E'
p15
sg7
S'linker  '
p16
sg9
S'17923'
p17
sg11
S'"app_process": ignoring 2-entry DT_PREINIT_ARRAY in shared library!\n'
p18
sa(dp19
g2
S'17899'
p20
sg4
L1449969852851L
sg5
S'W'
p21
sg7
S'dalvikvm'
p22
sg9
S'17930'
p23
sg11
S'VFY: unable to resolve interface method 51840: Lcom/taobao/tao/log/ITLogController;.getLogLevel (Ljava/lang/String;)Lcom/taobao/tao/log/LogLevel;\n'
p24
sa(dp25
g2
S'17899'
p26
sg4
L1449969852851L
sg5
g21
sg7
S'dalvikvm'
p27
sg9
S'17930'
p28
sg11
S'VFY: unable to resolve static method 51866: Lcom/taobao/tao/log/TLog;.logv (Ljava/lang/String;Ljava/lang/String;)V\n'
p29
sa(dp30
g2
S'17899'
p31
sg4
L1449969852882L
sg5
g21
sg7
S'dalvikvm'
p32
sg9
S'17941'
p33
sg11
S'VFY: unable to resolve virtual method 58260: Ljava/lang/ReflectiveOperationException;.printStackTrace ()V\n'
p34
sa(dp35
g2
S'17899'
p36
sg4
L1449969852898L
sg5
g21
sg7
S'ConfigContainerAdapter'
p37
sg9
S'17949'
p38
sg11
S'[initService]context is null.initService error\n'
p39
sa(dp40
g2
S'17899'
p41
sg4
L1449969852945L
sg5
g21
sg7
S'dalvikvm'
p42
sg9
S'17941'
p43
sg11
S'VFY: unable to resolve static method 51702: Lcom/taobao/statistic/TBS$Adv;.forceUpload ()V\n'
p44
sa(dp45
g2
S'17899'
p46
sg4
L1449969852968L
sg5
g21
sg7
S'awcn    '
p47
sg9
S'17940'
p48
sg11
S' file not exist.\n'
p49
sa(dp50
g2
S'17899'
p51
sg4
L1449969853039L
sg5
g21
sg7
S'dalvikvm'
p52
sg9
S'17941'
p53
sg11
S'VFY: unable to resolve virtual method 58260: Ljava/lang/ReflectiveOperationException;.printStackTrace ()V\n'
p54
sa(dp55
g2
S'17899'
p56
sg4
L1449969853156L
sg5
g21
sg7
S'awcn    '
p57
sg9
S'17968'
p58
sg11
S' java.lang.ClassNotFoundException: Didn\'t find class "com.taobao.accs.ChannelService" on path: DexPathList[[zip file "/data/app/com.taobao.ishopping-1.apk", zip file "/data/data/com.taobao.ishopping/code_cache/secondary-dexes/com.taobao.ishopping-1.apk.classes2.zip"],nativeLibraryDirectories=[/data/app-lib/com.taobao.ishopping-1, /vendor/lib, /system/lib]]\n'
p59
sa(dp60
g2
S'17899'
p61
sg4
L1449969853718L
sg5
g6
sg7
S'System  '
p62
sg9
S'18043'
p63
sg11
S'libcore.io.ErrnoException: kill failed: ESRCH (No such process)\n\tat libcore.io.Posix.kill(Native Method)\n\tat libcore.io.ForwardingOs.kill(ForwardingOs.java:85)\n\tat java.lang.ProcessManager$ProcessImpl.destroy(ProcessManager.java:260)\n\tat com.taobao.hotpatch.util.HotPatchUtils.isX86CPU(HotPatchUtils.java:126)\n\tat com.taobao.hotpatch.util.HotPatchUtils.isInBlackList(HotPatchUtils.java:89)\n\tat com.taobao.hotpatch.util.HotPatchUtils.isDeviceSupport(HotPatchUtils.java:142)\n\tat com.taobao.updatecenter.util.UpdateCenterUtils.isSupportPatch(UpdateCenterUtils.java:199)\n\tat com.taobao.updatecenter.hotpatch.HotPatchManager.startHotPatch(HotPatchManager.java:125)\n\tat com.taobao.ishopping.IShoppingInitConfig.initHotpatch(IShoppingInitConfig.java:291)\n\tat com.taobao.ishopping.IShoppingInitConfig.access$900(IShoppingInitConfig.java:84)\n\tat com.taobao.ishopping.IShoppingInitConfig$2.execute(IShoppingInitConfig.java:269)\n\tat com.alibaba.android.initscheduler.WrappedInitJob.execute(WrappedInitJob.java:92)\n\tat com.alibaba.android.initscheduler.JobList$ParallelTask.run(JobList.java:160)\n\tat java.util.concurrent.Executors$RunnableAdapter.call(Executors.java:390)\n\tat java.util.concurrent.FutureTask.run(FutureTask.java:234)\n\tat java.util.concurrent.ThreadPoolExecutor.runWorker(ThreadPoolExecutor.java:1080)\n\tat java.util.concurrent.ThreadPoolExecutor$Worker.run(ThreadPoolExecutor.java:573)\n\tat java.lang.Thread.run(Thread.java:841)\n'
p64
sa(dp65
g2
S'17899'
p66
sg4
L1449969853726L
sg5
g21
sg7
S'dalvikvm'
p67
sg9
S'17899'
p68
sg11
S'VFY: unable to resolve virtual method 58260: Ljava/lang/ReflectiveOperationException;.printStackTrace ()V\n'
p69
sa(dp70
g2
S'17899'
p71
sg4
L1449969854164L
sg5
g21
sg7
S'dalvikvm'
p72
sg9
S'17938'
p73
sg11
S'VFY: unable to resolve static field 184 (SUPPORTED_ABIS) in Landroid/os/Build;\n'
p74
sa(dp75
g2
S'17899'
p76
sg4
L1449969854179L
sg5
g21
sg7
S'dalvikvm'
p77
sg9
S'17971'
p78
sg11
S'VFY: unable to resolve virtual method 161: Landroid/app/AlarmManager;.setExact (IJLandroid/app/PendingIntent;)V\n'
p79
sa(dp80
g2
S'17899'
p81
sg4
L1449969854335L
sg5
g21
sg7
S'dalvikvm'
p82
sg9
S'17899'
p83
sg11
S'VFY: unable to resolve virtual method 60563: Lmtopsdk/mtop/intf/MtopBuilder;.get ()Lmtopsdk/mtop/domain/MtopResponse;\n'
p84
sa(dp85
g2
S'18116'
p86
sg4
L1449969857109L
sg5
g15
sg7
S'db      '
p87
sg9
S'18137'
p88
sg11
S'into---[initALog]\n'
p89
sa(dp90
g2
S'18116'
p91
sg4
L1449969857992L
sg5
g21
sg7
S'dalvikvm'
p92
sg9
S'18137'
p93
sg11
S'VFY: unable to resolve interface method 51840: Lcom/taobao/tao/log/ITLogController;.getLogLevel (Ljava/lang/String;)Lcom/taobao/tao/log/LogLevel;\n'
p94
sa(dp95
g2
S'18116'
p96
sg4
L1449969858000L
sg5
g21
sg7
S'dalvikvm'
p97
sg9
S'18137'
p98
sg11
S'VFY: unable to resolve static method 51866: Lcom/taobao/tao/log/TLog;.logv (Ljava/lang/String;Ljava/lang/String;)V\n'
p99
sa(dp100
g2
S'18116'
p101
sg4
L1449969858039L
sg5
g15
sg7
S'linker  '
p102
sg9
S'18160'
p103
sg11
S'"app_process": ignoring 2-entry DT_PREINIT_ARRAY in shared library!\n'
p104
sa(dp105
g2
S'18116'
p106
sg4
L1449969858187L
sg5
g21
sg7
S'awcn    '
p107
sg9
S'18156'
p108
sg11
S' \xe5\xbd\x93\xe5\x89\x8d\xe8\xbf\x9b\xe7\xa8\x8b\xe4\xb8\x8d\xe6\x98\xaf\xe4\xb8\xbb\xe8\xbf\x9b\xe7\xa8\x8b\xef\xbc\x8c\xe4\xb8\x8d\xe5\x88\x9d\xe5\xa7\x8b\xe5\x8c\x96SessionCenter\n'
p109
sa(dp110
g2
S'18116'
p111
sg4
L1449969859437L
sg5
g21
sg7
S'dalvikvm'
p112
sg9
S'18148'
p113
sg11
S'VFY: unable to resolve static field 184 (SUPPORTED_ABIS) in Landroid/os/Build;\n'
p114
sa(dp115
g2
S'17899'
p116
sg4
L1449969861875L
sg5
g21
sg7
S'dalvikvm'
p117
sg9
S'17899'
p118
sg11
S'VFY: unable to resolve virtual method 703: Landroid/content/res/TypedArray;.getChangingConfigurations ()I\n'
p119
sa(dp120
g2
S'17899'
p121
sg4
L1449969861875L
sg5
g21
sg7
S'dalvikvm'
p122
sg9
S'17899'
p123
sg11
S'VFY: unable to resolve virtual method 725: Landroid/content/res/TypedArray;.getType (I)I\n'
p124
sa(dp125
g2
S'18116'
p126
sg4
L1449969862210L
sg5
g15
sg7
S'SQLiteLog'
p127
sg9
S'18146'
p128
sg11
S'(5) statement aborts at 1: [PRAGMA journal_mode=PERSIST] \n'
p129
sa(dp130
g2
S'18116'
p131
sg4
L1449969862210L
sg5
g21
sg7
S'SQLiteConnection'
p132
sg9
S'18146'
p133
sg11
S"Could not change the database journal mode of '/data/data/com.taobao.ishopping/databases/usertrack.db' from 'wal' to 'PERSIST' because the database is locked.  This usually means that there are other open connections to the database which prevents the database from enabling or disabling write-ahead logging mode.  Proceeding without changing the journal mode.\n"
p134
sa(dp135
g2
S'17899'
p136
sg4
L1449969862375L
sg5
g21
sg7
S'LoginStatus'
p137
sg9
S'17899'
p138
sg11
S'reset login status\n'
p139
sa(dp140
g2
S'17899'
p141
sg4
L1449969862484L
sg5
g15
sg7
S'libEGL  '
p142
sg9
S'17899'
p143
sg11
S'call to OpenGL ES API with no current context (logged once per thread)\n'
p144
sa(dp145
g2
S'18116'
p146
sg4
L1449969863218L
sg5
g21
sg7
S'Taobao  '
p147
sg9
S'18196'
p148
sg11
S'getPackage Name\n'
p149
sa(dp150
g2
S'18116'
p151
sg4
L1449969863304L
sg5
g21
sg7
S'agoo.PushService'
p152
sg9
S'18116'
p153
sg11
S'[create] >>> agoo system is creating,pack= >>>com.taobao.ishopping,time=2015-12-13 09:24:23\n'
p154
sa(dp155
g2
S'18116'
p156
sg4
L1449969863304L
sg5
g21
sg7
S'agoo.ProcessUtils'
p157
sg9
S'18116'
p158
sg11
S'[checkAndRenewPidFile] /data/data/com.taobao.ishopping/files/agoo.pid\n'
p159
sa(dp160
g2
S'18116'
p161
sg4
L1449969863351L
sg5
g21
sg7
S'agoo.SoManager'
p162
sg9
S'18251'
p163
sg11
S'[createAlarm] time is daytime, wakeup cpu for keeping connecntion\n'
p164
sa(dp165
g2
S'18116'
p166
sg4
L1449969863375L
sg5
g21
sg7
S'agoo.SoManager'
p167
sg9
S'18251'
p168
sg11
S'[copyBinToFiles] open assets from = armeabi/DaemonServer\n'
p169
sa(dp170
g2
S'18116'
p171
sg4
L1449969863437L
sg5
g21
sg7
S'TAG.    '
p172
sg9
S'18251'
p173
sg11
S'chmod 500 /data/data/com.taobao.ishopping/files/DaemonServer\n'
p174
sa(dp175
g2
S'18116'
p176
sg4
L1449969863554L
sg5
g21
sg7
S'TAG.    '
p177
sg9
S'18251'
p178
sg11
S'/data/data/com.taobao.ishopping/files/DaemonServer -s "/data/data/com.taobao.ishopping/lib/" -n "runServer" -p "startservice -a com.taobao.ishopping.intent.action.COCKROACH --es cockroach cockroach-PPreotect --es pack com.taobao.ishopping --user 0" -f "/data/data/com.taobao.ishopping" -t "600" -c "agoo.pid" -P /data/data/com.taobao.ishopping -K 1009527 -U tb_android_daemon_1.1.2 -L http://agoodm.m.taobao.com/agoo/report -D %7B%22package%22%3A%22com.taobao.ishopping%22%2C%22appKey%22%3A%2223207852%22%2C%22utdid%22%3A%22VmroOJJtqjsDAKmz4hZHcO0b%22%2C%22sdkVersion%22%3A%2220150615%22%7D -I agoodm.m.taobao.com -O 80 -T -Z \n'
p179
sa(dp180
g2
S'18116'
p181
sg4
L1449969863601L
sg5
g21
sg7
S'agoo.SoManager'
p182
sg9
S'18251'
p183
sg11
S'[lauchIt] /data/data/com.taobao.ishopping/files/DaemonServer -s "/data/data/com.taobao.ishopping/lib/" -n "runServer" -p "startservice -a com.taobao.ishopping.intent.action.COCKROACH --es cockroach cockroach-PPreotect --es pack com.taobao.ishopping --user 0" -f "/data/data/com.taobao.ishopping" -t "600" -c "agoo.pid" -P /data/data/com.taobao.ishopping -K 1009527 -U tb_android_daemon_1.1.2 -L http://agoodm.m.taobao.com/agoo/report -D %7B%22package%22%3A%22com.taobao.ishopping%22%2C%22appKey%22%3A%2223207852%22%2C%22utdid%22%3A%22VmroOJJtqjsDAKmz4hZHcO0b%22%2C%22sdkVersion%22%3A%2220150615%22%7D -I agoodm.m.taobao.com -O 80 -T -Z \n'
p184
sa(dp185
g2
S'18434'
p186
sg4
L1449969911484L
sg5
g15
sg7
S'linker  '
p187
sg9
S'18454'
p188
sg11
S'"app_process": ignoring 2-entry DT_PREINIT_ARRAY in shared library!\n'
p189
sa(dp190
g2
S'18434'
p191
sg4
L1449969911546L
sg5
g21
sg7
S'dalvikvm'
p192
sg9
S'18462'
p193
sg11
S'VFY: unable to resolve interface method 51840: Lcom/taobao/tao/log/ITLogController;.getLogLevel (Ljava/lang/String;)Lcom/taobao/tao/log/LogLevel;\n'
p194
sa(dp195
g2
S'18434'
p196
sg4
L1449969911546L
sg5
g21
sg7
S'dalvikvm'
p197
sg9
S'18462'
p198
sg11
S'VFY: unable to resolve static method 51866: Lcom/taobao/tao/log/TLog;.logv (Ljava/lang/String;Ljava/lang/String;)V\n'
p199
sa(dp200
g2
S'18434'
p201
sg4
L1449969911671L
sg5
g21
sg7
S'dalvikvm'
p202
sg9
S'18473'
p203
sg11
S'VFY: unable to resolve virtual method 58260: Ljava/lang/ReflectiveOperationException;.printStackTrace ()V\n'
p204
sa(dp205
g2
S'18434'
p206
sg4
L1449969911718L
sg5
g21
sg7
S'dalvikvm'
p207
sg9
S'18473'
p208
sg11
S'VFY: unable to resolve static method 51702: Lcom/taobao/statistic/TBS$Adv;.forceUpload ()V\n'
p209
sa(dp210
g2
S'18434'
p211
sg4
L1449969911773L
sg5
g21
sg7
S'ConfigContainerAdapter'
p212
sg9
S'18477'
p213
sg11
S'[initService]context is null.initService error\n'
p214
sa(dp215
g2
S'18434'
p216
sg4
L1449969911828L
sg5
g21
sg7
S'dalvikvm'
p217
sg9
S'18473'
p218
sg11
S'VFY: unable to resolve virtual method 58260: Ljava/lang/ReflectiveOperationException;.printStackTrace ()V\n'
p219
sa(dp220
g2
S'18434'
p221
sg4
L1449969912093L
sg5
g21
sg7
S'dalvikvm'
p222
sg9
S'18434'
p223
sg11
S'VFY: unable to resolve virtual method 58260: Ljava/lang/ReflectiveOperationException;.printStackTrace ()V\n'
p224
sa(dp225
g2
S'18434'
p226
sg4
L1449969912398L
sg5
g21
sg7
S'dalvikvm'
p227
sg9
S'18434'
p228
sg11
S'VFY: unable to resolve virtual method 60563: Lmtopsdk/mtop/intf/MtopBuilder;.get ()Lmtopsdk/mtop/domain/MtopResponse;\n'
p229
sa(dp230
g2
S'18434'
p231
sg4
L1449969912804L
sg5
g21
sg7
S'dalvikvm'
p232
sg9
S'18471'
p233
sg11
S'VFY: unable to resolve static field 184 (SUPPORTED_ABIS) in Landroid/os/Build;\n'
p234
sa(dp235
g2
S'18434'
p236
sg4
L1449969919179L
sg5
g21
sg7
S'dalvikvm'
p237
sg9
S'18434'
p238
sg11
S'VFY: unable to resolve virtual method 703: Landroid/content/res/TypedArray;.getChangingConfigurations ()I\n'
p239
sa(dp240
g2
S'18434'
p241
sg4
L1449969919179L
sg5
g21
sg7
S'dalvikvm'
p242
sg9
S'18434'
p243
sg11
S'VFY: unable to resolve virtual method 725: Landroid/content/res/TypedArray;.getType (I)I\n'
p244
sa(dp245
g2
S'18434'
p246
sg4
L1449969919585L
sg5
g21
sg7
S'LoginStatus'
p247
sg9
S'18434'
p248
sg11
S'reset login status\n'
p249
sa(dp250
g2
S'18434'
p251
sg4
L1449969928257L
sg5
g21
sg7
S'dalvikvm'
p252
sg9
S'18434'
p253
sg11
S'VFY: unable to resolve static method 16952: Landroid/webkit/WebView;.setWebContentsDebuggingEnabled (Z)V\n'
p254
sa(dp255
g2
S'18434'
p256
sg4
L1449969928281L
sg5
g21
sg7
S'dalvikvm'
p257
sg9
S'18434'
p258
sg11
S'VFY: unable to resolve static method 16952: Landroid/webkit/WebView;.setWebContentsDebuggingEnabled (Z)V\n'
p259
sa(dp260
g2
S'18434'
p261
sg4
L1449969928289L
sg5
g21
sg7
S'dalvikvm'
p262
sg9
S'18434'
p263
sg11
S'VFY: unable to resolve virtual method 16922: Landroid/webkit/WebView;.evaluateJavascript (Ljava/lang/String;Landroid/webkit/ValueCallback;)V\n'
p264
sa(dp265
g2
S'18434'
p266
sg4
L1449969928710L
sg5
g15
sg7
S'Skia_TiffDec'
p267
sg9
S'18606'
p268
sg11
S'unsupported seek origin 1552413203\n'
p269
sa(dp270
g2
S'18434'
p271
sg4
L1449969928710L
sg5
g15
sg7
S'Skia_TiffDec'
p272
sg9
S'18606'
p273
sg11
S'Tiff decoder init fail!\n'
p274
sa(dp275
g2
S'18434'
p276
sg4
L1449969928742L
sg5
g15
sg7
S'SQLiteLog'
p277
sg9
S'18606'
p278
sg11
S'(1) no such table: CacheGroups\n'
p279
sa(dp280
g2
S'18434'
p281
sg4
L1449969928742L
sg5
g15
sg7
S'SQLiteLog'
p282
sg9
S'18606'
p283
sg11
S'(1) no such table: Caches\n'
p284
sa(dp285
g2
S'18434'
p286
sg4
L1449969928742L
sg5
g15
sg7
S'SQLiteLog'
p287
sg9
S'18606'
p288
sg11
S'(1) no such table: Origins\n'
p289
sa(dp290
g2
S'18434'
p291
sg4
L1449969928742L
sg5
g15
sg7
S'SQLiteLog'
p292
sg9
S'18606'
p293
sg11
S'(1) no such table: DeletedCacheResources\n'
p294
sa(dp295
g2
S'18434'
p296
sg4
L1449969930429L
sg5
g15
sg7
S'Web Console'
p297
sg9
S'18434'
p298
sg11
S"Uncaught TypeError: Cannot call method 'onSuccess' of undefined at null:1\n"
p299
sa(dp300
g2
S'18434'
p301
sg4
L1449969942335L
sg5
g21
sg7
S'IInputConnectionWrapper'
p302
sg9
S'18434'
p303
sg11
S'performPrivateCommand on inactive InputConnection\n'
p304
sa(dp305
g2
S'18434'
p306
sg4
L1449969954046L
sg5
g21
sg7
S'IInputConnectionWrapper'
p307
sg9
S'18434'
p308
sg11
S'showStatusIcon on inactive InputConnection\n'
p309
sa(dp310
g2
S'18434'
p311
sg4
L1449969968281L
sg5
g15
sg7
S'ImageLoader'
p312
sg9
S'18591'
p313
sg11
S'null\njava.net.SocketTimeoutException\n\tat java.net.PlainSocketImpl.read(PlainSocketImpl.java:491)\n\tat java.net.PlainSocketImpl.access$000(PlainSocketImpl.java:46)\n\tat java.net.PlainSocketImpl$PlainSocketInputStream.read(PlainSocketImpl.java:240)\n\tat java.io.InputStream.read(InputStream.java:163)\n\tat java.io.BufferedInputStream.fillbuf(BufferedInputStream.java:142)\n\tat java.io.BufferedInputStream.read(BufferedInputStream.java:309)\n\tat libcore.net.http.ChunkedInputStream.read(ChunkedInputStream.java:52)\n\tat java.util.zip.GZIPInputStream.readFully(GZIPInputStream.java:204)\n\tat java.util.zip.GZIPInputStream.<init>(GZIPInputStream.java:98)\n\tat java.util.zip.GZIPInputStream.<init>(GZIPInputStream.java:81)\n\tat libcore.net.http.HttpEngine.initContentStream(HttpEngine.java:547)\n\tat libcore.net.http.HttpEngine.readResponse(HttpEngine.java:850)\n\tat libcore.net.http.HttpURLConnectionImpl.getResponse(HttpURLConnectionImpl.java:283)\n\tat libcore.net.http.HttpURLConnectionImpl.getInputStream(HttpURLConnectionImpl.java:177)\n\tat com.taobao.ishopping.util.AuthImageDownloader.getStreamFromNetwork(AuthImageDownloader.java:66)\n\tat com.nostra13.universalimageloader.core.download.BaseImageDownloader.getStream(BaseImageDownloader.java:88)\n\tat com.nostra13.universalimageloader.core.LoadAndDisplayImageTask.downloadImage(LoadAndDisplayImageTask.java:291)\n\tat com.nostra13.universalimageloader.core.LoadAndDisplayImageTask.tryCacheImageOnDisk(LoadAndDisplayImageTask.java:274)\n\tat com.nostra13.universalimageloader.core.LoadAndDisplayImageTask.tryLoadBitmap(LoadAndDisplayImageTask.java:230)\n\tat com.nostra13.universalimageloader.core.LoadAndDisplayImageTask.run(LoadAndDisplayImageTask.java:136)\n\tat java.util.concurrent.ThreadPoolExecutor.runWorker(ThreadPoolExecutor.java:1080)\n\tat java.util.concurrent.ThreadPoolExecutor$Worker.run(ThreadPoolExecutor.java:573)\n\tat java.lang.Thread.run(Thread.java:841)\n'
p314
sa.