(lp0
(dp1
S'processID'
p2
S'24288'
p3
sS'SyscTime'
p4
L1449732683729L
sS'priority'
p5
S'V'
p6
sS'tag'
p7
S'Activity'
p8
sS'threadID'
p9
S'24288'
p10
sS'message'
p11
S'onCreate com.xdf.ucan.ui.login.StartActivity@41cae720: null\n'
p12
sa(dp13
g2
S'24288'
p14
sg4
L1449732683919L
sg5
g6
sg7
S'Activity'
p15
sg9
S'24288'
p16
sg11
S'onStart com.xdf.ucan.ui.login.StartActivity@41cae720\n'
p17
sa(dp18
g2
S'24288'
p19
sg4
L1449732683919L
sg5
g6
sg7
S'Activity'
p20
sg9
S'24288'
p21
sg11
S'onResume com.xdf.ucan.ui.login.StartActivity@41cae720\n'
p22
sa(dp23
g2
S'24288'
p24
sg4
L1449732684479L
sg5
g6
sg7
S'Activity'
p25
sg9
S'24288'
p26
sg11
S'onPause com.xdf.ucan.ui.login.StartActivity@41cae720\n'
p27
sa(dp28
g2
S'24288'
p29
sg4
L1449732684539L
sg5
g6
sg7
S'Activity'
p30
sg9
S'24288'
p31
sg11
S'onCreate com.xdf.ucan.MainActivity@423325b0: null\n'
p32
sa(dp33
g2
S'24288'
p34
sg4
L1449732684629L
sg5
g6
sg7
S'Activity'
p35
sg9
S'24288'
p36
sg11
S'onStart com.xdf.ucan.MainActivity@423325b0\n'
p37
sa(dp38
g2
S'24288'
p39
sg4
L1449732684629L
sg5
g6
sg7
S'Activity'
p40
sg9
S'24288'
p41
sg11
S'onResume com.xdf.ucan.MainActivity@423325b0\n'
p42
sa(dp43
g2
S'24288'
p44
sg4
L1449732685329L
sg5
g6
sg7
S'Activity'
p45
sg9
S'24288'
p46
sg11
S'onStop com.xdf.ucan.ui.login.StartActivity@41cae720\n'
p47
sa(dp48
g2
S'24288'
p49
sg4
L1449732685329L
sg5
g6
sg7
S'Activity'
p50
sg9
S'24288'
p51
sg11
S'onDestroy com.xdf.ucan.ui.login.StartActivity@41cae720\n'
p52
sa(dp53
g2
S'24288'
p54
sg4
L1449732685409L
sg5
g6
sg7
S'PowerManager'
p55
sg9
S'24288'
p56
sg11
S'acquire(long)/mToken = android.os.Binder@423629d8 timeout = 60000\n'
p57
sa(dp58
g2
S'24288'
p59
sg4
L1449732685409L
sg5
g6
sg7
S'PowerManager'
p60
sg9
S'24288'
p61
sg11
S'acquireLocked/mFlags = 1 mToken = android.os.Binder@423629d8 mTag = wake:com.xdf.ucan/io.rong.imlib.ReConnectService mWorkSource = null\n'
p62
sa(dp63
g2
S'24288'
p64
sg4
L1449732685409L
sg5
g6
sg7
S'PowerManager'
p65
sg9
S'24288'
p66
sg11
S'acquireLocked/mRefCounted = false mCount = 0\n'
p67
sa(dp68
g2
S'24288'
p69
sg4
L1449732685409L
sg5
g6
sg7
S'PowerManager'
p70
sg9
S'24288'
p71
sg11
S'release/flags = 0 mToken = android.os.Binder@423629d8 mTag = wake:com.xdf.ucan/io.rong.imlib.ReConnectService mWorkSource = null\n'
p72
sa(dp73
g2
S'24288'
p74
sg4
L1449732685409L
sg5
g6
sg7
S'PowerManager'
p75
sg9
S'24288'
p76
sg11
S'release/mRefCounted = false mCount = 0\n'
p77
sa(dp78
g2
S'24375'
p79
sg4
L1449732687319L
sg5
g6
sg7
S'PowerManager'
p80
sg9
S'24375'
p81
sg11
S'acquire(long)/mToken = android.os.Binder@41c842d8 timeout = 60000\n'
p82
sa(dp83
g2
S'24375'
p84
sg4
L1449732687319L
sg5
g6
sg7
S'PowerManager'
p85
sg9
S'24375'
p86
sg11
S'acquireLocked/mFlags = 1 mToken = android.os.Binder@41c842d8 mTag = wake:com.xdf.ucan/io.rong.push.PushService mWorkSource = null\n'
p87
sa(dp88
g2
S'24375'
p89
sg4
L1449732687319L
sg5
g6
sg7
S'PowerManager'
p90
sg9
S'24375'
p91
sg11
S'acquireLocked/mRefCounted = false mCount = 0\n'
p92
sa(dp93
g2
S'24375'
p94
sg4
L1449732687539L
sg5
g6
sg7
S'PowerManager'
p95
sg9
S'24393'
p96
sg11
S'release/flags = 0 mToken = android.os.Binder@41c842d8 mTag = wake:com.xdf.ucan/io.rong.push.PushService mWorkSource = null\n'
p97
sa(dp98
g2
S'24375'
p99
sg4
L1449732687539L
sg5
g6
sg7
S'PowerManager'
p100
sg9
S'24393'
p101
sg11
S'release/mRefCounted = false mCount = 0\n'
p102
sa(dp103
g2
S'24375'
p104
sg4
L1449732688949L
sg5
g6
sg7
S'PowerManager'
p105
sg9
S'24375'
p106
sg11
S'acquire(long)/mToken = android.os.Binder@41c47ff0 timeout = 60000\n'
p107
sa(dp108
g2
S'24375'
p109
sg4
L1449732688949L
sg5
g6
sg7
S'PowerManager'
p110
sg9
S'24375'
p111
sg11
S'acquireLocked/mFlags = 1 mToken = android.os.Binder@41c47ff0 mTag = wake:com.xdf.ucan/io.rong.push.PushService mWorkSource = null\n'
p112
sa(dp113
g2
S'24375'
p114
sg4
L1449732688949L
sg5
g6
sg7
S'PowerManager'
p115
sg9
S'24375'
p116
sg11
S'acquireLocked/mRefCounted = false mCount = 0\n'
p117
sa(dp118
g2
S'24288'
p119
sg4
L1449732690489L
sg5
g6
sg7
S'Activity'
p120
sg9
S'24288'
p121
sg11
S'onPause com.xdf.ucan.MainActivity@423325b0\n'
p122
sa(dp123
g2
S'24288'
p124
sg4
L1449732690529L
sg5
g6
sg7
S'Activity'
p125
sg9
S'24288'
p126
sg11
S'onCreate com.xdf.ucan.ui.video.VideoListActivity@422bfd20: null\n'
p127
sa(dp128
g2
S'24288'
p129
sg4
L1449732690699L
sg5
g6
sg7
S'Activity'
p130
sg9
S'24288'
p131
sg11
S'onStart com.xdf.ucan.ui.video.VideoListActivity@422bfd20\n'
p132
sa(dp133
g2
S'24288'
p134
sg4
L1449732690699L
sg5
g6
sg7
S'Activity'
p135
sg9
S'24288'
p136
sg11
S'onResume com.xdf.ucan.ui.video.VideoListActivity@422bfd20\n'
p137
sa(dp138
g2
S'24288'
p139
sg4
L1449732691279L
sg5
g6
sg7
S'Activity'
p140
sg9
S'24288'
p141
sg11
S'onStop com.xdf.ucan.MainActivity@423325b0\n'
p142
sa(dp143
g2
S'24288'
p144
sg4
L1449732724809L
sg5
g6
sg7
S'Activity'
p145
sg9
S'24288'
p146
sg11
S'onPause com.xdf.ucan.ui.video.VideoListActivity@422bfd20\n'
p147
sa(dp148
g2
S'24288'
p149
sg4
L1449732724839L
sg5
g6
sg7
S'Activity'
p150
sg9
S'24288'
p151
sg11
S'onCreate com.xdf.ucan.ui.video.VideoPlayerActivity@41c47518: null\n'
p152
sa(dp153
g2
S'24288'
p154
sg4
L1449732725079L
sg5
g6
sg7
S'Activity'
p155
sg9
S'24288'
p156
sg11
S'onStart com.xdf.ucan.ui.video.VideoPlayerActivity@41c47518\n'
p157
sa(dp158
g2
S'24288'
p159
sg4
L1449732725079L
sg5
g6
sg7
S'Activity'
p160
sg9
S'24288'
p161
sg11
S'onResume com.xdf.ucan.ui.video.VideoPlayerActivity@41c47518\n'
p162
sa(dp163
g2
S'24288'
p164
sg4
L1449732726209L
sg5
g6
sg7
S'Activity'
p165
sg9
S'24288'
p166
sg11
S'onStop com.xdf.ucan.ui.video.VideoListActivity@422bfd20\n'
p167
sa(dp168
g2
S'24288'
p169
sg4
L1449732730399L
sg5
g6
sg7
S'Activity'
p170
sg9
S'24288'
p171
sg11
S'onPause com.xdf.ucan.ui.video.VideoPlayerActivity@41c47518\n'
p172
sa(dp173
g2
S'24288'
p174
sg4
L1449732730519L
sg5
g6
sg7
S'Activity'
p175
sg9
S'24288'
p176
sg11
S'onStart com.xdf.ucan.ui.video.VideoListActivity@422bfd20\n'
p177
sa(dp178
g2
S'24288'
p179
sg4
L1449732730519L
sg5
g6
sg7
S'Activity'
p180
sg9
S'24288'
p181
sg11
S'onResume com.xdf.ucan.ui.video.VideoListActivity@422bfd20\n'
p182
sa(dp183
g2
S'24288'
p184
sg4
L1449732731279L
sg5
g6
sg7
S'Activity'
p185
sg9
S'24288'
p186
sg11
S'onStop com.xdf.ucan.ui.video.VideoPlayerActivity@41c47518\n'
p187
sa(dp188
g2
S'24288'
p189
sg4
L1449732731279L
sg5
g6
sg7
S'Activity'
p190
sg9
S'24288'
p191
sg11
S'onDestroy com.xdf.ucan.ui.video.VideoPlayerActivity@41c47518\n'
p192
sa(dp193
g2
S'24288'
p194
sg4
L1449732744379L
sg5
g6
sg7
S'Activity'
p195
sg9
S'24288'
p196
sg11
S'onPause com.xdf.ucan.ui.video.VideoListActivity@422bfd20\n'
p197
sa(dp198
g2
S'24288'
p199
sg4
L1449732744409L
sg5
g6
sg7
S'Activity'
p200
sg9
S'24288'
p201
sg11
S'onCreate com.xdf.ucan.ui.video.VideoPlayerActivity@41e0ca08: null\n'
p202
sa(dp203
g2
S'24288'
p204
sg4
L1449732744479L
sg5
g6
sg7
S'Activity'
p205
sg9
S'24288'
p206
sg11
S'onStart com.xdf.ucan.ui.video.VideoPlayerActivity@41e0ca08\n'
p207
sa(dp208
g2
S'24288'
p209
sg4
L1449732744479L
sg5
g6
sg7
S'Activity'
p210
sg9
S'24288'
p211
sg11
S'onResume com.xdf.ucan.ui.video.VideoPlayerActivity@41e0ca08\n'
p212
sa(dp213
g2
S'24288'
p214
sg4
L1449732746529L
sg5
g6
sg7
S'Activity'
p215
sg9
S'24288'
p216
sg11
S'onStop com.xdf.ucan.ui.video.VideoListActivity@422bfd20\n'
p217
sa(dp218
g2
S'24375'
p219
sg4
L1449732749009L
sg5
g6
sg7
S'PowerManager'
p220
sg9
S'24375'
p221
sg11
S'release/flags = 0 mToken = android.os.Binder@41c47ff0 mTag = wake:com.xdf.ucan/io.rong.push.PushService mWorkSource = null\n'
p222
sa(dp223
g2
S'24375'
p224
sg4
L1449732749009L
sg5
g6
sg7
S'PowerManager'
p225
sg9
S'24375'
p226
sg11
S'release/mRefCounted = false mCount = 0\n'
p227
sa(dp228
g2
S'24288'
p229
sg4
L1449732758499L
sg5
S'I'
p230
sg7
S'Toast   '
p231
sg9
S'24288'
p232
sg11
S'the toast owner is: com.xdf.ucan\n'
p233
sa(dp234
g2
S'24288'
p235
sg4
L1449732763659L
sg5
g6
sg7
S'Activity'
p236
sg9
S'24288'
p237
sg11
S'onPause com.xdf.ucan.ui.video.VideoPlayerActivity@41e0ca08\n'
p238
sa(dp239
g2
S'24288'
p240
sg4
L1449732763689L
sg5
g6
sg7
S'Activity'
p241
sg9
S'24288'
p242
sg11
S'onStart com.xdf.ucan.ui.video.VideoListActivity@422bfd20\n'
p243
sa(dp244
g2
S'24288'
p245
sg4
L1449732763689L
sg5
g6
sg7
S'Activity'
p246
sg9
S'24288'
p247
sg11
S'onResume com.xdf.ucan.ui.video.VideoListActivity@422bfd20\n'
p248
sa(dp249
g2
S'24288'
p250
sg4
L1449732764119L
sg5
g6
sg7
S'Activity'
p251
sg9
S'24288'
p252
sg11
S'onStop com.xdf.ucan.ui.video.VideoPlayerActivity@41e0ca08\n'
p253
sa(dp254
g2
S'24288'
p255
sg4
L1449732764129L
sg5
g6
sg7
S'Activity'
p256
sg9
S'24288'
p257
sg11
S'onDestroy com.xdf.ucan.ui.video.VideoPlayerActivity@41e0ca08\n'
p258
sa(dp259
g2
S'24288'
p260
sg4
L1449732770989L
sg5
g6
sg7
S'Activity'
p261
sg9
S'24288'
p262
sg11
S'onPause com.xdf.ucan.ui.video.VideoListActivity@422bfd20\n'
p263
sa(dp264
g2
S'24288'
p265
sg4
L1449732771019L
sg5
g6
sg7
S'Activity'
p266
sg9
S'24288'
p267
sg11
S'onCreate com.xdf.ucan.ui.video.VideoPlayerActivity@41eb5ac8: null\n'
p268
sa(dp269
g2
S'24288'
p270
sg4
L1449732771089L
sg5
g6
sg7
S'Activity'
p271
sg9
S'24288'
p272
sg11
S'onStart com.xdf.ucan.ui.video.VideoPlayerActivity@41eb5ac8\n'
p273
sa(dp274
g2
S'24288'
p275
sg4
L1449732771089L
sg5
g6
sg7
S'Activity'
p276
sg9
S'24288'
p277
sg11
S'onResume com.xdf.ucan.ui.video.VideoPlayerActivity@41eb5ac8\n'
p278
sa(dp279
g2
S'24288'
p280
sg4
L1449732774039L
sg5
g6
sg7
S'Activity'
p281
sg9
S'24288'
p282
sg11
S'onPause com.xdf.ucan.ui.video.VideoPlayerActivity@41eb5ac8\n'
p283
sa(dp284
g2
S'24288'
p285
sg4
L1449732774469L
sg5
g6
sg7
S'Activity'
p286
sg9
S'24288'
p287
sg11
S'onCreate com.mob.tools.MobUIShell@41e68c78: null\n'
p288
sa(dp289
g2
S'24288'
p290
sg4
L1449732774559L
sg5
g6
sg7
S'Activity'
p291
sg9
S'24288'
p292
sg11
S'onStart com.mob.tools.MobUIShell@41e68c78\n'
p293
sa(dp294
g2
S'24288'
p295
sg4
L1449732774559L
sg5
g6
sg7
S'Activity'
p296
sg9
S'24288'
p297
sg11
S'onResume com.mob.tools.MobUIShell@41e68c78\n'
p298
sa(dp299
g2
S'24288'
p300
sg4
L1449732776019L
sg5
g6
sg7
S'Activity'
p301
sg9
S'24288'
p302
sg11
S'onPause com.mob.tools.MobUIShell@41e68c78\n'
p303
sa(dp304
g2
S'24288'
p305
sg4
L1449732776079L
sg5
g6
sg7
S'Activity'
p306
sg9
S'24288'
p307
sg11
S'onCreate com.mob.tools.MobUIShell@41ff9ad8: null\n'
p308
sa(dp309
g2
S'24288'
p310
sg4
L1449732776129L
sg5
g6
sg7
S'Activity'
p311
sg9
S'24288'
p312
sg11
S'onStart com.mob.tools.MobUIShell@41ff9ad8\n'
p313
sa(dp314
g2
S'24288'
p315
sg4
L1449732776139L
sg5
g6
sg7
S'Activity'
p316
sg9
S'24288'
p317
sg11
S'onResume com.mob.tools.MobUIShell@41ff9ad8\n'
p318
sa(dp319
g2
S'24288'
p320
sg4
L1449732776669L
sg5
g6
sg7
S'Activity'
p321
sg9
S'24288'
p322
sg11
S'onStop com.xdf.ucan.ui.video.VideoListActivity@422bfd20\n'
p323
sa(dp324
g2
S'24288'
p325
sg4
L1449732777849L
sg5
g230
sg7
S'Toast   '
p326
sg9
S'24288'
p327
sg11
S'the toast owner is: com.xdf.ucan\n'
p328
sa(dp329
g2
S'24288'
p330
sg4
L1449732778289L
sg5
g6
sg7
S'Activity'
p331
sg9
S'24288'
p332
sg11
S'onPause com.mob.tools.MobUIShell@41ff9ad8\n'
p333
sa(dp334
g2
S'24288'
p335
sg4
L1449732778359L
sg5
g6
sg7
S'Activity'
p336
sg9
S'24288'
p337
sg11
S'onResume com.mob.tools.MobUIShell@41e68c78\n'
p338
sa(dp339
g2
S'24288'
p340
sg4
L1449732778399L
sg5
g6
sg7
S'Activity'
p341
sg9
S'24288'
p342
sg11
S'onStop com.mob.tools.MobUIShell@41ff9ad8\n'
p343
sa(dp344
g2
S'24288'
p345
sg4
L1449732778399L
sg5
g6
sg7
S'Activity'
p346
sg9
S'24288'
p347
sg11
S'onDestroy com.mob.tools.MobUIShell@41ff9ad8\n'
p348
sa(dp349
g2
S'24288'
p350
sg4
L1449732778699L
sg5
g6
sg7
S'Activity'
p351
sg9
S'24288'
p352
sg11
S'onPause com.mob.tools.MobUIShell@41e68c78\n'
p353
sa(dp354
g2
S'24288'
p355
sg4
L1449732779469L
sg5
g6
sg7
S'Activity'
p356
sg9
S'24288'
p357
sg11
S'onCreate com.xdf.ucan.wxapi.WXEntryActivity@41db1d48: null\n'
p358
sa(dp359
g2
S'24288'
p360
sg4
L1449732779519L
sg5
g6
sg7
S'Activity'
p361
sg9
S'24288'
p362
sg11
S'onResume com.mob.tools.MobUIShell@41e68c78\n'
p363
sa(dp364
g2
S'24288'
p365
sg4
L1449732779549L
sg5
g6
sg7
S'Activity'
p366
sg9
S'24288'
p367
sg11
S'onDestroy com.xdf.ucan.wxapi.WXEntryActivity@41db1d48\n'
p368
sa(dp369
g2
S'24288'
p370
sg4
L1449732783699L
sg5
g6
sg7
S'AudioManager'
p371
sg9
S'24288'
p372
sg11
S'AudioManager ctor mUseMasterVolume:false\n'
p373
sa(dp374
g2
S'24288'
p375
sg4
L1449732783699L
sg5
g230
sg7
S'Toast   '
p376
sg9
S'24288'
p377
sg11
S'the toast owner is: com.xdf.ucan\n'
p378
sa(dp379
g2
S'24288'
p380
sg4
L1449732783709L
sg5
S'D'
p381
sg7
S'long    '
p382
sg9
S'24288'
p383
sg11
S'subscriptionName:\xe5\x88\x9d\xe4\xb8\xad\xe8\x8b\xb1\xe8\xaf\xad\xe9\x9d\x9e\xe5\xba\x94\xe8\xaf\x95\n'
p384
sa(dp385
g2
S'24288'
p386
sg4
L1449732783839L
sg5
g230
sg7
S'Environment'
p387
sg9
S'25197'
p388
sg11
S'GetExternalStorageDirectory info:ApplicationInfo{420063c8 com.xdf.ucan},packagename:com.xdf.ucan,UID:0\n'
p389
sa(dp390
g2
S'24288'
p391
sg4
L1449732783839L
sg5
g381
sg7
S'Environment'
p392
sg9
S'25197'
p393
sg11
S'Enviroment getExternalStorageState :/mnt/sdcard\n'
p394
sa(dp395
g2
S'24288'
p396
sg4
L1449732783839L
sg5
g230
sg7
S'Environment'
p397
sg9
S'25197'
p398
sg11
S'GetExternalStorageDirectory info:ApplicationInfo{41d809b0 com.xdf.ucan},packagename:com.xdf.ucan,UID:0\n'
p399
sa(dp400
g2
S'24288'
p401
sg4
L1449732784029L
sg5
g230
sg7
S'Environment'
p402
sg9
S'25197'
p403
sg11
S'GetExternalStorageDirectory info:ApplicationInfo{41e24e10 com.xdf.ucan},packagename:com.xdf.ucan,UID:0\n'
p404
sa(dp405
g2
S'24288'
p406
sg4
L1449732784029L
sg5
g381
sg7
S'Environment'
p407
sg9
S'25197'
p408
sg11
S'Enviroment getExternalStorageState :/mnt/sdcard\n'
p409
sa(dp410
g2
S'24288'
p411
sg4
L1449732784039L
sg5
g230
sg7
S'Environment'
p412
sg9
S'25197'
p413
sg11
S'GetExternalStorageDirectory info:ApplicationInfo{4224ceb8 com.xdf.ucan},packagename:com.xdf.ucan,UID:0\n'
p414
sa(dp415
g2
S'24288'
p416
sg4
L1449732784169L
sg5
g381
sg7
S'dalvikvm'
p417
sg9
S'24290'
p418
sg11
S'GC_CONCURRENT freed 1069K, 22% free 17605K/22407K, paused 3ms+4ms, total 60ms\n'
p419
sa(dp420
g2
S'24288'
p421
sg4
L1449732784289L
sg5
g6
sg7
S'Activity'
p422
sg9
S'24288'
p423
sg11
S'onPause com.mob.tools.MobUIShell@41e68c78\n'
p424
sa(dp425
g2
S'24288'
p426
sg4
L1449732784319L
sg5
g6
sg7
S'Activity'
p427
sg9
S'24288'
p428
sg11
S'onResume com.xdf.ucan.ui.video.VideoPlayerActivity@41eb5ac8\n'
p429
sa(dp430
g2
S'24288'
p431
sg4
L1449732784399L
sg5
g6
sg7
S'Activity'
p432
sg9
S'24288'
p433
sg11
S'onPause com.xdf.ucan.ui.video.VideoPlayerActivity@41eb5ac8\n'
p434
sa(dp435
g2
S'24288'
p436
sg4
L1449732784409L
sg5
g230
sg7
S'Environment'
p437
sg9
S'25120'
p438
sg11
S'GetExternalStorageDirectory info:ApplicationInfo{4239b600 com.xdf.ucan},packagename:com.xdf.ucan,UID:0\n'
p439
sa(dp440
g2
S'24288'
p441
sg4
L1449732784409L
sg5
g381
sg7
S'Environment'
p442
sg9
S'25120'
p443
sg11
S'Enviroment getExternalStorageState :/mnt/sdcard\n'
p444
sa(dp445
g2
S'24288'
p446
sg4
L1449732784419L
sg5
g230
sg7
S'Environment'
p447
sg9
S'25120'
p448
sg11
S'GetExternalStorageDirectory info:ApplicationInfo{4236eaf0 com.xdf.ucan},packagename:com.xdf.ucan,UID:0\n'
p449
sa(dp450
g2
S'24288'
p451
sg4
L1449732784439L
sg5
g230
sg7
S'Environment'
p452
sg9
S'25120'
p453
sg11
S'GetExternalStorageDirectory info:ApplicationInfo{42331f58 com.xdf.ucan},packagename:com.xdf.ucan,UID:0\n'
p454
sa(dp455
g2
S'24288'
p456
sg4
L1449732784439L
sg5
g381
sg7
S'Environment'
p457
sg9
S'25120'
p458
sg11
S'Enviroment getExternalStorageState :/mnt/sdcard\n'
p459
sa(dp460
g2
S'24288'
p461
sg4
L1449732784439L
sg5
g230
sg7
S'Environment'
p462
sg9
S'25120'
p463
sg11
S'GetExternalStorageDirectory info:ApplicationInfo{42310318 com.xdf.ucan},packagename:com.xdf.ucan,UID:0\n'
p464
sa(dp465
g2
S'24288'
p466
sg4
L1449732784539L
sg5
g6
sg7
S'Activity'
p467
sg9
S'24288'
p468
sg11
S'onStop com.mob.tools.MobUIShell@41e68c78\n'
p469
sa(dp470
g2
S'24288'
p471
sg4
L1449732784539L
sg5
g6
sg7
S'Activity'
p472
sg9
S'24288'
p473
sg11
S'onDestroy com.mob.tools.MobUIShell@41e68c78\n'
p474
sa(dp475
g2
S'24288'
p476
sg4
L1449732785119L
sg5
S'W'
p477
sg7
S'System.err'
p478
sg9
S'24288'
p479
sg11
S'java.lang.Throwable: {"req":"e","errCode":-6,"transaction":"webpage1449732784149"}\n'
p480
sa(dp481
g2
S'24288'
p482
sg4
L1449732785119L
sg5
g477
sg7
S'System.err'
p483
sg9
S'24288'
p484
sg11
S'\tat cn.sharesdk.wechat.utils.k.a(Unknown Source)\n'
p485
sa(dp486
g2
S'24288'
p487
sg4
L1449732785119L
sg5
g477
sg7
S'System.err'
p488
sg9
S'24288'
p489
sg11
S'\tat cn.sharesdk.wechat.utils.j.a(Unknown Source)\n'
p490
sa(dp491
g2
S'24288'
p492
sg4
L1449732785119L
sg5
g477
sg7
S'System.err'
p493
sg9
S'24288'
p494
sg11
S'\tat cn.sharesdk.wechat.utils.WechatHelper.a(Unknown Source)\n'
p495
sa(dp496
g2
S'24288'
p497
sg4
L1449732785119L
sg5
g477
sg7
S'System.err'
p498
sg9
S'24288'
p499
sg11
S'\tat cn.sharesdk.wechat.utils.WechatHandlerActivity.onCreate(Unknown Source)\n'
p500
sa(dp501
g2
S'24288'
p502
sg4
L1449732785119L
sg5
g477
sg7
S'System.err'
p503
sg9
S'24288'
p504
sg11
S'\tat android.app.Activity.performCreate(Activity.java:5051)\n'
p505
sa(dp506
g2
S'24288'
p507
sg4
L1449732785119L
sg5
g477
sg7
S'System.err'
p508
sg9
S'24288'
p509
sg11
S'\tat android.app.Instrumentation.callActivityOnCreate(Instrumentation.java:1101)\n'
p510
sa(dp511
g2
S'24288'
p512
sg4
L1449732785119L
sg5
g477
sg7
S'System.err'
p513
sg9
S'24288'
p514
sg11
S'\tat android.app.ActivityThread.performLaunchActivity(ActivityThread.java:2031)\n'
p515
sa(dp516
g2
S'24288'
p517
sg4
L1449732785119L
sg5
g477
sg7
S'System.err'
p518
sg9
S'24288'
p519
sg11
S'\tat android.app.ActivityThread.handleLaunchActivity(ActivityThread.java:2092)\n'
p520
sa(dp521
g2
S'24288'
p522
sg4
L1449732785119L
sg5
g477
sg7
S'System.err'
p523
sg9
S'24288'
p524
sg11
S'\tat android.app.ActivityThread.access$600(ActivityThread.java:133)\n'
p525
sa(dp526
g2
S'24288'
p527
sg4
L1449732785119L
sg5
g477
sg7
S'System.err'
p528
sg9
S'24288'
p529
sg11
S'\tat android.app.ActivityThread$H.handleMessage(ActivityThread.java:1203)\n'
p530
sa(dp531
g2
S'24288'
p532
sg4
L1449732785119L
sg5
g477
sg7
S'System.err'
p533
sg9
S'24288'
p534
sg11
S'\tat android.os.Handler.dispatchMessage(Handler.java:99)\n'
p535
sa(dp536
g2
S'24288'
p537
sg4
L1449732785119L
sg5
g477
sg7
S'System.err'
p538
sg9
S'24288'
p539
sg11
S'\tat android.os.Looper.loop(Looper.java:137)\n'
p540
sa(dp541
g2
S'24288'
p542
sg4
L1449732785119L
sg5
g477
sg7
S'System.err'
p543
sg9
S'24288'
p544
sg11
S'\tat android.app.ActivityThread.main(ActivityThread.java:4802)\n'
p545
sa(dp546
g2
S'24288'
p547
sg4
L1449732785119L
sg5
g477
sg7
S'System.err'
p548
sg9
S'24288'
p549
sg11
S'\tat java.lang.reflect.Method.invokeNative(Native Method)\n'
p550
sa(dp551
g2
S'24288'
p552
sg4
L1449732785119L
sg5
g477
sg7
S'System.err'
p553
sg9
S'24288'
p554
sg11
S'\tat java.lang.reflect.Method.invoke(Method.java:511)\n'
p555
sa(dp556
g2
S'24288'
p557
sg4
L1449732785119L
sg5
g477
sg7
S'System.err'
p558
sg9
S'24288'
p559
sg11
S'\tat com.android.internal.os.ZygoteInit$MethodAndArgsCaller.run(ZygoteInit.java:809)\n'
p560
sa(dp561
g2
S'24288'
p562
sg4
L1449732785119L
sg5
g477
sg7
S'System.err'
p563
sg9
S'24288'
p564
sg11
S'\tat com.android.internal.os.ZygoteInit.main(ZygoteInit.java:576)\n'
p565
sa(dp566
g2
S'24288'
p567
sg4
L1449732785119L
sg5
g6
sg7
S'Activity'
p568
sg9
S'24288'
p569
sg11
S'onCreate com.xdf.ucan.wxapi.WXEntryActivity@423967a0: null\n'
p570
sa(dp571
g2
S'24288'
p572
sg4
L1449732785129L
sg5
g477
sg7
S'System.err'
p573
sg9
S'24288'
p574
sg11
S'\tat dalvik.system.NativeStart.main(Native Method)\n'
p575
sa(dp576
g2
S'24288'
p577
sg4
L1449732785179L
sg5
g6
sg7
S'Activity'
p578
sg9
S'24288'
p579
sg11
S'onResume com.xdf.ucan.ui.video.VideoPlayerActivity@41eb5ac8\n'
p580
sa(dp581
g2
S'24288'
p582
sg4
L1449732785219L
sg5
g6
sg7
S'Activity'
p583
sg9
S'24288'
p584
sg11
S'onDestroy com.xdf.ucan.wxapi.WXEntryActivity@423967a0\n'
p585
sa(dp586
g2
S'24288'
p587
sg4
L1449732785249L
sg5
g230
sg7
S'System.out'
p588
sg9
S'24288'
p589
sg11
S'\xe6\xbf\x80\xe6\xb4\xbb\n'
p590
sa(dp591
g2
S'24288'
p592
sg4
L1449732785339L
sg5
g230
sg7
S'System.out'
p593
sg9
S'24288'
p594
sg11
S'\xe6\xbf\x80\xe6\xb4\xbb\n'
p595
sa(dp596
g2
S'24288'
p597
sg4
L1449732785389L
sg5
g230
sg7
S'System.out'
p598
sg9
S'24288'
p599
sg11
S'\xe6\xbf\x80\xe6\xb4\xbb\n'
p600
sa(dp601
g2
S'24288'
p602
sg4
L1449732785449L
sg5
g230
sg7
S'Environment'
p603
sg9
S'25120'
p604
sg11
S'GetExternalStorageDirectory info:ApplicationInfo{41ffe2d0 com.xdf.ucan},packagename:com.xdf.ucan,UID:0\n'
p605
sa(dp606
g2
S'24288'
p607
sg4
L1449732785449L
sg5
g381
sg7
S'Environment'
p608
sg9
S'25120'
p609
sg11
S'Enviroment getExternalStorageState :/mnt/sdcard\n'
p610
sa(dp611
g2
S'24288'
p612
sg4
L1449732785459L
sg5
g230
sg7
S'Environment'
p613
sg9
S'25120'
p614
sg11
S'GetExternalStorageDirectory info:ApplicationInfo{41e55a60 com.xdf.ucan},packagename:com.xdf.ucan,UID:0\n'
p615
sa(dp616
g2
S'24288'
p617
sg4
L1449732785469L
sg5
g230
sg7
S'Environment'
p618
sg9
S'25120'
p619
sg11
S'GetExternalStorageDirectory info:ApplicationInfo{41d7b438 com.xdf.ucan},packagename:com.xdf.ucan,UID:0\n'
p620
sa(dp621
g2
S'24288'
p622
sg4
L1449732785469L
sg5
g381
sg7
S'Environment'
p623
sg9
S'25120'
p624
sg11
S'Enviroment getExternalStorageState :/mnt/sdcard\n'
p625
sa(dp626
g2
S'24288'
p627
sg4
L1449732785469L
sg5
g230
sg7
S'Environment'
p628
sg9
S'25120'
p629
sg11
S'GetExternalStorageDirectory info:ApplicationInfo{41e266c8 com.xdf.ucan},packagename:com.xdf.ucan,UID:0\n'
p630
sa(dp631
g2
S'24288'
p632
sg4
L1449732785509L
sg5
g230
sg7
S'System.out'
p633
sg9
S'24288'
p634
sg11
S'\xe6\xbf\x80\xe6\xb4\xbb\n'
p635
sa(dp636
g2
S'24288'
p637
sg4
L1449732785529L
sg5
g230
sg7
S'System.out'
p638
sg9
S'24288'
p639
sg11
S'\xe6\xbf\x80\xe6\xb4\xbb\n'
p640
sa(dp641
g2
S'24288'
p642
sg4
L1449732785599L
sg5
g230
sg7
S'System.out'
p643
sg9
S'24288'
p644
sg11
S'\xe6\xbf\x80\xe6\xb4\xbb\n'
p645
sa(dp646
g2
S'24288'
p647
sg4
L1449732785679L
sg5
g230
sg7
S'System.out'
p648
sg9
S'24288'
p649
sg11
S'\xe6\xbf\x80\xe6\xb4\xbb\n'
p650
sa(dp651
g2
S'24288'
p652
sg4
L1449732785739L
sg5
g230
sg7
S'System.out'
p653
sg9
S'24288'
p654
sg11
S'\xe6\xbf\x80\xe6\xb4\xbb\n'
p655
sa(dp656
g2
S'24288'
p657
sg4
L1449732786019L
sg5
g230
sg7
S'System.out'
p658
sg9
S'24288'
p659
sg11
S'\xe6\xbf\x80\xe6\xb4\xbb\n'
p660
sa(dp661
g2
S'24288'
p662
sg4
L1449732787279L
sg5
g230
sg7
S'System.out'
p663
sg9
S'24288'
p664
sg11
S'\xe6\xbf\x80\xe6\xb4\xbb\n'
p665
sa(dp666
g2
S'24288'
p667
sg4
L1449732787639L
sg5
g230
sg7
S'System.out'
p668
sg9
S'24288'
p669
sg11
S'\xe6\xbf\x80\xe6\xb4\xbb\n'
p670
sa(dp671
g2
S'24288'
p672
sg4
L1449732787769L
sg5
g230
sg7
S'System.out'
p673
sg9
S'24288'
p674
sg11
S'\xe6\xbf\x80\xe6\xb4\xbb\n'
p675
sa(dp676
g2
S'24288'
p677
sg4
L1449732788189L
sg5
g230
sg7
S'System.out'
p678
sg9
S'24288'
p679
sg11
S'\xe6\xbf\x80\xe6\xb4\xbb\n'
p680
sa(dp681
g2
S'24288'
p682
sg4
L1449732788249L
sg5
g381
sg7
S'http    '
p683
sg9
S'24288'
p684
sg11
S'\xe8\xaf\xb7\xe6\xb1\x82\xe7\x9a\x84\xe5\x9c\xb0\xe5\x9d\x80\xef\xbc\x9ahttp://v.xdf.cn/videov.php?do=playerCode&playerType=CC&vid=48392\n'
p685
sa(dp686
g2
S'24288'
p687
sg4
L1449732788249L
sg5
g381
sg7
S'http    '
p688
sg9
S'24288'
p689
sg11
S'\xe8\xaf\xb7\xe6\xb1\x82\xe7\x9a\x84\xe5\x8f\x82\xe6\x95\xb0\xef\xbc\x9a\n'
p690
sa(dp691
g2
S'24288'
p692
sg4
L1449732788249L
sg5
g381
sg7
S'long    '
p693
sg9
S'24288'
p694
sg11
S'context.getClass().getName():com.xdf.ucan.ui.video.VideoPlayerActivity\n'
p695
sa(dp696
g2
S'24288'
p697
sg4
L1449732788309L
sg5
g230
sg7
S'System.out'
p698
sg9
S'24288'
p699
sg11
S'\xe6\xbf\x80\xe6\xb4\xbb\n'
p700
sa(dp701
g2
S'24288'
p702
sg4
L1449732788359L
sg5
g230
sg7
S'System.out'
p703
sg9
S'24288'
p704
sg11
S'\xe6\xbf\x80\xe6\xb4\xbb\n'
p705
sa(dp706
g2
S'24288'
p707
sg4
L1449732788399L
sg5
g230
sg7
S'System.out'
p708
sg9
S'24288'
p709
sg11
S'\xe6\xbf\x80\xe6\xb4\xbb\n'
p710
sa(dp711
g2
S'24288'
p712
sg4
L1449732788409L
sg5
g6
sg7
S'AsyncHttpRH'
p713
sg9
S'24288'
p714
sg11
S'Progress 87 from 1 (8700%)\n'
p715
sa(dp716
g2
S'24288'
p717
sg4
L1449732788419L
sg5
S'E'
p718
sg7
S'shareurl'
p719
sg9
S'24288'
p720
sg11
S'http://p.bokecc.com/qrplay.bo?uid=9623CE22237FB8F2&vid=ABA906683E2336439C33DC5901307461\n'
p721
sa(dp722
g2
S'24288'
p723
sg4
L1449732788419L
sg5
g230
sg7
S'Environment'
p724
sg9
S'24288'
p725
sg11
S'GetExternalStorageDirectory info:ApplicationInfo{41cbf688 com.xdf.ucan},packagename:com.xdf.ucan,UID:0\n'
p726
sa(dp727
g2
S'24288'
p728
sg4
L1449732788419L
sg5
g381
sg7
S'Environment'
p729
sg9
S'24288'
p730
sg11
S'Enviroment getExternalStorageState :/mnt/sdcard\n'
p731
sa(dp732
g2
S'24288'
p733
sg4
L1449732788419L
sg5
g230
sg7
S'Environment'
p734
sg9
S'24288'
p735
sg11
S'GetExternalStorageDirectory info:ApplicationInfo{41d7f330 com.xdf.ucan},packagename:com.xdf.ucan,UID:0\n'
p736
sa(dp737
g2
S'24288'
p738
sg4
L1449732788429L
sg5
g230
sg7
S'Environment'
p739
sg9
S'24288'
p740
sg11
S'GetExternalStorageDirectory info:ApplicationInfo{41cd8038 com.xdf.ucan},packagename:com.xdf.ucan,UID:0\n'
p741
sa(dp742
g2
S'24288'
p743
sg4
L1449732788429L
sg5
g381
sg7
S'Environment'
p744
sg9
S'24288'
p745
sg11
S'Enviroment getExternalStorageState :/mnt/sdcard\n'
p746
sa(dp747
g2
S'24288'
p748
sg4
L1449732788429L
sg5
g230
sg7
S'Environment'
p749
sg9
S'24288'
p750
sg11
S'GetExternalStorageDirectory info:ApplicationInfo{4200ca80 com.xdf.ucan},packagename:com.xdf.ucan,UID:0\n'
p751
sa(dp752
g2
S'24288'
p753
sg4
L1449732788509L
sg5
g230
sg7
S'System.out'
p754
sg9
S'24288'
p755
sg11
S'\xe6\xbf\x80\xe6\xb4\xbb\n'
p756
sa(dp757
g2
S'24288'
p758
sg4
L1449732788509L
sg5
g6
sg7
S'Activity'
p759
sg9
S'24288'
p760
sg11
S'onPause com.xdf.ucan.ui.video.VideoPlayerActivity@41eb5ac8\n'
p761
sa(dp762
g2
S'24288'
p763
sg4
L1449732788549L
sg5
g6
sg7
S'Activity'
p764
sg9
S'24288'
p765
sg11
S'onCreate com.mob.tools.MobUIShell@42318878: null\n'
p766
sa(dp767
g2
S'24288'
p768
sg4
L1449732788579L
sg5
g6
sg7
S'Activity'
p769
sg9
S'24288'
p770
sg11
S'onStart com.mob.tools.MobUIShell@42318878\n'
p771
sa(dp772
g2
S'24288'
p773
sg4
L1449732788589L
sg5
g6
sg7
S'Activity'
p774
sg9
S'24288'
p775
sg11
S'onResume com.mob.tools.MobUIShell@42318878\n'
p776
sa(dp777
g2
S'24288'
p778
sg4
L1449732789569L
sg5
g6
sg7
S'AudioManager'
p779
sg9
S'24288'
p780
sg11
S'AudioManager ctor mUseMasterVolume:false\n'
p781
sa(dp782
g2
S'24288'
p783
sg4
L1449732789579L
sg5
g230
sg7
S'Toast   '
p784
sg9
S'24288'
p785
sg11
S'the toast owner is: com.xdf.ucan\n'
p786
sa(dp787
g2
S'24288'
p788
sg4
L1449732789589L
sg5
g381
sg7
S'long    '
p789
sg9
S'24288'
p790
sg11
S'subscriptionName:\xe5\x88\x9d\xe4\xb8\xad\xe8\x8b\xb1\xe8\xaf\xad\xe9\x9d\x9e\xe5\xba\x94\xe8\xaf\x95\n'
p791
sa(dp792
g2
S'24288'
p793
sg4
L1449732789659L
sg5
g230
sg7
S'Environment'
p794
sg9
S'25273'
p795
sg11
S'GetExternalStorageDirectory info:ApplicationInfo{42401ba8 com.xdf.ucan},packagename:com.xdf.ucan,UID:0\n'
p796
sa(dp797
g2
S'24288'
p798
sg4
L1449732789659L
sg5
g381
sg7
S'Environment'
p799
sg9
S'25273'
p800
sg11
S'Enviroment getExternalStorageState :/mnt/sdcard\n'
p801
sa(dp802
g2
S'24288'
p803
sg4
L1449732789669L
sg5
g230
sg7
S'Environment'
p804
sg9
S'25273'
p805
sg11
S'GetExternalStorageDirectory info:ApplicationInfo{42402560 com.xdf.ucan},packagename:com.xdf.ucan,UID:0\n'
p806
sa(dp807
g2
S'24288'
p808
sg4
L1449732789809L
sg5
g230
sg7
S'Environment'
p809
sg9
S'25273'
p810
sg11
S'GetExternalStorageDirectory info:ApplicationInfo{42403788 com.xdf.ucan},packagename:com.xdf.ucan,UID:0\n'
p811
sa(dp812
g2
S'24288'
p813
sg4
L1449732789809L
sg5
g381
sg7
S'Environment'
p814
sg9
S'25273'
p815
sg11
S'Enviroment getExternalStorageState :/mnt/sdcard\n'
p816
sa(dp817
g2
S'24288'
p818
sg4
L1449732789809L
sg5
g230
sg7
S'Environment'
p819
sg9
S'25273'
p820
sg11
S'GetExternalStorageDirectory info:ApplicationInfo{42404140 com.xdf.ucan},packagename:com.xdf.ucan,UID:0\n'
p821
sa(dp822
g2
S'24288'
p823
sg4
L1449732789869L
sg5
g381
sg7
S'dalvikvm'
p824
sg9
S'25273'
p825
sg11
S'GC_FOR_ALLOC freed 3002K, 27% free 16513K/22407K, paused 53ms, total 53ms\n'
p826
sa(dp827
g2
S'24288'
p828
sg4
L1449732790149L
sg5
g6
sg7
S'Activity'
p829
sg9
S'24288'
p830
sg11
S'onPause com.mob.tools.MobUIShell@42318878\n'
p831
sa(dp832
g2
S'24288'
p833
sg4
L1449732790519L
sg5
g381
sg7
S'cn.edu.nju.ise.kikandroid'
p834
sg9
S'24356'
p835
sg11
S'Screenshot:1449732790532\n'
p836
sa(dp837
g2
S'24288'
p838
sg4
L1449732790549L
sg5
g230
sg7
S'Environment'
p839
sg9
S'25120'
p840
sg11
S'GetExternalStorageDirectory info:ApplicationInfo{423d0b30 com.xdf.ucan},packagename:com.xdf.ucan,UID:0\n'
p841
sa(dp842
g2
S'24288'
p843
sg4
L1449732790549L
sg5
g381
sg7
S'Environment'
p844
sg9
S'25120'
p845
sg11
S'Enviroment getExternalStorageState :/mnt/sdcard\n'
p846
sa(dp847
g2
S'24288'
p848
sg4
L1449732790549L
sg5
g230
sg7
S'Environment'
p849
sg9
S'25120'
p850
sg11
S'GetExternalStorageDirectory info:ApplicationInfo{42381cc8 com.xdf.ucan},packagename:com.xdf.ucan,UID:0\n'
p851
sa(dp852
g2
S'24288'
p853
sg4
L1449732790599L
sg5
g230
sg7
S'Environment'
p854
sg9
S'25120'
p855
sg11
S'GetExternalStorageDirectory info:ApplicationInfo{4236eaf0 com.xdf.ucan},packagename:com.xdf.ucan,UID:0\n'
p856
sa(dp857
g2
S'24288'
p858
sg4
L1449732790599L
sg5
g381
sg7
S'Environment'
p859
sg9
S'25120'
p860
sg11
S'Enviroment getExternalStorageState :/mnt/sdcard\n'
p861
sa(dp862
g2
S'24288'
p863
sg4
L1449732790599L
sg5
g230
sg7
S'Environment'
p864
sg9
S'25120'
p865
sg11
S'GetExternalStorageDirectory info:ApplicationInfo{42345ac0 com.xdf.ucan},packagename:com.xdf.ucan,UID:0\n'
p866
sa(dp867
g2
S'24288'
p868
sg4
L1449732790799L
sg5
g6
sg7
S'Activity'
p869
sg9
S'24288'
p870
sg11
S'onCreate com.xdf.ucan.wxapi.WXEntryActivity@423767d8: null\n'
p871
sa(dp872
g2
S'24288'
p873
sg4
L1449732790809L
sg5
g477
sg7
S'System.err'
p874
sg9
S'24288'
p875
sg11
S'java.lang.Throwable: {"req":"e","errCode":-6,"transaction":"webpage1449732789957"}\n'
p876
sa(dp877
g2
S'24288'
p878
sg4
L1449732790809L
sg5
g477
sg7
S'System.err'
p879
sg9
S'24288'
p880
sg11
S'\tat cn.sharesdk.wechat.utils.k.a(Unknown Source)\n'
p881
sa(dp882
g2
S'24288'
p883
sg4
L1449732790809L
sg5
g477
sg7
S'System.err'
p884
sg9
S'24288'
p885
sg11
S'\tat cn.sharesdk.wechat.utils.j.a(Unknown Source)\n'
p886
sa(dp887
g2
S'24288'
p888
sg4
L1449732790809L
sg5
g477
sg7
S'System.err'
p889
sg9
S'24288'
p890
sg11
S'\tat cn.sharesdk.wechat.utils.WechatHelper.a(Unknown Source)\n'
p891
sa(dp892
g2
S'24288'
p893
sg4
L1449732790809L
sg5
g477
sg7
S'System.err'
p894
sg9
S'24288'
p895
sg11
S'\tat cn.sharesdk.wechat.utils.WechatHandlerActivity.onCreate(Unknown Source)\n'
p896
sa(dp897
g2
S'24288'
p898
sg4
L1449732790809L
sg5
g477
sg7
S'System.err'
p899
sg9
S'24288'
p900
sg11
S'\tat android.app.Activity.performCreate(Activity.java:5051)\n'
p901
sa(dp902
g2
S'24288'
p903
sg4
L1449732790809L
sg5
g477
sg7
S'System.err'
p904
sg9
S'24288'
p905
sg11
S'\tat android.app.Instrumentation.callActivityOnCreate(Instrumentation.java:1101)\n'
p906
sa(dp907
g2
S'24288'
p908
sg4
L1449732790809L
sg5
g477
sg7
S'System.err'
p909
sg9
S'24288'
p910
sg11
S'\tat android.app.ActivityThread.performLaunchActivity(ActivityThread.java:2031)\n'
p911
sa(dp912
g2
S'24288'
p913
sg4
L1449732790809L
sg5
g477
sg7
S'System.err'
p914
sg9
S'24288'
p915
sg11
S'\tat android.app.ActivityThread.handleLaunchActivity(ActivityThread.java:2092)\n'
p916
sa(dp917
g2
S'24288'
p918
sg4
L1449732790809L
sg5
g477
sg7
S'System.err'
p919
sg9
S'24288'
p920
sg11
S'\tat android.app.ActivityThread.access$600(ActivityThread.java:133)\n'
p921
sa(dp922
g2
S'24288'
p923
sg4
L1449732790809L
sg5
g477
sg7
S'System.err'
p924
sg9
S'24288'
p925
sg11
S'\tat android.app.ActivityThread$H.handleMessage(ActivityThread.java:1203)\n'
p926
sa(dp927
g2
S'24288'
p928
sg4
L1449732790809L
sg5
g477
sg7
S'System.err'
p929
sg9
S'24288'
p930
sg11
S'\tat android.os.Handler.dispatchMessage(Handler.java:99)\n'
p931
sa(dp932
g2
S'24288'
p933
sg4
L1449732790809L
sg5
g477
sg7
S'System.err'
p934
sg9
S'24288'
p935
sg11
S'\tat android.os.Looper.loop(Looper.java:137)\n'
p936
sa(dp937
g2
S'24288'
p938
sg4
L1449732790809L
sg5
g477
sg7
S'System.err'
p939
sg9
S'24288'
p940
sg11
S'\tat android.app.ActivityThread.main(ActivityThread.java:4802)\n'
p941
sa(dp942
g2
S'24288'
p943
sg4
L1449732790809L
sg5
g477
sg7
S'System.err'
p944
sg9
S'24288'
p945
sg11
S'\tat java.lang.reflect.Method.invokeNative(Native Method)\n'
p946
sa(dp947
g2
S'24288'
p948
sg4
L1449732790809L
sg5
g477
sg7
S'System.err'
p949
sg9
S'24288'
p950
sg11
S'\tat java.lang.reflect.Method.invoke(Method.java:511)\n'
p951
sa(dp952
g2
S'24288'
p953
sg4
L1449732790809L
sg5
g477
sg7
S'System.err'
p954
sg9
S'24288'
p955
sg11
S'\tat com.android.internal.os.ZygoteInit$MethodAndArgsCaller.run(ZygoteInit.java:809)\n'
p956
sa(dp957
g2
S'24288'
p958
sg4
L1449732790809L
sg5
g477
sg7
S'System.err'
p959
sg9
S'24288'
p960
sg11
S'\tat com.android.internal.os.ZygoteInit.main(ZygoteInit.java:576)\n'
p961
sa(dp962
g2
S'24288'
p963
sg4
L1449732790809L
sg5
g477
sg7
S'System.err'
p964
sg9
S'24288'
p965
sg11
S'\tat dalvik.system.NativeStart.main(Native Method)\n'
p966
sa(dp967
g2
S'24288'
p968
sg4
L1449732790869L
sg5
g6
sg7
S'Activity'
p969
sg9
S'24288'
p970
sg11
S'onResume com.xdf.ucan.ui.video.VideoPlayerActivity@41eb5ac8\n'
p971
sa(dp972
g2
S'24288'
p973
sg4
L1449732790949L
sg5
g381
sg7
S'dalvikvm'
p974
sg9
S'24288'
p975
sg11
S'GC_FOR_ALLOC freed 1855K, 28% free 16331K/22407K, paused 52ms, total 52ms\n'
p976
sa(dp977
g2
S'24288'
p978
sg4
L1449732791019L
sg5
g381
sg7
S'dalvikvm'
p979
sg9
S'24290'
p980
sg11
S'GC_CONCURRENT freed 19K, 19% free 18360K/22407K, paused 14ms+8ms, total 71ms\n'
p981
sa(dp982
g2
S'24288'
p983
sg4
L1449732791019L
sg5
g381
sg7
S'dalvikvm'
p984
sg9
S'24288'
p985
sg11
S'WAIT_FOR_CONCURRENT_GC blocked 18ms\n'
p986
sa(dp987
g2
S'24288'
p988
sg4
L1449732791119L
sg5
g381
sg7
S'dalvikvm'
p989
sg9
S'24288'
p990
sg11
S'GC_FOR_ALLOC freed 143K, 19% free 18368K/22407K, paused 42ms, total 42ms\n'
p991
sa(dp992
g2
S'24288'
p993
sg4
L1449732791129L
sg5
g230
sg7
S'dalvikvm-heap'
p994
sg9
S'24288'
p995
sg11
S'Grow heap (frag case) to 22.310MB for 2073616-byte allocation\n'
p996
sa(dp997
g2
S'24288'
p998
sg4
L1449732791209L
sg5
g381
sg7
S'dalvikvm'
p999
sg9
S'24290'
p1000
sg11
S'GC_CONCURRENT freed 2092K, 25% free 18383K/24455K, paused 13ms+18ms, total 77ms\n'
p1001
sa(dp1002
g2
S'24288'
p1003
sg4
L1449732791249L
sg5
g6
sg7
S'Activity'
p1004
sg9
S'24288'
p1005
sg11
S'onStop com.mob.tools.MobUIShell@42318878\n'
p1006
sa(dp1007
g2
S'24288'
p1008
sg4
L1449732791259L
sg5
g6
sg7
S'Activity'
p1009
sg9
S'24288'
p1010
sg11
S'onDestroy com.mob.tools.MobUIShell@42318878\n'
p1011
sa(dp1012
g2
S'24288'
p1013
sg4
L1449732791269L
sg5
g6
sg7
S'Activity'
p1014
sg9
S'24288'
p1015
sg11
S'onDestroy com.xdf.ucan.wxapi.WXEntryActivity@423767d8\n'
p1016
sa(dp1017
g2
S'24288'
p1018
sg4
L1449732791279L
sg5
g230
sg7
S'System.out'
p1019
sg9
S'24288'
p1020
sg11
S'\xe6\xbf\x80\xe6\xb4\xbb\n'
p1021
sa(dp1022
g2
S'24288'
p1023
sg4
L1449732791609L
sg5
g230
sg7
S'Environment'
p1024
sg9
S'25120'
p1025
sg11
S'GetExternalStorageDirectory info:ApplicationInfo{422bc7d0 com.xdf.ucan},packagename:com.xdf.ucan,UID:0\n'
p1026
sa(dp1027
g2
S'24288'
p1028
sg4
L1449732791619L
sg5
g381
sg7
S'Environment'
p1029
sg9
S'25120'
p1030
sg11
S'Enviroment getExternalStorageState :/mnt/sdcard\n'
p1031
sa(dp1032
g2
S'24288'
p1033
sg4
L1449732791619L
sg5
g230
sg7
S'Environment'
p1034
sg9
S'25120'
p1035
sg11
S'GetExternalStorageDirectory info:ApplicationInfo{4228cf98 com.xdf.ucan},packagename:com.xdf.ucan,UID:0\n'
p1036
sa(dp1037
g2
S'24288'
p1038
sg4
L1449732791639L
sg5
g230
sg7
S'Environment'
p1039
sg9
S'25120'
p1040
sg11
S'GetExternalStorageDirectory info:ApplicationInfo{42262cc8 com.xdf.ucan},packagename:com.xdf.ucan,UID:0\n'
p1041
sa(dp1042
g2
S'24288'
p1043
sg4
L1449732791639L
sg5
g381
sg7
S'Environment'
p1044
sg9
S'25120'
p1045
sg11
S'Enviroment getExternalStorageState :/mnt/sdcard\n'
p1046
sa(dp1047
g2
S'24288'
p1048
sg4
L1449732791639L
sg5
g230
sg7
S'Environment'
p1049
sg9
S'25120'
p1050
sg11
S'GetExternalStorageDirectory info:ApplicationInfo{42007398 com.xdf.ucan},packagename:com.xdf.ucan,UID:0\n'
p1051
sa(dp1052
g2
S'24288'
p1053
sg4
L1449732791829L
sg5
g230
sg7
S'System.out'
p1054
sg9
S'24288'
p1055
sg11
S'\xe6\xbf\x80\xe6\xb4\xbb\n'
p1056
sa(dp1057
g2
S'24288'
p1058
sg4
L1449732792039L
sg5
g230
sg7
S'System.out'
p1059
sg9
S'24288'
p1060
sg11
S'\xe6\xbf\x80\xe6\xb4\xbb\n'
p1061
sa(dp1062
g2
S'24288'
p1063
sg4
L1449732792179L
sg5
g230
sg7
S'System.out'
p1064
sg9
S'24288'
p1065
sg11
S'\xe6\xbf\x80\xe6\xb4\xbb\n'
p1066
sa(dp1067
g2
S'24288'
p1068
sg4
L1449732792209L
sg5
g381
sg7
S'http    '
p1069
sg9
S'24288'
p1070
sg11
S'\xe8\xaf\xb7\xe6\xb1\x82\xe7\x9a\x84\xe5\x9c\xb0\xe5\x9d\x80\xef\xbc\x9ahttp://v.xdf.cn/videov.php?do=playerCode&playerType=CC&vid=48392\n'
p1071
sa(dp1072
g2
S'24288'
p1073
sg4
L1449732792209L
sg5
g381
sg7
S'http    '
p1074
sg9
S'24288'
p1075
sg11
S'\xe8\xaf\xb7\xe6\xb1\x82\xe7\x9a\x84\xe5\x8f\x82\xe6\x95\xb0\xef\xbc\x9a\n'
p1076
sa(dp1077
g2
S'24288'
p1078
sg4
L1449732792209L
sg5
g381
sg7
S'long    '
p1079
sg9
S'24288'
p1080
sg11
S'context.getClass().getName():com.xdf.ucan.ui.video.VideoPlayerActivity\n'
p1081
sa(dp1082
g2
S'24288'
p1083
sg4
L1449732792259L
sg5
g230
sg7
S'System.out'
p1084
sg9
S'24288'
p1085
sg11
S'\xe6\xbf\x80\xe6\xb4\xbb\n'
p1086
sa(dp1087
g2
S'24288'
p1088
sg4
L1449732792299L
sg5
g6
sg7
S'AsyncHttpRH'
p1089
sg9
S'24288'
p1090
sg11
S'Progress 87 from 1 (8700%)\n'
p1091
sa(dp1092
g2
S'24288'
p1093
sg4
L1449732792299L
sg5
g718
sg7
S'shareurl'
p1094
sg9
S'24288'
p1095
sg11
S'http://p.bokecc.com/qrplay.bo?uid=9623CE22237FB8F2&vid=ABA906683E2336439C33DC5901307461\n'
p1096
sa(dp1097
g2
S'24288'
p1098
sg4
L1449732792309L
sg5
g230
sg7
S'Environment'
p1099
sg9
S'24288'
p1100
sg11
S'GetExternalStorageDirectory info:ApplicationInfo{41cd2228 com.xdf.ucan},packagename:com.xdf.ucan,UID:0\n'
p1101
sa(dp1102
g2
S'24288'
p1103
sg4
L1449732792309L
sg5
g381
sg7
S'Environment'
p1104
sg9
S'24288'
p1105
sg11
S'Enviroment getExternalStorageState :/mnt/sdcard\n'
p1106
sa(dp1107
g2
S'24288'
p1108
sg4
L1449732792309L
sg5
g230
sg7
S'Environment'
p1109
sg9
S'24288'
p1110
sg11
S'GetExternalStorageDirectory info:ApplicationInfo{42337630 com.xdf.ucan},packagename:com.xdf.ucan,UID:0\n'
p1111
sa(dp1112
g2
S'24288'
p1113
sg4
L1449732792309L
sg5
g230
sg7
S'Environment'
p1114
sg9
S'24288'
p1115
sg11
S'GetExternalStorageDirectory info:ApplicationInfo{42003ab8 com.xdf.ucan},packagename:com.xdf.ucan,UID:0\n'
p1116
sa(dp1117
g2
S'24288'
p1118
sg4
L1449732792309L
sg5
g230
sg7
S'Environment'
p1119
sg9
S'24288'
p1120
sg11
S'GetExternalStorageDirectory info:ApplicationInfo{41d8f3e8 com.xdf.ucan},packagename:com.xdf.ucan,UID:0\n'
p1121
sa(dp1122
g2
S'24288'
p1123
sg4
L1449732792339L
sg5
g230
sg7
S'System.out'
p1124
sg9
S'24288'
p1125
sg11
S'\xe6\xbf\x80\xe6\xb4\xbb\n'
p1126
sa(dp1127
g2
S'24288'
p1128
sg4
L1449732792429L
sg5
g230
sg7
S'System.out'
p1129
sg9
S'24288'
p1130
sg11
S'\xe6\xbf\x80\xe6\xb4\xbb\n'
p1131
sa(dp1132
g2
S'24288'
p1133
sg4
L1449732792429L
sg5
g6
sg7
S'Activity'
p1134
sg9
S'24288'
p1135
sg11
S'onPause com.xdf.ucan.ui.video.VideoPlayerActivity@41eb5ac8\n'
p1136
sa(dp1137
g2
S'24288'
p1138
sg4
L1449732792479L
sg5
g6
sg7
S'Activity'
p1139
sg9
S'24288'
p1140
sg11
S'onCreate com.mob.tools.MobUIShell@41cc6388: null\n'
p1141
sa(dp1142
g2
S'24288'
p1143
sg4
L1449732792499L
sg5
g6
sg7
S'Activity'
p1144
sg9
S'24288'
p1145
sg11
S'onStart com.mob.tools.MobUIShell@41cc6388\n'
p1146
sa(dp1147
g2
S'24288'
p1148
sg4
L1449732792499L
sg5
g6
sg7
S'Activity'
p1149
sg9
S'24288'
p1150
sg11
S'onResume com.mob.tools.MobUIShell@41cc6388\n'
p1151
sa(dp1152
g2
S'24288'
p1153
sg4
L1449732793269L
sg5
g6
sg7
S'AudioManager'
p1154
sg9
S'24288'
p1155
sg11
S'AudioManager ctor mUseMasterVolume:false\n'
p1156
sa(dp1157
g2
S'24288'
p1158
sg4
L1449732793269L
sg5
g230
sg7
S'Toast   '
p1159
sg9
S'24288'
p1160
sg11
S'the toast owner is: com.xdf.ucan\n'
p1161
sa(dp1162
g2
S'24288'
p1163
sg4
L1449732793479L
sg5
g6
sg7
S'Activity'
p1164
sg9
S'24288'
p1165
sg11
S'onPause com.mob.tools.MobUIShell@41cc6388\n'
p1166
sa(dp1167
g2
S'24288'
p1168
sg4
L1449732793509L
sg5
g230
sg7
S'Environment'
p1169
sg9
S'25327'
p1170
sg11
S'GetExternalStorageDirectory info:ApplicationInfo{4222ff50 com.xdf.ucan},packagename:com.xdf.ucan,UID:0\n'
p1171
sa(dp1172
g2
S'24288'
p1173
sg4
L1449732793509L
sg5
g381
sg7
S'Environment'
p1174
sg9
S'25327'
p1175
sg11
S'Enviroment getExternalStorageState :/mnt/sdcard\n'
p1176
sa(dp1177
g2
S'24288'
p1178
sg4
L1449732793509L
sg5
g230
sg7
S'Environment'
p1179
sg9
S'25327'
p1180
sg11
S'GetExternalStorageDirectory info:ApplicationInfo{41df4b30 com.xdf.ucan},packagename:com.xdf.ucan,UID:0\n'
p1181
sa(dp1182
g2
S'24288'
p1183
sg4
L1449732793509L
sg5
g6
sg7
S'Activity'
p1184
sg9
S'24288'
p1185
sg11
S'onCreate com.mob.tools.MobUIShell@41cc25f0: null\n'
p1186
sa(dp1187
g2
S'24288'
p1188
sg4
L1449732793509L
sg5
g6
sg7
S'Activity'
p1189
sg9
S'24288'
p1190
sg11
S'onStart com.mob.tools.MobUIShell@41cc25f0\n'
p1191
sa(dp1192
g2
S'24288'
p1193
sg4
L1449732793519L
sg5
g6
sg7
S'Activity'
p1194
sg9
S'24288'
p1195
sg11
S'onResume com.mob.tools.MobUIShell@41cc25f0\n'
p1196
sa(dp1197
g2
S'24288'
p1198
sg4
L1449732793629L
sg5
g6
sg7
S'Activity'
p1199
sg9
S'24288'
p1200
sg11
S'onStop com.mob.tools.MobUIShell@41cc6388\n'
p1201
sa(dp1202
g2
S'24288'
p1203
sg4
L1449732793629L
sg5
g6
sg7
S'Activity'
p1204
sg9
S'24288'
p1205
sg11
S'onDestroy com.mob.tools.MobUIShell@41cc6388\n'
p1206
sa(dp1207
g2
S'24288'
p1208
sg4
L1449732793659L
sg5
g230
sg7
S'Environment'
p1209
sg9
S'25327'
p1210
sg11
S'GetExternalStorageDirectory info:ApplicationInfo{42319430 com.xdf.ucan},packagename:com.xdf.ucan,UID:0\n'
p1211
sa(dp1212
g2
S'24288'
p1213
sg4
L1449732793659L
sg5
g381
sg7
S'Environment'
p1214
sg9
S'25327'
p1215
sg11
S'Enviroment getExternalStorageState :/mnt/sdcard\n'
p1216
sa(dp1217
g2
S'24288'
p1218
sg4
L1449732793659L
sg5
g230
sg7
S'Environment'
p1219
sg9
S'25327'
p1220
sg11
S'GetExternalStorageDirectory info:ApplicationInfo{423ffe28 com.xdf.ucan},packagename:com.xdf.ucan,UID:0\n'
p1221
sa(dp1222
g2
S'24288'
p1223
sg4
L1449732793909L
sg5
g6
sg7
S'Activity'
p1224
sg9
S'24288'
p1225
sg11
S'onPause com.mob.tools.MobUIShell@41cc25f0\n'
p1226
sa(dp1227
g2
S'24288'
p1228
sg4
L1449732793959L
sg5
g6
sg7
S'Activity'
p1229
sg9
S'24288'
p1230
sg11
S'onStop com.xdf.ucan.ui.video.VideoPlayerActivity@41eb5ac8\n'
p1231
sa(dp1232
g2
S'24288'
p1233
sg4
L1449732793979L
sg5
g381
sg7
S'MediaPlayer'
p1234
sg9
S'24288'
p1235
sg11
S'reset\n'
p1236
sa(dp1237
g2
S'24288'
p1238
sg4
L1449732794049L
sg5
g381
sg7
S'MediaPlayer'
p1239
sg9
S'24288'
p1240
sg11
S'setListener\n'
p1241
sa(dp1242
g2
S'24288'
p1243
sg4
L1449732794049L
sg5
g381
sg7
S'MediaPlayer'
p1244
sg9
S'24288'
p1245
sg11
S'disconnect\n'
p1246
sa(dp1247
g2
S'24288'
p1248
sg4
L1449732794049L
sg5
g230
sg7
S'SurfaceView'
p1249
sg9
S'24288'
p1250
sg11
S'>>>>>>>>>>>>call performDeferredDestroy in surfaceview1\n'
p1251
sa(dp1252
g2
S'24288'
p1253
sg4
L1449732794049L
sg5
g230
sg7
S'SurfaceView'
p1254
sg9
S'24288'
p1255
sg11
S'>>>>>>>>>>>>call performDeferredDestroy in surfaceview2\n'
p1256
sa(dp1257
g2
S'24288'
p1258
sg4
L1449732794049L
sg5
g381
sg7
S'MediaPlayer'
p1259
sg9
S'24299'
p1260
sg11
S'destructor\n'
p1261
sa(dp1262
g2
S'24288'
p1263
sg4
L1449732794049L
sg5
g381
sg7
S'MediaPlayer'
p1264
sg9
S'24299'
p1265
sg11
S'disconnect\n'
p1266
sa(dp1267
g2
S'24288'
p1268
sg4
L1449732794609L
sg5
g6
sg7
S'Activity'
p1269
sg9
S'24288'
p1270
sg11
S'onStop com.mob.tools.MobUIShell@41cc25f0\n'
p1271
sa(dp1272
g2
S'24288'
p1273
sg4
L1449732794659L
sg5
g230
sg7
S'Environment'
p1274
sg9
S'25120'
p1275
sg11
S'GetExternalStorageDirectory info:ApplicationInfo{41cb3628 com.xdf.ucan},packagename:com.xdf.ucan,UID:0\n'
p1276
sa(dp1277
g2
S'24288'
p1278
sg4
L1449732794659L
sg5
g381
sg7
S'Environment'
p1279
sg9
S'25120'
p1280
sg11
S'Enviroment getExternalStorageState :/mnt/sdcard\n'
p1281
sa(dp1282
g2
S'24288'
p1283
sg4
L1449732794659L
sg5
g230
sg7
S'Environment'
p1284
sg9
S'25120'
p1285
sg11
S'GetExternalStorageDirectory info:ApplicationInfo{42415128 com.xdf.ucan},packagename:com.xdf.ucan,UID:0\n'
p1286
sa(dp1287
g2
S'24288'
p1288
sg4
L1449732794669L
sg5
g230
sg7
S'Environment'
p1289
sg9
S'25120'
p1290
sg11
S'GetExternalStorageDirectory info:ApplicationInfo{41cc5298 com.xdf.ucan},packagename:com.xdf.ucan,UID:0\n'
p1291
sa(dp1292
g2
S'24288'
p1293
sg4
L1449732794669L
sg5
g381
sg7
S'Environment'
p1294
sg9
S'25120'
p1295
sg11
S'Enviroment getExternalStorageState :/mnt/sdcard\n'
p1296
sa(dp1297
g2
S'24288'
p1298
sg4
L1449732794669L
sg5
g230
sg7
S'Environment'
p1299
sg9
S'25120'
p1300
sg11
S'GetExternalStorageDirectory info:ApplicationInfo{41cc5c00 com.xdf.ucan},packagename:com.xdf.ucan,UID:0\n'
p1301
sa(dp1302
g2
S'24288'
p1303
sg4
L1449732820579L
sg5
g381
sg7
S'cn.edu.nju.ise.kikandroid'
p1304
sg9
S'24356'
p1305
sg11
S'Screenshot:1449732820587\n'
p1306
sa(dp1307
g2
S'24288'
p1308
sg4
L1449732821589L
sg5
g6
sg7
S'Activity'
p1309
sg9
S'24288'
p1310
sg11
S'onStart com.xdf.ucan.ui.video.VideoPlayerActivity@41eb5ac8\n'
p1311
sa(dp1312
g2
S'24288'
p1313
sg4
L1449732821609L
sg5
g477
sg7
S'SurfaceView'
p1314
sg9
S'24288'
p1315
sg11
S'mSurface.isValid() is true\n'
p1316
sa(dp1317
g2
S'24288'
p1318
sg4
L1449732821609L
sg5
g477
sg7
S'SurfaceView'
p1319
sg9
S'24288'
p1320
sg11
S'enter the mSurface\n'
p1321
sa(dp1322
g2
S'24288'
p1323
sg4
L1449732821609L
sg5
g381
sg7
S'MediaPlayer'
p1324
sg9
S'24288'
p1325
sg11
S'constructor\n'
p1326
sa(dp1327
g2
S'24288'
p1328
sg4
L1449732821609L
sg5
g381
sg7
S'MediaPlayer'
p1329
sg9
S'24288'
p1330
sg11
S'setListener\n'
p1331
sa(dp1332
g2
S'24288'
p1333
sg4
L1449732821609L
sg5
g381
sg7
S'MediaPlayer'
p1334
sg9
S'24288'
p1335
sg11
S'setVideoSurfaceTexture\n'
p1336
sa(dp1337
g2
S'24288'
p1338
sg4
L1449732821609L
sg5
g381
sg7
S'MediaPlayer'
p1339
sg9
S'24288'
p1340
sg11
S'MediaPlayer::setAudioStreamType\n'
p1341
sa(dp1342
g2
S'24288'
p1343
sg4
L1449732821639L
sg5
g477
sg7
S'SurfaceView'
p1344
sg9
S'24288'
p1345
sg11
S'mSurface.isValid() is true\n'
p1346
sa(dp1347
g2
S'24288'
p1348
sg4
L1449732821639L
sg5
g6
sg7
S'Activity'
p1349
sg9
S'24288'
p1350
sg11
S'onResume com.xdf.ucan.ui.video.VideoPlayerActivity@41eb5ac8\n'
p1351
sa(dp1352
g2
S'24288'
p1353
sg4
L1449732821649L
sg5
g477
sg7
S'SurfaceView'
p1354
sg9
S'24288'
p1355
sg11
S'mSurface.isValid() is true\n'
p1356
sa(dp1357
g2
S'24288'
p1358
sg4
L1449732821719L
sg5
g230
sg7
S'http response code'
p1359
sg9
S'25556'
p1360
sg11
S'200\n'
p1361
sa(dp1362
g2
S'24288'
p1363
sg4
L1449732821749L
sg5
g381
sg7
S'dalvikvm'
p1364
sg9
S'24290'
p1365
sg11
S'GC_CONCURRENT freed 3827K, 33% free 16603K/24455K, paused 14ms+6ms, total 72ms\n'
p1366
sa(dp1367
g2
S'24288'
p1368
sg4
L1449732821749L
sg5
g381
sg7
S'dalvikvm'
p1369
sg9
S'25556'
p1370
sg11
S'WAIT_FOR_CONCURRENT_GC blocked 23ms\n'
p1371
sa(dp1372
g2
S'24288'
p1373
sg4
L1449732821749L
sg5
g381
sg7
S'dalvikvm'
p1374
sg9
S'24288'
p1375
sg11
S'WAIT_FOR_CONCURRENT_GC blocked 25ms\n'
p1376
sa(dp1377
g2
S'24288'
p1378
sg4
L1449732821799L
sg5
g230
sg7
S'System.out'
p1379
sg9
S'24288'
p1380
sg11
S'\xe6\xbf\x80\xe6\xb4\xbb\n'
p1381
sa(dp1382
g2
S'24288'
p1383
sg4
L1449732821809L
sg5
g477
sg7
S'SurfaceView'
p1384
sg9
S'24288'
p1385
sg11
S'mSurface.isValid() is true\n'
p1386
sa(dp1387
g2
S'24288'
p1388
sg4
L1449732821829L
sg5
g6
sg7
S'Activity'
p1389
sg9
S'24288'
p1390
sg11
S'onDestroy com.mob.tools.MobUIShell@41cc25f0\n'
p1391
sa(dp1392
g2
S'24288'
p1393
sg4
L1449732821839L
sg5
g230
sg7
S'http response code'
p1394
sg9
S'25556'
p1395
sg11
S'200\n'
p1396
sa(dp1397
g2
S'24288'
p1398
sg4
L1449732821839L
sg5
g718
sg7
S'MediaPlayer'
p1399
sg9
S'25556'
p1400
sg11
S'Uri is  http://bm1.43.play.bokecc.com/flvs/ca/QxF1V/uNZ0cpa8xG-10.mp4?t=1449740004&key=AB3164E5D8D4387176B936AA9FA78310\n'
p1401
sa(dp1402
g2
S'24288'
p1403
sg4
L1449732821839L
sg5
g381
sg7
S'MediaPlayer'
p1404
sg9
S'25556'
p1405
sg11
S"Couldn't open file on client side, trying server side\n"
p1406
sa(dp1407
g2
S'24288'
p1408
sg4
L1449732821839L
sg5
g718
sg7
S'MediaPlayer'
p1409
sg9
S'25556'
p1410
sg11
S'setDataSource path, headers, path: http://bm1.43.play.bokecc.com/flvs/ca/QxF1V/uNZ0cpa8xG-10.mp4?t=1449740004&key=AB3164E5D8D4387176B936AA9FA78310\n'
p1411
sa(dp1412
g2
S'24288'
p1413
sg4
L1449732821839L
sg5
g381
sg7
S'MediaPlayer'
p1414
sg9
S'25556'
p1415
sg11
S'setDataSource(http://bm1.43.play.bokecc.com/flvs/ca/QxF1V/uNZ0cpa8xG-10.mp4?t=1449740004&key=AB3164E5D8D4387176B936AA9FA78310)\n'
p1416
sa(dp1417
g2
S'24288'
p1418
sg4
L1449732821849L
sg5
g381
sg7
S'MediaPlayer'
p1419
sg9
S'25556'
p1420
sg11
S'setVideoSurfaceTexture\n'
p1421
sa(dp1422
g2
S'24288'
p1423
sg4
L1449732821849L
sg5
g381
sg7
S'MediaPlayer'
p1424
sg9
S'25556'
p1425
sg11
S'prepareAsync\n'
p1426
sa(dp1427
g2
S'24288'
p1428
sg4
L1449732821999L
sg5
g230
sg7
S'System.out'
p1429
sg9
S'24288'
p1430
sg11
S'\xe6\xbf\x80\xe6\xb4\xbb\n'
p1431
sa(dp1432
g2
S'24288'
p1433
sg4
L1449732822139L
sg5
g230
sg7
S'System.out'
p1434
sg9
S'24288'
p1435
sg11
S'\xe6\xbf\x80\xe6\xb4\xbb\n'
p1436
sa(dp1437
g2
S'24288'
p1438
sg4
L1449732822209L
sg5
g381
sg7
S'dalvikvm'
p1439
sg9
S'24288'
p1440
sg11
S'GC_FOR_ALLOC freed 559K, 33% free 16408K/24455K, paused 66ms, total 66ms\n'
p1441
sa(dp1442
g2
S'24288'
p1443
sg4
L1449732822309L
sg5
g381
sg7
S'dalvikvm'
p1444
sg9
S'24290'
p1445
sg11
S'GC_CONCURRENT freed 195K, 26% free 18261K/24455K, paused 6ms+11ms, total 89ms\n'
p1446
sa(dp1447
g2
S'24288'
p1448
sg4
L1449732822309L
sg5
g381
sg7
S'dalvikvm'
p1449
sg9
S'24288'
p1450
sg11
S'WAIT_FOR_CONCURRENT_GC blocked 26ms\n'
p1451
sa(dp1452
g2
S'24288'
p1453
sg4
L1449732822479L
sg5
g381
sg7
S'dalvikvm'
p1454
sg9
S'24288'
p1455
sg11
S'GC_FOR_ALLOC freed 168K, 26% free 18239K/24455K, paused 50ms, total 52ms\n'
p1456
sa(dp1457
g2
S'24288'
p1458
sg4
L1449732822549L
sg5
g381
sg7
S'dalvikvm'
p1459
sg9
S'24290'
p1460
sg11
S'GC_CONCURRENT freed 2040K, 26% free 18230K/24455K, paused 13ms+4ms, total 59ms\n'
p1461
sa(dp1462
g2
S'24288'
p1463
sg4
L1449732822629L
sg5
g230
sg7
S'System.out'
p1464
sg9
S'24288'
p1465
sg11
S'\xe6\xbf\x80\xe6\xb4\xbb\n'
p1466
sa(dp1467
g2
S'24288'
p1468
sg4
L1449732822799L
sg5
g230
sg7
S'Environment'
p1469
sg9
S'25120'
p1470
sg11
S'GetExternalStorageDirectory info:ApplicationInfo{42405d38 com.xdf.ucan},packagename:com.xdf.ucan,UID:0\n'
p1471
sa(dp1472
g2
S'24288'
p1473
sg4
L1449732822799L
sg5
g381
sg7
S'Environment'
p1474
sg9
S'25120'
p1475
sg11
S'Enviroment getExternalStorageState :/mnt/sdcard\n'
p1476
sa(dp1477
g2
S'24288'
p1478
sg4
L1449732822809L
sg5
g230
sg7
S'Environment'
p1479
sg9
S'25120'
p1480
sg11
S'GetExternalStorageDirectory info:ApplicationInfo{423c9b40 com.xdf.ucan},packagename:com.xdf.ucan,UID:0\n'
p1481
sa(dp1482
g2
S'24288'
p1483
sg4
L1449732822819L
sg5
g230
sg7
S'Environment'
p1484
sg9
S'25120'
p1485
sg11
S'GetExternalStorageDirectory info:ApplicationInfo{4237add0 com.xdf.ucan},packagename:com.xdf.ucan,UID:0\n'
p1486
sa(dp1487
g2
S'24288'
p1488
sg4
L1449732822819L
sg5
g381
sg7
S'Environment'
p1489
sg9
S'25120'
p1490
sg11
S'Enviroment getExternalStorageState :/mnt/sdcard\n'
p1491
sa(dp1492
g2
S'24288'
p1493
sg4
L1449732822819L
sg5
g230
sg7
S'Environment'
p1494
sg9
S'25120'
p1495
sg11
S'GetExternalStorageDirectory info:ApplicationInfo{4236eaf0 com.xdf.ucan},packagename:com.xdf.ucan,UID:0\n'
p1496
sa(dp1497
g2
S'24288'
p1498
sg4
L1449732823149L
sg5
g230
sg7
S'System.out'
p1499
sg9
S'24288'
p1500
sg11
S'\xe6\xbf\x80\xe6\xb4\xbb\n'
p1501
sa(dp1502
g2
S'24288'
p1503
sg4
L1449732823189L
sg5
g230
sg7
S'System.out'
p1504
sg9
S'24288'
p1505
sg11
S'\xe6\xbf\x80\xe6\xb4\xbb\n'
p1506
sa(dp1507
g2
S'24288'
p1508
sg4
L1449732823329L
sg5
g230
sg7
S'System.out'
p1509
sg9
S'24288'
p1510
sg11
S'\xe6\xbf\x80\xe6\xb4\xbb\n'
p1511
sa(dp1512
g2
S'24288'
p1513
sg4
L1449732823399L
sg5
g230
sg7
S'System.out'
p1514
sg9
S'24288'
p1515
sg11
S'\xe6\xbf\x80\xe6\xb4\xbb\n'
p1516
sa(dp1517
g2
S'24288'
p1518
sg4
L1449732823469L
sg5
g230
sg7
S'System.out'
p1519
sg9
S'24288'
p1520
sg11
S'\xe6\xbf\x80\xe6\xb4\xbb\n'
p1521
sa(dp1522
g2
S'24288'
p1523
sg4
L1449732823499L
sg5
g381
sg7
S'MediaPlayer'
p1524
sg9
S'24300'
p1525
sg11
S'New video size 512 x 288\n'
p1526
sa(dp1527
g2
S'24288'
p1528
sg4
L1449732823499L
sg5
g381
sg7
S'MediaPlayer'
p1529
sg9
S'24300'
p1530
sg11
S'prepared\n'
p1531
sa(dp1532
g2
S'24288'
p1533
sg4
L1449732823499L
sg5
g381
sg7
S'MediaPlayer'
p1534
sg9
S'24288'
p1535
sg11
S'start() mUri is http://bm1.43.play.bokecc.com/flvs/ca/QxF1V/uNZ0cpa8xG-10.mp4?t=1449740004&key=AB3164E5D8D4387176B936AA9FA78310\n'
p1536
sa(dp1537
g2
S'24288'
p1538
sg4
L1449732823509L
sg5
g381
sg7
S'MediaPlayer'
p1539
sg9
S'24288'
p1540
sg11
S'start\n'
p1541
sa(dp1542
g2
S'24288'
p1543
sg4
L1449732823509L
sg5
g718
sg7
S'VideoPlayerActivity.timeVoid(L:2257)'
p1544
sg9
S'24288'
p1545
sg11
S'176169\xe6\x97\xb6\xe9\x97\xb4s\n'
p1546
sa(dp1547
g2
S'24288'
p1548
sg4
L1449732823519L
sg5
g718
sg7
S'VideoPlayerActivity.setVideoType(L:1537)'
p1549
sg9
S'24288'
p1550
sg11
S'\xe8\xbf\x99\xe6\x98\xaf\xe4\xbb\x80\xe4\xb9\x88\xe5\xb9\xb3\n'
p1551
sa(dp1552
g2
S'24288'
p1553
sg4
L1449732823519L
sg5
g381
sg7
S'MediaPlayer'
p1554
sg9
S'24288'
p1555
sg11
S'start() mUri is http://bm1.43.play.bokecc.com/flvs/ca/QxF1V/uNZ0cpa8xG-10.mp4?t=1449740004&key=AB3164E5D8D4387176B936AA9FA78310\n'
p1556
sa(dp1557
g2
S'24288'
p1558
sg4
L1449732823519L
sg5
g381
sg7
S'MediaPlayer'
p1559
sg9
S'24288'
p1560
sg11
S'start\n'
p1561
sa(dp1562
g2
S'24288'
p1563
sg4
L1449732824239L
sg5
g230
sg7
S'System.out'
p1564
sg9
S'24288'
p1565
sg11
S'\xe6\xbf\x80\xe6\xb4\xbb\n'
p1566
sa(dp1567
g2
S'24288'
p1568
sg4
L1449732824519L
sg5
g230
sg7
S'System.out'
p1569
sg9
S'24288'
p1570
sg11
S'\xe6\xbf\x80\xe6\xb4\xbb\n'
p1571
sa(dp1572
g2
S'24288'
p1573
sg4
L1449732824589L
sg5
g230
sg7
S'System.out'
p1574
sg9
S'24288'
p1575
sg11
S'\xe6\xbf\x80\xe6\xb4\xbb\n'
p1576
sa(dp1577
g2
S'24288'
p1578
sg4
L1449732824659L
sg5
g230
sg7
S'System.out'
p1579
sg9
S'24288'
p1580
sg11
S'\xe6\xbf\x80\xe6\xb4\xbb\n'
p1581
sa(dp1582
g2
S'24288'
p1583
sg4
L1449732824729L
sg5
g230
sg7
S'System.out'
p1584
sg9
S'24288'
p1585
sg11
S'\xe6\xbf\x80\xe6\xb4\xbb\n'
p1586
sa(dp1587
g2
S'24288'
p1588
sg4
L1449732824799L
sg5
g230
sg7
S'System.out'
p1589
sg9
S'24288'
p1590
sg11
S'\xe6\xbf\x80\xe6\xb4\xbb\n'
p1591
sa(dp1592
g2
S'24288'
p1593
sg4
L1449732824939L
sg5
g230
sg7
S'System.out'
p1594
sg9
S'24288'
p1595
sg11
S'\xe6\xbf\x80\xe6\xb4\xbb\n'
p1596
sa(dp1597
g2
S'24288'
p1598
sg4
L1449732825079L
sg5
g230
sg7
S'System.out'
p1599
sg9
S'24288'
p1600
sg11
S'\xe6\xbf\x80\xe6\xb4\xbb\n'
p1601
sa(dp1602
g2
S'24288'
p1603
sg4
L1449732825149L
sg5
g230
sg7
S'System.out'
p1604
sg9
S'24288'
p1605
sg11
S'\xe6\xbf\x80\xe6\xb4\xbb\n'
p1606
sa(dp1607
g2
S'24288'
p1608
sg4
L1449732825429L
sg5
g230
sg7
S'System.out'
p1609
sg9
S'24288'
p1610
sg11
S'\xe6\xbf\x80\xe6\xb4\xbb\n'
p1611
sa(dp1612
g2
S'24288'
p1613
sg4
L1449732825579L
sg5
g230
sg7
S'System.out'
p1614
sg9
S'24288'
p1615
sg11
S'\xe6\xbf\x80\xe6\xb4\xbb\n'
p1616
sa(dp1617
g2
S'24288'
p1618
sg4
L1449732825999L
sg5
g230
sg7
S'System.out'
p1619
sg9
S'24288'
p1620
sg11
S'\xe6\xbf\x80\xe6\xb4\xbb\n'
p1621
sa(dp1622
g2
S'24288'
p1623
sg4
L1449732826069L
sg5
g230
sg7
S'System.out'
p1624
sg9
S'24288'
p1625
sg11
S'\xe6\xbf\x80\xe6\xb4\xbb\n'
p1626
sa(dp1627
g2
S'24288'
p1628
sg4
L1449732826139L
sg5
g230
sg7
S'System.out'
p1629
sg9
S'24288'
p1630
sg11
S'\xe6\xbf\x80\xe6\xb4\xbb\n'
p1631
sa(dp1632
g2
S'24288'
p1633
sg4
L1449732826209L
sg5
g230
sg7
S'System.out'
p1634
sg9
S'24288'
p1635
sg11
S'\xe6\xbf\x80\xe6\xb4\xbb\n'
p1636
sa(dp1637
g2
S'24288'
p1638
sg4
L1449732826279L
sg5
g230
sg7
S'System.out'
p1639
sg9
S'24288'
p1640
sg11
S'\xe6\xbf\x80\xe6\xb4\xbb\n'
p1641
sa(dp1642
g2
S'24288'
p1643
sg4
L1449732826349L
sg5
g230
sg7
S'System.out'
p1644
sg9
S'24288'
p1645
sg11
S'\xe6\xbf\x80\xe6\xb4\xbb\n'
p1646
sa(dp1647
g2
S'24288'
p1648
sg4
L1449732826419L
sg5
g230
sg7
S'System.out'
p1649
sg9
S'24288'
p1650
sg11
S'\xe6\xbf\x80\xe6\xb4\xbb\n'
p1651
sa(dp1652
g2
S'24288'
p1653
sg4
L1449732826519L
sg5
g230
sg7
S'System.out'
p1654
sg9
S'24288'
p1655
sg11
S'\xe6\xbf\x80\xe6\xb4\xbb\n'
p1656
sa(dp1657
g2
S'24288'
p1658
sg4
L1449732826839L
sg5
g230
sg7
S'System.out'
p1659
sg9
S'24288'
p1660
sg11
S'\xe6\xbf\x80\xe6\xb4\xbb\n'
p1661
sa(dp1662
g2
S'24288'
p1663
sg4
L1449732826979L
sg5
g230
sg7
S'System.out'
p1664
sg9
S'24288'
p1665
sg11
S'\xe6\xbf\x80\xe6\xb4\xbb\n'
p1666
sa(dp1667
g2
S'24288'
p1668
sg4
L1449732827049L
sg5
g230
sg7
S'System.out'
p1669
sg9
S'24288'
p1670
sg11
S'\xe6\xbf\x80\xe6\xb4\xbb\n'
p1671
sa(dp1672
g2
S'24288'
p1673
sg4
L1449732827149L
sg5
g230
sg7
S'System.out'
p1674
sg9
S'24288'
p1675
sg11
S'\xe6\xbf\x80\xe6\xb4\xbb\n'
p1676
sa(dp1677
g2
S'24288'
p1678
sg4
L1449732827149L
sg5
g6
sg7
S'Activity'
p1679
sg9
S'24288'
p1680
sg11
S'onPause com.xdf.ucan.ui.video.VideoPlayerActivity@41eb5ac8\n'
p1681
sa(dp1682
g2
S'24288'
p1683
sg4
L1449732827179L
sg5
g6
sg7
S'Activity'
p1684
sg9
S'24288'
p1685
sg11
S'onStart com.xdf.ucan.ui.video.VideoListActivity@422bfd20\n'
p1686
sa(dp1687
g2
S'24288'
p1688
sg4
L1449732827179L
sg5
g6
sg7
S'Activity'
p1689
sg9
S'24288'
p1690
sg11
S'onResume com.xdf.ucan.ui.video.VideoListActivity@422bfd20\n'
p1691
sa(dp1692
g2
S'24288'
p1693
sg4
L1449732827319L
sg5
g381
sg7
S'MediaPlayer'
p1694
sg9
S'24288'
p1695
sg11
S'reset\n'
p1696
sa(dp1697
g2
S'24288'
p1698
sg4
L1449732827359L
sg5
g381
sg7
S'MediaPlayer'
p1699
sg9
S'24288'
p1700
sg11
S'setListener\n'
p1701
sa(dp1702
g2
S'24288'
p1703
sg4
L1449732827359L
sg5
g381
sg7
S'MediaPlayer'
p1704
sg9
S'24288'
p1705
sg11
S'disconnect\n'
p1706
sa(dp1707
g2
S'24288'
p1708
sg4
L1449732827369L
sg5
g230
sg7
S'SurfaceView'
p1709
sg9
S'24288'
p1710
sg11
S'>>>>>>>>>>>>call performDeferredDestroy in surfaceview1\n'
p1711
sa(dp1712
g2
S'24288'
p1713
sg4
L1449732827369L
sg5
g381
sg7
S'MediaPlayer'
p1714
sg9
S'24448'
p1715
sg11
S'destructor\n'
p1716
sa(dp1717
g2
S'24288'
p1718
sg4
L1449732827369L
sg5
g381
sg7
S'MediaPlayer'
p1719
sg9
S'24448'
p1720
sg11
S'disconnect\n'
p1721
sa(dp1722
g2
S'24288'
p1723
sg4
L1449732827369L
sg5
g230
sg7
S'SurfaceView'
p1724
sg9
S'24288'
p1725
sg11
S'>>>>>>>>>>>>call performDeferredDestroy in surfaceview2\n'
p1726
sa(dp1727
g2
S'24288'
p1728
sg4
L1449732827609L
sg5
g6
sg7
S'Activity'
p1729
sg9
S'24288'
p1730
sg11
S'onStop com.xdf.ucan.ui.video.VideoPlayerActivity@41eb5ac8\n'
p1731
sa(dp1732
g2
S'24288'
p1733
sg4
L1449732827619L
sg5
g381
sg7
S'long    '
p1734
sg9
S'24288'
p1735
sg11
S'cancle request\xef\xbc\x9acom.xdf.ucan.ui.video.VideoPlayerActivity\n'
p1736
sa(dp1737
g2
S'24288'
p1738
sg4
L1449732827619L
sg5
g6
sg7
S'Activity'
p1739
sg9
S'24288'
p1740
sg11
S'onDestroy com.xdf.ucan.ui.video.VideoPlayerActivity@41eb5ac8\n'
p1741
sa(dp1742
g2
S'24288'
p1743
sg4
L1449732828009L
sg5
g6
sg7
S'Activity'
p1744
sg9
S'24288'
p1745
sg11
S'onPause com.xdf.ucan.ui.video.VideoListActivity@422bfd20\n'
p1746
sa(dp1747
g2
S'24288'
p1748
sg4
L1449732828049L
sg5
g381
sg7
S'long    '
p1749
sg9
S'24288'
p1750
sg11
S'onRestart\n'
p1751
sa(dp1752
g2
S'24288'
p1753
sg4
L1449732828049L
sg5
g381
sg7
S'http    '
p1754
sg9
S'24288'
p1755
sg11
S'\xe8\xaf\xb7\xe6\xb1\x82\xe7\x9a\x84\xe5\x9c\xb0\xe5\x9d\x80\xef\xbc\x9ahttp://ims.xdf.cn/imserver/appversion/getversion.do\n'
p1756
sa(dp1757
g2
S'24288'
p1758
sg4
L1449732828049L
sg5
g381
sg7
S'http    '
p1759
sg9
S'24288'
p1760
sg11
S'\xe8\xaf\xb7\xe6\xb1\x82\xe7\x9a\x84\xe5\x8f\x82\xe6\x95\xb0\xef\xbc\x9aappCode=upoc_student&osType=2&appVersionResultType=1\n'
p1761
sa(dp1762
g2
S'24288'
p1763
sg4
L1449732828049L
sg5
g381
sg7
S'long    '
p1764
sg9
S'24288'
p1765
sg11
S'context.getClass().getName():com.xdf.ucan.MainActivity\n'
p1766
sa(dp1767
g2
S'24288'
p1768
sg4
L1449732828049L
sg5
g6
sg7
S'Activity'
p1769
sg9
S'24288'
p1770
sg11
S'onStart com.xdf.ucan.MainActivity@423325b0\n'
p1771
sa(dp1772
g2
S'24288'
p1773
sg4
L1449732828049L
sg5
g6
sg7
S'Activity'
p1774
sg9
S'24288'
p1775
sg11
S'onResume com.xdf.ucan.MainActivity@423325b0\n'
p1776
sa(dp1777
g2
S'24288'
p1778
sg4
L1449732828539L
sg5
g381
sg7
S'long    '
p1779
sg9
S'24288'
p1780
sg11
S'cancle request\xef\xbc\x9acom.xdf.ucan.ui.video.VideoListActivity\n'
p1781
sa(dp1782
g2
S'24288'
p1783
sg4
L1449732828539L
sg5
g6
sg7
S'Activity'
p1784
sg9
S'24288'
p1785
sg11
S'onStop com.xdf.ucan.ui.video.VideoListActivity@422bfd20\n'
p1786
sa(dp1787
g2
S'24288'
p1788
sg4
L1449732828539L
sg5
g6
sg7
S'Activity'
p1789
sg9
S'24288'
p1790
sg11
S'onDestroy com.xdf.ucan.ui.video.VideoListActivity@422bfd20\n'
p1791
sa(dp1792
g2
S'24288'
p1793
sg4
L1449732830299L
sg5
g381
sg7
S'cn.edu.nju.ise.kikandroid'
p1794
sg9
S'24356'
p1795
sg11
S'Log:1449732830309\n'
p1796
sa(dp1797
g2
S'24288'
p1798
sg4
L1449732830329L
sg5
g381
sg7
S'cn.edu.nju.ise.kikandroid'
p1799
sg9
S'24356'
p1800
sg11
S'Screenshot:1449732830339\n'
p1801
sa(dp1802
g2
S'24288'
p1803
sg4
L1449732830399L
sg5
g381
sg7
S'dalvikvm'
p1804
sg9
S'24288'
p1805
sg11
S'GC_FOR_ALLOC freed 3567K, 34% free 16223K/24455K, paused 41ms, total 41ms\n'
p1806
sa(dp1807
g2
S'24288'
p1808
sg4
L1449732830469L
sg5
g381
sg7
S'dalvikvm'
p1809
sg9
S'24290'
p1810
sg11
S'GC_CONCURRENT freed 103K, 26% free 18145K/24455K, paused 12ms+6ms, total 55ms\n'
p1811
sa(dp1812
g2
S'24288'
p1813
sg4
L1449732830529L
sg5
g381
sg7
S'dalvikvm'
p1814
sg9
S'24290'
p1815
sg11
S'GC_CONCURRENT freed 2026K, 26% free 18149K/24455K, paused 5ms+16ms, total 51ms\n'
p1816
sa(dp1817
g2
S'24288'
p1818
sg4
L1449732830589L
sg5
g477
sg7
S'dalvikvm'
p1819
sg9
S'24356'
p1820
sg11
S'threadid=29: thread exiting with uncaught exception (group=0x4121b588)\n'
p1821
sa(dp1822
g2
S'24288'
p1823
sg4
L1449732830589L
sg5
S'F'
p1824
sg7
S'MobUncaughtExceptionHandler'
p1825
sg9
S'24356'
p1826
sg11
S'null\njava.lang.NullPointerException\n\tat android.app.Instrumentation.finish(Instrumentation.java:191)\n\tat cn.edu.nju.ise.kikandroid.AUTInstrument.quitInstr(AUTInstrument.java:195)\n\tat cn.edu.nju.ise.kikandroid.AUTInstrument.startServer(AUTInstrument.java:161)\n\tat cn.edu.nju.ise.kikandroid.AUTInstrument$1.run(AUTInstrument.java:107)\n\tat java.lang.Thread.run(Thread.java:856)\n'
p1827
sa(dp1828
g2
S'24288'
p1829
sg4
L1449732830589L
sg5
g230
sg7
S'System.out'
p1830
sg9
S'25111'
p1831
sg11
S'type: value, col: 2\n'
p1832
sa(dp1833
g2
S'24288'
p1834
sg4
L1449732830589L
sg5
g230
sg7
S'System.out'
p1835
sg9
S'25111'
p1836
sg11
S'type: value, col: 1\n'
p1837
sa(dp1838
g2
S'24288'
p1839
sg4
L1449732830619L
sg5
g230
sg7
S'Environment'
p1840
sg9
S'25111'
p1841
sg11
S'GetExternalStorageDirectory info:ApplicationInfo{4226c300 com.xdf.ucan},packagename:com.xdf.ucan,UID:0\n'
p1842
sa(dp1843
g2
S'24288'
p1844
sg4
L1449732830619L
sg5
g381
sg7
S'Environment'
p1845
sg9
S'25111'
p1846
sg11
S'Enviroment getExternalStorageState :/mnt/sdcard\n'
p1847
sa(dp1848
g2
S'24288'
p1849
sg4
L1449732830629L
sg5
g230
sg7
S'Environment'
p1850
sg9
S'25111'
p1851
sg11
S'GetExternalStorageDirectory info:ApplicationInfo{42033130 com.xdf.ucan},packagename:com.xdf.ucan,UID:0\n'
p1852
sa(dp1853
g2
S'24288'
p1854
sg4
L1449732837409L
sg5
g6
sg7
S'Activity'
p1855
sg9
S'24288'
p1856
sg11
S'onPause com.xdf.ucan.MainActivity@423325b0\n'
p1857
sa(dp1858
g2
S'24288'
p1859
sg4
L1449732837499L
sg5
g230
sg7
S'Environment'
p1860
sg9
S'25120'
p1861
sg11
S'GetExternalStorageDirectory info:ApplicationInfo{42023670 com.xdf.ucan},packagename:com.xdf.ucan,UID:0\n'
p1862
sa(dp1863
g2
S'24288'
p1864
sg4
L1449732837499L
sg5
g381
sg7
S'Environment'
p1865
sg9
S'25120'
p1866
sg11
S'Enviroment getExternalStorageState :/mnt/sdcard\n'
p1867
sa(dp1868
g2
S'24288'
p1869
sg4
L1449732837499L
sg5
g230
sg7
S'Environment'
p1870
sg9
S'25120'
p1871
sg11
S'GetExternalStorageDirectory info:ApplicationInfo{41de3dc8 com.xdf.ucan},packagename:com.xdf.ucan,UID:0\n'
p1872
sa(dp1873
g2
S'24288'
p1874
sg4
L1449732837519L
sg5
g230
sg7
S'Environment'
p1875
sg9
S'25120'
p1876
sg11
S'GetExternalStorageDirectory info:ApplicationInfo{41d8b7f8 com.xdf.ucan},packagename:com.xdf.ucan,UID:0\n'
p1877
sa(dp1878
g2
S'24288'
p1879
sg4
L1449732837519L
sg5
g381
sg7
S'Environment'
p1880
sg9
S'25120'
p1881
sg11
S'Enviroment getExternalStorageState :/mnt/sdcard\n'
p1882
sa(dp1883
g2
S'24288'
p1884
sg4
L1449732837519L
sg5
g230
sg7
S'Environment'
p1885
sg9
S'25120'
p1886
sg11
S'GetExternalStorageDirectory info:ApplicationInfo{41d69f28 com.xdf.ucan},packagename:com.xdf.ucan,UID:0\n'
p1887
sa(dp1888
g2
S'24288'
p1889
sg4
L1449732837999L
sg5
g6
sg7
S'Activity'
p1890
sg9
S'24288'
p1891
sg11
S'onStop com.xdf.ucan.MainActivity@423325b0\n'
p1892
sa(dp1893
g2
S'24288'
p1894
sg4
L1449732840709L
sg5
g230
sg7
S'Process '
p1895
sg9
S'25111'
p1896
sg11
S'Sending signal. PID: 24288 SIG: 9\n'
p1897
sa(dp1898
g2
S'24311'
p1899
sg4
L1449732840759L
sg5
g381
sg7
S'RongService'
p1900
sg9
S'24311'
p1901
sg11
S'onUnbind, pid=24311\n'
p1902
sa(dp1903
g2
S'24311'
p1904
sg4
L1449732840759L
sg5
g381
sg7
S'RongService'
p1905
sg9
S'24311'
p1906
sg11
S'onDestroy, pid=24311\n'
p1907
sa(dp1908
g2
S'24311'
p1909
sg4
L1449732840759L
sg5
g230
sg7
S'Process '
p1910
sg9
S'24311'
p1911
sg11
S'Sending signal. PID: 24311 SIG: 9\n'
p1912
sa(dp1913
g2
S'25914'
p1914
sg4
L1449732867619L
sg5
g718
sg7
S'Trace   '
p1915
sg9
S'25914'
p1916
sg11
S'error opening trace file: No such file or directory (2)\n'
p1917
sa(dp1918
g2
S'25914'
p1919
sg4
L1449732867719L
sg5
g381
sg7
S'dalvikvm'
p1920
sg9
S'25916'
p1921
sg11
S'GC_CONCURRENT freed 152K, 6% free 9883K/10439K, paused 12ms+4ms, total 37ms\n'
p1922
sa(dp1923
g2
S'25914'
p1924
sg4
L1449732867719L
sg5
g381
sg7
S'dalvikvm'
p1925
sg9
S'25914'
p1926
sg11
S'WAIT_FOR_CONCURRENT_GC blocked 7ms\n'
p1927
sa(dp1928
g2
S'25914'
p1929
sg4
L1449732867749L
sg5
g381
sg7
S'long    '
p1930
sg9
S'25914'
p1931
sg11
S'\xe8\xbf\x9e\xe6\x8e\xa5\xe7\x9a\x84\xe6\x95\xb0\xe6\x8d\xae\xe5\xba\x93\xe6\x98\xaf\xef\xbc\x9axdf004483206.db\n'
p1932
sa(dp1933
g2
S'25914'
p1934
sg4
L1449732867749L
sg5
g230
sg7
S'Environment'
p1935
sg9
S'25914'
p1936
sg11
S'GetExternalStorageDirectory info:ApplicationInfo{41c4f940 com.xdf.ucan},packagename:com.xdf.ucan,UID:0\n'
p1937
sa(dp1938
g2
S'25914'
p1939
sg4
L1449732867749L
sg5
g381
sg7
S'Environment'
p1940
sg9
S'25914'
p1941
sg11
S'Enviroment getExternalStorageState :/mnt/sdcard\n'
p1942
sa(dp1943
g2
S'25914'
p1944
sg4
L1449732867749L
sg5
g230
sg7
S'Environment'
p1945
sg9
S'25914'
p1946
sg11
S'GetExternalStorageDirectory info:ApplicationInfo{41c507a8 com.xdf.ucan},packagename:com.xdf.ucan,UID:0\n'
p1947
sa(dp1948
g2
S'25914'
p1949
sg4
L1449732867759L
sg5
g230
sg7
S'Environment'
p1950
sg9
S'25914'
p1951
sg11
S'GetExternalStorageDirectory info:ApplicationInfo{41c51110 com.xdf.ucan},packagename:com.xdf.ucan,UID:0\n'
p1952
sa(dp1953
g2
S'25914'
p1954
sg4
L1449732867759L
sg5
g381
sg7
S'ImageLoader'
p1955
sg9
S'25914'
p1956
sg11
S'Initialize ImageLoader with configuration\n'
p1957
sa(dp1958
g2
S'25914'
p1959
sg4
L1449732867769L
sg5
g381
sg7
S'long    '
p1960
sg9
S'25914'
p1961
sg11
S'getCurProcessName:io.rong.push\n'
p1962
sa(dp1963
g2
S'25914'
p1964
sg4
L1449732867789L
sg5
g381
sg7
S'##IPC_com.xdf.ucan.BaseApplication:RongIMClient : init'
p1965
sg9
S'25914'
p1966
sg11
S'process = io.rong.push\n'
p1967
sa(dp1968
g2
S'25914'
p1969
sg4
L1449732867809L
sg5
g381
sg7
S'##COMMON_io.rong.push.PushContext:PushContext'
p1970
sg9
S'25914'
p1971
sg11
S'init\n'
p1972
sa(dp1973
g2
S'25914'
p1974
sg4
L1449732867829L
sg5
g381
sg7
S'dalvikvm'
p1975
sg9
S'25916'
p1976
sg11
S'GC_CONCURRENT freed 273K, 7% free 10028K/10759K, paused 2ms+2ms, total 23ms\n'
p1977
sa(dp1978
g2
S'25914'
p1979
sg4
L1449732867869L
sg5
g230
sg7
S'##COMMON_io.rong.push.PushContext:sendConnectCommand'
p1980
sg9
S'25914'
p1981
sg11
S'700\n'
p1982
sa(dp1983
g2
S'25914'
p1984
sg4
L1449732867879L
sg5
g230
sg7
S'##COMMON_io.rong.push.PushReceiver:Action'
p1985
sg9
S'25914'
p1986
sg11
S'io.rong.push.HeartBeat\n'
p1987
sa(dp1988
g2
S'25914'
p1989
sg4
L1449732867879L
sg5
g230
sg7
S'##COMMON_io.rong.push.PushReceiver:ACTION_HEARTBEAT'
p1990
sg9
S'25914'
p1991
sg11
S'Receive heartbeat action.\n'
p1992
sa(dp1993
g2
S'25914'
p1994
sg4
L1449732867889L
sg5
g381
sg7
S'PowerManager'
p1995
sg9
S'25914'
p1996
sg11
S'wake:com.xdf.ucan/io.rong.push.PushService [acquire]\n'
p1997
sa(dp1998
g2
S'25914'
p1999
sg4
L1449732867889L
sg5
g6
sg7
S'PowerManager'
p2000
sg9
S'25914'
p2001
sg11
S'acquire(long)/mToken = android.os.Binder@41bbe6b8 timeout = 60000\n'
p2002
sa(dp2003
g2
S'25914'
p2004
sg4
L1449732867889L
sg5
g6
sg7
S'PowerManager'
p2005
sg9
S'25914'
p2006
sg11
S'acquireLocked/mFlags = 1 mToken = android.os.Binder@41bbe6b8 mTag = wake:com.xdf.ucan/io.rong.push.PushService mWorkSource = null\n'
p2007
sa(dp2008
g2
S'25914'
p2009
sg4
L1449732867889L
sg5
g6
sg7
S'PowerManager'
p2010
sg9
S'25914'
p2011
sg11
S'acquireLocked/mRefCounted = false mCount = 0\n'
p2012
sa(dp2013
g2
S'25914'
p2014
sg4
L1449732867899L
sg5
g230
sg7
S'##COMMON_java.lang.Class:PushService'
p2015
sg9
S'25914'
p2016
sg11
S'PushService OnCreate\n'
p2017
sa(dp2018
g2
S'25914'
p2019
sg4
L1449732867899L
sg5
g230
sg7
S'PushService'
p2020
sg9
S'25914'
p2021
sg11
S'PushService OnCreate\n'
p2022
sa(dp2023
g2
S'25914'
p2024
sg4
L1449732867909L
sg5
g230
sg7
S'##COMMON_io.rong.push.PushService.PushHandler:PushHandler'
p2025
sg9
S'25934'
p2026
sg11
S'ConnectToServer,isClientConnected = false\n'
p2027
sa(dp2028
g2
S'25914'
p2029
sg4
L1449732867919L
sg5
g230
sg7
S'##COMMON_io.rong.push.PushService:DeviceId'
p2030
sg9
S'25934'
p2031
sg11
S'99000456361498\n'
p2032
sa(dp2033
g2
S'25914'
p2034
sg4
L1449732867929L
sg5
g230
sg7
S'##COMMON_io.rong.push.PushService.PushHandler:PushHandler'
p2035
sg9
S'25934'
p2036
sg11
S'the saved IP = 119.254.111.18:8611\n'
p2037
sa(dp2038
g2
S'25914'
p2039
sg4
L1449732867929L
sg5
g230
sg7
S'PushHandler'
p2040
sg9
S'25934'
p2041
sg11
S'the saved time = 1449727358522current time = 1449732867940\n'
p2042
sa(dp2043
g2
S'25914'
p2044
sg4
L1449732867929L
sg5
g230
sg7
S'##COMMON_io.rong.push.PushService.PushHandler:PushHandler'
p2045
sg9
S'25934'
p2046
sg11
S'ConnectToServer,use the saved IP, IP = 119.254.111.18:8611\n'
p2047
sa(dp2048
g2
S'25914'
p2049
sg4
L1449732867929L
sg5
g230
sg7
S'##COMMON_io.rong.push.PushService:getPhoneInformation.'
p2050
sg9
S'25934'
p2051
sg11
S'the phone information is:YuLong|Coolpad 5891|16|WIFI|46003\n'
p2052
sa(dp2053
g2
S'25914'
p2054
sg4
L1449732867939L
sg5
g230
sg7
S'##COMMON_io.rong.push.PushClient:connect'
p2055
sg9
S'25934'
p2056
sg11
S'phone info:YuLong|Coolpad 5891|16|WIFI|46003 push version:2.6\n'
p2057
sa(dp2058
g2
S'25914'
p2059
sg4
L1449732867939L
sg5
g230
sg7
S'##COMMON_io.rong.push.PushClient:connect'
p2060
sg9
S'25934'
p2061
sg11
S'the socket is established\n'
p2062
sa(dp2063
g2
S'25914'
p2064
sg4
L1449732868179L
sg5
g230
sg7
S'##COMMON_io.rong.push.PushClient:Handler'
p2065
sg9
S'25937'
p2066
sg11
S'CONNACK\n'
p2067
sa(dp2068
g2
S'25914'
p2069
sg4
L1449732868179L
sg5
g230
sg7
S'PushService'
p2070
sg9
S'25937'
p2071
sg11
S'The client connect status is:CONNACK\n'
p2072
sa(dp2073
g2
S'25914'
p2074
sg4
L1449732868179L
sg5
g230
sg7
S'##COMMON_io.rong.push.PushService:Connect'
p2075
sg9
S'25937'
p2076
sg11
S'Client connect successfully.So start the heart beat.\n'
p2077
sa(dp2078
g2
S'25914'
p2079
sg4
L1449732868179L
sg5
g230
sg7
S'##COMMON_io.rong.push.PushContext:Heartbeat'
p2080
sg9
S'25937'
p2081
sg11
S'start_next\n'
p2082
sa(dp2083
g2
S'25914'
p2084
sg4
L1449732868179L
sg5
g381
sg7
S'PowerManager'
p2085
sg9
S'25934'
p2086
sg11
S'wake:com.xdf.ucan/io.rong.push.PushService [release]\n'
p2087
sa(dp2088
g2
S'25914'
p2089
sg4
L1449732868179L
sg5
g6
sg7
S'PowerManager'
p2090
sg9
S'25934'
p2091
sg11
S'release/flags = 0 mToken = android.os.Binder@41bbe6b8 mTag = wake:com.xdf.ucan/io.rong.push.PushService mWorkSource = null\n'
p2092
sa(dp2093
g2
S'25914'
p2094
sg4
L1449732868179L
sg5
g6
sg7
S'PowerManager'
p2095
sg9
S'25934'
p2096
sg11
S'release/mRefCounted = false mCount = 0\n'
p2097
sa(dp2098
g2
S'25914'
p2099
sg4
L1449732868569L
sg5
g230
sg7
S'##COMMON_io.rong.push.PushReceiver:Action'
p2100
sg9
S'25914'
p2101
sg11
S'io.rong.push.Connect\n'
p2102
sa(dp2103
g2
S'25914'
p2104
sg4
L1449732868589L
sg5
g381
sg7
S'PowerManager'
p2105
sg9
S'25914'
p2106
sg11
S'wake:com.xdf.ucan/io.rong.push.PushService [acquire]\n'
p2107
sa(dp2108
g2
S'25914'
p2109
sg4
L1449732868589L
sg5
g230
sg7
S'##COMMON_io.rong.push.PushReceiver:ACTION_CONNECT'
p2110
sg9
S'25914'
p2111
sg11
S'version is null, run connect\n'
p2112
sa(dp2113
g2
S'25914'
p2114
sg4
L1449732868589L
sg5
g6
sg7
S'PowerManager'
p2115
sg9
S'25914'
p2116
sg11
S'acquire(long)/mToken = android.os.Binder@41c44348 timeout = 60000\n'
p2117
sa(dp2118
g2
S'25914'
p2119
sg4
L1449732868589L
sg5
g6
sg7
S'PowerManager'
p2120
sg9
S'25914'
p2121
sg11
S'acquireLocked/mFlags = 1 mToken = android.os.Binder@41c44348 mTag = wake:com.xdf.ucan/io.rong.push.PushService mWorkSource = null\n'
p2122
sa(dp2123
g2
S'25914'
p2124
sg4
L1449732868589L
sg5
g6
sg7
S'PowerManager'
p2125
sg9
S'25914'
p2126
sg11
S'acquireLocked/mRefCounted = false mCount = 0\n'
p2127
sa(dp2128
g2
S'25914'
p2129
sg4
L1449732868599L
sg5
g230
sg7
S'##COMMON_io.rong.push.PushService:CONNECT_CHECK'
p2130
sg9
S'25934'
p2131
sg11
S'getRunningPushServiceVersion null\n'
p2132
sa(dp2133
g2
S'25914'
p2134
sg4
L1449732868599L
sg5
g230
sg7
S'##COMMON_io.rong.push.PushService.PushHandler:PushHandler'
p2135
sg9
S'25934'
p2136
sg11
S'ConnectToServer,isClientConnected = true\n'
p2137
sa(dp2138
g2
S'25914'
p2139
sg4
L1449732928649L
sg5
g381
sg7
S'PowerManager'
p2140
sg9
S'25914'
p2141
sg11
S'wake:com.xdf.ucan/io.rong.push.PushService [release]\n'
p2142
sa(dp2143
g2
S'25914'
p2144
sg4
L1449732928649L
sg5
g6
sg7
S'PowerManager'
p2145
sg9
S'25914'
p2146
sg11
S'release/flags = 0 mToken = android.os.Binder@41c44348 mTag = wake:com.xdf.ucan/io.rong.push.PushService mWorkSource = null\n'
p2147
sa(dp2148
g2
S'25914'
p2149
sg4
L1449732928649L
sg5
g6
sg7
S'PowerManager'
p2150
sg9
S'25914'
p2151
sg11
S'release/mRefCounted = false mCount = 0\n'
p2152
sa.