(lp0
(dp1
S'EventTime'
p2
S'116222782'
p3
sS'SyscTime'
p4
L1449731911435L
sS'recordCount'
p5
S'0'
p6
sS'EventType'
p7
S'TYPE_WINDOW_STATE_CHANGED'
p8
sS'PackageName'
p9
S'com.xdf.ucan'
p10
sS'OutBounds'
p11
S'Rect(0, 0 - 720, 1184)'
p12
sS'Action'
p13
S'[ ClassName: com.xdf.ucan.ui.login.StartActivity; Text: [\xe4\xbc\x98\xe6\x92\xad\xe8\xaf\xbe]; ContentDescription: null; ItemCount: -1; CurrentItemIndex: -1; IsEnabled: true; IsPassword: false; IsChecked: false; IsFullScreen: true; Scrollable: false; BeforeText: null; FromIndex: -1; ToIndex: -1; ScrollX: -1; ScrollY: -1; MaxScrollX: -1; MaxScrollY: -1; AddedCount: -1; RemovedCount: -1; ParcelableData: null ]'
p14
sS'MovementGranularity'
p15
g6
sa(dp16
S'EventTime'
p17
S'116222924'
p18
sg4
L1449731911626L
sS'recordCount'
p19
g6
sS'EventType'
p20
S'TYPE_WINDOW_CONTENT_CHANGED'
p21
sS'PackageName'
p22
S'com.xdf.ucan'
p23
sS'OutBounds'
p24
S'Rect(0, 0 - 720, 1184)'
p25
sS'Action'
p26
S'[ ClassName: android.widget.FrameLayout; Text: []; ContentDescription: null; ItemCount: -1; CurrentItemIndex: -1; IsEnabled: true; IsPassword: false; IsChecked: false; IsFullScreen: false; Scrollable: false; BeforeText: null; FromIndex: -1; ToIndex: -1; ScrollX: -1; ScrollY: -1; MaxScrollX: -1; MaxScrollY: -1; AddedCount: -1; RemovedCount: -1; ParcelableData: null ]'
p27
sS'MovementGranularity'
p28
g6
sa(dp29
S'EventTime'
p30
S'116223733'
p31
sg4
L1449731912403L
sS'recordCount'
p32
g6
sS'EventType'
p33
S'TYPE_WINDOW_STATE_CHANGED'
p34
sS'PackageName'
p35
S'com.xdf.ucan'
p36
sS'OutBounds'
p37
S'Rect(0, 0 - 720, 1184)'
p38
sS'Action'
p39
S'[ ClassName: com.xdf.ucan.MainActivity; Text: [\xe4\xbc\x98\xe6\x92\xad\xe8\xaf\xbe]; ContentDescription: null; ItemCount: -1; CurrentItemIndex: -1; IsEnabled: true; IsPassword: false; IsChecked: false; IsFullScreen: true; Scrollable: false; BeforeText: null; FromIndex: -1; ToIndex: -1; ScrollX: -1; ScrollY: -1; MaxScrollX: -1; MaxScrollY: -1; AddedCount: -1; RemovedCount: -1; ParcelableData: null ]'
p40
sS'MovementGranularity'
p41
g6
sa(dp42
S'EventTime'
p43
S'116223895'
p44
sg4
L1449731912502L
sS'recordCount'
p45
g6
sS'EventType'
p46
S'TYPE_WINDOW_CONTENT_CHANGED'
p47
sS'PackageName'
p48
S'com.xdf.ucan'
p49
sS'OutBounds'
p50
S'Rect(115, 472 - 499, 506)'
p51
sS'Action'
p52
S'[ ClassName: android.widget.TextView; Text: []; ContentDescription: null; ItemCount: -1; CurrentItemIndex: -1; IsEnabled: true; IsPassword: false; IsChecked: false; IsFullScreen: false; Scrollable: false; BeforeText: null; FromIndex: -1; ToIndex: -1; ScrollX: -1; ScrollY: -1; MaxScrollX: -1; MaxScrollY: -1; AddedCount: -1; RemovedCount: -1; ParcelableData: null ]'
p53
sS'MovementGranularity'
p54
g6
sa(dp55
S'EventTime'
p56
S'116226738'
p57
sg4
L1449731915342L
sS'recordCount'
p58
g6
sS'EventType'
p59
S'TYPE_VIEW_CLICKED'
p60
sS'PackageName'
p61
S'com.xdf.ucan'
p62
sS'OutBounds'
p63
S'Rect(0, 266 - 720, 394)'
p64
sS'Action'
p65
S'[ ClassName: android.widget.RelativeLayout; Text: [\xe8\xb5\x84\xe6\x96\x99, 16\xe5\xb0\x8f\xe6\x97\xb6\xe5\x89\x8d, \xe5\x85\x89\xe5\xad\x90\xe9\xbc\xbb\xe4\xb8\x8e\xe5\x88\x86\xe5\xad\x90\xe6\x9d\x90\xe6\x96\x99\xe7\xa0\x94\xe7\xa9\xb6\xe5\x9b\xa2\xe9\x98\x9f\xe5\x9c\xa8\xe6\x96\xb0\xe5\x9e\x8b\xe8\x9b\x8b\xe7\x99\xbd\xe8\xb4\xa8\xe5\x9f\xba\xe7\x95\x8c\xe9\x9d\xa2\xe6\x9d\x90\xe6\x96\x99\xe9\xa2\x86\xe5\x9f\x9f\xe5\x8f\x96\xe5\xbe\x97\xe9\x87\x8d\xe8\xa6\x81\xe8\xbf\x9b\xe5\xb1\x95]; ContentDescription: null; ItemCount: -1; CurrentItemIndex: -1; IsEnabled: true; IsPassword: false; IsChecked: false; IsFullScreen: false; Scrollable: false; BeforeText: null; FromIndex: -1; ToIndex: -1; ScrollX: -1; ScrollY: -1; MaxScrollX: -1; MaxScrollY: -1; AddedCount: -1; RemovedCount: -1; ParcelableData: null ]'
p66
sS'MovementGranularity'
p67
g6
sa(dp68
S'EventTime'
p69
S'116227142'
p70
sg4
L1449731915798L
sS'recordCount'
p71
g6
sS'EventType'
p72
S'TYPE_WINDOW_STATE_CHANGED'
p73
sS'PackageName'
p74
S'com.xdf.ucan'
p75
sS'OutBounds'
p76
S'Rect(40, 50 - 680, 1184)'
p77
sS'Action'
p78
S'[ ClassName: com.xdf.ucan.views.LoadingDialog; Text: []; ContentDescription: null; ItemCount: -1; CurrentItemIndex: -1; IsEnabled: true; IsPassword: false; IsChecked: false; IsFullScreen: false; Scrollable: false; BeforeText: null; FromIndex: -1; ToIndex: -1; ScrollX: -1; ScrollY: -1; MaxScrollX: -1; MaxScrollY: -1; AddedCount: -1; RemovedCount: -1; ParcelableData: null ]'
p79
sS'MovementGranularity'
p80
g6
sa(dp81
S'EventTime'
p82
S'116227207'
p83
sg4
L1449731915847L
sS'recordCount'
p84
g6
sS'EventType'
p85
S'TYPE_WINDOW_CONTENT_CHANGED'
p86
sS'PackageName'
p87
S'com.xdf.ucan'
p88
sS'OutBounds'
p89
S'Rect(40, 50 - 160, 130)'
p90
sS'Action'
p91
S'[ ClassName: android.widget.Button; Text: []; ContentDescription: null; ItemCount: -1; CurrentItemIndex: -1; IsEnabled: true; IsPassword: false; IsChecked: false; IsFullScreen: false; Scrollable: false; BeforeText: null; FromIndex: -1; ToIndex: -1; ScrollX: -1; ScrollY: -1; MaxScrollX: -1; MaxScrollY: -1; AddedCount: -1; RemovedCount: -1; ParcelableData: null ]'
p92
sS'MovementGranularity'
p93
g6
sa(dp94
S'EventTime'
p95
S'116227343'
p96
sg4
L1449731915947L
sS'recordCount'
p97
g6
sS'EventType'
p98
S'TYPE_WINDOW_CONTENT_CHANGED'
p99
sS'PackageName'
p100
S'com.xdf.ucan'
p101
sS'OutBounds'
p102
S'Rect(40, 50 - 160, 130)'
p103
sS'Action'
p104
S'[ ClassName: android.widget.Button; Text: []; ContentDescription: null; ItemCount: -1; CurrentItemIndex: -1; IsEnabled: true; IsPassword: false; IsChecked: false; IsFullScreen: false; Scrollable: false; BeforeText: null; FromIndex: -1; ToIndex: -1; ScrollX: -1; ScrollY: -1; MaxScrollX: -1; MaxScrollY: -1; AddedCount: -1; RemovedCount: -1; ParcelableData: null ]'
p105
sS'MovementGranularity'
p106
g6
sa(dp107
S'EventTime'
p108
S'116245033'
p109
sg4
L1449731933739L
sS'recordCount'
p110
g6
sS'EventType'
p111
S'TYPE_WINDOW_STATE_CHANGED'
p112
sS'PackageName'
p113
S'com.xdf.ucan'
p114
sS'OutBounds'
p115
S'Rect(0, 0 - 720, 1184)'
p116
sS'Action'
p117
S'[ ClassName: com.xdf.ucan.ui.material.MaterialListActivity; Text: [\xe4\xbc\x98\xe6\x92\xad\xe8\xaf\xbe]; ContentDescription: null; ItemCount: -1; CurrentItemIndex: -1; IsEnabled: true; IsPassword: false; IsChecked: false; IsFullScreen: true; Scrollable: false; BeforeText: null; FromIndex: -1; ToIndex: -1; ScrollX: -1; ScrollY: -1; MaxScrollX: -1; MaxScrollY: -1; AddedCount: -1; RemovedCount: -1; ParcelableData: null ]'
p118
sS'MovementGranularity'
p119
g6
sa(dp120
S'EventTime'
p121
S'116245100'
p122
sg4
L1449731934228L
sS'recordCount'
p123
g6
sS'EventType'
p124
S'TYPE_VIEW_SCROLLED'
p125
sS'PackageName'
p126
S'com.xdf.ucan'
p127
sS'OutBounds'
p128
S'Rect(0, 138 - 720, 1184)'
p129
sS'Action'
p130
S'[ ClassName: android.widget.ListView; Text: []; ContentDescription: null; ItemCount: 13; CurrentItemIndex: -1; IsEnabled: true; IsPassword: false; IsChecked: false; IsFullScreen: false; Scrollable: true; BeforeText: null; FromIndex: 0; ToIndex: 5; ScrollX: -1; ScrollY: -1; MaxScrollX: -1; MaxScrollY: -1; AddedCount: -1; RemovedCount: -1; ParcelableData: null ]'
p131
sS'MovementGranularity'
p132
g6
sa(dp133
S'EventTime'
p134
S'116245141'
p135
sg4
L1449731934376L
sS'recordCount'
p136
g6
sS'EventType'
p137
S'TYPE_WINDOW_CONTENT_CHANGED'
p138
sS'PackageName'
p139
S'com.xdf.ucan'
p140
sS'OutBounds'
p141
S'Rect(324, 69 - 396, 119)'
p142
sS'Action'
p143
S'[ ClassName: android.widget.TextView; Text: []; ContentDescription: null; ItemCount: -1; CurrentItemIndex: -1; IsEnabled: true; IsPassword: false; IsChecked: false; IsFullScreen: false; Scrollable: false; BeforeText: null; FromIndex: -1; ToIndex: -1; ScrollX: -1; ScrollY: -1; MaxScrollX: -1; MaxScrollY: -1; AddedCount: -1; RemovedCount: -1; ParcelableData: null ]'
p144
sS'MovementGranularity'
p145
g6
sa(dp146
S'EventTime'
p147
S'116245646'
p148
sg4
L1449731934425L
sS'recordCount'
p149
S'1'
p150
sS'EventType'
p151
S'TYPE_WINDOW_CONTENT_CHANGED'
p152
sS'PackageName'
p153
S'com.xdf.ucan'
p154
sS'Action'
p155
S'[ ClassName: android.widget.TextView; Text: []; ContentDescription: null; ItemCount: -1; CurrentItemIndex: -1; IsEnabled: true; IsPassword: false; IsChecked: false; IsFullScreen: false; Scrollable: false; BeforeText: null; FromIndex: -1; ToIndex: -1; ScrollX: -1; ScrollY: -1; MaxScrollX: -1; MaxScrollY: -1; AddedCount: -1; RemovedCount: -1; ParcelableData: null ]'
p156
sS'MovementGranularity'
p157
g6
sa(dp158
S'EventTime'
p159
S'116245867'
p160
sg4
L1449731934505L
sS'recordCount'
p161
g6
sS'EventType'
p162
S'TYPE_WINDOW_STATE_CHANGED'
p163
sS'PackageName'
p164
S'com.xdf.ucan'
p165
sS'OutBounds'
p166
S'Rect(0, 0 - 720, 1184)'
p167
sS'Action'
p168
S'[ ClassName: com.xdf.ucan.MainActivity; Text: [\xe4\xbc\x98\xe6\x92\xad\xe8\xaf\xbe]; ContentDescription: null; ItemCount: -1; CurrentItemIndex: -1; IsEnabled: true; IsPassword: false; IsChecked: false; IsFullScreen: true; Scrollable: false; BeforeText: null; FromIndex: -1; ToIndex: -1; ScrollX: -1; ScrollY: -1; MaxScrollX: -1; MaxScrollY: -1; AddedCount: -1; RemovedCount: -1; ParcelableData: null ]'
p169
sS'MovementGranularity'
p170
g6
sa(dp171
S'EventTime'
p172
S'116247260'
p173
sg4
L1449731935863L
sS'recordCount'
p174
g6
sS'EventType'
p175
S'TYPE_VIEW_CLICKED'
p176
sS'PackageName'
p177
S'com.xdf.ucan'
p178
sS'OutBounds'
p179
S'Rect(0, 266 - 720, 394)'
p180
sS'Action'
p181
S'[ ClassName: android.widget.RelativeLayout; Text: [\xe8\xb5\x84\xe6\x96\x99, 16\xe5\xb0\x8f\xe6\x97\xb6\xe5\x89\x8d, \xe5\x85\x89\xe5\xad\x90\xe9\xbc\xbb\xe4\xb8\x8e\xe5\x88\x86\xe5\xad\x90\xe6\x9d\x90\xe6\x96\x99\xe7\xa0\x94\xe7\xa9\xb6\xe5\x9b\xa2\xe9\x98\x9f\xe5\x9c\xa8\xe6\x96\xb0\xe5\x9e\x8b\xe8\x9b\x8b\xe7\x99\xbd\xe8\xb4\xa8\xe5\x9f\xba\xe7\x95\x8c\xe9\x9d\xa2\xe6\x9d\x90\xe6\x96\x99\xe9\xa2\x86\xe5\x9f\x9f\xe5\x8f\x96\xe5\xbe\x97\xe9\x87\x8d\xe8\xa6\x81\xe8\xbf\x9b\xe5\xb1\x95]; ContentDescription: null; ItemCount: -1; CurrentItemIndex: -1; IsEnabled: true; IsPassword: false; IsChecked: false; IsFullScreen: false; Scrollable: false; BeforeText: null; FromIndex: -1; ToIndex: -1; ScrollX: -1; ScrollY: -1; MaxScrollX: -1; MaxScrollY: -1; AddedCount: -1; RemovedCount: -1; ParcelableData: null ]'
p182
sS'MovementGranularity'
p183
g6
sa(dp184
S'EventTime'
p185
S'116247595'
p186
sg4
L1449731936238L
sS'recordCount'
p187
g6
sS'EventType'
p188
S'TYPE_WINDOW_STATE_CHANGED'
p189
sS'PackageName'
p190
S'com.xdf.ucan'
p191
sS'OutBounds'
p192
S'Rect(40, 50 - 680, 1184)'
p193
sS'Action'
p194
S'[ ClassName: com.xdf.ucan.views.LoadingDialog; Text: []; ContentDescription: null; ItemCount: -1; CurrentItemIndex: -1; IsEnabled: true; IsPassword: false; IsChecked: false; IsFullScreen: false; Scrollable: false; BeforeText: null; FromIndex: -1; ToIndex: -1; ScrollX: -1; ScrollY: -1; MaxScrollX: -1; MaxScrollY: -1; AddedCount: -1; RemovedCount: -1; ParcelableData: null ]'
p195
sS'MovementGranularity'
p196
g6
sa(dp197
S'EventTime'
p198
S'116247680'
p199
sg4
L1449731936284L
sS'recordCount'
p200
g6
sS'EventType'
p201
S'TYPE_WINDOW_CONTENT_CHANGED'
p202
sS'PackageName'
p203
S'com.xdf.ucan'
p204
sS'OutBounds'
p205
S'Rect(40, 50 - 160, 130)'
p206
sS'Action'
p207
S'[ ClassName: android.widget.Button; Text: []; ContentDescription: null; ItemCount: -1; CurrentItemIndex: -1; IsEnabled: true; IsPassword: false; IsChecked: false; IsFullScreen: false; Scrollable: false; BeforeText: null; FromIndex: -1; ToIndex: -1; ScrollX: -1; ScrollY: -1; MaxScrollX: -1; MaxScrollY: -1; AddedCount: -1; RemovedCount: -1; ParcelableData: null ]'
p208
sS'MovementGranularity'
p209
g6
sa(dp210
S'EventTime'
p211
S'116247780'
p212
sg4
L1449731936386L
sS'recordCount'
p213
g6
sS'EventType'
p214
S'TYPE_WINDOW_CONTENT_CHANGED'
p215
sS'PackageName'
p216
S'com.xdf.ucan'
p217
sS'OutBounds'
p218
S'Rect(40, 50 - 160, 130)'
p219
sS'Action'
p220
S'[ ClassName: android.widget.Button; Text: []; ContentDescription: null; ItemCount: -1; CurrentItemIndex: -1; IsEnabled: true; IsPassword: false; IsChecked: false; IsFullScreen: false; Scrollable: false; BeforeText: null; FromIndex: -1; ToIndex: -1; ScrollX: -1; ScrollY: -1; MaxScrollX: -1; MaxScrollY: -1; AddedCount: -1; RemovedCount: -1; ParcelableData: null ]'
p221
sS'MovementGranularity'
p222
g6
sa(dp223
S'EventTime'
p224
S'116256652'
p225
sg4
L1449731945527L
sS'recordCount'
p226
g6
sS'EventType'
p227
S'TYPE_WINDOW_STATE_CHANGED'
p228
sS'PackageName'
p229
S'com.xdf.ucan'
p230
sS'OutBounds'
p231
S'Rect(0, 0 - 720, 1184)'
p232
sS'Action'
p233
S'[ ClassName: com.xdf.ucan.ui.material.MaterialListActivity; Text: [\xe4\xbc\x98\xe6\x92\xad\xe8\xaf\xbe]; ContentDescription: null; ItemCount: -1; CurrentItemIndex: -1; IsEnabled: true; IsPassword: false; IsChecked: false; IsFullScreen: true; Scrollable: false; BeforeText: null; FromIndex: -1; ToIndex: -1; ScrollX: -1; ScrollY: -1; MaxScrollX: -1; MaxScrollY: -1; AddedCount: -1; RemovedCount: -1; ParcelableData: null ]'
p234
sS'MovementGranularity'
p235
g6
sa(dp236
S'EventTime'
p237
S'116256676'
p238
sg4
L1449731945982L
sS'recordCount'
p239
g6
sS'EventType'
p240
S'TYPE_WINDOW_CONTENT_CHANGED'
p241
sS'PackageName'
p242
S'com.xdf.ucan'
p243
sS'OutBounds'
p244
S'Rect(0, 138 - 720, 1184)'
p245
sS'Action'
p246
S'[ ClassName: android.widget.ListView; Text: []; ContentDescription: null; ItemCount: 13; CurrentItemIndex: -1; IsEnabled: true; IsPassword: false; IsChecked: false; IsFullScreen: false; Scrollable: true; BeforeText: null; FromIndex: 0; ToIndex: 0; ScrollX: -1; ScrollY: -1; MaxScrollX: -1; MaxScrollY: -1; AddedCount: -1; RemovedCount: -1; ParcelableData: null ]'
p247
sS'MovementGranularity'
p248
g6
sa(dp249
S'EventTime'
p250
S'116257032'
p251
sg4
L1449731946155L
sS'recordCount'
p252
g6
sS'EventType'
p253
S'TYPE_WINDOW_CONTENT_CHANGED'
p254
sS'PackageName'
p255
S'com.xdf.ucan'
p256
sS'OutBounds'
p257
S'Rect(0, 138 - 720, 1184)'
p258
sS'Action'
p259
S'[ ClassName: android.widget.ListView; Text: []; ContentDescription: null; ItemCount: 13; CurrentItemIndex: -1; IsEnabled: true; IsPassword: false; IsChecked: false; IsFullScreen: false; Scrollable: true; BeforeText: null; FromIndex: 0; ToIndex: 5; ScrollX: -1; ScrollY: -1; MaxScrollX: -1; MaxScrollY: -1; AddedCount: -1; RemovedCount: -1; ParcelableData: null ]'
p260
sS'MovementGranularity'
p261
g6
sa(dp262
S'EventTime'
p263
S'116257138'
p264
sg4
L1449731946294L
sS'recordCount'
p265
g6
sS'EventType'
p266
S'TYPE_VIEW_SCROLLED'
p267
sS'PackageName'
p268
S'com.xdf.ucan'
p269
sS'OutBounds'
p270
S'Rect(0, 138 - 720, 1184)'
p271
sS'Action'
p272
S'[ ClassName: android.widget.ListView; Text: []; ContentDescription: null; ItemCount: 13; CurrentItemIndex: -1; IsEnabled: true; IsPassword: false; IsChecked: false; IsFullScreen: false; Scrollable: true; BeforeText: null; FromIndex: 0; ToIndex: 5; ScrollX: -1; ScrollY: -1; MaxScrollX: -1; MaxScrollY: -1; AddedCount: -1; RemovedCount: -1; ParcelableData: null ]'
p273
sS'MovementGranularity'
p274
g6
sa(dp275
S'EventTime'
p276
S'116257413'
p277
sg4
L1449731946364L
sS'recordCount'
p278
g150
sS'EventType'
p279
S'TYPE_WINDOW_CONTENT_CHANGED'
p280
sS'PackageName'
p281
S'com.xdf.ucan'
p282
sS'OutBounds'
p283
S'Rect(555, 1422 - 572, 1464)'
p284
sS'Action'
p285
S'[ ClassName: android.widget.TextView; Text: []; ContentDescription: null; ItemCount: -1; CurrentItemIndex: -1; IsEnabled: true; IsPassword: false; IsChecked: false; IsFullScreen: false; Scrollable: false; BeforeText: null; FromIndex: -1; ToIndex: -1; ScrollX: -1; ScrollY: -1; MaxScrollX: -1; MaxScrollY: -1; AddedCount: -1; RemovedCount: -1; ParcelableData: null ]'
p286
sS'MovementGranularity'
p287
g6
sa(dp288
S'EventTime'
p289
S'116260598'
p290
sg4
L1449731949202L
sS'recordCount'
p291
g150
sS'EventType'
p292
S'TYPE_VIEW_CLICKED'
p293
sS'PackageName'
p294
S'com.xdf.ucan'
p295
sS'OutBounds'
p296
S'Rect(20, 270 - 700, 459)'
p297
sS'Action'
p298
S'[ ClassName: android.widget.LinearLayout; Text: [\xe5\x85\x89\xe5\xad\x90\xe9\xbc\xbb\xe4\xb8\x8e\xe5\x88\x86\xe5\xad\x90\xe6\x9d\x90\xe6\x96\x99\xe7\xa0\x94\xe7\xa9\xb6\xe5\x9b\xa2\xe9\x98\x9f\xe5\x9c\xa8\xe6\x96\xb0\xe5\x9e\x8b\xe8\x9b\x8b\xe7\x99\xbd\xe8\xb4\xa8\xe5\x9f\xba\xe7\x95\x8c\xe9\x9d\xa2\xe6\x9d\x90\xe6\x96\x99\xe9\xa2\x86\xe5\x9f\x9f\xe5\x8f\x96\xe5\xbe\x97\xe9\x87\x8d\xe8\xa6\x81\xe8\xbf\x9b\xe5\xb1\x95, \xe5\x88\x9d\xe5\x8c\x96, \xe5\x88\x9d\xe4\xb8\xad\xe5\x8c\x96\xe5\xad\xa6, 16\xe5\xb0\x8f\xe6\x97\xb6\xe5\x89\x8d]; ContentDescription: null; ItemCount: -1; CurrentItemIndex: -1; IsEnabled: true; IsPassword: false; IsChecked: false; IsFullScreen: false; Scrollable: false; BeforeText: null; FromIndex: -1; ToIndex: -1; ScrollX: -1; ScrollY: -1; MaxScrollX: -1; MaxScrollY: -1; AddedCount: -1; RemovedCount: -1; ParcelableData: null ]'
p299
sS'MovementGranularity'
p300
g6
sa(dp301
S'EventTime'
p302
S'116277158'
p303
sg4
L1449731965787L
sS'recordCount'
p304
g6
sS'EventType'
p305
S'TYPE_WINDOW_STATE_CHANGED'
p306
sS'PackageName'
p307
S'com.xdf.ucan'
p308
sS'OutBounds'
p309
S'Rect(0, 0 - 720, 1184)'
p310
sS'Action'
p311
S'[ ClassName: com.xdf.ucan.ui.material.MaterialActivity; Text: [\xe4\xbc\x98\xe6\x92\xad\xe8\xaf\xbe]; ContentDescription: null; ItemCount: -1; CurrentItemIndex: -1; IsEnabled: true; IsPassword: false; IsChecked: false; IsFullScreen: true; Scrollable: false; BeforeText: null; FromIndex: -1; ToIndex: -1; ScrollX: -1; ScrollY: -1; MaxScrollX: -1; MaxScrollY: -1; AddedCount: -1; RemovedCount: -1; ParcelableData: null ]'
p312
sS'MovementGranularity'
p313
g6
sa(dp314
S'EventTime'
p315
S'116277283'
p316
sg4
L1449731965907L
sS'recordCount'
p317
g6
sS'EventType'
p318
S'TYPE_WINDOW_CONTENT_CHANGED'
p319
sS'PackageName'
p320
S'com.xdf.ucan'
p321
sS'OutBounds'
p322
S'Rect(381, 1116 - 398, 1158)'
p323
sS'Action'
p324
S'[ ClassName: android.widget.TextView; Text: []; ContentDescription: null; ItemCount: -1; CurrentItemIndex: -1; IsEnabled: true; IsPassword: false; IsChecked: false; IsFullScreen: false; Scrollable: false; BeforeText: null; FromIndex: -1; ToIndex: -1; ScrollX: -1; ScrollY: -1; MaxScrollX: -1; MaxScrollY: -1; AddedCount: -1; RemovedCount: -1; ParcelableData: null ]'
p325
sS'MovementGranularity'
p326
g6
sa.