(lp0
(dp1
S'EventTime'
p2
S'338613971'
p3
sS'SyscTime'
p4
L1449713671840L
sS'recordCount'
p5
S'0'
p6
sS'EventType'
p7
S'TYPE_WINDOW_STATE_CHANGED'
p8
sS'PackageName'
p9
S'com.example.myfristandroid'
p10
sS'OutBounds'
p11
S'Rect(0, 0 - 480, 800)'
p12
sS'Action'
p13
S'[ ClassName: com.example.myfristandroid.SplashActivity; Text: [SE-1800\xe7\xa7\xbb\xe5\x8a\xa8APP]; ContentDescription: null; ItemCount: -1; CurrentItemIndex: -1; IsEnabled: true; IsPassword: false; IsChecked: false; IsFullScreen: true; Scrollable: false; BeforeText: null; FromIndex: -1; ToIndex: -1; ScrollX: -1; ScrollY: -1; MaxScrollX: -1; MaxScrollY: -1; AddedCount: -1; RemovedCount: -1; ParcelableData: null ]'
p14
sS'MovementGranularity'
p15
g6
sa(dp16
S'EventTime'
p17
S'338614075'
p18
sg4
L1449713672971L
sS'recordCount'
p19
g6
sS'EventType'
p20
S'TYPE_WINDOW_CONTENT_CHANGED'
p21
sS'PackageName'
p22
S'com.example.myfristandroid'
p23
sS'OutBounds'
p24
S'Rect(0, 0 - 480, 800)'
p25
sS'Action'
p26
S'[ ClassName: android.widget.FrameLayout; Text: []; ContentDescription: null; ItemCount: -1; CurrentItemIndex: -1; IsEnabled: true; IsPassword: false; IsChecked: false; IsFullScreen: false; Scrollable: false; BeforeText: null; FromIndex: -1; ToIndex: -1; ScrollX: -1; ScrollY: -1; MaxScrollX: -1; MaxScrollY: -1; AddedCount: -1; RemovedCount: -1; ParcelableData: null ]'
p27
sS'MovementGranularity'
p28
g6
sa(dp29
S'EventTime'
p30
S'338615022'
p31
sg4
L1449713672983L
sS'recordCount'
p32
g6
sS'EventType'
p33
S'TYPE_WINDOW_CONTENT_CHANGED'
p34
sS'PackageName'
p35
S'com.example.myfristandroid'
p36
sS'Action'
p37
S'[ ClassName: android.widget.FrameLayout; Text: []; ContentDescription: null; ItemCount: -1; CurrentItemIndex: -1; IsEnabled: true; IsPassword: false; IsChecked: false; IsFullScreen: false; Scrollable: false; BeforeText: null; FromIndex: -1; ToIndex: -1; ScrollX: -1; ScrollY: -1; MaxScrollX: -1; MaxScrollY: -1; AddedCount: -1; RemovedCount: -1; ParcelableData: null ]'
p38
sS'MovementGranularity'
p39
g6
sa(dp40
S'EventTime'
p41
S'338618053'
p42
sg4
L1449713674840L
sS'recordCount'
p43
g6
sS'EventType'
p44
S'TYPE_WINDOW_STATE_CHANGED'
p45
sS'PackageName'
p46
S'com.example.myfristandroid'
p47
sS'OutBounds'
p48
S'Rect(0, 0 - 480, 800)'
p49
sS'Action'
p50
S'[ ClassName: com.example.myfristandroid.MainActivity; Text: [SE-1800\xe7\xa7\xbb\xe5\x8a\xa8APP]; ContentDescription: null; ItemCount: -1; CurrentItemIndex: -1; IsEnabled: true; IsPassword: false; IsChecked: false; IsFullScreen: true; Scrollable: false; BeforeText: null; FromIndex: -1; ToIndex: -1; ScrollX: -1; ScrollY: -1; MaxScrollX: -1; MaxScrollY: -1; AddedCount: -1; RemovedCount: -1; ParcelableData: null ]'
p51
sS'MovementGranularity'
p52
g6
sa(dp53
S'EventTime'
p54
S'338618061'
p55
sg4
L1449713674842L
sS'recordCount'
p56
g6
sS'EventType'
p57
S'TYPE_VIEW_SCROLLED'
p58
sS'PackageName'
p59
S'com.example.myfristandroid'
p60
sS'Action'
p61
S'[ ClassName: android.widget.ListView; Text: []; ContentDescription: null; ItemCount: 0; CurrentItemIndex: -1; IsEnabled: true; IsPassword: false; IsChecked: false; IsFullScreen: false; Scrollable: false; BeforeText: null; FromIndex: 0; ToIndex: -1; ScrollX: -1; ScrollY: -1; MaxScrollX: -1; MaxScrollY: -1; AddedCount: -1; RemovedCount: -1; ParcelableData: null ]'
p62
sS'MovementGranularity'
p63
g6
sa(dp64
S'EventTime'
p65
S'338618370'
p66
sg4
L1449713674986L
sS'recordCount'
p67
g6
sS'EventType'
p68
S'TYPE_WINDOW_STATE_CHANGED'
p69
sS'PackageName'
p70
S'com.example.myfristandroid'
p71
sS'OutBounds'
p72
S'Rect(0, 0 - 480, 800)'
p73
sS'Action'
p74
S'[ ClassName: com.example.myfristandroid.HuzAlertDialog; Text: [\xe6\x8f\x90\xe7\xa4\xba, \xe7\x89\x88\xe6\x9c\xac\xe6\x9c\x89\xe6\x9b\xb4\xe6\x96\xb0\xef\xbc\x8c\xe6\x98\xaf\xe5\x90\xa6\xe9\x9c\x80\xe8\xa6\x81\xe6\x9b\xb4\xe6\x96\xb0, \xe7\xab\x8b\xe5\x8d\xb3\xe6\x9b\xb4\xe6\x96\xb0, \xe7\xa8\x8d\xe5\x90\x8e\xe6\x9b\xb4\xe6\x96\xb0]; ContentDescription: null; ItemCount: -1; CurrentItemIndex: -1; IsEnabled: true; IsPassword: false; IsChecked: false; IsFullScreen: true; Scrollable: false; BeforeText: null; FromIndex: -1; ToIndex: -1; ScrollX: -1; ScrollY: -1; MaxScrollX: -1; MaxScrollY: -1; AddedCount: -1; RemovedCount: -1; ParcelableData: null ]'
p75
sS'MovementGranularity'
p76
g6
sa(dp77
S'EventTime'
p78
S'338618407'
p79
sg4
L1449713675024L
sS'recordCount'
p80
g6
sS'EventType'
p81
S'TYPE_WINDOW_CONTENT_CHANGED'
p82
sS'PackageName'
p83
S'com.example.myfristandroid'
p84
sS'OutBounds'
p85
S'Rect(0, 0 - 480, 800)'
p86
sS'Action'
p87
S'[ ClassName: android.widget.FrameLayout; Text: []; ContentDescription: null; ItemCount: -1; CurrentItemIndex: -1; IsEnabled: true; IsPassword: false; IsChecked: false; IsFullScreen: false; Scrollable: false; BeforeText: null; FromIndex: -1; ToIndex: -1; ScrollX: -1; ScrollY: -1; MaxScrollX: -1; MaxScrollY: -1; AddedCount: -1; RemovedCount: -1; ParcelableData: null ]'
p88
sS'MovementGranularity'
p89
g6
sa(dp90
S'EventTime'
p91
S'338618604'
p92
sg4
L1449713675139L
sS'recordCount'
p93
g6
sS'EventType'
p94
S'TYPE_WINDOW_CONTENT_CHANGED'
p95
sS'PackageName'
p96
S'com.example.myfristandroid'
p97
sS'OutBounds'
p98
S'Rect(0, 0 - 480, 800)'
p99
sS'Action'
p100
S'[ ClassName: android.widget.FrameLayout; Text: []; ContentDescription: null; ItemCount: -1; CurrentItemIndex: -1; IsEnabled: true; IsPassword: false; IsChecked: false; IsFullScreen: false; Scrollable: false; BeforeText: null; FromIndex: -1; ToIndex: -1; ScrollX: -1; ScrollY: -1; MaxScrollX: -1; MaxScrollY: -1; AddedCount: -1; RemovedCount: -1; ParcelableData: null ]'
p101
sS'MovementGranularity'
p102
g6
sa(dp103
S'EventTime'
p104
S'338619904'
p105
sg4
L1449713676433L
sS'recordCount'
p106
g6
sS'EventType'
p107
S'TYPE_VIEW_CLICKED'
p108
sS'PackageName'
p109
S'com.example.myfristandroid'
p110
sS'OutBounds'
p111
S'Rect(249, 454 - 448, 526)'
p112
sS'Action'
p113
S'[ ClassName: android.widget.Button; Text: [\xe7\xa8\x8d\xe5\x90\x8e\xe6\x9b\xb4\xe6\x96\xb0]; ContentDescription: null; ItemCount: -1; CurrentItemIndex: -1; IsEnabled: true; IsPassword: false; IsChecked: false; IsFullScreen: false; Scrollable: false; BeforeText: null; FromIndex: -1; ToIndex: -1; ScrollX: -1; ScrollY: -1; MaxScrollX: -1; MaxScrollY: -1; AddedCount: -1; RemovedCount: -1; ParcelableData: null ]'
p114
sS'MovementGranularity'
p115
g6
sa(dp116
S'EventTime'
p117
S'338619937'
p118
sg4
L1449713676494L
sS'recordCount'
p119
g6
sS'EventType'
p120
S'TYPE_WINDOW_STATE_CHANGED'
p121
sS'PackageName'
p122
S'com.example.myfristandroid'
p123
sS'OutBounds'
p124
S'Rect(0, 0 - 480, 800)'
p125
sS'Action'
p126
S'[ ClassName: com.example.myfristandroid.MainActivity; Text: [SE-1800\xe7\xa7\xbb\xe5\x8a\xa8APP]; ContentDescription: null; ItemCount: -1; CurrentItemIndex: -1; IsEnabled: true; IsPassword: false; IsChecked: false; IsFullScreen: true; Scrollable: false; BeforeText: null; FromIndex: -1; ToIndex: -1; ScrollX: -1; ScrollY: -1; MaxScrollX: -1; MaxScrollY: -1; AddedCount: -1; RemovedCount: -1; ParcelableData: null ]'
p127
sS'MovementGranularity'
p128
g6
sa(dp129
S'EventTime'
p130
S'338625164'
p131
sg4
L1449713681695L
sS'recordCount'
p132
g6
sS'EventType'
p133
S'TYPE_VIEW_CLICKED'
p134
sS'PackageName'
p135
S'com.example.myfristandroid'
p136
sS'OutBounds'
p137
S'Rect(0, 717 - 120, 800)'
p138
sS'Action'
p139
S'[ ClassName: android.widget.LinearLayout; Text: [\xe7\x94\xbb\xe9\x9d\xa2\xe6\xb5\x8f\xe8\xa7\x88, \xe7\x94\xbb\xe9\x9d\xa2]; ContentDescription: null; ItemCount: -1; CurrentItemIndex: -1; IsEnabled: true; IsPassword: false; IsChecked: false; IsFullScreen: false; Scrollable: false; BeforeText: null; FromIndex: -1; ToIndex: -1; ScrollX: -1; ScrollY: -1; MaxScrollX: -1; MaxScrollY: -1; AddedCount: -1; RemovedCount: -1; ParcelableData: null ]'
p140
sS'MovementGranularity'
p141
g6
sa(dp142
S'EventTime'
p143
S'338625272'
p144
sg4
L1449713681830L
sS'recordCount'
p145
g6
sS'EventType'
p146
S'TYPE_WINDOW_CONTENT_CHANGED'
p147
sS'PackageName'
p148
S'com.example.myfristandroid'
p149
sS'OutBounds'
p150
S'Rect(0, 0 - 480, 800)'
p151
sS'Action'
p152
S'[ ClassName: android.widget.FrameLayout; Text: []; ContentDescription: null; ItemCount: -1; CurrentItemIndex: -1; IsEnabled: true; IsPassword: false; IsChecked: false; IsFullScreen: false; Scrollable: false; BeforeText: null; FromIndex: -1; ToIndex: -1; ScrollX: -1; ScrollY: -1; MaxScrollX: -1; MaxScrollY: -1; AddedCount: -1; RemovedCount: -1; ParcelableData: null ]'
p153
sS'MovementGranularity'
p154
g6
sa(dp155
S'EventTime'
p156
S'338629110'
p157
sg4
L1449713685680L
sS'recordCount'
p158
S'1'
p159
sS'EventType'
p160
S'TYPE_VIEW_CLICKED'
p161
sS'PackageName'
p162
S'com.example.myfristandroid'
p163
sS'OutBounds'
p164
S'Rect(5, 111 - 161, 267)'
p165
sS'Action'
p166
S'[ ClassName: android.widget.RelativeLayout; Text: [\xe4\xb8\x80\xe6\xac\xa1\xe6\x8e\xa5\xe7\xba\xbf\xe5\x9b\xbe]; ContentDescription: null; ItemCount: -1; CurrentItemIndex: -1; IsEnabled: true; IsPassword: false; IsChecked: false; IsFullScreen: false; Scrollable: false; BeforeText: null; FromIndex: -1; ToIndex: -1; ScrollX: -1; ScrollY: -1; MaxScrollX: -1; MaxScrollY: -1; AddedCount: -1; RemovedCount: -1; ParcelableData: null ]'
p167
sS'MovementGranularity'
p168
g6
sa(dp169
S'EventTime'
p170
S'338630101'
p171
sg4
L1449713686728L
sS'recordCount'
p172
g6
sS'EventType'
p173
S'TYPE_WINDOW_STATE_CHANGED'
p174
sS'PackageName'
p175
S'com.example.myfristandroid'
p176
sS'OutBounds'
p177
S'Rect(0, 0 - 480, 800)'
p178
sS'Action'
p179
S'[ ClassName: com.example.myfristandroid.graphWebShow; Text: [SE-1800\xe7\xa7\xbb\xe5\x8a\xa8APP]; ContentDescription: null; ItemCount: -1; CurrentItemIndex: -1; IsEnabled: true; IsPassword: false; IsChecked: false; IsFullScreen: true; Scrollable: false; BeforeText: null; FromIndex: -1; ToIndex: -1; ScrollX: -1; ScrollY: -1; MaxScrollX: -1; MaxScrollY: -1; AddedCount: -1; RemovedCount: -1; ParcelableData: null ]'
p180
sS'MovementGranularity'
p181
g6
sa(dp182
S'EventTime'
p183
S'338630105'
p184
sg4
L1449713687006L
sS'recordCount'
p185
g6
sS'EventType'
p186
S'TYPE_WINDOW_CONTENT_CHANGED'
p187
sS'PackageName'
p188
S'com.example.myfristandroid'
p189
sS'OutBounds'
p190
S'Rect(0, 0 - 480, 800)'
p191
sS'Action'
p192
S'[ ClassName: android.widget.FrameLayout; Text: []; ContentDescription: null; ItemCount: -1; CurrentItemIndex: -1; IsEnabled: true; IsPassword: false; IsChecked: false; IsFullScreen: false; Scrollable: false; BeforeText: null; FromIndex: -1; ToIndex: -1; ScrollX: -1; ScrollY: -1; MaxScrollX: -1; MaxScrollY: -1; AddedCount: -1; RemovedCount: -1; ParcelableData: null ]'
p193
sS'MovementGranularity'
p194
g6
sa(dp195
S'EventTime'
p196
S'338630301'
p197
sg4
L1449713687011L
sS'recordCount'
p198
g6
sS'EventType'
p199
S'TYPE_WINDOW_CONTENT_CHANGED'
p200
sS'PackageName'
p201
S'com.example.myfristandroid'
p202
sS'OutBounds'
p203
S'Rect(0, 0 - 480, 800)'
p204
sS'Action'
p205
S'[ ClassName: android.widget.FrameLayout; Text: []; ContentDescription: null; ItemCount: -1; CurrentItemIndex: -1; IsEnabled: true; IsPassword: false; IsChecked: false; IsFullScreen: false; Scrollable: false; BeforeText: null; FromIndex: -1; ToIndex: -1; ScrollX: -1; ScrollY: -1; MaxScrollX: -1; MaxScrollY: -1; AddedCount: -1; RemovedCount: -1; ParcelableData: null ]'
p206
sS'MovementGranularity'
p207
g6
sa(dp208
S'EventTime'
p209
S'338646344'
p210
sg4
L1449713702875L
sS'recordCount'
p211
g6
sS'EventType'
p212
S'TYPE_VIEW_CLICKED'
p213
sS'PackageName'
p214
S'com.example.myfristandroid'
p215
sS'OutBounds'
p216
S'Rect(0, 38 - 60, 106)'
p217
sS'Action'
p218
S'[ ClassName: android.widget.ImageButton; Text: []; ContentDescription: null; ItemCount: -1; CurrentItemIndex: -1; IsEnabled: true; IsPassword: false; IsChecked: false; IsFullScreen: false; Scrollable: false; BeforeText: null; FromIndex: -1; ToIndex: -1; ScrollX: -1; ScrollY: -1; MaxScrollX: -1; MaxScrollY: -1; AddedCount: -1; RemovedCount: -1; ParcelableData: null ]'
p219
sS'MovementGranularity'
p220
g6
sa(dp221
S'EventTime'
p222
S'338646412'
p223
sg4
L1449713702978L
sS'recordCount'
p224
g6
sS'EventType'
p225
S'TYPE_WINDOW_STATE_CHANGED'
p226
sS'PackageName'
p227
S'com.example.myfristandroid'
p228
sS'OutBounds'
p229
S'Rect(0, 0 - 480, 800)'
p230
sS'Action'
p231
S'[ ClassName: com.example.myfristandroid.MainActivity; Text: [SE-1800\xe7\xa7\xbb\xe5\x8a\xa8APP]; ContentDescription: null; ItemCount: -1; CurrentItemIndex: -1; IsEnabled: true; IsPassword: false; IsChecked: false; IsFullScreen: true; Scrollable: false; BeforeText: null; FromIndex: -1; ToIndex: -1; ScrollX: -1; ScrollY: -1; MaxScrollX: -1; MaxScrollY: -1; AddedCount: -1; RemovedCount: -1; ParcelableData: null ]'
p232
sS'MovementGranularity'
p233
g6
sa(dp234
S'EventTime'
p235
S'338649221'
p236
sg4
L1449713705751L
sS'recordCount'
p237
g159
sS'EventType'
p238
S'TYPE_VIEW_CLICKED'
p239
sS'PackageName'
p240
S'com.example.myfristandroid'
p241
sS'OutBounds'
p242
S'Rect(162, 111 - 318, 267)'
p243
sS'Action'
p244
S'[ ClassName: android.widget.RelativeLayout; Text: [\xe6\x9b\xb2\xe7\xba\xbf\xe5\x9b\xbe]; ContentDescription: null; ItemCount: -1; CurrentItemIndex: -1; IsEnabled: true; IsPassword: false; IsChecked: false; IsFullScreen: false; Scrollable: false; BeforeText: null; FromIndex: -1; ToIndex: -1; ScrollX: -1; ScrollY: -1; MaxScrollX: -1; MaxScrollY: -1; AddedCount: -1; RemovedCount: -1; ParcelableData: null ]'
p245
sS'MovementGranularity'
p246
g6
sa(dp247
S'EventTime'
p248
S'338649568'
p249
sg4
L1449713706104L
sS'recordCount'
p250
g6
sS'EventType'
p251
S'TYPE_WINDOW_STATE_CHANGED'
p252
sS'PackageName'
p253
S'com.example.myfristandroid'
p254
sS'OutBounds'
p255
S'Rect(0, 0 - 480, 800)'
p256
sS'Action'
p257
S'[ ClassName: com.example.myfristandroid.graphWebShow; Text: [SE-1800\xe7\xa7\xbb\xe5\x8a\xa8APP]; ContentDescription: null; ItemCount: -1; CurrentItemIndex: -1; IsEnabled: true; IsPassword: false; IsChecked: false; IsFullScreen: true; Scrollable: false; BeforeText: null; FromIndex: -1; ToIndex: -1; ScrollX: -1; ScrollY: -1; MaxScrollX: -1; MaxScrollY: -1; AddedCount: -1; RemovedCount: -1; ParcelableData: null ]'
p258
sS'MovementGranularity'
p259
g6
sa(dp260
S'EventTime'
p261
S'338649624'
p262
sg4
L1449713706159L
sS'recordCount'
p263
g6
sS'EventType'
p264
S'TYPE_WINDOW_CONTENT_CHANGED'
p265
sS'PackageName'
p266
S'com.example.myfristandroid'
p267
sS'OutBounds'
p268
S'Rect(0, 0 - 480, 800)'
p269
sS'Action'
p270
S'[ ClassName: android.widget.FrameLayout; Text: []; ContentDescription: null; ItemCount: -1; CurrentItemIndex: -1; IsEnabled: true; IsPassword: false; IsChecked: false; IsFullScreen: false; Scrollable: false; BeforeText: null; FromIndex: -1; ToIndex: -1; ScrollX: -1; ScrollY: -1; MaxScrollX: -1; MaxScrollY: -1; AddedCount: -1; RemovedCount: -1; ParcelableData: null ]'
p271
sS'MovementGranularity'
p272
g6
sa(dp273
S'EventTime'
p274
S'338655822'
p275
sg4
L1449713712354L
sS'recordCount'
p276
g6
sS'EventType'
p277
S'TYPE_WINDOW_CONTENT_CHANGED'
p278
sS'PackageName'
p279
S'com.example.myfristandroid'
p280
sS'OutBounds'
p281
S'Rect(0, 0 - 800, 480)'
p282
sS'Action'
p283
S'[ ClassName: android.widget.FrameLayout; Text: []; ContentDescription: null; ItemCount: -1; CurrentItemIndex: -1; IsEnabled: true; IsPassword: false; IsChecked: false; IsFullScreen: false; Scrollable: false; BeforeText: null; FromIndex: -1; ToIndex: -1; ScrollX: -1; ScrollY: -1; MaxScrollX: -1; MaxScrollY: -1; AddedCount: -1; RemovedCount: -1; ParcelableData: null ]'
p284
sS'MovementGranularity'
p285
g6
sa(dp286
S'EventTime'
p287
S'338661196'
p288
sg4
L1449713717761L
sS'recordCount'
p289
g6
sS'EventType'
p290
S'TYPE_WINDOW_STATE_CHANGED'
p291
sS'PackageName'
p292
S'com.example.myfristandroid'
p293
sS'OutBounds'
p294
S'Rect(325, 184 - 475, 334)'
p295
sS'Action'
p296
S'[ ClassName: com.example.myfristandroid.CustomProgressDialog; Text: []; ContentDescription: null; ItemCount: -1; CurrentItemIndex: -1; IsEnabled: true; IsPassword: false; IsChecked: false; IsFullScreen: false; Scrollable: false; BeforeText: null; FromIndex: -1; ToIndex: -1; ScrollX: -1; ScrollY: -1; MaxScrollX: -1; MaxScrollY: -1; AddedCount: -1; RemovedCount: -1; ParcelableData: null ]'
p297
sS'MovementGranularity'
p298
g6
sa(dp299
S'EventTime'
p300
S'338661258'
p301
sg4
L1449713717883L
sS'recordCount'
p302
g6
sS'EventType'
p303
S'TYPE_WINDOW_CONTENT_CHANGED'
p304
sS'PackageName'
p305
S'com.example.myfristandroid'
p306
sS'OutBounds'
p307
S'Rect(325, 184 - 475, 334)'
p308
sS'Action'
p309
S'[ ClassName: android.widget.FrameLayout; Text: []; ContentDescription: null; ItemCount: -1; CurrentItemIndex: -1; IsEnabled: true; IsPassword: false; IsChecked: false; IsFullScreen: false; Scrollable: false; BeforeText: null; FromIndex: -1; ToIndex: -1; ScrollX: -1; ScrollY: -1; MaxScrollX: -1; MaxScrollY: -1; AddedCount: -1; RemovedCount: -1; ParcelableData: null ]'
p310
sS'MovementGranularity'
p311
g6
sa(dp312
S'EventTime'
p313
S'338666264'
p314
sg4
L1449713722799L
sS'recordCount'
p315
g6
sS'EventType'
p316
S'TYPE_WINDOW_STATE_CHANGED'
p317
sS'PackageName'
p318
S'com.example.myfristandroid'
p319
sS'OutBounds'
p320
S'Rect(0, 0 - 800, 480)'
p321
sS'Action'
p322
S'[ ClassName: com.example.myfristandroid.graphWebShow; Text: [SE-1800\xe7\xa7\xbb\xe5\x8a\xa8APP]; ContentDescription: null; ItemCount: -1; CurrentItemIndex: -1; IsEnabled: true; IsPassword: false; IsChecked: false; IsFullScreen: true; Scrollable: false; BeforeText: null; FromIndex: -1; ToIndex: -1; ScrollX: -1; ScrollY: -1; MaxScrollX: -1; MaxScrollY: -1; AddedCount: -1; RemovedCount: -1; ParcelableData: null ]'
p323
sS'MovementGranularity'
p324
g6
sa(dp325
S'EventTime'
p326
S'338672892'
p327
sg4
L1449713729444L
sS'recordCount'
p328
g6
sS'EventType'
p329
S'TYPE_WINDOW_STATE_CHANGED'
p330
sS'PackageName'
p331
S'com.example.myfristandroid'
p332
sS'OutBounds'
p333
S'Rect(325, 184 - 475, 334)'
p334
sS'Action'
p335
S'[ ClassName: com.example.myfristandroid.CustomProgressDialog; Text: []; ContentDescription: null; ItemCount: -1; CurrentItemIndex: -1; IsEnabled: true; IsPassword: false; IsChecked: false; IsFullScreen: false; Scrollable: false; BeforeText: null; FromIndex: -1; ToIndex: -1; ScrollX: -1; ScrollY: -1; MaxScrollX: -1; MaxScrollY: -1; AddedCount: -1; RemovedCount: -1; ParcelableData: null ]'
p336
sS'MovementGranularity'
p337
g6
sa(dp338
S'EventTime'
p339
S'338673004'
p340
sg4
L1449713729547L
sS'recordCount'
p341
g6
sS'EventType'
p342
S'TYPE_WINDOW_CONTENT_CHANGED'
p343
sS'PackageName'
p344
S'com.example.myfristandroid'
p345
sS'OutBounds'
p346
S'Rect(325, 184 - 475, 334)'
p347
sS'Action'
p348
S'[ ClassName: android.widget.FrameLayout; Text: []; ContentDescription: null; ItemCount: -1; CurrentItemIndex: -1; IsEnabled: true; IsPassword: false; IsChecked: false; IsFullScreen: false; Scrollable: false; BeforeText: null; FromIndex: -1; ToIndex: -1; ScrollX: -1; ScrollY: -1; MaxScrollX: -1; MaxScrollY: -1; AddedCount: -1; RemovedCount: -1; ParcelableData: null ]'
p349
sS'MovementGranularity'
p350
g6
sa(dp351
S'EventTime'
p352
S'338676256'
p353
sg4
L1449713732819L
sS'recordCount'
p354
g6
sS'EventType'
p355
S'TYPE_WINDOW_STATE_CHANGED'
p356
sS'PackageName'
p357
S'com.example.myfristandroid'
p358
sS'OutBounds'
p359
S'Rect(0, 0 - 800, 480)'
p360
sS'Action'
p361
S'[ ClassName: com.example.myfristandroid.graphWebShow; Text: [SE-1800\xe7\xa7\xbb\xe5\x8a\xa8APP]; ContentDescription: null; ItemCount: -1; CurrentItemIndex: -1; IsEnabled: true; IsPassword: false; IsChecked: false; IsFullScreen: true; Scrollable: false; BeforeText: null; FromIndex: -1; ToIndex: -1; ScrollX: -1; ScrollY: -1; MaxScrollX: -1; MaxScrollY: -1; AddedCount: -1; RemovedCount: -1; ParcelableData: null ]'
p362
sS'MovementGranularity'
p363
g6
sa(dp364
S'EventTime'
p365
S'338678817'
p366
sg4
L1449713735386L
sS'recordCount'
p367
g6
sS'EventType'
p368
S'TYPE_WINDOW_STATE_CHANGED'
p369
sS'PackageName'
p370
S'com.example.myfristandroid'
p371
sS'OutBounds'
p372
S'Rect(0, 0 - 480, 800)'
p373
sS'Action'
p374
S'[ ClassName: com.example.myfristandroid.MainActivity; Text: [SE-1800\xe7\xa7\xbb\xe5\x8a\xa8APP]; ContentDescription: null; ItemCount: -1; CurrentItemIndex: -1; IsEnabled: true; IsPassword: false; IsChecked: false; IsFullScreen: true; Scrollable: false; BeforeText: null; FromIndex: -1; ToIndex: -1; ScrollX: -1; ScrollY: -1; MaxScrollX: -1; MaxScrollY: -1; AddedCount: -1; RemovedCount: -1; ParcelableData: null ]'
p375
sS'MovementGranularity'
p376
g6
sa(dp377
S'EventTime'
p378
S'338682107'
p379
sg4
L1449713738637L
sS'recordCount'
p380
g159
sS'EventType'
p381
S'TYPE_VIEW_CLICKED'
p382
sS'PackageName'
p383
S'com.example.myfristandroid'
p384
sS'OutBounds'
p385
S'Rect(319, 111 - 475, 267)'
p386
sS'Action'
p387
S'[ ClassName: android.widget.RelativeLayout; Text: [\xe6\xa3\x92\xe5\x9b\xbe]; ContentDescription: null; ItemCount: -1; CurrentItemIndex: -1; IsEnabled: true; IsPassword: false; IsChecked: false; IsFullScreen: false; Scrollable: false; BeforeText: null; FromIndex: -1; ToIndex: -1; ScrollX: -1; ScrollY: -1; MaxScrollX: -1; MaxScrollY: -1; AddedCount: -1; RemovedCount: -1; ParcelableData: null ]'
p388
sS'MovementGranularity'
p389
g6
sa(dp390
S'EventTime'
p391
S'338682276'
p392
sg4
L1449713738816L
sS'recordCount'
p393
g6
sS'EventType'
p394
S'TYPE_WINDOW_STATE_CHANGED'
p395
sS'PackageName'
p396
S'com.example.myfristandroid'
p397
sS'OutBounds'
p398
S'Rect(0, 0 - 480, 800)'
p399
sS'Action'
p400
S'[ ClassName: com.example.myfristandroid.graphWebShow; Text: [SE-1800\xe7\xa7\xbb\xe5\x8a\xa8APP]; ContentDescription: null; ItemCount: -1; CurrentItemIndex: -1; IsEnabled: true; IsPassword: false; IsChecked: false; IsFullScreen: true; Scrollable: false; BeforeText: null; FromIndex: -1; ToIndex: -1; ScrollX: -1; ScrollY: -1; MaxScrollX: -1; MaxScrollY: -1; AddedCount: -1; RemovedCount: -1; ParcelableData: null ]'
p401
sS'MovementGranularity'
p402
g6
sa(dp403
S'EventTime'
p404
S'338682329'
p405
sg4
L1449713738863L
sS'recordCount'
p406
g6
sS'EventType'
p407
S'TYPE_WINDOW_CONTENT_CHANGED'
p408
sS'PackageName'
p409
S'com.example.myfristandroid'
p410
sS'OutBounds'
p411
S'Rect(0, 0 - 480, 800)'
p412
sS'Action'
p413
S'[ ClassName: android.widget.FrameLayout; Text: []; ContentDescription: null; ItemCount: -1; CurrentItemIndex: -1; IsEnabled: true; IsPassword: false; IsChecked: false; IsFullScreen: false; Scrollable: false; BeforeText: null; FromIndex: -1; ToIndex: -1; ScrollX: -1; ScrollY: -1; MaxScrollX: -1; MaxScrollY: -1; AddedCount: -1; RemovedCount: -1; ParcelableData: null ]'
p414
sS'MovementGranularity'
p415
g6
sa(dp416
S'EventTime'
p417
S'338684508'
p418
sg4
L1449713741046L
sS'recordCount'
p419
g6
sS'EventType'
p420
S'TYPE_WINDOW_CONTENT_CHANGED'
p421
sS'PackageName'
p422
S'com.example.myfristandroid'
p423
sS'OutBounds'
p424
S'Rect(0, 0 - 800, 480)'
p425
sS'Action'
p426
S'[ ClassName: android.widget.FrameLayout; Text: []; ContentDescription: null; ItemCount: -1; CurrentItemIndex: -1; IsEnabled: true; IsPassword: false; IsChecked: false; IsFullScreen: false; Scrollable: false; BeforeText: null; FromIndex: -1; ToIndex: -1; ScrollX: -1; ScrollY: -1; MaxScrollX: -1; MaxScrollY: -1; AddedCount: -1; RemovedCount: -1; ParcelableData: null ]'
p427
sS'MovementGranularity'
p428
g6
sa(dp429
S'EventTime'
p430
S'338684670'
p431
sg4
L1449713741204L
sS'recordCount'
p432
g6
sS'EventType'
p433
S'TYPE_WINDOW_CONTENT_CHANGED'
p434
sS'PackageName'
p435
S'com.example.myfristandroid'
p436
sS'OutBounds'
p437
S'Rect(0, 0 - 800, 480)'
p438
sS'Action'
p439
S'[ ClassName: android.widget.FrameLayout; Text: []; ContentDescription: null; ItemCount: -1; CurrentItemIndex: -1; IsEnabled: true; IsPassword: false; IsChecked: false; IsFullScreen: false; Scrollable: false; BeforeText: null; FromIndex: -1; ToIndex: -1; ScrollX: -1; ScrollY: -1; MaxScrollX: -1; MaxScrollY: -1; AddedCount: -1; RemovedCount: -1; ParcelableData: null ]'
p440
sS'MovementGranularity'
p441
g6
sa(dp442
S'EventTime'
p443
S'338688955'
p444
sg4
L1449713745523L
sS'recordCount'
p445
g6
sS'EventType'
p446
S'TYPE_WINDOW_STATE_CHANGED'
p447
sS'PackageName'
p448
S'com.example.myfristandroid'
p449
sS'OutBounds'
p450
S'Rect(0, 0 - 480, 800)'
p451
sS'Action'
p452
S'[ ClassName: com.example.myfristandroid.MainActivity; Text: [SE-1800\xe7\xa7\xbb\xe5\x8a\xa8APP]; ContentDescription: null; ItemCount: -1; CurrentItemIndex: -1; IsEnabled: true; IsPassword: false; IsChecked: false; IsFullScreen: true; Scrollable: false; BeforeText: null; FromIndex: -1; ToIndex: -1; ScrollX: -1; ScrollY: -1; MaxScrollX: -1; MaxScrollY: -1; AddedCount: -1; RemovedCount: -1; ParcelableData: null ]'
p453
sS'MovementGranularity'
p454
g6
sa(dp455
S'EventTime'
p456
S'338690873'
p457
sg4
L1449713747402L
sS'recordCount'
p458
g159
sS'EventType'
p459
S'TYPE_VIEW_CLICKED'
p460
sS'PackageName'
p461
S'com.example.myfristandroid'
p462
sS'OutBounds'
p463
S'Rect(5, 268 - 161, 424)'
p464
sS'Action'
p465
S'[ ClassName: android.widget.RelativeLayout; Text: [\xe9\x80\x86\xe5\x8f\x98\xe5\x99\xa8]; ContentDescription: null; ItemCount: -1; CurrentItemIndex: -1; IsEnabled: true; IsPassword: false; IsChecked: false; IsFullScreen: false; Scrollable: false; BeforeText: null; FromIndex: -1; ToIndex: -1; ScrollX: -1; ScrollY: -1; MaxScrollX: -1; MaxScrollY: -1; AddedCount: -1; RemovedCount: -1; ParcelableData: null ]'
p466
sS'MovementGranularity'
p467
g6
sa(dp468
S'EventTime'
p469
S'338691070'
p470
sg4
L1449713747638L
sS'recordCount'
p471
g6
sS'EventType'
p472
S'TYPE_WINDOW_STATE_CHANGED'
p473
sS'PackageName'
p474
S'com.example.myfristandroid'
p475
sS'OutBounds'
p476
S'Rect(0, 0 - 480, 800)'
p477
sS'Action'
p478
S'[ ClassName: com.example.myfristandroid.graphWebShow; Text: [SE-1800\xe7\xa7\xbb\xe5\x8a\xa8APP]; ContentDescription: null; ItemCount: -1; CurrentItemIndex: -1; IsEnabled: true; IsPassword: false; IsChecked: false; IsFullScreen: true; Scrollable: false; BeforeText: null; FromIndex: -1; ToIndex: -1; ScrollX: -1; ScrollY: -1; MaxScrollX: -1; MaxScrollY: -1; AddedCount: -1; RemovedCount: -1; ParcelableData: null ]'
p479
sS'MovementGranularity'
p480
g6
sa(dp481
S'EventTime'
p482
S'338691206'
p483
sg4
L1449713747739L
sS'recordCount'
p484
g6
sS'EventType'
p485
S'TYPE_WINDOW_CONTENT_CHANGED'
p486
sS'PackageName'
p487
S'com.example.myfristandroid'
p488
sS'OutBounds'
p489
S'Rect(0, 0 - 480, 800)'
p490
sS'Action'
p491
S'[ ClassName: android.widget.FrameLayout; Text: []; ContentDescription: null; ItemCount: -1; CurrentItemIndex: -1; IsEnabled: true; IsPassword: false; IsChecked: false; IsFullScreen: false; Scrollable: false; BeforeText: null; FromIndex: -1; ToIndex: -1; ScrollX: -1; ScrollY: -1; MaxScrollX: -1; MaxScrollY: -1; AddedCount: -1; RemovedCount: -1; ParcelableData: null ]'
p492
sS'MovementGranularity'
p493
g6
sa(dp494
S'EventTime'
p495
S'338693001'
p496
sg4
L1449713749572L
sS'recordCount'
p497
g6
sS'EventType'
p498
S'TYPE_WINDOW_CONTENT_CHANGED'
p499
sS'PackageName'
p500
S'com.example.myfristandroid'
p501
sS'OutBounds'
p502
S'Rect(0, 0 - 800, 480)'
p503
sS'Action'
p504
S'[ ClassName: android.widget.FrameLayout; Text: []; ContentDescription: null; ItemCount: -1; CurrentItemIndex: -1; IsEnabled: true; IsPassword: false; IsChecked: false; IsFullScreen: false; Scrollable: false; BeforeText: null; FromIndex: -1; ToIndex: -1; ScrollX: -1; ScrollY: -1; MaxScrollX: -1; MaxScrollY: -1; AddedCount: -1; RemovedCount: -1; ParcelableData: null ]'
p505
sS'MovementGranularity'
p506
g6
sa(dp507
S'EventTime'
p508
S'338693168'
p509
sg4
L1449713749703L
sS'recordCount'
p510
g6
sS'EventType'
p511
S'TYPE_WINDOW_CONTENT_CHANGED'
p512
sS'PackageName'
p513
S'com.example.myfristandroid'
p514
sS'OutBounds'
p515
S'Rect(0, 0 - 800, 480)'
p516
sS'Action'
p517
S'[ ClassName: android.widget.FrameLayout; Text: []; ContentDescription: null; ItemCount: -1; CurrentItemIndex: -1; IsEnabled: true; IsPassword: false; IsChecked: false; IsFullScreen: false; Scrollable: false; BeforeText: null; FromIndex: -1; ToIndex: -1; ScrollX: -1; ScrollY: -1; MaxScrollX: -1; MaxScrollY: -1; AddedCount: -1; RemovedCount: -1; ParcelableData: null ]'
p518
sS'MovementGranularity'
p519
g6
sa(dp520
S'EventTime'
p521
S'338698780'
p522
sg4
L1449713755545L
sS'recordCount'
p523
g6
sS'EventType'
p524
S'TYPE_WINDOW_STATE_CHANGED'
p525
sS'PackageName'
p526
S'com.example.myfristandroid'
p527
sS'OutBounds'
p528
S'Rect(0, 0 - 480, 800)'
p529
sS'Action'
p530
S'[ ClassName: com.example.myfristandroid.MainActivity; Text: [SE-1800\xe7\xa7\xbb\xe5\x8a\xa8APP]; ContentDescription: null; ItemCount: -1; CurrentItemIndex: -1; IsEnabled: true; IsPassword: false; IsChecked: false; IsFullScreen: true; Scrollable: false; BeforeText: null; FromIndex: -1; ToIndex: -1; ScrollX: -1; ScrollY: -1; MaxScrollX: -1; MaxScrollY: -1; AddedCount: -1; RemovedCount: -1; ParcelableData: null ]'
p531
sS'MovementGranularity'
p532
g6
sa(dp533
S'EventTime'
p534
S'338704155'
p535
sg4
L1449713760685L
sS'recordCount'
p536
g159
sS'EventType'
p537
S'TYPE_VIEW_CLICKED'
p538
sS'PackageName'
p539
S'com.example.myfristandroid'
p540
sS'OutBounds'
p541
S'Rect(162, 111 - 318, 267)'
p542
sS'Action'
p543
S'[ ClassName: android.widget.RelativeLayout; Text: [\xe6\x9b\xb2\xe7\xba\xbf\xe5\x9b\xbe]; ContentDescription: null; ItemCount: -1; CurrentItemIndex: -1; IsEnabled: true; IsPassword: false; IsChecked: false; IsFullScreen: false; Scrollable: false; BeforeText: null; FromIndex: -1; ToIndex: -1; ScrollX: -1; ScrollY: -1; MaxScrollX: -1; MaxScrollY: -1; AddedCount: -1; RemovedCount: -1; ParcelableData: null ]'
p544
sS'MovementGranularity'
p545
g6
sa(dp546
S'EventTime'
p547
S'338704990'
p548
sg4
L1449713761545L
sS'recordCount'
p549
g6
sS'EventType'
p550
S'TYPE_WINDOW_STATE_CHANGED'
p551
sS'PackageName'
p552
S'com.example.myfristandroid'
p553
sS'OutBounds'
p554
S'Rect(0, 0 - 480, 800)'
p555
sS'Action'
p556
S'[ ClassName: com.example.myfristandroid.graphWebShow; Text: [SE-1800\xe7\xa7\xbb\xe5\x8a\xa8APP]; ContentDescription: null; ItemCount: -1; CurrentItemIndex: -1; IsEnabled: true; IsPassword: false; IsChecked: false; IsFullScreen: true; Scrollable: false; BeforeText: null; FromIndex: -1; ToIndex: -1; ScrollX: -1; ScrollY: -1; MaxScrollX: -1; MaxScrollY: -1; AddedCount: -1; RemovedCount: -1; ParcelableData: null ]'
p557
sS'MovementGranularity'
p558
g6
sa(dp559
S'EventTime'
p560
S'338705103'
p561
sg4
L1449713761636L
sS'recordCount'
p562
g6
sS'EventType'
p563
S'TYPE_WINDOW_CONTENT_CHANGED'
p564
sS'PackageName'
p565
S'com.example.myfristandroid'
p566
sS'OutBounds'
p567
S'Rect(0, 0 - 480, 800)'
p568
sS'Action'
p569
S'[ ClassName: android.widget.FrameLayout; Text: []; ContentDescription: null; ItemCount: -1; CurrentItemIndex: -1; IsEnabled: true; IsPassword: false; IsChecked: false; IsFullScreen: false; Scrollable: false; BeforeText: null; FromIndex: -1; ToIndex: -1; ScrollX: -1; ScrollY: -1; MaxScrollX: -1; MaxScrollY: -1; AddedCount: -1; RemovedCount: -1; ParcelableData: null ]'
p570
sS'MovementGranularity'
p571
g6
sa(dp572
S'EventTime'
p573
S'338706551'
p574
sg4
L1449713763104L
sS'recordCount'
p575
g6
sS'EventType'
p576
S'TYPE_WINDOW_CONTENT_CHANGED'
p577
sS'PackageName'
p578
S'com.example.myfristandroid'
p579
sS'OutBounds'
p580
S'Rect(0, 0 - 800, 480)'
p581
sS'Action'
p582
S'[ ClassName: android.widget.FrameLayout; Text: []; ContentDescription: null; ItemCount: -1; CurrentItemIndex: -1; IsEnabled: true; IsPassword: false; IsChecked: false; IsFullScreen: false; Scrollable: false; BeforeText: null; FromIndex: -1; ToIndex: -1; ScrollX: -1; ScrollY: -1; MaxScrollX: -1; MaxScrollY: -1; AddedCount: -1; RemovedCount: -1; ParcelableData: null ]'
p583
sS'MovementGranularity'
p584
g6
sa(dp585
S'EventTime'
p586
S'338709250'
p587
sg4
L1449713765799L
sS'recordCount'
p588
g6
sS'EventType'
p589
S'TYPE_WINDOW_STATE_CHANGED'
p590
sS'PackageName'
p591
S'com.example.myfristandroid'
p592
sS'OutBounds'
p593
S'Rect(325, 184 - 475, 334)'
p594
sS'Action'
p595
S'[ ClassName: com.example.myfristandroid.CustomProgressDialog; Text: []; ContentDescription: null; ItemCount: -1; CurrentItemIndex: -1; IsEnabled: true; IsPassword: false; IsChecked: false; IsFullScreen: false; Scrollable: false; BeforeText: null; FromIndex: -1; ToIndex: -1; ScrollX: -1; ScrollY: -1; MaxScrollX: -1; MaxScrollY: -1; AddedCount: -1; RemovedCount: -1; ParcelableData: null ]'
p596
sS'MovementGranularity'
p597
g6
sa(dp598
S'EventTime'
p599
S'338709331'
p600
sg4
L1449713765868L
sS'recordCount'
p601
g6
sS'EventType'
p602
S'TYPE_WINDOW_CONTENT_CHANGED'
p603
sS'PackageName'
p604
S'com.example.myfristandroid'
p605
sS'OutBounds'
p606
S'Rect(325, 184 - 475, 334)'
p607
sS'Action'
p608
S'[ ClassName: android.widget.FrameLayout; Text: []; ContentDescription: null; ItemCount: -1; CurrentItemIndex: -1; IsEnabled: true; IsPassword: false; IsChecked: false; IsFullScreen: false; Scrollable: false; BeforeText: null; FromIndex: -1; ToIndex: -1; ScrollX: -1; ScrollY: -1; MaxScrollX: -1; MaxScrollY: -1; AddedCount: -1; RemovedCount: -1; ParcelableData: null ]'
p609
sS'MovementGranularity'
p610
g6
sa(dp611
S'EventTime'
p612
S'338714459'
p613
sg4
L1449713770995L
sS'recordCount'
p614
g6
sS'EventType'
p615
S'TYPE_WINDOW_STATE_CHANGED'
p616
sS'PackageName'
p617
S'com.example.myfristandroid'
p618
sS'OutBounds'
p619
S'Rect(0, 0 - 800, 480)'
p620
sS'Action'
p621
S'[ ClassName: com.example.myfristandroid.graphWebShow; Text: [SE-1800\xe7\xa7\xbb\xe5\x8a\xa8APP]; ContentDescription: null; ItemCount: -1; CurrentItemIndex: -1; IsEnabled: true; IsPassword: false; IsChecked: false; IsFullScreen: true; Scrollable: false; BeforeText: null; FromIndex: -1; ToIndex: -1; ScrollX: -1; ScrollY: -1; MaxScrollX: -1; MaxScrollY: -1; AddedCount: -1; RemovedCount: -1; ParcelableData: null ]'
p622
sS'MovementGranularity'
p623
g6
sa(dp624
S'EventTime'
p625
S'338717946'
p626
sg4
L1449713774487L
sS'recordCount'
p627
g6
sS'EventType'
p628
S'TYPE_WINDOW_STATE_CHANGED'
p629
sS'PackageName'
p630
S'com.example.myfristandroid'
p631
sS'OutBounds'
p632
S'Rect(325, 184 - 475, 334)'
p633
sS'Action'
p634
S'[ ClassName: com.example.myfristandroid.CustomProgressDialog; Text: []; ContentDescription: null; ItemCount: -1; CurrentItemIndex: -1; IsEnabled: true; IsPassword: false; IsChecked: false; IsFullScreen: false; Scrollable: false; BeforeText: null; FromIndex: -1; ToIndex: -1; ScrollX: -1; ScrollY: -1; MaxScrollX: -1; MaxScrollY: -1; AddedCount: -1; RemovedCount: -1; ParcelableData: null ]'
p635
sS'MovementGranularity'
p636
g6
sa(dp637
S'EventTime'
p638
S'338718055'
p639
sg4
L1449713774595L
sS'recordCount'
p640
g6
sS'EventType'
p641
S'TYPE_WINDOW_CONTENT_CHANGED'
p642
sS'PackageName'
p643
S'com.example.myfristandroid'
p644
sS'OutBounds'
p645
S'Rect(325, 184 - 475, 334)'
p646
sS'Action'
p647
S'[ ClassName: android.widget.FrameLayout; Text: []; ContentDescription: null; ItemCount: -1; CurrentItemIndex: -1; IsEnabled: true; IsPassword: false; IsChecked: false; IsFullScreen: false; Scrollable: false; BeforeText: null; FromIndex: -1; ToIndex: -1; ScrollX: -1; ScrollY: -1; MaxScrollX: -1; MaxScrollY: -1; AddedCount: -1; RemovedCount: -1; ParcelableData: null ]'
p648
sS'MovementGranularity'
p649
g6
sa(dp650
S'EventTime'
p651
S'338720942'
p652
sg4
L1449713777477L
sS'recordCount'
p653
g6
sS'EventType'
p654
S'TYPE_WINDOW_STATE_CHANGED'
p655
sS'PackageName'
p656
S'com.example.myfristandroid'
p657
sS'OutBounds'
p658
S'Rect(0, 0 - 800, 480)'
p659
sS'Action'
p660
S'[ ClassName: com.example.myfristandroid.graphWebShow; Text: [SE-1800\xe7\xa7\xbb\xe5\x8a\xa8APP]; ContentDescription: null; ItemCount: -1; CurrentItemIndex: -1; IsEnabled: true; IsPassword: false; IsChecked: false; IsFullScreen: true; Scrollable: false; BeforeText: null; FromIndex: -1; ToIndex: -1; ScrollX: -1; ScrollY: -1; MaxScrollX: -1; MaxScrollY: -1; AddedCount: -1; RemovedCount: -1; ParcelableData: null ]'
p661
sS'MovementGranularity'
p662
g6
sa(dp663
S'EventTime'
p664
S'338725644'
p665
sg4
L1449713782197L
sS'recordCount'
p666
g6
sS'EventType'
p667
S'TYPE_WINDOW_STATE_CHANGED'
p668
sS'PackageName'
p669
S'com.example.myfristandroid'
p670
sS'OutBounds'
p671
S'Rect(325, 184 - 475, 334)'
p672
sS'Action'
p673
S'[ ClassName: com.example.myfristandroid.CustomProgressDialog; Text: []; ContentDescription: null; ItemCount: -1; CurrentItemIndex: -1; IsEnabled: true; IsPassword: false; IsChecked: false; IsFullScreen: false; Scrollable: false; BeforeText: null; FromIndex: -1; ToIndex: -1; ScrollX: -1; ScrollY: -1; MaxScrollX: -1; MaxScrollY: -1; AddedCount: -1; RemovedCount: -1; ParcelableData: null ]'
p674
sS'MovementGranularity'
p675
g6
sa(dp676
S'EventTime'
p677
S'338725762'
p678
sg4
L1449713782307L
sS'recordCount'
p679
g6
sS'EventType'
p680
S'TYPE_WINDOW_CONTENT_CHANGED'
p681
sS'PackageName'
p682
S'com.example.myfristandroid'
p683
sS'OutBounds'
p684
S'Rect(325, 184 - 475, 334)'
p685
sS'Action'
p686
S'[ ClassName: android.widget.FrameLayout; Text: []; ContentDescription: null; ItemCount: -1; CurrentItemIndex: -1; IsEnabled: true; IsPassword: false; IsChecked: false; IsFullScreen: false; Scrollable: false; BeforeText: null; FromIndex: -1; ToIndex: -1; ScrollX: -1; ScrollY: -1; MaxScrollX: -1; MaxScrollY: -1; AddedCount: -1; RemovedCount: -1; ParcelableData: null ]'
p687
sS'MovementGranularity'
p688
g6
sa(dp689
S'EventTime'
p690
S'338728356'
p691
sg4
L1449713784891L
sS'recordCount'
p692
g6
sS'EventType'
p693
S'TYPE_WINDOW_STATE_CHANGED'
p694
sS'PackageName'
p695
S'com.example.myfristandroid'
p696
sS'OutBounds'
p697
S'Rect(0, 0 - 800, 480)'
p698
sS'Action'
p699
S'[ ClassName: com.example.myfristandroid.graphWebShow; Text: [SE-1800\xe7\xa7\xbb\xe5\x8a\xa8APP]; ContentDescription: null; ItemCount: -1; CurrentItemIndex: -1; IsEnabled: true; IsPassword: false; IsChecked: false; IsFullScreen: true; Scrollable: false; BeforeText: null; FromIndex: -1; ToIndex: -1; ScrollX: -1; ScrollY: -1; MaxScrollX: -1; MaxScrollY: -1; AddedCount: -1; RemovedCount: -1; ParcelableData: null ]'
p700
sS'MovementGranularity'
p701
g6
sa(dp702
S'EventTime'
p703
S'338732463'
p704
sg4
L1449713789015L
sS'recordCount'
p705
g6
sS'EventType'
p706
S'TYPE_WINDOW_STATE_CHANGED'
p707
sS'PackageName'
p708
S'com.example.myfristandroid'
p709
sS'OutBounds'
p710
S'Rect(325, 184 - 475, 334)'
p711
sS'Action'
p712
S'[ ClassName: com.example.myfristandroid.CustomProgressDialog; Text: []; ContentDescription: null; ItemCount: -1; CurrentItemIndex: -1; IsEnabled: true; IsPassword: false; IsChecked: false; IsFullScreen: false; Scrollable: false; BeforeText: null; FromIndex: -1; ToIndex: -1; ScrollX: -1; ScrollY: -1; MaxScrollX: -1; MaxScrollY: -1; AddedCount: -1; RemovedCount: -1; ParcelableData: null ]'
p713
sS'MovementGranularity'
p714
g6
sa(dp715
S'EventTime'
p716
S'338732582'
p717
sg4
L1449713789113L
sS'recordCount'
p718
g6
sS'EventType'
p719
S'TYPE_WINDOW_CONTENT_CHANGED'
p720
sS'PackageName'
p721
S'com.example.myfristandroid'
p722
sS'OutBounds'
p723
S'Rect(325, 184 - 475, 334)'
p724
sS'Action'
p725
S'[ ClassName: android.widget.FrameLayout; Text: []; ContentDescription: null; ItemCount: -1; CurrentItemIndex: -1; IsEnabled: true; IsPassword: false; IsChecked: false; IsFullScreen: false; Scrollable: false; BeforeText: null; FromIndex: -1; ToIndex: -1; ScrollX: -1; ScrollY: -1; MaxScrollX: -1; MaxScrollY: -1; AddedCount: -1; RemovedCount: -1; ParcelableData: null ]'
p726
sS'MovementGranularity'
p727
g6
sa(dp728
S'EventTime'
p729
S'338736775'
p730
sg4
L1449713793313L
sS'recordCount'
p731
g6
sS'EventType'
p732
S'TYPE_WINDOW_STATE_CHANGED'
p733
sS'PackageName'
p734
S'com.example.myfristandroid'
p735
sS'OutBounds'
p736
S'Rect(0, 0 - 800, 480)'
p737
sS'Action'
p738
S'[ ClassName: com.example.myfristandroid.graphWebShow; Text: [SE-1800\xe7\xa7\xbb\xe5\x8a\xa8APP]; ContentDescription: null; ItemCount: -1; CurrentItemIndex: -1; IsEnabled: true; IsPassword: false; IsChecked: false; IsFullScreen: true; Scrollable: false; BeforeText: null; FromIndex: -1; ToIndex: -1; ScrollX: -1; ScrollY: -1; MaxScrollX: -1; MaxScrollY: -1; AddedCount: -1; RemovedCount: -1; ParcelableData: null ]'
p739
sS'MovementGranularity'
p740
g6
sa(dp741
S'EventTime'
p742
S'338763750'
p743
sg4
L1449713820281L
sS'recordCount'
p744
g6
sS'EventType'
p745
S'TYPE_WINDOW_STATE_CHANGED'
p746
sS'PackageName'
p747
S'com.example.myfristandroid'
p748
sS'Action'
p749
S'[ ClassName: com.example.myfristandroid.MainActivity; Text: [SE-1800\xe7\xa7\xbb\xe5\x8a\xa8APP]; ContentDescription: null; ItemCount: -1; CurrentItemIndex: -1; IsEnabled: true; IsPassword: false; IsChecked: false; IsFullScreen: true; Scrollable: false; BeforeText: null; FromIndex: -1; ToIndex: -1; ScrollX: -1; ScrollY: -1; MaxScrollX: -1; MaxScrollY: -1; AddedCount: -1; RemovedCount: -1; ParcelableData: null ]'
p750
sS'MovementGranularity'
p751
g6
sa(dp752
S'EventTime'
p753
S'338764177'
p754
sg4
L1449713820714L
sS'recordCount'
p755
g6
sS'EventType'
p756
S'TYPE_WINDOW_STATE_CHANGED'
p757
sS'PackageName'
p758
S'com.example.myfristandroid'
p759
sS'OutBounds'
p760
S'Rect(0, 0 - 480, 800)'
p761
sS'Action'
p762
S'[ ClassName: com.example.myfristandroid.HuzAlertDialog; Text: [\xe6\x8f\x90\xe7\xa4\xba, \xe7\x89\x88\xe6\x9c\xac\xe6\x9c\x89\xe6\x9b\xb4\xe6\x96\xb0\xef\xbc\x8c\xe6\x98\xaf\xe5\x90\xa6\xe9\x9c\x80\xe8\xa6\x81\xe6\x9b\xb4\xe6\x96\xb0, \xe7\xab\x8b\xe5\x8d\xb3\xe6\x9b\xb4\xe6\x96\xb0, \xe7\xa8\x8d\xe5\x90\x8e\xe6\x9b\xb4\xe6\x96\xb0]; ContentDescription: null; ItemCount: -1; CurrentItemIndex: -1; IsEnabled: true; IsPassword: false; IsChecked: false; IsFullScreen: true; Scrollable: false; BeforeText: null; FromIndex: -1; ToIndex: -1; ScrollX: -1; ScrollY: -1; MaxScrollX: -1; MaxScrollY: -1; AddedCount: -1; RemovedCount: -1; ParcelableData: null ]'
p763
sS'MovementGranularity'
p764
g6
sa(dp765
S'EventTime'
p766
S'338764191'
p767
sg4
L1449713820728L
sS'recordCount'
p768
g6
sS'EventType'
p769
S'TYPE_WINDOW_CONTENT_CHANGED'
p770
sS'PackageName'
p771
S'com.example.myfristandroid'
p772
sS'OutBounds'
p773
S'Rect(0, 0 - 480, 800)'
p774
sS'Action'
p775
S'[ ClassName: android.widget.FrameLayout; Text: []; ContentDescription: null; ItemCount: -1; CurrentItemIndex: -1; IsEnabled: true; IsPassword: false; IsChecked: false; IsFullScreen: false; Scrollable: false; BeforeText: null; FromIndex: -1; ToIndex: -1; ScrollX: -1; ScrollY: -1; MaxScrollX: -1; MaxScrollY: -1; AddedCount: -1; RemovedCount: -1; ParcelableData: null ]'
p776
sS'MovementGranularity'
p777
g6
sa(dp778
S'EventTime'
p779
S'338764320'
p780
sg4
L1449713820857L
sS'recordCount'
p781
g6
sS'EventType'
p782
S'TYPE_WINDOW_CONTENT_CHANGED'
p783
sS'PackageName'
p784
S'com.example.myfristandroid'
p785
sS'OutBounds'
p786
S'Rect(0, 0 - 480, 800)'
p787
sS'Action'
p788
S'[ ClassName: android.widget.FrameLayout; Text: []; ContentDescription: null; ItemCount: -1; CurrentItemIndex: -1; IsEnabled: true; IsPassword: false; IsChecked: false; IsFullScreen: false; Scrollable: false; BeforeText: null; FromIndex: -1; ToIndex: -1; ScrollX: -1; ScrollY: -1; MaxScrollX: -1; MaxScrollY: -1; AddedCount: -1; RemovedCount: -1; ParcelableData: null ]'
p789
sS'MovementGranularity'
p790
g6
sa(dp791
S'EventTime'
p792
S'338766364'
p793
sg4
L1449713822895L
sS'recordCount'
p794
g6
sS'EventType'
p795
S'TYPE_VIEW_CLICKED'
p796
sS'PackageName'
p797
S'com.example.myfristandroid'
p798
sS'OutBounds'
p799
S'Rect(249, 454 - 448, 526)'
p800
sS'Action'
p801
S'[ ClassName: android.widget.Button; Text: [\xe7\xa8\x8d\xe5\x90\x8e\xe6\x9b\xb4\xe6\x96\xb0]; ContentDescription: null; ItemCount: -1; CurrentItemIndex: -1; IsEnabled: true; IsPassword: false; IsChecked: false; IsFullScreen: false; Scrollable: false; BeforeText: null; FromIndex: -1; ToIndex: -1; ScrollX: -1; ScrollY: -1; MaxScrollX: -1; MaxScrollY: -1; AddedCount: -1; RemovedCount: -1; ParcelableData: null ]'
p802
sS'MovementGranularity'
p803
g6
sa(dp804
S'EventTime'
p805
S'338766429'
p806
sg4
L1449713822986L
sS'recordCount'
p807
g6
sS'EventType'
p808
S'TYPE_WINDOW_STATE_CHANGED'
p809
sS'PackageName'
p810
S'com.example.myfristandroid'
p811
sS'OutBounds'
p812
S'Rect(0, 0 - 480, 800)'
p813
sS'Action'
p814
S'[ ClassName: com.example.myfristandroid.MainActivity; Text: [SE-1800\xe7\xa7\xbb\xe5\x8a\xa8APP]; ContentDescription: null; ItemCount: -1; CurrentItemIndex: -1; IsEnabled: true; IsPassword: false; IsChecked: false; IsFullScreen: true; Scrollable: false; BeforeText: null; FromIndex: -1; ToIndex: -1; ScrollX: -1; ScrollY: -1; MaxScrollX: -1; MaxScrollY: -1; AddedCount: -1; RemovedCount: -1; ParcelableData: null ]'
p815
sS'MovementGranularity'
p816
g6
sa(dp817
S'EventTime'
p818
S'338768149'
p819
sg4
L1449713824679L
sS'recordCount'
p820
g159
sS'EventType'
p821
S'TYPE_VIEW_CLICKED'
p822
sS'PackageName'
p823
S'com.example.myfristandroid'
p824
sS'OutBounds'
p825
S'Rect(162, 111 - 318, 267)'
p826
sS'Action'
p827
S'[ ClassName: android.widget.RelativeLayout; Text: [\xe6\x9b\xb2\xe7\xba\xbf\xe5\x9b\xbe]; ContentDescription: null; ItemCount: -1; CurrentItemIndex: -1; IsEnabled: true; IsPassword: false; IsChecked: false; IsFullScreen: false; Scrollable: false; BeforeText: null; FromIndex: -1; ToIndex: -1; ScrollX: -1; ScrollY: -1; MaxScrollX: -1; MaxScrollY: -1; AddedCount: -1; RemovedCount: -1; ParcelableData: null ]'
p828
sS'MovementGranularity'
p829
g6
sa(dp830
S'EventTime'
p831
S'338768330'
p832
sg4
L1449713824864L
sS'recordCount'
p833
g6
sS'EventType'
p834
S'TYPE_WINDOW_STATE_CHANGED'
p835
sS'PackageName'
p836
S'com.example.myfristandroid'
p837
sS'OutBounds'
p838
S'Rect(0, 0 - 480, 800)'
p839
sS'Action'
p840
S'[ ClassName: com.example.myfristandroid.graphWebShow; Text: [SE-1800\xe7\xa7\xbb\xe5\x8a\xa8APP]; ContentDescription: null; ItemCount: -1; CurrentItemIndex: -1; IsEnabled: true; IsPassword: false; IsChecked: false; IsFullScreen: true; Scrollable: false; BeforeText: null; FromIndex: -1; ToIndex: -1; ScrollX: -1; ScrollY: -1; MaxScrollX: -1; MaxScrollY: -1; AddedCount: -1; RemovedCount: -1; ParcelableData: null ]'
p841
sS'MovementGranularity'
p842
g6
sa(dp843
S'EventTime'
p844
S'338768361'
p845
sg4
L1449713824896L
sS'recordCount'
p846
g6
sS'EventType'
p847
S'TYPE_WINDOW_CONTENT_CHANGED'
p848
sS'PackageName'
p849
S'com.example.myfristandroid'
p850
sS'OutBounds'
p851
S'Rect(0, 0 - 480, 800)'
p852
sS'Action'
p853
S'[ ClassName: android.widget.FrameLayout; Text: []; ContentDescription: null; ItemCount: -1; CurrentItemIndex: -1; IsEnabled: true; IsPassword: false; IsChecked: false; IsFullScreen: false; Scrollable: false; BeforeText: null; FromIndex: -1; ToIndex: -1; ScrollX: -1; ScrollY: -1; MaxScrollX: -1; MaxScrollY: -1; AddedCount: -1; RemovedCount: -1; ParcelableData: null ]'
p854
sS'MovementGranularity'
p855
g6
sa(dp856
S'EventTime'
p857
S'338769593'
p858
sg4
L1449713826134L
sS'recordCount'
p859
g6
sS'EventType'
p860
S'TYPE_WINDOW_CONTENT_CHANGED'
p861
sS'PackageName'
p862
S'com.example.myfristandroid'
p863
sS'OutBounds'
p864
S'Rect(0, 0 - 800, 480)'
p865
sS'Action'
p866
S'[ ClassName: android.widget.FrameLayout; Text: []; ContentDescription: null; ItemCount: -1; CurrentItemIndex: -1; IsEnabled: true; IsPassword: false; IsChecked: false; IsFullScreen: false; Scrollable: false; BeforeText: null; FromIndex: -1; ToIndex: -1; ScrollX: -1; ScrollY: -1; MaxScrollX: -1; MaxScrollY: -1; AddedCount: -1; RemovedCount: -1; ParcelableData: null ]'
p867
sS'MovementGranularity'
p868
g6
sa(dp869
S'EventTime'
p870
S'338769721'
p871
sg4
L1449713826260L
sS'recordCount'
p872
g6
sS'EventType'
p873
S'TYPE_WINDOW_CONTENT_CHANGED'
p874
sS'PackageName'
p875
S'com.example.myfristandroid'
p876
sS'OutBounds'
p877
S'Rect(0, 0 - 800, 480)'
p878
sS'Action'
p879
S'[ ClassName: android.widget.FrameLayout; Text: []; ContentDescription: null; ItemCount: -1; CurrentItemIndex: -1; IsEnabled: true; IsPassword: false; IsChecked: false; IsFullScreen: false; Scrollable: false; BeforeText: null; FromIndex: -1; ToIndex: -1; ScrollX: -1; ScrollY: -1; MaxScrollX: -1; MaxScrollY: -1; AddedCount: -1; RemovedCount: -1; ParcelableData: null ]'
p880
sS'MovementGranularity'
p881
g6
sa(dp882
S'EventTime'
p883
S'338777425'
p884
sg4
L1449713833983L
sS'recordCount'
p885
g6
sS'EventType'
p886
S'TYPE_WINDOW_STATE_CHANGED'
p887
sS'PackageName'
p888
S'com.example.myfristandroid'
p889
sS'OutBounds'
p890
S'Rect(325, 184 - 475, 334)'
p891
sS'Action'
p892
S'[ ClassName: com.example.myfristandroid.CustomProgressDialog; Text: []; ContentDescription: null; ItemCount: -1; CurrentItemIndex: -1; IsEnabled: true; IsPassword: false; IsChecked: false; IsFullScreen: false; Scrollable: false; BeforeText: null; FromIndex: -1; ToIndex: -1; ScrollX: -1; ScrollY: -1; MaxScrollX: -1; MaxScrollY: -1; AddedCount: -1; RemovedCount: -1; ParcelableData: null ]'
p893
sS'MovementGranularity'
p894
g6
sa(dp895
S'EventTime'
p896
S'338777509'
p897
sg4
L1449713834051L
sS'recordCount'
p898
g6
sS'EventType'
p899
S'TYPE_WINDOW_CONTENT_CHANGED'
p900
sS'PackageName'
p901
S'com.example.myfristandroid'
p902
sS'OutBounds'
p903
S'Rect(325, 184 - 475, 334)'
p904
sS'Action'
p905
S'[ ClassName: android.widget.FrameLayout; Text: []; ContentDescription: null; ItemCount: -1; CurrentItemIndex: -1; IsEnabled: true; IsPassword: false; IsChecked: false; IsFullScreen: false; Scrollable: false; BeforeText: null; FromIndex: -1; ToIndex: -1; ScrollX: -1; ScrollY: -1; MaxScrollX: -1; MaxScrollY: -1; AddedCount: -1; RemovedCount: -1; ParcelableData: null ]'
p906
sS'MovementGranularity'
p907
g6
sa(dp908
S'EventTime'
p909
S'338781422'
p910
sg4
L1449713837956L
sS'recordCount'
p911
g6
sS'EventType'
p912
S'TYPE_WINDOW_STATE_CHANGED'
p913
sS'PackageName'
p914
S'com.example.myfristandroid'
p915
sS'OutBounds'
p916
S'Rect(0, 0 - 800, 480)'
p917
sS'Action'
p918
S'[ ClassName: com.example.myfristandroid.graphWebShow; Text: [SE-1800\xe7\xa7\xbb\xe5\x8a\xa8APP]; ContentDescription: null; ItemCount: -1; CurrentItemIndex: -1; IsEnabled: true; IsPassword: false; IsChecked: false; IsFullScreen: true; Scrollable: false; BeforeText: null; FromIndex: -1; ToIndex: -1; ScrollX: -1; ScrollY: -1; MaxScrollX: -1; MaxScrollY: -1; AddedCount: -1; RemovedCount: -1; ParcelableData: null ]'
p919
sS'MovementGranularity'
p920
g6
sa(dp921
S'EventTime'
p922
S'338785653'
p923
sg4
L1449713842205L
sS'recordCount'
p924
g6
sS'EventType'
p925
S'TYPE_WINDOW_STATE_CHANGED'
p926
sS'PackageName'
p927
S'com.example.myfristandroid'
p928
sS'OutBounds'
p929
S'Rect(325, 184 - 475, 334)'
p930
sS'Action'
p931
S'[ ClassName: com.example.myfristandroid.CustomProgressDialog; Text: []; ContentDescription: null; ItemCount: -1; CurrentItemIndex: -1; IsEnabled: true; IsPassword: false; IsChecked: false; IsFullScreen: false; Scrollable: false; BeforeText: null; FromIndex: -1; ToIndex: -1; ScrollX: -1; ScrollY: -1; MaxScrollX: -1; MaxScrollY: -1; AddedCount: -1; RemovedCount: -1; ParcelableData: null ]'
p932
sS'MovementGranularity'
p933
g6
sa(dp934
S'EventTime'
p935
S'338785753'
p936
sg4
L1449713842301L
sS'recordCount'
p937
g6
sS'EventType'
p938
S'TYPE_WINDOW_CONTENT_CHANGED'
p939
sS'PackageName'
p940
S'com.example.myfristandroid'
p941
sS'OutBounds'
p942
S'Rect(325, 184 - 475, 334)'
p943
sS'Action'
p944
S'[ ClassName: android.widget.FrameLayout; Text: []; ContentDescription: null; ItemCount: -1; CurrentItemIndex: -1; IsEnabled: true; IsPassword: false; IsChecked: false; IsFullScreen: false; Scrollable: false; BeforeText: null; FromIndex: -1; ToIndex: -1; ScrollX: -1; ScrollY: -1; MaxScrollX: -1; MaxScrollY: -1; AddedCount: -1; RemovedCount: -1; ParcelableData: null ]'
p945
sS'MovementGranularity'
p946
g6
sa(dp947
S'EventTime'
p948
S'338789865'
p949
sg4
L1449713846410L
sS'recordCount'
p950
g6
sS'EventType'
p951
S'TYPE_WINDOW_STATE_CHANGED'
p952
sS'PackageName'
p953
S'com.example.myfristandroid'
p954
sS'OutBounds'
p955
S'Rect(0, 0 - 800, 480)'
p956
sS'Action'
p957
S'[ ClassName: com.example.myfristandroid.graphWebShow; Text: [SE-1800\xe7\xa7\xbb\xe5\x8a\xa8APP]; ContentDescription: null; ItemCount: -1; CurrentItemIndex: -1; IsEnabled: true; IsPassword: false; IsChecked: false; IsFullScreen: true; Scrollable: false; BeforeText: null; FromIndex: -1; ToIndex: -1; ScrollX: -1; ScrollY: -1; MaxScrollX: -1; MaxScrollY: -1; AddedCount: -1; RemovedCount: -1; ParcelableData: null ]'
p958
sS'MovementGranularity'
p959
g6
sa(dp960
S'EventTime'
p961
S'338801919'
p962
sg4
L1449713858541L
sS'recordCount'
p963
g6
sS'EventType'
p964
S'TYPE_WINDOW_STATE_CHANGED'
p965
sS'PackageName'
p966
S'com.example.myfristandroid'
p967
sS'OutBounds'
p968
S'Rect(325, 184 - 475, 334)'
p969
sS'Action'
p970
S'[ ClassName: com.example.myfristandroid.CustomProgressDialog; Text: []; ContentDescription: null; ItemCount: -1; CurrentItemIndex: -1; IsEnabled: true; IsPassword: false; IsChecked: false; IsFullScreen: false; Scrollable: false; BeforeText: null; FromIndex: -1; ToIndex: -1; ScrollX: -1; ScrollY: -1; MaxScrollX: -1; MaxScrollY: -1; AddedCount: -1; RemovedCount: -1; ParcelableData: null ]'
p971
sS'MovementGranularity'
p972
g6
sa(dp973
S'EventTime'
p974
S'338802017'
p975
sg4
L1449713858567L
sS'recordCount'
p976
g6
sS'EventType'
p977
S'TYPE_WINDOW_CONTENT_CHANGED'
p978
sS'PackageName'
p979
S'com.example.myfristandroid'
p980
sS'OutBounds'
p981
S'Rect(325, 184 - 475, 334)'
p982
sS'Action'
p983
S'[ ClassName: android.widget.FrameLayout; Text: []; ContentDescription: null; ItemCount: -1; CurrentItemIndex: -1; IsEnabled: true; IsPassword: false; IsChecked: false; IsFullScreen: false; Scrollable: false; BeforeText: null; FromIndex: -1; ToIndex: -1; ScrollX: -1; ScrollY: -1; MaxScrollX: -1; MaxScrollY: -1; AddedCount: -1; RemovedCount: -1; ParcelableData: null ]'
p984
sS'MovementGranularity'
p985
g6
sa(dp986
S'EventTime'
p987
S'338805069'
p988
sg4
L1449713861621L
sS'recordCount'
p989
g6
sS'EventType'
p990
S'TYPE_WINDOW_STATE_CHANGED'
p991
sS'PackageName'
p992
S'com.example.myfristandroid'
p993
sS'OutBounds'
p994
S'Rect(0, 0 - 800, 480)'
p995
sS'Action'
p996
S'[ ClassName: com.example.myfristandroid.graphWebShow; Text: [SE-1800\xe7\xa7\xbb\xe5\x8a\xa8APP]; ContentDescription: null; ItemCount: -1; CurrentItemIndex: -1; IsEnabled: true; IsPassword: false; IsChecked: false; IsFullScreen: true; Scrollable: false; BeforeText: null; FromIndex: -1; ToIndex: -1; ScrollX: -1; ScrollY: -1; MaxScrollX: -1; MaxScrollY: -1; AddedCount: -1; RemovedCount: -1; ParcelableData: null ]'
p997
sS'MovementGranularity'
p998
g6
sa(dp999
S'EventTime'
p1000
S'338843100'
p1001
sg4
L1449713899657L
sS'recordCount'
p1002
g6
sS'EventType'
p1003
S'TYPE_WINDOW_STATE_CHANGED'
p1004
sS'PackageName'
p1005
S'com.example.myfristandroid'
p1006
sS'OutBounds'
p1007
S'Rect(0, 0 - 480, 800)'
p1008
sS'Action'
p1009
S'[ ClassName: com.example.myfristandroid.MainActivity; Text: [SE-1800\xe7\xa7\xbb\xe5\x8a\xa8APP]; ContentDescription: null; ItemCount: -1; CurrentItemIndex: -1; IsEnabled: true; IsPassword: false; IsChecked: false; IsFullScreen: true; Scrollable: false; BeforeText: null; FromIndex: -1; ToIndex: -1; ScrollX: -1; ScrollY: -1; MaxScrollX: -1; MaxScrollY: -1; AddedCount: -1; RemovedCount: -1; ParcelableData: null ]'
p1010
sS'MovementGranularity'
p1011
g6
sa(dp1012
S'EventTime'
p1013
S'338846998'
p1014
sg4
L1449713903528L
sS'recordCount'
p1015
g159
sS'EventType'
p1016
S'TYPE_VIEW_CLICKED'
p1017
sS'PackageName'
p1018
S'com.example.myfristandroid'
p1019
sS'OutBounds'
p1020
S'Rect(162, 268 - 318, 424)'
p1021
sS'Action'
p1022
S'[ ClassName: android.widget.RelativeLayout; Text: [\xe6\xb1\x87\xe6\xb5\x81\xe7\xae\xb1]; ContentDescription: null; ItemCount: -1; CurrentItemIndex: -1; IsEnabled: true; IsPassword: false; IsChecked: false; IsFullScreen: false; Scrollable: false; BeforeText: null; FromIndex: -1; ToIndex: -1; ScrollX: -1; ScrollY: -1; MaxScrollX: -1; MaxScrollY: -1; AddedCount: -1; RemovedCount: -1; ParcelableData: null ]'
p1023
sS'MovementGranularity'
p1024
g6
sa(dp1025
S'EventTime'
p1026
S'338847209'
p1027
sg4
L1449713903752L
sS'recordCount'
p1028
g6
sS'EventType'
p1029
S'TYPE_WINDOW_STATE_CHANGED'
p1030
sS'PackageName'
p1031
S'com.example.myfristandroid'
p1032
sS'OutBounds'
p1033
S'Rect(0, 0 - 480, 800)'
p1034
sS'Action'
p1035
S'[ ClassName: com.example.myfristandroid.graphWebShow; Text: [SE-1800\xe7\xa7\xbb\xe5\x8a\xa8APP]; ContentDescription: null; ItemCount: -1; CurrentItemIndex: -1; IsEnabled: true; IsPassword: false; IsChecked: false; IsFullScreen: true; Scrollable: false; BeforeText: null; FromIndex: -1; ToIndex: -1; ScrollX: -1; ScrollY: -1; MaxScrollX: -1; MaxScrollY: -1; AddedCount: -1; RemovedCount: -1; ParcelableData: null ]'
p1036
sS'MovementGranularity'
p1037
g6
sa(dp1038
S'EventTime'
p1039
S'338847298'
p1040
sg4
L1449713903836L
sS'recordCount'
p1041
g6
sS'EventType'
p1042
S'TYPE_WINDOW_CONTENT_CHANGED'
p1043
sS'PackageName'
p1044
S'com.example.myfristandroid'
p1045
sS'OutBounds'
p1046
S'Rect(0, 0 - 480, 800)'
p1047
sS'Action'
p1048
S'[ ClassName: android.widget.FrameLayout; Text: []; ContentDescription: null; ItemCount: -1; CurrentItemIndex: -1; IsEnabled: true; IsPassword: false; IsChecked: false; IsFullScreen: false; Scrollable: false; BeforeText: null; FromIndex: -1; ToIndex: -1; ScrollX: -1; ScrollY: -1; MaxScrollX: -1; MaxScrollY: -1; AddedCount: -1; RemovedCount: -1; ParcelableData: null ]'
p1049
sS'MovementGranularity'
p1050
g6
sa(dp1051
S'EventTime'
p1052
S'338849779'
p1053
sg4
L1449713906322L
sS'recordCount'
p1054
g6
sS'EventType'
p1055
S'TYPE_WINDOW_CONTENT_CHANGED'
p1056
sS'PackageName'
p1057
S'com.example.myfristandroid'
p1058
sS'OutBounds'
p1059
S'Rect(0, 0 - 800, 480)'
p1060
sS'Action'
p1061
S'[ ClassName: android.widget.FrameLayout; Text: []; ContentDescription: null; ItemCount: -1; CurrentItemIndex: -1; IsEnabled: true; IsPassword: false; IsChecked: false; IsFullScreen: false; Scrollable: false; BeforeText: null; FromIndex: -1; ToIndex: -1; ScrollX: -1; ScrollY: -1; MaxScrollX: -1; MaxScrollY: -1; AddedCount: -1; RemovedCount: -1; ParcelableData: null ]'
p1062
sS'MovementGranularity'
p1063
g6
sa(dp1064
S'EventTime'
p1065
S'338853930'
p1066
sg4
L1449713910526L
sS'recordCount'
p1067
g6
sS'EventType'
p1068
S'TYPE_WINDOW_STATE_CHANGED'
p1069
sS'PackageName'
p1070
S'com.example.myfristandroid'
p1071
sS'OutBounds'
p1072
S'Rect(325, 184 - 475, 334)'
p1073
sS'Action'
p1074
S'[ ClassName: com.example.myfristandroid.CustomProgressDialog; Text: []; ContentDescription: null; ItemCount: -1; CurrentItemIndex: -1; IsEnabled: true; IsPassword: false; IsChecked: false; IsFullScreen: false; Scrollable: false; BeforeText: null; FromIndex: -1; ToIndex: -1; ScrollX: -1; ScrollY: -1; MaxScrollX: -1; MaxScrollY: -1; AddedCount: -1; RemovedCount: -1; ParcelableData: null ]'
p1075
sS'MovementGranularity'
p1076
g6
sa(dp1077
S'EventTime'
p1078
S'338853987'
p1079
sg4
L1449713910562L
sS'recordCount'
p1080
g6
sS'EventType'
p1081
S'TYPE_WINDOW_CONTENT_CHANGED'
p1082
sS'PackageName'
p1083
S'com.example.myfristandroid'
p1084
sS'OutBounds'
p1085
S'Rect(325, 184 - 475, 334)'
p1086
sS'Action'
p1087
S'[ ClassName: android.widget.FrameLayout; Text: []; ContentDescription: null; ItemCount: -1; CurrentItemIndex: -1; IsEnabled: true; IsPassword: false; IsChecked: false; IsFullScreen: false; Scrollable: false; BeforeText: null; FromIndex: -1; ToIndex: -1; ScrollX: -1; ScrollY: -1; MaxScrollX: -1; MaxScrollY: -1; AddedCount: -1; RemovedCount: -1; ParcelableData: null ]'
p1088
sS'MovementGranularity'
p1089
g6
sa(dp1090
S'EventTime'
p1091
S'338858727'
p1092
sg4
L1449713915262L
sS'recordCount'
p1093
g6
sS'EventType'
p1094
S'TYPE_WINDOW_STATE_CHANGED'
p1095
sS'PackageName'
p1096
S'com.example.myfristandroid'
p1097
sS'OutBounds'
p1098
S'Rect(0, 0 - 800, 480)'
p1099
sS'Action'
p1100
S'[ ClassName: com.example.myfristandroid.graphWebShow; Text: [SE-1800\xe7\xa7\xbb\xe5\x8a\xa8APP]; ContentDescription: null; ItemCount: -1; CurrentItemIndex: -1; IsEnabled: true; IsPassword: false; IsChecked: false; IsFullScreen: true; Scrollable: false; BeforeText: null; FromIndex: -1; ToIndex: -1; ScrollX: -1; ScrollY: -1; MaxScrollX: -1; MaxScrollY: -1; AddedCount: -1; RemovedCount: -1; ParcelableData: null ]'
p1101
sS'MovementGranularity'
p1102
g6
sa(dp1103
S'EventTime'
p1104
S'338878373'
p1105
sg4
L1449713934913L
sS'recordCount'
p1106
g6
sS'EventType'
p1107
S'TYPE_WINDOW_STATE_CHANGED'
p1108
sS'PackageName'
p1109
S'com.example.myfristandroid'
p1110
sS'OutBounds'
p1111
S'Rect(325, 184 - 475, 334)'
p1112
sS'Action'
p1113
S'[ ClassName: com.example.myfristandroid.CustomProgressDialog; Text: []; ContentDescription: null; ItemCount: -1; CurrentItemIndex: -1; IsEnabled: true; IsPassword: false; IsChecked: false; IsFullScreen: false; Scrollable: false; BeforeText: null; FromIndex: -1; ToIndex: -1; ScrollX: -1; ScrollY: -1; MaxScrollX: -1; MaxScrollY: -1; AddedCount: -1; RemovedCount: -1; ParcelableData: null ]'
p1114
sS'MovementGranularity'
p1115
g6
sa(dp1116
S'EventTime'
p1117
S'338878479'
p1118
sg4
L1449713935027L
sS'recordCount'
p1119
g6
sS'EventType'
p1120
S'TYPE_WINDOW_CONTENT_CHANGED'
p1121
sS'PackageName'
p1122
S'com.example.myfristandroid'
p1123
sS'OutBounds'
p1124
S'Rect(325, 184 - 475, 334)'
p1125
sS'Action'
p1126
S'[ ClassName: android.widget.FrameLayout; Text: []; ContentDescription: null; ItemCount: -1; CurrentItemIndex: -1; IsEnabled: true; IsPassword: false; IsChecked: false; IsFullScreen: false; Scrollable: false; BeforeText: null; FromIndex: -1; ToIndex: -1; ScrollX: -1; ScrollY: -1; MaxScrollX: -1; MaxScrollY: -1; AddedCount: -1; RemovedCount: -1; ParcelableData: null ]'
p1127
sS'MovementGranularity'
p1128
g6
sa(dp1129
S'EventTime'
p1130
S'338883777'
p1131
sg4
L1449713940310L
sS'recordCount'
p1132
g6
sS'EventType'
p1133
S'TYPE_WINDOW_STATE_CHANGED'
p1134
sS'PackageName'
p1135
S'com.example.myfristandroid'
p1136
sS'OutBounds'
p1137
S'Rect(0, 0 - 800, 480)'
p1138
sS'Action'
p1139
S'[ ClassName: com.example.myfristandroid.graphWebShow; Text: [SE-1800\xe7\xa7\xbb\xe5\x8a\xa8APP]; ContentDescription: null; ItemCount: -1; CurrentItemIndex: -1; IsEnabled: true; IsPassword: false; IsChecked: false; IsFullScreen: true; Scrollable: false; BeforeText: null; FromIndex: -1; ToIndex: -1; ScrollX: -1; ScrollY: -1; MaxScrollX: -1; MaxScrollY: -1; AddedCount: -1; RemovedCount: -1; ParcelableData: null ]'
p1140
sS'MovementGranularity'
p1141
g6
sa(dp1142
S'EventTime'
p1143
S'338904136'
p1144
sg4
L1449713960744L
sS'recordCount'
p1145
g6
sS'EventType'
p1146
S'TYPE_WINDOW_STATE_CHANGED'
p1147
sS'PackageName'
p1148
S'com.example.myfristandroid'
p1149
sS'OutBounds'
p1150
S'Rect(325, 184 - 475, 334)'
p1151
sS'Action'
p1152
S'[ ClassName: com.example.myfristandroid.CustomProgressDialog; Text: []; ContentDescription: null; ItemCount: -1; CurrentItemIndex: -1; IsEnabled: true; IsPassword: false; IsChecked: false; IsFullScreen: false; Scrollable: false; BeforeText: null; FromIndex: -1; ToIndex: -1; ScrollX: -1; ScrollY: -1; MaxScrollX: -1; MaxScrollY: -1; AddedCount: -1; RemovedCount: -1; ParcelableData: null ]'
p1153
sS'MovementGranularity'
p1154
g6
sa(dp1155
S'EventTime'
p1156
S'338904286'
p1157
sg4
L1449713960820L
sS'recordCount'
p1158
g6
sS'EventType'
p1159
S'TYPE_WINDOW_CONTENT_CHANGED'
p1160
sS'PackageName'
p1161
S'com.example.myfristandroid'
p1162
sS'OutBounds'
p1163
S'Rect(325, 184 - 475, 334)'
p1164
sS'Action'
p1165
S'[ ClassName: android.widget.FrameLayout; Text: []; ContentDescription: null; ItemCount: -1; CurrentItemIndex: -1; IsEnabled: true; IsPassword: false; IsChecked: false; IsFullScreen: false; Scrollable: false; BeforeText: null; FromIndex: -1; ToIndex: -1; ScrollX: -1; ScrollY: -1; MaxScrollX: -1; MaxScrollY: -1; AddedCount: -1; RemovedCount: -1; ParcelableData: null ]'
p1166
sS'MovementGranularity'
p1167
g6
sa(dp1168
S'EventTime'
p1169
S'338910967'
p1170
sg4
L1449713967501L
sS'recordCount'
p1171
g6
sS'EventType'
p1172
S'TYPE_WINDOW_STATE_CHANGED'
p1173
sS'PackageName'
p1174
S'com.example.myfristandroid'
p1175
sS'OutBounds'
p1176
S'Rect(0, 0 - 800, 480)'
p1177
sS'Action'
p1178
S'[ ClassName: com.example.myfristandroid.graphWebShow; Text: [SE-1800\xe7\xa7\xbb\xe5\x8a\xa8APP]; ContentDescription: null; ItemCount: -1; CurrentItemIndex: -1; IsEnabled: true; IsPassword: false; IsChecked: false; IsFullScreen: true; Scrollable: false; BeforeText: null; FromIndex: -1; ToIndex: -1; ScrollX: -1; ScrollY: -1; MaxScrollX: -1; MaxScrollY: -1; AddedCount: -1; RemovedCount: -1; ParcelableData: null ]'
p1179
sS'MovementGranularity'
p1180
g6
sa(dp1181
S'EventTime'
p1182
S'338915801'
p1183
sg4
L1449713972345L
sS'recordCount'
p1184
g6
sS'EventType'
p1185
S'TYPE_WINDOW_STATE_CHANGED'
p1186
sS'PackageName'
p1187
S'com.example.myfristandroid'
p1188
sS'OutBounds'
p1189
S'Rect(325, 184 - 475, 334)'
p1190
sS'Action'
p1191
S'[ ClassName: com.example.myfristandroid.CustomProgressDialog; Text: []; ContentDescription: null; ItemCount: -1; CurrentItemIndex: -1; IsEnabled: true; IsPassword: false; IsChecked: false; IsFullScreen: false; Scrollable: false; BeforeText: null; FromIndex: -1; ToIndex: -1; ScrollX: -1; ScrollY: -1; MaxScrollX: -1; MaxScrollY: -1; AddedCount: -1; RemovedCount: -1; ParcelableData: null ]'
p1192
sS'MovementGranularity'
p1193
g6
sa(dp1194
S'EventTime'
p1195
S'338915913'
p1196
sg4
L1449713972446L
sS'recordCount'
p1197
g6
sS'EventType'
p1198
S'TYPE_WINDOW_CONTENT_CHANGED'
p1199
sS'PackageName'
p1200
S'com.example.myfristandroid'
p1201
sS'OutBounds'
p1202
S'Rect(325, 184 - 475, 334)'
p1203
sS'Action'
p1204
S'[ ClassName: android.widget.FrameLayout; Text: []; ContentDescription: null; ItemCount: -1; CurrentItemIndex: -1; IsEnabled: true; IsPassword: false; IsChecked: false; IsFullScreen: false; Scrollable: false; BeforeText: null; FromIndex: -1; ToIndex: -1; ScrollX: -1; ScrollY: -1; MaxScrollX: -1; MaxScrollY: -1; AddedCount: -1; RemovedCount: -1; ParcelableData: null ]'
p1205
sS'MovementGranularity'
p1206
g6
sa(dp1207
S'EventTime'
p1208
S'338920165'
p1209
sg4
L1449713976698L
sS'recordCount'
p1210
g6
sS'EventType'
p1211
S'TYPE_WINDOW_STATE_CHANGED'
p1212
sS'PackageName'
p1213
S'com.example.myfristandroid'
p1214
sS'OutBounds'
p1215
S'Rect(0, 0 - 800, 480)'
p1216
sS'Action'
p1217
S'[ ClassName: com.example.myfristandroid.graphWebShow; Text: [SE-1800\xe7\xa7\xbb\xe5\x8a\xa8APP]; ContentDescription: null; ItemCount: -1; CurrentItemIndex: -1; IsEnabled: true; IsPassword: false; IsChecked: false; IsFullScreen: true; Scrollable: false; BeforeText: null; FromIndex: -1; ToIndex: -1; ScrollX: -1; ScrollY: -1; MaxScrollX: -1; MaxScrollY: -1; AddedCount: -1; RemovedCount: -1; ParcelableData: null ]'
p1218
sS'MovementGranularity'
p1219
g6
sa(dp1220
S'EventTime'
p1221
S'338928983'
p1222
sg4
L1449713985573L
sS'recordCount'
p1223
g6
sS'EventType'
p1224
S'TYPE_WINDOW_STATE_CHANGED'
p1225
sS'PackageName'
p1226
S'com.example.myfristandroid'
p1227
sS'OutBounds'
p1228
S'Rect(325, 184 - 475, 334)'
p1229
sS'Action'
p1230
S'[ ClassName: com.example.myfristandroid.CustomProgressDialog; Text: []; ContentDescription: null; ItemCount: -1; CurrentItemIndex: -1; IsEnabled: true; IsPassword: false; IsChecked: false; IsFullScreen: false; Scrollable: false; BeforeText: null; FromIndex: -1; ToIndex: -1; ScrollX: -1; ScrollY: -1; MaxScrollX: -1; MaxScrollY: -1; AddedCount: -1; RemovedCount: -1; ParcelableData: null ]'
p1231
sS'MovementGranularity'
p1232
g6
sa(dp1233
S'EventTime'
p1234
S'338929070'
p1235
sg4
L1449713985656L
sS'recordCount'
p1236
g6
sS'EventType'
p1237
S'TYPE_WINDOW_CONTENT_CHANGED'
p1238
sS'PackageName'
p1239
S'com.example.myfristandroid'
p1240
sS'OutBounds'
p1241
S'Rect(325, 184 - 475, 334)'
p1242
sS'Action'
p1243
S'[ ClassName: android.widget.FrameLayout; Text: []; ContentDescription: null; ItemCount: -1; CurrentItemIndex: -1; IsEnabled: true; IsPassword: false; IsChecked: false; IsFullScreen: false; Scrollable: false; BeforeText: null; FromIndex: -1; ToIndex: -1; ScrollX: -1; ScrollY: -1; MaxScrollX: -1; MaxScrollY: -1; AddedCount: -1; RemovedCount: -1; ParcelableData: null ]'
p1244
sS'MovementGranularity'
p1245
g6
sa(dp1246
S'EventTime'
p1247
S'338938077'
p1248
sg4
L1449713994612L
sS'recordCount'
p1249
g6
sS'EventType'
p1250
S'TYPE_WINDOW_STATE_CHANGED'
p1251
sS'PackageName'
p1252
S'com.example.myfristandroid'
p1253
sS'OutBounds'
p1254
S'Rect(0, 0 - 800, 480)'
p1255
sS'Action'
p1256
S'[ ClassName: com.example.myfristandroid.graphWebShow; Text: [SE-1800\xe7\xa7\xbb\xe5\x8a\xa8APP]; ContentDescription: null; ItemCount: -1; CurrentItemIndex: -1; IsEnabled: true; IsPassword: false; IsChecked: false; IsFullScreen: true; Scrollable: false; BeforeText: null; FromIndex: -1; ToIndex: -1; ScrollX: -1; ScrollY: -1; MaxScrollX: -1; MaxScrollY: -1; AddedCount: -1; RemovedCount: -1; ParcelableData: null ]'
p1257
sS'MovementGranularity'
p1258
g6
sa(dp1259
S'EventTime'
p1260
S'338945344'
p1261
sg4
L1449714001883L
sS'recordCount'
p1262
g6
sS'EventType'
p1263
S'TYPE_WINDOW_STATE_CHANGED'
p1264
sS'PackageName'
p1265
S'com.example.myfristandroid'
p1266
sS'OutBounds'
p1267
S'Rect(325, 184 - 475, 334)'
p1268
sS'Action'
p1269
S'[ ClassName: com.example.myfristandroid.CustomProgressDialog; Text: []; ContentDescription: null; ItemCount: -1; CurrentItemIndex: -1; IsEnabled: true; IsPassword: false; IsChecked: false; IsFullScreen: false; Scrollable: false; BeforeText: null; FromIndex: -1; ToIndex: -1; ScrollX: -1; ScrollY: -1; MaxScrollX: -1; MaxScrollY: -1; AddedCount: -1; RemovedCount: -1; ParcelableData: null ]'
p1270
sS'MovementGranularity'
p1271
g6
sa(dp1272
S'EventTime'
p1273
S'338945451'
p1274
sg4
L1449714002020L
sS'recordCount'
p1275
g6
sS'EventType'
p1276
S'TYPE_WINDOW_CONTENT_CHANGED'
p1277
sS'PackageName'
p1278
S'com.example.myfristandroid'
p1279
sS'OutBounds'
p1280
S'Rect(325, 184 - 475, 334)'
p1281
sS'Action'
p1282
S'[ ClassName: android.widget.FrameLayout; Text: []; ContentDescription: null; ItemCount: -1; CurrentItemIndex: -1; IsEnabled: true; IsPassword: false; IsChecked: false; IsFullScreen: false; Scrollable: false; BeforeText: null; FromIndex: -1; ToIndex: -1; ScrollX: -1; ScrollY: -1; MaxScrollX: -1; MaxScrollY: -1; AddedCount: -1; RemovedCount: -1; ParcelableData: null ]'
p1283
sS'MovementGranularity'
p1284
g6
sa(dp1285
S'EventTime'
p1286
S'338951413'
p1287
sg4
L1449714007945L
sS'recordCount'
p1288
g6
sS'EventType'
p1289
S'TYPE_WINDOW_STATE_CHANGED'
p1290
sS'PackageName'
p1291
S'com.example.myfristandroid'
p1292
sS'OutBounds'
p1293
S'Rect(0, 0 - 800, 480)'
p1294
sS'Action'
p1295
S'[ ClassName: com.example.myfristandroid.graphWebShow; Text: [SE-1800\xe7\xa7\xbb\xe5\x8a\xa8APP]; ContentDescription: null; ItemCount: -1; CurrentItemIndex: -1; IsEnabled: true; IsPassword: false; IsChecked: false; IsFullScreen: true; Scrollable: false; BeforeText: null; FromIndex: -1; ToIndex: -1; ScrollX: -1; ScrollY: -1; MaxScrollX: -1; MaxScrollY: -1; AddedCount: -1; RemovedCount: -1; ParcelableData: null ]'
p1296
sS'MovementGranularity'
p1297
g6
sa(dp1298
S'EventTime'
p1299
S'338955934'
p1300
sg4
L1449714012478L
sS'recordCount'
p1301
g6
sS'EventType'
p1302
S'TYPE_WINDOW_STATE_CHANGED'
p1303
sS'PackageName'
p1304
S'com.example.myfristandroid'
p1305
sS'OutBounds'
p1306
S'Rect(325, 184 - 475, 334)'
p1307
sS'Action'
p1308
S'[ ClassName: com.example.myfristandroid.CustomProgressDialog; Text: []; ContentDescription: null; ItemCount: -1; CurrentItemIndex: -1; IsEnabled: true; IsPassword: false; IsChecked: false; IsFullScreen: false; Scrollable: false; BeforeText: null; FromIndex: -1; ToIndex: -1; ScrollX: -1; ScrollY: -1; MaxScrollX: -1; MaxScrollY: -1; AddedCount: -1; RemovedCount: -1; ParcelableData: null ]'
p1309
sS'MovementGranularity'
p1310
g6
sa(dp1311
S'EventTime'
p1312
S'338956044'
p1313
sg4
L1449714012580L
sS'recordCount'
p1314
g6
sS'EventType'
p1315
S'TYPE_WINDOW_CONTENT_CHANGED'
p1316
sS'PackageName'
p1317
S'com.example.myfristandroid'
p1318
sS'OutBounds'
p1319
S'Rect(325, 184 - 475, 334)'
p1320
sS'Action'
p1321
S'[ ClassName: android.widget.FrameLayout; Text: []; ContentDescription: null; ItemCount: -1; CurrentItemIndex: -1; IsEnabled: true; IsPassword: false; IsChecked: false; IsFullScreen: false; Scrollable: false; BeforeText: null; FromIndex: -1; ToIndex: -1; ScrollX: -1; ScrollY: -1; MaxScrollX: -1; MaxScrollY: -1; AddedCount: -1; RemovedCount: -1; ParcelableData: null ]'
p1322
sS'MovementGranularity'
p1323
g6
sa(dp1324
S'EventTime'
p1325
S'338962018'
p1326
sg4
L1449714018551L
sS'recordCount'
p1327
g6
sS'EventType'
p1328
S'TYPE_WINDOW_STATE_CHANGED'
p1329
sS'PackageName'
p1330
S'com.example.myfristandroid'
p1331
sS'OutBounds'
p1332
S'Rect(0, 0 - 800, 480)'
p1333
sS'Action'
p1334
S'[ ClassName: com.example.myfristandroid.graphWebShow; Text: [SE-1800\xe7\xa7\xbb\xe5\x8a\xa8APP]; ContentDescription: null; ItemCount: -1; CurrentItemIndex: -1; IsEnabled: true; IsPassword: false; IsChecked: false; IsFullScreen: true; Scrollable: false; BeforeText: null; FromIndex: -1; ToIndex: -1; ScrollX: -1; ScrollY: -1; MaxScrollX: -1; MaxScrollY: -1; AddedCount: -1; RemovedCount: -1; ParcelableData: null ]'
p1335
sS'MovementGranularity'
p1336
g6
sa(dp1337
S'EventTime'
p1338
S'338968047'
p1339
sg4
L1449714024594L
sS'recordCount'
p1340
g6
sS'EventType'
p1341
S'TYPE_WINDOW_STATE_CHANGED'
p1342
sS'PackageName'
p1343
S'com.example.myfristandroid'
p1344
sS'OutBounds'
p1345
S'Rect(325, 184 - 475, 334)'
p1346
sS'Action'
p1347
S'[ ClassName: com.example.myfristandroid.CustomProgressDialog; Text: []; ContentDescription: null; ItemCount: -1; CurrentItemIndex: -1; IsEnabled: true; IsPassword: false; IsChecked: false; IsFullScreen: false; Scrollable: false; BeforeText: null; FromIndex: -1; ToIndex: -1; ScrollX: -1; ScrollY: -1; MaxScrollX: -1; MaxScrollY: -1; AddedCount: -1; RemovedCount: -1; ParcelableData: null ]'
p1348
sS'MovementGranularity'
p1349
g6
sa(dp1350
S'EventTime'
p1351
S'338968127'
p1352
sg4
L1449714024681L
sS'recordCount'
p1353
g6
sS'EventType'
p1354
S'TYPE_WINDOW_CONTENT_CHANGED'
p1355
sS'PackageName'
p1356
S'com.example.myfristandroid'
p1357
sS'OutBounds'
p1358
S'Rect(325, 184 - 475, 334)'
p1359
sS'Action'
p1360
S'[ ClassName: android.widget.FrameLayout; Text: []; ContentDescription: null; ItemCount: -1; CurrentItemIndex: -1; IsEnabled: true; IsPassword: false; IsChecked: false; IsFullScreen: false; Scrollable: false; BeforeText: null; FromIndex: -1; ToIndex: -1; ScrollX: -1; ScrollY: -1; MaxScrollX: -1; MaxScrollY: -1; AddedCount: -1; RemovedCount: -1; ParcelableData: null ]'
p1361
sS'MovementGranularity'
p1362
g6
sa(dp1363
S'EventTime'
p1364
S'338976185'
p1365
sg4
L1449714032729L
sS'recordCount'
p1366
g6
sS'EventType'
p1367
S'TYPE_WINDOW_STATE_CHANGED'
p1368
sS'PackageName'
p1369
S'com.example.myfristandroid'
p1370
sS'OutBounds'
p1371
S'Rect(0, 0 - 800, 480)'
p1372
sS'Action'
p1373
S'[ ClassName: com.example.myfristandroid.graphWebShow; Text: [SE-1800\xe7\xa7\xbb\xe5\x8a\xa8APP]; ContentDescription: null; ItemCount: -1; CurrentItemIndex: -1; IsEnabled: true; IsPassword: false; IsChecked: false; IsFullScreen: true; Scrollable: false; BeforeText: null; FromIndex: -1; ToIndex: -1; ScrollX: -1; ScrollY: -1; MaxScrollX: -1; MaxScrollY: -1; AddedCount: -1; RemovedCount: -1; ParcelableData: null ]'
p1374
sS'MovementGranularity'
p1375
g6
sa(dp1376
S'EventTime'
p1377
S'338982065'
p1378
sg4
L1449714038695L
sS'recordCount'
p1379
g6
sS'EventType'
p1380
S'TYPE_WINDOW_STATE_CHANGED'
p1381
sS'PackageName'
p1382
S'com.example.myfristandroid'
p1383
sS'OutBounds'
p1384
S'Rect(325, 184 - 475, 334)'
p1385
sS'Action'
p1386
S'[ ClassName: com.example.myfristandroid.CustomProgressDialog; Text: []; ContentDescription: null; ItemCount: -1; CurrentItemIndex: -1; IsEnabled: true; IsPassword: false; IsChecked: false; IsFullScreen: false; Scrollable: false; BeforeText: null; FromIndex: -1; ToIndex: -1; ScrollX: -1; ScrollY: -1; MaxScrollX: -1; MaxScrollY: -1; AddedCount: -1; RemovedCount: -1; ParcelableData: null ]'
p1387
sS'MovementGranularity'
p1388
g6
sa(dp1389
S'EventTime'
p1390
S'338982164'
p1391
sg4
L1449714038705L
sS'recordCount'
p1392
g6
sS'EventType'
p1393
S'TYPE_WINDOW_CONTENT_CHANGED'
p1394
sS'PackageName'
p1395
S'com.example.myfristandroid'
p1396
sS'OutBounds'
p1397
S'Rect(325, 184 - 475, 334)'
p1398
sS'Action'
p1399
S'[ ClassName: android.widget.FrameLayout; Text: []; ContentDescription: null; ItemCount: -1; CurrentItemIndex: -1; IsEnabled: true; IsPassword: false; IsChecked: false; IsFullScreen: false; Scrollable: false; BeforeText: null; FromIndex: -1; ToIndex: -1; ScrollX: -1; ScrollY: -1; MaxScrollX: -1; MaxScrollY: -1; AddedCount: -1; RemovedCount: -1; ParcelableData: null ]'
p1400
sS'MovementGranularity'
p1401
g6
sa(dp1402
S'EventTime'
p1403
S'338985471'
p1404
sg4
L1449714042007L
sS'recordCount'
p1405
g6
sS'EventType'
p1406
S'TYPE_WINDOW_STATE_CHANGED'
p1407
sS'PackageName'
p1408
S'com.example.myfristandroid'
p1409
sS'OutBounds'
p1410
S'Rect(0, 0 - 800, 480)'
p1411
sS'Action'
p1412
S'[ ClassName: com.example.myfristandroid.graphWebShow; Text: [SE-1800\xe7\xa7\xbb\xe5\x8a\xa8APP]; ContentDescription: null; ItemCount: -1; CurrentItemIndex: -1; IsEnabled: true; IsPassword: false; IsChecked: false; IsFullScreen: true; Scrollable: false; BeforeText: null; FromIndex: -1; ToIndex: -1; ScrollX: -1; ScrollY: -1; MaxScrollX: -1; MaxScrollY: -1; AddedCount: -1; RemovedCount: -1; ParcelableData: null ]'
p1413
sS'MovementGranularity'
p1414
g6
sa(dp1415
S'EventTime'
p1416
S'338994064'
p1417
sg4
L1449714050656L
sS'recordCount'
p1418
g6
sS'EventType'
p1419
S'TYPE_WINDOW_STATE_CHANGED'
p1420
sS'PackageName'
p1421
S'com.example.myfristandroid'
p1422
sS'OutBounds'
p1423
S'Rect(0, 0 - 480, 800)'
p1424
sS'Action'
p1425
S'[ ClassName: com.example.myfristandroid.MainActivity; Text: [SE-1800\xe7\xa7\xbb\xe5\x8a\xa8APP]; ContentDescription: null; ItemCount: -1; CurrentItemIndex: -1; IsEnabled: true; IsPassword: false; IsChecked: false; IsFullScreen: true; Scrollable: false; BeforeText: null; FromIndex: -1; ToIndex: -1; ScrollX: -1; ScrollY: -1; MaxScrollX: -1; MaxScrollY: -1; AddedCount: -1; RemovedCount: -1; ParcelableData: null ]'
p1426
sS'MovementGranularity'
p1427
g6
sa(dp1428
S'EventTime'
p1429
S'338996372'
p1430
sg4
L1449714052903L
sS'recordCount'
p1431
g159
sS'EventType'
p1432
S'TYPE_VIEW_CLICKED'
p1433
sS'PackageName'
p1434
S'com.example.myfristandroid'
p1435
sS'OutBounds'
p1436
S'Rect(5, 268 - 161, 424)'
p1437
sS'Action'
p1438
S'[ ClassName: android.widget.RelativeLayout; Text: [\xe9\x80\x86\xe5\x8f\x98\xe5\x99\xa8]; ContentDescription: null; ItemCount: -1; CurrentItemIndex: -1; IsEnabled: true; IsPassword: false; IsChecked: false; IsFullScreen: false; Scrollable: false; BeforeText: null; FromIndex: -1; ToIndex: -1; ScrollX: -1; ScrollY: -1; MaxScrollX: -1; MaxScrollY: -1; AddedCount: -1; RemovedCount: -1; ParcelableData: null ]'
p1439
sS'MovementGranularity'
p1440
g6
sa(dp1441
S'EventTime'
p1442
S'338996544'
p1443
sg4
L1449714053080L
sS'recordCount'
p1444
g6
sS'EventType'
p1445
S'TYPE_WINDOW_STATE_CHANGED'
p1446
sS'PackageName'
p1447
S'com.example.myfristandroid'
p1448
sS'OutBounds'
p1449
S'Rect(0, 0 - 480, 800)'
p1450
sS'Action'
p1451
S'[ ClassName: com.example.myfristandroid.graphWebShow; Text: [SE-1800\xe7\xa7\xbb\xe5\x8a\xa8APP]; ContentDescription: null; ItemCount: -1; CurrentItemIndex: -1; IsEnabled: true; IsPassword: false; IsChecked: false; IsFullScreen: true; Scrollable: false; BeforeText: null; FromIndex: -1; ToIndex: -1; ScrollX: -1; ScrollY: -1; MaxScrollX: -1; MaxScrollY: -1; AddedCount: -1; RemovedCount: -1; ParcelableData: null ]'
p1452
sS'MovementGranularity'
p1453
g6
sa(dp1454
S'EventTime'
p1455
S'338996577'
p1456
sg4
L1449714053113L
sS'recordCount'
p1457
g6
sS'EventType'
p1458
S'TYPE_WINDOW_CONTENT_CHANGED'
p1459
sS'PackageName'
p1460
S'com.example.myfristandroid'
p1461
sS'OutBounds'
p1462
S'Rect(0, 0 - 480, 800)'
p1463
sS'Action'
p1464
S'[ ClassName: android.widget.FrameLayout; Text: []; ContentDescription: null; ItemCount: -1; CurrentItemIndex: -1; IsEnabled: true; IsPassword: false; IsChecked: false; IsFullScreen: false; Scrollable: false; BeforeText: null; FromIndex: -1; ToIndex: -1; ScrollX: -1; ScrollY: -1; MaxScrollX: -1; MaxScrollY: -1; AddedCount: -1; RemovedCount: -1; ParcelableData: null ]'
p1465
sS'MovementGranularity'
p1466
g6
sa(dp1467
S'EventTime'
p1468
S'338998100'
p1469
sg4
L1449714054659L
sS'recordCount'
p1470
g6
sS'EventType'
p1471
S'TYPE_WINDOW_CONTENT_CHANGED'
p1472
sS'PackageName'
p1473
S'com.example.myfristandroid'
p1474
sS'OutBounds'
p1475
S'Rect(0, 0 - 800, 480)'
p1476
sS'Action'
p1477
S'[ ClassName: android.widget.FrameLayout; Text: []; ContentDescription: null; ItemCount: -1; CurrentItemIndex: -1; IsEnabled: true; IsPassword: false; IsChecked: false; IsFullScreen: false; Scrollable: false; BeforeText: null; FromIndex: -1; ToIndex: -1; ScrollX: -1; ScrollY: -1; MaxScrollX: -1; MaxScrollY: -1; AddedCount: -1; RemovedCount: -1; ParcelableData: null ]'
p1478
sS'MovementGranularity'
p1479
g6
sa(dp1480
S'EventTime'
p1481
S'338998230'
p1482
sg4
L1449714054776L
sS'recordCount'
p1483
g6
sS'EventType'
p1484
S'TYPE_WINDOW_CONTENT_CHANGED'
p1485
sS'PackageName'
p1486
S'com.example.myfristandroid'
p1487
sS'OutBounds'
p1488
S'Rect(0, 0 - 800, 480)'
p1489
sS'Action'
p1490
S'[ ClassName: android.widget.FrameLayout; Text: []; ContentDescription: null; ItemCount: -1; CurrentItemIndex: -1; IsEnabled: true; IsPassword: false; IsChecked: false; IsFullScreen: false; Scrollable: false; BeforeText: null; FromIndex: -1; ToIndex: -1; ScrollX: -1; ScrollY: -1; MaxScrollX: -1; MaxScrollY: -1; AddedCount: -1; RemovedCount: -1; ParcelableData: null ]'
p1491
sS'MovementGranularity'
p1492
g6
sa(dp1493
S'EventTime'
p1494
S'339007148'
p1495
sg4
L1449714063709L
sS'recordCount'
p1496
g6
sS'EventType'
p1497
S'TYPE_WINDOW_STATE_CHANGED'
p1498
sS'PackageName'
p1499
S'com.example.myfristandroid'
p1500
sS'OutBounds'
p1501
S'Rect(0, 0 - 480, 800)'
p1502
sS'Action'
p1503
S'[ ClassName: com.example.myfristandroid.MainActivity; Text: [SE-1800\xe7\xa7\xbb\xe5\x8a\xa8APP]; ContentDescription: null; ItemCount: -1; CurrentItemIndex: -1; IsEnabled: true; IsPassword: false; IsChecked: false; IsFullScreen: true; Scrollable: false; BeforeText: null; FromIndex: -1; ToIndex: -1; ScrollX: -1; ScrollY: -1; MaxScrollX: -1; MaxScrollY: -1; AddedCount: -1; RemovedCount: -1; ParcelableData: null ]'
p1504
sS'MovementGranularity'
p1505
g6
sa(dp1506
S'EventTime'
p1507
S'339009460'
p1508
sg4
L1449714065990L
sS'recordCount'
p1509
g159
sS'EventType'
p1510
S'TYPE_VIEW_CLICKED'
p1511
sS'PackageName'
p1512
S'com.example.myfristandroid'
p1513
sS'OutBounds'
p1514
S'Rect(162, 111 - 318, 267)'
p1515
sS'Action'
p1516
S'[ ClassName: android.widget.RelativeLayout; Text: [\xe6\x9b\xb2\xe7\xba\xbf\xe5\x9b\xbe]; ContentDescription: null; ItemCount: -1; CurrentItemIndex: -1; IsEnabled: true; IsPassword: false; IsChecked: false; IsFullScreen: false; Scrollable: false; BeforeText: null; FromIndex: -1; ToIndex: -1; ScrollX: -1; ScrollY: -1; MaxScrollX: -1; MaxScrollY: -1; AddedCount: -1; RemovedCount: -1; ParcelableData: null ]'
p1517
sS'MovementGranularity'
p1518
g6
sa(dp1519
S'EventTime'
p1520
S'339009593'
p1521
sg4
L1449714066131L
sS'recordCount'
p1522
g6
sS'EventType'
p1523
S'TYPE_WINDOW_STATE_CHANGED'
p1524
sS'PackageName'
p1525
S'com.example.myfristandroid'
p1526
sS'OutBounds'
p1527
S'Rect(0, 0 - 480, 800)'
p1528
sS'Action'
p1529
S'[ ClassName: com.example.myfristandroid.graphWebShow; Text: [SE-1800\xe7\xa7\xbb\xe5\x8a\xa8APP]; ContentDescription: null; ItemCount: -1; CurrentItemIndex: -1; IsEnabled: true; IsPassword: false; IsChecked: false; IsFullScreen: true; Scrollable: false; BeforeText: null; FromIndex: -1; ToIndex: -1; ScrollX: -1; ScrollY: -1; MaxScrollX: -1; MaxScrollY: -1; AddedCount: -1; RemovedCount: -1; ParcelableData: null ]'
p1530
sS'MovementGranularity'
p1531
g6
sa(dp1532
S'EventTime'
p1533
S'339009639'
p1534
sg4
L1449714066173L
sS'recordCount'
p1535
g6
sS'EventType'
p1536
S'TYPE_WINDOW_CONTENT_CHANGED'
p1537
sS'PackageName'
p1538
S'com.example.myfristandroid'
p1539
sS'OutBounds'
p1540
S'Rect(0, 0 - 480, 800)'
p1541
sS'Action'
p1542
S'[ ClassName: android.widget.FrameLayout; Text: []; ContentDescription: null; ItemCount: -1; CurrentItemIndex: -1; IsEnabled: true; IsPassword: false; IsChecked: false; IsFullScreen: false; Scrollable: false; BeforeText: null; FromIndex: -1; ToIndex: -1; ScrollX: -1; ScrollY: -1; MaxScrollX: -1; MaxScrollY: -1; AddedCount: -1; RemovedCount: -1; ParcelableData: null ]'
p1543
sS'MovementGranularity'
p1544
g6
sa(dp1545
S'EventTime'
p1546
S'339010883'
p1547
sg4
L1449714067419L
sS'recordCount'
p1548
g6
sS'EventType'
p1549
S'TYPE_WINDOW_CONTENT_CHANGED'
p1550
sS'PackageName'
p1551
S'com.example.myfristandroid'
p1552
sS'OutBounds'
p1553
S'Rect(0, 0 - 800, 480)'
p1554
sS'Action'
p1555
S'[ ClassName: android.widget.FrameLayout; Text: []; ContentDescription: null; ItemCount: -1; CurrentItemIndex: -1; IsEnabled: true; IsPassword: false; IsChecked: false; IsFullScreen: false; Scrollable: false; BeforeText: null; FromIndex: -1; ToIndex: -1; ScrollX: -1; ScrollY: -1; MaxScrollX: -1; MaxScrollY: -1; AddedCount: -1; RemovedCount: -1; ParcelableData: null ]'
p1556
sS'MovementGranularity'
p1557
g6
sa(dp1558
S'EventTime'
p1559
S'339011012'
p1560
sg4
L1449714067547L
sS'recordCount'
p1561
g6
sS'EventType'
p1562
S'TYPE_WINDOW_CONTENT_CHANGED'
p1563
sS'PackageName'
p1564
S'com.example.myfristandroid'
p1565
sS'OutBounds'
p1566
S'Rect(0, 0 - 800, 480)'
p1567
sS'Action'
p1568
S'[ ClassName: android.widget.FrameLayout; Text: []; ContentDescription: null; ItemCount: -1; CurrentItemIndex: -1; IsEnabled: true; IsPassword: false; IsChecked: false; IsFullScreen: false; Scrollable: false; BeforeText: null; FromIndex: -1; ToIndex: -1; ScrollX: -1; ScrollY: -1; MaxScrollX: -1; MaxScrollY: -1; AddedCount: -1; RemovedCount: -1; ParcelableData: null ]'
p1569
sS'MovementGranularity'
p1570
g6
sa(dp1571
S'EventTime'
p1572
S'339050594'
p1573
sg4
L1449714107186L
sS'recordCount'
p1574
g6
sS'EventType'
p1575
S'TYPE_WINDOW_STATE_CHANGED'
p1576
sS'PackageName'
p1577
S'com.example.myfristandroid'
p1578
sS'OutBounds'
p1579
S'Rect(0, 0 - 480, 800)'
p1580
sS'Action'
p1581
S'[ ClassName: com.example.myfristandroid.MainActivity; Text: [SE-1800\xe7\xa7\xbb\xe5\x8a\xa8APP]; ContentDescription: null; ItemCount: -1; CurrentItemIndex: -1; IsEnabled: true; IsPassword: false; IsChecked: false; IsFullScreen: true; Scrollable: false; BeforeText: null; FromIndex: -1; ToIndex: -1; ScrollX: -1; ScrollY: -1; MaxScrollX: -1; MaxScrollY: -1; AddedCount: -1; RemovedCount: -1; ParcelableData: null ]'
p1582
sS'MovementGranularity'
p1583
g6
sa(dp1584
S'EventTime'
p1585
S'339061153'
p1586
sg4
L1449714117683L
sS'recordCount'
p1587
g159
sS'EventType'
p1588
S'TYPE_VIEW_CLICKED'
p1589
sS'PackageName'
p1590
S'com.example.myfristandroid'
p1591
sS'OutBounds'
p1592
S'Rect(319, 111 - 475, 267)'
p1593
sS'Action'
p1594
S'[ ClassName: android.widget.RelativeLayout; Text: [\xe6\xa3\x92\xe5\x9b\xbe]; ContentDescription: null; ItemCount: -1; CurrentItemIndex: -1; IsEnabled: true; IsPassword: false; IsChecked: false; IsFullScreen: false; Scrollable: false; BeforeText: null; FromIndex: -1; ToIndex: -1; ScrollX: -1; ScrollY: -1; MaxScrollX: -1; MaxScrollY: -1; AddedCount: -1; RemovedCount: -1; ParcelableData: null ]'
p1595
sS'MovementGranularity'
p1596
g6
sa(dp1597
S'EventTime'
p1598
S'339061471'
p1599
sg4
L1449714118023L
sS'recordCount'
p1600
g6
sS'EventType'
p1601
S'TYPE_WINDOW_STATE_CHANGED'
p1602
sS'PackageName'
p1603
S'com.example.myfristandroid'
p1604
sS'OutBounds'
p1605
S'Rect(0, 0 - 480, 800)'
p1606
sS'Action'
p1607
S'[ ClassName: com.example.myfristandroid.graphWebShow; Text: [SE-1800\xe7\xa7\xbb\xe5\x8a\xa8APP]; ContentDescription: null; ItemCount: -1; CurrentItemIndex: -1; IsEnabled: true; IsPassword: false; IsChecked: false; IsFullScreen: true; Scrollable: false; BeforeText: null; FromIndex: -1; ToIndex: -1; ScrollX: -1; ScrollY: -1; MaxScrollX: -1; MaxScrollY: -1; AddedCount: -1; RemovedCount: -1; ParcelableData: null ]'
p1608
sS'MovementGranularity'
p1609
g6
sa(dp1610
S'EventTime'
p1611
S'339061475'
p1612
sg4
L1449714118036L
sS'recordCount'
p1613
g6
sS'EventType'
p1614
S'TYPE_WINDOW_CONTENT_CHANGED'
p1615
sS'PackageName'
p1616
S'com.example.myfristandroid'
p1617
sS'OutBounds'
p1618
S'Rect(0, 0 - 480, 800)'
p1619
sS'Action'
p1620
S'[ ClassName: android.widget.FrameLayout; Text: []; ContentDescription: null; ItemCount: -1; CurrentItemIndex: -1; IsEnabled: true; IsPassword: false; IsChecked: false; IsFullScreen: false; Scrollable: false; BeforeText: null; FromIndex: -1; ToIndex: -1; ScrollX: -1; ScrollY: -1; MaxScrollX: -1; MaxScrollY: -1; AddedCount: -1; RemovedCount: -1; ParcelableData: null ]'
p1621
sS'MovementGranularity'
p1622
g6
sa(dp1623
S'EventTime'
p1624
S'339061603'
p1625
sg4
L1449714118135L
sS'recordCount'
p1626
g6
sS'EventType'
p1627
S'TYPE_WINDOW_CONTENT_CHANGED'
p1628
sS'PackageName'
p1629
S'com.example.myfristandroid'
p1630
sS'OutBounds'
p1631
S'Rect(0, 0 - 480, 800)'
p1632
sS'Action'
p1633
S'[ ClassName: android.widget.FrameLayout; Text: []; ContentDescription: null; ItemCount: -1; CurrentItemIndex: -1; IsEnabled: true; IsPassword: false; IsChecked: false; IsFullScreen: false; Scrollable: false; BeforeText: null; FromIndex: -1; ToIndex: -1; ScrollX: -1; ScrollY: -1; MaxScrollX: -1; MaxScrollY: -1; AddedCount: -1; RemovedCount: -1; ParcelableData: null ]'
p1634
sS'MovementGranularity'
p1635
g6
sa(dp1636
S'EventTime'
p1637
S'339062769'
p1638
sg4
L1449714119320L
sS'recordCount'
p1639
g6
sS'EventType'
p1640
S'TYPE_WINDOW_CONTENT_CHANGED'
p1641
sS'PackageName'
p1642
S'com.example.myfristandroid'
p1643
sS'OutBounds'
p1644
S'Rect(0, 0 - 800, 480)'
p1645
sS'Action'
p1646
S'[ ClassName: android.widget.FrameLayout; Text: []; ContentDescription: null; ItemCount: -1; CurrentItemIndex: -1; IsEnabled: true; IsPassword: false; IsChecked: false; IsFullScreen: false; Scrollable: false; BeforeText: null; FromIndex: -1; ToIndex: -1; ScrollX: -1; ScrollY: -1; MaxScrollX: -1; MaxScrollY: -1; AddedCount: -1; RemovedCount: -1; ParcelableData: null ]'
p1647
sS'MovementGranularity'
p1648
g6
sa(dp1649
S'EventTime'
p1650
S'339081040'
p1651
sg4
L1449714137596L
sS'recordCount'
p1652
g6
sS'EventType'
p1653
S'TYPE_WINDOW_STATE_CHANGED'
p1654
sS'PackageName'
p1655
S'com.example.myfristandroid'
p1656
sS'OutBounds'
p1657
S'Rect(0, 0 - 480, 800)'
p1658
sS'Action'
p1659
S'[ ClassName: com.example.myfristandroid.MainActivity; Text: [SE-1800\xe7\xa7\xbb\xe5\x8a\xa8APP]; ContentDescription: null; ItemCount: -1; CurrentItemIndex: -1; IsEnabled: true; IsPassword: false; IsChecked: false; IsFullScreen: true; Scrollable: false; BeforeText: null; FromIndex: -1; ToIndex: -1; ScrollX: -1; ScrollY: -1; MaxScrollX: -1; MaxScrollY: -1; AddedCount: -1; RemovedCount: -1; ParcelableData: null ]'
p1660
sS'MovementGranularity'
p1661
g6
sa(dp1662
S'EventTime'
p1663
S'339083475'
p1664
sg4
L1449714140039L
sS'recordCount'
p1665
g159
sS'EventType'
p1666
S'TYPE_VIEW_CLICKED'
p1667
sS'PackageName'
p1668
S'com.example.myfristandroid'
p1669
sS'OutBounds'
p1670
S'Rect(5, 111 - 161, 267)'
p1671
sS'Action'
p1672
S'[ ClassName: android.widget.RelativeLayout; Text: [\xe4\xb8\x80\xe6\xac\xa1\xe6\x8e\xa5\xe7\xba\xbf\xe5\x9b\xbe]; ContentDescription: null; ItemCount: -1; CurrentItemIndex: -1; IsEnabled: true; IsPassword: false; IsChecked: false; IsFullScreen: false; Scrollable: false; BeforeText: null; FromIndex: -1; ToIndex: -1; ScrollX: -1; ScrollY: -1; MaxScrollX: -1; MaxScrollY: -1; AddedCount: -1; RemovedCount: -1; ParcelableData: null ]'
p1673
sS'MovementGranularity'
p1674
g6
sa(dp1675
S'EventTime'
p1676
S'339084432'
p1677
sg4
L1449714140967L
sS'recordCount'
p1678
g6
sS'EventType'
p1679
S'TYPE_WINDOW_STATE_CHANGED'
p1680
sS'PackageName'
p1681
S'com.example.myfristandroid'
p1682
sS'OutBounds'
p1683
S'Rect(0, 0 - 480, 800)'
p1684
sS'Action'
p1685
S'[ ClassName: com.example.myfristandroid.graphWebShow; Text: [SE-1800\xe7\xa7\xbb\xe5\x8a\xa8APP]; ContentDescription: null; ItemCount: -1; CurrentItemIndex: -1; IsEnabled: true; IsPassword: false; IsChecked: false; IsFullScreen: true; Scrollable: false; BeforeText: null; FromIndex: -1; ToIndex: -1; ScrollX: -1; ScrollY: -1; MaxScrollX: -1; MaxScrollY: -1; AddedCount: -1; RemovedCount: -1; ParcelableData: null ]'
p1686
sS'MovementGranularity'
p1687
g6
sa(dp1688
S'EventTime'
p1689
S'339084436'
p1690
sg4
L1449714140972L
sS'recordCount'
p1691
g6
sS'EventType'
p1692
S'TYPE_WINDOW_CONTENT_CHANGED'
p1693
sS'PackageName'
p1694
S'com.example.myfristandroid'
p1695
sS'OutBounds'
p1696
S'Rect(0, 0 - 480, 800)'
p1697
sS'Action'
p1698
S'[ ClassName: android.widget.FrameLayout; Text: []; ContentDescription: null; ItemCount: -1; CurrentItemIndex: -1; IsEnabled: true; IsPassword: false; IsChecked: false; IsFullScreen: false; Scrollable: false; BeforeText: null; FromIndex: -1; ToIndex: -1; ScrollX: -1; ScrollY: -1; MaxScrollX: -1; MaxScrollY: -1; AddedCount: -1; RemovedCount: -1; ParcelableData: null ]'
p1699
sS'MovementGranularity'
p1700
g6
sa(dp1701
S'EventTime'
p1702
S'339084544'
p1703
sg4
L1449714141077L
sS'recordCount'
p1704
g6
sS'EventType'
p1705
S'TYPE_WINDOW_CONTENT_CHANGED'
p1706
sS'PackageName'
p1707
S'com.example.myfristandroid'
p1708
sS'OutBounds'
p1709
S'Rect(0, 0 - 480, 800)'
p1710
sS'Action'
p1711
S'[ ClassName: android.widget.FrameLayout; Text: []; ContentDescription: null; ItemCount: -1; CurrentItemIndex: -1; IsEnabled: true; IsPassword: false; IsChecked: false; IsFullScreen: false; Scrollable: false; BeforeText: null; FromIndex: -1; ToIndex: -1; ScrollX: -1; ScrollY: -1; MaxScrollX: -1; MaxScrollY: -1; AddedCount: -1; RemovedCount: -1; ParcelableData: null ]'
p1712
sS'MovementGranularity'
p1713
g6
sa(dp1714
S'EventTime'
p1715
S'339087227'
p1716
sg4
L1449714143756L
sS'recordCount'
p1717
g6
sS'EventType'
p1718
S'TYPE_VIEW_CLICKED'
p1719
sS'PackageName'
p1720
S'com.example.myfristandroid'
p1721
sS'OutBounds'
p1722
S'Rect(0, 38 - 60, 106)'
p1723
sS'Action'
p1724
S'[ ClassName: android.widget.ImageButton; Text: []; ContentDescription: null; ItemCount: -1; CurrentItemIndex: -1; IsEnabled: true; IsPassword: false; IsChecked: false; IsFullScreen: false; Scrollable: false; BeforeText: null; FromIndex: -1; ToIndex: -1; ScrollX: -1; ScrollY: -1; MaxScrollX: -1; MaxScrollY: -1; AddedCount: -1; RemovedCount: -1; ParcelableData: null ]'
p1725
sS'MovementGranularity'
p1726
g6
sa(dp1727
S'EventTime'
p1728
S'339087295'
p1729
sg4
L1449714143847L
sS'recordCount'
p1730
g6
sS'EventType'
p1731
S'TYPE_WINDOW_STATE_CHANGED'
p1732
sS'PackageName'
p1733
S'com.example.myfristandroid'
p1734
sS'OutBounds'
p1735
S'Rect(0, 0 - 480, 800)'
p1736
sS'Action'
p1737
S'[ ClassName: com.example.myfristandroid.MainActivity; Text: [SE-1800\xe7\xa7\xbb\xe5\x8a\xa8APP]; ContentDescription: null; ItemCount: -1; CurrentItemIndex: -1; IsEnabled: true; IsPassword: false; IsChecked: false; IsFullScreen: true; Scrollable: false; BeforeText: null; FromIndex: -1; ToIndex: -1; ScrollX: -1; ScrollY: -1; MaxScrollX: -1; MaxScrollY: -1; AddedCount: -1; RemovedCount: -1; ParcelableData: null ]'
p1738
sS'MovementGranularity'
p1739
g6
sa(dp1740
S'EventTime'
p1741
S'339088531'
p1742
sg4
L1449714145089L
sS'recordCount'
p1743
g159
sS'EventType'
p1744
S'TYPE_VIEW_CLICKED'
p1745
sS'PackageName'
p1746
S'com.example.myfristandroid'
p1747
sS'OutBounds'
p1748
S'Rect(162, 111 - 318, 267)'
p1749
sS'Action'
p1750
S'[ ClassName: android.widget.RelativeLayout; Text: [\xe6\x9b\xb2\xe7\xba\xbf\xe5\x9b\xbe]; ContentDescription: null; ItemCount: -1; CurrentItemIndex: -1; IsEnabled: true; IsPassword: false; IsChecked: false; IsFullScreen: false; Scrollable: false; BeforeText: null; FromIndex: -1; ToIndex: -1; ScrollX: -1; ScrollY: -1; MaxScrollX: -1; MaxScrollY: -1; AddedCount: -1; RemovedCount: -1; ParcelableData: null ]'
p1751
sS'MovementGranularity'
p1752
g6
sa(dp1753
S'EventTime'
p1754
S'339088911'
p1755
sg4
L1449714145460L
sS'recordCount'
p1756
g6
sS'EventType'
p1757
S'TYPE_WINDOW_STATE_CHANGED'
p1758
sS'PackageName'
p1759
S'com.example.myfristandroid'
p1760
sS'OutBounds'
p1761
S'Rect(0, 0 - 480, 800)'
p1762
sS'Action'
p1763
S'[ ClassName: com.example.myfristandroid.graphWebShow; Text: [SE-1800\xe7\xa7\xbb\xe5\x8a\xa8APP]; ContentDescription: null; ItemCount: -1; CurrentItemIndex: -1; IsEnabled: true; IsPassword: false; IsChecked: false; IsFullScreen: true; Scrollable: false; BeforeText: null; FromIndex: -1; ToIndex: -1; ScrollX: -1; ScrollY: -1; MaxScrollX: -1; MaxScrollY: -1; AddedCount: -1; RemovedCount: -1; ParcelableData: null ]'
p1764
sS'MovementGranularity'
p1765
g6
sa(dp1766
S'EventTime'
p1767
S'339088914'
p1768
sg4
L1449714145469L
sS'recordCount'
p1769
g6
sS'EventType'
p1770
S'TYPE_WINDOW_CONTENT_CHANGED'
p1771
sS'PackageName'
p1772
S'com.example.myfristandroid'
p1773
sS'OutBounds'
p1774
S'Rect(0, 0 - 480, 800)'
p1775
sS'Action'
p1776
S'[ ClassName: android.widget.FrameLayout; Text: []; ContentDescription: null; ItemCount: -1; CurrentItemIndex: -1; IsEnabled: true; IsPassword: false; IsChecked: false; IsFullScreen: false; Scrollable: false; BeforeText: null; FromIndex: -1; ToIndex: -1; ScrollX: -1; ScrollY: -1; MaxScrollX: -1; MaxScrollY: -1; AddedCount: -1; RemovedCount: -1; ParcelableData: null ]'
p1777
sS'MovementGranularity'
p1778
g6
sa(dp1779
S'EventTime'
p1780
S'339089026'
p1781
sg4
L1449714145679L
sS'recordCount'
p1782
g6
sS'EventType'
p1783
S'TYPE_WINDOW_CONTENT_CHANGED'
p1784
sS'PackageName'
p1785
S'com.example.myfristandroid'
p1786
sS'OutBounds'
p1787
S'Rect(0, 0 - 480, 800)'
p1788
sS'Action'
p1789
S'[ ClassName: android.widget.FrameLayout; Text: []; ContentDescription: null; ItemCount: -1; CurrentItemIndex: -1; IsEnabled: true; IsPassword: false; IsChecked: false; IsFullScreen: false; Scrollable: false; BeforeText: null; FromIndex: -1; ToIndex: -1; ScrollX: -1; ScrollY: -1; MaxScrollX: -1; MaxScrollY: -1; AddedCount: -1; RemovedCount: -1; ParcelableData: null ]'
p1790
sS'MovementGranularity'
p1791
g6
sa(dp1792
S'EventTime'
p1793
S'339090487'
p1794
sg4
L1449714147034L
sS'recordCount'
p1795
g6
sS'EventType'
p1796
S'TYPE_WINDOW_CONTENT_CHANGED'
p1797
sS'PackageName'
p1798
S'com.example.myfristandroid'
p1799
sS'OutBounds'
p1800
S'Rect(0, 0 - 800, 480)'
p1801
sS'Action'
p1802
S'[ ClassName: android.widget.FrameLayout; Text: []; ContentDescription: null; ItemCount: -1; CurrentItemIndex: -1; IsEnabled: true; IsPassword: false; IsChecked: false; IsFullScreen: false; Scrollable: false; BeforeText: null; FromIndex: -1; ToIndex: -1; ScrollX: -1; ScrollY: -1; MaxScrollX: -1; MaxScrollY: -1; AddedCount: -1; RemovedCount: -1; ParcelableData: null ]'
p1803
sS'MovementGranularity'
p1804
g6
sa(dp1805
S'EventTime'
p1806
S'339090621'
p1807
sg4
L1449714147155L
sS'recordCount'
p1808
g6
sS'EventType'
p1809
S'TYPE_WINDOW_CONTENT_CHANGED'
p1810
sS'PackageName'
p1811
S'com.example.myfristandroid'
p1812
sS'OutBounds'
p1813
S'Rect(0, 0 - 800, 480)'
p1814
sS'Action'
p1815
S'[ ClassName: android.widget.FrameLayout; Text: []; ContentDescription: null; ItemCount: -1; CurrentItemIndex: -1; IsEnabled: true; IsPassword: false; IsChecked: false; IsFullScreen: false; Scrollable: false; BeforeText: null; FromIndex: -1; ToIndex: -1; ScrollX: -1; ScrollY: -1; MaxScrollX: -1; MaxScrollY: -1; AddedCount: -1; RemovedCount: -1; ParcelableData: null ]'
p1816
sS'MovementGranularity'
p1817
g6
sa(dp1818
S'EventTime'
p1819
S'339100107'
p1820
sg4
L1449714156766L
sS'recordCount'
p1821
g6
sS'EventType'
p1822
S'TYPE_WINDOW_STATE_CHANGED'
p1823
sS'PackageName'
p1824
S'com.example.myfristandroid'
p1825
sS'OutBounds'
p1826
S'Rect(0, 0 - 480, 800)'
p1827
sS'Action'
p1828
S'[ ClassName: com.example.myfristandroid.MainActivity; Text: [SE-1800\xe7\xa7\xbb\xe5\x8a\xa8APP]; ContentDescription: null; ItemCount: -1; CurrentItemIndex: -1; IsEnabled: true; IsPassword: false; IsChecked: false; IsFullScreen: true; Scrollable: false; BeforeText: null; FromIndex: -1; ToIndex: -1; ScrollX: -1; ScrollY: -1; MaxScrollX: -1; MaxScrollY: -1; AddedCount: -1; RemovedCount: -1; ParcelableData: null ]'
p1829
sS'MovementGranularity'
p1830
g6
sa(dp1831
S'EventTime'
p1832
S'339101389'
p1833
sg4
L1449714157946L
sS'recordCount'
p1834
g159
sS'EventType'
p1835
S'TYPE_VIEW_CLICKED'
p1836
sS'PackageName'
p1837
S'com.example.myfristandroid'
p1838
sS'OutBounds'
p1839
S'Rect(5, 111 - 161, 267)'
p1840
sS'Action'
p1841
S'[ ClassName: android.widget.RelativeLayout; Text: [\xe4\xb8\x80\xe6\xac\xa1\xe6\x8e\xa5\xe7\xba\xbf\xe5\x9b\xbe]; ContentDescription: null; ItemCount: -1; CurrentItemIndex: -1; IsEnabled: true; IsPassword: false; IsChecked: false; IsFullScreen: false; Scrollable: false; BeforeText: null; FromIndex: -1; ToIndex: -1; ScrollX: -1; ScrollY: -1; MaxScrollX: -1; MaxScrollY: -1; AddedCount: -1; RemovedCount: -1; ParcelableData: null ]'
p1842
sS'MovementGranularity'
p1843
g6
sa(dp1844
S'EventTime'
p1845
S'339101751'
p1846
sg4
L1449714158306L
sS'recordCount'
p1847
g6
sS'EventType'
p1848
S'TYPE_WINDOW_STATE_CHANGED'
p1849
sS'PackageName'
p1850
S'com.example.myfristandroid'
p1851
sS'OutBounds'
p1852
S'Rect(0, 0 - 480, 800)'
p1853
sS'Action'
p1854
S'[ ClassName: com.example.myfristandroid.graphWebShow; Text: [SE-1800\xe7\xa7\xbb\xe5\x8a\xa8APP]; ContentDescription: null; ItemCount: -1; CurrentItemIndex: -1; IsEnabled: true; IsPassword: false; IsChecked: false; IsFullScreen: true; Scrollable: false; BeforeText: null; FromIndex: -1; ToIndex: -1; ScrollX: -1; ScrollY: -1; MaxScrollX: -1; MaxScrollY: -1; AddedCount: -1; RemovedCount: -1; ParcelableData: null ]'
p1855
sS'MovementGranularity'
p1856
g6
sa(dp1857
S'EventTime'
p1858
S'339101754'
p1859
sg4
L1449714158311L
sS'recordCount'
p1860
g6
sS'EventType'
p1861
S'TYPE_WINDOW_CONTENT_CHANGED'
p1862
sS'PackageName'
p1863
S'com.example.myfristandroid'
p1864
sS'OutBounds'
p1865
S'Rect(0, 0 - 480, 800)'
p1866
sS'Action'
p1867
S'[ ClassName: android.widget.FrameLayout; Text: []; ContentDescription: null; ItemCount: -1; CurrentItemIndex: -1; IsEnabled: true; IsPassword: false; IsChecked: false; IsFullScreen: false; Scrollable: false; BeforeText: null; FromIndex: -1; ToIndex: -1; ScrollX: -1; ScrollY: -1; MaxScrollX: -1; MaxScrollY: -1; AddedCount: -1; RemovedCount: -1; ParcelableData: null ]'
p1868
sS'MovementGranularity'
p1869
g6
sa(dp1870
S'EventTime'
p1871
S'339101878'
p1872
sg4
L1449714158413L
sS'recordCount'
p1873
g6
sS'EventType'
p1874
S'TYPE_WINDOW_CONTENT_CHANGED'
p1875
sS'PackageName'
p1876
S'com.example.myfristandroid'
p1877
sS'OutBounds'
p1878
S'Rect(0, 0 - 480, 800)'
p1879
sS'Action'
p1880
S'[ ClassName: android.widget.FrameLayout; Text: []; ContentDescription: null; ItemCount: -1; CurrentItemIndex: -1; IsEnabled: true; IsPassword: false; IsChecked: false; IsFullScreen: false; Scrollable: false; BeforeText: null; FromIndex: -1; ToIndex: -1; ScrollX: -1; ScrollY: -1; MaxScrollX: -1; MaxScrollY: -1; AddedCount: -1; RemovedCount: -1; ParcelableData: null ]'
p1881
sS'MovementGranularity'
p1882
g6
sa(dp1883
S'EventTime'
p1884
S'339109006'
p1885
sg4
L1449714165540L
sS'recordCount'
p1886
g6
sS'EventType'
p1887
S'TYPE_VIEW_CLICKED'
p1888
sS'PackageName'
p1889
S'com.example.myfristandroid'
p1890
sS'OutBounds'
p1891
S'Rect(0, 38 - 60, 106)'
p1892
sS'Action'
p1893
S'[ ClassName: android.widget.ImageButton; Text: []; ContentDescription: null; ItemCount: -1; CurrentItemIndex: -1; IsEnabled: true; IsPassword: false; IsChecked: false; IsFullScreen: false; Scrollable: false; BeforeText: null; FromIndex: -1; ToIndex: -1; ScrollX: -1; ScrollY: -1; MaxScrollX: -1; MaxScrollY: -1; AddedCount: -1; RemovedCount: -1; ParcelableData: null ]'
p1894
sS'MovementGranularity'
p1895
g6
sa(dp1896
S'EventTime'
p1897
S'339109067'
p1898
sg4
L1449714165619L
sS'recordCount'
p1899
g6
sS'EventType'
p1900
S'TYPE_WINDOW_STATE_CHANGED'
p1901
sS'PackageName'
p1902
S'com.example.myfristandroid'
p1903
sS'OutBounds'
p1904
S'Rect(0, 0 - 480, 800)'
p1905
sS'Action'
p1906
S'[ ClassName: com.example.myfristandroid.MainActivity; Text: [SE-1800\xe7\xa7\xbb\xe5\x8a\xa8APP]; ContentDescription: null; ItemCount: -1; CurrentItemIndex: -1; IsEnabled: true; IsPassword: false; IsChecked: false; IsFullScreen: true; Scrollable: false; BeforeText: null; FromIndex: -1; ToIndex: -1; ScrollX: -1; ScrollY: -1; MaxScrollX: -1; MaxScrollY: -1; AddedCount: -1; RemovedCount: -1; ParcelableData: null ]'
p1907
sS'MovementGranularity'
p1908
g6
sa(dp1909
S'EventTime'
p1910
S'339116723'
p1911
sg4
L1449714173335L
sS'recordCount'
p1912
g159
sS'EventType'
p1913
S'TYPE_VIEW_CLICKED'
p1914
sS'PackageName'
p1915
S'com.example.myfristandroid'
p1916
sS'OutBounds'
p1917
S'Rect(5, 268 - 161, 424)'
p1918
sS'Action'
p1919
S'[ ClassName: android.widget.RelativeLayout; Text: [\xe9\x80\x86\xe5\x8f\x98\xe5\x99\xa8]; ContentDescription: null; ItemCount: -1; CurrentItemIndex: -1; IsEnabled: true; IsPassword: false; IsChecked: false; IsFullScreen: false; Scrollable: false; BeforeText: null; FromIndex: -1; ToIndex: -1; ScrollX: -1; ScrollY: -1; MaxScrollX: -1; MaxScrollY: -1; AddedCount: -1; RemovedCount: -1; ParcelableData: null ]'
p1920
sS'MovementGranularity'
p1921
g6
sa(dp1922
S'EventTime'
p1923
S'339117434'
p1924
sg4
L1449714173979L
sS'recordCount'
p1925
g6
sS'EventType'
p1926
S'TYPE_WINDOW_STATE_CHANGED'
p1927
sS'PackageName'
p1928
S'com.example.myfristandroid'
p1929
sS'OutBounds'
p1930
S'Rect(0, 0 - 480, 800)'
p1931
sS'Action'
p1932
S'[ ClassName: com.example.myfristandroid.graphWebShow; Text: [SE-1800\xe7\xa7\xbb\xe5\x8a\xa8APP]; ContentDescription: null; ItemCount: -1; CurrentItemIndex: -1; IsEnabled: true; IsPassword: false; IsChecked: false; IsFullScreen: true; Scrollable: false; BeforeText: null; FromIndex: -1; ToIndex: -1; ScrollX: -1; ScrollY: -1; MaxScrollX: -1; MaxScrollY: -1; AddedCount: -1; RemovedCount: -1; ParcelableData: null ]'
p1933
sS'MovementGranularity'
p1934
g6
sa(dp1935
S'EventTime'
p1936
S'339117439'
p1937
sg4
L1449714173985L
sS'recordCount'
p1938
g6
sS'EventType'
p1939
S'TYPE_WINDOW_CONTENT_CHANGED'
p1940
sS'PackageName'
p1941
S'com.example.myfristandroid'
p1942
sS'OutBounds'
p1943
S'Rect(0, 0 - 480, 800)'
p1944
sS'Action'
p1945
S'[ ClassName: android.widget.FrameLayout; Text: []; ContentDescription: null; ItemCount: -1; CurrentItemIndex: -1; IsEnabled: true; IsPassword: false; IsChecked: false; IsFullScreen: false; Scrollable: false; BeforeText: null; FromIndex: -1; ToIndex: -1; ScrollX: -1; ScrollY: -1; MaxScrollX: -1; MaxScrollY: -1; AddedCount: -1; RemovedCount: -1; ParcelableData: null ]'
p1946
sS'MovementGranularity'
p1947
g6
sa(dp1948
S'EventTime'
p1949
S'339117548'
p1950
sg4
L1449714174084L
sS'recordCount'
p1951
g6
sS'EventType'
p1952
S'TYPE_WINDOW_CONTENT_CHANGED'
p1953
sS'PackageName'
p1954
S'com.example.myfristandroid'
p1955
sS'OutBounds'
p1956
S'Rect(0, 0 - 480, 800)'
p1957
sS'Action'
p1958
S'[ ClassName: android.widget.FrameLayout; Text: []; ContentDescription: null; ItemCount: -1; CurrentItemIndex: -1; IsEnabled: true; IsPassword: false; IsChecked: false; IsFullScreen: false; Scrollable: false; BeforeText: null; FromIndex: -1; ToIndex: -1; ScrollX: -1; ScrollY: -1; MaxScrollX: -1; MaxScrollY: -1; AddedCount: -1; RemovedCount: -1; ParcelableData: null ]'
p1959
sS'MovementGranularity'
p1960
g6
sa(dp1961
S'EventTime'
p1962
S'339118680'
p1963
sg4
L1449714175245L
sS'recordCount'
p1964
g6
sS'EventType'
p1965
S'TYPE_WINDOW_CONTENT_CHANGED'
p1966
sS'PackageName'
p1967
S'com.example.myfristandroid'
p1968
sS'OutBounds'
p1969
S'Rect(0, 0 - 800, 480)'
p1970
sS'Action'
p1971
S'[ ClassName: android.widget.FrameLayout; Text: []; ContentDescription: null; ItemCount: -1; CurrentItemIndex: -1; IsEnabled: true; IsPassword: false; IsChecked: false; IsFullScreen: false; Scrollable: false; BeforeText: null; FromIndex: -1; ToIndex: -1; ScrollX: -1; ScrollY: -1; MaxScrollX: -1; MaxScrollY: -1; AddedCount: -1; RemovedCount: -1; ParcelableData: null ]'
p1972
sS'MovementGranularity'
p1973
g6
sa(dp1974
S'EventTime'
p1975
S'339118815'
p1976
sg4
L1449714175361L
sS'recordCount'
p1977
g6
sS'EventType'
p1978
S'TYPE_WINDOW_CONTENT_CHANGED'
p1979
sS'PackageName'
p1980
S'com.example.myfristandroid'
p1981
sS'OutBounds'
p1982
S'Rect(0, 0 - 800, 480)'
p1983
sS'Action'
p1984
S'[ ClassName: android.widget.FrameLayout; Text: []; ContentDescription: null; ItemCount: -1; CurrentItemIndex: -1; IsEnabled: true; IsPassword: false; IsChecked: false; IsFullScreen: false; Scrollable: false; BeforeText: null; FromIndex: -1; ToIndex: -1; ScrollX: -1; ScrollY: -1; MaxScrollX: -1; MaxScrollY: -1; AddedCount: -1; RemovedCount: -1; ParcelableData: null ]'
p1985
sS'MovementGranularity'
p1986
g6
sa(dp1987
S'EventTime'
p1988
S'339122452'
p1989
sg4
L1449714179003L
sS'recordCount'
p1990
g6
sS'EventType'
p1991
S'TYPE_WINDOW_STATE_CHANGED'
p1992
sS'PackageName'
p1993
S'com.example.myfristandroid'
p1994
sS'OutBounds'
p1995
S'Rect(0, 0 - 480, 800)'
p1996
sS'Action'
p1997
S'[ ClassName: com.example.myfristandroid.MainActivity; Text: [SE-1800\xe7\xa7\xbb\xe5\x8a\xa8APP]; ContentDescription: null; ItemCount: -1; CurrentItemIndex: -1; IsEnabled: true; IsPassword: false; IsChecked: false; IsFullScreen: true; Scrollable: false; BeforeText: null; FromIndex: -1; ToIndex: -1; ScrollX: -1; ScrollY: -1; MaxScrollX: -1; MaxScrollY: -1; AddedCount: -1; RemovedCount: -1; ParcelableData: null ]'
p1998
sS'MovementGranularity'
p1999
g6
sa(dp2000
S'EventTime'
p2001
S'339132603'
p2002
sg4
L1449714189134L
sS'recordCount'
p2003
g159
sS'EventType'
p2004
S'TYPE_VIEW_CLICKED'
p2005
sS'PackageName'
p2006
S'com.example.myfristandroid'
p2007
sS'OutBounds'
p2008
S'Rect(5, 111 - 161, 267)'
p2009
sS'Action'
p2010
S'[ ClassName: android.widget.RelativeLayout; Text: [\xe4\xb8\x80\xe6\xac\xa1\xe6\x8e\xa5\xe7\xba\xbf\xe5\x9b\xbe]; ContentDescription: null; ItemCount: -1; CurrentItemIndex: -1; IsEnabled: true; IsPassword: false; IsChecked: false; IsFullScreen: false; Scrollable: false; BeforeText: null; FromIndex: -1; ToIndex: -1; ScrollX: -1; ScrollY: -1; MaxScrollX: -1; MaxScrollY: -1; AddedCount: -1; RemovedCount: -1; ParcelableData: null ]'
p2011
sS'MovementGranularity'
p2012
g6
sa(dp2013
S'EventTime'
p2014
S'339134752'
p2015
sg4
L1449714191346L
sS'recordCount'
p2016
g6
sS'EventType'
p2017
S'TYPE_WINDOW_STATE_CHANGED'
p2018
sS'PackageName'
p2019
S'com.example.myfristandroid'
p2020
sS'OutBounds'
p2021
S'Rect(0, 0 - 480, 800)'
p2022
sS'Action'
p2023
S'[ ClassName: com.example.myfristandroid.graphWebShow; Text: [SE-1800\xe7\xa7\xbb\xe5\x8a\xa8APP]; ContentDescription: null; ItemCount: -1; CurrentItemIndex: -1; IsEnabled: true; IsPassword: false; IsChecked: false; IsFullScreen: true; Scrollable: false; BeforeText: null; FromIndex: -1; ToIndex: -1; ScrollX: -1; ScrollY: -1; MaxScrollX: -1; MaxScrollY: -1; AddedCount: -1; RemovedCount: -1; ParcelableData: null ]'
p2024
sS'MovementGranularity'
p2025
g6
sa(dp2026
S'EventTime'
p2027
S'339134915'
p2028
sg4
L1449714191485L
sS'recordCount'
p2029
g6
sS'EventType'
p2030
S'TYPE_WINDOW_CONTENT_CHANGED'
p2031
sS'PackageName'
p2032
S'com.example.myfristandroid'
p2033
sS'OutBounds'
p2034
S'Rect(0, 0 - 480, 800)'
p2035
sS'Action'
p2036
S'[ ClassName: android.widget.FrameLayout; Text: []; ContentDescription: null; ItemCount: -1; CurrentItemIndex: -1; IsEnabled: true; IsPassword: false; IsChecked: false; IsFullScreen: false; Scrollable: false; BeforeText: null; FromIndex: -1; ToIndex: -1; ScrollX: -1; ScrollY: -1; MaxScrollX: -1; MaxScrollY: -1; AddedCount: -1; RemovedCount: -1; ParcelableData: null ]'
p2037
sS'MovementGranularity'
p2038
g6
sa(dp2039
S'EventTime'
p2040
S'339136566'
p2041
sg4
L1449714193120L
sS'recordCount'
p2042
g6
sS'EventType'
p2043
S'TYPE_VIEW_CLICKED'
p2044
sS'PackageName'
p2045
S'com.example.myfristandroid'
p2046
sS'OutBounds'
p2047
S'Rect(0, 38 - 60, 106)'
p2048
sS'Action'
p2049
S'[ ClassName: android.widget.ImageButton; Text: []; ContentDescription: null; ItemCount: -1; CurrentItemIndex: -1; IsEnabled: true; IsPassword: false; IsChecked: false; IsFullScreen: false; Scrollable: false; BeforeText: null; FromIndex: -1; ToIndex: -1; ScrollX: -1; ScrollY: -1; MaxScrollX: -1; MaxScrollY: -1; AddedCount: -1; RemovedCount: -1; ParcelableData: null ]'
p2050
sS'MovementGranularity'
p2051
g6
sa(dp2052
S'EventTime'
p2053
S'339136731'
p2054
sg4
L1449714193284L
sS'recordCount'
p2055
g6
sS'EventType'
p2056
S'TYPE_WINDOW_STATE_CHANGED'
p2057
sS'PackageName'
p2058
S'com.example.myfristandroid'
p2059
sS'OutBounds'
p2060
S'Rect(0, 0 - 480, 800)'
p2061
sS'Action'
p2062
S'[ ClassName: com.example.myfristandroid.MainActivity; Text: [SE-1800\xe7\xa7\xbb\xe5\x8a\xa8APP]; ContentDescription: null; ItemCount: -1; CurrentItemIndex: -1; IsEnabled: true; IsPassword: false; IsChecked: false; IsFullScreen: true; Scrollable: false; BeforeText: null; FromIndex: -1; ToIndex: -1; ScrollX: -1; ScrollY: -1; MaxScrollX: -1; MaxScrollY: -1; AddedCount: -1; RemovedCount: -1; ParcelableData: null ]'
p2063
sS'MovementGranularity'
p2064
g6
sa(dp2065
S'EventTime'
p2066
S'339141045'
p2067
sg4
L1449714197602L
sS'recordCount'
p2068
g159
sS'EventType'
p2069
S'TYPE_VIEW_CLICKED'
p2070
sS'PackageName'
p2071
S'com.example.myfristandroid'
p2072
sS'OutBounds'
p2073
S'Rect(162, 111 - 318, 267)'
p2074
sS'Action'
p2075
S'[ ClassName: android.widget.RelativeLayout; Text: [\xe6\x9b\xb2\xe7\xba\xbf\xe5\x9b\xbe]; ContentDescription: null; ItemCount: -1; CurrentItemIndex: -1; IsEnabled: true; IsPassword: false; IsChecked: false; IsFullScreen: false; Scrollable: false; BeforeText: null; FromIndex: -1; ToIndex: -1; ScrollX: -1; ScrollY: -1; MaxScrollX: -1; MaxScrollY: -1; AddedCount: -1; RemovedCount: -1; ParcelableData: null ]'
p2076
sS'MovementGranularity'
p2077
g6
sa(dp2078
S'EventTime'
p2079
S'339141348'
p2080
sg4
L1449714197899L
sS'recordCount'
p2081
g6
sS'EventType'
p2082
S'TYPE_WINDOW_STATE_CHANGED'
p2083
sS'PackageName'
p2084
S'com.example.myfristandroid'
p2085
sS'OutBounds'
p2086
S'Rect(0, 0 - 480, 800)'
p2087
sS'Action'
p2088
S'[ ClassName: com.example.myfristandroid.graphWebShow; Text: [SE-1800\xe7\xa7\xbb\xe5\x8a\xa8APP]; ContentDescription: null; ItemCount: -1; CurrentItemIndex: -1; IsEnabled: true; IsPassword: false; IsChecked: false; IsFullScreen: true; Scrollable: false; BeforeText: null; FromIndex: -1; ToIndex: -1; ScrollX: -1; ScrollY: -1; MaxScrollX: -1; MaxScrollY: -1; AddedCount: -1; RemovedCount: -1; ParcelableData: null ]'
p2089
sS'MovementGranularity'
p2090
g6
sa(dp2091
S'EventTime'
p2092
S'339141418'
p2093
sg4
L1449714197954L
sS'recordCount'
p2094
g6
sS'EventType'
p2095
S'TYPE_WINDOW_CONTENT_CHANGED'
p2096
sS'PackageName'
p2097
S'com.example.myfristandroid'
p2098
sS'OutBounds'
p2099
S'Rect(0, 0 - 480, 800)'
p2100
sS'Action'
p2101
S'[ ClassName: android.widget.FrameLayout; Text: []; ContentDescription: null; ItemCount: -1; CurrentItemIndex: -1; IsEnabled: true; IsPassword: false; IsChecked: false; IsFullScreen: false; Scrollable: false; BeforeText: null; FromIndex: -1; ToIndex: -1; ScrollX: -1; ScrollY: -1; MaxScrollX: -1; MaxScrollY: -1; AddedCount: -1; RemovedCount: -1; ParcelableData: null ]'
p2102
sS'MovementGranularity'
p2103
g6
sa(dp2104
S'EventTime'
p2105
S'339142589'
p2106
sg4
L1449714199132L
sS'recordCount'
p2107
g6
sS'EventType'
p2108
S'TYPE_WINDOW_CONTENT_CHANGED'
p2109
sS'PackageName'
p2110
S'com.example.myfristandroid'
p2111
sS'OutBounds'
p2112
S'Rect(0, 0 - 800, 480)'
p2113
sS'Action'
p2114
S'[ ClassName: android.widget.FrameLayout; Text: []; ContentDescription: null; ItemCount: -1; CurrentItemIndex: -1; IsEnabled: true; IsPassword: false; IsChecked: false; IsFullScreen: false; Scrollable: false; BeforeText: null; FromIndex: -1; ToIndex: -1; ScrollX: -1; ScrollY: -1; MaxScrollX: -1; MaxScrollY: -1; AddedCount: -1; RemovedCount: -1; ParcelableData: null ]'
p2115
sS'MovementGranularity'
p2116
g6
sa(dp2117
S'EventTime'
p2118
S'339149601'
p2119
sg4
L1449714206158L
sS'recordCount'
p2120
g6
sS'EventType'
p2121
S'TYPE_WINDOW_STATE_CHANGED'
p2122
sS'PackageName'
p2123
S'com.example.myfristandroid'
p2124
sS'OutBounds'
p2125
S'Rect(0, 0 - 480, 800)'
p2126
sS'Action'
p2127
S'[ ClassName: com.example.myfristandroid.MainActivity; Text: [SE-1800\xe7\xa7\xbb\xe5\x8a\xa8APP]; ContentDescription: null; ItemCount: -1; CurrentItemIndex: -1; IsEnabled: true; IsPassword: false; IsChecked: false; IsFullScreen: true; Scrollable: false; BeforeText: null; FromIndex: -1; ToIndex: -1; ScrollX: -1; ScrollY: -1; MaxScrollX: -1; MaxScrollY: -1; AddedCount: -1; RemovedCount: -1; ParcelableData: null ]'
p2128
sS'MovementGranularity'
p2129
g6
sa(dp2130
S'EventTime'
p2131
S'339152979'
p2132
sg4
L1449714209546L
sS'recordCount'
p2133
g159
sS'EventType'
p2134
S'TYPE_VIEW_CLICKED'
p2135
sS'PackageName'
p2136
S'com.example.myfristandroid'
p2137
sS'OutBounds'
p2138
S'Rect(162, 268 - 318, 424)'
p2139
sS'Action'
p2140
S'[ ClassName: android.widget.RelativeLayout; Text: [\xe6\xb1\x87\xe6\xb5\x81\xe7\xae\xb1]; ContentDescription: null; ItemCount: -1; CurrentItemIndex: -1; IsEnabled: true; IsPassword: false; IsChecked: false; IsFullScreen: false; Scrollable: false; BeforeText: null; FromIndex: -1; ToIndex: -1; ScrollX: -1; ScrollY: -1; MaxScrollX: -1; MaxScrollY: -1; AddedCount: -1; RemovedCount: -1; ParcelableData: null ]'
p2141
sS'MovementGranularity'
p2142
g6
sa(dp2143
S'EventTime'
p2144
S'339153262'
p2145
sg4
L1449714209795L
sS'recordCount'
p2146
g6
sS'EventType'
p2147
S'TYPE_WINDOW_STATE_CHANGED'
p2148
sS'PackageName'
p2149
S'com.example.myfristandroid'
p2150
sS'OutBounds'
p2151
S'Rect(0, 0 - 480, 800)'
p2152
sS'Action'
p2153
S'[ ClassName: com.example.myfristandroid.graphWebShow; Text: [SE-1800\xe7\xa7\xbb\xe5\x8a\xa8APP]; ContentDescription: null; ItemCount: -1; CurrentItemIndex: -1; IsEnabled: true; IsPassword: false; IsChecked: false; IsFullScreen: true; Scrollable: false; BeforeText: null; FromIndex: -1; ToIndex: -1; ScrollX: -1; ScrollY: -1; MaxScrollX: -1; MaxScrollY: -1; AddedCount: -1; RemovedCount: -1; ParcelableData: null ]'
p2154
sS'MovementGranularity'
p2155
g6
sa(dp2156
S'EventTime'
p2157
S'339153335'
p2158
sg4
L1449714209869L
sS'recordCount'
p2159
g6
sS'EventType'
p2160
S'TYPE_WINDOW_CONTENT_CHANGED'
p2161
sS'PackageName'
p2162
S'com.example.myfristandroid'
p2163
sS'OutBounds'
p2164
S'Rect(0, 0 - 480, 800)'
p2165
sS'Action'
p2166
S'[ ClassName: android.widget.FrameLayout; Text: []; ContentDescription: null; ItemCount: -1; CurrentItemIndex: -1; IsEnabled: true; IsPassword: false; IsChecked: false; IsFullScreen: false; Scrollable: false; BeforeText: null; FromIndex: -1; ToIndex: -1; ScrollX: -1; ScrollY: -1; MaxScrollX: -1; MaxScrollY: -1; AddedCount: -1; RemovedCount: -1; ParcelableData: null ]'
p2167
sS'MovementGranularity'
p2168
g6
sa(dp2169
S'EventTime'
p2170
S'339156197'
p2171
sg4
L1449714212737L
sS'recordCount'
p2172
g6
sS'EventType'
p2173
S'TYPE_WINDOW_CONTENT_CHANGED'
p2174
sS'PackageName'
p2175
S'com.example.myfristandroid'
p2176
sS'OutBounds'
p2177
S'Rect(0, 0 - 800, 480)'
p2178
sS'Action'
p2179
S'[ ClassName: android.widget.FrameLayout; Text: []; ContentDescription: null; ItemCount: -1; CurrentItemIndex: -1; IsEnabled: true; IsPassword: false; IsChecked: false; IsFullScreen: false; Scrollable: false; BeforeText: null; FromIndex: -1; ToIndex: -1; ScrollX: -1; ScrollY: -1; MaxScrollX: -1; MaxScrollY: -1; AddedCount: -1; RemovedCount: -1; ParcelableData: null ]'
p2180
sS'MovementGranularity'
p2181
g6
sa(dp2182
S'EventTime'
p2183
S'339158612'
p2184
sg4
L1449714215163L
sS'recordCount'
p2185
g6
sS'EventType'
p2186
S'TYPE_WINDOW_STATE_CHANGED'
p2187
sS'PackageName'
p2188
S'com.example.myfristandroid'
p2189
sS'OutBounds'
p2190
S'Rect(0, 0 - 480, 800)'
p2191
sS'Action'
p2192
S'[ ClassName: com.example.myfristandroid.MainActivity; Text: [SE-1800\xe7\xa7\xbb\xe5\x8a\xa8APP]; ContentDescription: null; ItemCount: -1; CurrentItemIndex: -1; IsEnabled: true; IsPassword: false; IsChecked: false; IsFullScreen: true; Scrollable: false; BeforeText: null; FromIndex: -1; ToIndex: -1; ScrollX: -1; ScrollY: -1; MaxScrollX: -1; MaxScrollY: -1; AddedCount: -1; RemovedCount: -1; ParcelableData: null ]'
p2193
sS'MovementGranularity'
p2194
g6
sa(dp2195
S'EventTime'
p2196
S'339167871'
p2197
sg4
L1449714224402L
sS'recordCount'
p2198
g159
sS'EventType'
p2199
S'TYPE_VIEW_CLICKED'
p2200
sS'PackageName'
p2201
S'com.example.myfristandroid'
p2202
sS'OutBounds'
p2203
S'Rect(319, 268 - 475, 424)'
p2204
sS'Action'
p2205
S'[ ClassName: android.widget.RelativeLayout; Text: [\xe7\x8e\xaf\xe5\xa2\x83\xe7\x9b\x91\xe6\xb5\x8b]; ContentDescription: null; ItemCount: -1; CurrentItemIndex: -1; IsEnabled: true; IsPassword: false; IsChecked: false; IsFullScreen: false; Scrollable: false; BeforeText: null; FromIndex: -1; ToIndex: -1; ScrollX: -1; ScrollY: -1; MaxScrollX: -1; MaxScrollY: -1; AddedCount: -1; RemovedCount: -1; ParcelableData: null ]'
p2206
sS'MovementGranularity'
p2207
g6
sa(dp2208
S'EventTime'
p2209
S'339168072'
p2210
sg4
L1449714224610L
sS'recordCount'
p2211
g6
sS'EventType'
p2212
S'TYPE_WINDOW_STATE_CHANGED'
p2213
sS'PackageName'
p2214
S'com.example.myfristandroid'
p2215
sS'OutBounds'
p2216
S'Rect(0, 0 - 480, 800)'
p2217
sS'Action'
p2218
S'[ ClassName: com.example.myfristandroid.graphWebShow; Text: [SE-1800\xe7\xa7\xbb\xe5\x8a\xa8APP]; ContentDescription: null; ItemCount: -1; CurrentItemIndex: -1; IsEnabled: true; IsPassword: false; IsChecked: false; IsFullScreen: true; Scrollable: false; BeforeText: null; FromIndex: -1; ToIndex: -1; ScrollX: -1; ScrollY: -1; MaxScrollX: -1; MaxScrollY: -1; AddedCount: -1; RemovedCount: -1; ParcelableData: null ]'
p2219
sS'MovementGranularity'
p2220
g6
sa(dp2221
S'EventTime'
p2222
S'339168152'
p2223
sg4
L1449714224687L
sS'recordCount'
p2224
g6
sS'EventType'
p2225
S'TYPE_WINDOW_CONTENT_CHANGED'
p2226
sS'PackageName'
p2227
S'com.example.myfristandroid'
p2228
sS'OutBounds'
p2229
S'Rect(0, 0 - 480, 800)'
p2230
sS'Action'
p2231
S'[ ClassName: android.widget.FrameLayout; Text: []; ContentDescription: null; ItemCount: -1; CurrentItemIndex: -1; IsEnabled: true; IsPassword: false; IsChecked: false; IsFullScreen: false; Scrollable: false; BeforeText: null; FromIndex: -1; ToIndex: -1; ScrollX: -1; ScrollY: -1; MaxScrollX: -1; MaxScrollY: -1; AddedCount: -1; RemovedCount: -1; ParcelableData: null ]'
p2232
sS'MovementGranularity'
p2233
g6
sa(dp2234
S'EventTime'
p2235
S'339169865'
p2236
sg4
L1449714226399L
sS'recordCount'
p2237
g6
sS'EventType'
p2238
S'TYPE_WINDOW_CONTENT_CHANGED'
p2239
sS'PackageName'
p2240
S'com.example.myfristandroid'
p2241
sS'OutBounds'
p2242
S'Rect(0, 0 - 800, 480)'
p2243
sS'Action'
p2244
S'[ ClassName: android.widget.FrameLayout; Text: []; ContentDescription: null; ItemCount: -1; CurrentItemIndex: -1; IsEnabled: true; IsPassword: false; IsChecked: false; IsFullScreen: false; Scrollable: false; BeforeText: null; FromIndex: -1; ToIndex: -1; ScrollX: -1; ScrollY: -1; MaxScrollX: -1; MaxScrollY: -1; AddedCount: -1; RemovedCount: -1; ParcelableData: null ]'
p2245
sS'MovementGranularity'
p2246
g6
sa(dp2247
S'EventTime'
p2248
S'339175147'
p2249
sg4
L1449714231682L
sS'recordCount'
p2250
g6
sS'EventType'
p2251
S'TYPE_WINDOW_STATE_CHANGED'
p2252
sS'PackageName'
p2253
S'com.example.myfristandroid'
p2254
sS'Action'
p2255
S'[ ClassName: com.example.myfristandroid.MainActivity; Text: [SE-1800\xe7\xa7\xbb\xe5\x8a\xa8APP]; ContentDescription: null; ItemCount: -1; CurrentItemIndex: -1; IsEnabled: true; IsPassword: false; IsChecked: false; IsFullScreen: true; Scrollable: false; BeforeText: null; FromIndex: -1; ToIndex: -1; ScrollX: -1; ScrollY: -1; MaxScrollX: -1; MaxScrollY: -1; AddedCount: -1; RemovedCount: -1; ParcelableData: null ]'
p2256
sS'MovementGranularity'
p2257
g6
sa(dp2258
S'EventTime'
p2259
S'339175263'
p2260
sg4
L1449714231801L
sS'recordCount'
p2261
g6
sS'EventType'
p2262
S'TYPE_WINDOW_STATE_CHANGED'
p2263
sS'PackageName'
p2264
S'com.example.myfristandroid'
p2265
sS'OutBounds'
p2266
S'Rect(0, 0 - 480, 800)'
p2267
sS'Action'
p2268
S'[ ClassName: com.example.myfristandroid.HuzAlertDialog; Text: [\xe6\x8f\x90\xe7\xa4\xba, \xe7\x89\x88\xe6\x9c\xac\xe6\x9c\x89\xe6\x9b\xb4\xe6\x96\xb0\xef\xbc\x8c\xe6\x98\xaf\xe5\x90\xa6\xe9\x9c\x80\xe8\xa6\x81\xe6\x9b\xb4\xe6\x96\xb0, \xe7\xab\x8b\xe5\x8d\xb3\xe6\x9b\xb4\xe6\x96\xb0, \xe7\xa8\x8d\xe5\x90\x8e\xe6\x9b\xb4\xe6\x96\xb0]; ContentDescription: null; ItemCount: -1; CurrentItemIndex: -1; IsEnabled: true; IsPassword: false; IsChecked: false; IsFullScreen: true; Scrollable: false; BeforeText: null; FromIndex: -1; ToIndex: -1; ScrollX: -1; ScrollY: -1; MaxScrollX: -1; MaxScrollY: -1; AddedCount: -1; RemovedCount: -1; ParcelableData: null ]'
p2269
sS'MovementGranularity'
p2270
g6
sa(dp2271
S'EventTime'
p2272
S'339175265'
p2273
sg4
L1449714231807L
sS'recordCount'
p2274
g6
sS'EventType'
p2275
S'TYPE_WINDOW_CONTENT_CHANGED'
p2276
sS'PackageName'
p2277
S'com.example.myfristandroid'
p2278
sS'OutBounds'
p2279
S'Rect(0, 0 - 480, 800)'
p2280
sS'Action'
p2281
S'[ ClassName: android.widget.FrameLayout; Text: []; ContentDescription: null; ItemCount: -1; CurrentItemIndex: -1; IsEnabled: true; IsPassword: false; IsChecked: false; IsFullScreen: false; Scrollable: false; BeforeText: null; FromIndex: -1; ToIndex: -1; ScrollX: -1; ScrollY: -1; MaxScrollX: -1; MaxScrollY: -1; AddedCount: -1; RemovedCount: -1; ParcelableData: null ]'
p2282
sS'MovementGranularity'
p2283
g6
sa(dp2284
S'EventTime'
p2285
S'339175392'
p2286
sg4
L1449714231931L
sS'recordCount'
p2287
g6
sS'EventType'
p2288
S'TYPE_WINDOW_CONTENT_CHANGED'
p2289
sS'PackageName'
p2290
S'com.example.myfristandroid'
p2291
sS'OutBounds'
p2292
S'Rect(0, 0 - 480, 800)'
p2293
sS'Action'
p2294
S'[ ClassName: android.widget.FrameLayout; Text: []; ContentDescription: null; ItemCount: -1; CurrentItemIndex: -1; IsEnabled: true; IsPassword: false; IsChecked: false; IsFullScreen: false; Scrollable: false; BeforeText: null; FromIndex: -1; ToIndex: -1; ScrollX: -1; ScrollY: -1; MaxScrollX: -1; MaxScrollY: -1; AddedCount: -1; RemovedCount: -1; ParcelableData: null ]'
p2295
sS'MovementGranularity'
p2296
g6
sa(dp2297
S'EventTime'
p2298
S'339176599'
p2299
sg4
L1449714233130L
sS'recordCount'
p2300
g6
sS'EventType'
p2301
S'TYPE_VIEW_CLICKED'
p2302
sS'PackageName'
p2303
S'com.example.myfristandroid'
p2304
sS'OutBounds'
p2305
S'Rect(249, 454 - 448, 526)'
p2306
sS'Action'
p2307
S'[ ClassName: android.widget.Button; Text: [\xe7\xa8\x8d\xe5\x90\x8e\xe6\x9b\xb4\xe6\x96\xb0]; ContentDescription: null; ItemCount: -1; CurrentItemIndex: -1; IsEnabled: true; IsPassword: false; IsChecked: false; IsFullScreen: false; Scrollable: false; BeforeText: null; FromIndex: -1; ToIndex: -1; ScrollX: -1; ScrollY: -1; MaxScrollX: -1; MaxScrollY: -1; AddedCount: -1; RemovedCount: -1; ParcelableData: null ]'
p2308
sS'MovementGranularity'
p2309
g6
sa(dp2310
S'EventTime'
p2311
S'339176694'
p2312
sg4
L1449714233249L
sS'recordCount'
p2313
g6
sS'EventType'
p2314
S'TYPE_WINDOW_STATE_CHANGED'
p2315
sS'PackageName'
p2316
S'com.example.myfristandroid'
p2317
sS'OutBounds'
p2318
S'Rect(0, 0 - 480, 800)'
p2319
sS'Action'
p2320
S'[ ClassName: com.example.myfristandroid.MainActivity; Text: [SE-1800\xe7\xa7\xbb\xe5\x8a\xa8APP]; ContentDescription: null; ItemCount: -1; CurrentItemIndex: -1; IsEnabled: true; IsPassword: false; IsChecked: false; IsFullScreen: true; Scrollable: false; BeforeText: null; FromIndex: -1; ToIndex: -1; ScrollX: -1; ScrollY: -1; MaxScrollX: -1; MaxScrollY: -1; AddedCount: -1; RemovedCount: -1; ParcelableData: null ]'
p2321
sS'MovementGranularity'
p2322
g6
sa(dp2323
S'EventTime'
p2324
S'339191611'
p2325
sg4
L1449714248141L
sS'recordCount'
p2326
g159
sS'EventType'
p2327
S'TYPE_VIEW_CLICKED'
p2328
sS'PackageName'
p2329
S'com.example.myfristandroid'
p2330
sS'OutBounds'
p2331
S'Rect(319, 268 - 475, 424)'
p2332
sS'Action'
p2333
S'[ ClassName: android.widget.RelativeLayout; Text: [\xe7\x8e\xaf\xe5\xa2\x83\xe7\x9b\x91\xe6\xb5\x8b]; ContentDescription: null; ItemCount: -1; CurrentItemIndex: -1; IsEnabled: true; IsPassword: false; IsChecked: false; IsFullScreen: false; Scrollable: false; BeforeText: null; FromIndex: -1; ToIndex: -1; ScrollX: -1; ScrollY: -1; MaxScrollX: -1; MaxScrollY: -1; AddedCount: -1; RemovedCount: -1; ParcelableData: null ]'
p2334
sS'MovementGranularity'
p2335
g6
sa(dp2336
S'EventTime'
p2337
S'339191783'
p2338
sg4
L1449714248320L
sS'recordCount'
p2339
g6
sS'EventType'
p2340
S'TYPE_WINDOW_STATE_CHANGED'
p2341
sS'PackageName'
p2342
S'com.example.myfristandroid'
p2343
sS'OutBounds'
p2344
S'Rect(0, 0 - 480, 800)'
p2345
sS'Action'
p2346
S'[ ClassName: com.example.myfristandroid.graphWebShow; Text: [SE-1800\xe7\xa7\xbb\xe5\x8a\xa8APP]; ContentDescription: null; ItemCount: -1; CurrentItemIndex: -1; IsEnabled: true; IsPassword: false; IsChecked: false; IsFullScreen: true; Scrollable: false; BeforeText: null; FromIndex: -1; ToIndex: -1; ScrollX: -1; ScrollY: -1; MaxScrollX: -1; MaxScrollY: -1; AddedCount: -1; RemovedCount: -1; ParcelableData: null ]'
p2347
sS'MovementGranularity'
p2348
g6
sa(dp2349
S'EventTime'
p2350
S'339191823'
p2351
sg4
L1449714248358L
sS'recordCount'
p2352
g6
sS'EventType'
p2353
S'TYPE_WINDOW_CONTENT_CHANGED'
p2354
sS'PackageName'
p2355
S'com.example.myfristandroid'
p2356
sS'OutBounds'
p2357
S'Rect(0, 0 - 480, 800)'
p2358
sS'Action'
p2359
S'[ ClassName: android.widget.FrameLayout; Text: []; ContentDescription: null; ItemCount: -1; CurrentItemIndex: -1; IsEnabled: true; IsPassword: false; IsChecked: false; IsFullScreen: false; Scrollable: false; BeforeText: null; FromIndex: -1; ToIndex: -1; ScrollX: -1; ScrollY: -1; MaxScrollX: -1; MaxScrollY: -1; AddedCount: -1; RemovedCount: -1; ParcelableData: null ]'
p2360
sS'MovementGranularity'
p2361
g6
sa(dp2362
S'EventTime'
p2363
S'339193027'
p2364
sg4
L1449714249586L
sS'recordCount'
p2365
g6
sS'EventType'
p2366
S'TYPE_WINDOW_CONTENT_CHANGED'
p2367
sS'PackageName'
p2368
S'com.example.myfristandroid'
p2369
sS'OutBounds'
p2370
S'Rect(0, 0 - 800, 480)'
p2371
sS'Action'
p2372
S'[ ClassName: android.widget.FrameLayout; Text: []; ContentDescription: null; ItemCount: -1; CurrentItemIndex: -1; IsEnabled: true; IsPassword: false; IsChecked: false; IsFullScreen: false; Scrollable: false; BeforeText: null; FromIndex: -1; ToIndex: -1; ScrollX: -1; ScrollY: -1; MaxScrollX: -1; MaxScrollY: -1; AddedCount: -1; RemovedCount: -1; ParcelableData: null ]'
p2373
sS'MovementGranularity'
p2374
g6
sa(dp2375
S'EventTime'
p2376
S'339197871'
p2377
sg4
L1449714254430L
sS'recordCount'
p2378
g6
sS'EventType'
p2379
S'TYPE_WINDOW_STATE_CHANGED'
p2380
sS'PackageName'
p2381
S'com.example.myfristandroid'
p2382
sS'OutBounds'
p2383
S'Rect(0, 0 - 480, 800)'
p2384
sS'Action'
p2385
S'[ ClassName: com.example.myfristandroid.MainActivity; Text: [SE-1800\xe7\xa7\xbb\xe5\x8a\xa8APP]; ContentDescription: null; ItemCount: -1; CurrentItemIndex: -1; IsEnabled: true; IsPassword: false; IsChecked: false; IsFullScreen: true; Scrollable: false; BeforeText: null; FromIndex: -1; ToIndex: -1; ScrollX: -1; ScrollY: -1; MaxScrollX: -1; MaxScrollY: -1; AddedCount: -1; RemovedCount: -1; ParcelableData: null ]'
p2386
sS'MovementGranularity'
p2387
g6
sa(dp2388
S'EventTime'
p2389
S'339199068'
p2390
sg4
L1449714255624L
sS'recordCount'
p2391
g159
sS'EventType'
p2392
S'TYPE_VIEW_CLICKED'
p2393
sS'PackageName'
p2394
S'com.example.myfristandroid'
p2395
sS'OutBounds'
p2396
S'Rect(5, 425 - 161, 581)'
p2397
sS'Action'
p2398
S'[ ClassName: android.widget.RelativeLayout; Text: [\xe7\xb3\xbb\xe7\xbb\x9f\xe6\x8b\x93\xe6\x89\x91\xe5\x9b\xbe]; ContentDescription: null; ItemCount: -1; CurrentItemIndex: -1; IsEnabled: true; IsPassword: false; IsChecked: false; IsFullScreen: false; Scrollable: false; BeforeText: null; FromIndex: -1; ToIndex: -1; ScrollX: -1; ScrollY: -1; MaxScrollX: -1; MaxScrollY: -1; AddedCount: -1; RemovedCount: -1; ParcelableData: null ]'
p2399
sS'MovementGranularity'
p2400
g6
sa(dp2401
S'EventTime'
p2402
S'339199457'
p2403
sg4
L1449714255991L
sS'recordCount'
p2404
g6
sS'EventType'
p2405
S'TYPE_WINDOW_STATE_CHANGED'
p2406
sS'PackageName'
p2407
S'com.example.myfristandroid'
p2408
sS'OutBounds'
p2409
S'Rect(0, 0 - 480, 800)'
p2410
sS'Action'
p2411
S'[ ClassName: com.example.myfristandroid.graphWebShow; Text: [SE-1800\xe7\xa7\xbb\xe5\x8a\xa8APP]; ContentDescription: null; ItemCount: -1; CurrentItemIndex: -1; IsEnabled: true; IsPassword: false; IsChecked: false; IsFullScreen: true; Scrollable: false; BeforeText: null; FromIndex: -1; ToIndex: -1; ScrollX: -1; ScrollY: -1; MaxScrollX: -1; MaxScrollY: -1; AddedCount: -1; RemovedCount: -1; ParcelableData: null ]'
p2412
sS'MovementGranularity'
p2413
g6
sa(dp2414
S'EventTime'
p2415
S'339199491'
p2416
sg4
L1449714256024L
sS'recordCount'
p2417
g6
sS'EventType'
p2418
S'TYPE_WINDOW_CONTENT_CHANGED'
p2419
sS'PackageName'
p2420
S'com.example.myfristandroid'
p2421
sS'OutBounds'
p2422
S'Rect(0, 0 - 480, 800)'
p2423
sS'Action'
p2424
S'[ ClassName: android.widget.FrameLayout; Text: []; ContentDescription: null; ItemCount: -1; CurrentItemIndex: -1; IsEnabled: true; IsPassword: false; IsChecked: false; IsFullScreen: false; Scrollable: false; BeforeText: null; FromIndex: -1; ToIndex: -1; ScrollX: -1; ScrollY: -1; MaxScrollX: -1; MaxScrollY: -1; AddedCount: -1; RemovedCount: -1; ParcelableData: null ]'
p2425
sS'MovementGranularity'
p2426
g6
sa(dp2427
S'EventTime'
p2428
S'339201872'
p2429
sg4
L1449714258406L
sS'recordCount'
p2430
g6
sS'EventType'
p2431
S'TYPE_WINDOW_CONTENT_CHANGED'
p2432
sS'PackageName'
p2433
S'com.example.myfristandroid'
p2434
sS'OutBounds'
p2435
S'Rect(0, 0 - 800, 480)'
p2436
sS'Action'
p2437
S'[ ClassName: android.widget.FrameLayout; Text: []; ContentDescription: null; ItemCount: -1; CurrentItemIndex: -1; IsEnabled: true; IsPassword: false; IsChecked: false; IsFullScreen: false; Scrollable: false; BeforeText: null; FromIndex: -1; ToIndex: -1; ScrollX: -1; ScrollY: -1; MaxScrollX: -1; MaxScrollY: -1; AddedCount: -1; RemovedCount: -1; ParcelableData: null ]'
p2438
sS'MovementGranularity'
p2439
g6
sa(dp2440
S'EventTime'
p2441
S'339210002'
p2442
sg4
L1449714266559L
sS'recordCount'
p2443
g6
sS'EventType'
p2444
S'TYPE_WINDOW_STATE_CHANGED'
p2445
sS'PackageName'
p2446
S'com.example.myfristandroid'
p2447
sS'OutBounds'
p2448
S'Rect(0, 0 - 480, 800)'
p2449
sS'Action'
p2450
S'[ ClassName: com.example.myfristandroid.MainActivity; Text: [SE-1800\xe7\xa7\xbb\xe5\x8a\xa8APP]; ContentDescription: null; ItemCount: -1; CurrentItemIndex: -1; IsEnabled: true; IsPassword: false; IsChecked: false; IsFullScreen: true; Scrollable: false; BeforeText: null; FromIndex: -1; ToIndex: -1; ScrollX: -1; ScrollY: -1; MaxScrollX: -1; MaxScrollY: -1; AddedCount: -1; RemovedCount: -1; ParcelableData: null ]'
p2451
sS'MovementGranularity'
p2452
g6
sa(dp2453
S'EventTime'
p2454
S'339214651'
p2455
sg4
L1449714271181L
sS'recordCount'
p2456
g159
sS'EventType'
p2457
S'TYPE_VIEW_CLICKED'
p2458
sS'PackageName'
p2459
S'com.example.myfristandroid'
p2460
sS'OutBounds'
p2461
S'Rect(162, 425 - 318, 581)'
p2462
sS'Action'
p2463
S'[ ClassName: android.widget.RelativeLayout; Text: [\xe5\x87\x8f\xe6\x8e\x92\xe9\x87\x8f\xe4\xbf\xa1\xe6\x81\xaf]; ContentDescription: null; ItemCount: -1; CurrentItemIndex: -1; IsEnabled: true; IsPassword: false; IsChecked: false; IsFullScreen: false; Scrollable: false; BeforeText: null; FromIndex: -1; ToIndex: -1; ScrollX: -1; ScrollY: -1; MaxScrollX: -1; MaxScrollY: -1; AddedCount: -1; RemovedCount: -1; ParcelableData: null ]'
p2464
sS'MovementGranularity'
p2465
g6
sa(dp2466
S'EventTime'
p2467
S'339214794'
p2468
sg4
L1449714271327L
sS'recordCount'
p2469
g6
sS'EventType'
p2470
S'TYPE_WINDOW_STATE_CHANGED'
p2471
sS'PackageName'
p2472
S'com.example.myfristandroid'
p2473
sS'OutBounds'
p2474
S'Rect(0, 0 - 480, 800)'
p2475
sS'Action'
p2476
S'[ ClassName: com.example.myfristandroid.graphWebShow; Text: [SE-1800\xe7\xa7\xbb\xe5\x8a\xa8APP]; ContentDescription: null; ItemCount: -1; CurrentItemIndex: -1; IsEnabled: true; IsPassword: false; IsChecked: false; IsFullScreen: true; Scrollable: false; BeforeText: null; FromIndex: -1; ToIndex: -1; ScrollX: -1; ScrollY: -1; MaxScrollX: -1; MaxScrollY: -1; AddedCount: -1; RemovedCount: -1; ParcelableData: null ]'
p2477
sS'MovementGranularity'
p2478
g6
sa(dp2479
S'EventTime'
p2480
S'339214835'
p2481
sg4
L1449714271371L
sS'recordCount'
p2482
g6
sS'EventType'
p2483
S'TYPE_WINDOW_CONTENT_CHANGED'
p2484
sS'PackageName'
p2485
S'com.example.myfristandroid'
p2486
sS'OutBounds'
p2487
S'Rect(0, 0 - 480, 800)'
p2488
sS'Action'
p2489
S'[ ClassName: android.widget.FrameLayout; Text: []; ContentDescription: null; ItemCount: -1; CurrentItemIndex: -1; IsEnabled: true; IsPassword: false; IsChecked: false; IsFullScreen: false; Scrollable: false; BeforeText: null; FromIndex: -1; ToIndex: -1; ScrollX: -1; ScrollY: -1; MaxScrollX: -1; MaxScrollY: -1; AddedCount: -1; RemovedCount: -1; ParcelableData: null ]'
p2490
sS'MovementGranularity'
p2491
g6
sa(dp2492
S'EventTime'
p2493
S'339251313'
p2494
sg4
L1449714307851L
sS'recordCount'
p2495
g6
sS'EventType'
p2496
S'TYPE_WINDOW_CONTENT_CHANGED'
p2497
sS'PackageName'
p2498
S'com.example.myfristandroid'
p2499
sS'OutBounds'
p2500
S'Rect(0, 0 - 800, 480)'
p2501
sS'Action'
p2502
S'[ ClassName: android.widget.FrameLayout; Text: []; ContentDescription: null; ItemCount: -1; CurrentItemIndex: -1; IsEnabled: true; IsPassword: false; IsChecked: false; IsFullScreen: false; Scrollable: false; BeforeText: null; FromIndex: -1; ToIndex: -1; ScrollX: -1; ScrollY: -1; MaxScrollX: -1; MaxScrollY: -1; AddedCount: -1; RemovedCount: -1; ParcelableData: null ]'
p2503
sS'MovementGranularity'
p2504
g6
sa(dp2505
S'EventTime'
p2506
S'339277160'
p2507
sg4
L1449714333719L
sS'recordCount'
p2508
g6
sS'EventType'
p2509
S'TYPE_WINDOW_STATE_CHANGED'
p2510
sS'PackageName'
p2511
S'com.example.myfristandroid'
p2512
sS'OutBounds'
p2513
S'Rect(0, 0 - 480, 800)'
p2514
sS'Action'
p2515
S'[ ClassName: com.example.myfristandroid.MainActivity; Text: [SE-1800\xe7\xa7\xbb\xe5\x8a\xa8APP]; ContentDescription: null; ItemCount: -1; CurrentItemIndex: -1; IsEnabled: true; IsPassword: false; IsChecked: false; IsFullScreen: true; Scrollable: false; BeforeText: null; FromIndex: -1; ToIndex: -1; ScrollX: -1; ScrollY: -1; MaxScrollX: -1; MaxScrollY: -1; AddedCount: -1; RemovedCount: -1; ParcelableData: null ]'
p2516
sS'MovementGranularity'
p2517
g6
sa(dp2518
S'EventTime'
p2519
S'339278525'
p2520
sg4
L1449714335103L
sS'recordCount'
p2521
g159
sS'EventType'
p2522
S'TYPE_VIEW_CLICKED'
p2523
sS'PackageName'
p2524
S'com.example.myfristandroid'
p2525
sS'OutBounds'
p2526
S'Rect(319, 425 - 475, 581)'
p2527
sS'Action'
p2528
S'[ ClassName: android.widget.RelativeLayout; Text: [\xe5\x85\xb6\xe4\xbb\x96\xe6\xbc\x94\xe7\xa4\xba\xe7\xb3\xbb\xe7\xbb\x9f]; ContentDescription: null; ItemCount: -1; CurrentItemIndex: -1; IsEnabled: true; IsPassword: false; IsChecked: false; IsFullScreen: false; Scrollable: false; BeforeText: null; FromIndex: -1; ToIndex: -1; ScrollX: -1; ScrollY: -1; MaxScrollX: -1; MaxScrollY: -1; AddedCount: -1; RemovedCount: -1; ParcelableData: null ]'
p2529
sS'MovementGranularity'
p2530
g6
sa(dp2531
S'EventTime'
p2532
S'339278899'
p2533
sg4
L1449714335437L
sS'recordCount'
p2534
g6
sS'EventType'
p2535
S'TYPE_WINDOW_STATE_CHANGED'
p2536
sS'PackageName'
p2537
S'com.example.myfristandroid'
p2538
sS'OutBounds'
p2539
S'Rect(0, 0 - 480, 800)'
p2540
sS'Action'
p2541
S'[ ClassName: com.example.myfristandroid.graphWebShow; Text: [SE-1800\xe7\xa7\xbb\xe5\x8a\xa8APP]; ContentDescription: null; ItemCount: -1; CurrentItemIndex: -1; IsEnabled: true; IsPassword: false; IsChecked: false; IsFullScreen: true; Scrollable: false; BeforeText: null; FromIndex: -1; ToIndex: -1; ScrollX: -1; ScrollY: -1; MaxScrollX: -1; MaxScrollY: -1; AddedCount: -1; RemovedCount: -1; ParcelableData: null ]'
p2542
sS'MovementGranularity'
p2543
g6
sa(dp2544
S'EventTime'
p2545
S'339278919'
p2546
sg4
L1449714335458L
sS'recordCount'
p2547
g6
sS'EventType'
p2548
S'TYPE_WINDOW_CONTENT_CHANGED'
p2549
sS'PackageName'
p2550
S'com.example.myfristandroid'
p2551
sS'OutBounds'
p2552
S'Rect(0, 0 - 480, 800)'
p2553
sS'Action'
p2554
S'[ ClassName: android.widget.FrameLayout; Text: []; ContentDescription: null; ItemCount: -1; CurrentItemIndex: -1; IsEnabled: true; IsPassword: false; IsChecked: false; IsFullScreen: false; Scrollable: false; BeforeText: null; FromIndex: -1; ToIndex: -1; ScrollX: -1; ScrollY: -1; MaxScrollX: -1; MaxScrollY: -1; AddedCount: -1; RemovedCount: -1; ParcelableData: null ]'
p2555
sS'MovementGranularity'
p2556
g6
sa(dp2557
S'EventTime'
p2558
S'339280877'
p2559
sg4
L1449714337411L
sS'recordCount'
p2560
g6
sS'EventType'
p2561
S'TYPE_WINDOW_CONTENT_CHANGED'
p2562
sS'PackageName'
p2563
S'com.example.myfristandroid'
p2564
sS'OutBounds'
p2565
S'Rect(0, 0 - 800, 480)'
p2566
sS'Action'
p2567
S'[ ClassName: android.widget.FrameLayout; Text: []; ContentDescription: null; ItemCount: -1; CurrentItemIndex: -1; IsEnabled: true; IsPassword: false; IsChecked: false; IsFullScreen: false; Scrollable: false; BeforeText: null; FromIndex: -1; ToIndex: -1; ScrollX: -1; ScrollY: -1; MaxScrollX: -1; MaxScrollY: -1; AddedCount: -1; RemovedCount: -1; ParcelableData: null ]'
p2568
sS'MovementGranularity'
p2569
g6
sa(dp2570
S'EventTime'
p2571
S'339280997'
p2572
sg4
L1449714337560L
sS'recordCount'
p2573
g6
sS'EventType'
p2574
S'TYPE_WINDOW_CONTENT_CHANGED'
p2575
sS'PackageName'
p2576
S'com.example.myfristandroid'
p2577
sS'OutBounds'
p2578
S'Rect(0, 0 - 800, 480)'
p2579
sS'Action'
p2580
S'[ ClassName: android.widget.FrameLayout; Text: []; ContentDescription: null; ItemCount: -1; CurrentItemIndex: -1; IsEnabled: true; IsPassword: false; IsChecked: false; IsFullScreen: false; Scrollable: false; BeforeText: null; FromIndex: -1; ToIndex: -1; ScrollX: -1; ScrollY: -1; MaxScrollX: -1; MaxScrollY: -1; AddedCount: -1; RemovedCount: -1; ParcelableData: null ]'
p2581
sS'MovementGranularity'
p2582
g6
sa(dp2583
S'EventTime'
p2584
S'339292134'
p2585
sg4
L1449714348715L
sS'recordCount'
p2586
g6
sS'EventType'
p2587
S'TYPE_WINDOW_STATE_CHANGED'
p2588
sS'PackageName'
p2589
S'com.example.myfristandroid'
p2590
sS'OutBounds'
p2591
S'Rect(0, 0 - 480, 800)'
p2592
sS'Action'
p2593
S'[ ClassName: com.example.myfristandroid.MainActivity; Text: [SE-1800\xe7\xa7\xbb\xe5\x8a\xa8APP]; ContentDescription: null; ItemCount: -1; CurrentItemIndex: -1; IsEnabled: true; IsPassword: false; IsChecked: false; IsFullScreen: true; Scrollable: false; BeforeText: null; FromIndex: -1; ToIndex: -1; ScrollX: -1; ScrollY: -1; MaxScrollX: -1; MaxScrollY: -1; AddedCount: -1; RemovedCount: -1; ParcelableData: null ]'
p2594
sS'MovementGranularity'
p2595
g6
sa(dp2596
S'EventTime'
p2597
S'339319391'
p2598
sg4
L1449714375949L
sS'recordCount'
p2599
g6
sS'EventType'
p2600
S'TYPE_VIEW_SCROLLED'
p2601
sS'PackageName'
p2602
S'com.example.myfristandroid'
p2603
sS'OutBounds'
p2604
S'Rect(0, 106 - 480, 717)'
p2605
sS'Action'
p2606
S'[ ClassName: android.support.v4.view.ViewPager; Text: []; ContentDescription: null; ItemCount: -1; CurrentItemIndex: -1; IsEnabled: true; IsPassword: false; IsChecked: false; IsFullScreen: false; Scrollable: false; BeforeText: null; FromIndex: -1; ToIndex: -1; ScrollX: -1; ScrollY: -1; MaxScrollX: -1; MaxScrollY: -1; AddedCount: -1; RemovedCount: -1; ParcelableData: null ]'
p2607
sS'MovementGranularity'
p2608
g6
sa(dp2609
S'EventTime'
p2610
S'339319497'
p2611
sg4
L1449714376049L
sS'recordCount'
p2612
g6
sS'EventType'
p2613
S'TYPE_VIEW_SCROLLED'
p2614
sS'PackageName'
p2615
S'com.example.myfristandroid'
p2616
sS'OutBounds'
p2617
S'Rect(0, 106 - 480, 717)'
p2618
sS'Action'
p2619
S'[ ClassName: android.support.v4.view.ViewPager; Text: []; ContentDescription: null; ItemCount: -1; CurrentItemIndex: -1; IsEnabled: true; IsPassword: false; IsChecked: false; IsFullScreen: false; Scrollable: false; BeforeText: null; FromIndex: -1; ToIndex: -1; ScrollX: -1; ScrollY: -1; MaxScrollX: -1; MaxScrollY: -1; AddedCount: -1; RemovedCount: -1; ParcelableData: null ]'
p2620
sS'MovementGranularity'
p2621
g6
sa(dp2622
S'EventTime'
p2623
S'339319630'
p2624
sg4
L1449714376180L
sS'recordCount'
p2625
g6
sS'EventType'
p2626
S'TYPE_VIEW_SCROLLED'
p2627
sS'PackageName'
p2628
S'com.example.myfristandroid'
p2629
sS'OutBounds'
p2630
S'Rect(0, 106 - 480, 717)'
p2631
sS'Action'
p2632
S'[ ClassName: android.support.v4.view.ViewPager; Text: []; ContentDescription: null; ItemCount: -1; CurrentItemIndex: -1; IsEnabled: true; IsPassword: false; IsChecked: false; IsFullScreen: false; Scrollable: false; BeforeText: null; FromIndex: -1; ToIndex: -1; ScrollX: -1; ScrollY: -1; MaxScrollX: -1; MaxScrollY: -1; AddedCount: -1; RemovedCount: -1; ParcelableData: null ]'
p2633
sS'MovementGranularity'
p2634
g6
sa(dp2635
S'EventTime'
p2636
S'339319758'
p2637
sg4
L1449714376316L
sS'recordCount'
p2638
g6
sS'EventType'
p2639
S'TYPE_VIEW_SCROLLED'
p2640
sS'PackageName'
p2641
S'com.example.myfristandroid'
p2642
sS'OutBounds'
p2643
S'Rect(0, 106 - 480, 717)'
p2644
sS'Action'
p2645
S'[ ClassName: android.support.v4.view.ViewPager; Text: []; ContentDescription: null; ItemCount: -1; CurrentItemIndex: -1; IsEnabled: true; IsPassword: false; IsChecked: false; IsFullScreen: false; Scrollable: false; BeforeText: null; FromIndex: -1; ToIndex: -1; ScrollX: -1; ScrollY: -1; MaxScrollX: -1; MaxScrollY: -1; AddedCount: -1; RemovedCount: -1; ParcelableData: null ]'
p2646
sS'MovementGranularity'
p2647
g6
sa(dp2648
S'EventTime'
p2649
S'339319895'
p2650
sg4
L1449714376454L
sS'recordCount'
p2651
g6
sS'EventType'
p2652
S'TYPE_VIEW_SCROLLED'
p2653
sS'PackageName'
p2654
S'com.example.myfristandroid'
p2655
sS'OutBounds'
p2656
S'Rect(0, 106 - 480, 717)'
p2657
sS'Action'
p2658
S'[ ClassName: android.support.v4.view.ViewPager; Text: []; ContentDescription: null; ItemCount: -1; CurrentItemIndex: -1; IsEnabled: true; IsPassword: false; IsChecked: false; IsFullScreen: false; Scrollable: false; BeforeText: null; FromIndex: -1; ToIndex: -1; ScrollX: -1; ScrollY: -1; MaxScrollX: -1; MaxScrollY: -1; AddedCount: -1; RemovedCount: -1; ParcelableData: null ]'
p2659
sS'MovementGranularity'
p2660
g6
sa(dp2661
S'EventTime'
p2662
S'339844257'
p2663
sg4
L1449714900854L
sS'recordCount'
p2664
g6
sS'EventType'
p2665
S'TYPE_WINDOW_STATE_CHANGED'
p2666
sS'PackageName'
p2667
S'com.example.myfristandroid'
p2668
sS'OutBounds'
p2669
S'Rect(0, 0 - 480, 800)'
p2670
sS'Action'
p2671
S'[ ClassName: com.example.myfristandroid.SplashActivity; Text: [SE-1800\xe7\xa7\xbb\xe5\x8a\xa8APP]; ContentDescription: null; ItemCount: -1; CurrentItemIndex: -1; IsEnabled: true; IsPassword: false; IsChecked: false; IsFullScreen: true; Scrollable: false; BeforeText: null; FromIndex: -1; ToIndex: -1; ScrollX: -1; ScrollY: -1; MaxScrollX: -1; MaxScrollY: -1; AddedCount: -1; RemovedCount: -1; ParcelableData: null ]'
p2672
sS'MovementGranularity'
p2673
g6
sa(dp2674
S'EventTime'
p2675
S'339844420'
p2676
sg4
L1449714900960L
sS'recordCount'
p2677
g6
sS'EventType'
p2678
S'TYPE_WINDOW_CONTENT_CHANGED'
p2679
sS'PackageName'
p2680
S'com.example.myfristandroid'
p2681
sS'OutBounds'
p2682
S'Rect(0, 0 - 480, 800)'
p2683
sS'Action'
p2684
S'[ ClassName: android.widget.FrameLayout; Text: []; ContentDescription: null; ItemCount: -1; CurrentItemIndex: -1; IsEnabled: true; IsPassword: false; IsChecked: false; IsFullScreen: false; Scrollable: false; BeforeText: null; FromIndex: -1; ToIndex: -1; ScrollX: -1; ScrollY: -1; MaxScrollX: -1; MaxScrollY: -1; AddedCount: -1; RemovedCount: -1; ParcelableData: null ]'
p2685
sS'MovementGranularity'
p2686
g6
sa(dp2687
S'EventTime'
p2688
S'339847141'
p2689
sg4
L1449714903706L
sS'recordCount'
p2690
g6
sS'EventType'
p2691
S'TYPE_WINDOW_STATE_CHANGED'
p2692
sS'PackageName'
p2693
S'com.example.myfristandroid'
p2694
sS'OutBounds'
p2695
S'Rect(0, 0 - 480, 800)'
p2696
sS'Action'
p2697
S'[ ClassName: com.example.myfristandroid.MainActivity; Text: [SE-1800\xe7\xa7\xbb\xe5\x8a\xa8APP]; ContentDescription: null; ItemCount: -1; CurrentItemIndex: -1; IsEnabled: true; IsPassword: false; IsChecked: false; IsFullScreen: true; Scrollable: false; BeforeText: null; FromIndex: -1; ToIndex: -1; ScrollX: -1; ScrollY: -1; MaxScrollX: -1; MaxScrollY: -1; AddedCount: -1; RemovedCount: -1; ParcelableData: null ]'
p2698
sS'MovementGranularity'
p2699
g6
sa(dp2700
S'EventTime'
p2701
S'339847143'
p2702
sg4
L1449714903720L
sS'recordCount'
p2703
g6
sS'EventType'
p2704
S'TYPE_VIEW_SCROLLED'
p2705
sS'PackageName'
p2706
S'com.example.myfristandroid'
p2707
sS'OutBounds'
p2708
S'Rect(490, 315 - 950, 315)'
p2709
sS'Action'
p2710
S'[ ClassName: android.widget.ListView; Text: []; ContentDescription: null; ItemCount: 0; CurrentItemIndex: -1; IsEnabled: true; IsPassword: false; IsChecked: false; IsFullScreen: false; Scrollable: false; BeforeText: null; FromIndex: 0; ToIndex: -1; ScrollX: -1; ScrollY: -1; MaxScrollX: -1; MaxScrollY: -1; AddedCount: -1; RemovedCount: -1; ParcelableData: null ]'
p2711
sS'MovementGranularity'
p2712
g6
sa(dp2713
S'EventTime'
p2714
S'339847291'
p2715
sg4
L1449714903891L
sS'recordCount'
p2716
g6
sS'EventType'
p2717
S'TYPE_WINDOW_CONTENT_CHANGED'
p2718
sS'PackageName'
p2719
S'com.example.myfristandroid'
p2720
sS'OutBounds'
p2721
S'Rect(0, 0 - 480, 800)'
p2722
sS'Action'
p2723
S'[ ClassName: android.widget.FrameLayout; Text: []; ContentDescription: null; ItemCount: -1; CurrentItemIndex: -1; IsEnabled: true; IsPassword: false; IsChecked: false; IsFullScreen: false; Scrollable: false; BeforeText: null; FromIndex: -1; ToIndex: -1; ScrollX: -1; ScrollY: -1; MaxScrollX: -1; MaxScrollY: -1; AddedCount: -1; RemovedCount: -1; ParcelableData: null ]'
p2724
sS'MovementGranularity'
p2725
g6
sa(dp2726
S'EventTime'
p2727
S'339847497'
p2728
sg4
L1449714904036L
sS'recordCount'
p2729
g6
sS'EventType'
p2730
S'TYPE_WINDOW_STATE_CHANGED'
p2731
sS'PackageName'
p2732
S'com.example.myfristandroid'
p2733
sS'OutBounds'
p2734
S'Rect(0, 0 - 480, 800)'
p2735
sS'Action'
p2736
S'[ ClassName: com.example.myfristandroid.HuzAlertDialog; Text: [\xe6\x8f\x90\xe7\xa4\xba, \xe7\x89\x88\xe6\x9c\xac\xe6\x9c\x89\xe6\x9b\xb4\xe6\x96\xb0\xef\xbc\x8c\xe6\x98\xaf\xe5\x90\xa6\xe9\x9c\x80\xe8\xa6\x81\xe6\x9b\xb4\xe6\x96\xb0, \xe7\xab\x8b\xe5\x8d\xb3\xe6\x9b\xb4\xe6\x96\xb0, \xe7\xa8\x8d\xe5\x90\x8e\xe6\x9b\xb4\xe6\x96\xb0]; ContentDescription: null; ItemCount: -1; CurrentItemIndex: -1; IsEnabled: true; IsPassword: false; IsChecked: false; IsFullScreen: true; Scrollable: false; BeforeText: null; FromIndex: -1; ToIndex: -1; ScrollX: -1; ScrollY: -1; MaxScrollX: -1; MaxScrollY: -1; AddedCount: -1; RemovedCount: -1; ParcelableData: null ]'
p2737
sS'MovementGranularity'
p2738
g6
sa(dp2739
S'EventTime'
p2740
S'339847547'
p2741
sg4
L1449714904103L
sS'recordCount'
p2742
g6
sS'EventType'
p2743
S'TYPE_WINDOW_CONTENT_CHANGED'
p2744
sS'PackageName'
p2745
S'com.example.myfristandroid'
p2746
sS'OutBounds'
p2747
S'Rect(0, 0 - 480, 800)'
p2748
sS'Action'
p2749
S'[ ClassName: android.widget.FrameLayout; Text: []; ContentDescription: null; ItemCount: -1; CurrentItemIndex: -1; IsEnabled: true; IsPassword: false; IsChecked: false; IsFullScreen: false; Scrollable: false; BeforeText: null; FromIndex: -1; ToIndex: -1; ScrollX: -1; ScrollY: -1; MaxScrollX: -1; MaxScrollY: -1; AddedCount: -1; RemovedCount: -1; ParcelableData: null ]'
p2750
sS'MovementGranularity'
p2751
g6
sa(dp2752
S'EventTime'
p2753
S'339847672'
p2754
sg4
L1449714904216L
sS'recordCount'
p2755
g6
sS'EventType'
p2756
S'TYPE_WINDOW_CONTENT_CHANGED'
p2757
sS'PackageName'
p2758
S'com.example.myfristandroid'
p2759
sS'OutBounds'
p2760
S'Rect(0, 0 - 480, 800)'
p2761
sS'Action'
p2762
S'[ ClassName: android.widget.FrameLayout; Text: []; ContentDescription: null; ItemCount: -1; CurrentItemIndex: -1; IsEnabled: true; IsPassword: false; IsChecked: false; IsFullScreen: false; Scrollable: false; BeforeText: null; FromIndex: -1; ToIndex: -1; ScrollX: -1; ScrollY: -1; MaxScrollX: -1; MaxScrollY: -1; AddedCount: -1; RemovedCount: -1; ParcelableData: null ]'
p2763
sS'MovementGranularity'
p2764
g6
sa(dp2765
S'EventTime'
p2766
S'339848822'
p2767
sg4
L1449714905352L
sS'recordCount'
p2768
g6
sS'EventType'
p2769
S'TYPE_VIEW_CLICKED'
p2770
sS'PackageName'
p2771
S'com.example.myfristandroid'
p2772
sS'OutBounds'
p2773
S'Rect(249, 454 - 448, 526)'
p2774
sS'Action'
p2775
S'[ ClassName: android.widget.Button; Text: [\xe7\xa8\x8d\xe5\x90\x8e\xe6\x9b\xb4\xe6\x96\xb0]; ContentDescription: null; ItemCount: -1; CurrentItemIndex: -1; IsEnabled: true; IsPassword: false; IsChecked: false; IsFullScreen: false; Scrollable: false; BeforeText: null; FromIndex: -1; ToIndex: -1; ScrollX: -1; ScrollY: -1; MaxScrollX: -1; MaxScrollY: -1; AddedCount: -1; RemovedCount: -1; ParcelableData: null ]'
p2776
sS'MovementGranularity'
p2777
g6
sa(dp2778
S'EventTime'
p2779
S'339848919'
p2780
sg4
L1449714905501L
sS'recordCount'
p2781
g6
sS'EventType'
p2782
S'TYPE_WINDOW_STATE_CHANGED'
p2783
sS'PackageName'
p2784
S'com.example.myfristandroid'
p2785
sS'OutBounds'
p2786
S'Rect(0, 0 - 480, 800)'
p2787
sS'Action'
p2788
S'[ ClassName: com.example.myfristandroid.MainActivity; Text: [SE-1800\xe7\xa7\xbb\xe5\x8a\xa8APP]; ContentDescription: null; ItemCount: -1; CurrentItemIndex: -1; IsEnabled: true; IsPassword: false; IsChecked: false; IsFullScreen: true; Scrollable: false; BeforeText: null; FromIndex: -1; ToIndex: -1; ScrollX: -1; ScrollY: -1; MaxScrollX: -1; MaxScrollY: -1; AddedCount: -1; RemovedCount: -1; ParcelableData: null ]'
p2789
sS'MovementGranularity'
p2790
g6
sa(dp2791
S'EventTime'
p2792
S'339859220'
p2793
sg4
L1449714915759L
sS'recordCount'
p2794
g6
sS'EventType'
p2795
S'TYPE_WINDOW_STATE_CHANGED'
p2796
sS'PackageName'
p2797
S'com.example.myfristandroid'
p2798
sS'OutBounds'
p2799
S'Rect(0, 0 - 480, 800)'
p2800
sS'Action'
p2801
S'[ ClassName: com.example.myfristandroid.HuzAlertDialog; Text: [\xe9\x80\x80\xe5\x87\xba, \xe7\xa1\xae\xe5\xae\x9a\xe9\x80\x80\xe5\x87\xba\xe7\xb3\xbb\xe7\xbb\x9f\xe5\x90\x97\xef\xbc\x9f, \xe5\x90\x8e\xe5\x8f\xb0\xe8\xbf\x90\xe8\xa1\x8c, \xe9\x80\x80\xe5\x87\xba]; ContentDescription: null; ItemCount: -1; CurrentItemIndex: -1; IsEnabled: true; IsPassword: false; IsChecked: false; IsFullScreen: true; Scrollable: false; BeforeText: null; FromIndex: -1; ToIndex: -1; ScrollX: -1; ScrollY: -1; MaxScrollX: -1; MaxScrollY: -1; AddedCount: -1; RemovedCount: -1; ParcelableData: null ]'
p2802
sS'MovementGranularity'
p2803
g6
sa(dp2804
S'EventTime'
p2805
S'339859292'
p2806
sg4
L1449714915844L
sS'recordCount'
p2807
g6
sS'EventType'
p2808
S'TYPE_WINDOW_CONTENT_CHANGED'
p2809
sS'PackageName'
p2810
S'com.example.myfristandroid'
p2811
sS'OutBounds'
p2812
S'Rect(0, 0 - 480, 800)'
p2813
sS'Action'
p2814
S'[ ClassName: android.widget.FrameLayout; Text: []; ContentDescription: null; ItemCount: -1; CurrentItemIndex: -1; IsEnabled: true; IsPassword: false; IsChecked: false; IsFullScreen: false; Scrollable: false; BeforeText: null; FromIndex: -1; ToIndex: -1; ScrollX: -1; ScrollY: -1; MaxScrollX: -1; MaxScrollY: -1; AddedCount: -1; RemovedCount: -1; ParcelableData: null ]'
p2815
sS'MovementGranularity'
p2816
g6
sa(dp2817
S'EventTime'
p2818
S'339861099'
p2819
sg4
L1449714917664L
sS'recordCount'
p2820
g6
sS'EventType'
p2821
S'TYPE_VIEW_CLICKED'
p2822
sS'PackageName'
p2823
S'com.example.myfristandroid'
p2824
sS'OutBounds'
p2825
S'Rect(249, 454 - 448, 526)'
p2826
sS'Action'
p2827
S'[ ClassName: android.widget.Button; Text: [\xe9\x80\x80\xe5\x87\xba]; ContentDescription: null; ItemCount: -1; CurrentItemIndex: -1; IsEnabled: true; IsPassword: false; IsChecked: false; IsFullScreen: false; Scrollable: false; BeforeText: null; FromIndex: -1; ToIndex: -1; ScrollX: -1; ScrollY: -1; MaxScrollX: -1; MaxScrollY: -1; AddedCount: -1; RemovedCount: -1; ParcelableData: null ]'
p2828
sS'MovementGranularity'
p2829
g6
sa.