(lp0
(dp1
S'processID'
p2
S'4178'
p3
sS'SyscTime'
p4
L1449722693805L
sS'priority'
p5
S'E'
p6
sS'tag'
p7
S'AndroidRuntime'
p8
sS'threadID'
p9
S' 4232'
p10
sS'message'
p11
S'FATAL EXCEPTION: Thread-14959\njava.lang.NullPointerException\n\tat android.app.Instrumentation.finish(Instrumentation.java:190)\n\tat cn.edu.nju.ise.kikandroid.AUTInstrument.quitInstr(AUTInstrument.java:195)\n\tat cn.edu.nju.ise.kikandroid.AUTInstrument.startServer(AUTInstrument.java:161)\n\tat cn.edu.nju.ise.kikandroid.AUTInstrument$1.run(AUTInstrument.java:107)\n\tat java.lang.Thread.run(Thread.java:841)\n'
p12
sa(dp13
g2
S'6696'
p14
sg4
L1449723017036L
sg5
S'D'
p15
sg7
S'dalvikvm'
p16
sg9
S' 6696'
p17
sg11
S'Late-enabling CheckJNI\n'
p18
sa(dp19
g2
S'6696'
p20
sg4
L1449723017066L
sg5
g15
sg7
S'ActivityThread'
p21
sg9
S' 6696'
p22
sg11
S'setTargetHeapUtilization:0.75\n'
p23
sa(dp24
g2
S'6696'
p25
sg4
L1449723017066L
sg5
g15
sg7
S'ActivityThread'
p26
sg9
S' 6696'
p27
sg11
S'setTargetHeapConcurrentStart:2097152\n'
p28
sa(dp29
g2
S'6696'
p30
sg4
L1449723017266L
sg5
g15
sg7
S'dalvikvm'
p31
sg9
S' 6696'
p32
sg11
S'GC_FOR_ALLOC freed 72K, 18% free 6596K/8040K, paused 9ms, total 9ms\n'
p33
sa(dp34
g2
S'6696'
p35
sg4
L1449723017276L
sg5
S'I'
p36
sg7
S'dalvikvm-heap'
p37
sg9
S' 6696'
p38
sg11
S'Grow heap (frag case) to 16.926MB for 8721484-byte allocation\n'
p39
sa(dp40
g2
S'6696'
p41
sg4
L1449723017296L
sg5
g15
sg7
S'dalvikvm'
p42
sg9
S' 6700'
p43
sg11
S'GC_CONCURRENT freed <1K, 9% free 15113K/16560K, paused 2ms+1ms, total 14ms\n'
p44
sa(dp45
g2
S'6718'
p46
sg4
L1449723017446L
sg5
g15
sg7
S'dalvikvm'
p47
sg9
S' 6718'
p48
sg11
S'Late-enabling CheckJNI\n'
p49
sa(dp50
g2
S'6718'
p51
sg4
L1449723017466L
sg5
g15
sg7
S'ActivityThread'
p52
sg9
S' 6718'
p53
sg11
S'setTargetHeapUtilization:0.75\n'
p54
sa(dp55
g2
S'6718'
p56
sg4
L1449723017466L
sg5
g15
sg7
S'ActivityThread'
p57
sg9
S' 6718'
p58
sg11
S'setTargetHeapConcurrentStart:2097152\n'
p59
sa(dp60
g2
S'6696'
p61
sg4
L1449723017476L
sg5
g15
sg7
S'libEGL  '
p62
sg9
S' 6696'
p63
sg11
S'loaded /vendor/lib/egl/libEGL_adreno.so\n'
p64
sa(dp65
g2
S'6696'
p66
sg4
L1449723017476L
sg5
g15
sg7
S'libEGL  '
p67
sg9
S' 6696'
p68
sg11
S'loaded /vendor/lib/egl/libGLESv1_CM_adreno.so\n'
p69
sa(dp70
g2
S'6696'
p71
sg4
L1449723017476L
sg5
g15
sg7
S'libEGL  '
p72
sg9
S' 6696'
p73
sg11
S'loaded /vendor/lib/egl/libGLESv2_adreno.so\n'
p74
sa(dp75
g2
S'6696'
p76
sg4
L1449723017486L
sg5
g36
sg7
S'Adreno-EGL'
p77
sg9
S' 6696'
p78
sg11
S'<qeglDrvAPI_eglInitialize:381>: EGL 1.4 QUALCOMM build: AU_LINUX_ANDROID_JB_3.2_RB2.04.03.00.129.095_msm8226_JB_3.2_RB2__release_AU ()\nOpenGL ES Shader Compiler Version: 20.00.08\nBuild Date: 01/30/14 Thu\nLocal Branch: \nRemote Branch: quic/jb_3.2_rb2.32\nLocal Patches: NONE\nReconstruct Branch: AU_LINUX_ANDROID_JB_3.2_RB2.04.03.00.129.095 + 16788c7 +  NOTHING\n'
p79
sa(dp80
g2
S'6718'
p81
sg4
L1449723017506L
sg5
g15
sg7
S'SocketService'
p82
sg9
S' 6718'
p83
sg11
S'onStartCommand : bLogin:false\n'
p84
sa(dp85
g2
S'6718'
p86
sg4
L1449723017506L
sg5
g15
sg7
S'SocketService'
p87
sg9
S' 6718'
p88
sg11
S'pid:6718 myPid:6718\n'
p89
sa(dp90
g2
S'6718'
p91
sg4
L1449723017506L
sg5
g15
sg7
S'SocketService'
p92
sg9
S' 6718'
p93
sg11
S'start to run current thread!id:15053\n'
p94
sa(dp95
g2
S'6696'
p96
sg4
L1449723017526L
sg5
g15
sg7
S'OpenGLRenderer'
p97
sg9
S' 6696'
p98
sg11
S'Enabling debug mode 0\n'
p99
sa(dp100
g2
S'6718'
p101
sg4
L1449723017526L
sg5
g15
sg7
S'SocketService'
p102
sg9
S' 6739'
p103
sg11
S'ip/192.168.191.3 lport:54522 p:143\n'
p104
sa(dp105
g2
S'6718'
p106
sg4
L1449723017546L
sg5
g15
sg7
S'ForegroundActivity'
p107
sg9
S' 6739'
p108
sg11
S'\xe6\x9c\xac\xe6\xac\xa1\xe5\x8f\x91\xe9\x80\x81\xe5\xb8\xa7\xe9\x95\xbf:34\t\xe6\x80\xbb\xe5\xb8\xa7\xe9\x95\xbf:34\n'
p109
sa(dp110
g2
S'6718'
p111
sg4
L1449723017556L
sg5
g15
sg7
S'SocketService'
p112
sg9
S' 6739'
p113
sg11
S'success to connect server!id:15053 bLogin:false\n'
p114
sa(dp115
g2
S'6718'
p116
sg4
L1449723017626L
sg5
g15
sg7
S'ForegroundActivity'
p117
sg9
S' 6745'
p118
sg11
S'\xe6\x9c\xac\xe6\xac\xa1\xe6\x94\xb6\xe5\x88\xb0\xe5\xb8\xa7\xe9\x95\xbf:13\t\xe6\x80\xbb\xe5\xb8\xa7\xe9\x95\xbf:13\n'
p119
sa(dp120
g2
S'6718'
p121
sg4
L1449723018506L
sg5
g15
sg7
S'SocketService1'
p122
sg9
S' 6737'
p123
sg11
S'\xe6\x9c\xac\xe6\xac\xa1\xe6\x8f\x90\xe5\x8f\x961:LoadPtr:13 HeadIndex:0 GetSize:13 13 0 \xe5\xa4\xb4\xe4\xbf\xa1\xe6\x81\xaf:EB 90 EB 90 EB 90 0D 00 0E 01 \n'
p124
sa(dp125
g2
S'6718'
p126
sg4
L1449723018556L
sg5
g15
sg7
S'ForegroundActivity'
p127
sg9
S' 6739'
p128
sg11
S'\xe6\x9c\xac\xe6\xac\xa1\xe5\x8f\x91\xe9\x80\x81\xe5\xb8\xa7\xe9\x95\xbf:11\t\xe6\x80\xbb\xe5\xb8\xa7\xe9\x95\xbf:45\n'
p129
sa(dp130
g2
S'6718'
p131
sg4
L1449723018606L
sg5
g15
sg7
S'ForegroundActivity'
p132
sg9
S' 6745'
p133
sg11
S'\xe6\x9c\xac\xe6\xac\xa1\xe6\x94\xb6\xe5\x88\xb0\xe5\xb8\xa7\xe9\x95\xbf:642\t\xe6\x80\xbb\xe5\xb8\xa7\xe9\x95\xbf:655\n'
p134
sa(dp135
g2
S'6718'
p136
sg4
L1449723019586L
sg5
g15
sg7
S'ForegroundActivity'
p137
sg9
S' 6739'
p138
sg11
S'\xe6\x9c\xac\xe6\xac\xa1\xe5\x8f\x91\xe9\x80\x81\xe5\xb8\xa7\xe9\x95\xbf:11\t\xe6\x80\xbb\xe5\xb8\xa7\xe9\x95\xbf:56\n'
p139
sa(dp140
g2
S'6718'
p141
sg4
L1449723019596L
sg5
g15
sg7
S'SocketService1'
p142
sg9
S' 6737'
p143
sg11
S'\xe6\x9c\xac\xe6\xac\xa1\xe6\x8f\x90\xe5\x8f\x961:LoadPtr:655 HeadIndex:13 GetSize:642 130 512 \xe5\xa4\xb4\xe4\xbf\xa1\xe6\x81\xaf:EB 90 EB 90 EB 90 82 02 14 0A \n'
p144
sa(dp145
g2
S'6718'
p146
sg4
L1449723019606L
sg5
g15
sg7
S'ForegroundActivity'
p147
sg9
S' 6745'
p148
sg11
S'\xe6\x9c\xac\xe6\xac\xa1\xe6\x94\xb6\xe5\x88\xb0\xe5\xb8\xa7\xe9\x95\xbf:67\t\xe6\x80\xbb\xe5\xb8\xa7\xe9\x95\xbf:722\n'
p149
sa(dp150
g2
S'6718'
p151
sg4
L1449723019626L
sg5
g15
sg7
S'SocketService1'
p152
sg9
S' 6737'
p153
sg11
S'\xe6\x9c\xac\xe6\xac\xa1\xe6\x8f\x90\xe5\x8f\x961:LoadPtr:722 HeadIndex:655 GetSize:67 67 0 \xe5\xa4\xb4\xe4\xbf\xa1\xe6\x81\xaf:EB 90 EB 90 EB 90 43 00 15 02 \n'
p154
sa(dp155
g2
S'6696'
p156
sg4
L1449723019706L
sg5
g15
sg7
S'MainActivity'
p157
sg9
S' 6696'
p158
sg11
S'Start One Client\n'
p159
sa(dp160
g2
S'6696'
p161
sg4
L1449723019706L
sg5
g15
sg7
S'StrictMode'
p162
sg9
S' 6696'
p163
sg11
S'StrictMode policy violation; ~duration=13 ms: android.os.StrictMode$StrictModeDiskReadViolation: policy=23 violation=2\n\tat android.os.StrictMode$AndroidBlockGuardPolicy.onReadFromDisk(StrictMode.java:1126)\n\tat android.app.SharedPreferencesImpl.awaitLoadedLocked(SharedPreferencesImpl.java:203)\n\tat android.app.SharedPreferencesImpl.edit(SharedPreferencesImpl.java:282)\n\tat com.example.myfristandroid.MainActivity.initCfg(MainActivity.java:454)\n\tat com.example.myfristandroid.MainActivity.onCreate(MainActivity.java:295)\n\tat android.app.Activity.performCreate(Activity.java:5234)\n\tat android.app.Instrumentation.callActivityOnCreate(Instrumentation.java:1087)\n\tat android.app.ActivityThread.performLaunchActivity(ActivityThread.java:2302)\n\tat android.app.ActivityThread.handleLaunchActivity(ActivityThread.java:2388)\n\tat android.app.ActivityThread.access$900(ActivityThread.java:148)\n\tat android.app.ActivityThread$H.handleMessage(ActivityThread.java:1319)\n\tat android.os.Handler.dispatchMessage(Handler.java:99)\n\tat android.os.Looper.loop(Looper.java:137)\n\tat android.app.ActivityThread.main(ActivityThread.java:5473)\n\tat java.lang.reflect.Method.invokeNative(Native Method)\n\tat java.lang.reflect.Method.invoke(Method.java:525)\n\tat com.android.internal.os.ZygoteInit$MethodAndArgsCaller.run(ZygoteInit.java:806)\n\tat com.android.internal.os.ZygoteInit.main(ZygoteInit.java:622)\n\tat dalvik.system.NativeStart.main(Native Method)\n'
p164
sa(dp165
g2
S'6696'
p166
sg4
L1449723019756L
sg5
g15
sg7
S'dalvikvm'
p167
sg9
S' 6700'
p168
sg11
S'GC_CONCURRENT freed 4296K, 26% free 13105K/17580K, paused 2ms+2ms, total 14ms\n'
p169
sa(dp170
g2
S'6696'
p171
sg4
L1449723019896L
sg5
g15
sg7
S'dalvikvm'
p172
sg9
S' 6700'
p173
sg11
S'GC_CONCURRENT freed 481K, 20% free 14182K/17580K, paused 1ms+3ms, total 15ms\n'
p174
sa(dp175
g2
S'6696'
p176
sg4
L1449723022166L
sg5
g15
sg7
S'webcoreglue'
p177
sg9
S' 6790'
p178
sg11
S'netstack: Memory Cache feature is ON\n'
p179
sa(dp180
g2
S'6696'
p181
sg4
L1449723022186L
sg5
g15
sg7
S'JSENGINE'
p182
sg9
S' 6790'
p183
sg11
S'qualcomm.jsengine.version:C.3-patch5-git:35c0a3d\n'
p184
sa(dp185
g2
S'6696'
p186
sg4
L1449723022226L
sg5
g15
sg7
S'HostStatisticManager'
p187
sg9
S' 6790'
p188
sg11
S'netstack: DNS Host Prioritization is: ON, Version: 5.0.2\n'
p189
sa(dp190
g2
S'6696'
p191
sg4
L1449723022226L
sg5
g36
sg7
S'        '
p192
sg9
S' 6790'
p193
sg11
S'netstack: LIB_MGR - Lib loaded: libdnshostprio.so\n'
p194
sa(dp195
g2
S'6696'
p196
sg4
L1449723022226L
sg5
g36
sg7
S'        '
p197
sg9
S' 6790'
p198
sg11
S'netstack: STAT_HUB - Succeeded to load plugin: libdnshostprio.so\n'
p199
sa(dp200
g2
S'6696'
p201
sg4
L1449723022226L
sg5
g36
sg7
S'        '
p202
sg9
S' 6790'
p203
sg11
S'netstack: LIB_MGR - Lib loaded: spl_proc_plugin.so\n'
p204
sa(dp205
g2
S'6696'
p206
sg4
L1449723022226L
sg5
g36
sg7
S'        '
p207
sg9
S' 6790'
p208
sg11
S'netstack: STAT_HUB - Succeeded to load plugin: spl_proc_plugin.so\n'
p209
sa(dp210
g2
S'6696'
p211
sg4
L1449723022236L
sg5
g36
sg7
S'        '
p212
sg9
S' 6790'
p213
sg11
S'netstack: LIB_MGR - Lib loaded: pp_proc_plugin.so\n'
p214
sa(dp215
g2
S'6696'
p216
sg4
L1449723022236L
sg5
g36
sg7
S'        '
p217
sg9
S' 6790'
p218
sg11
S'netstack: STAT_HUB - Succeeded to load plugin: pp_proc_plugin.so\n'
p219
sa(dp220
g2
S'6696'
p221
sg4
L1449723022236L
sg5
g6
sg7
S'        '
p222
sg9
S' 6790'
p223
sg11
S"netstack:  STAT_HUB - App com.example.myfristandroid isn't supported\n"
p224
sa(dp225
g2
S'6696'
p226
sg4
L1449723022246L
sg5
S'V'
p227
sg7
S'chromium_net'
p228
sg9
S' 6790'
p229
sg11
S'external/chromium/net/host_resolver_helper/host_resolver_helper.cc:66: [1210/125022:INFO:host_resolver_helper.cc(66)] DNSPreResolver::Init got hostprovider:0x6211a00c\n'
p230
sa(dp231
g2
S'6696'
p232
sg4
L1449723022246L
sg5
g227
sg7
S'chromium_net'
p233
sg9
S' 6790'
p234
sg11
S'external/chromium/net/base/host_resolver_impl.cc:1510: [1210/125022:INFO:host_resolver_impl.cc(1510)] HostResolverImpl::SetPreresolver preresolver:0x6214dfc0\n'
p235
sa(dp236
g2
S'6696'
p237
sg4
L1449723022246L
sg5
g15
sg7
S'        '
p238
sg9
S' 6790'
p239
sg11
S'dl error message dlopen failed: library "libtcpfinaggr.so" not found\n'
p240
sa(dp241
g2
S'6696'
p242
sg4
L1449723022246L
sg5
g15
sg7
S'Socket_Pool'
p243
sg9
S' 6790'
p244
sg11
S'Failed to create TCP Fin Aggregation interface.\n'
p245
sa(dp246
g2
S'6696'
p247
sg4
L1449723022256L
sg5
g15
sg7
S'Socket_Pool'
p248
sg9
S' 6790'
p249
sg11
S'netstack: CloseUnusedSockets is ON\n'
p250
sa(dp251
g2
S'6696'
p252
sg4
L1449723022256L
sg5
g15
sg7
S'Socket_Pool'
p253
sg9
S' 6790'
p254
sg11
S'netstack: system net.statistics value: 0\n'
p255
sa(dp256
g2
S'6696'
p257
sg4
L1449723022256L
sg5
g15
sg7
S'Socket_Pool'
p258
sg9
S' 6790'
p259
sg11
S'Failed to create TCP Fin Aggregation interface.\n'
p260
sa(dp261
g2
S'6696'
p262
sg4
L1449723022266L
sg5
g15
sg7
S'netstack'
p263
sg9
S' 6790'
p264
sg11
S'netstack: Request Priority is ON\n'
p265
sa(dp266
g2
S'6696'
p267
sg4
L1449723022266L
sg5
g15
sg7
S'        '
p268
sg9
S' 6790'
p269
sg11
S"external/chromium/net/http/http_getzip_factory.cc: Failed to construct GETzip manager, didn't find the library!\n"
p270
sa(dp271
g2
S'6696'
p272
sg4
L1449723022306L
sg5
g15
sg7
S'WebKit  '
p273
sg9
S' 6790'
p274
sg11
S'ERROR: \n'
p275
sa(dp276
g2
S'6696'
p277
sg4
L1449723022306L
sg5
g15
sg7
S'WebKit  '
p278
sg9
S' 6790'
p279
sg11
S'alias gb18030 maps to GB18030 already, but someone is trying to make it map to GBK\n'
p280
sa(dp281
g2
S'6696'
p282
sg4
L1449723022306L
sg5
g15
sg7
S'WebKit  '
p283
sg9
S' 6790'
p284
sg11
S''
p285
sa(dp286
g2
S'6696'
p287
sg4
L1449723022316L
sg5
g15
sg7
S'WebKit  '
p288
sg9
S' 6790'
p289
sg11
S'external/webkit/Source/WebCore/platform/text/TextEncodingRegistry.cpp(152) : void WebCore::checkExistingName(const char*, const char*)\n'
p290
sa(dp291
g2
S'6696'
p292
sg4
L1449723022706L
sg5
g15
sg7
S'        '
p293
sg9
S' 6802'
p294
sg11
S'Failed to load DoObserveConnections symbol in tcp-connections.so\n'
p295
sa(dp296
g2
S'6696'
p297
sg4
L1449723022766L
sg5
g6
sg7
S'Web Console'
p298
sg9
S' 6696'
p299
sg11
S"Uncaught TypeError: Object [object Object] has no method 'startWait' at http://oa.paneng.cn:1143/se9200/realdata/js/realdata.js:80\n"
p300
sa(dp301
g2
S'6696'
p302
sg4
L1449723022766L
sg5
g6
sg7
S'cutils-trace'
p303
sg9
S' 6790'
p304
sg11
S'Error opening trace file: No such file or directory (2)\n'
p305
sa(dp306
g2
S'6696'
p307
sg4
L1449723022786L
sg5
g15
sg7
S'TilesManager'
p308
sg9
S' 6696'
p309
sg11
S'Starting TG #0, 0x60b842f8\n'
p310
sa(dp311
g2
S'6696'
p312
sg4
L1449723022786L
sg5
g15
sg7
S'TilesManager'
p313
sg9
S' 6696'
p314
sg11
S'new EGLContext from framework: 5fe781b8 \n'
p315
sa(dp316
g2
S'6696'
p317
sg4
L1449723022796L
sg5
g15
sg7
S'GLWebViewState'
p318
sg9
S' 6696'
p319
sg11
S'Reinit shader\n'
p320
sa(dp321
g2
S'6696'
p322
sg4
L1449723022826L
sg5
g15
sg7
S'GLWebViewState'
p323
sg9
S' 6696'
p324
sg11
S'Reinit transferQueue\n'
p325
sa(dp326
g2
S'6696'
p327
sg4
L1449723026056L
sg5
g15
sg7
S'cn.edu.nju.ise.kikandroid'
p328
sg9
S' 6749'
p329
sg11
S'Log:1449723026060\n'
p330
sa(dp331
g2
S'6696'
p332
sg4
L1449723027216L
sg5
g15
sg7
S'dalvikvm'
p333
sg9
S' 6700'
p334
sg11
S'GC_CONCURRENT freed 1248K, 10% free 15988K/17576K, paused 19ms+2ms, total 63ms\n'
p335
sa(dp336
g2
S'6696'
p337
sg4
L1449723027216L
sg5
g15
sg7
S'dalvikvm'
p338
sg9
S' 6696'
p339
sg11
S'WAIT_FOR_CONCURRENT_GC blocked 13ms\n'
p340
sa(dp341
g2
S'6696'
p342
sg4
L1449723027316L
sg5
g15
sg7
S'cn.edu.nju.ise.kikandroid'
p343
sg9
S' 6749'
p344
sg11
S'Screenshot:1449723027146\n'
p345
sa(dp346
g2
S'6696'
p347
sg4
L1449723035626L
sg5
g15
sg7
S'dalvikvm'
p348
sg9
S' 6696'
p349
sg11
S'GC_FOR_ALLOC freed 4220K, 27% free 13951K/18872K, paused 20ms, total 21ms\n'
p350
sa(dp351
g2
S'6696'
p352
sg4
L1449723035666L
sg5
g15
sg7
S'dalvikvm'
p353
sg9
S' 6700'
p354
sg11
S'GC_CONCURRENT freed 3K, 16% free 15973K/18872K, paused 2ms+2ms, total 32ms\n'
p355
sa(dp356
g2
S'6696'
p357
sg4
L1449723035796L
sg5
g15
sg7
S'cn.edu.nju.ise.kikandroid'
p358
sg9
S' 6749'
p359
sg11
S'Screenshot:1449723035570\n'
p360
sa(dp361
g2
S'6696'
p362
sg4
L1449723046546L
sg5
g15
sg7
S'MainActivity'
p363
sg9
S' 6790'
p364
sg11
S'h:910.5,w:1687.5\n'
p365
sa(dp366
g2
S'6696'
p367
sg4
L1449723051466L
sg5
g15
sg7
S'dalvikvm'
p368
sg9
S' 6696'
p369
sg11
S'GC_FOR_ALLOC freed 4278K, 26% free 14048K/18872K, paused 32ms, total 33ms\n'
p370
sa(dp371
g2
S'6696'
p372
sg4
L1449723051526L
sg5
g15
sg7
S'dalvikvm'
p373
sg9
S' 6700'
p374
sg11
S'GC_CONCURRENT freed 4K, 15% free 16069K/18872K, paused 2ms+2ms, total 60ms\n'
p375
sa(dp376
g2
S'6696'
p377
sg4
L1449723051636L
sg5
g15
sg7
S'cn.edu.nju.ise.kikandroid'
p378
sg9
S' 6749'
p379
sg11
S'Screenshot:1449723051439\n'
p380
sa(dp381
g2
S'6696'
p382
sg4
L1449723052966L
sg5
g15
sg7
S'cn.edu.nju.ise.kikandroid'
p383
sg9
S' 6749'
p384
sg11
S'Log:1449723052978\n'
p385
sa(dp386
g2
S'6718'
p387
sg4
L1449723057496L
sg5
g15
sg7
S'ForegroundActivity'
p388
sg9
S' 6735'
p389
sg11
S'\xe6\x9c\xac\xe6\xac\xa1\xe5\x8f\x91\xe9\x80\x81\xe5\xb8\xa7\xe9\x95\xbf:13\t\xe6\x80\xbb\xe5\xb8\xa7\xe9\x95\xbf:69\n'
p390
sa(dp391
g2
S'6718'
p392
sg4
L1449723057766L
sg5
g15
sg7
S'ForegroundActivity'
p393
sg9
S' 6745'
p394
sg11
S'\xe6\x9c\xac\xe6\xac\xa1\xe6\x94\xb6\xe5\x88\xb0\xe5\xb8\xa7\xe9\x95\xbf:13\t\xe6\x80\xbb\xe5\xb8\xa7\xe9\x95\xbf:735\n'
p395
sa(dp396
g2
S'6718'
p397
sg4
L1449723058676L
sg5
g15
sg7
S'SocketService1'
p398
sg9
S' 6737'
p399
sg11
S'\xe6\x9c\xac\xe6\xac\xa1\xe6\x8f\x90\xe5\x8f\x961:LoadPtr:735 HeadIndex:722 GetSize:13 13 0 \xe5\xa4\xb4\xe4\xbf\xa1\xe6\x81\xaf:EB 90 EB 90 EB 90 0D 00 10 01 \n'
p400
sa(dp401
g2
S'6696'
p402
sg4
L1449723069156L
sg5
g15
sg7
S'dalvikvm'
p403
sg9
S' 6700'
p404
sg11
S'GC_CONCURRENT freed 4244K, 25% free 14780K/19564K, paused 2ms+11ms, total 36ms\n'
p405
sa(dp406
g2
S'6696'
p407
sg4
L1449723070916L
sg5
g15
sg7
S'MainActivity'
p408
sg9
S' 6790'
p409
sg11
S'h:774.256,w:1432\n'
p410
sa(dp411
g2
S'6696'
p412
sg4
L1449723074686L
sg5
g15
sg7
S'dalvikvm'
p413
sg9
S' 6700'
p414
sg11
S'GC_CONCURRENT freed 70K, 14% free 16899K/19560K, paused 2ms+2ms, total 55ms\n'
p415
sa(dp416
g2
S'6696'
p417
sg4
L1449723074836L
sg5
g15
sg7
S'cn.edu.nju.ise.kikandroid'
p418
sg9
S' 6749'
p419
sg11
S'Screenshot:1449723074623\n'
p420
sa(dp421
g2
S'6696'
p422
sg4
L1449723076196L
sg5
g15
sg7
S'cn.edu.nju.ise.kikandroid'
p423
sg9
S' 6749'
p424
sg11
S'Log:1449723076206\n'
p425
sa(dp426
g2
S'6696'
p427
sg4
L1449723081136L
sg5
g15
sg7
S'dalvikvm'
p428
sg9
S' 6700'
p429
sg11
S'GC_CONCURRENT freed 4246K, 23% free 15605K/20252K, paused 3ms+10ms, total 36ms\n'
p430
sa(dp431
g2
S'6696'
p432
sg4
L1449723082296L
sg5
g15
sg7
S'MainActivity'
p433
sg9
S' 6790'
p434
sg11
S'h:710.915,w:1183.07\n'
p435
sa(dp436
g2
S'6696'
p437
sg4
L1449723084816L
sg5
g15
sg7
S'cn.edu.nju.ise.kikandroid'
p438
sg9
S' 6749'
p439
sg11
S'Log:1449723084829\n'
p440
sa(dp441
g2
S'6696'
p442
sg4
L1449723085886L
sg5
g15
sg7
S'dalvikvm'
p443
sg9
S' 6700'
p444
sg11
S'GC_CONCURRENT freed 120K, 3% free 19751K/20252K, paused 6ms+2ms, total 63ms\n'
p445
sa(dp446
g2
S'6696'
p447
sg4
L1449723085976L
sg5
g15
sg7
S'cn.edu.nju.ise.kikandroid'
p448
sg9
S' 6749'
p449
sg11
S'Screenshot:1449723085820\n'
p450
sa(dp451
g2
S'6696'
p452
sg4
L1449723087236L
sg5
g15
sg7
S'dalvikvm'
p453
sg9
S' 6700'
p454
sg11
S'GC_CONCURRENT freed 6144K, 28% free 17727K/24308K, paused 2ms+3ms, total 30ms\n'
p455
sa(dp456
g2
S'6696'
p457
sg4
L1449723087316L
sg5
g15
sg7
S'cn.edu.nju.ise.kikandroid'
p458
sg9
S' 6749'
p459
sg11
S'Screenshot:1449723087152\n'
p460
sa(dp461
g2
S'6696'
p462
sg4
L1449723092176L
sg5
g15
sg7
S'MainActivity'
p463
sg9
S' 6696'
p464
sg11
S'V.getTag:null v.id:2131230736\n'
p465
sa(dp466
g2
S'6696'
p467
sg4
L1449723092236L
sg5
g227
sg7
S'RenderScript'
p468
sg9
S' 6696'
p469
sg11
S'0x63568b78 Launching thread(s), CPUs 4\n'
p470
sa(dp471
g2
S'6696'
p472
sg4
L1449723092796L
sg5
g15
sg7
S'MainActivity'
p473
sg9
S' 6696'
p474
sg11
S'V.getTag:null v.id:2131230738\n'
p475
sa(dp476
g2
S'6696'
p477
sg4
L1449723093406L
sg5
g15
sg7
S'MainActivity'
p478
sg9
S' 6696'
p479
sg11
S'V.getTag:null v.id:2131230740\n'
p480
sa(dp481
g2
S'6696'
p482
sg4
L1449723094406L
sg5
g15
sg7
S'MainActivity'
p483
sg9
S' 6696'
p484
sg11
S'V.getTag:null v.id:2131230734\n'
p485
sa(dp486
g2
S'6696'
p487
sg4
L1449723096516L
sg5
g6
sg7
S'        '
p488
sg9
S' 6802'
p489
sg11
S'netstack: LIB_MGR - Error loading lib qnet-plugin.so\n'
p490
sa(dp491
g2
S'6696'
p492
sg4
L1449723097006L
sg5
g15
sg7
S'MainActivity'
p493
sg9
S' 6790'
p494
sg11
S'h:910.5,w:1687.5\n'
p495
sa(dp496
g2
S'6718'
p497
sg4
L1449723097506L
sg5
g15
sg7
S'ForegroundActivity'
p498
sg9
S' 6735'
p499
sg11
S'\xe6\x9c\xac\xe6\xac\xa1\xe5\x8f\x91\xe9\x80\x81\xe5\xb8\xa7\xe9\x95\xbf:13\t\xe6\x80\xbb\xe5\xb8\xa7\xe9\x95\xbf:82\n'
p500
sa(dp501
g2
S'6718'
p502
sg4
L1449723097666L
sg5
g15
sg7
S'ForegroundActivity'
p503
sg9
S' 6745'
p504
sg11
S'\xe6\x9c\xac\xe6\xac\xa1\xe6\x94\xb6\xe5\x88\xb0\xe5\xb8\xa7\xe9\x95\xbf:13\t\xe6\x80\xbb\xe5\xb8\xa7\xe9\x95\xbf:748\n'
p505
sa(dp506
g2
S'6718'
p507
sg4
L1449723097736L
sg5
g15
sg7
S'SocketService1'
p508
sg9
S' 6737'
p509
sg11
S'\xe6\x9c\xac\xe6\xac\xa1\xe6\x8f\x90\xe5\x8f\x961:LoadPtr:748 HeadIndex:735 GetSize:13 13 0 \xe5\xa4\xb4\xe4\xbf\xa1\xe6\x81\xaf:EB 90 EB 90 EB 90 0D 00 10 01 \n'
p510
sa(dp511
g2
S'6696'
p512
sg4
L1449723101226L
sg5
g15
sg7
S'cn.edu.nju.ise.kikandroid'
p513
sg9
S' 6749'
p514
sg11
S'Log:1449723101231\n'
p515
sa(dp516
g2
S'6696'
p517
sg4
L1449723101346L
sg5
g15
sg7
S'dalvikvm'
p518
sg9
S' 6700'
p519
sg11
S'GC_CONCURRENT freed 3859K, 10% free 18795K/20868K, paused 3ms+3ms, total 44ms\n'
p520
sa(dp521
g2
S'6696'
p522
sg4
L1449723101476L
sg5
g15
sg7
S'cn.edu.nju.ise.kikandroid'
p523
sg9
S' 6749'
p524
sg11
S'Screenshot:1449723101276\n'
p525
sa(dp526
g2
S'6696'
p527
sg4
L1449723101476L
sg5
S'W'
p528
sg7
S'dalvikvm'
p529
sg9
S' 6749'
p530
sg11
S'threadid=14: thread exiting with uncaught exception (group=0x41d698e0)\n'
p531
sa(dp532
g2
S'6696'
p533
sg4
L1449723101476L
sg5
g6
sg7
S'AndroidRuntime'
p534
sg9
S' 6749'
p535
sg11
S'FATAL EXCEPTION: Thread-15048\njava.lang.NullPointerException\n\tat android.app.Instrumentation.finish(Instrumentation.java:190)\n\tat cn.edu.nju.ise.kikandroid.AUTInstrument.quitInstr(AUTInstrument.java:195)\n\tat cn.edu.nju.ise.kikandroid.AUTInstrument.startServer(AUTInstrument.java:161)\n\tat cn.edu.nju.ise.kikandroid.AUTInstrument$1.run(AUTInstrument.java:107)\n\tat java.lang.Thread.run(Thread.java:841)\n'
p536
sa.