(lp0
(dp1
S'EventTime'
p2
S'121735239'
p3
sS'SyscTime'
p4
L1449712932286L
sS'recordCount'
p5
S'0'
p6
sS'EventType'
p7
S'TYPE_WINDOW_STATE_CHANGED'
p8
sS'PackageName'
p9
S'com.example.myfristandroid'
p10
sS'OutBounds'
p11
S'Rect(0, 0 - 540, 960)'
p12
sS'Action'
p13
S'[ ClassName: com.example.myfristandroid.SplashActivity; Text: [SE-1800\xe7\xa7\xbb\xe5\x8a\xa8APP]; ContentDescription: null; ItemCount: -1; CurrentItemIndex: -1; IsEnabled: true; IsPassword: false; IsChecked: false; IsFullScreen: true; Scrollable: false; BeforeText: null; FromIndex: -1; ToIndex: -1; ScrollX: -1; ScrollY: -1; MaxScrollX: -1; MaxScrollY: -1; AddedCount: -1; RemovedCount: -1; ParcelableData: null ]'
p14
sS'MovementGranularity'
p15
g6
sa(dp16
S'EventTime'
p17
S'121735324'
p18
sg4
L1449712932370L
sS'recordCount'
p19
g6
sS'EventType'
p20
S'TYPE_WINDOW_CONTENT_CHANGED'
p21
sS'PackageName'
p22
S'com.example.myfristandroid'
p23
sS'OutBounds'
p24
S'Rect(0, 0 - 540, 960)'
p25
sS'Action'
p26
S'[ ClassName: android.widget.FrameLayout; Text: []; ContentDescription: null; ItemCount: -1; CurrentItemIndex: -1; IsEnabled: true; IsPassword: false; IsChecked: false; IsFullScreen: false; Scrollable: false; BeforeText: null; FromIndex: -1; ToIndex: -1; ScrollX: -1; ScrollY: -1; MaxScrollX: -1; MaxScrollY: -1; AddedCount: -1; RemovedCount: -1; ParcelableData: null ]'
p27
sS'MovementGranularity'
p28
g6
sa(dp29
S'EventTime'
p30
S'121737643'
p31
sg4
L1449712934736L
sS'recordCount'
p32
g6
sS'EventType'
p33
S'TYPE_WINDOW_STATE_CHANGED'
p34
sS'PackageName'
p35
S'com.example.myfristandroid'
p36
sS'OutBounds'
p37
S'Rect(0, 0 - 540, 960)'
p38
sS'Action'
p39
S'[ ClassName: com.example.myfristandroid.MainActivity; Text: [SE-1800\xe7\xa7\xbb\xe5\x8a\xa8APP]; ContentDescription: null; ItemCount: -1; CurrentItemIndex: -1; IsEnabled: true; IsPassword: false; IsChecked: false; IsFullScreen: true; Scrollable: false; BeforeText: null; FromIndex: -1; ToIndex: -1; ScrollX: -1; ScrollY: -1; MaxScrollX: -1; MaxScrollY: -1; AddedCount: -1; RemovedCount: -1; ParcelableData: null ]'
p40
sS'MovementGranularity'
p41
g6
sa(dp42
S'EventTime'
p43
S'121737644'
p44
sg4
L1449712934793L
sS'recordCount'
p45
g6
sS'EventType'
p46
S'TYPE_WINDOW_CONTENT_CHANGED'
p47
sS'PackageName'
p48
S'com.example.myfristandroid'
p49
sS'OutBounds'
p50
S'Rect(0, 0 - 540, 960)'
p51
sS'Action'
p52
S'[ ClassName: android.widget.FrameLayout; Text: []; ContentDescription: null; ItemCount: -1; CurrentItemIndex: -1; IsEnabled: true; IsPassword: false; IsChecked: false; IsFullScreen: false; Scrollable: false; BeforeText: null; FromIndex: -1; ToIndex: -1; ScrollX: -1; ScrollY: -1; MaxScrollX: -1; MaxScrollY: -1; AddedCount: -1; RemovedCount: -1; ParcelableData: null ]'
p53
sS'MovementGranularity'
p54
g6
sa(dp55
S'EventTime'
p56
S'121737681'
p57
sg4
L1449712934824L
sS'recordCount'
p58
g6
sS'EventType'
p59
S'TYPE_VIEW_SCROLLED'
p60
sS'PackageName'
p61
S'com.example.myfristandroid'
p62
sS'OutBounds'
p63
S'Rect(550, 315 - 1070, 315)'
p64
sS'Action'
p65
S'[ ClassName: android.widget.ListView; Text: []; ContentDescription: null; ItemCount: 0; CurrentItemIndex: -1; IsEnabled: true; IsPassword: false; IsChecked: false; IsFullScreen: false; Scrollable: false; BeforeText: null; FromIndex: 0; ToIndex: -1; ScrollX: -1; ScrollY: -1; MaxScrollX: -1; MaxScrollY: -1; AddedCount: -1; RemovedCount: -1; ParcelableData: null ]'
p66
sS'MovementGranularity'
p67
g6
sa(dp68
S'EventTime'
p69
S'121737796'
p70
sg4
L1449712934882L
sS'recordCount'
p71
g6
sS'EventType'
p72
S'TYPE_WINDOW_CONTENT_CHANGED'
p73
sS'PackageName'
p74
S'com.example.myfristandroid'
p75
sS'OutBounds'
p76
S'Rect(0, 0 - 540, 960)'
p77
sS'Action'
p78
S'[ ClassName: android.widget.FrameLayout; Text: []; ContentDescription: null; ItemCount: -1; CurrentItemIndex: -1; IsEnabled: true; IsPassword: false; IsChecked: false; IsFullScreen: false; Scrollable: false; BeforeText: null; FromIndex: -1; ToIndex: -1; ScrollX: -1; ScrollY: -1; MaxScrollX: -1; MaxScrollY: -1; AddedCount: -1; RemovedCount: -1; ParcelableData: null ]'
p79
sS'MovementGranularity'
p80
g6
sa(dp81
S'EventTime'
p82
S'121742224'
p83
sg4
L1449712939269L
sS'recordCount'
p84
g6
sS'EventType'
p85
S'TYPE_VIEW_CLICKED'
p86
sS'PackageName'
p87
S'com.example.myfristandroid'
p88
sS'OutBounds'
p89
S'Rect(405, 877 - 540, 960)'
p90
sS'Action'
p91
S'[ ClassName: android.widget.LinearLayout; Text: [\xe8\xae\xbe\xe7\xbd\xae\xe7\xb3\xbb\xe7\xbb\x9f\xe8\xbf\x90\xe8\xa1\x8c\xe5\x8f\x82\xe6\x95\xb0, \xe8\xae\xbe\xe7\xbd\xae]; ContentDescription: null; ItemCount: -1; CurrentItemIndex: -1; IsEnabled: true; IsPassword: false; IsChecked: false; IsFullScreen: false; Scrollable: false; BeforeText: null; FromIndex: -1; ToIndex: -1; ScrollX: -1; ScrollY: -1; MaxScrollX: -1; MaxScrollY: -1; AddedCount: -1; RemovedCount: -1; ParcelableData: null ]'
p92
sS'MovementGranularity'
p93
g6
sa(dp94
S'EventTime'
p95
S'121742238'
p96
sg4
L1449712939370L
sS'recordCount'
p97
g6
sS'EventType'
p98
S'TYPE_VIEW_FOCUSED'
p99
sS'PackageName'
p100
S'com.example.myfristandroid'
p101
sS'OutBounds'
p102
S'Rect(299, 114 - 680, 159)'
p103
sS'Action'
p104
S'[ ClassName: android.widget.EditText; Text: [\xe6\x9c\x8d\xe5\x8a\xa1\xe5\x99\xa8\xe5\x9c\xb0\xe5\x9d\x80]; ContentDescription: null; ItemCount: 10; CurrentItemIndex: 0; IsEnabled: true; IsPassword: false; IsChecked: false; IsFullScreen: false; Scrollable: false; BeforeText: null; FromIndex: -1; ToIndex: -1; ScrollX: -1; ScrollY: -1; MaxScrollX: -1; MaxScrollY: -1; AddedCount: -1; RemovedCount: -1; ParcelableData: null ]'
p105
sS'MovementGranularity'
p106
g6
sa(dp107
S'EventTime'
p108
S'121742259'
p109
sg4
L1449712939427L
sS'recordCount'
p110
g6
sS'EventType'
p111
S'TYPE_VIEW_TEXT_SELECTION_CHANGED'
p112
sS'PackageName'
p113
S'com.example.myfristandroid'
p114
sS'OutBounds'
p115
S'Rect(183, 167 - 564, 212)'
p116
sS'Action'
p117
S'[ ClassName: android.widget.EditText; Text: [143]; ContentDescription: null; ItemCount: 3; CurrentItemIndex: -1; IsEnabled: true; IsPassword: false; IsChecked: false; IsFullScreen: false; Scrollable: false; BeforeText: null; FromIndex: 0; ToIndex: 0; ScrollX: -1; ScrollY: -1; MaxScrollX: -1; MaxScrollY: -1; AddedCount: -1; RemovedCount: -1; ParcelableData: null ]'
p118
sS'MovementGranularity'
p119
g6
sa(dp120
S'EventTime'
p121
S'121742407'
p122
sg4
L1449712939489L
sS'recordCount'
p123
g6
sS'EventType'
p124
S'TYPE_WINDOW_CONTENT_CHANGED'
p125
sS'PackageName'
p126
S'com.example.myfristandroid'
p127
sS'OutBounds'
p128
S'Rect(0, 0 - 540, 960)'
p129
sS'Action'
p130
S'[ ClassName: android.widget.FrameLayout; Text: []; ContentDescription: null; ItemCount: -1; CurrentItemIndex: -1; IsEnabled: true; IsPassword: false; IsChecked: false; IsFullScreen: false; Scrollable: false; BeforeText: null; FromIndex: -1; ToIndex: -1; ScrollX: -1; ScrollY: -1; MaxScrollX: -1; MaxScrollY: -1; AddedCount: -1; RemovedCount: -1; ParcelableData: null ]'
p131
sS'MovementGranularity'
p132
g6
sa(dp133
S'EventTime'
p134
S'121742426'
p135
sg4
L1449712939551L
sS'recordCount'
p136
g6
sS'EventType'
p137
S'TYPE_VIEW_SCROLLED'
p138
sS'PackageName'
p139
S'com.example.myfristandroid'
p140
sS'OutBounds'
p141
S'Rect(0, 106 - 540, 877)'
p142
sS'Action'
p143
S'[ ClassName: android.support.v4.view.ViewPager; Text: []; ContentDescription: null; ItemCount: -1; CurrentItemIndex: -1; IsEnabled: true; IsPassword: false; IsChecked: false; IsFullScreen: false; Scrollable: false; BeforeText: null; FromIndex: -1; ToIndex: -1; ScrollX: -1; ScrollY: -1; MaxScrollX: -1; MaxScrollY: -1; AddedCount: -1; RemovedCount: -1; ParcelableData: null ]'
p144
sS'MovementGranularity'
p145
g6
sa(dp146
S'EventTime'
p147
S'121742551'
p148
sg4
L1449712939629L
sS'recordCount'
p149
g6
sS'EventType'
p150
S'TYPE_VIEW_SCROLLED'
p151
sS'PackageName'
p152
S'com.example.myfristandroid'
p153
sS'OutBounds'
p154
S'Rect(0, 106 - 540, 877)'
p155
sS'Action'
p156
S'[ ClassName: android.support.v4.view.ViewPager; Text: []; ContentDescription: null; ItemCount: -1; CurrentItemIndex: -1; IsEnabled: true; IsPassword: false; IsChecked: false; IsFullScreen: false; Scrollable: false; BeforeText: null; FromIndex: -1; ToIndex: -1; ScrollX: -1; ScrollY: -1; MaxScrollX: -1; MaxScrollY: -1; AddedCount: -1; RemovedCount: -1; ParcelableData: null ]'
p157
sS'MovementGranularity'
p158
g6
sa(dp159
S'EventTime'
p160
S'121742689'
p161
sg4
L1449712939751L
sS'recordCount'
p162
g6
sS'EventType'
p163
S'TYPE_VIEW_SCROLLED'
p164
sS'PackageName'
p165
S'com.example.myfristandroid'
p166
sS'OutBounds'
p167
S'Rect(0, 106 - 540, 877)'
p168
sS'Action'
p169
S'[ ClassName: android.support.v4.view.ViewPager; Text: []; ContentDescription: null; ItemCount: -1; CurrentItemIndex: -1; IsEnabled: true; IsPassword: false; IsChecked: false; IsFullScreen: false; Scrollable: false; BeforeText: null; FromIndex: -1; ToIndex: -1; ScrollX: -1; ScrollY: -1; MaxScrollX: -1; MaxScrollY: -1; AddedCount: -1; RemovedCount: -1; ParcelableData: null ]'
p170
sS'MovementGranularity'
p171
g6
sa(dp172
S'EventTime'
p173
S'121742821'
p174
sg4
L1449712939879L
sS'recordCount'
p175
g6
sS'EventType'
p176
S'TYPE_WINDOW_CONTENT_CHANGED'
p177
sS'PackageName'
p178
S'com.example.myfristandroid'
p179
sS'OutBounds'
p180
S'Rect(0, 0 - 540, 960)'
p181
sS'Action'
p182
S'[ ClassName: android.widget.FrameLayout; Text: []; ContentDescription: null; ItemCount: -1; CurrentItemIndex: -1; IsEnabled: true; IsPassword: false; IsChecked: false; IsFullScreen: false; Scrollable: false; BeforeText: null; FromIndex: -1; ToIndex: -1; ScrollX: -1; ScrollY: -1; MaxScrollX: -1; MaxScrollY: -1; AddedCount: -1; RemovedCount: -1; ParcelableData: null ]'
p183
sS'MovementGranularity'
p184
g6
sa(dp185
S'EventTime'
p186
S'121746058'
p187
sg4
L1449712943102L
sS'recordCount'
p188
g6
sS'EventType'
p189
S'TYPE_VIEW_CLICKED'
p190
sS'PackageName'
p191
S'com.example.myfristandroid'
p192
sS'OutBounds'
p193
S'Rect(165, 379 - 375, 424)'
p194
sS'Action'
p195
S'[ ClassName: android.widget.Button; Text: [\xe7\x99\xbb\xe5\xbd\x95]; ContentDescription: null; ItemCount: -1; CurrentItemIndex: -1; IsEnabled: true; IsPassword: false; IsChecked: false; IsFullScreen: false; Scrollable: false; BeforeText: null; FromIndex: -1; ToIndex: -1; ScrollX: -1; ScrollY: -1; MaxScrollX: -1; MaxScrollY: -1; AddedCount: -1; RemovedCount: -1; ParcelableData: null ]'
p196
sS'MovementGranularity'
p197
g6
sa(dp198
S'EventTime'
p199
S'121746176'
p200
sg4
L1449712943236L
sS'recordCount'
p201
g6
sS'EventType'
p202
S'TYPE_WINDOW_CONTENT_CHANGED'
p203
sS'PackageName'
p204
S'com.example.myfristandroid'
p205
sS'OutBounds'
p206
S'Rect(0, 0 - 540, 960)'
p207
sS'Action'
p208
S'[ ClassName: android.widget.FrameLayout; Text: []; ContentDescription: null; ItemCount: -1; CurrentItemIndex: -1; IsEnabled: true; IsPassword: false; IsChecked: false; IsFullScreen: false; Scrollable: false; BeforeText: null; FromIndex: -1; ToIndex: -1; ScrollX: -1; ScrollY: -1; MaxScrollX: -1; MaxScrollY: -1; AddedCount: -1; RemovedCount: -1; ParcelableData: null ]'
p209
sS'MovementGranularity'
p210
g6
sa.