(lp0
(dp1
S'EventTime'
p2
S'36588056'
p3
sS'SyscTime'
p4
L1449717700231L
sS'recordCount'
p5
S'0'
p6
sS'EventType'
p7
S'TYPE_WINDOW_STATE_CHANGED'
p8
sS'PackageName'
p9
S'com.example.myfristandroid'
p10
sS'OutBounds'
p11
S'Rect(0, 0 - 540, 960)'
p12
sS'Action'
p13
S'[ ClassName: com.example.myfristandroid.SplashActivity; Text: [SE-1800\xe7\xa7\xbb\xe5\x8a\xa8APP]; ContentDescription: null; ItemCount: -1; CurrentItemIndex: -1; IsEnabled: true; IsPassword: false; IsChecked: false; IsFullScreen: true; Scrollable: false; BeforeText: null; FromIndex: -1; ToIndex: -1; ScrollX: -1; ScrollY: -1; MaxScrollX: -1; MaxScrollY: -1; AddedCount: -1; RemovedCount: -1; ParcelableData: null ]'
p14
sS'MovementGranularity'
p15
g6
sa(dp16
S'EventTime'
p17
S'36588164'
p18
sg4
L1449717700332L
sS'recordCount'
p19
g6
sS'EventType'
p20
S'TYPE_WINDOW_CONTENT_CHANGED'
p21
sS'PackageName'
p22
S'com.example.myfristandroid'
p23
sS'OutBounds'
p24
S'Rect(0, 0 - 540, 960)'
p25
sS'Action'
p26
S'[ ClassName: android.widget.FrameLayout; Text: []; ContentDescription: null; ItemCount: -1; CurrentItemIndex: -1; IsEnabled: true; IsPassword: false; IsChecked: false; IsFullScreen: false; Scrollable: false; BeforeText: null; FromIndex: -1; ToIndex: -1; ScrollX: -1; ScrollY: -1; MaxScrollX: -1; MaxScrollY: -1; AddedCount: -1; RemovedCount: -1; ParcelableData: null ]'
p27
sS'MovementGranularity'
p28
g6
sa(dp29
S'EventTime'
p30
S'36588281'
p31
sg4
L1449717700447L
sS'recordCount'
p32
g6
sS'EventType'
p33
S'TYPE_WINDOW_CONTENT_CHANGED'
p34
sS'PackageName'
p35
S'com.example.myfristandroid'
p36
sS'OutBounds'
p37
S'Rect(0, 0 - 540, 960)'
p38
sS'Action'
p39
S'[ ClassName: android.widget.FrameLayout; Text: []; ContentDescription: null; ItemCount: -1; CurrentItemIndex: -1; IsEnabled: true; IsPassword: false; IsChecked: false; IsFullScreen: false; Scrollable: false; BeforeText: null; FromIndex: -1; ToIndex: -1; ScrollX: -1; ScrollY: -1; MaxScrollX: -1; MaxScrollY: -1; AddedCount: -1; RemovedCount: -1; ParcelableData: null ]'
p40
sS'MovementGranularity'
p41
g6
sa(dp42
S'EventTime'
p43
S'36590572'
p44
sg4
L1449717702816L
sS'recordCount'
p45
g6
sS'EventType'
p46
S'TYPE_WINDOW_STATE_CHANGED'
p47
sS'PackageName'
p48
S'com.example.myfristandroid'
p49
sS'OutBounds'
p50
S'Rect(0, 0 - 540, 960)'
p51
sS'Action'
p52
S'[ ClassName: com.example.myfristandroid.MainActivity; Text: [SE-1800\xe7\xa7\xbb\xe5\x8a\xa8APP]; ContentDescription: null; ItemCount: -1; CurrentItemIndex: -1; IsEnabled: true; IsPassword: false; IsChecked: false; IsFullScreen: true; Scrollable: false; BeforeText: null; FromIndex: -1; ToIndex: -1; ScrollX: -1; ScrollY: -1; MaxScrollX: -1; MaxScrollY: -1; AddedCount: -1; RemovedCount: -1; ParcelableData: null ]'
p53
sS'MovementGranularity'
p54
g6
sa(dp55
S'EventTime'
p56
S'36590627'
p57
sg4
L1449717702896L
sS'recordCount'
p58
g6
sS'EventType'
p59
S'TYPE_VIEW_SCROLLED'
p60
sS'PackageName'
p61
S'com.example.myfristandroid'
p62
sS'OutBounds'
p63
S'Rect(550, 315 - 1070, 315)'
p64
sS'Action'
p65
S'[ ClassName: android.widget.ListView; Text: []; ContentDescription: null; ItemCount: 0; CurrentItemIndex: -1; IsEnabled: true; IsPassword: false; IsChecked: false; IsFullScreen: false; Scrollable: false; BeforeText: null; FromIndex: 0; ToIndex: -1; ScrollX: -1; ScrollY: -1; MaxScrollX: -1; MaxScrollY: -1; AddedCount: -1; RemovedCount: -1; ParcelableData: null ]'
p66
sS'MovementGranularity'
p67
g6
sa(dp68
S'EventTime'
p69
S'36590755'
p70
sg4
L1449717702963L
sS'recordCount'
p71
g6
sS'EventType'
p72
S'TYPE_WINDOW_CONTENT_CHANGED'
p73
sS'PackageName'
p74
S'com.example.myfristandroid'
p75
sS'OutBounds'
p76
S'Rect(0, 0 - 540, 960)'
p77
sS'Action'
p78
S'[ ClassName: android.widget.FrameLayout; Text: []; ContentDescription: null; ItemCount: -1; CurrentItemIndex: -1; IsEnabled: true; IsPassword: false; IsChecked: false; IsFullScreen: false; Scrollable: false; BeforeText: null; FromIndex: -1; ToIndex: -1; ScrollX: -1; ScrollY: -1; MaxScrollX: -1; MaxScrollY: -1; AddedCount: -1; RemovedCount: -1; ParcelableData: null ]'
p79
sS'MovementGranularity'
p80
g6
sa(dp81
S'EventTime'
p82
S'36592237'
p83
sg4
L1449717704410L
sS'recordCount'
p84
g6
sS'EventType'
p85
S'TYPE_WINDOW_STATE_CHANGED'
p86
sS'PackageName'
p87
S'com.example.myfristandroid'
p88
sS'OutBounds'
p89
S'Rect(0, 0 - 540, 960)'
p90
sS'Action'
p91
S'[ ClassName: com.example.myfristandroid.HuzAlertDialog; Text: [\xe6\x8f\x90\xe7\xa4\xba, \xe7\x89\x88\xe6\x9c\xac\xe6\x9c\x89\xe6\x9b\xb4\xe6\x96\xb0\xef\xbc\x8c\xe6\x98\xaf\xe5\x90\xa6\xe9\x9c\x80\xe8\xa6\x81\xe6\x9b\xb4\xe6\x96\xb0, \xe7\xab\x8b\xe5\x8d\xb3\xe6\x9b\xb4\xe6\x96\xb0, \xe7\xa8\x8d\xe5\x90\x8e\xe6\x9b\xb4\xe6\x96\xb0]; ContentDescription: null; ItemCount: -1; CurrentItemIndex: -1; IsEnabled: true; IsPassword: false; IsChecked: false; IsFullScreen: true; Scrollable: false; BeforeText: null; FromIndex: -1; ToIndex: -1; ScrollX: -1; ScrollY: -1; MaxScrollX: -1; MaxScrollY: -1; AddedCount: -1; RemovedCount: -1; ParcelableData: null ]'
p92
sS'MovementGranularity'
p93
g6
sa(dp94
S'EventTime'
p95
S'36592283'
p96
sg4
L1449717704453L
sS'recordCount'
p97
g6
sS'EventType'
p98
S'TYPE_WINDOW_CONTENT_CHANGED'
p99
sS'PackageName'
p100
S'com.example.myfristandroid'
p101
sS'OutBounds'
p102
S'Rect(0, 0 - 540, 960)'
p103
sS'Action'
p104
S'[ ClassName: android.widget.FrameLayout; Text: []; ContentDescription: null; ItemCount: -1; CurrentItemIndex: -1; IsEnabled: true; IsPassword: false; IsChecked: false; IsFullScreen: false; Scrollable: false; BeforeText: null; FromIndex: -1; ToIndex: -1; ScrollX: -1; ScrollY: -1; MaxScrollX: -1; MaxScrollY: -1; AddedCount: -1; RemovedCount: -1; ParcelableData: null ]'
p105
sS'MovementGranularity'
p106
g6
sa(dp107
S'EventTime'
p108
S'36593655'
p109
sg4
L1449717705821L
sS'recordCount'
p110
g6
sS'EventType'
p111
S'TYPE_VIEW_CLICKED'
p112
sS'PackageName'
p113
S'com.example.myfristandroid'
p114
sS'OutBounds'
p115
S'Rect(279, 534 - 508, 606)'
p116
sS'Action'
p117
S'[ ClassName: android.widget.Button; Text: [\xe7\xa8\x8d\xe5\x90\x8e\xe6\x9b\xb4\xe6\x96\xb0]; ContentDescription: null; ItemCount: -1; CurrentItemIndex: -1; IsEnabled: true; IsPassword: false; IsChecked: false; IsFullScreen: false; Scrollable: false; BeforeText: null; FromIndex: -1; ToIndex: -1; ScrollX: -1; ScrollY: -1; MaxScrollX: -1; MaxScrollY: -1; AddedCount: -1; RemovedCount: -1; ParcelableData: null ]'
p118
sS'MovementGranularity'
p119
g6
sa(dp120
S'EventTime'
p121
S'36593728'
p122
sg4
L1449717705931L
sS'recordCount'
p123
g6
sS'EventType'
p124
S'TYPE_WINDOW_STATE_CHANGED'
p125
sS'PackageName'
p126
S'com.example.myfristandroid'
p127
sS'OutBounds'
p128
S'Rect(0, 0 - 540, 960)'
p129
sS'Action'
p130
S'[ ClassName: com.example.myfristandroid.MainActivity; Text: [SE-1800\xe7\xa7\xbb\xe5\x8a\xa8APP]; ContentDescription: null; ItemCount: -1; CurrentItemIndex: -1; IsEnabled: true; IsPassword: false; IsChecked: false; IsFullScreen: true; Scrollable: false; BeforeText: null; FromIndex: -1; ToIndex: -1; ScrollX: -1; ScrollY: -1; MaxScrollX: -1; MaxScrollY: -1; AddedCount: -1; RemovedCount: -1; ParcelableData: null ]'
p131
sS'MovementGranularity'
p132
g6
sa(dp133
S'EventTime'
p134
S'36594771'
p135
sg4
L1449717706937L
sS'recordCount'
p136
S'1'
p137
sS'EventType'
p138
S'TYPE_VIEW_CLICKED'
p139
sS'PackageName'
p140
S'com.example.myfristandroid'
p141
sS'OutBounds'
p142
S'Rect(359, 111 - 535, 287)'
p143
sS'Action'
p144
S'[ ClassName: android.widget.RelativeLayout; Text: [\xe6\xa3\x92\xe5\x9b\xbe]; ContentDescription: null; ItemCount: -1; CurrentItemIndex: -1; IsEnabled: true; IsPassword: false; IsChecked: false; IsFullScreen: false; Scrollable: false; BeforeText: null; FromIndex: -1; ToIndex: -1; ScrollX: -1; ScrollY: -1; MaxScrollX: -1; MaxScrollY: -1; AddedCount: -1; RemovedCount: -1; ParcelableData: null ]'
p145
sS'MovementGranularity'
p146
g6
sa(dp147
S'EventTime'
p148
S'36595022'
p149
sg4
L1449717707190L
sS'recordCount'
p150
g6
sS'EventType'
p151
S'TYPE_WINDOW_STATE_CHANGED'
p152
sS'PackageName'
p153
S'com.example.myfristandroid'
p154
sS'OutBounds'
p155
S'Rect(0, 0 - 540, 960)'
p156
sS'Action'
p157
S'[ ClassName: com.example.myfristandroid.graphWebShow; Text: [SE-1800\xe7\xa7\xbb\xe5\x8a\xa8APP]; ContentDescription: null; ItemCount: -1; CurrentItemIndex: -1; IsEnabled: true; IsPassword: false; IsChecked: false; IsFullScreen: true; Scrollable: false; BeforeText: null; FromIndex: -1; ToIndex: -1; ScrollX: -1; ScrollY: -1; MaxScrollX: -1; MaxScrollY: -1; AddedCount: -1; RemovedCount: -1; ParcelableData: null ]'
p158
sS'MovementGranularity'
p159
g6
sa(dp160
S'EventTime'
p161
S'36595037'
p162
sg4
L1449717707204L
sS'recordCount'
p163
g6
sS'EventType'
p164
S'TYPE_WINDOW_CONTENT_CHANGED'
p165
sS'PackageName'
p166
S'com.example.myfristandroid'
p167
sS'OutBounds'
p168
S'Rect(0, 0 - 540, 960)'
p169
sS'Action'
p170
S'[ ClassName: android.widget.FrameLayout; Text: []; ContentDescription: null; ItemCount: -1; CurrentItemIndex: -1; IsEnabled: true; IsPassword: false; IsChecked: false; IsFullScreen: false; Scrollable: false; BeforeText: null; FromIndex: -1; ToIndex: -1; ScrollX: -1; ScrollY: -1; MaxScrollX: -1; MaxScrollY: -1; AddedCount: -1; RemovedCount: -1; ParcelableData: null ]'
p171
sS'MovementGranularity'
p172
g6
sa(dp173
S'EventTime'
p174
S'36598728'
p175
sg4
L1449717710896L
sS'recordCount'
p176
g6
sS'EventType'
p177
S'TYPE_WINDOW_CONTENT_CHANGED'
p178
sS'PackageName'
p179
S'com.example.myfristandroid'
p180
sS'OutBounds'
p181
S'Rect(0, 0 - 960, 540)'
p182
sS'Action'
p183
S'[ ClassName: android.widget.FrameLayout; Text: []; ContentDescription: null; ItemCount: -1; CurrentItemIndex: -1; IsEnabled: true; IsPassword: false; IsChecked: false; IsFullScreen: false; Scrollable: false; BeforeText: null; FromIndex: -1; ToIndex: -1; ScrollX: -1; ScrollY: -1; MaxScrollX: -1; MaxScrollY: -1; AddedCount: -1; RemovedCount: -1; ParcelableData: null ]'
p184
sS'MovementGranularity'
p185
g6
sa(dp186
S'EventTime'
p187
S'36601630'
p188
sg4
L1449717713834L
sS'recordCount'
p189
g6
sS'EventType'
p190
S'TYPE_WINDOW_STATE_CHANGED'
p191
sS'PackageName'
p192
S'com.example.myfristandroid'
p193
sS'OutBounds'
p194
S'Rect(0, 0 - 540, 960)'
p195
sS'Action'
p196
S'[ ClassName: com.example.myfristandroid.MainActivity; Text: [SE-1800\xe7\xa7\xbb\xe5\x8a\xa8APP]; ContentDescription: null; ItemCount: -1; CurrentItemIndex: -1; IsEnabled: true; IsPassword: false; IsChecked: false; IsFullScreen: true; Scrollable: false; BeforeText: null; FromIndex: -1; ToIndex: -1; ScrollX: -1; ScrollY: -1; MaxScrollX: -1; MaxScrollY: -1; AddedCount: -1; RemovedCount: -1; ParcelableData: null ]'
p197
sS'MovementGranularity'
p198
g6
sa(dp199
S'EventTime'
p200
S'36603830'
p201
sg4
L1449717715996L
sS'recordCount'
p202
g137
sS'EventType'
p203
S'TYPE_VIEW_CLICKED'
p204
sS'PackageName'
p205
S'com.example.myfristandroid'
p206
sS'OutBounds'
p207
S'Rect(182, 111 - 358, 287)'
p208
sS'Action'
p209
S'[ ClassName: android.widget.RelativeLayout; Text: [\xe6\x9b\xb2\xe7\xba\xbf\xe5\x9b\xbe]; ContentDescription: null; ItemCount: -1; CurrentItemIndex: -1; IsEnabled: true; IsPassword: false; IsChecked: false; IsFullScreen: false; Scrollable: false; BeforeText: null; FromIndex: -1; ToIndex: -1; ScrollX: -1; ScrollY: -1; MaxScrollX: -1; MaxScrollY: -1; AddedCount: -1; RemovedCount: -1; ParcelableData: null ]'
p210
sS'MovementGranularity'
p211
g6
sa(dp212
S'EventTime'
p213
S'36603966'
p214
sg4
L1449717716137L
sS'recordCount'
p215
g6
sS'EventType'
p216
S'TYPE_WINDOW_STATE_CHANGED'
p217
sS'PackageName'
p218
S'com.example.myfristandroid'
p219
sS'OutBounds'
p220
S'Rect(0, 0 - 540, 960)'
p221
sS'Action'
p222
S'[ ClassName: com.example.myfristandroid.graphWebShow; Text: [SE-1800\xe7\xa7\xbb\xe5\x8a\xa8APP]; ContentDescription: null; ItemCount: -1; CurrentItemIndex: -1; IsEnabled: true; IsPassword: false; IsChecked: false; IsFullScreen: true; Scrollable: false; BeforeText: null; FromIndex: -1; ToIndex: -1; ScrollX: -1; ScrollY: -1; MaxScrollX: -1; MaxScrollY: -1; AddedCount: -1; RemovedCount: -1; ParcelableData: null ]'
p223
sS'MovementGranularity'
p224
g6
sa(dp225
S'EventTime'
p226
S'36604016'
p227
sg4
L1449717716190L
sS'recordCount'
p228
g6
sS'EventType'
p229
S'TYPE_WINDOW_CONTENT_CHANGED'
p230
sS'PackageName'
p231
S'com.example.myfristandroid'
p232
sS'OutBounds'
p233
S'Rect(0, 0 - 540, 960)'
p234
sS'Action'
p235
S'[ ClassName: android.widget.FrameLayout; Text: []; ContentDescription: null; ItemCount: -1; CurrentItemIndex: -1; IsEnabled: true; IsPassword: false; IsChecked: false; IsFullScreen: false; Scrollable: false; BeforeText: null; FromIndex: -1; ToIndex: -1; ScrollX: -1; ScrollY: -1; MaxScrollX: -1; MaxScrollY: -1; AddedCount: -1; RemovedCount: -1; ParcelableData: null ]'
p236
sS'MovementGranularity'
p237
g6
sa(dp238
S'EventTime'
p239
S'36605849'
p240
sg4
L1449717718020L
sS'recordCount'
p241
g6
sS'EventType'
p242
S'TYPE_WINDOW_CONTENT_CHANGED'
p243
sS'PackageName'
p244
S'com.example.myfristandroid'
p245
sS'OutBounds'
p246
S'Rect(0, 0 - 960, 540)'
p247
sS'Action'
p248
S'[ ClassName: android.widget.FrameLayout; Text: []; ContentDescription: null; ItemCount: -1; CurrentItemIndex: -1; IsEnabled: true; IsPassword: false; IsChecked: false; IsFullScreen: false; Scrollable: false; BeforeText: null; FromIndex: -1; ToIndex: -1; ScrollX: -1; ScrollY: -1; MaxScrollX: -1; MaxScrollY: -1; AddedCount: -1; RemovedCount: -1; ParcelableData: null ]'
p249
sS'MovementGranularity'
p250
g6
sa(dp251
S'EventTime'
p252
S'36613051'
p253
sg4
L1449717725245L
sS'recordCount'
p254
g6
sS'EventType'
p255
S'TYPE_WINDOW_STATE_CHANGED'
p256
sS'PackageName'
p257
S'com.example.myfristandroid'
p258
sS'OutBounds'
p259
S'Rect(0, 0 - 540, 960)'
p260
sS'Action'
p261
S'[ ClassName: com.example.myfristandroid.MainActivity; Text: [SE-1800\xe7\xa7\xbb\xe5\x8a\xa8APP]; ContentDescription: null; ItemCount: -1; CurrentItemIndex: -1; IsEnabled: true; IsPassword: false; IsChecked: false; IsFullScreen: true; Scrollable: false; BeforeText: null; FromIndex: -1; ToIndex: -1; ScrollX: -1; ScrollY: -1; MaxScrollX: -1; MaxScrollY: -1; AddedCount: -1; RemovedCount: -1; ParcelableData: null ]'
p262
sS'MovementGranularity'
p263
g6
sa.