(lp0
(dp1
S'processID'
p2
S'21398'
p3
sS'SyscTime'
p4
L1449717504192L
sS'priority'
p5
S'D'
p6
sS'tag'
p7
S'dalvikvm'
p8
sS'threadID'
p9
S'21398'
p10
sS'message'
p11
S'GC_FOR_ALLOC freed 247K, 9% free 26388K/28724K, paused 45ms, total 45ms\n'
p12
sa(dp13
g2
S'21398'
p14
sg4
L1449717504422L
sg5
g6
sg7
S'cn.edu.nju.ise.kikandroid'
p15
sg9
S'21455'
p16
sg11
S'Screenshot:1449717504055\n'
p17
sa(dp18
g2
S'21398'
p19
sg4
L1449717504812L
sg5
S'I'
p20
sg7
S'Web Console'
p21
sg9
S'21398'
p22
sg11
S'No data received from server at http://oa.paneng.cn:1143/se9200/dwr/engine.js:599\n'
p23
sa(dp24
g2
S'21398'
p25
sg4
L1449717505512L
sg5
g6
sg7
S'MainActivity'
p26
sg9
S'21653'
p27
sg11
S'h:910.5,w:1687.5\n'
p28
sa(dp29
g2
S'21398'
p30
sg4
L1449717510892L
sg5
g6
sg7
S'MainActivity'
p31
sg9
S'21653'
p32
sg11
S'h:766.083,w:1687.5\n'
p33
sa(dp34
g2
S'21398'
p35
sg4
L1449717523002L
sg5
g6
sg7
S'dalvikvm'
p36
sg9
S'21402'
p37
sg11
S'GC_CONCURRENT freed 6548K, 22% free 27221K/34808K, paused 3ms+9ms, total 49ms\n'
p38
sa(dp39
g2
S'21398'
p40
sg4
L1449717523112L
sg5
g6
sg7
S'cn.edu.nju.ise.kikandroid'
p41
sg9
S'21455'
p42
sg11
S'Screenshot:1449717522858\n'
p43
sa(dp44
g2
S'21398'
p45
sg4
L1449717524632L
sg5
g6
sg7
S'MyWebView'
p46
sg9
S'21398'
p47
sg11
S'xspeed1:-1737 distanceX1:-212\n'
p48
sa(dp49
g2
S'21398'
p50
sg4
L1449717524642L
sg5
g6
sg7
S'MyWebView'
p51
sg9
S'21398'
p52
sg11
S'xspeed1:-1744 distanceX1:-241\n'
p53
sa(dp54
g2
S'21398'
p55
sg4
L1449717524662L
sg5
g6
sg7
S'MyWebView'
p56
sg9
S'21398'
p57
sg11
S'xspeed1:-1766 distanceX1:-268\n'
p58
sa(dp59
g2
S'21398'
p60
sg4
L1449717524662L
sg5
g6
sg7
S'MyWebView'
p61
sg9
S'21398'
p62
sg11
S'xspeed1:-1746 distanceX1:-269\n'
p63
sa(dp64
g2
S'21429'
p65
sg4
L1449717525202L
sg5
g6
sg7
S'ForegroundActivity'
p66
sg9
S'21445'
p67
sg11
S'\xe6\x9c\xac\xe6\xac\xa1\xe5\x8f\x91\xe9\x80\x81\xe5\xb8\xa7\xe9\x95\xbf:13\t\xe6\x80\xbb\xe5\xb8\xa7\xe9\x95\xbf:350\n'
p68
sa(dp69
g2
S'21429'
p70
sg4
L1449717525602L
sg5
g6
sg7
S'ForegroundActivity'
p71
sg9
S'26469'
p72
sg11
S'\xe6\x9c\xac\xe6\xac\xa1\xe6\x94\xb6\xe5\x88\xb0\xe5\xb8\xa7\xe9\x95\xbf:13\t\xe6\x80\xbb\xe5\xb8\xa7\xe9\x95\xbf:1613\n'
p73
sa(dp74
g2
S'21398'
p75
sg4
L1449717525872L
sg5
g6
sg7
S'MyWebView'
p76
sg9
S'21398'
p77
sg11
S'xspeed1:-1094 distanceX1:-206\n'
p78
sa(dp79
g2
S'21429'
p80
sg4
L1449717526322L
sg5
g6
sg7
S'SocketService1'
p81
sg9
S'21447'
p82
sg11
S'\xe6\x9c\xac\xe6\xac\xa1\xe6\x8f\x90\xe5\x8f\x961:LoadPtr:1613 HeadIndex:1600 GetSize:13 13 0 \xe5\xa4\xb4\xe4\xbf\xa1\xe6\x81\xaf:EB 90 EB 90 EB 90 0D 00 10 01 \n'
p83
sa(dp84
g2
S'21398'
p85
sg4
L1449717526492L
sg5
g6
sg7
S'MyWebView'
p86
sg9
S'21398'
p87
sg11
S'xspeed1:-1348 distanceX1:-221\n'
p88
sa(dp89
g2
S'21398'
p90
sg4
L1449717526512L
sg5
g6
sg7
S'MyWebView'
p91
sg9
S'21398'
p92
sg11
S'xspeed1:-1521 distanceX1:-245\n'
p93
sa(dp94
g2
S'21398'
p95
sg4
L1449717526522L
sg5
g6
sg7
S'MyWebView'
p96
sg9
S'21398'
p97
sg11
S'xspeed1:-1484 distanceX1:-263\n'
p98
sa(dp99
g2
S'21398'
p100
sg4
L1449717526542L
sg5
g6
sg7
S'MyWebView'
p101
sg9
S'21398'
p102
sg11
S'xspeed1:-1084 distanceX1:-277\n'
p103
sa(dp104
g2
S'21398'
p105
sg4
L1449717550052L
sg5
g6
sg7
S'cn.edu.nju.ise.kikandroid'
p106
sg9
S'21455'
p107
sg11
S'Log:1449717550056\n'
p108
sa(dp109
g2
S'21398'
p110
sg4
L1449717550422L
sg5
g6
sg7
S'cn.edu.nju.ise.kikandroid'
p111
sg9
S'21455'
p112
sg11
S'Screenshot:1449717550147\n'
p113
sa(dp114
g2
S'21398'
p115
sg4
L1449717550422L
sg5
S'W'
p116
sg7
S'dalvikvm'
p117
sg9
S'21455'
p118
sg11
S'threadid=15: thread exiting with uncaught exception (group=0x4164f8e0)\n'
p119
sa(dp120
g2
S'27739'
p121
sg4
L1449717699602L
sg5
g6
sg7
S'dalvikvm'
p122
sg9
S'27739'
p123
sg11
S'Late-enabling CheckJNI\n'
p124
sa(dp125
g2
S'27739'
p126
sg4
L1449717699632L
sg5
g6
sg7
S'ActivityThread'
p127
sg9
S'27739'
p128
sg11
S'setTargetHeapUtilization:0.75\n'
p129
sa(dp130
g2
S'27739'
p131
sg4
L1449717699632L
sg5
g6
sg7
S'ActivityThread'
p132
sg9
S'27739'
p133
sg11
S'setTargetHeapConcurrentStart:2097152\n'
p134
sa(dp135
g2
S'27739'
p136
sg4
L1449717699702L
sg5
g6
sg7
S'dalvikvm'
p137
sg9
S'27739'
p138
sg11
S'GC_FOR_ALLOC freed 51K, 28% free 2844K/3900K, paused 9ms, total 9ms\n'
p139
sa(dp140
g2
S'27739'
p141
sg4
L1449717699712L
sg5
g20
sg7
S'dalvikvm-heap'
p142
sg9
S'27739'
p143
sg11
S'Grow heap (frag case) to 9.066MB for 3876232-byte allocation\n'
p144
sa(dp145
g2
S'27739'
p146
sg4
L1449717699842L
sg5
g6
sg7
S'dalvikvm'
p147
sg9
S'27739'
p148
sg11
S'GC_FOR_ALLOC freed <1K, 14% free 6629K/7688K, paused 10ms, total 10ms\n'
p149
sa(dp150
g2
S'27739'
p151
sg4
L1449717699852L
sg5
g20
sg7
S'dalvikvm-heap'
p152
sg9
S'27739'
p153
sg11
S'Grow heap (frag case) to 17.383MB for 8721492-byte allocation\n'
p154
sa(dp155
g2
S'27739'
p156
sg4
L1449717699872L
sg5
g6
sg7
S'dalvikvm'
p157
sg9
S'27743'
p158
sg11
S'GC_CONCURRENT freed <1K, 7% free 15146K/16208K, paused 2ms+2ms, total 15ms\n'
p159
sa(dp160
g2
S'27765'
p161
sg4
L1449717700032L
sg5
g6
sg7
S'dalvikvm'
p162
sg9
S'27765'
p163
sg11
S'Late-enabling CheckJNI\n'
p164
sa(dp165
g2
S'27765'
p166
sg4
L1449717700062L
sg5
g6
sg7
S'ActivityThread'
p167
sg9
S'27765'
p168
sg11
S'setTargetHeapUtilization:0.75\n'
p169
sa(dp170
g2
S'27765'
p171
sg4
L1449717700062L
sg5
g6
sg7
S'ActivityThread'
p172
sg9
S'27765'
p173
sg11
S'setTargetHeapConcurrentStart:2097152\n'
p174
sa(dp175
g2
S'27739'
p176
sg4
L1449717700072L
sg5
g20
sg7
S'Adreno-EGL'
p177
sg9
S'27739'
p178
sg11
S'<qeglDrvAPI_eglInitialize:381>: EGL 1.4 QUALCOMM build: AU_LINUX_ANDROID_JB_3.2.1_RB1.04.03.00.101.057_msm8610_JB_3.2.1_RB1__release_AU ()\nOpenGL ES Shader Compiler Version: 20.00.05\nBuild Date: 12/24/13 Tue\nLocal Branch: \nRemote Branch: quic/jb_3.2.1_rb1.31\nLocal Patches: NONE\nReconstruct Branch: AU_LINUX_ANDROID_JB_3.2.1_RB1.04.03.00.101.057 +  NOTHING\n'
p179
sa(dp180
g2
S'27765'
p181
sg4
L1449717700082L
sg5
g6
sg7
S'SocketService'
p182
sg9
S'27765'
p183
sg11
S'onStartCommand : bLogin:false\n'
p184
sa(dp185
g2
S'27765'
p186
sg4
L1449717700082L
sg5
g6
sg7
S'dalvikvm'
p187
sg9
S'27772'
p188
sg11
S'dvmCompilerArchVariantInit: gDvmJit.codeCacheSize pre-set -1.\n'
p189
sa(dp190
g2
S'27765'
p191
sg4
L1449717700082L
sg5
g6
sg7
S'dalvikvm'
p192
sg9
S'27772'
p193
sg11
S'dvmCompilerArchVariantInit: gDvmJit.codeCacheSize post-set 1048576.\n'
p194
sa(dp195
g2
S'27765'
p196
sg4
L1449717700082L
sg5
g6
sg7
S'SocketService'
p197
sg9
S'27765'
p198
sg11
S'pid:27765 myPid:27765\n'
p199
sa(dp200
g2
S'27765'
p201
sg4
L1449717700092L
sg5
g6
sg7
S'SocketService'
p202
sg9
S'27765'
p203
sg11
S'start to run current thread!id:6463\n'
p204
sa(dp205
g2
S'27739'
p206
sg4
L1449717700112L
sg5
g6
sg7
S'OpenGLRenderer'
p207
sg9
S'27739'
p208
sg11
S'Enabling debug mode 0\n'
p209
sa(dp210
g2
S'27739'
p211
sg4
L1449717700222L
sg5
g6
sg7
S'dalvikvm'
p212
sg9
S'27746'
p213
sg11
S'dvmCompilerArchVariantInit: gDvmJit.codeCacheSize pre-set -1.\n'
p214
sa(dp215
g2
S'27739'
p216
sg4
L1449717700222L
sg5
g6
sg7
S'dalvikvm'
p217
sg9
S'27746'
p218
sg11
S'dvmCompilerArchVariantInit: gDvmJit.codeCacheSize post-set 1048576.\n'
p219
sa(dp220
g2
S'27765'
p221
sg4
L1449717701842L
sg5
g6
sg7
S'SocketService'
p222
sg9
S'27786'
p223
sg11
S'ip/10.31.11.98 lport:43342 p:143\n'
p224
sa(dp225
g2
S'27765'
p226
sg4
L1449717701842L
sg5
g6
sg7
S'ForegroundActivity'
p227
sg9
S'27786'
p228
sg11
S'\xe6\x9c\xac\xe6\xac\xa1\xe5\x8f\x91\xe9\x80\x81\xe5\xb8\xa7\xe9\x95\xbf:35\t\xe6\x80\xbb\xe5\xb8\xa7\xe9\x95\xbf:35\n'
p229
sa(dp230
g2
S'27765'
p231
sg4
L1449717701842L
sg5
g6
sg7
S'SocketService'
p232
sg9
S'27786'
p233
sg11
S'success to connect server!id:6463 bLogin:false\n'
p234
sa(dp235
g2
S'27765'
p236
sg4
L1449717702032L
sg5
g6
sg7
S'ForegroundActivity'
p237
sg9
S'27826'
p238
sg11
S'\xe6\x9c\xac\xe6\xac\xa1\xe6\x94\xb6\xe5\x88\xb0\xe5\xb8\xa7\xe9\x95\xbf:13\t\xe6\x80\xbb\xe5\xb8\xa7\xe9\x95\xbf:13\n'
p239
sa(dp240
g2
S'27765'
p241
sg4
L1449717702092L
sg5
g6
sg7
S'SocketService1'
p242
sg9
S'27784'
p243
sg11
S'\xe6\x9c\xac\xe6\xac\xa1\xe6\x8f\x90\xe5\x8f\x961:LoadPtr:13 HeadIndex:0 GetSize:13 13 0 \xe5\xa4\xb4\xe4\xbf\xa1\xe6\x81\xaf:EB 90 EB 90 EB 90 0D 00 0E 01 \n'
p244
sa(dp245
g2
S'27739'
p246
sg4
L1449717702262L
sg5
g6
sg7
S'MainActivity'
p247
sg9
S'27739'
p248
sg11
S'Start One Client\n'
p249
sa(dp250
g2
S'27739'
p251
sg4
L1449717702262L
sg5
g6
sg7
S'StrictMode'
p252
sg9
S'27739'
p253
sg11
S'StrictMode policy violation; ~duration=22 ms: android.os.StrictMode$StrictModeDiskReadViolation: policy=23 violation=2\n\tat android.os.StrictMode$AndroidBlockGuardPolicy.onReadFromDisk(StrictMode.java:1126)\n\tat android.app.SharedPreferencesImpl.awaitLoadedLocked(SharedPreferencesImpl.java:203)\n\tat android.app.SharedPreferencesImpl.edit(SharedPreferencesImpl.java:282)\n\tat com.example.myfristandroid.MainActivity.initCfg(MainActivity.java:454)\n\tat com.example.myfristandroid.MainActivity.onCreate(MainActivity.java:295)\n\tat android.app.Activity.performCreate(Activity.java:5234)\n\tat android.app.Instrumentation.callActivityOnCreate(Instrumentation.java:1087)\n\tat android.app.ActivityThread.performLaunchActivity(ActivityThread.java:2302)\n\tat android.app.ActivityThread.handleLaunchActivity(ActivityThread.java:2388)\n\tat android.app.ActivityThread.access$900(ActivityThread.java:148)\n\tat android.app.ActivityThread$H.handleMessage(ActivityThread.java:1319)\n\tat android.os.Handler.dispatchMessage(Handler.java:99)\n\tat android.os.Looper.loop(Looper.java:137)\n\tat android.app.ActivityThread.main(ActivityThread.java:5457)\n\tat java.lang.reflect.Method.invokeNative(Native Method)\n\tat java.lang.reflect.Method.invoke(Method.java:525)\n\tat com.android.internal.os.ZygoteInit$MethodAndArgsCaller.run(ZygoteInit.java:875)\n\tat com.android.internal.os.ZygoteInit.main(ZygoteInit.java:691)\n\tat dalvik.system.NativeStart.main(Native Method)\n'
p254
sa(dp255
g2
S'27739'
p256
sg4
L1449717702322L
sg5
g6
sg7
S'dalvikvm'
p257
sg9
S'27743'
p258
sg11
S'GC_CONCURRENT freed 4296K, 28% free 13136K/18044K, paused 4ms+3ms, total 20ms\n'
p259
sa(dp260
g2
S'27739'
p261
sg4
L1449717702512L
sg5
g6
sg7
S'dalvikvm'
p262
sg9
S'27743'
p263
sg11
S'GC_CONCURRENT freed 479K, 22% free 14212K/18044K, paused 3ms+5ms, total 21ms\n'
p264
sa(dp265
g2
S'27765'
p266
sg4
L1449717702842L
sg5
g6
sg7
S'ForegroundActivity'
p267
sg9
S'27786'
p268
sg11
S'\xe6\x9c\xac\xe6\xac\xa1\xe5\x8f\x91\xe9\x80\x81\xe5\xb8\xa7\xe9\x95\xbf:11\t\xe6\x80\xbb\xe5\xb8\xa7\xe9\x95\xbf:46\n'
p269
sa(dp270
g2
S'27765'
p271
sg4
L1449717703032L
sg5
g6
sg7
S'ForegroundActivity'
p272
sg9
S'27826'
p273
sg11
S'\xe6\x9c\xac\xe6\xac\xa1\xe6\x94\xb6\xe5\x88\xb0\xe5\xb8\xa7\xe9\x95\xbf:642\t\xe6\x80\xbb\xe5\xb8\xa7\xe9\x95\xbf:655\n'
p274
sa(dp275
g2
S'27765'
p276
sg4
L1449717703112L
sg5
g6
sg7
S'SocketService1'
p277
sg9
S'27784'
p278
sg11
S'\xe6\x9c\xac\xe6\xac\xa1\xe6\x8f\x90\xe5\x8f\x961:LoadPtr:655 HeadIndex:13 GetSize:642 130 512 \xe5\xa4\xb4\xe4\xbf\xa1\xe6\x81\xaf:EB 90 EB 90 EB 90 82 02 14 0A \n'
p279
sa(dp280
g2
S'27739'
p281
sg4
L1449717703122L
sg5
g6
sg7
S'MainActivity'
p282
sg9
S'27739'
p283
sg11
S'page0:http://oa.paneng.cn:1143/se9200/realdata/realdata.html\n'
p284
sa(dp285
g2
S'27739'
p286
sg4
L1449717703132L
sg5
g6
sg7
S'MainActivity'
p287
sg9
S'27739'
p288
sg11
S'page1:http://oa.paneng.cn:1143/se9200/graph/gshow.jsp?mRID=1130000050\n'
p289
sa(dp290
g2
S'27739'
p291
sg4
L1449717703132L
sg5
g6
sg7
S'MainActivity'
p292
sg9
S'27739'
p293
sg11
S'page2:http://oa.paneng.cn:1143/se9200/graph/gshow.jsp?mRID=1130000052\n'
p294
sa(dp295
g2
S'27739'
p296
sg4
L1449717703132L
sg5
g6
sg7
S'MainActivity'
p297
sg9
S'27739'
p298
sg11
S'page3:http://oa.paneng.cn:1143/se9200/graph/gshow.jsp?mRID=1130000054\n'
p299
sa(dp300
g2
S'27739'
p301
sg4
L1449717703132L
sg5
g6
sg7
S'MainActivity'
p302
sg9
S'27739'
p303
sg11
S'page4:http://oa.paneng.cn:1143/se9200/graph/gshow.jsp?mRID=1130000007\n'
p304
sa(dp305
g2
S'27739'
p306
sg4
L1449717703132L
sg5
g6
sg7
S'MainActivity'
p307
sg9
S'27739'
p308
sg11
S'page5:http://oa.paneng.cn:1143/se9200/graph/gshow.jsp?mRID=1130000047\n'
p309
sa(dp310
g2
S'27739'
p311
sg4
L1449717703132L
sg5
g6
sg7
S'MainActivity'
p312
sg9
S'27739'
p313
sg11
S'page6:http://oa.paneng.cn:1143/se9200/graph/gshow.jsp?mRID=1130000011\n'
p314
sa(dp315
g2
S'27739'
p316
sg4
L1449717703142L
sg5
g6
sg7
S'MainActivity'
p317
sg9
S'27739'
p318
sg11
S'page7:http://oa.paneng.cn:1143/se9200/graph/gshow.jsp?mRID=1130000005\n'
p319
sa(dp320
g2
S'27739'
p321
sg4
L1449717703142L
sg5
g6
sg7
S'MainActivity'
p322
sg9
S'27739'
p323
sg11
S'page8:http://oa.paneng.cn:1143/se9200/graph/gshow.jsp?mRID=1130000148\n'
p324
sa(dp325
g2
S'27739'
p326
sg4
L1449717703142L
sg5
g6
sg7
S'MainActivity'
p327
sg9
S'27739'
p328
sg11
S'page9:http://oa.paneng.cn:1143/se9200/graph/gshow.jsp?mRID=1130000296\n'
p329
sa(dp330
g2
S'27765'
p331
sg4
L1449717703842L
sg5
g6
sg7
S'ForegroundActivity'
p332
sg9
S'27786'
p333
sg11
S'\xe6\x9c\xac\xe6\xac\xa1\xe5\x8f\x91\xe9\x80\x81\xe5\xb8\xa7\xe9\x95\xbf:11\t\xe6\x80\xbb\xe5\xb8\xa7\xe9\x95\xbf:57\n'
p334
sa(dp335
g2
S'27765'
p336
sg4
L1449717704002L
sg5
g6
sg7
S'ForegroundActivity'
p337
sg9
S'27826'
p338
sg11
S'\xe6\x9c\xac\xe6\xac\xa1\xe6\x94\xb6\xe5\x88\xb0\xe5\xb8\xa7\xe9\x95\xbf:67\t\xe6\x80\xbb\xe5\xb8\xa7\xe9\x95\xbf:722\n'
p339
sa(dp340
g2
S'27765'
p341
sg4
L1449717704142L
sg5
g6
sg7
S'SocketService1'
p342
sg9
S'27784'
p343
sg11
S'\xe6\x9c\xac\xe6\xac\xa1\xe6\x8f\x90\xe5\x8f\x961:LoadPtr:722 HeadIndex:655 GetSize:67 67 0 \xe5\xa4\xb4\xe4\xbf\xa1\xe6\x81\xaf:EB 90 EB 90 EB 90 43 00 15 02 \n'
p344
sa(dp345
g2
S'27739'
p346
sg4
L1449717704162L
sg5
g6
sg7
S'MainActivity'
p347
sg9
S'27739'
p348
sg11
S'ServerVersion:22 LocalVersion:12\n'
p349
sa(dp350
g2
S'27739'
p351
sg4
L1449717706912L
sg5
g6
sg7
S'webcoreglue'
p352
sg9
S'27868'
p353
sg11
S'netstack: Memory Cache feature is ON\n'
p354
sa(dp355
g2
S'27739'
p356
sg4
L1449717706952L
sg5
g6
sg7
S'JSENGINE'
p357
sg9
S'27868'
p358
sg11
S'qualcomm.jsengine.version:C.3-patch5-git:35c0a3d\n'
p359
sa(dp360
g2
S'27739'
p361
sg4
L1449717707032L
sg5
S'E'
p362
sg7
S'        '
p363
sg9
S'27868'
p364
sg11
S'netstack: LIB_MGR - Error loading lib libdnshostprio.so\n'
p365
sa(dp366
g2
S'27739'
p367
sg4
L1449717707032L
sg5
g362
sg7
S'        '
p368
sg9
S'27868'
p369
sg11
S'netstack: STAT_HUB - Failed to load plugin: libdnshostprio.so\n'
p370
sa(dp371
g2
S'27739'
p372
sg4
L1449717707032L
sg5
g362
sg7
S'        '
p373
sg9
S'27868'
p374
sg11
S'netstack: LIB_MGR - Error loading lib spl_proc_plugin.so\n'
p375
sa(dp376
g2
S'27739'
p377
sg4
L1449717707032L
sg5
g362
sg7
S'        '
p378
sg9
S'27868'
p379
sg11
S'netstack: STAT_HUB - Failed to load plugin: spl_proc_plugin.so\n'
p380
sa(dp381
g2
S'27739'
p382
sg4
L1449717707032L
sg5
g362
sg7
S'        '
p383
sg9
S'27868'
p384
sg11
S'netstack: LIB_MGR - Error loading lib pp_proc_plugin.so\n'
p385
sa(dp386
g2
S'27739'
p387
sg4
L1449717707032L
sg5
g362
sg7
S'        '
p388
sg9
S'27868'
p389
sg11
S'netstack: STAT_HUB - Failed to load plugin: pp_proc_plugin.so\n'
p390
sa(dp391
g2
S'27739'
p392
sg4
L1449717707032L
sg5
g362
sg7
S'        '
p393
sg9
S'27868'
p394
sg11
S"netstack:  STAT_HUB - App com.example.myfristandroid isn't supported\n"
p395
sa(dp396
g2
S'27739'
p397
sg4
L1449717707052L
sg5
S'V'
p398
sg7
S'chromium_net'
p399
sg9
S'27868'
p400
sg11
S'external/chromium/net/host_resolver_helper/host_resolver_helper.cc:66: [1210/112147:INFO:host_resolver_helper.cc(66)] DNSPreResolver::Init got hostprovider:0x00000000\n'
p401
sa(dp402
g2
S'27739'
p403
sg4
L1449717707052L
sg5
g398
sg7
S'chromium_net'
p404
sg9
S'27868'
p405
sg11
S'external/chromium/net/base/host_resolver_impl.cc:1510: [1210/112147:INFO:host_resolver_impl.cc(1510)] HostResolverImpl::SetPreresolver preresolver:0x5ca8d1a8\n'
p406
sa(dp407
g2
S'27739'
p408
sg4
L1449717707052L
sg5
g362
sg7
S'        '
p409
sg9
S'27868'
p410
sg11
S'netstack: LIB_MGR - Error loading lib libdnshostprio.so\n'
p411
sa(dp412
g2
S'27739'
p413
sg4
L1449717707052L
sg5
g6
sg7
S'        '
p414
sg9
S'27868'
p415
sg11
S'dl error message dlopen failed: library "libtcpfinaggr.so" not found\n'
p416
sa(dp417
g2
S'27739'
p418
sg4
L1449717707052L
sg5
g6
sg7
S'Socket_Pool'
p419
sg9
S'27868'
p420
sg11
S'Failed to create TCP Fin Aggregation interface.\n'
p421
sa(dp422
g2
S'27739'
p423
sg4
L1449717707052L
sg5
g6
sg7
S'Socket_Pool'
p424
sg9
S'27868'
p425
sg11
S'netstack: CloseUnusedSockets is ON\n'
p426
sa(dp427
g2
S'27739'
p428
sg4
L1449717707052L
sg5
g6
sg7
S'Socket_Pool'
p429
sg9
S'27868'
p430
sg11
S'netstack: system net.statistics value: 0\n'
p431
sa(dp432
g2
S'27739'
p433
sg4
L1449717707052L
sg5
g6
sg7
S'        '
p434
sg9
S'27868'
p435
sg11
S"external/chromium/net/http/http_getzip_factory.cc: Failed to construct GETzip manager, didn't find the library!\n"
p436
sa(dp437
g2
S'27739'
p438
sg4
L1449717707062L
sg5
g6
sg7
S'netstack'
p439
sg9
S'27868'
p440
sg11
S'netstack: Request Priority is ON\n'
p441
sa(dp442
g2
S'27739'
p443
sg4
L1449717707072L
sg5
g362
sg7
S'        '
p444
sg9
S'27880'
p445
sg11
S'netstack: LIB_MGR - Error loading lib qnet-plugin.so\n'
p446
sa(dp447
g2
S'27739'
p448
sg4
L1449717707072L
sg5
g6
sg7
S'        '
p449
sg9
S'27880'
p450
sg11
S'Failed to load DoObserveConnections symbol in tcp-connections.so\n'
p451
sa(dp452
g2
S'27739'
p453
sg4
L1449717709562L
sg5
g6
sg7
S'WebKit  '
p454
sg9
S'27868'
p455
sg11
S'ERROR: \n'
p456
sa(dp457
g2
S'27739'
p458
sg4
L1449717709562L
sg5
g6
sg7
S'WebKit  '
p459
sg9
S'27868'
p460
sg11
S'alias gb18030 maps to GB18030 already, but someone is trying to make it map to GBK\n'
p461
sa(dp462
g2
S'27739'
p463
sg4
L1449717709562L
sg5
g6
sg7
S'WebKit  '
p464
sg9
S'27868'
p465
sg11
S''
p466
sa(dp467
g2
S'27739'
p468
sg4
L1449717709562L
sg5
g6
sg7
S'WebKit  '
p469
sg9
S'27868'
p470
sg11
S'external/webkit/Source/WebCore/platform/text/TextEncodingRegistry.cpp(152) : void WebCore::checkExistingName(const char*, const char*)\n'
p471
sa(dp472
g2
S'27739'
p473
sg4
L1449717709842L
sg5
g362
sg7
S'cutils-trace'
p474
sg9
S'27868'
p475
sg11
S'Error opening trace file: No such file or directory (2)\n'
p476
sa(dp477
g2
S'27739'
p478
sg4
L1449717709862L
sg5
g6
sg7
S'TilesManager'
p479
sg9
S'27739'
p480
sg11
S'Starting TG #0, 0x600b2f80\n'
p481
sa(dp482
g2
S'27739'
p483
sg4
L1449717709862L
sg5
g6
sg7
S'TilesManager'
p484
sg9
S'27739'
p485
sg11
S'new EGLContext from framework: 60019820 \n'
p486
sa(dp487
g2
S'27739'
p488
sg4
L1449717709862L
sg5
g6
sg7
S'GLWebViewState'
p489
sg9
S'27739'
p490
sg11
S'Reinit shader\n'
p491
sa(dp492
g2
S'27739'
p493
sg4
L1449717709902L
sg5
g6
sg7
S'GLWebViewState'
p494
sg9
S'27739'
p495
sg11
S'Reinit transferQueue\n'
p496
sa(dp497
g2
S'27739'
p498
sg4
L1449717710532L
sg5
g6
sg7
S'MainActivity'
p499
sg9
S'27868'
p500
sg11
S'h:774.256,w:1432\n'
p501
sa(dp502
g2
S'27739'
p503
sg4
L1449717715962L
sg5
g6
sg7
S'dalvikvm'
p504
sg9
S'27743'
p505
sg11
S'GC_CONCURRENT freed 1446K, 18% free 14882K/18044K, paused 2ms+5ms, total 29ms\n'
p506
sa(dp507
g2
S'27739'
p508
sg4
L1449717717752L
sg5
g6
sg7
S'MainActivity'
p509
sg9
S'27868'
p510
sg11
S'h:910.5,w:1687.5\n'
p511
sa(dp512
g2
S'27739'
p513
sg4
L1449717728092L
sg5
g6
sg7
S'cn.edu.nju.ise.kikandroid'
p514
sg9
S'27790'
p515
sg11
S'Log:1449717728095\n'
p516
sa(dp517
g2
S'27739'
p518
sg4
L1449717728202L
sg5
g6
sg7
S'dalvikvm'
p519
sg9
S'27743'
p520
sg11
S'GC_CONCURRENT freed 229K, 13% free 16972K/19340K, paused 2ms+7ms, total 35ms\n'
p521
sa(dp522
g2
S'27739'
p523
sg4
L1449717728362L
sg5
g6
sg7
S'cn.edu.nju.ise.kikandroid'
p524
sg9
S'27790'
p525
sg11
S'Screenshot:1449717728126\n'
p526
sa(dp527
g2
S'27739'
p528
sg4
L1449717728362L
sg5
g116
sg7
S'dalvikvm'
p529
sg9
S'27790'
p530
sg11
S'threadid=14: thread exiting with uncaught exception (group=0x4164f8e0)\n'
p531
sa(dp532
g2
S'27739'
p533
sg4
L1449717728362L
sg5
g362
sg7
S'AndroidRuntime'
p534
sg9
S'27790'
p535
sg11
S'FATAL EXCEPTION: Thread-6458\njava.lang.NullPointerException\n\tat android.app.Instrumentation.finish(Instrumentation.java:190)\n\tat cn.edu.nju.ise.kikandroid.AUTInstrument.quitInstr(AUTInstrument.java:195)\n\tat cn.edu.nju.ise.kikandroid.AUTInstrument.startServer(AUTInstrument.java:161)\n\tat cn.edu.nju.ise.kikandroid.AUTInstrument$1.run(AUTInstrument.java:107)\n\tat java.lang.Thread.run(Thread.java:841)\n'
p536
sa.