(lp0
(dp1
S'EventTime'
p2
S'754685870'
p3
sS'SyscTime'
p4
L1449659999878L
sS'recordCount'
p5
S'0'
p6
sS'EventType'
p7
S'TYPE_WINDOW_CONTENT_CHANGED'
p8
sS'PackageName'
p9
S'com.example.myfristandroid'
p10
sS'Action'
p11
S'[ ClassName: android.widget.FrameLayout; Text: []; ContentDescription: null; ItemCount: -1; CurrentItemIndex: -1; IsEnabled: true; IsPassword: false; IsChecked: false; IsFullScreen: false; Scrollable: false; BeforeText: null; FromIndex: -1; ToIndex: -1; ScrollX: -1; ScrollY: -1; MaxScrollX: -1; MaxScrollY: -1; AddedCount: -1; RemovedCount: -1; ParcelableData: null ]'
p12
sS'MovementGranularity'
p13
g6
sa(dp14
S'EventTime'
p15
S'754686042'
p16
sg4
L1449660000139L
sS'recordCount'
p17
g6
sS'EventType'
p18
S'TYPE_WINDOW_STATE_CHANGED'
p19
sS'PackageName'
p20
S'com.example.myfristandroid'
p21
sS'OutBounds'
p22
S'Rect(0, 0 - 720, 1280)'
p23
sS'Action'
p24
S'[ ClassName: com.example.myfristandroid.SplashActivity; Text: [SE-1800\xe7\xa7\xbb\xe5\x8a\xa8APP]; ContentDescription: null; ItemCount: -1; CurrentItemIndex: -1; IsEnabled: true; IsPassword: false; IsChecked: false; IsFullScreen: true; Scrollable: false; BeforeText: null; FromIndex: -1; ToIndex: -1; ScrollX: -1; ScrollY: -1; MaxScrollX: -1; MaxScrollY: -1; AddedCount: -1; RemovedCount: -1; ParcelableData: null ]'
p25
sS'MovementGranularity'
p26
g6
sa(dp27
S'EventTime'
p28
S'754686226'
p29
sg4
L1449660000233L
sS'recordCount'
p30
g6
sS'EventType'
p31
S'TYPE_WINDOW_CONTENT_CHANGED'
p32
sS'PackageName'
p33
S'com.example.myfristandroid'
p34
sS'OutBounds'
p35
S'Rect(0, 0 - 720, 1280)'
p36
sS'Action'
p37
S'[ ClassName: android.widget.FrameLayout; Text: []; ContentDescription: null; ItemCount: -1; CurrentItemIndex: -1; IsEnabled: true; IsPassword: false; IsChecked: false; IsFullScreen: false; Scrollable: false; BeforeText: null; FromIndex: -1; ToIndex: -1; ScrollX: -1; ScrollY: -1; MaxScrollX: -1; MaxScrollY: -1; AddedCount: -1; RemovedCount: -1; ParcelableData: null ]'
p38
sS'MovementGranularity'
p39
g6
sa(dp40
S'EventTime'
p41
S'754688472'
p42
sg4
L1449660002513L
sS'recordCount'
p43
g6
sS'EventType'
p44
S'TYPE_WINDOW_STATE_CHANGED'
p45
sS'PackageName'
p46
S'com.example.myfristandroid'
p47
sS'OutBounds'
p48
S'Rect(0, 0 - 720, 1280)'
p49
sS'Action'
p50
S'[ ClassName: com.example.myfristandroid.MainActivity; Text: [SE-1800\xe7\xa7\xbb\xe5\x8a\xa8APP]; ContentDescription: null; ItemCount: -1; CurrentItemIndex: -1; IsEnabled: true; IsPassword: false; IsChecked: false; IsFullScreen: true; Scrollable: false; BeforeText: null; FromIndex: -1; ToIndex: -1; ScrollX: -1; ScrollY: -1; MaxScrollX: -1; MaxScrollY: -1; AddedCount: -1; RemovedCount: -1; ParcelableData: null ]'
p51
sS'MovementGranularity'
p52
g6
sa(dp53
S'EventTime'
p54
S'754688506'
p55
sg4
L1449660002530L
sS'recordCount'
p56
g6
sS'EventType'
p57
S'TYPE_VIEW_SCROLLED'
p58
sS'PackageName'
p59
S'com.example.myfristandroid'
p60
sS'OutBounds'
p61
S'Rect(732, 414 - 1428, 414)'
p62
sS'Action'
p63
S'[ ClassName: android.widget.ListView; Text: []; ContentDescription: null; ItemCount: 0; CurrentItemIndex: -1; IsEnabled: true; IsPassword: false; IsChecked: false; IsFullScreen: false; Scrollable: false; BeforeText: null; FromIndex: 0; ToIndex: -1; ScrollX: -1; ScrollY: -1; MaxScrollX: -1; MaxScrollY: -1; AddedCount: -1; RemovedCount: -1; ParcelableData: null ]'
p64
sS'MovementGranularity'
p65
g6
sa(dp66
S'EventTime'
p67
S'754688622'
p68
sg4
L1449660002629L
sS'recordCount'
p69
S'1'
p70
sS'EventType'
p71
S'TYPE_WINDOW_CONTENT_CHANGED'
p72
sS'PackageName'
p73
S'com.example.myfristandroid'
p74
sS'OutBounds'
p75
S'Rect(6, 795 - 240, 830)'
p76
sS'Action'
p77
S'[ ClassName: android.widget.TextView; Text: []; ContentDescription: null; ItemCount: -1; CurrentItemIndex: -1; IsEnabled: true; IsPassword: false; IsChecked: false; IsFullScreen: false; Scrollable: false; BeforeText: null; FromIndex: -1; ToIndex: -1; ScrollX: -1; ScrollY: -1; MaxScrollX: -1; MaxScrollY: -1; AddedCount: -1; RemovedCount: -1; ParcelableData: null ]'
p78
sS'MovementGranularity'
p79
g6
sa(dp80
S'EventTime'
p81
S'754690168'
p82
sg4
L1449660004193L
sS'recordCount'
p83
g6
sS'EventType'
p84
S'TYPE_WINDOW_STATE_CHANGED'
p85
sS'PackageName'
p86
S'com.example.myfristandroid'
p87
sS'OutBounds'
p88
S'Rect(0, 0 - 720, 1280)'
p89
sS'Action'
p90
S'[ ClassName: com.example.myfristandroid.HuzAlertDialog; Text: [\xe6\x8f\x90\xe7\xa4\xba, \xe7\x89\x88\xe6\x9c\xac\xe6\x9c\x89\xe6\x9b\xb4\xe6\x96\xb0\xef\xbc\x8c\xe6\x98\xaf\xe5\x90\xa6\xe9\x9c\x80\xe8\xa6\x81\xe6\x9b\xb4\xe6\x96\xb0, \xe7\xab\x8b\xe5\x8d\xb3\xe6\x9b\xb4\xe6\x96\xb0, \xe7\xa8\x8d\xe5\x90\x8e\xe6\x9b\xb4\xe6\x96\xb0]; ContentDescription: null; ItemCount: -1; CurrentItemIndex: -1; IsEnabled: true; IsPassword: false; IsChecked: false; IsFullScreen: true; Scrollable: false; BeforeText: null; FromIndex: -1; ToIndex: -1; ScrollX: -1; ScrollY: -1; MaxScrollX: -1; MaxScrollY: -1; AddedCount: -1; RemovedCount: -1; ParcelableData: null ]'
p91
sS'MovementGranularity'
p92
g6
sa(dp93
S'EventTime'
p94
S'754690337'
p95
sg4
L1449660004347L
sS'recordCount'
p96
g6
sS'EventType'
p97
S'TYPE_WINDOW_CONTENT_CHANGED'
p98
sS'PackageName'
p99
S'com.example.myfristandroid'
p100
sS'OutBounds'
p101
S'Rect(372, 708 - 679, 804)'
p102
sS'Action'
p103
S'[ ClassName: android.widget.Button; Text: []; ContentDescription: null; ItemCount: -1; CurrentItemIndex: -1; IsEnabled: true; IsPassword: false; IsChecked: false; IsFullScreen: false; Scrollable: false; BeforeText: null; FromIndex: -1; ToIndex: -1; ScrollX: -1; ScrollY: -1; MaxScrollX: -1; MaxScrollY: -1; AddedCount: -1; RemovedCount: -1; ParcelableData: null ]'
p104
sS'MovementGranularity'
p105
g6
sa(dp106
S'EventTime'
p107
S'754691718'
p108
sg4
L1449660005724L
sS'recordCount'
p109
g6
sS'EventType'
p110
S'TYPE_VIEW_CLICKED'
p111
sS'PackageName'
p112
S'com.example.myfristandroid'
p113
sS'OutBounds'
p114
S'Rect(372, 708 - 679, 804)'
p115
sS'Action'
p116
S'[ ClassName: android.widget.Button; Text: [\xe7\xa8\x8d\xe5\x90\x8e\xe6\x9b\xb4\xe6\x96\xb0]; ContentDescription: null; ItemCount: -1; CurrentItemIndex: -1; IsEnabled: true; IsPassword: false; IsChecked: false; IsFullScreen: false; Scrollable: false; BeforeText: null; FromIndex: -1; ToIndex: -1; ScrollX: -1; ScrollY: -1; MaxScrollX: -1; MaxScrollY: -1; AddedCount: -1; RemovedCount: -1; ParcelableData: null ]'
p117
sS'MovementGranularity'
p118
g6
sa(dp119
S'EventTime'
p120
S'754691762'
p121
sg4
L1449660005792L
sS'recordCount'
p122
g6
sS'EventType'
p123
S'TYPE_WINDOW_STATE_CHANGED'
p124
sS'PackageName'
p125
S'com.example.myfristandroid'
p126
sS'OutBounds'
p127
S'Rect(0, 0 - 720, 1280)'
p128
sS'Action'
p129
S'[ ClassName: com.example.myfristandroid.MainActivity; Text: [SE-1800\xe7\xa7\xbb\xe5\x8a\xa8APP]; ContentDescription: null; ItemCount: -1; CurrentItemIndex: -1; IsEnabled: true; IsPassword: false; IsChecked: false; IsFullScreen: true; Scrollable: false; BeforeText: null; FromIndex: -1; ToIndex: -1; ScrollX: -1; ScrollY: -1; MaxScrollX: -1; MaxScrollY: -1; AddedCount: -1; RemovedCount: -1; ParcelableData: null ]'
p130
sS'MovementGranularity'
p131
g6
sa(dp132
S'EventTime'
p133
S'754693029'
p134
sg4
L1449660007182L
sS'recordCount'
p135
g6
sS'EventType'
p136
S'TYPE_VIEW_FOCUSED'
p137
sS'PackageName'
p138
S'com.example.myfristandroid'
p139
sS'OutBounds'
p140
S'Rect(713, 148 - 1223, 208)'
p141
sS'Action'
p142
S'[ ClassName: android.widget.EditText; Text: [\xe6\x9c\x8d\xe5\x8a\xa1\xe5\x99\xa8\xe5\x9c\xb0\xe5\x9d\x80]; ContentDescription: null; ItemCount: 10; CurrentItemIndex: 0; IsEnabled: true; IsPassword: false; IsChecked: false; IsFullScreen: false; Scrollable: false; BeforeText: null; FromIndex: -1; ToIndex: -1; ScrollX: -1; ScrollY: -1; MaxScrollX: -1; MaxScrollY: -1; AddedCount: -1; RemovedCount: -1; ParcelableData: null ]'
p143
sS'MovementGranularity'
p144
g6
sa(dp145
S'EventTime'
p146
S'754693049'
p147
sg4
L1449660007212L
sS'recordCount'
p148
g6
sS'EventType'
p149
S'TYPE_VIEW_TEXT_SELECTION_CHANGED'
p150
sS'PackageName'
p151
S'com.example.myfristandroid'
p152
sS'OutBounds'
p153
S'Rect(207, 218 - 717, 278)'
p154
sS'Action'
p155
S'[ ClassName: android.widget.EditText; Text: [143]; ContentDescription: null; ItemCount: 3; CurrentItemIndex: -1; IsEnabled: true; IsPassword: false; IsChecked: false; IsFullScreen: false; Scrollable: false; BeforeText: null; FromIndex: 0; ToIndex: 0; ScrollX: -1; ScrollY: -1; MaxScrollX: -1; MaxScrollY: -1; AddedCount: -1; RemovedCount: -1; ParcelableData: null ]'
p156
sS'MovementGranularity'
p157
g6
sa(dp158
S'EventTime'
p159
S'754693053'
p160
sg4
L1449660007229L
sS'recordCount'
p161
g6
sS'EventType'
p162
S'TYPE_VIEW_CLICKED'
p163
sS'PackageName'
p164
S'com.example.myfristandroid'
p165
sS'OutBounds'
p166
S'Rect(540, 1170 - 720, 1280)'
p167
sS'Action'
p168
S'[ ClassName: android.widget.LinearLayout; Text: [\xe8\xae\xbe\xe7\xbd\xae\xe7\xb3\xbb\xe7\xbb\x9f\xe8\xbf\x90\xe8\xa1\x8c\xe5\x8f\x82\xe6\x95\xb0, \xe8\xae\xbe\xe7\xbd\xae]; ContentDescription: null; ItemCount: -1; CurrentItemIndex: -1; IsEnabled: true; IsPassword: false; IsChecked: false; IsFullScreen: false; Scrollable: false; BeforeText: null; FromIndex: -1; ToIndex: -1; ScrollX: -1; ScrollY: -1; MaxScrollX: -1; MaxScrollY: -1; AddedCount: -1; RemovedCount: -1; ParcelableData: null ]'
p169
sS'MovementGranularity'
p170
g6
sa(dp171
S'EventTime'
p172
S'754693128'
p173
sg4
L1449660007258L
sS'recordCount'
p174
g6
sS'EventType'
p175
S'TYPE_WINDOW_CONTENT_CHANGED'
p176
sS'PackageName'
p177
S'com.example.myfristandroid'
p178
sS'OutBounds'
p179
S'Rect(0, 138 - 720, 1170)'
p180
sS'Action'
p181
S'[ ClassName: android.support.v4.view.ViewPager; Text: []; ContentDescription: null; ItemCount: -1; CurrentItemIndex: -1; IsEnabled: true; IsPassword: false; IsChecked: false; IsFullScreen: false; Scrollable: false; BeforeText: null; FromIndex: -1; ToIndex: -1; ScrollX: -1; ScrollY: -1; MaxScrollX: -1; MaxScrollY: -1; AddedCount: -1; RemovedCount: -1; ParcelableData: null ]'
p182
sS'MovementGranularity'
p183
g6
sa(dp184
S'EventTime'
p185
S'754693269'
p186
sg4
L1449660007279L
sS'recordCount'
p187
g6
sS'EventType'
p188
S'TYPE_WINDOW_CONTENT_CHANGED'
p189
sS'PackageName'
p190
S'com.example.myfristandroid'
p191
sS'OutBounds'
p192
S'Rect(500, 512 - 710, 547)'
p193
sS'Action'
p194
S'[ ClassName: android.widget.TextView; Text: []; ContentDescription: null; ItemCount: -1; CurrentItemIndex: -1; IsEnabled: true; IsPassword: false; IsChecked: false; IsFullScreen: false; Scrollable: false; BeforeText: null; FromIndex: -1; ToIndex: -1; ScrollX: -1; ScrollY: -1; MaxScrollX: -1; MaxScrollY: -1; AddedCount: -1; RemovedCount: -1; ParcelableData: null ]'
p195
sS'MovementGranularity'
p196
g6
sa(dp197
S'EventTime'
p198
S'754693289'
p199
sg4
L1449660007310L
sS'recordCount'
p200
g6
sS'EventType'
p201
S'TYPE_VIEW_SCROLLED'
p202
sS'PackageName'
p203
S'com.example.myfristandroid'
p204
sS'OutBounds'
p205
S'Rect(0, 138 - 720, 1170)'
p206
sS'Action'
p207
S'[ ClassName: android.support.v4.view.ViewPager; Text: []; ContentDescription: null; ItemCount: -1; CurrentItemIndex: -1; IsEnabled: true; IsPassword: false; IsChecked: false; IsFullScreen: false; Scrollable: false; BeforeText: null; FromIndex: -1; ToIndex: -1; ScrollX: -1; ScrollY: -1; MaxScrollX: -1; MaxScrollY: -1; AddedCount: -1; RemovedCount: -1; ParcelableData: null ]'
p208
sS'MovementGranularity'
p209
g6
sa(dp210
S'EventTime'
p211
S'754693402'
p212
sg4
L1449660007423L
sS'recordCount'
p213
g6
sS'EventType'
p214
S'TYPE_VIEW_SCROLLED'
p215
sS'PackageName'
p216
S'com.example.myfristandroid'
p217
sS'OutBounds'
p218
S'Rect(0, 138 - 720, 1170)'
p219
sS'Action'
p220
S'[ ClassName: android.support.v4.view.ViewPager; Text: []; ContentDescription: null; ItemCount: -1; CurrentItemIndex: -1; IsEnabled: true; IsPassword: false; IsChecked: false; IsFullScreen: false; Scrollable: false; BeforeText: null; FromIndex: -1; ToIndex: -1; ScrollX: -1; ScrollY: -1; MaxScrollX: -1; MaxScrollY: -1; AddedCount: -1; RemovedCount: -1; ParcelableData: null ]'
p221
sS'MovementGranularity'
p222
g6
sa(dp223
S'EventTime'
p224
S'754693475'
p225
sg4
L1449660007509L
sS'recordCount'
p226
g6
sS'EventType'
p227
S'TYPE_WINDOW_CONTENT_CHANGED'
p228
sS'PackageName'
p229
S'com.example.myfristandroid'
p230
sS'OutBounds'
p231
S'Rect(0, 138 - 720, 1170)'
p232
sS'Action'
p233
S'[ ClassName: android.support.v4.view.ViewPager; Text: []; ContentDescription: null; ItemCount: -1; CurrentItemIndex: -1; IsEnabled: true; IsPassword: false; IsChecked: false; IsFullScreen: false; Scrollable: false; BeforeText: null; FromIndex: -1; ToIndex: -1; ScrollX: -1; ScrollY: -1; MaxScrollX: -1; MaxScrollY: -1; AddedCount: -1; RemovedCount: -1; ParcelableData: null ]'
p234
sS'MovementGranularity'
p235
g6
sa(dp236
S'EventTime'
p237
S'754693576'
p238
sg4
L1449660007596L
sS'recordCount'
p239
g6
sS'EventType'
p240
S'TYPE_WINDOW_CONTENT_CHANGED'
p241
sS'PackageName'
p242
S'com.example.myfristandroid'
p243
sS'OutBounds'
p244
S'Rect(0, 138 - 720, 1170)'
p245
sS'Action'
p246
S'[ ClassName: android.support.v4.view.ViewPager; Text: []; ContentDescription: null; ItemCount: -1; CurrentItemIndex: -1; IsEnabled: true; IsPassword: false; IsChecked: false; IsFullScreen: false; Scrollable: false; BeforeText: null; FromIndex: -1; ToIndex: -1; ScrollX: -1; ScrollY: -1; MaxScrollX: -1; MaxScrollY: -1; AddedCount: -1; RemovedCount: -1; ParcelableData: null ]'
p247
sS'MovementGranularity'
p248
g6
sa(dp249
S'EventTime'
p250
S'754695500'
p251
sg4
L1449660009642L
sS'recordCount'
p252
g6
sS'EventType'
p253
S'TYPE_WINDOW_CONTENT_CHANGED'
p254
sS'PackageName'
p255
S'com.example.myfristandroid'
p256
sS'OutBounds'
p257
S'Rect(200, 148 - 710, 208)'
p258
sS'Action'
p259
S'[ ClassName: android.widget.EditText; Text: []; ContentDescription: null; ItemCount: -1; CurrentItemIndex: -1; IsEnabled: true; IsPassword: false; IsChecked: false; IsFullScreen: false; Scrollable: false; BeforeText: null; FromIndex: -1; ToIndex: -1; ScrollX: -1; ScrollY: -1; MaxScrollX: -1; MaxScrollY: -1; AddedCount: -1; RemovedCount: -1; ParcelableData: null ]'
p260
sS'MovementGranularity'
p261
g6
sa(dp262
S'EventTime'
p263
S'754695503'
p264
sg4
L1449660009775L
sS'recordCount'
p265
g6
sS'EventType'
p266
S'TYPE_VIEW_TEXT_SELECTION_CHANGED'
p267
sS'PackageName'
p268
S'com.example.myfristandroid'
p269
sS'OutBounds'
p270
S'Rect(200, 428 - 710, 488)'
p271
sS'Action'
p272
S'[ ClassName: android.widget.EditText; Text: []; ContentDescription: null; ItemCount: 4; CurrentItemIndex: -1; IsEnabled: true; IsPassword: true; IsChecked: false; IsFullScreen: false; Scrollable: false; BeforeText: null; FromIndex: 4; ToIndex: 4; ScrollX: -1; ScrollY: -1; MaxScrollX: -1; MaxScrollY: -1; AddedCount: -1; RemovedCount: -1; ParcelableData: null ]'
p273
sS'MovementGranularity'
p274
g6
sa(dp275
S'EventTime'
p276
S'754695504'
p277
sg4
L1449660009799L
sS'recordCount'
p278
g6
sS'EventType'
p279
S'TYPE_VIEW_FOCUSED'
p280
sS'PackageName'
p281
S'com.example.myfristandroid'
p282
sS'OutBounds'
p283
S'Rect(200, 428 - 710, 488)'
p284
sS'Action'
p285
S'[ ClassName: android.widget.EditText; Text: []; ContentDescription: null; ItemCount: 10; CurrentItemIndex: 4; IsEnabled: true; IsPassword: true; IsChecked: false; IsFullScreen: false; Scrollable: false; BeforeText: null; FromIndex: -1; ToIndex: -1; ScrollX: -1; ScrollY: -1; MaxScrollX: -1; MaxScrollY: -1; AddedCount: -1; RemovedCount: -1; ParcelableData: null ]'
p286
sS'MovementGranularity'
p287
g6
sa(dp288
S'EventTime'
p289
S'754726169'
p290
sg4
L1449660040176L
sS'recordCount'
p291
g6
sS'EventType'
p292
S'TYPE_VIEW_CLICKED'
p293
sS'PackageName'
p294
S'com.example.myfristandroid'
p295
sS'OutBounds'
p296
S'Rect(200, 428 - 710, 488)'
p297
sS'Action'
p298
S'[ ClassName: android.widget.EditText; Text: []; ContentDescription: null; ItemCount: -1; CurrentItemIndex: -1; IsEnabled: true; IsPassword: true; IsChecked: false; IsFullScreen: false; Scrollable: false; BeforeText: null; FromIndex: -1; ToIndex: -1; ScrollX: -1; ScrollY: -1; MaxScrollX: -1; MaxScrollY: -1; AddedCount: -1; RemovedCount: -1; ParcelableData: null ]'
p299
sS'MovementGranularity'
p300
g6
sa(dp301
S'EventTime'
p302
S'754727312'
p303
sg4
L1449660041323L
sS'recordCount'
p304
g6
sS'EventType'
p305
S'TYPE_VIEW_TEXT_CHANGED'
p306
sS'PackageName'
p307
S'com.example.myfristandroid'
p308
sS'OutBounds'
p309
S'Rect(200, 428 - 710, 488)'
p310
sS'Action'
p311
S'[ ClassName: android.widget.EditText; Text: []; ContentDescription: null; ItemCount: -1; CurrentItemIndex: -1; IsEnabled: true; IsPassword: true; IsChecked: false; IsFullScreen: false; Scrollable: false; BeforeText: null; FromIndex: 3; ToIndex: -1; ScrollX: -1; ScrollY: -1; MaxScrollX: -1; MaxScrollY: -1; AddedCount: 0; RemovedCount: 1; ParcelableData: null ]'
p312
sS'MovementGranularity'
p313
g6
sa(dp314
S'EventTime'
p315
S'754727315'
p316
sg4
L1449660041344L
sS'recordCount'
p317
g6
sS'EventType'
p318
S'TYPE_VIEW_TEXT_SELECTION_CHANGED'
p319
sS'PackageName'
p320
S'com.example.myfristandroid'
p321
sS'OutBounds'
p322
S'Rect(200, 428 - 710, 488)'
p323
sS'Action'
p324
S'[ ClassName: android.widget.EditText; Text: []; ContentDescription: null; ItemCount: 3; CurrentItemIndex: -1; IsEnabled: true; IsPassword: true; IsChecked: false; IsFullScreen: false; Scrollable: false; BeforeText: null; FromIndex: 3; ToIndex: 3; ScrollX: -1; ScrollY: -1; MaxScrollX: -1; MaxScrollY: -1; AddedCount: -1; RemovedCount: -1; ParcelableData: null ]'
p325
sS'MovementGranularity'
p326
g6
sa(dp327
S'EventTime'
p328
S'754727467'
p329
sg4
L1449660041480L
sS'recordCount'
p330
g6
sS'EventType'
p331
S'TYPE_VIEW_TEXT_CHANGED'
p332
sS'PackageName'
p333
S'com.example.myfristandroid'
p334
sS'OutBounds'
p335
S'Rect(200, 428 - 710, 488)'
p336
sS'Action'
p337
S'[ ClassName: android.widget.EditText; Text: []; ContentDescription: null; ItemCount: -1; CurrentItemIndex: -1; IsEnabled: true; IsPassword: true; IsChecked: false; IsFullScreen: false; Scrollable: false; BeforeText: null; FromIndex: 2; ToIndex: -1; ScrollX: -1; ScrollY: -1; MaxScrollX: -1; MaxScrollY: -1; AddedCount: 0; RemovedCount: 1; ParcelableData: null ]'
p338
sS'MovementGranularity'
p339
g6
sa(dp340
S'EventTime'
p341
S'754727469'
p342
sg4
L1449660041502L
sS'recordCount'
p343
g6
sS'EventType'
p344
S'TYPE_VIEW_TEXT_SELECTION_CHANGED'
p345
sS'PackageName'
p346
S'com.example.myfristandroid'
p347
sS'OutBounds'
p348
S'Rect(200, 428 - 710, 488)'
p349
sS'Action'
p350
S'[ ClassName: android.widget.EditText; Text: []; ContentDescription: null; ItemCount: 2; CurrentItemIndex: -1; IsEnabled: true; IsPassword: true; IsChecked: false; IsFullScreen: false; Scrollable: false; BeforeText: null; FromIndex: 2; ToIndex: 2; ScrollX: -1; ScrollY: -1; MaxScrollX: -1; MaxScrollY: -1; AddedCount: -1; RemovedCount: -1; ParcelableData: null ]'
p351
sS'MovementGranularity'
p352
g6
sa(dp353
S'EventTime'
p354
S'754727625'
p355
sg4
L1449660041636L
sS'recordCount'
p356
g6
sS'EventType'
p357
S'TYPE_VIEW_TEXT_CHANGED'
p358
sS'PackageName'
p359
S'com.example.myfristandroid'
p360
sS'OutBounds'
p361
S'Rect(200, 428 - 710, 488)'
p362
sS'Action'
p363
S'[ ClassName: android.widget.EditText; Text: []; ContentDescription: null; ItemCount: -1; CurrentItemIndex: -1; IsEnabled: true; IsPassword: true; IsChecked: false; IsFullScreen: false; Scrollable: false; BeforeText: null; FromIndex: 1; ToIndex: -1; ScrollX: -1; ScrollY: -1; MaxScrollX: -1; MaxScrollY: -1; AddedCount: 0; RemovedCount: 1; ParcelableData: null ]'
p364
sS'MovementGranularity'
p365
g6
sa(dp366
S'EventTime'
p367
S'754727627'
p368
sg4
L1449660041659L
sS'recordCount'
p369
g6
sS'EventType'
p370
S'TYPE_VIEW_TEXT_SELECTION_CHANGED'
p371
sS'PackageName'
p372
S'com.example.myfristandroid'
p373
sS'OutBounds'
p374
S'Rect(200, 428 - 710, 488)'
p375
sS'Action'
p376
S'[ ClassName: android.widget.EditText; Text: []; ContentDescription: null; ItemCount: 1; CurrentItemIndex: -1; IsEnabled: true; IsPassword: true; IsChecked: false; IsFullScreen: false; Scrollable: false; BeforeText: null; FromIndex: 1; ToIndex: 1; ScrollX: -1; ScrollY: -1; MaxScrollX: -1; MaxScrollY: -1; AddedCount: -1; RemovedCount: -1; ParcelableData: null ]'
p377
sS'MovementGranularity'
p378
g6
sa(dp379
S'EventTime'
p380
S'754727796'
p381
sg4
L1449660041807L
sS'recordCount'
p382
g6
sS'EventType'
p383
S'TYPE_VIEW_TEXT_CHANGED'
p384
sS'PackageName'
p385
S'com.example.myfristandroid'
p386
sS'OutBounds'
p387
S'Rect(200, 428 - 710, 488)'
p388
sS'Action'
p389
S'[ ClassName: android.widget.EditText; Text: []; ContentDescription: null; ItemCount: -1; CurrentItemIndex: -1; IsEnabled: true; IsPassword: true; IsChecked: false; IsFullScreen: false; Scrollable: false; BeforeText: null; FromIndex: 0; ToIndex: -1; ScrollX: -1; ScrollY: -1; MaxScrollX: -1; MaxScrollY: -1; AddedCount: 0; RemovedCount: 1; ParcelableData: null ]'
p390
sS'MovementGranularity'
p391
g6
sa(dp392
S'EventTime'
p393
S'754727798'
p394
sg4
L1449660041828L
sS'recordCount'
p395
g6
sS'EventType'
p396
S'TYPE_VIEW_TEXT_SELECTION_CHANGED'
p397
sS'PackageName'
p398
S'com.example.myfristandroid'
p399
sS'OutBounds'
p400
S'Rect(200, 428 - 710, 488)'
p401
sS'Action'
p402
S'[ ClassName: android.widget.EditText; Text: []; ContentDescription: null; ItemCount: 0; CurrentItemIndex: -1; IsEnabled: true; IsPassword: true; IsChecked: false; IsFullScreen: false; Scrollable: false; BeforeText: null; FromIndex: 0; ToIndex: 0; ScrollX: -1; ScrollY: -1; MaxScrollX: -1; MaxScrollY: -1; AddedCount: -1; RemovedCount: -1; ParcelableData: null ]'
p403
sS'MovementGranularity'
p404
g6
sa(dp405
S'EventTime'
p406
S'754729470'
p407
sg4
L1449660043477L
sS'recordCount'
p408
g6
sS'EventType'
p409
S'TYPE_VIEW_CLICKED'
p410
sS'PackageName'
p411
S'com.example.myfristandroid'
p412
sS'OutBounds'
p413
S'Rect(220, 498 - 500, 558)'
p414
sS'Action'
p415
S'[ ClassName: android.widget.Button; Text: [\xe7\x99\xbb\xe5\xbd\x95]; ContentDescription: null; ItemCount: -1; CurrentItemIndex: -1; IsEnabled: true; IsPassword: false; IsChecked: false; IsFullScreen: false; Scrollable: false; BeforeText: null; FromIndex: -1; ToIndex: -1; ScrollX: -1; ScrollY: -1; MaxScrollX: -1; MaxScrollY: -1; AddedCount: -1; RemovedCount: -1; ParcelableData: null ]'
p416
sS'MovementGranularity'
p417
g6
sa(dp418
S'EventTime'
p419
S'754731096'
p420
sg4
L1449660045134L
sS'recordCount'
p421
g6
sS'EventType'
p422
S'TYPE_WINDOW_CONTENT_CHANGED'
p423
sS'PackageName'
p424
S'com.example.myfristandroid'
p425
sS'OutBounds'
p426
S'Rect(200, 428 - 710, 488)'
p427
sS'Action'
p428
S'[ ClassName: android.widget.EditText; Text: []; ContentDescription: null; ItemCount: -1; CurrentItemIndex: -1; IsEnabled: false; IsPassword: true; IsChecked: false; IsFullScreen: false; Scrollable: false; BeforeText: null; FromIndex: -1; ToIndex: -1; ScrollX: -1; ScrollY: -1; MaxScrollX: -1; MaxScrollY: -1; AddedCount: -1; RemovedCount: -1; ParcelableData: null ]'
p429
sS'MovementGranularity'
p430
g6
sa(dp431
S'EventTime'
p432
S'754732610'
p433
sg4
L1449660046617L
sS'recordCount'
p434
g6
sS'EventType'
p435
S'TYPE_VIEW_CLICKED'
p436
sS'PackageName'
p437
S'com.example.myfristandroid'
p438
sS'OutBounds'
p439
S'Rect(220, 498 - 500, 558)'
p440
sS'Action'
p441
S'[ ClassName: android.widget.Button; Text: [\xe7\xb3\xbb\xe7\xbb\x9f\xe7\xae\xa1\xe7\x90\x86\xe5\x91\x98]; ContentDescription: null; ItemCount: -1; CurrentItemIndex: -1; IsEnabled: true; IsPassword: false; IsChecked: false; IsFullScreen: false; Scrollable: false; BeforeText: null; FromIndex: -1; ToIndex: -1; ScrollX: -1; ScrollY: -1; MaxScrollX: -1; MaxScrollY: -1; AddedCount: -1; RemovedCount: -1; ParcelableData: null ]'
p442
sS'MovementGranularity'
p443
g6
sa(dp444
S'EventTime'
p445
S'754733999'
p446
sg4
L1449660048038L
sS'recordCount'
p447
g6
sS'EventType'
p448
S'TYPE_VIEW_FOCUSED'
p449
sS'PackageName'
p450
S'com.example.myfristandroid'
p451
sS'OutBounds'
p452
S'Rect(-470, 138 - 249, 1170)'
p453
sS'Action'
p454
S'[ ClassName: android.widget.GridView; Text: []; ContentDescription: null; ItemCount: 9; CurrentItemIndex: -1; IsEnabled: true; IsPassword: false; IsChecked: false; IsFullScreen: false; Scrollable: false; BeforeText: null; FromIndex: 0; ToIndex: 8; ScrollX: -1; ScrollY: -1; MaxScrollX: -1; MaxScrollY: -1; AddedCount: -1; RemovedCount: -1; ParcelableData: null ]'
p455
sS'MovementGranularity'
p456
g6
sa(dp457
S'EventTime'
p458
S'754734003'
p459
sg4
L1449660048060L
sS'recordCount'
p460
g6
sS'EventType'
p461
S'TYPE_VIEW_CLICKED'
p462
sS'PackageName'
p463
S'com.example.myfristandroid'
p464
sS'OutBounds'
p465
S'Rect(0, 1170 - 180, 1280)'
p466
sS'Action'
p467
S'[ ClassName: android.widget.LinearLayout; Text: [\xe7\x94\xbb\xe9\x9d\xa2\xe6\xb5\x8f\xe8\xa7\x88, \xe7\x94\xbb\xe9\x9d\xa2]; ContentDescription: null; ItemCount: -1; CurrentItemIndex: -1; IsEnabled: true; IsPassword: false; IsChecked: false; IsFullScreen: false; Scrollable: false; BeforeText: null; FromIndex: -1; ToIndex: -1; ScrollX: -1; ScrollY: -1; MaxScrollX: -1; MaxScrollY: -1; AddedCount: -1; RemovedCount: -1; ParcelableData: null ]'
p468
sS'MovementGranularity'
p469
g6
sa(dp470
S'EventTime'
p471
S'754734141'
p472
sg4
L1449660048153L
sS'recordCount'
p473
g6
sS'EventType'
p474
S'TYPE_WINDOW_CONTENT_CHANGED'
p475
sS'PackageName'
p476
S'com.example.myfristandroid'
p477
sS'OutBounds'
p478
S'Rect(-18, 138 - 701, 1170)'
p479
sS'Action'
p480
S'[ ClassName: android.widget.GridView; Text: []; ContentDescription: null; ItemCount: 9; CurrentItemIndex: -1; IsEnabled: true; IsPassword: false; IsChecked: false; IsFullScreen: false; Scrollable: false; BeforeText: null; FromIndex: 0; ToIndex: 8; ScrollX: -1; ScrollY: -1; MaxScrollX: -1; MaxScrollY: -1; AddedCount: -1; RemovedCount: -1; ParcelableData: null ]'
p481
sS'MovementGranularity'
p482
g6
sa(dp483
S'EventTime'
p484
S'754734142'
p485
sg4
L1449660048181L
sS'recordCount'
p486
g6
sS'EventType'
p487
S'TYPE_VIEW_SCROLLED'
p488
sS'PackageName'
p489
S'com.example.myfristandroid'
p490
sS'OutBounds'
p491
S'Rect(0, 138 - 720, 1170)'
p492
sS'Action'
p493
S'[ ClassName: android.support.v4.view.ViewPager; Text: []; ContentDescription: null; ItemCount: -1; CurrentItemIndex: -1; IsEnabled: true; IsPassword: false; IsChecked: false; IsFullScreen: false; Scrollable: false; BeforeText: null; FromIndex: -1; ToIndex: -1; ScrollX: -1; ScrollY: -1; MaxScrollX: -1; MaxScrollY: -1; AddedCount: -1; RemovedCount: -1; ParcelableData: null ]'
p494
sS'MovementGranularity'
p495
g6
sa(dp496
S'EventTime'
p497
S'754734259'
p498
sg4
L1449660048281L
sS'recordCount'
p499
g6
sS'EventType'
p500
S'TYPE_VIEW_SCROLLED'
p501
sS'PackageName'
p502
S'com.example.myfristandroid'
p503
sS'OutBounds'
p504
S'Rect(0, 138 - 720, 1170)'
p505
sS'Action'
p506
S'[ ClassName: android.support.v4.view.ViewPager; Text: []; ContentDescription: null; ItemCount: -1; CurrentItemIndex: -1; IsEnabled: true; IsPassword: false; IsChecked: false; IsFullScreen: false; Scrollable: false; BeforeText: null; FromIndex: -1; ToIndex: -1; ScrollX: -1; ScrollY: -1; MaxScrollX: -1; MaxScrollY: -1; AddedCount: -1; RemovedCount: -1; ParcelableData: null ]'
p507
sS'MovementGranularity'
p508
g6
sa(dp509
S'EventTime'
p510
S'754734363'
p511
sg4
L1449660048388L
sS'recordCount'
p512
g6
sS'EventType'
p513
S'TYPE_VIEW_SCROLLED'
p514
sS'PackageName'
p515
S'com.example.myfristandroid'
p516
sS'OutBounds'
p517
S'Rect(0, 138 - 720, 1170)'
p518
sS'Action'
p519
S'[ ClassName: android.support.v4.view.ViewPager; Text: []; ContentDescription: null; ItemCount: -1; CurrentItemIndex: -1; IsEnabled: true; IsPassword: false; IsChecked: false; IsFullScreen: false; Scrollable: false; BeforeText: null; FromIndex: -1; ToIndex: -1; ScrollX: -1; ScrollY: -1; MaxScrollX: -1; MaxScrollY: -1; AddedCount: -1; RemovedCount: -1; ParcelableData: null ]'
p520
sS'MovementGranularity'
p521
g6
sa(dp522
S'EventTime'
p523
S'754734546'
p524
sg4
L1449660048571L
sS'recordCount'
p525
g6
sS'EventType'
p526
S'TYPE_WINDOW_CONTENT_CHANGED'
p527
sS'PackageName'
p528
S'com.example.myfristandroid'
p529
sS'OutBounds'
p530
S'Rect(0, 138 - 720, 1170)'
p531
sS'Action'
p532
S'[ ClassName: android.support.v4.view.ViewPager; Text: []; ContentDescription: null; ItemCount: -1; CurrentItemIndex: -1; IsEnabled: true; IsPassword: false; IsChecked: false; IsFullScreen: false; Scrollable: false; BeforeText: null; FromIndex: -1; ToIndex: -1; ScrollX: -1; ScrollY: -1; MaxScrollX: -1; MaxScrollY: -1; AddedCount: -1; RemovedCount: -1; ParcelableData: null ]'
p533
sS'MovementGranularity'
p534
g6
sa(dp535
S'EventTime'
p536
S'754736165'
p537
sg4
L1449660050181L
sS'recordCount'
p538
g6
sS'EventType'
p539
S'TYPE_VIEW_FOCUSED'
p540
sS'PackageName'
p541
S'com.example.myfristandroid'
p542
sS'OutBounds'
p543
S'Rect(237, 248 - 945, 308)'
p544
sS'Action'
p545
S'[ ClassName: android.widget.EditText; Text: [\xe6\x90\x9c\xe7\xb4\xa2]; ContentDescription: null; ItemCount: 8; CurrentItemIndex: 2; IsEnabled: true; IsPassword: false; IsChecked: false; IsFullScreen: false; Scrollable: false; BeforeText: null; FromIndex: -1; ToIndex: -1; ScrollX: -1; ScrollY: -1; MaxScrollX: -1; MaxScrollY: -1; AddedCount: -1; RemovedCount: -1; ParcelableData: null ]'
p546
sS'MovementGranularity'
p547
g6
sa(dp548
S'EventTime'
p549
S'754736175'
p550
sg4
L1449660050195L
sS'recordCount'
p551
g6
sS'EventType'
p552
S'TYPE_VIEW_CLICKED'
p553
sS'PackageName'
p554
S'com.example.myfristandroid'
p555
sS'OutBounds'
p556
S'Rect(360, 1170 - 540, 1280)'
p557
sS'Action'
p558
S'[ ClassName: android.widget.LinearLayout; Text: [\xe6\x9f\xa5\xe7\x9c\x8b\xe5\xae\x9e\xe6\x97\xb6\xe5\x91\x8a\xe8\xad\xa6\xe4\xbf\xa1\xe6\x81\xaf, \xe5\x91\x8a\xe8\xad\xa6]; ContentDescription: null; ItemCount: -1; CurrentItemIndex: -1; IsEnabled: true; IsPassword: false; IsChecked: false; IsFullScreen: false; Scrollable: false; BeforeText: null; FromIndex: -1; ToIndex: -1; ScrollX: -1; ScrollY: -1; MaxScrollX: -1; MaxScrollY: -1; AddedCount: -1; RemovedCount: -1; ParcelableData: null ]'
p559
sS'MovementGranularity'
p560
g6
sa(dp561
S'EventTime'
p562
S'754736265'
p563
sg4
L1449660050275L
sS'recordCount'
p564
g6
sS'EventType'
p565
S'TYPE_WINDOW_CONTENT_CHANGED'
p566
sS'PackageName'
p567
S'com.example.myfristandroid'
p568
sS'OutBounds'
p569
S'Rect(-1430, 138 - -710, 1170)'
p570
sS'Action'
p571
S'[ ClassName: android.widget.GridView; Text: []; ContentDescription: null; ItemCount: 9; CurrentItemIndex: -1; IsEnabled: true; IsPassword: false; IsChecked: false; IsFullScreen: false; Scrollable: false; BeforeText: null; FromIndex: 0; ToIndex: 8; ScrollX: -1; ScrollY: -1; MaxScrollX: -1; MaxScrollY: -1; AddedCount: -1; RemovedCount: -1; ParcelableData: null ]'
p572
sS'MovementGranularity'
p573
g6
sa(dp574
S'EventTime'
p575
S'754736293'
p576
sg4
L1449660050312L
sS'recordCount'
p577
g6
sS'EventType'
p578
S'TYPE_VIEW_SCROLLED'
p579
sS'PackageName'
p580
S'com.example.myfristandroid'
p581
sS'OutBounds'
p582
S'Rect(0, 138 - 720, 1170)'
p583
sS'Action'
p584
S'[ ClassName: android.support.v4.view.ViewPager; Text: []; ContentDescription: null; ItemCount: -1; CurrentItemIndex: -1; IsEnabled: true; IsPassword: false; IsChecked: false; IsFullScreen: false; Scrollable: false; BeforeText: null; FromIndex: -1; ToIndex: -1; ScrollX: -1; ScrollY: -1; MaxScrollX: -1; MaxScrollY: -1; AddedCount: -1; RemovedCount: -1; ParcelableData: null ]'
p585
sS'MovementGranularity'
p586
g6
sa(dp587
S'EventTime'
p588
S'754736407'
p589
sg4
L1449660050423L
sS'recordCount'
p590
g6
sS'EventType'
p591
S'TYPE_VIEW_SCROLLED'
p592
sS'PackageName'
p593
S'com.example.myfristandroid'
p594
sS'OutBounds'
p595
S'Rect(0, 138 - 720, 1170)'
p596
sS'Action'
p597
S'[ ClassName: android.support.v4.view.ViewPager; Text: []; ContentDescription: null; ItemCount: -1; CurrentItemIndex: -1; IsEnabled: true; IsPassword: false; IsChecked: false; IsFullScreen: false; Scrollable: false; BeforeText: null; FromIndex: -1; ToIndex: -1; ScrollX: -1; ScrollY: -1; MaxScrollX: -1; MaxScrollY: -1; AddedCount: -1; RemovedCount: -1; ParcelableData: null ]'
p598
sS'MovementGranularity'
p599
g6
sa(dp600
S'EventTime'
p601
S'754736505'
p602
sg4
L1449660050526L
sS'recordCount'
p603
g6
sS'EventType'
p604
S'TYPE_WINDOW_CONTENT_CHANGED'
p605
sS'PackageName'
p606
S'com.example.myfristandroid'
p607
sS'OutBounds'
p608
S'Rect(0, 138 - 720, 1170)'
p609
sS'Action'
p610
S'[ ClassName: android.support.v4.view.ViewPager; Text: []; ContentDescription: null; ItemCount: -1; CurrentItemIndex: -1; IsEnabled: true; IsPassword: false; IsChecked: false; IsFullScreen: false; Scrollable: false; BeforeText: null; FromIndex: -1; ToIndex: -1; ScrollX: -1; ScrollY: -1; MaxScrollX: -1; MaxScrollY: -1; AddedCount: -1; RemovedCount: -1; ParcelableData: null ]'
p611
sS'MovementGranularity'
p612
g6
sa(dp613
S'EventTime'
p614
S'754737419'
p615
sg4
L1449660051427L
sS'recordCount'
p616
g6
sS'EventType'
p617
S'TYPE_VIEW_CLICKED'
p618
sS'PackageName'
p619
S'com.example.myfristandroid'
p620
sS'OutBounds'
p621
S'Rect(110, 168 - 350, 228)'
p622
sS'Action'
p623
S'[ ClassName: android.widget.Button; Text: [\xe5\xae\x9e\xe6\x97\xb6]; ContentDescription: null; ItemCount: -1; CurrentItemIndex: -1; IsEnabled: true; IsPassword: false; IsChecked: false; IsFullScreen: false; Scrollable: false; BeforeText: null; FromIndex: -1; ToIndex: -1; ScrollX: -1; ScrollY: -1; MaxScrollX: -1; MaxScrollY: -1; AddedCount: -1; RemovedCount: -1; ParcelableData: null ]'
p624
sS'MovementGranularity'
p625
g6
sa(dp626
S'EventTime'
p627
S'754739069'
p628
sg4
L1449660053078L
sS'recordCount'
p629
g6
sS'EventType'
p630
S'TYPE_VIEW_CLICKED'
p631
sS'PackageName'
p632
S'com.example.myfristandroid'
p633
sS'OutBounds'
p634
S'Rect(110, 168 - 350, 228)'
p635
sS'Action'
p636
S'[ ClassName: android.widget.Button; Text: [\xe5\xae\x9e\xe6\x97\xb6]; ContentDescription: null; ItemCount: -1; CurrentItemIndex: -1; IsEnabled: true; IsPassword: false; IsChecked: false; IsFullScreen: false; Scrollable: false; BeforeText: null; FromIndex: -1; ToIndex: -1; ScrollX: -1; ScrollY: -1; MaxScrollX: -1; MaxScrollY: -1; AddedCount: -1; RemovedCount: -1; ParcelableData: null ]'
p637
sS'MovementGranularity'
p638
g6
sa(dp639
S'EventTime'
p640
S'754739505'
p641
sg4
L1449660053513L
sS'recordCount'
p642
g6
sS'EventType'
p643
S'TYPE_VIEW_CLICKED'
p644
sS'PackageName'
p645
S'com.example.myfristandroid'
p646
sS'OutBounds'
p647
S'Rect(110, 168 - 350, 228)'
p648
sS'Action'
p649
S'[ ClassName: android.widget.Button; Text: [\xe5\xae\x9e\xe6\x97\xb6]; ContentDescription: null; ItemCount: -1; CurrentItemIndex: -1; IsEnabled: true; IsPassword: false; IsChecked: false; IsFullScreen: false; Scrollable: false; BeforeText: null; FromIndex: -1; ToIndex: -1; ScrollX: -1; ScrollY: -1; MaxScrollX: -1; MaxScrollY: -1; AddedCount: -1; RemovedCount: -1; ParcelableData: null ]'
p650
sS'MovementGranularity'
p651
g6
sa(dp652
S'EventTime'
p653
S'754739663'
p654
sg4
L1449660053671L
sS'recordCount'
p655
g6
sS'EventType'
p656
S'TYPE_VIEW_CLICKED'
p657
sS'PackageName'
p658
S'com.example.myfristandroid'
p659
sS'OutBounds'
p660
S'Rect(110, 168 - 350, 228)'
p661
sS'Action'
p662
S'[ ClassName: android.widget.Button; Text: [\xe5\xae\x9e\xe6\x97\xb6]; ContentDescription: null; ItemCount: -1; CurrentItemIndex: -1; IsEnabled: true; IsPassword: false; IsChecked: false; IsFullScreen: false; Scrollable: false; BeforeText: null; FromIndex: -1; ToIndex: -1; ScrollX: -1; ScrollY: -1; MaxScrollX: -1; MaxScrollY: -1; AddedCount: -1; RemovedCount: -1; ParcelableData: null ]'
p663
sS'MovementGranularity'
p664
g6
sa(dp665
S'EventTime'
p666
S'754740123'
p667
sg4
L1449660054130L
sS'recordCount'
p668
g6
sS'EventType'
p669
S'TYPE_VIEW_CLICKED'
p670
sS'PackageName'
p671
S'com.example.myfristandroid'
p672
sS'OutBounds'
p673
S'Rect(370, 168 - 610, 228)'
p674
sS'Action'
p675
S'[ ClassName: android.widget.Button; Text: [\xe5\x8e\x86\xe5\x8f\xb2]; ContentDescription: null; ItemCount: -1; CurrentItemIndex: -1; IsEnabled: true; IsPassword: false; IsChecked: false; IsFullScreen: false; Scrollable: false; BeforeText: null; FromIndex: -1; ToIndex: -1; ScrollX: -1; ScrollY: -1; MaxScrollX: -1; MaxScrollY: -1; AddedCount: -1; RemovedCount: -1; ParcelableData: null ]'
p676
sS'MovementGranularity'
p677
g6
sa(dp678
S'EventTime'
p679
S'754740196'
p680
sg4
L1449660054528L
sS'recordCount'
p681
g6
sS'EventType'
p682
S'TYPE_WINDOW_STATE_CHANGED'
p683
sS'PackageName'
p684
S'com.example.myfristandroid'
p685
sS'OutBounds'
p686
S'Rect(0, 0 - 720, 1280)'
p687
sS'Action'
p688
S'[ ClassName: com.example.myfristandroid.HuzAlertDialog; Text: [2015-12-09, 2015\xe5\xb9\xb412\xe6\x9c\x889\xe6\x97\xa5]; ContentDescription: null; ItemCount: -1; CurrentItemIndex: -1; IsEnabled: true; IsPassword: false; IsChecked: false; IsFullScreen: true; Scrollable: false; BeforeText: null; FromIndex: -1; ToIndex: -1; ScrollX: -1; ScrollY: -1; MaxScrollX: -1; MaxScrollY: -1; AddedCount: -1; RemovedCount: -1; ParcelableData: null ]'
p689
sS'MovementGranularity'
p690
g6
sa(dp691
S'EventTime'
p692
S'754740256'
p693
sg4
L1449660054562L
sS'recordCount'
p694
g6
sS'EventType'
p695
S'TYPE_VIEW_TEXT_SELECTION_CHANGED'
p696
sS'PackageName'
p697
S'com.example.myfristandroid'
p698
sS'Action'
p699
S'[ ClassName: android.widget.EditText; Text: [12]; ContentDescription: null; ItemCount: 2; CurrentItemIndex: -1; IsEnabled: true; IsPassword: false; IsChecked: false; IsFullScreen: false; Scrollable: false; BeforeText: null; FromIndex: 2; ToIndex: 2; ScrollX: -1; ScrollY: -1; MaxScrollX: -1; MaxScrollY: -1; AddedCount: -1; RemovedCount: -1; ParcelableData: null ]'
p700
sS'MovementGranularity'
p701
g6
sa(dp702
S'EventTime'
p703
S'754740257'
p704
sg4
L1449660054584L
sS'recordCount'
p705
g6
sS'EventType'
p706
S'TYPE_WINDOW_CONTENT_CHANGED'
p707
sS'PackageName'
p708
S'com.example.myfristandroid'
p709
sS'Action'
p710
S'[ ClassName: android.widget.EditText; Text: []; ContentDescription: null; ItemCount: -1; CurrentItemIndex: -1; IsEnabled: true; IsPassword: false; IsChecked: false; IsFullScreen: false; Scrollable: false; BeforeText: null; FromIndex: -1; ToIndex: -1; ScrollX: -1; ScrollY: -1; MaxScrollX: -1; MaxScrollY: -1; AddedCount: -1; RemovedCount: -1; ParcelableData: null ]'
p711
sS'MovementGranularity'
p712
g6
sa(dp713
S'EventTime'
p714
S'754740480'
p715
sg4
L1449660054616L
sS'recordCount'
p716
g6
sS'EventType'
p717
S'TYPE_WINDOW_STATE_CHANGED'
p718
sS'PackageName'
p719
S'com.example.myfristandroid'
p720
sS'OutBounds'
p721
S'Rect(0, 0 - 720, 1280)'
p722
sS'Action'
p723
S'[ ClassName: com.example.myfristandroid.HuzAlertDialog; Text: [2015-12-09, 2015\xe5\xb9\xb412\xe6\x9c\x889\xe6\x97\xa5]; ContentDescription: null; ItemCount: -1; CurrentItemIndex: -1; IsEnabled: true; IsPassword: false; IsChecked: false; IsFullScreen: true; Scrollable: false; BeforeText: null; FromIndex: -1; ToIndex: -1; ScrollX: -1; ScrollY: -1; MaxScrollX: -1; MaxScrollY: -1; AddedCount: -1; RemovedCount: -1; ParcelableData: null ]'
p724
sS'MovementGranularity'
p725
g6
sa(dp726
S'EventTime'
p727
S'754740481'
p728
sg4
L1449660054630L
sS'recordCount'
p729
g6
sS'EventType'
p730
S'TYPE_VIEW_TEXT_SELECTION_CHANGED'
p731
sS'PackageName'
p732
S'com.example.myfristandroid'
p733
sS'OutBounds'
p734
S'Rect(306, 631 - 434, 676)'
p735
sS'Action'
p736
S'[ ClassName: android.widget.EditText; Text: [12]; ContentDescription: null; ItemCount: 2; CurrentItemIndex: -1; IsEnabled: true; IsPassword: false; IsChecked: false; IsFullScreen: false; Scrollable: false; BeforeText: null; FromIndex: 2; ToIndex: 2; ScrollX: -1; ScrollY: -1; MaxScrollX: -1; MaxScrollY: -1; AddedCount: -1; RemovedCount: -1; ParcelableData: null ]'
p737
sS'MovementGranularity'
p738
g6
sa(dp739
S'EventTime'
p740
S'754740501'
p741
sg4
L1449660054645L
sS'recordCount'
p742
g6
sS'EventType'
p743
S'TYPE_WINDOW_CONTENT_CHANGED'
p744
sS'PackageName'
p745
S'com.example.myfristandroid'
p746
sS'OutBounds'
p747
S'Rect(372, 884 - 679, 980)'
p748
sS'Action'
p749
S'[ ClassName: android.widget.Button; Text: []; ContentDescription: null; ItemCount: -1; CurrentItemIndex: -1; IsEnabled: true; IsPassword: false; IsChecked: false; IsFullScreen: false; Scrollable: false; BeforeText: null; FromIndex: -1; ToIndex: -1; ScrollX: -1; ScrollY: -1; MaxScrollX: -1; MaxScrollY: -1; AddedCount: -1; RemovedCount: -1; ParcelableData: null ]'
p750
sS'MovementGranularity'
p751
g6
sa(dp752
S'EventTime'
p753
S'754740650'
p754
sg4
L1449660054661L
sS'recordCount'
p755
g6
sS'EventType'
p756
S'TYPE_WINDOW_CONTENT_CHANGED'
p757
sS'PackageName'
p758
S'com.example.myfristandroid'
p759
sS'OutBounds'
p760
S'Rect(372, 884 - 679, 980)'
p761
sS'Action'
p762
S'[ ClassName: android.widget.Button; Text: []; ContentDescription: null; ItemCount: -1; CurrentItemIndex: -1; IsEnabled: true; IsPassword: false; IsChecked: false; IsFullScreen: false; Scrollable: false; BeforeText: null; FromIndex: -1; ToIndex: -1; ScrollX: -1; ScrollY: -1; MaxScrollX: -1; MaxScrollY: -1; AddedCount: -1; RemovedCount: -1; ParcelableData: null ]'
p763
sS'MovementGranularity'
p764
g6
sa(dp765
S'EventTime'
p766
S'754742614'
p767
sg4
L1449660056620L
sS'recordCount'
p768
g6
sS'EventType'
p769
S'TYPE_VIEW_CLICKED'
p770
sS'PackageName'
p771
S'com.example.myfristandroid'
p772
sS'OutBounds'
p773
S'Rect(45, 884 - 352, 980)'
p774
sS'Action'
p775
S'[ ClassName: android.widget.Button; Text: [\xe7\xa1\xae\xe8\xae\xa4]; ContentDescription: null; ItemCount: -1; CurrentItemIndex: -1; IsEnabled: true; IsPassword: false; IsChecked: false; IsFullScreen: false; Scrollable: false; BeforeText: null; FromIndex: -1; ToIndex: -1; ScrollX: -1; ScrollY: -1; MaxScrollX: -1; MaxScrollY: -1; AddedCount: -1; RemovedCount: -1; ParcelableData: null ]'
p776
sS'MovementGranularity'
p777
g6
sa(dp778
S'EventTime'
p779
S'754742662'
p780
sg4
L1449660056678L
sS'recordCount'
p781
g6
sS'EventType'
p782
S'TYPE_WINDOW_STATE_CHANGED'
p783
sS'PackageName'
p784
S'com.example.myfristandroid'
p785
sS'OutBounds'
p786
S'Rect(0, 0 - 720, 1280)'
p787
sS'Action'
p788
S'[ ClassName: com.example.myfristandroid.HuzAlertDialog; Text: [2015-12-09, 2015\xe5\xb9\xb412\xe6\x9c\x889\xe6\x97\xa5]; ContentDescription: null; ItemCount: -1; CurrentItemIndex: -1; IsEnabled: true; IsPassword: false; IsChecked: false; IsFullScreen: true; Scrollable: false; BeforeText: null; FromIndex: -1; ToIndex: -1; ScrollX: -1; ScrollY: -1; MaxScrollX: -1; MaxScrollY: -1; AddedCount: -1; RemovedCount: -1; ParcelableData: null ]'
p789
sS'MovementGranularity'
p790
g6
sa(dp791
S'EventTime'
p792
S'754743967'
p793
sg4
L1449660057979L
sS'recordCount'
p794
g6
sS'EventType'
p795
S'TYPE_VIEW_CLICKED'
p796
sS'PackageName'
p797
S'com.example.myfristandroid'
p798
sS'OutBounds'
p799
S'Rect(45, 884 - 352, 980)'
p800
sS'Action'
p801
S'[ ClassName: android.widget.Button; Text: [\xe7\xa1\xae\xe8\xae\xa4]; ContentDescription: null; ItemCount: -1; CurrentItemIndex: -1; IsEnabled: true; IsPassword: false; IsChecked: false; IsFullScreen: false; Scrollable: false; BeforeText: null; FromIndex: -1; ToIndex: -1; ScrollX: -1; ScrollY: -1; MaxScrollX: -1; MaxScrollY: -1; AddedCount: -1; RemovedCount: -1; ParcelableData: null ]'
p802
sS'MovementGranularity'
p803
g6
sa(dp804
S'EventTime'
p805
S'754744028'
p806
sg4
L1449660058057L
sS'recordCount'
p807
g6
sS'EventType'
p808
S'TYPE_WINDOW_STATE_CHANGED'
p809
sS'PackageName'
p810
S'com.example.myfristandroid'
p811
sS'OutBounds'
p812
S'Rect(0, 0 - 720, 1280)'
p813
sS'Action'
p814
S'[ ClassName: com.example.myfristandroid.MainActivity; Text: [SE-1800\xe7\xa7\xbb\xe5\x8a\xa8APP]; ContentDescription: null; ItemCount: -1; CurrentItemIndex: -1; IsEnabled: true; IsPassword: false; IsChecked: false; IsFullScreen: true; Scrollable: false; BeforeText: null; FromIndex: -1; ToIndex: -1; ScrollX: -1; ScrollY: -1; MaxScrollX: -1; MaxScrollY: -1; AddedCount: -1; RemovedCount: -1; ParcelableData: null ]'
p815
sS'MovementGranularity'
p816
g6
sa(dp817
S'EventTime'
p818
S'754746056'
p819
sg4
L1449660060093L
sS'recordCount'
p820
g6
sS'EventType'
p821
S'TYPE_VIEW_SCROLLED'
p822
sS'PackageName'
p823
S'com.example.myfristandroid'
p824
sS'OutBounds'
p825
S'Rect(0, 138 - 720, 1170)'
p826
sS'Action'
p827
S'[ ClassName: android.support.v4.view.ViewPager; Text: []; ContentDescription: null; ItemCount: -1; CurrentItemIndex: -1; IsEnabled: true; IsPassword: false; IsChecked: false; IsFullScreen: false; Scrollable: false; BeforeText: null; FromIndex: -1; ToIndex: -1; ScrollX: -1; ScrollY: -1; MaxScrollX: -1; MaxScrollY: -1; AddedCount: -1; RemovedCount: -1; ParcelableData: null ]'
p828
sS'MovementGranularity'
p829
g6
sa(dp830
S'EventTime'
p831
S'754746168'
p832
sg4
L1449660060194L
sS'recordCount'
p833
g6
sS'EventType'
p834
S'TYPE_VIEW_SCROLLED'
p835
sS'PackageName'
p836
S'com.example.myfristandroid'
p837
sS'OutBounds'
p838
S'Rect(0, 138 - 720, 1170)'
p839
sS'Action'
p840
S'[ ClassName: android.support.v4.view.ViewPager; Text: []; ContentDescription: null; ItemCount: -1; CurrentItemIndex: -1; IsEnabled: true; IsPassword: false; IsChecked: false; IsFullScreen: false; Scrollable: false; BeforeText: null; FromIndex: -1; ToIndex: -1; ScrollX: -1; ScrollY: -1; MaxScrollX: -1; MaxScrollY: -1; AddedCount: -1; RemovedCount: -1; ParcelableData: null ]'
p841
sS'MovementGranularity'
p842
g6
sa(dp843
S'EventTime'
p844
S'754746299'
p845
sg4
L1449660060317L
sS'recordCount'
p846
g6
sS'EventType'
p847
S'TYPE_VIEW_SCROLLED'
p848
sS'PackageName'
p849
S'com.example.myfristandroid'
p850
sS'OutBounds'
p851
S'Rect(0, 138 - 720, 1170)'
p852
sS'Action'
p853
S'[ ClassName: android.support.v4.view.ViewPager; Text: []; ContentDescription: null; ItemCount: -1; CurrentItemIndex: -1; IsEnabled: true; IsPassword: false; IsChecked: false; IsFullScreen: false; Scrollable: false; BeforeText: null; FromIndex: -1; ToIndex: -1; ScrollX: -1; ScrollY: -1; MaxScrollX: -1; MaxScrollY: -1; AddedCount: -1; RemovedCount: -1; ParcelableData: null ]'
p854
sS'MovementGranularity'
p855
g6
sa(dp856
S'EventTime'
p857
S'754746412'
p858
sg4
L1449660060430L
sS'recordCount'
p859
g6
sS'EventType'
p860
S'TYPE_VIEW_SCROLLED'
p861
sS'PackageName'
p862
S'com.example.myfristandroid'
p863
sS'OutBounds'
p864
S'Rect(0, 138 - 720, 1170)'
p865
sS'Action'
p866
S'[ ClassName: android.support.v4.view.ViewPager; Text: []; ContentDescription: null; ItemCount: -1; CurrentItemIndex: -1; IsEnabled: true; IsPassword: false; IsChecked: false; IsFullScreen: false; Scrollable: false; BeforeText: null; FromIndex: -1; ToIndex: -1; ScrollX: -1; ScrollY: -1; MaxScrollX: -1; MaxScrollY: -1; AddedCount: -1; RemovedCount: -1; ParcelableData: null ]'
p867
sS'MovementGranularity'
p868
g6
sa(dp869
S'EventTime'
p870
S'754746526'
p871
sg4
L1449660060542L
sS'recordCount'
p872
g6
sS'EventType'
p873
S'TYPE_VIEW_SCROLLED'
p874
sS'PackageName'
p875
S'com.example.myfristandroid'
p876
sS'OutBounds'
p877
S'Rect(0, 138 - 720, 1170)'
p878
sS'Action'
p879
S'[ ClassName: android.support.v4.view.ViewPager; Text: []; ContentDescription: null; ItemCount: -1; CurrentItemIndex: -1; IsEnabled: true; IsPassword: false; IsChecked: false; IsFullScreen: false; Scrollable: false; BeforeText: null; FromIndex: -1; ToIndex: -1; ScrollX: -1; ScrollY: -1; MaxScrollX: -1; MaxScrollY: -1; AddedCount: -1; RemovedCount: -1; ParcelableData: null ]'
p880
sS'MovementGranularity'
p881
g6
sa(dp882
S'EventTime'
p883
S'754746641'
p884
sg4
L1449660060662L
sS'recordCount'
p885
g6
sS'EventType'
p886
S'TYPE_VIEW_SCROLLED'
p887
sS'PackageName'
p888
S'com.example.myfristandroid'
p889
sS'OutBounds'
p890
S'Rect(0, 138 - 720, 1170)'
p891
sS'Action'
p892
S'[ ClassName: android.support.v4.view.ViewPager; Text: []; ContentDescription: null; ItemCount: -1; CurrentItemIndex: -1; IsEnabled: true; IsPassword: false; IsChecked: false; IsFullScreen: false; Scrollable: false; BeforeText: null; FromIndex: -1; ToIndex: -1; ScrollX: -1; ScrollY: -1; MaxScrollX: -1; MaxScrollY: -1; AddedCount: -1; RemovedCount: -1; ParcelableData: null ]'
p893
sS'MovementGranularity'
p894
g6
sa(dp895
S'EventTime'
p896
S'754746761'
p897
sg4
L1449660060960L
sS'recordCount'
p898
g6
sS'EventType'
p899
S'TYPE_VIEW_SCROLLED'
p900
sS'PackageName'
p901
S'com.example.myfristandroid'
p902
sS'OutBounds'
p903
S'Rect(0, 138 - 720, 1170)'
p904
sS'Action'
p905
S'[ ClassName: android.support.v4.view.ViewPager; Text: []; ContentDescription: null; ItemCount: -1; CurrentItemIndex: -1; IsEnabled: true; IsPassword: false; IsChecked: false; IsFullScreen: false; Scrollable: false; BeforeText: null; FromIndex: -1; ToIndex: -1; ScrollX: -1; ScrollY: -1; MaxScrollX: -1; MaxScrollY: -1; AddedCount: -1; RemovedCount: -1; ParcelableData: null ]'
p906
sS'MovementGranularity'
p907
g6
sa(dp908
S'EventTime'
p909
S'754746915'
p910
sg4
L1449660061079L
sS'recordCount'
p911
g6
sS'EventType'
p912
S'TYPE_VIEW_CLICKED'
p913
sS'PackageName'
p914
S'com.example.myfristandroid'
p915
sS'OutBounds'
p916
S'Rect(370, 168 - 610, 228)'
p917
sS'Action'
p918
S'[ ClassName: android.widget.Button; Text: [\xe5\x8e\x86\xe5\x8f\xb2]; ContentDescription: null; ItemCount: -1; CurrentItemIndex: -1; IsEnabled: true; IsPassword: false; IsChecked: false; IsFullScreen: false; Scrollable: false; BeforeText: null; FromIndex: -1; ToIndex: -1; ScrollX: -1; ScrollY: -1; MaxScrollX: -1; MaxScrollY: -1; AddedCount: -1; RemovedCount: -1; ParcelableData: null ]'
p919
sS'MovementGranularity'
p920
g6
sa(dp921
S'EventTime'
p922
S'754747059'
p923
sg4
L1449660061146L
sS'recordCount'
p924
g6
sS'EventType'
p925
S'TYPE_WINDOW_STATE_CHANGED'
p926
sS'PackageName'
p927
S'com.example.myfristandroid'
p928
sS'OutBounds'
p929
S'Rect(0, 0 - 720, 1280)'
p930
sS'Action'
p931
S'[ ClassName: com.example.myfristandroid.HuzAlertDialog; Text: [2015-12-09, 2015\xe5\xb9\xb412\xe6\x9c\x889\xe6\x97\xa5]; ContentDescription: null; ItemCount: -1; CurrentItemIndex: -1; IsEnabled: true; IsPassword: false; IsChecked: false; IsFullScreen: true; Scrollable: false; BeforeText: null; FromIndex: -1; ToIndex: -1; ScrollX: -1; ScrollY: -1; MaxScrollX: -1; MaxScrollY: -1; AddedCount: -1; RemovedCount: -1; ParcelableData: null ]'
p932
sS'MovementGranularity'
p933
g6
sa(dp934
S'EventTime'
p935
S'754747061'
p936
sg4
L1449660061170L
sS'recordCount'
p937
g6
sS'EventType'
p938
S'TYPE_VIEW_TEXT_SELECTION_CHANGED'
p939
sS'PackageName'
p940
S'com.example.myfristandroid'
p941
sS'OutBounds'
p942
S'Rect(306, 631 - 434, 676)'
p943
sS'Action'
p944
S'[ ClassName: android.widget.EditText; Text: [12]; ContentDescription: null; ItemCount: 2; CurrentItemIndex: -1; IsEnabled: true; IsPassword: false; IsChecked: false; IsFullScreen: false; Scrollable: false; BeforeText: null; FromIndex: 2; ToIndex: 2; ScrollX: -1; ScrollY: -1; MaxScrollX: -1; MaxScrollY: -1; AddedCount: -1; RemovedCount: -1; ParcelableData: null ]'
p945
sS'MovementGranularity'
p946
g6
sa(dp947
S'EventTime'
p948
S'754747261'
p949
sg4
L1449660061271L
sS'recordCount'
p950
g6
sS'EventType'
p951
S'TYPE_WINDOW_CONTENT_CHANGED'
p952
sS'PackageName'
p953
S'com.example.myfristandroid'
p954
sS'OutBounds'
p955
S'Rect(43, 346 - 693, 413)'
p956
sS'Action'
p957
S'[ ClassName: android.widget.TextView; Text: []; ContentDescription: null; ItemCount: -1; CurrentItemIndex: -1; IsEnabled: true; IsPassword: false; IsChecked: false; IsFullScreen: false; Scrollable: false; BeforeText: null; FromIndex: -1; ToIndex: -1; ScrollX: -1; ScrollY: -1; MaxScrollX: -1; MaxScrollY: -1; AddedCount: -1; RemovedCount: -1; ParcelableData: null ]'
p958
sS'MovementGranularity'
p959
g6
sa(dp960
S'EventTime'
p961
S'754748275'
p962
sg4
L1449660062282L
sS'recordCount'
p963
g6
sS'EventType'
p964
S'TYPE_VIEW_CLICKED'
p965
sS'PackageName'
p966
S'com.example.myfristandroid'
p967
sS'OutBounds'
p968
S'Rect(45, 884 - 352, 980)'
p969
sS'Action'
p970
S'[ ClassName: android.widget.Button; Text: [\xe7\xa1\xae\xe8\xae\xa4]; ContentDescription: null; ItemCount: -1; CurrentItemIndex: -1; IsEnabled: true; IsPassword: false; IsChecked: false; IsFullScreen: false; Scrollable: false; BeforeText: null; FromIndex: -1; ToIndex: -1; ScrollX: -1; ScrollY: -1; MaxScrollX: -1; MaxScrollY: -1; AddedCount: -1; RemovedCount: -1; ParcelableData: null ]'
p971
sS'MovementGranularity'
p972
g6
sa(dp973
S'EventTime'
p974
S'754748331'
p975
sg4
L1449660062361L
sS'recordCount'
p976
g6
sS'EventType'
p977
S'TYPE_WINDOW_STATE_CHANGED'
p978
sS'PackageName'
p979
S'com.example.myfristandroid'
p980
sS'OutBounds'
p981
S'Rect(0, 0 - 720, 1280)'
p982
sS'Action'
p983
S'[ ClassName: com.example.myfristandroid.MainActivity; Text: [SE-1800\xe7\xa7\xbb\xe5\x8a\xa8APP]; ContentDescription: null; ItemCount: -1; CurrentItemIndex: -1; IsEnabled: true; IsPassword: false; IsChecked: false; IsFullScreen: true; Scrollable: false; BeforeText: null; FromIndex: -1; ToIndex: -1; ScrollX: -1; ScrollY: -1; MaxScrollX: -1; MaxScrollY: -1; AddedCount: -1; RemovedCount: -1; ParcelableData: null ]'
p984
sS'MovementGranularity'
p985
g6
sa(dp986
S'EventTime'
p987
S'754749028'
p988
sg4
L1449660063036L
sS'recordCount'
p989
g6
sS'EventType'
p990
S'TYPE_VIEW_CLICKED'
p991
sS'PackageName'
p992
S'com.example.myfristandroid'
p993
sS'OutBounds'
p994
S'Rect(370, 168 - 610, 228)'
p995
sS'Action'
p996
S'[ ClassName: android.widget.Button; Text: [\xe5\x8e\x86\xe5\x8f\xb2]; ContentDescription: null; ItemCount: -1; CurrentItemIndex: -1; IsEnabled: true; IsPassword: false; IsChecked: false; IsFullScreen: false; Scrollable: false; BeforeText: null; FromIndex: -1; ToIndex: -1; ScrollX: -1; ScrollY: -1; MaxScrollX: -1; MaxScrollY: -1; AddedCount: -1; RemovedCount: -1; ParcelableData: null ]'
p997
sS'MovementGranularity'
p998
g6
sa(dp999
S'EventTime'
p1000
S'754749128'
p1001
sg4
L1449660063189L
sS'recordCount'
p1002
g6
sS'EventType'
p1003
S'TYPE_WINDOW_STATE_CHANGED'
p1004
sS'PackageName'
p1005
S'com.example.myfristandroid'
p1006
sS'OutBounds'
p1007
S'Rect(0, 0 - 720, 1280)'
p1008
sS'Action'
p1009
S'[ ClassName: com.example.myfristandroid.HuzAlertDialog; Text: [2015-12-09, 2015\xe5\xb9\xb412\xe6\x9c\x889\xe6\x97\xa5]; ContentDescription: null; ItemCount: -1; CurrentItemIndex: -1; IsEnabled: true; IsPassword: false; IsChecked: false; IsFullScreen: true; Scrollable: false; BeforeText: null; FromIndex: -1; ToIndex: -1; ScrollX: -1; ScrollY: -1; MaxScrollX: -1; MaxScrollY: -1; AddedCount: -1; RemovedCount: -1; ParcelableData: null ]'
p1010
sS'MovementGranularity'
p1011
g6
sa(dp1012
S'EventTime'
p1013
S'754749130'
p1014
sg4
L1449660063204L
sS'recordCount'
p1015
g6
sS'EventType'
p1016
S'TYPE_VIEW_TEXT_SELECTION_CHANGED'
p1017
sS'PackageName'
p1018
S'com.example.myfristandroid'
p1019
sS'OutBounds'
p1020
S'Rect(306, 631 - 434, 676)'
p1021
sS'Action'
p1022
S'[ ClassName: android.widget.EditText; Text: [12]; ContentDescription: null; ItemCount: 2; CurrentItemIndex: -1; IsEnabled: true; IsPassword: false; IsChecked: false; IsFullScreen: false; Scrollable: false; BeforeText: null; FromIndex: 2; ToIndex: 2; ScrollX: -1; ScrollY: -1; MaxScrollX: -1; MaxScrollY: -1; AddedCount: -1; RemovedCount: -1; ParcelableData: null ]'
p1023
sS'MovementGranularity'
p1024
g6
sa(dp1025
S'EventTime'
p1026
S'754749323'
p1027
sg4
L1449660063333L
sS'recordCount'
p1028
g6
sS'EventType'
p1029
S'TYPE_WINDOW_CONTENT_CHANGED'
p1030
sS'PackageName'
p1031
S'com.example.myfristandroid'
p1032
sS'OutBounds'
p1033
S'Rect(372, 884 - 679, 980)'
p1034
sS'Action'
p1035
S'[ ClassName: android.widget.Button; Text: []; ContentDescription: null; ItemCount: -1; CurrentItemIndex: -1; IsEnabled: true; IsPassword: false; IsChecked: false; IsFullScreen: false; Scrollable: false; BeforeText: null; FromIndex: -1; ToIndex: -1; ScrollX: -1; ScrollY: -1; MaxScrollX: -1; MaxScrollY: -1; AddedCount: -1; RemovedCount: -1; ParcelableData: null ]'
p1036
sS'MovementGranularity'
p1037
g6
sa(dp1038
S'EventTime'
p1039
S'754750122'
p1040
sg4
L1449660064130L
sS'recordCount'
p1041
g6
sS'EventType'
p1042
S'TYPE_VIEW_CLICKED'
p1043
sS'PackageName'
p1044
S'com.example.myfristandroid'
p1045
sS'OutBounds'
p1046
S'Rect(45, 884 - 352, 980)'
p1047
sS'Action'
p1048
S'[ ClassName: android.widget.Button; Text: [\xe7\xa1\xae\xe8\xae\xa4]; ContentDescription: null; ItemCount: -1; CurrentItemIndex: -1; IsEnabled: true; IsPassword: false; IsChecked: false; IsFullScreen: false; Scrollable: false; BeforeText: null; FromIndex: -1; ToIndex: -1; ScrollX: -1; ScrollY: -1; MaxScrollX: -1; MaxScrollY: -1; AddedCount: -1; RemovedCount: -1; ParcelableData: null ]'
p1049
sS'MovementGranularity'
p1050
g6
sa(dp1051
S'EventTime'
p1052
S'754750180'
p1053
sg4
L1449660064208L
sS'recordCount'
p1054
g6
sS'EventType'
p1055
S'TYPE_WINDOW_STATE_CHANGED'
p1056
sS'PackageName'
p1057
S'com.example.myfristandroid'
p1058
sS'OutBounds'
p1059
S'Rect(0, 0 - 720, 1280)'
p1060
sS'Action'
p1061
S'[ ClassName: com.example.myfristandroid.MainActivity; Text: [SE-1800\xe7\xa7\xbb\xe5\x8a\xa8APP]; ContentDescription: null; ItemCount: -1; CurrentItemIndex: -1; IsEnabled: true; IsPassword: false; IsChecked: false; IsFullScreen: true; Scrollable: false; BeforeText: null; FromIndex: -1; ToIndex: -1; ScrollX: -1; ScrollY: -1; MaxScrollX: -1; MaxScrollY: -1; AddedCount: -1; RemovedCount: -1; ParcelableData: null ]'
p1062
sS'MovementGranularity'
p1063
g6
sa(dp1064
S'EventTime'
p1065
S'754750608'
p1066
sg4
L1449660064617L
sS'recordCount'
p1067
g6
sS'EventType'
p1068
S'TYPE_VIEW_CLICKED'
p1069
sS'PackageName'
p1070
S'com.example.myfristandroid'
p1071
sS'OutBounds'
p1072
S'Rect(110, 168 - 350, 228)'
p1073
sS'Action'
p1074
S'[ ClassName: android.widget.Button; Text: [\xe5\xae\x9e\xe6\x97\xb6]; ContentDescription: null; ItemCount: -1; CurrentItemIndex: -1; IsEnabled: true; IsPassword: false; IsChecked: false; IsFullScreen: false; Scrollable: false; BeforeText: null; FromIndex: -1; ToIndex: -1; ScrollX: -1; ScrollY: -1; MaxScrollX: -1; MaxScrollY: -1; AddedCount: -1; RemovedCount: -1; ParcelableData: null ]'
p1075
sS'MovementGranularity'
p1076
g6
sa(dp1077
S'EventTime'
p1078
S'754752173'
p1079
sg4
L1449660066180L
sS'recordCount'
p1080
g6
sS'EventType'
p1081
S'TYPE_VIEW_CLICKED'
p1082
sS'PackageName'
p1083
S'com.example.myfristandroid'
p1084
sS'OutBounds'
p1085
S'Rect(370, 168 - 610, 228)'
p1086
sS'Action'
p1087
S'[ ClassName: android.widget.Button; Text: [\xe5\x8e\x86\xe5\x8f\xb2]; ContentDescription: null; ItemCount: -1; CurrentItemIndex: -1; IsEnabled: true; IsPassword: false; IsChecked: false; IsFullScreen: false; Scrollable: false; BeforeText: null; FromIndex: -1; ToIndex: -1; ScrollX: -1; ScrollY: -1; MaxScrollX: -1; MaxScrollY: -1; AddedCount: -1; RemovedCount: -1; ParcelableData: null ]'
p1088
sS'MovementGranularity'
p1089
g6
sa(dp1090
S'EventTime'
p1091
S'754752292'
p1092
sg4
L1449660066356L
sS'recordCount'
p1093
g6
sS'EventType'
p1094
S'TYPE_WINDOW_STATE_CHANGED'
p1095
sS'PackageName'
p1096
S'com.example.myfristandroid'
p1097
sS'OutBounds'
p1098
S'Rect(0, 0 - 720, 1280)'
p1099
sS'Action'
p1100
S'[ ClassName: com.example.myfristandroid.HuzAlertDialog; Text: [2015-12-09, 2015\xe5\xb9\xb412\xe6\x9c\x889\xe6\x97\xa5]; ContentDescription: null; ItemCount: -1; CurrentItemIndex: -1; IsEnabled: true; IsPassword: false; IsChecked: false; IsFullScreen: true; Scrollable: false; BeforeText: null; FromIndex: -1; ToIndex: -1; ScrollX: -1; ScrollY: -1; MaxScrollX: -1; MaxScrollY: -1; AddedCount: -1; RemovedCount: -1; ParcelableData: null ]'
p1101
sS'MovementGranularity'
p1102
g6
sa(dp1103
S'EventTime'
p1104
S'754752294'
p1105
sg4
L1449660066376L
sS'recordCount'
p1106
g6
sS'EventType'
p1107
S'TYPE_VIEW_TEXT_SELECTION_CHANGED'
p1108
sS'PackageName'
p1109
S'com.example.myfristandroid'
p1110
sS'OutBounds'
p1111
S'Rect(306, 631 - 434, 676)'
p1112
sS'Action'
p1113
S'[ ClassName: android.widget.EditText; Text: [12]; ContentDescription: null; ItemCount: 2; CurrentItemIndex: -1; IsEnabled: true; IsPassword: false; IsChecked: false; IsFullScreen: false; Scrollable: false; BeforeText: null; FromIndex: 2; ToIndex: 2; ScrollX: -1; ScrollY: -1; MaxScrollX: -1; MaxScrollY: -1; AddedCount: -1; RemovedCount: -1; ParcelableData: null ]'
p1114
sS'MovementGranularity'
p1115
g6
sa(dp1116
S'EventTime'
p1117
S'754752510'
p1118
sg4
L1449660066524L
sS'recordCount'
p1119
g6
sS'EventType'
p1120
S'TYPE_WINDOW_CONTENT_CHANGED'
p1121
sS'PackageName'
p1122
S'com.example.myfristandroid'
p1123
sS'OutBounds'
p1124
S'Rect(45, 884 - 352, 980)'
p1125
sS'Action'
p1126
S'[ ClassName: android.widget.Button; Text: []; ContentDescription: null; ItemCount: -1; CurrentItemIndex: -1; IsEnabled: true; IsPassword: false; IsChecked: false; IsFullScreen: false; Scrollable: false; BeforeText: null; FromIndex: -1; ToIndex: -1; ScrollX: -1; ScrollY: -1; MaxScrollX: -1; MaxScrollY: -1; AddedCount: -1; RemovedCount: -1; ParcelableData: null ]'
p1127
sS'MovementGranularity'
p1128
g6
sa(dp1129
S'EventTime'
p1130
S'754754505'
p1131
sg4
L1449660068524L
sS'recordCount'
p1132
g6
sS'EventType'
p1133
S'TYPE_VIEW_SELECTED'
p1134
sS'PackageName'
p1135
S'com.example.myfristandroid'
p1136
sS'OutBounds'
p1137
S'Rect(114, 442 - 610, 866)'
p1138
sS'Action'
p1139
S'[ ClassName: android.widget.DatePicker; Text: [2013\xe5\xb9\xb412\xe6\x9c\x889\xe6\x97\xa5]; ContentDescription: null; ItemCount: -1; CurrentItemIndex: -1; IsEnabled: true; IsPassword: false; IsChecked: false; IsFullScreen: false; Scrollable: false; BeforeText: null; FromIndex: -1; ToIndex: -1; ScrollX: -1; ScrollY: -1; MaxScrollX: -1; MaxScrollY: -1; AddedCount: -1; RemovedCount: -1; ParcelableData: null ]'
p1140
sS'MovementGranularity'
p1141
g6
sa(dp1142
S'EventTime'
p1143
S'754754517'
p1144
sg4
L1449660068556L
sS'recordCount'
p1145
g6
sS'EventType'
p1146
S'TYPE_VIEW_TEXT_SELECTION_CHANGED'
p1147
sS'PackageName'
p1148
S'com.example.myfristandroid'
p1149
sS'OutBounds'
p1150
S'Rect(306, 631 - 434, 676)'
p1151
sS'Action'
p1152
S'[ ClassName: android.widget.EditText; Text: [12]; ContentDescription: null; ItemCount: 2; CurrentItemIndex: -1; IsEnabled: true; IsPassword: false; IsChecked: false; IsFullScreen: false; Scrollable: false; BeforeText: null; FromIndex: 2; ToIndex: 2; ScrollX: -1; ScrollY: -1; MaxScrollX: -1; MaxScrollY: -1; AddedCount: -1; RemovedCount: -1; ParcelableData: null ]'
p1153
sS'MovementGranularity'
p1154
g6
sa(dp1155
S'EventTime'
p1156
S'754754586'
p1157
sg4
L1449660068605L
sS'recordCount'
p1158
g6
sS'EventType'
p1159
S'TYPE_WINDOW_CONTENT_CHANGED'
p1160
sS'PackageName'
p1161
S'com.example.myfristandroid'
p1162
sS'OutBounds'
p1163
S'Rect(43, 346 - 693, 413)'
p1164
sS'Action'
p1165
S'[ ClassName: android.widget.TextView; Text: []; ContentDescription: null; ItemCount: -1; CurrentItemIndex: -1; IsEnabled: true; IsPassword: false; IsChecked: false; IsFullScreen: false; Scrollable: false; BeforeText: null; FromIndex: -1; ToIndex: -1; ScrollX: -1; ScrollY: -1; MaxScrollX: -1; MaxScrollY: -1; AddedCount: -1; RemovedCount: -1; ParcelableData: null ]'
p1166
sS'MovementGranularity'
p1167
g6
sa(dp1168
S'EventTime'
p1169
S'754755714'
p1170
sg4
L1449660069721L
sS'recordCount'
p1171
g6
sS'EventType'
p1172
S'TYPE_VIEW_CLICKED'
p1173
sS'PackageName'
p1174
S'com.example.myfristandroid'
p1175
sS'OutBounds'
p1176
S'Rect(45, 884 - 352, 980)'
p1177
sS'Action'
p1178
S'[ ClassName: android.widget.Button; Text: [\xe7\xa1\xae\xe8\xae\xa4]; ContentDescription: null; ItemCount: -1; CurrentItemIndex: -1; IsEnabled: true; IsPassword: false; IsChecked: false; IsFullScreen: false; Scrollable: false; BeforeText: null; FromIndex: -1; ToIndex: -1; ScrollX: -1; ScrollY: -1; MaxScrollX: -1; MaxScrollY: -1; AddedCount: -1; RemovedCount: -1; ParcelableData: null ]'
p1179
sS'MovementGranularity'
p1180
g6
sa(dp1181
S'EventTime'
p1182
S'754755767'
p1183
sg4
L1449660069804L
sS'recordCount'
p1184
g6
sS'EventType'
p1185
S'TYPE_WINDOW_STATE_CHANGED'
p1186
sS'PackageName'
p1187
S'com.example.myfristandroid'
p1188
sS'OutBounds'
p1189
S'Rect(0, 0 - 720, 1280)'
p1190
sS'Action'
p1191
S'[ ClassName: com.example.myfristandroid.MainActivity; Text: [SE-1800\xe7\xa7\xbb\xe5\x8a\xa8APP]; ContentDescription: null; ItemCount: -1; CurrentItemIndex: -1; IsEnabled: true; IsPassword: false; IsChecked: false; IsFullScreen: true; Scrollable: false; BeforeText: null; FromIndex: -1; ToIndex: -1; ScrollX: -1; ScrollY: -1; MaxScrollX: -1; MaxScrollY: -1; AddedCount: -1; RemovedCount: -1; ParcelableData: null ]'
p1192
sS'MovementGranularity'
p1193
g6
sa(dp1194
S'EventTime'
p1195
S'754757848'
p1196
sg4
L1449660071864L
sS'recordCount'
p1197
g6
sS'EventType'
p1198
S'TYPE_VIEW_SCROLLED'
p1199
sS'PackageName'
p1200
S'com.example.myfristandroid'
p1201
sS'OutBounds'
p1202
S'Rect(0, 138 - 720, 1170)'
p1203
sS'Action'
p1204
S'[ ClassName: android.support.v4.view.ViewPager; Text: []; ContentDescription: null; ItemCount: -1; CurrentItemIndex: -1; IsEnabled: true; IsPassword: false; IsChecked: false; IsFullScreen: false; Scrollable: false; BeforeText: null; FromIndex: -1; ToIndex: -1; ScrollX: -1; ScrollY: -1; MaxScrollX: -1; MaxScrollY: -1; AddedCount: -1; RemovedCount: -1; ParcelableData: null ]'
p1205
sS'MovementGranularity'
p1206
g6
sa(dp1207
S'EventTime'
p1208
S'754757966'
p1209
sg4
L1449660071977L
sS'recordCount'
p1210
g6
sS'EventType'
p1211
S'TYPE_VIEW_FOCUSED'
p1212
sS'PackageName'
p1213
S'com.example.myfristandroid'
p1214
sS'OutBounds'
p1215
S'Rect(6, 298 - 714, 358)'
p1216
sS'Action'
p1217
S'[ ClassName: android.widget.EditText; Text: [\xe6\x90\x9c\xe7\xb4\xa2]; ContentDescription: null; ItemCount: 10; CurrentItemIndex: 4; IsEnabled: true; IsPassword: false; IsChecked: false; IsFullScreen: false; Scrollable: false; BeforeText: null; FromIndex: -1; ToIndex: -1; ScrollX: -1; ScrollY: -1; MaxScrollX: -1; MaxScrollY: -1; AddedCount: -1; RemovedCount: -1; ParcelableData: null ]'
p1218
sS'MovementGranularity'
p1219
g6
sa(dp1220
S'EventTime'
p1221
S'754757984'
p1222
sg4
L1449660072000L
sS'recordCount'
p1223
g6
sS'EventType'
p1224
S'TYPE_VIEW_SCROLLED'
p1225
sS'PackageName'
p1226
S'com.example.myfristandroid'
p1227
sS'OutBounds'
p1228
S'Rect(0, 138 - 720, 1170)'
p1229
sS'Action'
p1230
S'[ ClassName: android.support.v4.view.ViewPager; Text: []; ContentDescription: null; ItemCount: -1; CurrentItemIndex: -1; IsEnabled: true; IsPassword: false; IsChecked: false; IsFullScreen: false; Scrollable: false; BeforeText: null; FromIndex: -1; ToIndex: -1; ScrollX: -1; ScrollY: -1; MaxScrollX: -1; MaxScrollY: -1; AddedCount: -1; RemovedCount: -1; ParcelableData: null ]'
p1231
sS'MovementGranularity'
p1232
g6
sa(dp1233
S'EventTime'
p1234
S'754758065'
p1235
sg4
L1449660072080L
sS'recordCount'
p1236
g6
sS'EventType'
p1237
S'TYPE_WINDOW_CONTENT_CHANGED'
p1238
sS'PackageName'
p1239
S'com.example.myfristandroid'
p1240
sS'OutBounds'
p1241
S'Rect(0, 138 - 720, 1170)'
p1242
sS'Action'
p1243
S'[ ClassName: android.support.v4.view.ViewPager; Text: []; ContentDescription: null; ItemCount: -1; CurrentItemIndex: -1; IsEnabled: true; IsPassword: false; IsChecked: false; IsFullScreen: false; Scrollable: false; BeforeText: null; FromIndex: -1; ToIndex: -1; ScrollX: -1; ScrollY: -1; MaxScrollX: -1; MaxScrollY: -1; AddedCount: -1; RemovedCount: -1; ParcelableData: null ]'
p1244
sS'MovementGranularity'
p1245
g6
sa(dp1246
S'EventTime'
p1247
S'754771077'
p1248
sg4
L1449660085094L
sS'recordCount'
p1249
g6
sS'EventType'
p1250
S'TYPE_VIEW_FOCUSED'
p1251
sS'PackageName'
p1252
S'com.example.myfristandroid'
p1253
sS'OutBounds'
p1254
S'Rect(420, 148 - 930, 208)'
p1255
sS'Action'
p1256
S'[ ClassName: android.widget.EditText; Text: [218.94.19.234]; ContentDescription: null; ItemCount: 10; CurrentItemIndex: 0; IsEnabled: true; IsPassword: false; IsChecked: false; IsFullScreen: false; Scrollable: false; BeforeText: null; FromIndex: -1; ToIndex: -1; ScrollX: -1; ScrollY: -1; MaxScrollX: -1; MaxScrollY: -1; AddedCount: -1; RemovedCount: -1; ParcelableData: null ]'
p1257
sS'MovementGranularity'
p1258
g6
sa(dp1259
S'EventTime'
p1260
S'754771084'
p1261
sg4
L1449660085113L
sS'recordCount'
p1262
g6
sS'EventType'
p1263
S'TYPE_WINDOW_CONTENT_CHANGED'
p1264
sS'PackageName'
p1265
S'com.example.myfristandroid'
p1266
sS'OutBounds'
p1267
S'Rect(315, 498 - 595, 558)'
p1268
sS'Action'
p1269
S'[ ClassName: android.widget.Button; Text: []; ContentDescription: null; ItemCount: -1; CurrentItemIndex: -1; IsEnabled: true; IsPassword: false; IsChecked: false; IsFullScreen: false; Scrollable: false; BeforeText: null; FromIndex: -1; ToIndex: -1; ScrollX: -1; ScrollY: -1; MaxScrollX: -1; MaxScrollY: -1; AddedCount: -1; RemovedCount: -1; ParcelableData: null ]'
p1270
sS'MovementGranularity'
p1271
g6
sa(dp1272
S'EventTime'
p1273
S'754771085'
p1274
sg4
L1449660085127L
sS'recordCount'
p1275
g6
sS'EventType'
p1276
S'TYPE_VIEW_CLICKED'
p1277
sS'PackageName'
p1278
S'com.example.myfristandroid'
p1279
sS'OutBounds'
p1280
S'Rect(540, 1170 - 720, 1280)'
p1281
sS'Action'
p1282
S'[ ClassName: android.widget.LinearLayout; Text: [\xe8\xae\xbe\xe7\xbd\xae\xe7\xb3\xbb\xe7\xbb\x9f\xe8\xbf\x90\xe8\xa1\x8c\xe5\x8f\x82\xe6\x95\xb0, \xe8\xae\xbe\xe7\xbd\xae]; ContentDescription: null; ItemCount: -1; CurrentItemIndex: -1; IsEnabled: true; IsPassword: false; IsChecked: false; IsFullScreen: false; Scrollable: false; BeforeText: null; FromIndex: -1; ToIndex: -1; ScrollX: -1; ScrollY: -1; MaxScrollX: -1; MaxScrollY: -1; AddedCount: -1; RemovedCount: -1; ParcelableData: null ]'
p1283
sS'MovementGranularity'
p1284
g6
sa(dp1285
S'EventTime'
p1286
S'754771202'
p1287
sg4
L1449660085223L
sS'recordCount'
p1288
g6
sS'EventType'
p1289
S'TYPE_VIEW_SCROLLED'
p1290
sS'PackageName'
p1291
S'com.example.myfristandroid'
p1292
sS'OutBounds'
p1293
S'Rect(0, 138 - 720, 1170)'
p1294
sS'Action'
p1295
S'[ ClassName: android.support.v4.view.ViewPager; Text: []; ContentDescription: null; ItemCount: -1; CurrentItemIndex: -1; IsEnabled: true; IsPassword: false; IsChecked: false; IsFullScreen: false; Scrollable: false; BeforeText: null; FromIndex: -1; ToIndex: -1; ScrollX: -1; ScrollY: -1; MaxScrollX: -1; MaxScrollY: -1; AddedCount: -1; RemovedCount: -1; ParcelableData: null ]'
p1296
sS'MovementGranularity'
p1297
g6
sa(dp1298
S'EventTime'
p1299
S'754771306'
p1300
sg4
L1449660085325L
sS'recordCount'
p1301
g6
sS'EventType'
p1302
S'TYPE_VIEW_SCROLLED'
p1303
sS'PackageName'
p1304
S'com.example.myfristandroid'
p1305
sS'OutBounds'
p1306
S'Rect(0, 138 - 720, 1170)'
p1307
sS'Action'
p1308
S'[ ClassName: android.support.v4.view.ViewPager; Text: []; ContentDescription: null; ItemCount: -1; CurrentItemIndex: -1; IsEnabled: true; IsPassword: false; IsChecked: false; IsFullScreen: false; Scrollable: false; BeforeText: null; FromIndex: -1; ToIndex: -1; ScrollX: -1; ScrollY: -1; MaxScrollX: -1; MaxScrollY: -1; AddedCount: -1; RemovedCount: -1; ParcelableData: null ]'
p1309
sS'MovementGranularity'
p1310
g6
sa(dp1311
S'EventTime'
p1312
S'754771421'
p1313
sg4
L1449660085439L
sS'recordCount'
p1314
g6
sS'EventType'
p1315
S'TYPE_WINDOW_CONTENT_CHANGED'
p1316
sS'PackageName'
p1317
S'com.example.myfristandroid'
p1318
sS'OutBounds'
p1319
S'Rect(0, 138 - 720, 1170)'
p1320
sS'Action'
p1321
S'[ ClassName: android.support.v4.view.ViewPager; Text: []; ContentDescription: null; ItemCount: -1; CurrentItemIndex: -1; IsEnabled: true; IsPassword: false; IsChecked: false; IsFullScreen: false; Scrollable: false; BeforeText: null; FromIndex: -1; ToIndex: -1; ScrollX: -1; ScrollY: -1; MaxScrollX: -1; MaxScrollY: -1; AddedCount: -1; RemovedCount: -1; ParcelableData: null ]'
p1322
sS'MovementGranularity'
p1323
g6
sa(dp1324
S'EventTime'
p1325
S'754771426'
p1326
sg4
L1449660085463L
sS'recordCount'
p1327
g6
sS'EventType'
p1328
S'TYPE_VIEW_SCROLLED'
p1329
sS'PackageName'
p1330
S'com.example.myfristandroid'
p1331
sS'OutBounds'
p1332
S'Rect(0, 138 - 720, 1170)'
p1333
sS'Action'
p1334
S'[ ClassName: android.support.v4.view.ViewPager; Text: []; ContentDescription: null; ItemCount: -1; CurrentItemIndex: -1; IsEnabled: true; IsPassword: false; IsChecked: false; IsFullScreen: false; Scrollable: false; BeforeText: null; FromIndex: -1; ToIndex: -1; ScrollX: -1; ScrollY: -1; MaxScrollX: -1; MaxScrollY: -1; AddedCount: -1; RemovedCount: -1; ParcelableData: null ]'
p1335
sS'MovementGranularity'
p1336
g6
sa(dp1337
S'EventTime'
p1338
S'754771522'
p1339
sg4
L1449660085544L
sS'recordCount'
p1340
g6
sS'EventType'
p1341
S'TYPE_WINDOW_CONTENT_CHANGED'
p1342
sS'PackageName'
p1343
S'com.example.myfristandroid'
p1344
sS'OutBounds'
p1345
S'Rect(0, 138 - 720, 1170)'
p1346
sS'Action'
p1347
S'[ ClassName: android.support.v4.view.ViewPager; Text: []; ContentDescription: null; ItemCount: -1; CurrentItemIndex: -1; IsEnabled: true; IsPassword: false; IsChecked: false; IsFullScreen: false; Scrollable: false; BeforeText: null; FromIndex: -1; ToIndex: -1; ScrollX: -1; ScrollY: -1; MaxScrollX: -1; MaxScrollY: -1; AddedCount: -1; RemovedCount: -1; ParcelableData: null ]'
p1348
sS'MovementGranularity'
p1349
g6
sa(dp1350
S'EventTime'
p1351
S'754774108'
p1352
sg4
L1449660088116L
sS'recordCount'
p1353
g6
sS'EventType'
p1354
S'TYPE_VIEW_CLICKED'
p1355
sS'PackageName'
p1356
S'com.example.myfristandroid'
p1357
sS'OutBounds'
p1358
S'Rect(220, 498 - 500, 558)'
p1359
sS'Action'
p1360
S'[ ClassName: android.widget.Button; Text: [\xe7\x99\xbb\xe5\xbd\x95]; ContentDescription: null; ItemCount: -1; CurrentItemIndex: -1; IsEnabled: true; IsPassword: false; IsChecked: false; IsFullScreen: false; Scrollable: false; BeforeText: null; FromIndex: -1; ToIndex: -1; ScrollX: -1; ScrollY: -1; MaxScrollX: -1; MaxScrollY: -1; AddedCount: -1; RemovedCount: -1; ParcelableData: null ]'
p1361
sS'MovementGranularity'
p1362
g6
sa(dp1363
S'EventTime'
p1364
S'754775219'
p1365
sg4
L1449660089228L
sS'recordCount'
p1366
g6
sS'EventType'
p1367
S'TYPE_WINDOW_CONTENT_CHANGED'
p1368
sS'PackageName'
p1369
S'com.example.myfristandroid'
p1370
sS'OutBounds'
p1371
S'Rect(200, 428 - 710, 488)'
p1372
sS'Action'
p1373
S'[ ClassName: android.widget.EditText; Text: []; ContentDescription: null; ItemCount: -1; CurrentItemIndex: -1; IsEnabled: false; IsPassword: true; IsChecked: false; IsFullScreen: false; Scrollable: false; BeforeText: null; FromIndex: -1; ToIndex: -1; ScrollX: -1; ScrollY: -1; MaxScrollX: -1; MaxScrollY: -1; AddedCount: -1; RemovedCount: -1; ParcelableData: null ]'
p1374
sS'MovementGranularity'
p1375
g6
sa(dp1376
S'EventTime'
p1377
S'754775982'
p1378
sg4
L1449660089989L
sS'recordCount'
p1379
g6
sS'EventType'
p1380
S'TYPE_VIEW_CLICKED'
p1381
sS'PackageName'
p1382
S'com.example.myfristandroid'
p1383
sS'OutBounds'
p1384
S'Rect(220, 498 - 500, 558)'
p1385
sS'Action'
p1386
S'[ ClassName: android.widget.Button; Text: [\xe7\xb3\xbb\xe7\xbb\x9f\xe7\xae\xa1\xe7\x90\x86\xe5\x91\x98]; ContentDescription: null; ItemCount: -1; CurrentItemIndex: -1; IsEnabled: true; IsPassword: false; IsChecked: false; IsFullScreen: false; Scrollable: false; BeforeText: null; FromIndex: -1; ToIndex: -1; ScrollX: -1; ScrollY: -1; MaxScrollX: -1; MaxScrollY: -1; AddedCount: -1; RemovedCount: -1; ParcelableData: null ]'
p1387
sS'MovementGranularity'
p1388
g6
sa(dp1389
S'EventTime'
p1390
S'754776189'
p1391
sg4
L1449660090196L
sS'recordCount'
p1392
g6
sS'EventType'
p1393
S'TYPE_VIEW_CLICKED'
p1394
sS'PackageName'
p1395
S'com.example.myfristandroid'
p1396
sS'OutBounds'
p1397
S'Rect(220, 498 - 500, 558)'
p1398
sS'Action'
p1399
S'[ ClassName: android.widget.Button; Text: [\xe7\xb3\xbb\xe7\xbb\x9f\xe7\xae\xa1\xe7\x90\x86\xe5\x91\x98]; ContentDescription: null; ItemCount: -1; CurrentItemIndex: -1; IsEnabled: true; IsPassword: false; IsChecked: false; IsFullScreen: false; Scrollable: false; BeforeText: null; FromIndex: -1; ToIndex: -1; ScrollX: -1; ScrollY: -1; MaxScrollX: -1; MaxScrollY: -1; AddedCount: -1; RemovedCount: -1; ParcelableData: null ]'
p1400
sS'MovementGranularity'
p1401
g6
sa(dp1402
S'EventTime'
p1403
S'754776236'
p1404
sg4
L1449660090248L
sS'recordCount'
p1405
g6
sS'EventType'
p1406
S'TYPE_WINDOW_CONTENT_CHANGED'
p1407
sS'PackageName'
p1408
S'com.example.myfristandroid'
p1409
sS'OutBounds'
p1410
S'Rect(200, 428 - 710, 488)'
p1411
sS'Action'
p1412
S'[ ClassName: android.widget.EditText; Text: []; ContentDescription: null; ItemCount: -1; CurrentItemIndex: -1; IsEnabled: true; IsPassword: true; IsChecked: false; IsFullScreen: false; Scrollable: false; BeforeText: null; FromIndex: -1; ToIndex: -1; ScrollX: -1; ScrollY: -1; MaxScrollX: -1; MaxScrollY: -1; AddedCount: -1; RemovedCount: -1; ParcelableData: null ]'
p1413
sS'MovementGranularity'
p1414
g6
sa(dp1415
S'EventTime'
p1416
S'754777247'
p1417
sg4
L1449660091256L
sS'recordCount'
p1418
g6
sS'EventType'
p1419
S'TYPE_WINDOW_CONTENT_CHANGED'
p1420
sS'PackageName'
p1421
S'com.example.myfristandroid'
p1422
sS'OutBounds'
p1423
S'Rect(220, 498 - 500, 558)'
p1424
sS'Action'
p1425
S'[ ClassName: android.widget.Button; Text: []; ContentDescription: null; ItemCount: -1; CurrentItemIndex: -1; IsEnabled: true; IsPassword: false; IsChecked: false; IsFullScreen: false; Scrollable: false; BeforeText: null; FromIndex: -1; ToIndex: -1; ScrollX: -1; ScrollY: -1; MaxScrollX: -1; MaxScrollY: -1; AddedCount: -1; RemovedCount: -1; ParcelableData: null ]'
p1426
sS'MovementGranularity'
p1427
g6
sa(dp1428
S'EventTime'
p1429
S'754777469'
p1430
sg4
L1449660091478L
sS'recordCount'
p1431
g6
sS'EventType'
p1432
S'TYPE_VIEW_CLICKED'
p1433
sS'PackageName'
p1434
S'com.example.myfristandroid'
p1435
sS'OutBounds'
p1436
S'Rect(220, 498 - 500, 558)'
p1437
sS'Action'
p1438
S'[ ClassName: android.widget.Button; Text: [\xe7\x99\xbb\xe5\xbd\x95]; ContentDescription: null; ItemCount: -1; CurrentItemIndex: -1; IsEnabled: true; IsPassword: false; IsChecked: false; IsFullScreen: false; Scrollable: false; BeforeText: null; FromIndex: -1; ToIndex: -1; ScrollX: -1; ScrollY: -1; MaxScrollX: -1; MaxScrollY: -1; AddedCount: -1; RemovedCount: -1; ParcelableData: null ]'
p1439
sS'MovementGranularity'
p1440
g6
sa(dp1441
S'EventTime'
p1442
S'754778269'
p1443
sg4
L1449660092279L
sS'recordCount'
p1444
g6
sS'EventType'
p1445
S'TYPE_WINDOW_CONTENT_CHANGED'
p1446
sS'PackageName'
p1447
S'com.example.myfristandroid'
p1448
sS'OutBounds'
p1449
S'Rect(200, 428 - 710, 488)'
p1450
sS'Action'
p1451
S'[ ClassName: android.widget.EditText; Text: []; ContentDescription: null; ItemCount: -1; CurrentItemIndex: -1; IsEnabled: false; IsPassword: true; IsChecked: false; IsFullScreen: false; Scrollable: false; BeforeText: null; FromIndex: -1; ToIndex: -1; ScrollX: -1; ScrollY: -1; MaxScrollX: -1; MaxScrollY: -1; AddedCount: -1; RemovedCount: -1; ParcelableData: null ]'
p1452
sS'MovementGranularity'
p1453
g6
sa(dp1454
S'EventTime'
p1455
S'754779329'
p1456
sg4
L1449660093338L
sS'recordCount'
p1457
g6
sS'EventType'
p1458
S'TYPE_WINDOW_CONTENT_CHANGED'
p1459
sS'PackageName'
p1460
S'com.example.myfristandroid'
p1461
sS'OutBounds'
p1462
S'Rect(893, 148 - 1403, 208)'
p1463
sS'Action'
p1464
S'[ ClassName: android.widget.EditText; Text: []; ContentDescription: null; ItemCount: -1; CurrentItemIndex: -1; IsEnabled: true; IsPassword: false; IsChecked: false; IsFullScreen: false; Scrollable: false; BeforeText: null; FromIndex: -1; ToIndex: -1; ScrollX: -1; ScrollY: -1; MaxScrollX: -1; MaxScrollY: -1; AddedCount: -1; RemovedCount: -1; ParcelableData: null ]'
p1465
sS'MovementGranularity'
p1466
g6
sa(dp1467
S'EventTime'
p1468
S'754779330'
p1469
sg4
L1449660093353L
sS'recordCount'
p1470
g6
sS'EventType'
p1471
S'TYPE_VIEW_FOCUSED'
p1472
sS'PackageName'
p1473
S'com.example.myfristandroid'
p1474
sS'OutBounds'
p1475
S'Rect(-4, 248 - 703, 308)'
p1476
sS'Action'
p1477
S'[ ClassName: android.widget.EditText; Text: [\xe6\x90\x9c\xe7\xb4\xa2]; ContentDescription: null; ItemCount: 8; CurrentItemIndex: 2; IsEnabled: true; IsPassword: false; IsChecked: false; IsFullScreen: false; Scrollable: false; BeforeText: null; FromIndex: -1; ToIndex: -1; ScrollX: -1; ScrollY: -1; MaxScrollX: -1; MaxScrollY: -1; AddedCount: -1; RemovedCount: -1; ParcelableData: null ]'
p1478
sS'MovementGranularity'
p1479
g6
sa(dp1480
S'EventTime'
p1481
S'754779332'
p1482
sg4
L1449660093367L
sS'recordCount'
p1483
g6
sS'EventType'
p1484
S'TYPE_VIEW_CLICKED'
p1485
sS'PackageName'
p1486
S'com.example.myfristandroid'
p1487
sS'OutBounds'
p1488
S'Rect(360, 1170 - 540, 1280)'
p1489
sS'Action'
p1490
S'[ ClassName: android.widget.LinearLayout; Text: [\xe6\x9f\xa5\xe7\x9c\x8b\xe5\xae\x9e\xe6\x97\xb6\xe5\x91\x8a\xe8\xad\xa6\xe4\xbf\xa1\xe6\x81\xaf, \xe5\x91\x8a\xe8\xad\xa6]; ContentDescription: null; ItemCount: -1; CurrentItemIndex: -1; IsEnabled: true; IsPassword: false; IsChecked: false; IsFullScreen: false; Scrollable: false; BeforeText: null; FromIndex: -1; ToIndex: -1; ScrollX: -1; ScrollY: -1; MaxScrollX: -1; MaxScrollY: -1; AddedCount: -1; RemovedCount: -1; ParcelableData: null ]'
p1491
sS'MovementGranularity'
p1492
g6
sa(dp1493
S'EventTime'
p1494
S'754779445'
p1495
sg4
L1449660093463L
sS'recordCount'
p1496
g6
sS'EventType'
p1497
S'TYPE_VIEW_SCROLLED'
p1498
sS'PackageName'
p1499
S'com.example.myfristandroid'
p1500
sS'OutBounds'
p1501
S'Rect(0, 138 - 720, 1170)'
p1502
sS'Action'
p1503
S'[ ClassName: android.support.v4.view.ViewPager; Text: []; ContentDescription: null; ItemCount: -1; CurrentItemIndex: -1; IsEnabled: true; IsPassword: false; IsChecked: false; IsFullScreen: false; Scrollable: false; BeforeText: null; FromIndex: -1; ToIndex: -1; ScrollX: -1; ScrollY: -1; MaxScrollX: -1; MaxScrollY: -1; AddedCount: -1; RemovedCount: -1; ParcelableData: null ]'
p1504
sS'MovementGranularity'
p1505
g6
sa(dp1506
S'EventTime'
p1507
S'754779560'
p1508
sg4
L1449660093576L
sS'recordCount'
p1509
g6
sS'EventType'
p1510
S'TYPE_VIEW_SCROLLED'
p1511
sS'PackageName'
p1512
S'com.example.myfristandroid'
p1513
sS'OutBounds'
p1514
S'Rect(0, 138 - 720, 1170)'
p1515
sS'Action'
p1516
S'[ ClassName: android.support.v4.view.ViewPager; Text: []; ContentDescription: null; ItemCount: -1; CurrentItemIndex: -1; IsEnabled: true; IsPassword: false; IsChecked: false; IsFullScreen: false; Scrollable: false; BeforeText: null; FromIndex: -1; ToIndex: -1; ScrollX: -1; ScrollY: -1; MaxScrollX: -1; MaxScrollY: -1; AddedCount: -1; RemovedCount: -1; ParcelableData: null ]'
p1517
sS'MovementGranularity'
p1518
g6
sa(dp1519
S'EventTime'
p1520
S'754780397'
p1521
sg4
L1449660094403L
sS'recordCount'
p1522
g6
sS'EventType'
p1523
S'TYPE_VIEW_CLICKED'
p1524
sS'PackageName'
p1525
S'com.example.myfristandroid'
p1526
sS'OutBounds'
p1527
S'Rect(110, 168 - 350, 228)'
p1528
sS'Action'
p1529
S'[ ClassName: android.widget.Button; Text: [\xe5\xae\x9e\xe6\x97\xb6]; ContentDescription: null; ItemCount: -1; CurrentItemIndex: -1; IsEnabled: true; IsPassword: false; IsChecked: false; IsFullScreen: false; Scrollable: false; BeforeText: null; FromIndex: -1; ToIndex: -1; ScrollX: -1; ScrollY: -1; MaxScrollX: -1; MaxScrollY: -1; AddedCount: -1; RemovedCount: -1; ParcelableData: null ]'
p1530
sS'MovementGranularity'
p1531
g6
sa(dp1532
S'EventTime'
p1533
S'754781351'
p1534
sg4
L1449660095358L
sS'recordCount'
p1535
g6
sS'EventType'
p1536
S'TYPE_VIEW_CLICKED'
p1537
sS'PackageName'
p1538
S'com.example.myfristandroid'
p1539
sS'OutBounds'
p1540
S'Rect(370, 168 - 610, 228)'
p1541
sS'Action'
p1542
S'[ ClassName: android.widget.Button; Text: [\xe5\x8e\x86\xe5\x8f\xb2]; ContentDescription: null; ItemCount: -1; CurrentItemIndex: -1; IsEnabled: true; IsPassword: false; IsChecked: false; IsFullScreen: false; Scrollable: false; BeforeText: null; FromIndex: -1; ToIndex: -1; ScrollX: -1; ScrollY: -1; MaxScrollX: -1; MaxScrollY: -1; AddedCount: -1; RemovedCount: -1; ParcelableData: null ]'
p1543
sS'MovementGranularity'
p1544
g6
sa(dp1545
S'EventTime'
p1546
S'754781448'
p1547
sg4
L1449660095554L
sS'recordCount'
p1548
g6
sS'EventType'
p1549
S'TYPE_WINDOW_STATE_CHANGED'
p1550
sS'PackageName'
p1551
S'com.example.myfristandroid'
p1552
sS'OutBounds'
p1553
S'Rect(0, 0 - 720, 1280)'
p1554
sS'Action'
p1555
S'[ ClassName: com.example.myfristandroid.HuzAlertDialog; Text: [2013-12-09, 2013\xe5\xb9\xb412\xe6\x9c\x889\xe6\x97\xa5]; ContentDescription: null; ItemCount: -1; CurrentItemIndex: -1; IsEnabled: true; IsPassword: false; IsChecked: false; IsFullScreen: true; Scrollable: false; BeforeText: null; FromIndex: -1; ToIndex: -1; ScrollX: -1; ScrollY: -1; MaxScrollX: -1; MaxScrollY: -1; AddedCount: -1; RemovedCount: -1; ParcelableData: null ]'
p1556
sS'MovementGranularity'
p1557
g6
sa(dp1558
S'EventTime'
p1559
S'754781449'
p1560
sg4
L1449660095571L
sS'recordCount'
p1561
g6
sS'EventType'
p1562
S'TYPE_VIEW_TEXT_SELECTION_CHANGED'
p1563
sS'PackageName'
p1564
S'com.example.myfristandroid'
p1565
sS'OutBounds'
p1566
S'Rect(306, 631 - 434, 676)'
p1567
sS'Action'
p1568
S'[ ClassName: android.widget.EditText; Text: [12]; ContentDescription: null; ItemCount: 2; CurrentItemIndex: -1; IsEnabled: true; IsPassword: false; IsChecked: false; IsFullScreen: false; Scrollable: false; BeforeText: null; FromIndex: 2; ToIndex: 2; ScrollX: -1; ScrollY: -1; MaxScrollX: -1; MaxScrollY: -1; AddedCount: -1; RemovedCount: -1; ParcelableData: null ]'
p1569
sS'MovementGranularity'
p1570
g6
sa(dp1571
S'EventTime'
p1572
S'754781686'
p1573
sg4
L1449660095696L
sS'recordCount'
p1574
g6
sS'EventType'
p1575
S'TYPE_WINDOW_CONTENT_CHANGED'
p1576
sS'PackageName'
p1577
S'com.example.myfristandroid'
p1578
sS'OutBounds'
p1579
S'Rect(372, 884 - 679, 980)'
p1580
sS'Action'
p1581
S'[ ClassName: android.widget.Button; Text: []; ContentDescription: null; ItemCount: -1; CurrentItemIndex: -1; IsEnabled: true; IsPassword: false; IsChecked: false; IsFullScreen: false; Scrollable: false; BeforeText: null; FromIndex: -1; ToIndex: -1; ScrollX: -1; ScrollY: -1; MaxScrollX: -1; MaxScrollY: -1; AddedCount: -1; RemovedCount: -1; ParcelableData: null ]'
p1582
sS'MovementGranularity'
p1583
g6
sa(dp1584
S'EventTime'
p1585
S'754782349'
p1586
sg4
L1449660096369L
sS'recordCount'
p1587
g6
sS'EventType'
p1588
S'TYPE_VIEW_TEXT_SELECTION_CHANGED'
p1589
sS'PackageName'
p1590
S'com.example.myfristandroid'
p1591
sS'OutBounds'
p1592
S'Rect(130, 631 - 258, 676)'
p1593
sS'Action'
p1594
S'[ ClassName: android.widget.EditText; Text: [2014]; ContentDescription: null; ItemCount: 4; CurrentItemIndex: -1; IsEnabled: true; IsPassword: false; IsChecked: false; IsFullScreen: false; Scrollable: false; BeforeText: null; FromIndex: 0; ToIndex: 0; ScrollX: -1; ScrollY: -1; MaxScrollX: -1; MaxScrollY: -1; AddedCount: -1; RemovedCount: -1; ParcelableData: null ]'
p1595
sS'MovementGranularity'
p1596
g6
sa(dp1597
S'EventTime'
p1598
S'754782357'
p1599
sg4
L1449660096401L
sS'recordCount'
p1600
g6
sS'EventType'
p1601
S'TYPE_WINDOW_CONTENT_CHANGED'
p1602
sS'PackageName'
p1603
S'com.example.myfristandroid'
p1604
sS'OutBounds'
p1605
S'Rect(43, 346 - 693, 413)'
p1606
sS'Action'
p1607
S'[ ClassName: android.widget.TextView; Text: []; ContentDescription: null; ItemCount: -1; CurrentItemIndex: -1; IsEnabled: true; IsPassword: false; IsChecked: false; IsFullScreen: false; Scrollable: false; BeforeText: null; FromIndex: -1; ToIndex: -1; ScrollX: -1; ScrollY: -1; MaxScrollX: -1; MaxScrollY: -1; AddedCount: -1; RemovedCount: -1; ParcelableData: null ]'
p1608
sS'MovementGranularity'
p1609
g6
sa(dp1610
S'EventTime'
p1611
S'754782359'
p1612
sg4
L1449660096433L
sS'recordCount'
p1613
g6
sS'EventType'
p1614
S'TYPE_VIEW_SELECTED'
p1615
sS'PackageName'
p1616
S'com.example.myfristandroid'
p1617
sS'OutBounds'
p1618
S'Rect(114, 442 - 610, 866)'
p1619
sS'Action'
p1620
S'[ ClassName: android.widget.DatePicker; Text: [2014\xe5\xb9\xb41\xe6\x9c\x889\xe6\x97\xa5]; ContentDescription: null; ItemCount: -1; CurrentItemIndex: -1; IsEnabled: true; IsPassword: false; IsChecked: false; IsFullScreen: false; Scrollable: false; BeforeText: null; FromIndex: -1; ToIndex: -1; ScrollX: -1; ScrollY: -1; MaxScrollX: -1; MaxScrollY: -1; AddedCount: -1; RemovedCount: -1; ParcelableData: null ]'
p1621
sS'MovementGranularity'
p1622
g6
sa(dp1623
S'EventTime'
p1624
S'754782463'
p1625
sg4
L1449660096482L
sS'recordCount'
p1626
g6
sS'EventType'
p1627
S'TYPE_WINDOW_CONTENT_CHANGED'
p1628
sS'PackageName'
p1629
S'com.example.myfristandroid'
p1630
sS'OutBounds'
p1631
S'Rect(43, 346 - 693, 413)'
p1632
sS'Action'
p1633
S'[ ClassName: android.widget.TextView; Text: []; ContentDescription: null; ItemCount: -1; CurrentItemIndex: -1; IsEnabled: true; IsPassword: false; IsChecked: false; IsFullScreen: false; Scrollable: false; BeforeText: null; FromIndex: -1; ToIndex: -1; ScrollX: -1; ScrollY: -1; MaxScrollX: -1; MaxScrollY: -1; AddedCount: -1; RemovedCount: -1; ParcelableData: null ]'
p1634
sS'MovementGranularity'
p1635
g6
sa(dp1636
S'EventTime'
p1637
S'754783209'
p1638
sg4
L1449660097215L
sS'recordCount'
p1639
g6
sS'EventType'
p1640
S'TYPE_VIEW_CLICKED'
p1641
sS'PackageName'
p1642
S'com.example.myfristandroid'
p1643
sS'OutBounds'
p1644
S'Rect(45, 884 - 352, 980)'
p1645
sS'Action'
p1646
S'[ ClassName: android.widget.Button; Text: [\xe7\xa1\xae\xe8\xae\xa4]; ContentDescription: null; ItemCount: -1; CurrentItemIndex: -1; IsEnabled: true; IsPassword: false; IsChecked: false; IsFullScreen: false; Scrollable: false; BeforeText: null; FromIndex: -1; ToIndex: -1; ScrollX: -1; ScrollY: -1; MaxScrollX: -1; MaxScrollY: -1; AddedCount: -1; RemovedCount: -1; ParcelableData: null ]'
p1647
sS'MovementGranularity'
p1648
g6
sa(dp1649
S'EventTime'
p1650
S'754783257'
p1651
sg4
L1449660097291L
sS'recordCount'
p1652
g6
sS'EventType'
p1653
S'TYPE_WINDOW_STATE_CHANGED'
p1654
sS'PackageName'
p1655
S'com.example.myfristandroid'
p1656
sS'OutBounds'
p1657
S'Rect(0, 0 - 720, 1280)'
p1658
sS'Action'
p1659
S'[ ClassName: com.example.myfristandroid.MainActivity; Text: [SE-1800\xe7\xa7\xbb\xe5\x8a\xa8APP]; ContentDescription: null; ItemCount: -1; CurrentItemIndex: -1; IsEnabled: true; IsPassword: false; IsChecked: false; IsFullScreen: true; Scrollable: false; BeforeText: null; FromIndex: -1; ToIndex: -1; ScrollX: -1; ScrollY: -1; MaxScrollX: -1; MaxScrollY: -1; AddedCount: -1; RemovedCount: -1; ParcelableData: null ]'
p1660
sS'MovementGranularity'
p1661
g6
sa(dp1662
S'EventTime'
p1663
S'754784282'
p1664
sg4
L1449660098289L
sS'recordCount'
p1665
g6
sS'EventType'
p1666
S'TYPE_VIEW_CLICKED'
p1667
sS'PackageName'
p1668
S'com.example.myfristandroid'
p1669
sS'OutBounds'
p1670
S'Rect(370, 168 - 610, 228)'
p1671
sS'Action'
p1672
S'[ ClassName: android.widget.Button; Text: [\xe5\x8e\x86\xe5\x8f\xb2]; ContentDescription: null; ItemCount: -1; CurrentItemIndex: -1; IsEnabled: true; IsPassword: false; IsChecked: false; IsFullScreen: false; Scrollable: false; BeforeText: null; FromIndex: -1; ToIndex: -1; ScrollX: -1; ScrollY: -1; MaxScrollX: -1; MaxScrollY: -1; AddedCount: -1; RemovedCount: -1; ParcelableData: null ]'
p1673
sS'MovementGranularity'
p1674
g6
sa(dp1675
S'EventTime'
p1676
S'754784376'
p1677
sg4
L1449660098446L
sS'recordCount'
p1678
g6
sS'EventType'
p1679
S'TYPE_WINDOW_STATE_CHANGED'
p1680
sS'PackageName'
p1681
S'com.example.myfristandroid'
p1682
sS'OutBounds'
p1683
S'Rect(0, 0 - 720, 1280)'
p1684
sS'Action'
p1685
S'[ ClassName: com.example.myfristandroid.HuzAlertDialog; Text: [2014-01-09, 2014\xe5\xb9\xb41\xe6\x9c\x889\xe6\x97\xa5]; ContentDescription: null; ItemCount: -1; CurrentItemIndex: -1; IsEnabled: true; IsPassword: false; IsChecked: false; IsFullScreen: true; Scrollable: false; BeforeText: null; FromIndex: -1; ToIndex: -1; ScrollX: -1; ScrollY: -1; MaxScrollX: -1; MaxScrollY: -1; AddedCount: -1; RemovedCount: -1; ParcelableData: null ]'
p1686
sS'MovementGranularity'
p1687
g6
sa(dp1688
S'EventTime'
p1689
S'754784378'
p1690
sg4
L1449660098460L
sS'recordCount'
p1691
g6
sS'EventType'
p1692
S'TYPE_VIEW_TEXT_SELECTION_CHANGED'
p1693
sS'PackageName'
p1694
S'com.example.myfristandroid'
p1695
sS'OutBounds'
p1696
S'Rect(306, 631 - 434, 676)'
p1697
sS'Action'
p1698
S'[ ClassName: android.widget.EditText; Text: [1]; ContentDescription: null; ItemCount: 1; CurrentItemIndex: -1; IsEnabled: true; IsPassword: false; IsChecked: false; IsFullScreen: false; Scrollable: false; BeforeText: null; FromIndex: 1; ToIndex: 1; ScrollX: -1; ScrollY: -1; MaxScrollX: -1; MaxScrollY: -1; AddedCount: -1; RemovedCount: -1; ParcelableData: null ]'
p1699
sS'MovementGranularity'
p1700
g6
sa(dp1701
S'EventTime'
p1702
S'754784590'
p1703
sg4
L1449660098602L
sS'recordCount'
p1704
g6
sS'EventType'
p1705
S'TYPE_WINDOW_CONTENT_CHANGED'
p1706
sS'PackageName'
p1707
S'com.example.myfristandroid'
p1708
sS'OutBounds'
p1709
S'Rect(372, 884 - 679, 980)'
p1710
sS'Action'
p1711
S'[ ClassName: android.widget.Button; Text: []; ContentDescription: null; ItemCount: -1; CurrentItemIndex: -1; IsEnabled: true; IsPassword: false; IsChecked: false; IsFullScreen: false; Scrollable: false; BeforeText: null; FromIndex: -1; ToIndex: -1; ScrollX: -1; ScrollY: -1; MaxScrollX: -1; MaxScrollY: -1; AddedCount: -1; RemovedCount: -1; ParcelableData: null ]'
p1712
sS'MovementGranularity'
p1713
g6
sa(dp1714
S'EventTime'
p1715
S'754786012'
p1716
sg4
L1449660100019L
sS'recordCount'
p1717
g6
sS'EventType'
p1718
S'TYPE_VIEW_CLICKED'
p1719
sS'PackageName'
p1720
S'com.example.myfristandroid'
p1721
sS'OutBounds'
p1722
S'Rect(45, 884 - 352, 980)'
p1723
sS'Action'
p1724
S'[ ClassName: android.widget.Button; Text: [\xe7\xa1\xae\xe8\xae\xa4]; ContentDescription: null; ItemCount: -1; CurrentItemIndex: -1; IsEnabled: true; IsPassword: false; IsChecked: false; IsFullScreen: false; Scrollable: false; BeforeText: null; FromIndex: -1; ToIndex: -1; ScrollX: -1; ScrollY: -1; MaxScrollX: -1; MaxScrollY: -1; AddedCount: -1; RemovedCount: -1; ParcelableData: null ]'
p1725
sS'MovementGranularity'
p1726
g6
sa(dp1727
S'EventTime'
p1728
S'754786072'
p1729
sg4
L1449660100100L
sS'recordCount'
p1730
g6
sS'EventType'
p1731
S'TYPE_WINDOW_STATE_CHANGED'
p1732
sS'PackageName'
p1733
S'com.example.myfristandroid'
p1734
sS'OutBounds'
p1735
S'Rect(0, 0 - 720, 1280)'
p1736
sS'Action'
p1737
S'[ ClassName: com.example.myfristandroid.MainActivity; Text: [SE-1800\xe7\xa7\xbb\xe5\x8a\xa8APP]; ContentDescription: null; ItemCount: -1; CurrentItemIndex: -1; IsEnabled: true; IsPassword: false; IsChecked: false; IsFullScreen: true; Scrollable: false; BeforeText: null; FromIndex: -1; ToIndex: -1; ScrollX: -1; ScrollY: -1; MaxScrollX: -1; MaxScrollY: -1; AddedCount: -1; RemovedCount: -1; ParcelableData: null ]'
p1738
sS'MovementGranularity'
p1739
g6
sa(dp1740
S'EventTime'
p1741
S'754786905'
p1742
sg4
L1449660100917L
sS'recordCount'
p1743
g6
sS'EventType'
p1744
S'TYPE_VIEW_FOCUSED'
p1745
sS'PackageName'
p1746
S'com.example.myfristandroid'
p1747
sS'OutBounds'
p1748
S'Rect(226, 148 - 736, 208)'
p1749
sS'Action'
p1750
S'[ ClassName: android.widget.EditText; Text: [218.94.19.234]; ContentDescription: null; ItemCount: 10; CurrentItemIndex: 0; IsEnabled: true; IsPassword: false; IsChecked: false; IsFullScreen: false; Scrollable: false; BeforeText: null; FromIndex: -1; ToIndex: -1; ScrollX: -1; ScrollY: -1; MaxScrollX: -1; MaxScrollY: -1; AddedCount: -1; RemovedCount: -1; ParcelableData: null ]'
p1751
sS'MovementGranularity'
p1752
g6
sa(dp1753
S'EventTime'
p1754
S'754786917'
p1755
sg4
L1449660100932L
sS'recordCount'
p1756
g6
sS'EventType'
p1757
S'TYPE_WINDOW_CONTENT_CHANGED'
p1758
sS'PackageName'
p1759
S'com.example.myfristandroid'
p1760
sS'OutBounds'
p1761
S'Rect(231, 498 - 511, 558)'
p1762
sS'Action'
p1763
S'[ ClassName: android.widget.Button; Text: []; ContentDescription: null; ItemCount: -1; CurrentItemIndex: -1; IsEnabled: true; IsPassword: false; IsChecked: false; IsFullScreen: false; Scrollable: false; BeforeText: null; FromIndex: -1; ToIndex: -1; ScrollX: -1; ScrollY: -1; MaxScrollX: -1; MaxScrollY: -1; AddedCount: -1; RemovedCount: -1; ParcelableData: null ]'
p1764
sS'MovementGranularity'
p1765
g6
sa(dp1766
S'EventTime'
p1767
S'754786918'
p1768
sg4
L1449660100944L
sS'recordCount'
p1769
g6
sS'EventType'
p1770
S'TYPE_VIEW_CLICKED'
p1771
sS'PackageName'
p1772
S'com.example.myfristandroid'
p1773
sS'OutBounds'
p1774
S'Rect(540, 1170 - 720, 1280)'
p1775
sS'Action'
p1776
S'[ ClassName: android.widget.LinearLayout; Text: [\xe8\xae\xbe\xe7\xbd\xae\xe7\xb3\xbb\xe7\xbb\x9f\xe8\xbf\x90\xe8\xa1\x8c\xe5\x8f\x82\xe6\x95\xb0, \xe8\xae\xbe\xe7\xbd\xae]; ContentDescription: null; ItemCount: -1; CurrentItemIndex: -1; IsEnabled: true; IsPassword: false; IsChecked: false; IsFullScreen: false; Scrollable: false; BeforeText: null; FromIndex: -1; ToIndex: -1; ScrollX: -1; ScrollY: -1; MaxScrollX: -1; MaxScrollY: -1; AddedCount: -1; RemovedCount: -1; ParcelableData: null ]'
p1777
sS'MovementGranularity'
p1778
g6
sa(dp1779
S'EventTime'
p1780
S'754787022'
p1781
sg4
L1449660101037L
sS'recordCount'
p1782
g6
sS'EventType'
p1783
S'TYPE_VIEW_SCROLLED'
p1784
sS'PackageName'
p1785
S'com.example.myfristandroid'
p1786
sS'OutBounds'
p1787
S'Rect(0, 138 - 720, 1170)'
p1788
sS'Action'
p1789
S'[ ClassName: android.support.v4.view.ViewPager; Text: []; ContentDescription: null; ItemCount: -1; CurrentItemIndex: -1; IsEnabled: true; IsPassword: false; IsChecked: false; IsFullScreen: false; Scrollable: false; BeforeText: null; FromIndex: -1; ToIndex: -1; ScrollX: -1; ScrollY: -1; MaxScrollX: -1; MaxScrollY: -1; AddedCount: -1; RemovedCount: -1; ParcelableData: null ]'
p1790
sS'MovementGranularity'
p1791
g6
sa(dp1792
S'EventTime'
p1793
S'754787124'
p1794
sg4
L1449660101140L
sS'recordCount'
p1795
g6
sS'EventType'
p1796
S'TYPE_VIEW_SCROLLED'
p1797
sS'PackageName'
p1798
S'com.example.myfristandroid'
p1799
sS'OutBounds'
p1800
S'Rect(0, 138 - 720, 1170)'
p1801
sS'Action'
p1802
S'[ ClassName: android.support.v4.view.ViewPager; Text: []; ContentDescription: null; ItemCount: -1; CurrentItemIndex: -1; IsEnabled: true; IsPassword: false; IsChecked: false; IsFullScreen: false; Scrollable: false; BeforeText: null; FromIndex: -1; ToIndex: -1; ScrollX: -1; ScrollY: -1; MaxScrollX: -1; MaxScrollY: -1; AddedCount: -1; RemovedCount: -1; ParcelableData: null ]'
p1803
sS'MovementGranularity'
p1804
g6
sa.