(lp0
(dp1
S'EventTime'
p2
S'350991606'
p3
sS'SyscTime'
p4
L1449728494457L
sS'recordCount'
p5
S'0'
p6
sS'EventType'
p7
S'TYPE_WINDOW_STATE_CHANGED'
p8
sS'PackageName'
p9
S'com.xdf.ucan'
p10
sS'OutBounds'
p11
S'Rect(0, 0 - 480, 800)'
p12
sS'Action'
p13
S'[ ClassName: com.xdf.ucan.ui.login.StartActivity; Text: [\xe4\xbc\x98\xe6\x92\xad\xe8\xaf\xbe]; ContentDescription: null; ItemCount: -1; CurrentItemIndex: -1; IsEnabled: true; IsPassword: false; IsChecked: false; IsFullScreen: true; Scrollable: false; BeforeText: null; FromIndex: -1; ToIndex: -1; ScrollX: -1; ScrollY: -1; MaxScrollX: -1; MaxScrollY: -1; AddedCount: -1; RemovedCount: -1; ParcelableData: null ]'
p14
sS'MovementGranularity'
p15
g6
sa(dp16
S'EventTime'
p17
S'350991863'
p18
sg4
L1449728494911L
sS'recordCount'
p19
g6
sS'EventType'
p20
S'TYPE_WINDOW_CONTENT_CHANGED'
p21
sS'PackageName'
p22
S'com.xdf.ucan'
p23
sS'OutBounds'
p24
S'Rect(0, 0 - 480, 800)'
p25
sS'Action'
p26
S'[ ClassName: android.widget.FrameLayout; Text: []; ContentDescription: null; ItemCount: -1; CurrentItemIndex: -1; IsEnabled: true; IsPassword: false; IsChecked: false; IsFullScreen: false; Scrollable: false; BeforeText: null; FromIndex: -1; ToIndex: -1; ScrollX: -1; ScrollY: -1; MaxScrollX: -1; MaxScrollY: -1; AddedCount: -1; RemovedCount: -1; ParcelableData: null ]'
p27
sS'MovementGranularity'
p28
g6
sa(dp29
S'EventTime'
p30
S'350993685'
p31
sg4
L1449728496437L
sS'recordCount'
p32
g6
sS'EventType'
p33
S'TYPE_WINDOW_STATE_CHANGED'
p34
sS'PackageName'
p35
S'com.xdf.ucan'
p36
sS'OutBounds'
p37
S'Rect(0, 0 - 480, 800)'
p38
sS'Action'
p39
S'[ ClassName: com.xdf.ucan.splash.SplashActivity; Text: [\xe4\xbc\x98\xe6\x92\xad\xe8\xaf\xbe]; ContentDescription: null; ItemCount: -1; CurrentItemIndex: -1; IsEnabled: true; IsPassword: false; IsChecked: false; IsFullScreen: true; Scrollable: false; BeforeText: null; FromIndex: -1; ToIndex: -1; ScrollX: -1; ScrollY: -1; MaxScrollX: -1; MaxScrollY: -1; AddedCount: -1; RemovedCount: -1; ParcelableData: null ]'
p40
sS'MovementGranularity'
p41
g6
sa(dp42
S'EventTime'
p43
S'350993835'
p44
sg4
L1449728496465L
sS'recordCount'
p45
g6
sS'EventType'
p46
S'TYPE_WINDOW_CONTENT_CHANGED'
p47
sS'PackageName'
p48
S'com.xdf.ucan'
p49
sS'OutBounds'
p50
S'Rect(0, 0 - 480, 800)'
p51
sS'Action'
p52
S'[ ClassName: android.widget.FrameLayout; Text: []; ContentDescription: null; ItemCount: -1; CurrentItemIndex: -1; IsEnabled: true; IsPassword: false; IsChecked: false; IsFullScreen: false; Scrollable: false; BeforeText: null; FromIndex: -1; ToIndex: -1; ScrollX: -1; ScrollY: -1; MaxScrollX: -1; MaxScrollY: -1; AddedCount: -1; RemovedCount: -1; ParcelableData: null ]'
p53
sS'MovementGranularity'
p54
g6
sa(dp55
S'EventTime'
p56
S'350995802'
p57
sg4
L1449728498412L
sS'recordCount'
p58
g6
sS'EventType'
p59
S'TYPE_VIEW_CLICKED'
p60
sS'PackageName'
p61
S'com.xdf.ucan'
p62
sS'OutBounds'
p63
S'Rect(378, 36 - 444, 102)'
p64
sS'Action'
p65
S'[ ClassName: android.widget.ImageView; Text: []; ContentDescription: null; ItemCount: -1; CurrentItemIndex: -1; IsEnabled: true; IsPassword: false; IsChecked: false; IsFullScreen: false; Scrollable: false; BeforeText: null; FromIndex: -1; ToIndex: -1; ScrollX: -1; ScrollY: -1; MaxScrollX: -1; MaxScrollY: -1; AddedCount: -1; RemovedCount: -1; ParcelableData: null ]'
p66
sS'MovementGranularity'
p67
g6
sa(dp68
S'EventTime'
p69
S'350996981'
p70
sg4
L1449728499611L
sS'recordCount'
p71
g6
sS'EventType'
p72
S'TYPE_WINDOW_STATE_CHANGED'
p73
sS'PackageName'
p74
S'com.xdf.ucan'
p75
sS'OutBounds'
p76
S'Rect(0, 0 - 480, 800)'
p77
sS'Action'
p78
S'[ ClassName: com.xdf.ucan.ui.login.LoginActivity; Text: [\xe4\xbc\x98\xe6\x92\xad\xe8\xaf\xbe]; ContentDescription: null; ItemCount: -1; CurrentItemIndex: -1; IsEnabled: true; IsPassword: false; IsChecked: false; IsFullScreen: true; Scrollable: false; BeforeText: null; FromIndex: -1; ToIndex: -1; ScrollX: -1; ScrollY: -1; MaxScrollX: -1; MaxScrollY: -1; AddedCount: -1; RemovedCount: -1; ParcelableData: null ]'
p79
sS'MovementGranularity'
p80
g6
sa(dp81
S'EventTime'
p82
S'350997102'
p83
sg4
L1449728499720L
sS'recordCount'
p84
g6
sS'EventType'
p85
S'TYPE_WINDOW_CONTENT_CHANGED'
p86
sS'PackageName'
p87
S'com.xdf.ucan'
p88
sS'OutBounds'
p89
S'Rect(0, 0 - 480, 800)'
p90
sS'Action'
p91
S'[ ClassName: android.widget.FrameLayout; Text: []; ContentDescription: null; ItemCount: -1; CurrentItemIndex: -1; IsEnabled: true; IsPassword: false; IsChecked: false; IsFullScreen: false; Scrollable: false; BeforeText: null; FromIndex: -1; ToIndex: -1; ScrollX: -1; ScrollY: -1; MaxScrollX: -1; MaxScrollY: -1; AddedCount: -1; RemovedCount: -1; ParcelableData: null ]'
p92
sS'MovementGranularity'
p93
g6
sa(dp94
S'EventTime'
p95
S'350998713'
p96
sg4
L1449728501328L
sS'recordCount'
p97
g6
sS'EventType'
p98
S'TYPE_VIEW_CLICKED'
p99
sS'PackageName'
p100
S'com.xdf.ucan'
p101
sS'OutBounds'
p102
S'Rect(45, 355 - 435, 428)'
p103
sS'Action'
p104
S'[ ClassName: android.widget.EditText; Text: [\xe8\xaf\xb7\xe8\xbe\x93\xe5\x85\xa5\xe6\x89\x8b\xe6\x9c\xba\xe5\x8f\xb7]; ContentDescription: null; ItemCount: -1; CurrentItemIndex: -1; IsEnabled: true; IsPassword: false; IsChecked: false; IsFullScreen: false; Scrollable: false; BeforeText: null; FromIndex: -1; ToIndex: -1; ScrollX: -1; ScrollY: -1; MaxScrollX: -1; MaxScrollY: -1; AddedCount: -1; RemovedCount: -1; ParcelableData: null ]'
p105
sS'MovementGranularity'
p106
g6
sa(dp107
S'EventTime'
p108
S'351002281'
p109
sg4
L1449728504900L
sS'recordCount'
p110
g6
sS'EventType'
p111
S'TYPE_VIEW_TEXT_CHANGED'
p112
sS'PackageName'
p113
S'com.xdf.ucan'
p114
sS'OutBounds'
p115
S'Rect(45, 355 - 435, 428)'
p116
sS'Action'
p117
S'[ ClassName: android.widget.EditText; Text: [1]; ContentDescription: null; ItemCount: -1; CurrentItemIndex: -1; IsEnabled: true; IsPassword: false; IsChecked: false; IsFullScreen: false; Scrollable: false; BeforeText: ; FromIndex: 0; ToIndex: -1; ScrollX: -1; ScrollY: -1; MaxScrollX: -1; MaxScrollY: -1; AddedCount: 1; RemovedCount: 0; ParcelableData: null ]'
p118
sS'MovementGranularity'
p119
g6
sa(dp120
S'EventTime'
p121
S'351002284'
p122
sg4
L1449728504907L
sS'recordCount'
p123
g6
sS'EventType'
p124
S'TYPE_VIEW_TEXT_SELECTION_CHANGED'
p125
sS'PackageName'
p126
S'com.xdf.ucan'
p127
sS'OutBounds'
p128
S'Rect(45, 355 - 435, 428)'
p129
sS'Action'
p130
S'[ ClassName: android.widget.EditText; Text: [1]; ContentDescription: null; ItemCount: 1; CurrentItemIndex: -1; IsEnabled: true; IsPassword: false; IsChecked: false; IsFullScreen: false; Scrollable: false; BeforeText: null; FromIndex: 1; ToIndex: 1; ScrollX: -1; ScrollY: -1; MaxScrollX: -1; MaxScrollY: -1; AddedCount: -1; RemovedCount: -1; ParcelableData: null ]'
p131
sS'MovementGranularity'
p132
g6
sa(dp133
S'EventTime'
p134
S'351002391'
p135
sg4
L1449728505014L
sS'recordCount'
p136
g6
sS'EventType'
p137
S'TYPE_WINDOW_CONTENT_CHANGED'
p138
sS'PackageName'
p139
S'com.xdf.ucan'
p140
sS'OutBounds'
p141
S'Rect(0, 0 - 480, 800)'
p142
sS'Action'
p143
S'[ ClassName: android.widget.FrameLayout; Text: []; ContentDescription: null; ItemCount: -1; CurrentItemIndex: -1; IsEnabled: true; IsPassword: false; IsChecked: false; IsFullScreen: false; Scrollable: false; BeforeText: null; FromIndex: -1; ToIndex: -1; ScrollX: -1; ScrollY: -1; MaxScrollX: -1; MaxScrollY: -1; AddedCount: -1; RemovedCount: -1; ParcelableData: null ]'
p144
sS'MovementGranularity'
p145
g6
sa(dp146
S'EventTime'
p147
S'351002527'
p148
sg4
L1449728505142L
sS'recordCount'
p149
g6
sS'EventType'
p150
S'TYPE_VIEW_TEXT_CHANGED'
p151
sS'PackageName'
p152
S'com.xdf.ucan'
p153
sS'OutBounds'
p154
S'Rect(45, 355 - 435, 428)'
p155
sS'Action'
p156
S'[ ClassName: android.widget.EditText; Text: [13]; ContentDescription: null; ItemCount: -1; CurrentItemIndex: -1; IsEnabled: true; IsPassword: false; IsChecked: false; IsFullScreen: false; Scrollable: false; BeforeText: 1; FromIndex: 1; ToIndex: -1; ScrollX: -1; ScrollY: -1; MaxScrollX: -1; MaxScrollY: -1; AddedCount: 1; RemovedCount: 0; ParcelableData: null ]'
p157
sS'MovementGranularity'
p158
g6
sa(dp159
S'EventTime'
p160
S'351002530'
p161
sg4
L1449728505149L
sS'recordCount'
p162
g6
sS'EventType'
p163
S'TYPE_VIEW_TEXT_SELECTION_CHANGED'
p164
sS'PackageName'
p165
S'com.xdf.ucan'
p166
sS'OutBounds'
p167
S'Rect(45, 355 - 435, 428)'
p168
sS'Action'
p169
S'[ ClassName: android.widget.EditText; Text: [13]; ContentDescription: null; ItemCount: 2; CurrentItemIndex: -1; IsEnabled: true; IsPassword: false; IsChecked: false; IsFullScreen: false; Scrollable: false; BeforeText: null; FromIndex: 2; ToIndex: 2; ScrollX: -1; ScrollY: -1; MaxScrollX: -1; MaxScrollY: -1; AddedCount: -1; RemovedCount: -1; ParcelableData: null ]'
p170
sS'MovementGranularity'
p171
g6
sa(dp172
S'EventTime'
p173
S'351002640'
p174
sg4
L1449728505256L
sS'recordCount'
p175
g6
sS'EventType'
p176
S'TYPE_WINDOW_CONTENT_CHANGED'
p177
sS'PackageName'
p178
S'com.xdf.ucan'
p179
sS'OutBounds'
p180
S'Rect(0, 0 - 480, 800)'
p181
sS'Action'
p182
S'[ ClassName: android.widget.FrameLayout; Text: []; ContentDescription: null; ItemCount: -1; CurrentItemIndex: -1; IsEnabled: true; IsPassword: false; IsChecked: false; IsFullScreen: false; Scrollable: false; BeforeText: null; FromIndex: -1; ToIndex: -1; ScrollX: -1; ScrollY: -1; MaxScrollX: -1; MaxScrollY: -1; AddedCount: -1; RemovedCount: -1; ParcelableData: null ]'
p183
sS'MovementGranularity'
p184
g6
sa(dp185
S'EventTime'
p186
S'351003482'
p187
sg4
L1449728506098L
sS'recordCount'
p188
g6
sS'EventType'
p189
S'TYPE_VIEW_TEXT_CHANGED'
p190
sS'PackageName'
p191
S'com.xdf.ucan'
p192
sS'OutBounds'
p193
S'Rect(45, 355 - 435, 428)'
p194
sS'Action'
p195
S'[ ClassName: android.widget.EditText; Text: [131]; ContentDescription: null; ItemCount: -1; CurrentItemIndex: -1; IsEnabled: true; IsPassword: false; IsChecked: false; IsFullScreen: false; Scrollable: false; BeforeText: 13; FromIndex: 2; ToIndex: -1; ScrollX: -1; ScrollY: -1; MaxScrollX: -1; MaxScrollY: -1; AddedCount: 1; RemovedCount: 0; ParcelableData: null ]'
p196
sS'MovementGranularity'
p197
g6
sa(dp198
S'EventTime'
p199
S'351003485'
p200
sg4
L1449728506106L
sS'recordCount'
p201
g6
sS'EventType'
p202
S'TYPE_VIEW_TEXT_SELECTION_CHANGED'
p203
sS'PackageName'
p204
S'com.xdf.ucan'
p205
sS'OutBounds'
p206
S'Rect(45, 355 - 435, 428)'
p207
sS'Action'
p208
S'[ ClassName: android.widget.EditText; Text: [131]; ContentDescription: null; ItemCount: 3; CurrentItemIndex: -1; IsEnabled: true; IsPassword: false; IsChecked: false; IsFullScreen: false; Scrollable: false; BeforeText: null; FromIndex: 3; ToIndex: 3; ScrollX: -1; ScrollY: -1; MaxScrollX: -1; MaxScrollY: -1; AddedCount: -1; RemovedCount: -1; ParcelableData: null ]'
p209
sS'MovementGranularity'
p210
g6
sa(dp211
S'EventTime'
p212
S'351003593'
p213
sg4
L1449728506208L
sS'recordCount'
p214
g6
sS'EventType'
p215
S'TYPE_WINDOW_CONTENT_CHANGED'
p216
sS'PackageName'
p217
S'com.xdf.ucan'
p218
sS'OutBounds'
p219
S'Rect(0, 0 - 480, 800)'
p220
sS'Action'
p221
S'[ ClassName: android.widget.FrameLayout; Text: []; ContentDescription: null; ItemCount: -1; CurrentItemIndex: -1; IsEnabled: true; IsPassword: false; IsChecked: false; IsFullScreen: false; Scrollable: false; BeforeText: null; FromIndex: -1; ToIndex: -1; ScrollX: -1; ScrollY: -1; MaxScrollX: -1; MaxScrollY: -1; AddedCount: -1; RemovedCount: -1; ParcelableData: null ]'
p222
sS'MovementGranularity'
p223
g6
sa(dp224
S'EventTime'
p225
S'351003729'
p226
sg4
L1449728506346L
sS'recordCount'
p227
g6
sS'EventType'
p228
S'TYPE_VIEW_TEXT_CHANGED'
p229
sS'PackageName'
p230
S'com.xdf.ucan'
p231
sS'OutBounds'
p232
S'Rect(45, 355 - 435, 428)'
p233
sS'Action'
p234
S'[ ClassName: android.widget.EditText; Text: [1318]; ContentDescription: null; ItemCount: -1; CurrentItemIndex: -1; IsEnabled: true; IsPassword: false; IsChecked: false; IsFullScreen: false; Scrollable: false; BeforeText: 131; FromIndex: 3; ToIndex: -1; ScrollX: -1; ScrollY: -1; MaxScrollX: -1; MaxScrollY: -1; AddedCount: 1; RemovedCount: 0; ParcelableData: null ]'
p235
sS'MovementGranularity'
p236
g6
sa(dp237
S'EventTime'
p238
S'351003731'
p239
sg4
L1449728506353L
sS'recordCount'
p240
g6
sS'EventType'
p241
S'TYPE_VIEW_TEXT_SELECTION_CHANGED'
p242
sS'PackageName'
p243
S'com.xdf.ucan'
p244
sS'OutBounds'
p245
S'Rect(45, 355 - 435, 428)'
p246
sS'Action'
p247
S'[ ClassName: android.widget.EditText; Text: [1318]; ContentDescription: null; ItemCount: 4; CurrentItemIndex: -1; IsEnabled: true; IsPassword: false; IsChecked: false; IsFullScreen: false; Scrollable: false; BeforeText: null; FromIndex: 4; ToIndex: 4; ScrollX: -1; ScrollY: -1; MaxScrollX: -1; MaxScrollY: -1; AddedCount: -1; RemovedCount: -1; ParcelableData: null ]'
p248
sS'MovementGranularity'
p249
g6
sa(dp250
S'EventTime'
p251
S'351003837'
p252
sg4
L1449728506454L
sS'recordCount'
p253
g6
sS'EventType'
p254
S'TYPE_WINDOW_CONTENT_CHANGED'
p255
sS'PackageName'
p256
S'com.xdf.ucan'
p257
sS'OutBounds'
p258
S'Rect(0, 0 - 480, 800)'
p259
sS'Action'
p260
S'[ ClassName: android.widget.FrameLayout; Text: []; ContentDescription: null; ItemCount: -1; CurrentItemIndex: -1; IsEnabled: true; IsPassword: false; IsChecked: false; IsFullScreen: false; Scrollable: false; BeforeText: null; FromIndex: -1; ToIndex: -1; ScrollX: -1; ScrollY: -1; MaxScrollX: -1; MaxScrollY: -1; AddedCount: -1; RemovedCount: -1; ParcelableData: null ]'
p261
sS'MovementGranularity'
p262
g6
sa(dp263
S'EventTime'
p264
S'351003963'
p265
sg4
L1449728506580L
sS'recordCount'
p266
g6
sS'EventType'
p267
S'TYPE_VIEW_TEXT_CHANGED'
p268
sS'PackageName'
p269
S'com.xdf.ucan'
p270
sS'OutBounds'
p271
S'Rect(45, 355 - 435, 428)'
p272
sS'Action'
p273
S'[ ClassName: android.widget.EditText; Text: [13182]; ContentDescription: null; ItemCount: -1; CurrentItemIndex: -1; IsEnabled: true; IsPassword: false; IsChecked: false; IsFullScreen: false; Scrollable: false; BeforeText: 1318; FromIndex: 4; ToIndex: -1; ScrollX: -1; ScrollY: -1; MaxScrollX: -1; MaxScrollY: -1; AddedCount: 1; RemovedCount: 0; ParcelableData: null ]'
p274
sS'MovementGranularity'
p275
g6
sa(dp276
S'EventTime'
p277
S'351003967'
p278
sg4
L1449728506587L
sS'recordCount'
p279
g6
sS'EventType'
p280
S'TYPE_VIEW_TEXT_SELECTION_CHANGED'
p281
sS'PackageName'
p282
S'com.xdf.ucan'
p283
sS'OutBounds'
p284
S'Rect(45, 355 - 435, 428)'
p285
sS'Action'
p286
S'[ ClassName: android.widget.EditText; Text: [13182]; ContentDescription: null; ItemCount: 5; CurrentItemIndex: -1; IsEnabled: true; IsPassword: false; IsChecked: false; IsFullScreen: false; Scrollable: false; BeforeText: null; FromIndex: 5; ToIndex: 5; ScrollX: -1; ScrollY: -1; MaxScrollX: -1; MaxScrollY: -1; AddedCount: -1; RemovedCount: -1; ParcelableData: null ]'
p287
sS'MovementGranularity'
p288
g6
sa(dp289
S'EventTime'
p290
S'351004071'
p291
sg4
L1449728506687L
sS'recordCount'
p292
g6
sS'EventType'
p293
S'TYPE_WINDOW_CONTENT_CHANGED'
p294
sS'PackageName'
p295
S'com.xdf.ucan'
p296
sS'OutBounds'
p297
S'Rect(0, 0 - 480, 800)'
p298
sS'Action'
p299
S'[ ClassName: android.widget.FrameLayout; Text: []; ContentDescription: null; ItemCount: -1; CurrentItemIndex: -1; IsEnabled: true; IsPassword: false; IsChecked: false; IsFullScreen: false; Scrollable: false; BeforeText: null; FromIndex: -1; ToIndex: -1; ScrollX: -1; ScrollY: -1; MaxScrollX: -1; MaxScrollY: -1; AddedCount: -1; RemovedCount: -1; ParcelableData: null ]'
p300
sS'MovementGranularity'
p301
g6
sa(dp302
S'EventTime'
p303
S'351004326'
p304
sg4
L1449728506942L
sS'recordCount'
p305
g6
sS'EventType'
p306
S'TYPE_VIEW_TEXT_CHANGED'
p307
sS'PackageName'
p308
S'com.xdf.ucan'
p309
sS'OutBounds'
p310
S'Rect(45, 355 - 435, 428)'
p311
sS'Action'
p312
S'[ ClassName: android.widget.EditText; Text: [131829]; ContentDescription: null; ItemCount: -1; CurrentItemIndex: -1; IsEnabled: true; IsPassword: false; IsChecked: false; IsFullScreen: false; Scrollable: false; BeforeText: 13182; FromIndex: 5; ToIndex: -1; ScrollX: -1; ScrollY: -1; MaxScrollX: -1; MaxScrollY: -1; AddedCount: 1; RemovedCount: 0; ParcelableData: null ]'
p313
sS'MovementGranularity'
p314
g6
sa(dp315
S'EventTime'
p316
S'351004330'
p317
sg4
L1449728506951L
sS'recordCount'
p318
g6
sS'EventType'
p319
S'TYPE_VIEW_TEXT_SELECTION_CHANGED'
p320
sS'PackageName'
p321
S'com.xdf.ucan'
p322
sS'OutBounds'
p323
S'Rect(45, 355 - 435, 428)'
p324
sS'Action'
p325
S'[ ClassName: android.widget.EditText; Text: [131829]; ContentDescription: null; ItemCount: 6; CurrentItemIndex: -1; IsEnabled: true; IsPassword: false; IsChecked: false; IsFullScreen: false; Scrollable: false; BeforeText: null; FromIndex: 6; ToIndex: 6; ScrollX: -1; ScrollY: -1; MaxScrollX: -1; MaxScrollY: -1; AddedCount: -1; RemovedCount: -1; ParcelableData: null ]'
p326
sS'MovementGranularity'
p327
g6
sa(dp328
S'EventTime'
p329
S'351004433'
p330
sg4
L1449728507051L
sS'recordCount'
p331
g6
sS'EventType'
p332
S'TYPE_WINDOW_CONTENT_CHANGED'
p333
sS'PackageName'
p334
S'com.xdf.ucan'
p335
sS'OutBounds'
p336
S'Rect(0, 0 - 480, 800)'
p337
sS'Action'
p338
S'[ ClassName: android.widget.FrameLayout; Text: []; ContentDescription: null; ItemCount: -1; CurrentItemIndex: -1; IsEnabled: true; IsPassword: false; IsChecked: false; IsFullScreen: false; Scrollable: false; BeforeText: null; FromIndex: -1; ToIndex: -1; ScrollX: -1; ScrollY: -1; MaxScrollX: -1; MaxScrollY: -1; AddedCount: -1; RemovedCount: -1; ParcelableData: null ]'
p339
sS'MovementGranularity'
p340
g6
sa(dp341
S'EventTime'
p342
S'351004585'
p343
sg4
L1449728507201L
sS'recordCount'
p344
g6
sS'EventType'
p345
S'TYPE_VIEW_TEXT_CHANGED'
p346
sS'PackageName'
p347
S'com.xdf.ucan'
p348
sS'OutBounds'
p349
S'Rect(45, 355 - 435, 428)'
p350
sS'Action'
p351
S'[ ClassName: android.widget.EditText; Text: [1318290]; ContentDescription: null; ItemCount: -1; CurrentItemIndex: -1; IsEnabled: true; IsPassword: false; IsChecked: false; IsFullScreen: false; Scrollable: false; BeforeText: 131829; FromIndex: 6; ToIndex: -1; ScrollX: -1; ScrollY: -1; MaxScrollX: -1; MaxScrollY: -1; AddedCount: 1; RemovedCount: 0; ParcelableData: null ]'
p352
sS'MovementGranularity'
p353
g6
sa(dp354
S'EventTime'
p355
S'351004589'
p356
sg4
L1449728507205L
sS'recordCount'
p357
g6
sS'EventType'
p358
S'TYPE_VIEW_TEXT_SELECTION_CHANGED'
p359
sS'PackageName'
p360
S'com.xdf.ucan'
p361
sS'OutBounds'
p362
S'Rect(45, 355 - 435, 428)'
p363
sS'Action'
p364
S'[ ClassName: android.widget.EditText; Text: [1318290]; ContentDescription: null; ItemCount: 7; CurrentItemIndex: -1; IsEnabled: true; IsPassword: false; IsChecked: false; IsFullScreen: false; Scrollable: false; BeforeText: null; FromIndex: 7; ToIndex: 7; ScrollX: -1; ScrollY: -1; MaxScrollX: -1; MaxScrollY: -1; AddedCount: -1; RemovedCount: -1; ParcelableData: null ]'
p365
sS'MovementGranularity'
p366
g6
sa(dp367
S'EventTime'
p368
S'351004698'
p369
sg4
L1449728507318L
sS'recordCount'
p370
g6
sS'EventType'
p371
S'TYPE_WINDOW_CONTENT_CHANGED'
p372
sS'PackageName'
p373
S'com.xdf.ucan'
p374
sS'OutBounds'
p375
S'Rect(0, 0 - 480, 800)'
p376
sS'Action'
p377
S'[ ClassName: android.widget.FrameLayout; Text: []; ContentDescription: null; ItemCount: -1; CurrentItemIndex: -1; IsEnabled: true; IsPassword: false; IsChecked: false; IsFullScreen: false; Scrollable: false; BeforeText: null; FromIndex: -1; ToIndex: -1; ScrollX: -1; ScrollY: -1; MaxScrollX: -1; MaxScrollY: -1; AddedCount: -1; RemovedCount: -1; ParcelableData: null ]'
p378
sS'MovementGranularity'
p379
g6
sa(dp380
S'EventTime'
p381
S'351004735'
p382
sg4
L1449728507349L
sS'recordCount'
p383
g6
sS'EventType'
p384
S'TYPE_VIEW_TEXT_CHANGED'
p385
sS'PackageName'
p386
S'com.xdf.ucan'
p387
sS'OutBounds'
p388
S'Rect(45, 355 - 435, 428)'
p389
sS'Action'
p390
S'[ ClassName: android.widget.EditText; Text: [13182900]; ContentDescription: null; ItemCount: -1; CurrentItemIndex: -1; IsEnabled: true; IsPassword: false; IsChecked: false; IsFullScreen: false; Scrollable: false; BeforeText: 1318290; FromIndex: 7; ToIndex: -1; ScrollX: -1; ScrollY: -1; MaxScrollX: -1; MaxScrollY: -1; AddedCount: 1; RemovedCount: 0; ParcelableData: null ]'
p391
sS'MovementGranularity'
p392
g6
sa(dp393
S'EventTime'
p394
S'351004740'
p395
sg4
L1449728507356L
sS'recordCount'
p396
g6
sS'EventType'
p397
S'TYPE_VIEW_TEXT_SELECTION_CHANGED'
p398
sS'PackageName'
p399
S'com.xdf.ucan'
p400
sS'OutBounds'
p401
S'Rect(45, 355 - 435, 428)'
p402
sS'Action'
p403
S'[ ClassName: android.widget.EditText; Text: [13182900]; ContentDescription: null; ItemCount: 8; CurrentItemIndex: -1; IsEnabled: true; IsPassword: false; IsChecked: false; IsFullScreen: false; Scrollable: false; BeforeText: null; FromIndex: 8; ToIndex: 8; ScrollX: -1; ScrollY: -1; MaxScrollX: -1; MaxScrollY: -1; AddedCount: -1; RemovedCount: -1; ParcelableData: null ]'
p404
sS'MovementGranularity'
p405
g6
sa(dp406
S'EventTime'
p407
S'351004846'
p408
sg4
L1449728507477L
sS'recordCount'
p409
g6
sS'EventType'
p410
S'TYPE_WINDOW_CONTENT_CHANGED'
p411
sS'PackageName'
p412
S'com.xdf.ucan'
p413
sS'OutBounds'
p414
S'Rect(0, 0 - 480, 800)'
p415
sS'Action'
p416
S'[ ClassName: android.widget.FrameLayout; Text: []; ContentDescription: null; ItemCount: -1; CurrentItemIndex: -1; IsEnabled: true; IsPassword: false; IsChecked: false; IsFullScreen: false; Scrollable: false; BeforeText: null; FromIndex: -1; ToIndex: -1; ScrollX: -1; ScrollY: -1; MaxScrollX: -1; MaxScrollY: -1; AddedCount: -1; RemovedCount: -1; ParcelableData: null ]'
p417
sS'MovementGranularity'
p418
g6
sa(dp419
S'EventTime'
p420
S'351004945'
p421
sg4
L1449728507563L
sS'recordCount'
p422
g6
sS'EventType'
p423
S'TYPE_VIEW_TEXT_CHANGED'
p424
sS'PackageName'
p425
S'com.xdf.ucan'
p426
sS'OutBounds'
p427
S'Rect(45, 355 - 435, 428)'
p428
sS'Action'
p429
S'[ ClassName: android.widget.EditText; Text: [131829008]; ContentDescription: null; ItemCount: -1; CurrentItemIndex: -1; IsEnabled: true; IsPassword: false; IsChecked: false; IsFullScreen: false; Scrollable: false; BeforeText: 13182900; FromIndex: 8; ToIndex: -1; ScrollX: -1; ScrollY: -1; MaxScrollX: -1; MaxScrollY: -1; AddedCount: 1; RemovedCount: 0; ParcelableData: null ]'
p430
sS'MovementGranularity'
p431
g6
sa(dp432
S'EventTime'
p433
S'351004954'
p434
sg4
L1449728507576L
sS'recordCount'
p435
g6
sS'EventType'
p436
S'TYPE_VIEW_TEXT_SELECTION_CHANGED'
p437
sS'PackageName'
p438
S'com.xdf.ucan'
p439
sS'OutBounds'
p440
S'Rect(45, 355 - 435, 428)'
p441
sS'Action'
p442
S'[ ClassName: android.widget.EditText; Text: [131829008]; ContentDescription: null; ItemCount: 9; CurrentItemIndex: -1; IsEnabled: true; IsPassword: false; IsChecked: false; IsFullScreen: false; Scrollable: false; BeforeText: null; FromIndex: 9; ToIndex: 9; ScrollX: -1; ScrollY: -1; MaxScrollX: -1; MaxScrollY: -1; AddedCount: -1; RemovedCount: -1; ParcelableData: null ]'
p443
sS'MovementGranularity'
p444
g6
sa(dp445
S'EventTime'
p446
S'351005067'
p447
sg4
L1449728507680L
sS'recordCount'
p448
g6
sS'EventType'
p449
S'TYPE_WINDOW_CONTENT_CHANGED'
p450
sS'PackageName'
p451
S'com.xdf.ucan'
p452
sS'OutBounds'
p453
S'Rect(0, 0 - 480, 800)'
p454
sS'Action'
p455
S'[ ClassName: android.widget.FrameLayout; Text: []; ContentDescription: null; ItemCount: -1; CurrentItemIndex: -1; IsEnabled: true; IsPassword: false; IsChecked: false; IsFullScreen: false; Scrollable: false; BeforeText: null; FromIndex: -1; ToIndex: -1; ScrollX: -1; ScrollY: -1; MaxScrollX: -1; MaxScrollY: -1; AddedCount: -1; RemovedCount: -1; ParcelableData: null ]'
p456
sS'MovementGranularity'
p457
g6
sa(dp458
S'EventTime'
p459
S'351005137'
p460
sg4
L1449728507754L
sS'recordCount'
p461
g6
sS'EventType'
p462
S'TYPE_VIEW_TEXT_CHANGED'
p463
sS'PackageName'
p464
S'com.xdf.ucan'
p465
sS'OutBounds'
p466
S'Rect(45, 355 - 435, 428)'
p467
sS'Action'
p468
S'[ ClassName: android.widget.EditText; Text: [1318290082]; ContentDescription: null; ItemCount: -1; CurrentItemIndex: -1; IsEnabled: true; IsPassword: false; IsChecked: false; IsFullScreen: false; Scrollable: false; BeforeText: 131829008; FromIndex: 9; ToIndex: -1; ScrollX: -1; ScrollY: -1; MaxScrollX: -1; MaxScrollY: -1; AddedCount: 1; RemovedCount: 0; ParcelableData: null ]'
p469
sS'MovementGranularity'
p470
g6
sa(dp471
S'EventTime'
p472
S'351005149'
p473
sg4
L1449728507764L
sS'recordCount'
p474
g6
sS'EventType'
p475
S'TYPE_VIEW_TEXT_SELECTION_CHANGED'
p476
sS'PackageName'
p477
S'com.xdf.ucan'
p478
sS'OutBounds'
p479
S'Rect(45, 355 - 435, 428)'
p480
sS'Action'
p481
S'[ ClassName: android.widget.EditText; Text: [1318290082]; ContentDescription: null; ItemCount: 10; CurrentItemIndex: -1; IsEnabled: true; IsPassword: false; IsChecked: false; IsFullScreen: false; Scrollable: false; BeforeText: null; FromIndex: 10; ToIndex: 10; ScrollX: -1; ScrollY: -1; MaxScrollX: -1; MaxScrollY: -1; AddedCount: -1; RemovedCount: -1; ParcelableData: null ]'
p482
sS'MovementGranularity'
p483
g6
sa(dp484
S'EventTime'
p485
S'351005255'
p486
sg4
L1449728507881L
sS'recordCount'
p487
g6
sS'EventType'
p488
S'TYPE_WINDOW_CONTENT_CHANGED'
p489
sS'PackageName'
p490
S'com.xdf.ucan'
p491
sS'OutBounds'
p492
S'Rect(0, 0 - 480, 800)'
p493
sS'Action'
p494
S'[ ClassName: android.widget.FrameLayout; Text: []; ContentDescription: null; ItemCount: -1; CurrentItemIndex: -1; IsEnabled: true; IsPassword: false; IsChecked: false; IsFullScreen: false; Scrollable: false; BeforeText: null; FromIndex: -1; ToIndex: -1; ScrollX: -1; ScrollY: -1; MaxScrollX: -1; MaxScrollY: -1; AddedCount: -1; RemovedCount: -1; ParcelableData: null ]'
p495
sS'MovementGranularity'
p496
g6
sa(dp497
S'EventTime'
p498
S'351005388'
p499
sg4
L1449728508004L
sS'recordCount'
p500
g6
sS'EventType'
p501
S'TYPE_VIEW_TEXT_CHANGED'
p502
sS'PackageName'
p503
S'com.xdf.ucan'
p504
sS'OutBounds'
p505
S'Rect(45, 355 - 435, 428)'
p506
sS'Action'
p507
S'[ ClassName: android.widget.EditText; Text: [13182900827]; ContentDescription: null; ItemCount: -1; CurrentItemIndex: -1; IsEnabled: true; IsPassword: false; IsChecked: false; IsFullScreen: false; Scrollable: false; BeforeText: 1318290082; FromIndex: 10; ToIndex: -1; ScrollX: -1; ScrollY: -1; MaxScrollX: -1; MaxScrollY: -1; AddedCount: 1; RemovedCount: 0; ParcelableData: null ]'
p508
sS'MovementGranularity'
p509
g6
sa(dp510
S'EventTime'
p511
S'351005400'
p512
sg4
L1449728508016L
sS'recordCount'
p513
g6
sS'EventType'
p514
S'TYPE_VIEW_TEXT_SELECTION_CHANGED'
p515
sS'PackageName'
p516
S'com.xdf.ucan'
p517
sS'OutBounds'
p518
S'Rect(45, 355 - 435, 428)'
p519
sS'Action'
p520
S'[ ClassName: android.widget.EditText; Text: [13182900827]; ContentDescription: null; ItemCount: 11; CurrentItemIndex: -1; IsEnabled: true; IsPassword: false; IsChecked: false; IsFullScreen: false; Scrollable: false; BeforeText: null; FromIndex: 11; ToIndex: 11; ScrollX: -1; ScrollY: -1; MaxScrollX: -1; MaxScrollY: -1; AddedCount: -1; RemovedCount: -1; ParcelableData: null ]'
p521
sS'MovementGranularity'
p522
g6
sa(dp523
S'EventTime'
p524
S'351005509'
p525
sg4
L1449728508126L
sS'recordCount'
p526
g6
sS'EventType'
p527
S'TYPE_WINDOW_CONTENT_CHANGED'
p528
sS'PackageName'
p529
S'com.xdf.ucan'
p530
sS'OutBounds'
p531
S'Rect(0, 0 - 480, 800)'
p532
sS'Action'
p533
S'[ ClassName: android.widget.FrameLayout; Text: []; ContentDescription: null; ItemCount: -1; CurrentItemIndex: -1; IsEnabled: true; IsPassword: false; IsChecked: false; IsFullScreen: false; Scrollable: false; BeforeText: null; FromIndex: -1; ToIndex: -1; ScrollX: -1; ScrollY: -1; MaxScrollX: -1; MaxScrollY: -1; AddedCount: -1; RemovedCount: -1; ParcelableData: null ]'
p534
sS'MovementGranularity'
p535
g6
sa(dp536
S'EventTime'
p537
S'351005794'
p538
sg4
L1449728508408L
sS'recordCount'
p539
g6
sS'EventType'
p540
S'TYPE_VIEW_FOCUSED'
p541
sS'PackageName'
p542
S'com.xdf.ucan'
p543
sS'OutBounds'
p544
S'Rect(45, 442 - 435, 515)'
p545
sS'Action'
p546
S'[ ClassName: android.widget.EditText; Text: []; ContentDescription: null; ItemCount: 3; CurrentItemIndex: 1; IsEnabled: true; IsPassword: true; IsChecked: false; IsFullScreen: false; Scrollable: false; BeforeText: null; FromIndex: -1; ToIndex: -1; ScrollX: -1; ScrollY: -1; MaxScrollX: -1; MaxScrollY: -1; AddedCount: -1; RemovedCount: -1; ParcelableData: null ]'
p547
sS'MovementGranularity'
p548
g6
sa(dp549
S'EventTime'
p550
S'351005893'
p551
sg4
L1449728508507L
sS'recordCount'
p552
g6
sS'EventType'
p553
S'TYPE_WINDOW_CONTENT_CHANGED'
p554
sS'PackageName'
p555
S'com.xdf.ucan'
p556
sS'OutBounds'
p557
S'Rect(0, 0 - 480, 800)'
p558
sS'Action'
p559
S'[ ClassName: android.widget.FrameLayout; Text: []; ContentDescription: null; ItemCount: -1; CurrentItemIndex: -1; IsEnabled: true; IsPassword: false; IsChecked: false; IsFullScreen: false; Scrollable: false; BeforeText: null; FromIndex: -1; ToIndex: -1; ScrollX: -1; ScrollY: -1; MaxScrollX: -1; MaxScrollY: -1; AddedCount: -1; RemovedCount: -1; ParcelableData: null ]'
p560
sS'MovementGranularity'
p561
g6
sa(dp562
S'EventTime'
p563
S'351006585'
p564
sg4
L1449728509197L
sS'recordCount'
p565
g6
sS'EventType'
p566
S'TYPE_VIEW_TEXT_CHANGED'
p567
sS'PackageName'
p568
S'com.xdf.ucan'
p569
sS'OutBounds'
p570
S'Rect(45, 442 - 435, 515)'
p571
sS'Action'
p572
S'[ ClassName: android.widget.EditText; Text: []; ContentDescription: null; ItemCount: -1; CurrentItemIndex: -1; IsEnabled: true; IsPassword: true; IsChecked: false; IsFullScreen: false; Scrollable: false; BeforeText: null; FromIndex: 0; ToIndex: -1; ScrollX: -1; ScrollY: -1; MaxScrollX: -1; MaxScrollY: -1; AddedCount: 1; RemovedCount: 0; ParcelableData: null ]'
p573
sS'MovementGranularity'
p574
g6
sa(dp575
S'EventTime'
p576
S'351006603'
p577
sg4
L1449728509217L
sS'recordCount'
p578
g6
sS'EventType'
p579
S'TYPE_VIEW_TEXT_SELECTION_CHANGED'
p580
sS'PackageName'
p581
S'com.xdf.ucan'
p582
sS'OutBounds'
p583
S'Rect(45, 442 - 435, 515)'
p584
sS'Action'
p585
S'[ ClassName: android.widget.EditText; Text: []; ContentDescription: null; ItemCount: 1; CurrentItemIndex: -1; IsEnabled: true; IsPassword: true; IsChecked: false; IsFullScreen: false; Scrollable: false; BeforeText: null; FromIndex: 1; ToIndex: 1; ScrollX: -1; ScrollY: -1; MaxScrollX: -1; MaxScrollY: -1; AddedCount: -1; RemovedCount: -1; ParcelableData: null ]'
p586
sS'MovementGranularity'
p587
g6
sa(dp588
S'EventTime'
p589
S'351006710'
p590
sg4
L1449728509327L
sS'recordCount'
p591
g6
sS'EventType'
p592
S'TYPE_WINDOW_CONTENT_CHANGED'
p593
sS'PackageName'
p594
S'com.xdf.ucan'
p595
sS'OutBounds'
p596
S'Rect(0, 0 - 480, 800)'
p597
sS'Action'
p598
S'[ ClassName: android.widget.FrameLayout; Text: []; ContentDescription: null; ItemCount: -1; CurrentItemIndex: -1; IsEnabled: true; IsPassword: false; IsChecked: false; IsFullScreen: false; Scrollable: false; BeforeText: null; FromIndex: -1; ToIndex: -1; ScrollX: -1; ScrollY: -1; MaxScrollX: -1; MaxScrollY: -1; AddedCount: -1; RemovedCount: -1; ParcelableData: null ]'
p599
sS'MovementGranularity'
p600
g6
sa(dp601
S'EventTime'
p602
S'351007131'
p603
sg4
L1449728509749L
sS'recordCount'
p604
g6
sS'EventType'
p605
S'TYPE_VIEW_TEXT_CHANGED'
p606
sS'PackageName'
p607
S'com.xdf.ucan'
p608
sS'OutBounds'
p609
S'Rect(45, 442 - 435, 515)'
p610
sS'Action'
p611
S'[ ClassName: android.widget.EditText; Text: []; ContentDescription: null; ItemCount: -1; CurrentItemIndex: -1; IsEnabled: true; IsPassword: true; IsChecked: false; IsFullScreen: false; Scrollable: false; BeforeText: null; FromIndex: 1; ToIndex: -1; ScrollX: -1; ScrollY: -1; MaxScrollX: -1; MaxScrollY: -1; AddedCount: 1; RemovedCount: 0; ParcelableData: null ]'
p612
sS'MovementGranularity'
p613
g6
sa(dp614
S'EventTime'
p615
S'351007134'
p616
sg4
L1449728509771L
sS'recordCount'
p617
g6
sS'EventType'
p618
S'TYPE_VIEW_TEXT_SELECTION_CHANGED'
p619
sS'PackageName'
p620
S'com.xdf.ucan'
p621
sS'OutBounds'
p622
S'Rect(45, 442 - 435, 515)'
p623
sS'Action'
p624
S'[ ClassName: android.widget.EditText; Text: []; ContentDescription: null; ItemCount: 2; CurrentItemIndex: -1; IsEnabled: true; IsPassword: true; IsChecked: false; IsFullScreen: false; Scrollable: false; BeforeText: null; FromIndex: 2; ToIndex: 2; ScrollX: -1; ScrollY: -1; MaxScrollX: -1; MaxScrollY: -1; AddedCount: -1; RemovedCount: -1; ParcelableData: null ]'
p625
sS'MovementGranularity'
p626
g6
sa(dp627
S'EventTime'
p628
S'351007241'
p629
sg4
L1449728509871L
sS'recordCount'
p630
g6
sS'EventType'
p631
S'TYPE_WINDOW_CONTENT_CHANGED'
p632
sS'PackageName'
p633
S'com.xdf.ucan'
p634
sS'OutBounds'
p635
S'Rect(0, 0 - 480, 800)'
p636
sS'Action'
p637
S'[ ClassName: android.widget.FrameLayout; Text: []; ContentDescription: null; ItemCount: -1; CurrentItemIndex: -1; IsEnabled: true; IsPassword: false; IsChecked: false; IsFullScreen: false; Scrollable: false; BeforeText: null; FromIndex: -1; ToIndex: -1; ScrollX: -1; ScrollY: -1; MaxScrollX: -1; MaxScrollY: -1; AddedCount: -1; RemovedCount: -1; ParcelableData: null ]'
p638
sS'MovementGranularity'
p639
g6
sa(dp640
S'EventTime'
p641
S'351007319'
p642
sg4
L1449728509934L
sS'recordCount'
p643
g6
sS'EventType'
p644
S'TYPE_VIEW_TEXT_CHANGED'
p645
sS'PackageName'
p646
S'com.xdf.ucan'
p647
sS'OutBounds'
p648
S'Rect(45, 442 - 435, 515)'
p649
sS'Action'
p650
S'[ ClassName: android.widget.EditText; Text: []; ContentDescription: null; ItemCount: -1; CurrentItemIndex: -1; IsEnabled: true; IsPassword: true; IsChecked: false; IsFullScreen: false; Scrollable: false; BeforeText: null; FromIndex: 2; ToIndex: -1; ScrollX: -1; ScrollY: -1; MaxScrollX: -1; MaxScrollY: -1; AddedCount: 1; RemovedCount: 0; ParcelableData: null ]'
p651
sS'MovementGranularity'
p652
g6
sa(dp653
S'EventTime'
p654
S'351007325'
p655
sg4
L1449728509940L
sS'recordCount'
p656
g6
sS'EventType'
p657
S'TYPE_VIEW_TEXT_SELECTION_CHANGED'
p658
sS'PackageName'
p659
S'com.xdf.ucan'
p660
sS'OutBounds'
p661
S'Rect(45, 442 - 435, 515)'
p662
sS'Action'
p663
S'[ ClassName: android.widget.EditText; Text: []; ContentDescription: null; ItemCount: 3; CurrentItemIndex: -1; IsEnabled: true; IsPassword: true; IsChecked: false; IsFullScreen: false; Scrollable: false; BeforeText: null; FromIndex: 3; ToIndex: 3; ScrollX: -1; ScrollY: -1; MaxScrollX: -1; MaxScrollY: -1; AddedCount: -1; RemovedCount: -1; ParcelableData: null ]'
p664
sS'MovementGranularity'
p665
g6
sa(dp666
S'EventTime'
p667
S'351007438'
p668
sg4
L1449728510056L
sS'recordCount'
p669
g6
sS'EventType'
p670
S'TYPE_WINDOW_CONTENT_CHANGED'
p671
sS'PackageName'
p672
S'com.xdf.ucan'
p673
sS'OutBounds'
p674
S'Rect(0, 0 - 480, 800)'
p675
sS'Action'
p676
S'[ ClassName: android.widget.FrameLayout; Text: []; ContentDescription: null; ItemCount: -1; CurrentItemIndex: -1; IsEnabled: true; IsPassword: false; IsChecked: false; IsFullScreen: false; Scrollable: false; BeforeText: null; FromIndex: -1; ToIndex: -1; ScrollX: -1; ScrollY: -1; MaxScrollX: -1; MaxScrollY: -1; AddedCount: -1; RemovedCount: -1; ParcelableData: null ]'
p677
sS'MovementGranularity'
p678
g6
sa(dp679
S'EventTime'
p680
S'351008966'
p681
sg4
L1449728511580L
sS'recordCount'
p682
g6
sS'EventType'
p683
S'TYPE_VIEW_TEXT_CHANGED'
p684
sS'PackageName'
p685
S'com.xdf.ucan'
p686
sS'OutBounds'
p687
S'Rect(45, 442 - 435, 515)'
p688
sS'Action'
p689
S'[ ClassName: android.widget.EditText; Text: []; ContentDescription: null; ItemCount: -1; CurrentItemIndex: -1; IsEnabled: true; IsPassword: true; IsChecked: false; IsFullScreen: false; Scrollable: false; BeforeText: null; FromIndex: 3; ToIndex: -1; ScrollX: -1; ScrollY: -1; MaxScrollX: -1; MaxScrollY: -1; AddedCount: 1; RemovedCount: 0; ParcelableData: null ]'
p690
sS'MovementGranularity'
p691
g6
sa(dp692
S'EventTime'
p693
S'351008969'
p694
sg4
L1449728511644L
sS'recordCount'
p695
g6
sS'EventType'
p696
S'TYPE_VIEW_TEXT_SELECTION_CHANGED'
p697
sS'PackageName'
p698
S'com.xdf.ucan'
p699
sS'OutBounds'
p700
S'Rect(45, 442 - 435, 515)'
p701
sS'Action'
p702
S'[ ClassName: android.widget.EditText; Text: []; ContentDescription: null; ItemCount: 4; CurrentItemIndex: -1; IsEnabled: true; IsPassword: true; IsChecked: false; IsFullScreen: false; Scrollable: false; BeforeText: null; FromIndex: 4; ToIndex: 4; ScrollX: -1; ScrollY: -1; MaxScrollX: -1; MaxScrollY: -1; AddedCount: -1; RemovedCount: -1; ParcelableData: null ]'
p703
sS'MovementGranularity'
p704
g6
sa(dp705
S'EventTime'
p706
S'351009083'
p707
sg4
L1449728511695L
sS'recordCount'
p708
g6
sS'EventType'
p709
S'TYPE_WINDOW_CONTENT_CHANGED'
p710
sS'PackageName'
p711
S'com.xdf.ucan'
p712
sS'OutBounds'
p713
S'Rect(0, 0 - 480, 800)'
p714
sS'Action'
p715
S'[ ClassName: android.widget.FrameLayout; Text: []; ContentDescription: null; ItemCount: -1; CurrentItemIndex: -1; IsEnabled: true; IsPassword: false; IsChecked: false; IsFullScreen: false; Scrollable: false; BeforeText: null; FromIndex: -1; ToIndex: -1; ScrollX: -1; ScrollY: -1; MaxScrollX: -1; MaxScrollY: -1; AddedCount: -1; RemovedCount: -1; ParcelableData: null ]'
p716
sS'MovementGranularity'
p717
g6
sa(dp718
S'EventTime'
p719
S'351009155'
p720
sg4
L1449728511772L
sS'recordCount'
p721
g6
sS'EventType'
p722
S'TYPE_VIEW_TEXT_CHANGED'
p723
sS'PackageName'
p724
S'com.xdf.ucan'
p725
sS'OutBounds'
p726
S'Rect(45, 442 - 435, 515)'
p727
sS'Action'
p728
S'[ ClassName: android.widget.EditText; Text: []; ContentDescription: null; ItemCount: -1; CurrentItemIndex: -1; IsEnabled: true; IsPassword: true; IsChecked: false; IsFullScreen: false; Scrollable: false; BeforeText: null; FromIndex: 4; ToIndex: -1; ScrollX: -1; ScrollY: -1; MaxScrollX: -1; MaxScrollY: -1; AddedCount: 1; RemovedCount: 0; ParcelableData: null ]'
p729
sS'MovementGranularity'
p730
g6
sa(dp731
S'EventTime'
p732
S'351009159'
p733
sg4
L1449728511778L
sS'recordCount'
p734
g6
sS'EventType'
p735
S'TYPE_VIEW_TEXT_SELECTION_CHANGED'
p736
sS'PackageName'
p737
S'com.xdf.ucan'
p738
sS'OutBounds'
p739
S'Rect(45, 442 - 435, 515)'
p740
sS'Action'
p741
S'[ ClassName: android.widget.EditText; Text: []; ContentDescription: null; ItemCount: 5; CurrentItemIndex: -1; IsEnabled: true; IsPassword: true; IsChecked: false; IsFullScreen: false; Scrollable: false; BeforeText: null; FromIndex: 5; ToIndex: 5; ScrollX: -1; ScrollY: -1; MaxScrollX: -1; MaxScrollY: -1; AddedCount: -1; RemovedCount: -1; ParcelableData: null ]'
p742
sS'MovementGranularity'
p743
g6
sa(dp744
S'EventTime'
p745
S'351009264'
p746
sg4
L1449728511887L
sS'recordCount'
p747
g6
sS'EventType'
p748
S'TYPE_WINDOW_CONTENT_CHANGED'
p749
sS'PackageName'
p750
S'com.xdf.ucan'
p751
sS'OutBounds'
p752
S'Rect(0, 0 - 480, 800)'
p753
sS'Action'
p754
S'[ ClassName: android.widget.FrameLayout; Text: []; ContentDescription: null; ItemCount: -1; CurrentItemIndex: -1; IsEnabled: true; IsPassword: false; IsChecked: false; IsFullScreen: false; Scrollable: false; BeforeText: null; FromIndex: -1; ToIndex: -1; ScrollX: -1; ScrollY: -1; MaxScrollX: -1; MaxScrollY: -1; AddedCount: -1; RemovedCount: -1; ParcelableData: null ]'
p755
sS'MovementGranularity'
p756
g6
sa(dp757
S'EventTime'
p758
S'351009351'
p759
sg4
L1449728511967L
sS'recordCount'
p760
g6
sS'EventType'
p761
S'TYPE_VIEW_TEXT_CHANGED'
p762
sS'PackageName'
p763
S'com.xdf.ucan'
p764
sS'OutBounds'
p765
S'Rect(45, 442 - 435, 515)'
p766
sS'Action'
p767
S'[ ClassName: android.widget.EditText; Text: []; ContentDescription: null; ItemCount: -1; CurrentItemIndex: -1; IsEnabled: true; IsPassword: true; IsChecked: false; IsFullScreen: false; Scrollable: false; BeforeText: null; FromIndex: 5; ToIndex: -1; ScrollX: -1; ScrollY: -1; MaxScrollX: -1; MaxScrollY: -1; AddedCount: 1; RemovedCount: 0; ParcelableData: null ]'
p768
sS'MovementGranularity'
p769
g6
sa(dp770
S'EventTime'
p771
S'351009356'
p772
sg4
L1449728511973L
sS'recordCount'
p773
g6
sS'EventType'
p774
S'TYPE_VIEW_TEXT_SELECTION_CHANGED'
p775
sS'PackageName'
p776
S'com.xdf.ucan'
p777
sS'OutBounds'
p778
S'Rect(45, 442 - 435, 515)'
p779
sS'Action'
p780
S'[ ClassName: android.widget.EditText; Text: []; ContentDescription: null; ItemCount: 6; CurrentItemIndex: -1; IsEnabled: true; IsPassword: true; IsChecked: false; IsFullScreen: false; Scrollable: false; BeforeText: null; FromIndex: 6; ToIndex: 6; ScrollX: -1; ScrollY: -1; MaxScrollX: -1; MaxScrollY: -1; AddedCount: -1; RemovedCount: -1; ParcelableData: null ]'
p781
sS'MovementGranularity'
p782
g6
sa(dp783
S'EventTime'
p784
S'351009464'
p785
sg4
L1449728512083L
sS'recordCount'
p786
g6
sS'EventType'
p787
S'TYPE_WINDOW_CONTENT_CHANGED'
p788
sS'PackageName'
p789
S'com.xdf.ucan'
p790
sS'OutBounds'
p791
S'Rect(0, 0 - 480, 800)'
p792
sS'Action'
p793
S'[ ClassName: android.widget.FrameLayout; Text: []; ContentDescription: null; ItemCount: -1; CurrentItemIndex: -1; IsEnabled: true; IsPassword: false; IsChecked: false; IsFullScreen: false; Scrollable: false; BeforeText: null; FromIndex: -1; ToIndex: -1; ScrollX: -1; ScrollY: -1; MaxScrollX: -1; MaxScrollY: -1; AddedCount: -1; RemovedCount: -1; ParcelableData: null ]'
p794
sS'MovementGranularity'
p795
g6
sa(dp796
S'EventTime'
p797
S'351009598'
p798
sg4
L1449728512216L
sS'recordCount'
p799
g6
sS'EventType'
p800
S'TYPE_VIEW_TEXT_CHANGED'
p801
sS'PackageName'
p802
S'com.xdf.ucan'
p803
sS'OutBounds'
p804
S'Rect(45, 442 - 435, 515)'
p805
sS'Action'
p806
S'[ ClassName: android.widget.EditText; Text: []; ContentDescription: null; ItemCount: -1; CurrentItemIndex: -1; IsEnabled: true; IsPassword: true; IsChecked: false; IsFullScreen: false; Scrollable: false; BeforeText: null; FromIndex: 6; ToIndex: -1; ScrollX: -1; ScrollY: -1; MaxScrollX: -1; MaxScrollY: -1; AddedCount: 1; RemovedCount: 0; ParcelableData: null ]'
p807
sS'MovementGranularity'
p808
g6
sa(dp809
S'EventTime'
p810
S'351009601'
p811
sg4
L1449728512224L
sS'recordCount'
p812
g6
sS'EventType'
p813
S'TYPE_VIEW_TEXT_SELECTION_CHANGED'
p814
sS'PackageName'
p815
S'com.xdf.ucan'
p816
sS'OutBounds'
p817
S'Rect(45, 442 - 435, 515)'
p818
sS'Action'
p819
S'[ ClassName: android.widget.EditText; Text: []; ContentDescription: null; ItemCount: 7; CurrentItemIndex: -1; IsEnabled: true; IsPassword: true; IsChecked: false; IsFullScreen: false; Scrollable: false; BeforeText: null; FromIndex: 7; ToIndex: 7; ScrollX: -1; ScrollY: -1; MaxScrollX: -1; MaxScrollY: -1; AddedCount: -1; RemovedCount: -1; ParcelableData: null ]'
p820
sS'MovementGranularity'
p821
g6
sa(dp822
S'EventTime'
p823
S'351009706'
p824
sg4
L1449728512327L
sS'recordCount'
p825
g6
sS'EventType'
p826
S'TYPE_WINDOW_CONTENT_CHANGED'
p827
sS'PackageName'
p828
S'com.xdf.ucan'
p829
sS'OutBounds'
p830
S'Rect(0, 0 - 480, 800)'
p831
sS'Action'
p832
S'[ ClassName: android.widget.FrameLayout; Text: []; ContentDescription: null; ItemCount: -1; CurrentItemIndex: -1; IsEnabled: true; IsPassword: false; IsChecked: false; IsFullScreen: false; Scrollable: false; BeforeText: null; FromIndex: -1; ToIndex: -1; ScrollX: -1; ScrollY: -1; MaxScrollX: -1; MaxScrollY: -1; AddedCount: -1; RemovedCount: -1; ParcelableData: null ]'
p833
sS'MovementGranularity'
p834
g6
sa(dp835
S'EventTime'
p836
S'351010228'
p837
sg4
L1449728512838L
sS'recordCount'
p838
g6
sS'EventType'
p839
S'TYPE_VIEW_CLICKED'
p840
sS'PackageName'
p841
S'com.xdf.ucan'
p842
sS'OutBounds'
p843
S'Rect(45, 536 - 435, 611)'
p844
sS'Action'
p845
S'[ ClassName: android.widget.Button; Text: [\xe7\x99\xbb\xe5\xbd\x95]; ContentDescription: null; ItemCount: -1; CurrentItemIndex: -1; IsEnabled: true; IsPassword: false; IsChecked: false; IsFullScreen: false; Scrollable: false; BeforeText: null; FromIndex: -1; ToIndex: -1; ScrollX: -1; ScrollY: -1; MaxScrollX: -1; MaxScrollY: -1; AddedCount: -1; RemovedCount: -1; ParcelableData: null ]'
p846
sS'MovementGranularity'
p847
g6
sa(dp848
S'EventTime'
p849
S'351010484'
p850
sg4
L1449728513096L
sS'recordCount'
p851
g6
sS'EventType'
p852
S'TYPE_WINDOW_STATE_CHANGED'
p853
sS'PackageName'
p854
S'com.xdf.ucan'
p855
sS'OutBounds'
p856
S'Rect(0, 38 - 480, 800)'
p857
sS'Action'
p858
S'[ ClassName: com.xdf.ucan.views.LoadingDialog; Text: []; ContentDescription: null; ItemCount: -1; CurrentItemIndex: -1; IsEnabled: true; IsPassword: false; IsChecked: false; IsFullScreen: false; Scrollable: false; BeforeText: null; FromIndex: -1; ToIndex: -1; ScrollX: -1; ScrollY: -1; MaxScrollX: -1; MaxScrollY: -1; AddedCount: -1; RemovedCount: -1; ParcelableData: null ]'
p859
sS'MovementGranularity'
p860
g6
sa(dp861
S'EventTime'
p862
S'351010543'
p863
sg4
L1449728513163L
sS'recordCount'
p864
g6
sS'EventType'
p865
S'TYPE_WINDOW_CONTENT_CHANGED'
p866
sS'PackageName'
p867
S'com.xdf.ucan'
p868
sS'OutBounds'
p869
S'Rect(0, 38 - 480, 800)'
p870
sS'Action'
p871
S'[ ClassName: android.widget.FrameLayout; Text: []; ContentDescription: null; ItemCount: -1; CurrentItemIndex: -1; IsEnabled: true; IsPassword: false; IsChecked: false; IsFullScreen: false; Scrollable: false; BeforeText: null; FromIndex: -1; ToIndex: -1; ScrollX: -1; ScrollY: -1; MaxScrollX: -1; MaxScrollY: -1; AddedCount: -1; RemovedCount: -1; ParcelableData: null ]'
p872
sS'MovementGranularity'
p873
g6
sa(dp874
S'EventTime'
p875
S'351014935'
p876
sg4
L1449728517597L
sS'recordCount'
p877
g6
sS'EventType'
p878
S'TYPE_WINDOW_STATE_CHANGED'
p879
sS'PackageName'
p880
S'com.xdf.ucan'
p881
sS'OutBounds'
p882
S'Rect(0, 0 - 480, 800)'
p883
sS'Action'
p884
S'[ ClassName: com.xdf.ucan.MainActivity; Text: [\xe4\xbc\x98\xe6\x92\xad\xe8\xaf\xbe]; ContentDescription: null; ItemCount: -1; CurrentItemIndex: -1; IsEnabled: true; IsPassword: false; IsChecked: false; IsFullScreen: true; Scrollable: false; BeforeText: null; FromIndex: -1; ToIndex: -1; ScrollX: -1; ScrollY: -1; MaxScrollX: -1; MaxScrollY: -1; AddedCount: -1; RemovedCount: -1; ParcelableData: null ]'
p885
sS'MovementGranularity'
p886
g6
sa(dp887
S'EventTime'
p888
S'351015087'
p889
sg4
L1449728517720L
sS'recordCount'
p890
g6
sS'EventType'
p891
S'TYPE_WINDOW_CONTENT_CHANGED'
p892
sS'PackageName'
p893
S'com.xdf.ucan'
p894
sS'OutBounds'
p895
S'Rect(0, 0 - 480, 800)'
p896
sS'Action'
p897
S'[ ClassName: android.widget.FrameLayout; Text: []; ContentDescription: null; ItemCount: -1; CurrentItemIndex: -1; IsEnabled: true; IsPassword: false; IsChecked: false; IsFullScreen: false; Scrollable: false; BeforeText: null; FromIndex: -1; ToIndex: -1; ScrollX: -1; ScrollY: -1; MaxScrollX: -1; MaxScrollY: -1; AddedCount: -1; RemovedCount: -1; ParcelableData: null ]'
p898
sS'MovementGranularity'
p899
g6
sa(dp900
S'EventTime'
p901
S'351016354'
p902
sg4
L1449728518994L
sS'recordCount'
p903
g6
sS'EventType'
p904
S'TYPE_WINDOW_CONTENT_CHANGED'
p905
sS'PackageName'
p906
S'com.xdf.ucan'
p907
sS'OutBounds'
p908
S'Rect(0, 0 - 480, 800)'
p909
sS'Action'
p910
S'[ ClassName: android.widget.FrameLayout; Text: []; ContentDescription: null; ItemCount: -1; CurrentItemIndex: -1; IsEnabled: true; IsPassword: false; IsChecked: false; IsFullScreen: false; Scrollable: false; BeforeText: null; FromIndex: -1; ToIndex: -1; ScrollX: -1; ScrollY: -1; MaxScrollX: -1; MaxScrollY: -1; AddedCount: -1; RemovedCount: -1; ParcelableData: null ]'
p911
sS'MovementGranularity'
p912
g6
sa(dp913
S'EventTime'
p914
S'351024344'
p915
sg4
L1449728526955L
sS'recordCount'
p916
g6
sS'EventType'
p917
S'TYPE_VIEW_CLICKED'
p918
sS'PackageName'
p919
S'com.xdf.ucan'
p920
sS'OutBounds'
p921
S'Rect(0, 392 - 480, 488)'
p922
sS'Action'
p923
S'[ ClassName: android.widget.RelativeLayout; Text: [13, \xe8\xa7\x86\xe9\xa2\x91, 20\xe5\xa4\xa9\xe5\x89\x8d, \xe7\x9c\x8b\xe7\x94\xb5\xe5\xbd\xb1\xe5\xad\xa6\xe8\x8b\xb1\xe8\xaf\xad\xe4\xb9\x8b\xe6\x8e\xa2\xe9\x99\xa9\xe7\xaf\x87-journey.2-2]; ContentDescription: null; ItemCount: -1; CurrentItemIndex: -1; IsEnabled: true; IsPassword: false; IsChecked: false; IsFullScreen: false; Scrollable: false; BeforeText: null; FromIndex: -1; ToIndex: -1; ScrollX: -1; ScrollY: -1; MaxScrollX: -1; MaxScrollY: -1; AddedCount: -1; RemovedCount: -1; ParcelableData: null ]'
p924
sS'MovementGranularity'
p925
g6
sa(dp926
S'EventTime'
p927
S'351025069'
p928
sg4
L1449728527728L
sS'recordCount'
p929
g6
sS'EventType'
p930
S'TYPE_WINDOW_STATE_CHANGED'
p931
sS'PackageName'
p932
S'com.xdf.ucan'
p933
sS'OutBounds'
p934
S'Rect(0, 38 - 480, 800)'
p935
sS'Action'
p936
S'[ ClassName: com.xdf.ucan.views.LoadingDialog; Text: []; ContentDescription: null; ItemCount: -1; CurrentItemIndex: -1; IsEnabled: true; IsPassword: false; IsChecked: false; IsFullScreen: false; Scrollable: false; BeforeText: null; FromIndex: -1; ToIndex: -1; ScrollX: -1; ScrollY: -1; MaxScrollX: -1; MaxScrollY: -1; AddedCount: -1; RemovedCount: -1; ParcelableData: null ]'
p937
sS'MovementGranularity'
p938
g6
sa(dp939
S'EventTime'
p940
S'351025071'
p941
sg4
L1449728527883L
sS'recordCount'
p942
g6
sS'EventType'
p943
S'TYPE_WINDOW_CONTENT_CHANGED'
p944
sS'PackageName'
p945
S'com.xdf.ucan'
p946
sS'OutBounds'
p947
S'Rect(0, 38 - 480, 800)'
p948
sS'Action'
p949
S'[ ClassName: android.widget.FrameLayout; Text: []; ContentDescription: null; ItemCount: -1; CurrentItemIndex: -1; IsEnabled: true; IsPassword: false; IsChecked: false; IsFullScreen: false; Scrollable: false; BeforeText: null; FromIndex: -1; ToIndex: -1; ScrollX: -1; ScrollY: -1; MaxScrollX: -1; MaxScrollY: -1; AddedCount: -1; RemovedCount: -1; ParcelableData: null ]'
p950
sS'MovementGranularity'
p951
g6
sa(dp952
S'EventTime'
p953
S'351025219'
p954
sg4
L1449728527912L
sS'recordCount'
p955
g6
sS'EventType'
p956
S'TYPE_WINDOW_CONTENT_CHANGED'
p957
sS'PackageName'
p958
S'com.xdf.ucan'
p959
sS'OutBounds'
p960
S'Rect(0, 38 - 480, 800)'
p961
sS'Action'
p962
S'[ ClassName: android.widget.FrameLayout; Text: []; ContentDescription: null; ItemCount: -1; CurrentItemIndex: -1; IsEnabled: true; IsPassword: false; IsChecked: false; IsFullScreen: false; Scrollable: false; BeforeText: null; FromIndex: -1; ToIndex: -1; ScrollX: -1; ScrollY: -1; MaxScrollX: -1; MaxScrollY: -1; AddedCount: -1; RemovedCount: -1; ParcelableData: null ]'
p963
sS'MovementGranularity'
p964
g6
sa(dp965
S'EventTime'
p966
S'351029914'
p967
sg4
L1449728532674L
sS'recordCount'
p968
g6
sS'EventType'
p969
S'TYPE_WINDOW_STATE_CHANGED'
p970
sS'PackageName'
p971
S'com.xdf.ucan'
p972
sS'OutBounds'
p973
S'Rect(0, 0 - 480, 800)'
p974
sS'Action'
p975
S'[ ClassName: com.xdf.ucan.ui.video.VideoListActivity; Text: [\xe4\xbc\x98\xe6\x92\xad\xe8\xaf\xbe]; ContentDescription: null; ItemCount: -1; CurrentItemIndex: -1; IsEnabled: true; IsPassword: false; IsChecked: false; IsFullScreen: true; Scrollable: false; BeforeText: null; FromIndex: -1; ToIndex: -1; ScrollX: -1; ScrollY: -1; MaxScrollX: -1; MaxScrollY: -1; AddedCount: -1; RemovedCount: -1; ParcelableData: null ]'
p976
sS'MovementGranularity'
p977
g6
sa(dp978
S'EventTime'
p979
S'351030006'
p980
sg4
L1449728532840L
sS'recordCount'
p981
g6
sS'EventType'
p982
S'TYPE_VIEW_SCROLLED'
p983
sS'PackageName'
p984
S'com.xdf.ucan'
p985
sS'OutBounds'
p986
S'Rect(0, 104 - 480, 800)'
p987
sS'Action'
p988
S'[ ClassName: android.widget.ListView; Text: []; ContentDescription: null; ItemCount: 13; CurrentItemIndex: -1; IsEnabled: true; IsPassword: false; IsChecked: false; IsFullScreen: false; Scrollable: true; BeforeText: null; FromIndex: 0; ToIndex: 4; ScrollX: -1; ScrollY: -1; MaxScrollX: -1; MaxScrollY: -1; AddedCount: -1; RemovedCount: -1; ParcelableData: null ]'
p989
sS'MovementGranularity'
p990
g6
sa(dp991
S'EventTime'
p992
S'351030008'
p993
sg4
L1449728532901L
sS'recordCount'
p994
g6
sS'EventType'
p995
S'TYPE_WINDOW_CONTENT_CHANGED'
p996
sS'PackageName'
p997
S'com.xdf.ucan'
p998
sS'OutBounds'
p999
S'Rect(0, 0 - 480, 800)'
p1000
sS'Action'
p1001
S'[ ClassName: android.widget.FrameLayout; Text: []; ContentDescription: null; ItemCount: -1; CurrentItemIndex: -1; IsEnabled: true; IsPassword: false; IsChecked: false; IsFullScreen: false; Scrollable: false; BeforeText: null; FromIndex: -1; ToIndex: -1; ScrollX: -1; ScrollY: -1; MaxScrollX: -1; MaxScrollY: -1; AddedCount: -1; RemovedCount: -1; ParcelableData: null ]'
p1002
sS'MovementGranularity'
p1003
g6
sa(dp1004
S'EventTime'
p1005
S'351030260'
p1006
sg4
L1449728532956L
sS'recordCount'
p1007
g6
sS'EventType'
p1008
S'TYPE_WINDOW_CONTENT_CHANGED'
p1009
sS'PackageName'
p1010
S'com.xdf.ucan'
p1011
sS'OutBounds'
p1012
S'Rect(0, 0 - 480, 800)'
p1013
sS'Action'
p1014
S'[ ClassName: android.widget.FrameLayout; Text: []; ContentDescription: null; ItemCount: -1; CurrentItemIndex: -1; IsEnabled: true; IsPassword: false; IsChecked: false; IsFullScreen: false; Scrollable: false; BeforeText: null; FromIndex: -1; ToIndex: -1; ScrollX: -1; ScrollY: -1; MaxScrollX: -1; MaxScrollY: -1; AddedCount: -1; RemovedCount: -1; ParcelableData: null ]'
p1015
sS'MovementGranularity'
p1016
g6
sa(dp1017
S'EventTime'
p1018
S'351030682'
p1019
sg4
L1449728533362L
sS'recordCount'
p1020
g6
sS'EventType'
p1021
S'TYPE_WINDOW_CONTENT_CHANGED'
p1022
sS'PackageName'
p1023
S'com.xdf.ucan'
p1024
sS'OutBounds'
p1025
S'Rect(0, 0 - 480, 800)'
p1026
sS'Action'
p1027
S'[ ClassName: android.widget.FrameLayout; Text: []; ContentDescription: null; ItemCount: -1; CurrentItemIndex: -1; IsEnabled: true; IsPassword: false; IsChecked: false; IsFullScreen: false; Scrollable: false; BeforeText: null; FromIndex: -1; ToIndex: -1; ScrollX: -1; ScrollY: -1; MaxScrollX: -1; MaxScrollY: -1; AddedCount: -1; RemovedCount: -1; ParcelableData: null ]'
p1028
sS'MovementGranularity'
p1029
g6
sa(dp1030
S'EventTime'
p1031
S'351031009'
p1032
sg4
L1449728533691L
sS'recordCount'
p1033
g6
sS'EventType'
p1034
S'TYPE_WINDOW_CONTENT_CHANGED'
p1035
sS'PackageName'
p1036
S'com.xdf.ucan'
p1037
sS'OutBounds'
p1038
S'Rect(0, 0 - 480, 800)'
p1039
sS'Action'
p1040
S'[ ClassName: android.widget.FrameLayout; Text: []; ContentDescription: null; ItemCount: -1; CurrentItemIndex: -1; IsEnabled: true; IsPassword: false; IsChecked: false; IsFullScreen: false; Scrollable: false; BeforeText: null; FromIndex: -1; ToIndex: -1; ScrollX: -1; ScrollY: -1; MaxScrollX: -1; MaxScrollY: -1; AddedCount: -1; RemovedCount: -1; ParcelableData: null ]'
p1041
sS'MovementGranularity'
p1042
g6
sa(dp1043
S'EventTime'
p1044
S'351054907'
p1045
sg4
L1449728557518L
sS'recordCount'
p1046
S'1'
p1047
sS'EventType'
p1048
S'TYPE_VIEW_CLICKED'
p1049
sS'PackageName'
p1050
S'com.xdf.ucan'
p1051
sS'OutBounds'
p1052
S'Rect(15, 203 - 465, 346)'
p1053
sS'Action'
p1054
S'[ ClassName: android.widget.LinearLayout; Text: [\xe7\x9c\x8b\xe7\x94\xb5\xe5\xbd\xb1\xe5\xad\xa6\xe8\x8b\xb1\xe8\xaf\xad\xe4\xb9\x8b\xe6\x8e\xa2\xe9\x99\xa9\xe7\xaf\x87-journey.2-2, \xe4\xbc\x98\xe6\x89\x8d, \xe4\xbc\x98\xe6\x89\x8d\xe8\xae\xa1\xe5\x88\x92, \xe3\x80\x90\xe8\xae\xa2\xe9\x98\x85\xe3\x80\x91\xe8\xa7\x82\xe7\x9c\x8b551\xe6\xac\xa1]; ContentDescription: null; ItemCount: -1; CurrentItemIndex: -1; IsEnabled: true; IsPassword: false; IsChecked: false; IsFullScreen: false; Scrollable: false; BeforeText: null; FromIndex: -1; ToIndex: -1; ScrollX: -1; ScrollY: -1; MaxScrollX: -1; MaxScrollY: -1; AddedCount: -1; RemovedCount: -1; ParcelableData: null ]'
p1055
sS'MovementGranularity'
p1056
g6
sa(dp1057
S'EventTime'
p1058
S'351055809'
p1059
sg4
L1449728559506L
sS'recordCount'
p1060
g6
sS'EventType'
p1061
S'TYPE_WINDOW_CONTENT_CHANGED'
p1062
sS'PackageName'
p1063
S'com.xdf.ucan'
p1064
sS'OutBounds'
p1065
S'Rect(0, 0 - 480, 800)'
p1066
sS'Action'
p1067
S'[ ClassName: android.widget.FrameLayout; Text: []; ContentDescription: null; ItemCount: -1; CurrentItemIndex: -1; IsEnabled: true; IsPassword: false; IsChecked: false; IsFullScreen: false; Scrollable: false; BeforeText: null; FromIndex: -1; ToIndex: -1; ScrollX: -1; ScrollY: -1; MaxScrollX: -1; MaxScrollY: -1; AddedCount: -1; RemovedCount: -1; ParcelableData: null ]'
p1068
sS'MovementGranularity'
p1069
g6
sa(dp1070
S'EventTime'
p1071
S'351055934'
p1072
sg4
L1449728559650L
sS'recordCount'
p1073
g6
sS'EventType'
p1074
S'TYPE_WINDOW_STATE_CHANGED'
p1075
sS'PackageName'
p1076
S'com.xdf.ucan'
p1077
sS'OutBounds'
p1078
S'Rect(0, 0 - 480, 800)'
p1079
sS'Action'
p1080
S'[ ClassName: com.xdf.ucan.ui.video.VideoPlayerActivity; Text: [\xe4\xbc\x98\xe6\x92\xad\xe8\xaf\xbe]; ContentDescription: null; ItemCount: -1; CurrentItemIndex: -1; IsEnabled: true; IsPassword: false; IsChecked: false; IsFullScreen: true; Scrollable: false; BeforeText: null; FromIndex: -1; ToIndex: -1; ScrollX: -1; ScrollY: -1; MaxScrollX: -1; MaxScrollY: -1; AddedCount: -1; RemovedCount: -1; ParcelableData: null ]'
p1081
sS'MovementGranularity'
p1082
g6
sa(dp1083
S'EventTime'
p1084
S'351056917'
p1085
sg4
L1449728559682L
sS'recordCount'
p1086
g6
sS'EventType'
p1087
S'TYPE_VIEW_SELECTED'
p1088
sS'PackageName'
p1089
S'com.xdf.ucan'
p1090
sS'OutBounds'
p1091
S'Rect(75, 375 - 421, 398)'
p1092
sS'Action'
p1093
S'[ ClassName: android.widget.SeekBar; Text: []; ContentDescription: null; ItemCount: 100; CurrentItemIndex: 20; IsEnabled: true; IsPassword: false; IsChecked: false; IsFullScreen: false; Scrollable: false; BeforeText: null; FromIndex: -1; ToIndex: -1; ScrollX: -1; ScrollY: -1; MaxScrollX: -1; MaxScrollY: -1; AddedCount: -1; RemovedCount: -1; ParcelableData: null ]'
p1094
sS'MovementGranularity'
p1095
g6
sa(dp1096
S'EventTime'
p1097
S'351056990'
p1098
sg4
L1449728559768L
sS'recordCount'
p1099
g6
sS'EventType'
p1100
S'TYPE_WINDOW_CONTENT_CHANGED'
p1101
sS'PackageName'
p1102
S'com.xdf.ucan'
p1103
sS'OutBounds'
p1104
S'Rect(0, 0 - 480, 800)'
p1105
sS'Action'
p1106
S'[ ClassName: android.widget.FrameLayout; Text: []; ContentDescription: null; ItemCount: -1; CurrentItemIndex: -1; IsEnabled: true; IsPassword: false; IsChecked: false; IsFullScreen: false; Scrollable: false; BeforeText: null; FromIndex: -1; ToIndex: -1; ScrollX: -1; ScrollY: -1; MaxScrollX: -1; MaxScrollY: -1; AddedCount: -1; RemovedCount: -1; ParcelableData: null ]'
p1107
sS'MovementGranularity'
p1108
g6
sa(dp1109
S'EventTime'
p1110
S'351057095'
p1111
sg4
L1449728559836L
sS'recordCount'
p1112
g6
sS'EventType'
p1113
S'TYPE_VIEW_SCROLLED'
p1114
sS'PackageName'
p1115
S'com.xdf.ucan'
p1116
sS'OutBounds'
p1117
S'Rect(0, 416 - 480, 722)'
p1118
sS'Action'
p1119
S'[ ClassName: android.widget.ListView; Text: []; ContentDescription: null; ItemCount: 3; CurrentItemIndex: -1; IsEnabled: true; IsPassword: false; IsChecked: false; IsFullScreen: false; Scrollable: true; BeforeText: null; FromIndex: 0; ToIndex: 1; ScrollX: -1; ScrollY: -1; MaxScrollX: -1; MaxScrollY: -1; AddedCount: -1; RemovedCount: -1; ParcelableData: null ]'
p1120
sS'MovementGranularity'
p1121
g6
sa(dp1122
S'EventTime'
p1123
S'351058974'
p1124
sg4
L1449728561626L
sS'recordCount'
p1125
g6
sS'EventType'
p1126
S'TYPE_WINDOW_CONTENT_CHANGED'
p1127
sS'PackageName'
p1128
S'com.xdf.ucan'
p1129
sS'OutBounds'
p1130
S'Rect(0, 0 - 480, 800)'
p1131
sS'Action'
p1132
S'[ ClassName: android.widget.FrameLayout; Text: []; ContentDescription: null; ItemCount: -1; CurrentItemIndex: -1; IsEnabled: true; IsPassword: false; IsChecked: false; IsFullScreen: false; Scrollable: false; BeforeText: null; FromIndex: -1; ToIndex: -1; ScrollX: -1; ScrollY: -1; MaxScrollX: -1; MaxScrollY: -1; AddedCount: -1; RemovedCount: -1; ParcelableData: null ]'
p1133
sS'MovementGranularity'
p1134
g6
sa(dp1135
S'EventTime'
p1136
S'351065870'
p1137
sg4
L1449728568481L
sS'recordCount'
p1138
g6
sS'EventType'
p1139
S'TYPE_VIEW_CLICKED'
p1140
sS'PackageName'
p1141
S'com.xdf.ucan'
p1142
sS'OutBounds'
p1143
S'Rect(15, 38 - 91, 104)'
p1144
sS'Action'
p1145
S'[ ClassName: android.widget.TextView; Text: [\xe8\xbf\x94\xe5\x9b\x9e]; ContentDescription: null; ItemCount: -1; CurrentItemIndex: -1; IsEnabled: true; IsPassword: false; IsChecked: false; IsFullScreen: false; Scrollable: false; BeforeText: null; FromIndex: -1; ToIndex: -1; ScrollX: -1; ScrollY: -1; MaxScrollX: -1; MaxScrollY: -1; AddedCount: -1; RemovedCount: -1; ParcelableData: null ]'
p1146
sS'MovementGranularity'
p1147
g6
sa(dp1148
S'EventTime'
p1149
S'351065994'
p1150
sg4
L1449728568674L
sS'recordCount'
p1151
g6
sS'EventType'
p1152
S'TYPE_WINDOW_STATE_CHANGED'
p1153
sS'PackageName'
p1154
S'com.xdf.ucan'
p1155
sS'OutBounds'
p1156
S'Rect(0, 0 - 480, 800)'
p1157
sS'Action'
p1158
S'[ ClassName: com.xdf.ucan.ui.video.VideoListActivity; Text: [\xe4\xbc\x98\xe6\x92\xad\xe8\xaf\xbe]; ContentDescription: null; ItemCount: -1; CurrentItemIndex: -1; IsEnabled: true; IsPassword: false; IsChecked: false; IsFullScreen: true; Scrollable: false; BeforeText: null; FromIndex: -1; ToIndex: -1; ScrollX: -1; ScrollY: -1; MaxScrollX: -1; MaxScrollY: -1; AddedCount: -1; RemovedCount: -1; ParcelableData: null ]'
p1159
sS'MovementGranularity'
p1160
g6
sa(dp1161
S'EventTime'
p1162
S'351067980'
p1163
sg4
L1449728570853L
sS'recordCount'
p1164
g6
sS'EventType'
p1165
S'TYPE_VIEW_SCROLLED'
p1166
sS'PackageName'
p1167
S'com.xdf.ucan'
p1168
sS'OutBounds'
p1169
S'Rect(0, 104 - 480, 800)'
p1170
sS'Action'
p1171
S'[ ClassName: android.widget.ListView; Text: []; ContentDescription: null; ItemCount: 13; CurrentItemIndex: -1; IsEnabled: true; IsPassword: false; IsChecked: false; IsFullScreen: false; Scrollable: true; BeforeText: null; FromIndex: 4; ToIndex: 7; ScrollX: -1; ScrollY: -1; MaxScrollX: -1; MaxScrollY: -1; AddedCount: -1; RemovedCount: -1; ParcelableData: null ]'
p1172
sS'MovementGranularity'
p1173
g6
sa(dp1174
S'EventTime'
p1175
S'351068372'
p1176
sg4
L1449728571167L
sS'recordCount'
p1177
g6
sS'EventType'
p1178
S'TYPE_VIEW_SCROLLED'
p1179
sS'PackageName'
p1180
S'com.xdf.ucan'
p1181
sS'OutBounds'
p1182
S'Rect(0, 104 - 480, 800)'
p1183
sS'Action'
p1184
S'[ ClassName: android.widget.ListView; Text: []; ContentDescription: null; ItemCount: 13; CurrentItemIndex: -1; IsEnabled: true; IsPassword: false; IsChecked: false; IsFullScreen: false; Scrollable: true; BeforeText: null; FromIndex: 6; ToIndex: 9; ScrollX: -1; ScrollY: -1; MaxScrollX: -1; MaxScrollY: -1; AddedCount: -1; RemovedCount: -1; ParcelableData: null ]'
p1185
sS'MovementGranularity'
p1186
g6
sa(dp1187
S'EventTime'
p1188
S'351068492'
p1189
sg4
L1449728571280L
sS'recordCount'
p1190
g6
sS'EventType'
p1191
S'TYPE_WINDOW_CONTENT_CHANGED'
p1192
sS'PackageName'
p1193
S'com.xdf.ucan'
p1194
sS'OutBounds'
p1195
S'Rect(0, 0 - 480, 800)'
p1196
sS'Action'
p1197
S'[ ClassName: android.widget.FrameLayout; Text: []; ContentDescription: null; ItemCount: -1; CurrentItemIndex: -1; IsEnabled: true; IsPassword: false; IsChecked: false; IsFullScreen: false; Scrollable: false; BeforeText: null; FromIndex: -1; ToIndex: -1; ScrollX: -1; ScrollY: -1; MaxScrollX: -1; MaxScrollY: -1; AddedCount: -1; RemovedCount: -1; ParcelableData: null ]'
p1198
sS'MovementGranularity'
p1199
g6
sa(dp1200
S'EventTime'
p1201
S'351068665'
p1202
sg4
L1449728571422L
sS'recordCount'
p1203
g6
sS'EventType'
p1204
S'TYPE_VIEW_SCROLLED'
p1205
sS'PackageName'
p1206
S'com.xdf.ucan'
p1207
sS'OutBounds'
p1208
S'Rect(0, 104 - 480, 800)'
p1209
sS'Action'
p1210
S'[ ClassName: android.widget.ListView; Text: []; ContentDescription: null; ItemCount: 13; CurrentItemIndex: -1; IsEnabled: true; IsPassword: false; IsChecked: false; IsFullScreen: false; Scrollable: true; BeforeText: null; FromIndex: 7; ToIndex: 10; ScrollX: -1; ScrollY: -1; MaxScrollX: -1; MaxScrollY: -1; AddedCount: -1; RemovedCount: -1; ParcelableData: null ]'
p1211
sS'MovementGranularity'
p1212
g6
sa(dp1213
S'EventTime'
p1214
S'351068769'
p1215
sg4
L1449728571559L
sS'recordCount'
p1216
g6
sS'EventType'
p1217
S'TYPE_WINDOW_CONTENT_CHANGED'
p1218
sS'PackageName'
p1219
S'com.xdf.ucan'
p1220
sS'OutBounds'
p1221
S'Rect(0, 0 - 480, 800)'
p1222
sS'Action'
p1223
S'[ ClassName: android.widget.FrameLayout; Text: []; ContentDescription: null; ItemCount: -1; CurrentItemIndex: -1; IsEnabled: true; IsPassword: false; IsChecked: false; IsFullScreen: false; Scrollable: false; BeforeText: null; FromIndex: -1; ToIndex: -1; ScrollX: -1; ScrollY: -1; MaxScrollX: -1; MaxScrollY: -1; AddedCount: -1; RemovedCount: -1; ParcelableData: null ]'
p1224
sS'MovementGranularity'
p1225
g6
sa(dp1226
S'EventTime'
p1227
S'351069045'
p1228
sg4
L1449728571809L
sS'recordCount'
p1229
g6
sS'EventType'
p1230
S'TYPE_WINDOW_CONTENT_CHANGED'
p1231
sS'PackageName'
p1232
S'com.xdf.ucan'
p1233
sS'OutBounds'
p1234
S'Rect(0, 0 - 480, 800)'
p1235
sS'Action'
p1236
S'[ ClassName: android.widget.FrameLayout; Text: []; ContentDescription: null; ItemCount: -1; CurrentItemIndex: -1; IsEnabled: true; IsPassword: false; IsChecked: false; IsFullScreen: false; Scrollable: false; BeforeText: null; FromIndex: -1; ToIndex: -1; ScrollX: -1; ScrollY: -1; MaxScrollX: -1; MaxScrollY: -1; AddedCount: -1; RemovedCount: -1; ParcelableData: null ]'
p1237
sS'MovementGranularity'
p1238
g6
sa(dp1239
S'EventTime'
p1240
S'351069298'
p1241
sg4
L1449728572089L
sS'recordCount'
p1242
g6
sS'EventType'
p1243
S'TYPE_WINDOW_CONTENT_CHANGED'
p1244
sS'PackageName'
p1245
S'com.xdf.ucan'
p1246
sS'OutBounds'
p1247
S'Rect(0, 0 - 480, 800)'
p1248
sS'Action'
p1249
S'[ ClassName: android.widget.FrameLayout; Text: []; ContentDescription: null; ItemCount: -1; CurrentItemIndex: -1; IsEnabled: true; IsPassword: false; IsChecked: false; IsFullScreen: false; Scrollable: false; BeforeText: null; FromIndex: -1; ToIndex: -1; ScrollX: -1; ScrollY: -1; MaxScrollX: -1; MaxScrollY: -1; AddedCount: -1; RemovedCount: -1; ParcelableData: null ]'
p1250
sS'MovementGranularity'
p1251
g6
sa(dp1252
S'EventTime'
p1253
S'351070252'
p1254
sg4
L1449728572945L
sS'recordCount'
p1255
g6
sS'EventType'
p1256
S'TYPE_VIEW_SCROLLED'
p1257
sS'PackageName'
p1258
S'com.xdf.ucan'
p1259
sS'OutBounds'
p1260
S'Rect(0, 104 - 480, 800)'
p1261
sS'Action'
p1262
S'[ ClassName: android.widget.ListView; Text: []; ContentDescription: null; ItemCount: 13; CurrentItemIndex: -1; IsEnabled: true; IsPassword: false; IsChecked: false; IsFullScreen: false; Scrollable: true; BeforeText: null; FromIndex: 9; ToIndex: 12; ScrollX: -1; ScrollY: -1; MaxScrollX: -1; MaxScrollY: -1; AddedCount: -1; RemovedCount: -1; ParcelableData: null ]'
p1263
sS'MovementGranularity'
p1264
g6
sa(dp1265
S'EventTime'
p1266
S'351070741'
p1267
sg4
L1449728573426L
sS'recordCount'
p1268
g6
sS'EventType'
p1269
S'TYPE_VIEW_SCROLLED'
p1270
sS'PackageName'
p1271
S'com.xdf.ucan'
p1272
sS'OutBounds'
p1273
S'Rect(0, 104 - 480, 800)'
p1274
sS'Action'
p1275
S'[ ClassName: android.widget.ListView; Text: []; ContentDescription: null; ItemCount: 13; CurrentItemIndex: -1; IsEnabled: true; IsPassword: false; IsChecked: false; IsFullScreen: false; Scrollable: true; BeforeText: null; FromIndex: 9; ToIndex: 11; ScrollX: -1; ScrollY: -1; MaxScrollX: -1; MaxScrollY: -1; AddedCount: -1; RemovedCount: -1; ParcelableData: null ]'
p1276
sS'MovementGranularity'
p1277
g6
sa(dp1278
S'EventTime'
p1279
S'351070742'
p1280
sg4
L1449728573492L
sS'recordCount'
p1281
g6
sS'EventType'
p1282
S'TYPE_WINDOW_CONTENT_CHANGED'
p1283
sS'PackageName'
p1284
S'com.xdf.ucan'
p1285
sS'OutBounds'
p1286
S'Rect(0, 0 - 480, 800)'
p1287
sS'Action'
p1288
S'[ ClassName: android.widget.FrameLayout; Text: []; ContentDescription: null; ItemCount: -1; CurrentItemIndex: -1; IsEnabled: true; IsPassword: false; IsChecked: false; IsFullScreen: false; Scrollable: false; BeforeText: null; FromIndex: -1; ToIndex: -1; ScrollX: -1; ScrollY: -1; MaxScrollX: -1; MaxScrollY: -1; AddedCount: -1; RemovedCount: -1; ParcelableData: null ]'
p1289
sS'MovementGranularity'
p1290
g6
sa(dp1291
S'EventTime'
p1292
S'351071292'
p1293
sg4
L1449728573977L
sS'recordCount'
p1294
g6
sS'EventType'
p1295
S'TYPE_VIEW_SCROLLED'
p1296
sS'PackageName'
p1297
S'com.xdf.ucan'
p1298
sS'OutBounds'
p1299
S'Rect(0, 104 - 480, 800)'
p1300
sS'Action'
p1301
S'[ ClassName: android.widget.ListView; Text: []; ContentDescription: null; ItemCount: 13; CurrentItemIndex: -1; IsEnabled: true; IsPassword: false; IsChecked: false; IsFullScreen: false; Scrollable: true; BeforeText: null; FromIndex: 9; ToIndex: 12; ScrollX: -1; ScrollY: -1; MaxScrollX: -1; MaxScrollY: -1; AddedCount: -1; RemovedCount: -1; ParcelableData: null ]'
p1302
sS'MovementGranularity'
p1303
g6
sa(dp1304
S'EventTime'
p1305
S'351071293'
p1306
sg4
L1449728574047L
sS'recordCount'
p1307
g6
sS'EventType'
p1308
S'TYPE_WINDOW_CONTENT_CHANGED'
p1309
sS'PackageName'
p1310
S'com.xdf.ucan'
p1311
sS'OutBounds'
p1312
S'Rect(0, 0 - 480, 800)'
p1313
sS'Action'
p1314
S'[ ClassName: android.widget.FrameLayout; Text: []; ContentDescription: null; ItemCount: -1; CurrentItemIndex: -1; IsEnabled: true; IsPassword: false; IsChecked: false; IsFullScreen: false; Scrollable: false; BeforeText: null; FromIndex: -1; ToIndex: -1; ScrollX: -1; ScrollY: -1; MaxScrollX: -1; MaxScrollY: -1; AddedCount: -1; RemovedCount: -1; ParcelableData: null ]'
p1315
sS'MovementGranularity'
p1316
g6
sa(dp1317
S'EventTime'
p1318
S'351072919'
p1319
sg4
L1449728575593L
sS'recordCount'
p1320
g6
sS'EventType'
p1321
S'TYPE_WINDOW_CONTENT_CHANGED'
p1322
sS'PackageName'
p1323
S'com.xdf.ucan'
p1324
sS'OutBounds'
p1325
S'Rect(0, 0 - 480, 800)'
p1326
sS'Action'
p1327
S'[ ClassName: android.widget.FrameLayout; Text: []; ContentDescription: null; ItemCount: -1; CurrentItemIndex: -1; IsEnabled: true; IsPassword: false; IsChecked: false; IsFullScreen: false; Scrollable: false; BeforeText: null; FromIndex: -1; ToIndex: -1; ScrollX: -1; ScrollY: -1; MaxScrollX: -1; MaxScrollY: -1; AddedCount: -1; RemovedCount: -1; ParcelableData: null ]'
p1328
sS'MovementGranularity'
p1329
g6
sa(dp1330
S'EventTime'
p1331
S'351073113'
p1332
sg4
L1449728575784L
sS'recordCount'
p1333
g6
sS'EventType'
p1334
S'TYPE_WINDOW_CONTENT_CHANGED'
p1335
sS'PackageName'
p1336
S'com.xdf.ucan'
p1337
sS'OutBounds'
p1338
S'Rect(0, 0 - 480, 800)'
p1339
sS'Action'
p1340
S'[ ClassName: android.widget.FrameLayout; Text: []; ContentDescription: null; ItemCount: -1; CurrentItemIndex: -1; IsEnabled: true; IsPassword: false; IsChecked: false; IsFullScreen: false; Scrollable: false; BeforeText: null; FromIndex: -1; ToIndex: -1; ScrollX: -1; ScrollY: -1; MaxScrollX: -1; MaxScrollY: -1; AddedCount: -1; RemovedCount: -1; ParcelableData: null ]'
p1341
sS'MovementGranularity'
p1342
g6
sa(dp1343
S'EventTime'
p1344
S'351078959'
p1345
sg4
L1449728581679L
sS'recordCount'
p1346
g6
sS'EventType'
p1347
S'TYPE_WINDOW_CONTENT_CHANGED'
p1348
sS'PackageName'
p1349
S'com.xdf.ucan'
p1350
sS'OutBounds'
p1351
S'Rect(0, 0 - 480, 800)'
p1352
sS'Action'
p1353
S'[ ClassName: android.widget.FrameLayout; Text: []; ContentDescription: null; ItemCount: -1; CurrentItemIndex: -1; IsEnabled: true; IsPassword: false; IsChecked: false; IsFullScreen: false; Scrollable: false; BeforeText: null; FromIndex: -1; ToIndex: -1; ScrollX: -1; ScrollY: -1; MaxScrollX: -1; MaxScrollY: -1; AddedCount: -1; RemovedCount: -1; ParcelableData: null ]'
p1354
sS'MovementGranularity'
p1355
g6
sa(dp1356
S'EventTime'
p1357
S'351079862'
p1358
sg4
L1449728582536L
sS'recordCount'
p1359
g6
sS'EventType'
p1360
S'TYPE_WINDOW_CONTENT_CHANGED'
p1361
sS'PackageName'
p1362
S'com.xdf.ucan'
p1363
sS'OutBounds'
p1364
S'Rect(0, 0 - 480, 800)'
p1365
sS'Action'
p1366
S'[ ClassName: android.widget.FrameLayout; Text: []; ContentDescription: null; ItemCount: -1; CurrentItemIndex: -1; IsEnabled: true; IsPassword: false; IsChecked: false; IsFullScreen: false; Scrollable: false; BeforeText: null; FromIndex: -1; ToIndex: -1; ScrollX: -1; ScrollY: -1; MaxScrollX: -1; MaxScrollY: -1; AddedCount: -1; RemovedCount: -1; ParcelableData: null ]'
p1367
sS'MovementGranularity'
p1368
g6
sa(dp1369
S'EventTime'
p1370
S'351080836'
p1371
sg4
L1449728583520L
sS'recordCount'
p1372
g6
sS'EventType'
p1373
S'TYPE_WINDOW_CONTENT_CHANGED'
p1374
sS'PackageName'
p1375
S'com.xdf.ucan'
p1376
sS'OutBounds'
p1377
S'Rect(0, 0 - 480, 800)'
p1378
sS'Action'
p1379
S'[ ClassName: android.widget.FrameLayout; Text: []; ContentDescription: null; ItemCount: -1; CurrentItemIndex: -1; IsEnabled: true; IsPassword: false; IsChecked: false; IsFullScreen: false; Scrollable: false; BeforeText: null; FromIndex: -1; ToIndex: -1; ScrollX: -1; ScrollY: -1; MaxScrollX: -1; MaxScrollY: -1; AddedCount: -1; RemovedCount: -1; ParcelableData: null ]'
p1380
sS'MovementGranularity'
p1381
g6
sa(dp1382
S'EventTime'
p1383
S'351081762'
p1384
sg4
L1449728584479L
sS'recordCount'
p1385
g6
sS'EventType'
p1386
S'TYPE_VIEW_SCROLLED'
p1387
sS'PackageName'
p1388
S'com.xdf.ucan'
p1389
sS'OutBounds'
p1390
S'Rect(0, 104 - 480, 800)'
p1391
sS'Action'
p1392
S'[ ClassName: android.widget.ListView; Text: []; ContentDescription: null; ItemCount: 16; CurrentItemIndex: -1; IsEnabled: true; IsPassword: false; IsChecked: false; IsFullScreen: false; Scrollable: true; BeforeText: null; FromIndex: 10; ToIndex: 13; ScrollX: -1; ScrollY: -1; MaxScrollX: -1; MaxScrollY: -1; AddedCount: -1; RemovedCount: -1; ParcelableData: null ]'
p1393
sS'MovementGranularity'
p1394
g6
sa(dp1395
S'EventTime'
p1396
S'351081978'
p1397
sg4
L1449728584685L
sS'recordCount'
p1398
g6
sS'EventType'
p1399
S'TYPE_VIEW_SCROLLED'
p1400
sS'PackageName'
p1401
S'com.xdf.ucan'
p1402
sS'OutBounds'
p1403
S'Rect(0, 104 - 480, 800)'
p1404
sS'Action'
p1405
S'[ ClassName: android.widget.ListView; Text: []; ContentDescription: null; ItemCount: 16; CurrentItemIndex: -1; IsEnabled: true; IsPassword: false; IsChecked: false; IsFullScreen: false; Scrollable: true; BeforeText: null; FromIndex: 11; ToIndex: 14; ScrollX: -1; ScrollY: -1; MaxScrollX: -1; MaxScrollY: -1; AddedCount: -1; RemovedCount: -1; ParcelableData: null ]'
p1406
sS'MovementGranularity'
p1407
g6
sa(dp1408
S'EventTime'
p1409
S'351082200'
p1410
sg4
L1449728584908L
sS'recordCount'
p1411
g6
sS'EventType'
p1412
S'TYPE_WINDOW_CONTENT_CHANGED'
p1413
sS'PackageName'
p1414
S'com.xdf.ucan'
p1415
sS'OutBounds'
p1416
S'Rect(0, 0 - 480, 800)'
p1417
sS'Action'
p1418
S'[ ClassName: android.widget.FrameLayout; Text: []; ContentDescription: null; ItemCount: -1; CurrentItemIndex: -1; IsEnabled: true; IsPassword: false; IsChecked: false; IsFullScreen: false; Scrollable: false; BeforeText: null; FromIndex: -1; ToIndex: -1; ScrollX: -1; ScrollY: -1; MaxScrollX: -1; MaxScrollY: -1; AddedCount: -1; RemovedCount: -1; ParcelableData: null ]'
p1419
sS'MovementGranularity'
p1420
g6
sa(dp1421
S'EventTime'
p1422
S'351082428'
p1423
sg4
L1449728585102L
sS'recordCount'
p1424
g6
sS'EventType'
p1425
S'TYPE_WINDOW_CONTENT_CHANGED'
p1426
sS'PackageName'
p1427
S'com.xdf.ucan'
p1428
sS'OutBounds'
p1429
S'Rect(0, 0 - 480, 800)'
p1430
sS'Action'
p1431
S'[ ClassName: android.widget.FrameLayout; Text: []; ContentDescription: null; ItemCount: -1; CurrentItemIndex: -1; IsEnabled: true; IsPassword: false; IsChecked: false; IsFullScreen: false; Scrollable: false; BeforeText: null; FromIndex: -1; ToIndex: -1; ScrollX: -1; ScrollY: -1; MaxScrollX: -1; MaxScrollY: -1; AddedCount: -1; RemovedCount: -1; ParcelableData: null ]'
p1432
sS'MovementGranularity'
p1433
g6
sa(dp1434
S'EventTime'
p1435
S'351085315'
p1436
sg4
L1449728587994L
sS'recordCount'
p1437
g6
sS'EventType'
p1438
S'TYPE_WINDOW_CONTENT_CHANGED'
p1439
sS'PackageName'
p1440
S'com.xdf.ucan'
p1441
sS'OutBounds'
p1442
S'Rect(0, 0 - 480, 800)'
p1443
sS'Action'
p1444
S'[ ClassName: android.widget.FrameLayout; Text: []; ContentDescription: null; ItemCount: -1; CurrentItemIndex: -1; IsEnabled: true; IsPassword: false; IsChecked: false; IsFullScreen: false; Scrollable: false; BeforeText: null; FromIndex: -1; ToIndex: -1; ScrollX: -1; ScrollY: -1; MaxScrollX: -1; MaxScrollY: -1; AddedCount: -1; RemovedCount: -1; ParcelableData: null ]'
p1445
sS'MovementGranularity'
p1446
g6
sa(dp1447
S'EventTime'
p1448
S'351086103'
p1449
sg4
L1449728588776L
sS'recordCount'
p1450
g6
sS'EventType'
p1451
S'TYPE_WINDOW_CONTENT_CHANGED'
p1452
sS'PackageName'
p1453
S'com.xdf.ucan'
p1454
sS'OutBounds'
p1455
S'Rect(0, 0 - 480, 800)'
p1456
sS'Action'
p1457
S'[ ClassName: android.widget.FrameLayout; Text: []; ContentDescription: null; ItemCount: -1; CurrentItemIndex: -1; IsEnabled: true; IsPassword: false; IsChecked: false; IsFullScreen: false; Scrollable: false; BeforeText: null; FromIndex: -1; ToIndex: -1; ScrollX: -1; ScrollY: -1; MaxScrollX: -1; MaxScrollY: -1; AddedCount: -1; RemovedCount: -1; ParcelableData: null ]'
p1458
sS'MovementGranularity'
p1459
g6
sa(dp1460
S'EventTime'
p1461
S'351091088'
p1462
sg4
L1449728593815L
sS'recordCount'
p1463
g6
sS'EventType'
p1464
S'TYPE_VIEW_SCROLLED'
p1465
sS'PackageName'
p1466
S'com.xdf.ucan'
p1467
sS'OutBounds'
p1468
S'Rect(0, 104 - 480, 800)'
p1469
sS'Action'
p1470
S'[ ClassName: android.widget.ListView; Text: []; ContentDescription: null; ItemCount: 16; CurrentItemIndex: -1; IsEnabled: true; IsPassword: false; IsChecked: false; IsFullScreen: false; Scrollable: true; BeforeText: null; FromIndex: 12; ToIndex: 15; ScrollX: -1; ScrollY: -1; MaxScrollX: -1; MaxScrollY: -1; AddedCount: -1; RemovedCount: -1; ParcelableData: null ]'
p1471
sS'MovementGranularity'
p1472
g6
sa(dp1473
S'EventTime'
p1474
S'351094841'
p1475
sg4
L1449728597602L
sS'recordCount'
p1476
g6
sS'EventType'
p1477
S'TYPE_VIEW_SCROLLED'
p1478
sS'PackageName'
p1479
S'com.xdf.ucan'
p1480
sS'OutBounds'
p1481
S'Rect(0, 104 - 480, 800)'
p1482
sS'Action'
p1483
S'[ ClassName: android.widget.ListView; Text: []; ContentDescription: null; ItemCount: 16; CurrentItemIndex: -1; IsEnabled: true; IsPassword: false; IsChecked: false; IsFullScreen: false; Scrollable: true; BeforeText: null; FromIndex: 7; ToIndex: 10; ScrollX: -1; ScrollY: -1; MaxScrollX: -1; MaxScrollY: -1; AddedCount: -1; RemovedCount: -1; ParcelableData: null ]'
p1484
sS'MovementGranularity'
p1485
g6
sa(dp1486
S'EventTime'
p1487
S'351095233'
p1488
sg4
L1449728597894L
sS'recordCount'
p1489
g6
sS'EventType'
p1490
S'TYPE_VIEW_SCROLLED'
p1491
sS'PackageName'
p1492
S'com.xdf.ucan'
p1493
sS'OutBounds'
p1494
S'Rect(0, 104 - 480, 800)'
p1495
sS'Action'
p1496
S'[ ClassName: android.widget.ListView; Text: []; ContentDescription: null; ItemCount: 16; CurrentItemIndex: -1; IsEnabled: true; IsPassword: false; IsChecked: false; IsFullScreen: false; Scrollable: true; BeforeText: null; FromIndex: 0; ToIndex: 4; ScrollX: -1; ScrollY: -1; MaxScrollX: -1; MaxScrollY: -1; AddedCount: -1; RemovedCount: -1; ParcelableData: null ]'
p1497
sS'MovementGranularity'
p1498
g6
sa(dp1499
S'EventTime'
p1500
S'351095387'
p1501
sg4
L1449728598063L
sS'recordCount'
p1502
g6
sS'EventType'
p1503
S'TYPE_WINDOW_CONTENT_CHANGED'
p1504
sS'PackageName'
p1505
S'com.xdf.ucan'
p1506
sS'OutBounds'
p1507
S'Rect(0, 0 - 480, 800)'
p1508
sS'Action'
p1509
S'[ ClassName: android.widget.FrameLayout; Text: []; ContentDescription: null; ItemCount: -1; CurrentItemIndex: -1; IsEnabled: true; IsPassword: false; IsChecked: false; IsFullScreen: false; Scrollable: false; BeforeText: null; FromIndex: -1; ToIndex: -1; ScrollX: -1; ScrollY: -1; MaxScrollX: -1; MaxScrollY: -1; AddedCount: -1; RemovedCount: -1; ParcelableData: null ]'
p1510
sS'MovementGranularity'
p1511
g6
sa(dp1512
S'EventTime'
p1513
S'351095906'
p1514
sg4
L1449728598583L
sS'recordCount'
p1515
g6
sS'EventType'
p1516
S'TYPE_WINDOW_CONTENT_CHANGED'
p1517
sS'PackageName'
p1518
S'com.xdf.ucan'
p1519
sS'OutBounds'
p1520
S'Rect(0, 0 - 480, 800)'
p1521
sS'Action'
p1522
S'[ ClassName: android.widget.FrameLayout; Text: []; ContentDescription: null; ItemCount: -1; CurrentItemIndex: -1; IsEnabled: true; IsPassword: false; IsChecked: false; IsFullScreen: false; Scrollable: false; BeforeText: null; FromIndex: -1; ToIndex: -1; ScrollX: -1; ScrollY: -1; MaxScrollX: -1; MaxScrollY: -1; AddedCount: -1; RemovedCount: -1; ParcelableData: null ]'
p1523
sS'MovementGranularity'
p1524
g6
sa(dp1525
S'EventTime'
p1526
S'351098051'
p1527
sg4
L1449728600661L
sS'recordCount'
p1528
g1047
sS'EventType'
p1529
S'TYPE_VIEW_CLICKED'
p1530
sS'PackageName'
p1531
S'com.xdf.ucan'
p1532
sS'OutBounds'
p1533
S'Rect(240, 347 - 464, 424)'
p1534
sS'Action'
p1535
S'[ ClassName: android.widget.LinearLayout; Text: [3]; ContentDescription: null; ItemCount: -1; CurrentItemIndex: -1; IsEnabled: true; IsPassword: false; IsChecked: false; IsFullScreen: false; Scrollable: false; BeforeText: null; FromIndex: -1; ToIndex: -1; ScrollX: -1; ScrollY: -1; MaxScrollX: -1; MaxScrollY: -1; AddedCount: -1; RemovedCount: -1; ParcelableData: null ]'
p1536
sS'MovementGranularity'
p1537
g6
sa(dp1538
S'EventTime'
p1539
S'351098668'
p1540
sg4
L1449728601371L
sS'recordCount'
p1541
g6
sS'EventType'
p1542
S'TYPE_WINDOW_CONTENT_CHANGED'
p1543
sS'PackageName'
p1544
S'com.xdf.ucan'
p1545
sS'OutBounds'
p1546
S'Rect(0, 0 - 480, 800)'
p1547
sS'Action'
p1548
S'[ ClassName: android.widget.FrameLayout; Text: []; ContentDescription: null; ItemCount: -1; CurrentItemIndex: -1; IsEnabled: true; IsPassword: false; IsChecked: false; IsFullScreen: false; Scrollable: false; BeforeText: null; FromIndex: -1; ToIndex: -1; ScrollX: -1; ScrollY: -1; MaxScrollX: -1; MaxScrollY: -1; AddedCount: -1; RemovedCount: -1; ParcelableData: null ]'
p1549
sS'MovementGranularity'
p1550
g6
sa(dp1551
S'EventTime'
p1552
S'351101898'
p1553
sg4
L1449728604509L
sS'recordCount'
p1554
g1047
sS'EventType'
p1555
S'TYPE_VIEW_CLICKED'
p1556
sS'PackageName'
p1557
S'com.xdf.ucan'
p1558
sS'OutBounds'
p1559
S'Rect(240, 347 - 464, 424)'
p1560
sS'Action'
p1561
S'[ ClassName: android.widget.LinearLayout; Text: [4]; ContentDescription: null; ItemCount: -1; CurrentItemIndex: -1; IsEnabled: true; IsPassword: false; IsChecked: false; IsFullScreen: false; Scrollable: false; BeforeText: null; FromIndex: -1; ToIndex: -1; ScrollX: -1; ScrollY: -1; MaxScrollX: -1; MaxScrollY: -1; AddedCount: -1; RemovedCount: -1; ParcelableData: null ]'
p1562
sS'MovementGranularity'
p1563
g6
sa(dp1564
S'EventTime'
p1565
S'351102380'
p1566
sg4
L1449728605058L
sS'recordCount'
p1567
g6
sS'EventType'
p1568
S'TYPE_WINDOW_CONTENT_CHANGED'
p1569
sS'PackageName'
p1570
S'com.xdf.ucan'
p1571
sS'OutBounds'
p1572
S'Rect(0, 0 - 480, 800)'
p1573
sS'Action'
p1574
S'[ ClassName: android.widget.FrameLayout; Text: []; ContentDescription: null; ItemCount: -1; CurrentItemIndex: -1; IsEnabled: true; IsPassword: false; IsChecked: false; IsFullScreen: false; Scrollable: false; BeforeText: null; FromIndex: -1; ToIndex: -1; ScrollX: -1; ScrollY: -1; MaxScrollX: -1; MaxScrollY: -1; AddedCount: -1; RemovedCount: -1; ParcelableData: null ]'
p1575
sS'MovementGranularity'
p1576
g6
sa(dp1577
S'EventTime'
p1578
S'351111792'
p1579
sg4
L1449728614403L
sS'recordCount'
p1580
g1047
sS'EventType'
p1581
S'TYPE_VIEW_CLICKED'
p1582
sS'PackageName'
p1583
S'com.xdf.ucan'
p1584
sS'OutBounds'
p1585
S'Rect(350, 203 - 407, 265)'
p1586
sS'Action'
p1587
S'[ ClassName: android.widget.LinearLayout; Text: []; ContentDescription: null; ItemCount: -1; CurrentItemIndex: -1; IsEnabled: true; IsPassword: false; IsChecked: false; IsFullScreen: false; Scrollable: false; BeforeText: null; FromIndex: -1; ToIndex: -1; ScrollX: -1; ScrollY: -1; MaxScrollX: -1; MaxScrollY: -1; AddedCount: -1; RemovedCount: -1; ParcelableData: null ]'
p1588
sS'MovementGranularity'
p1589
g6
sa(dp1590
S'EventTime'
p1591
S'351115301'
p1592
sg4
L1449728617912L
sS'recordCount'
p1593
g1047
sS'EventType'
p1594
S'TYPE_VIEW_CLICKED'
p1595
sS'PackageName'
p1596
S'com.xdf.ucan'
p1597
sS'OutBounds'
p1598
S'Rect(350, 203 - 407, 265)'
p1599
sS'Action'
p1600
S'[ ClassName: android.widget.LinearLayout; Text: []; ContentDescription: null; ItemCount: -1; CurrentItemIndex: -1; IsEnabled: true; IsPassword: false; IsChecked: false; IsFullScreen: false; Scrollable: false; BeforeText: null; FromIndex: -1; ToIndex: -1; ScrollX: -1; ScrollY: -1; MaxScrollX: -1; MaxScrollY: -1; AddedCount: -1; RemovedCount: -1; ParcelableData: null ]'
p1601
sS'MovementGranularity'
p1602
g6
sa(dp1603
S'EventTime'
p1604
S'351123917'
p1605
sg4
L1449728626529L
sS'recordCount'
p1606
g1047
sS'EventType'
p1607
S'TYPE_VIEW_CLICKED'
p1608
sS'PackageName'
p1609
S'com.xdf.ucan'
p1610
sS'OutBounds'
p1611
S'Rect(16, 347 - 239, 423)'
p1612
sS'Action'
p1613
S'[ ClassName: android.widget.LinearLayout; Text: [\xe8\xaf\x84\xe8\xae\xba]; ContentDescription: null; ItemCount: -1; CurrentItemIndex: -1; IsEnabled: true; IsPassword: false; IsChecked: false; IsFullScreen: false; Scrollable: false; BeforeText: null; FromIndex: -1; ToIndex: -1; ScrollX: -1; ScrollY: -1; MaxScrollX: -1; MaxScrollY: -1; AddedCount: -1; RemovedCount: -1; ParcelableData: null ]'
p1614
sS'MovementGranularity'
p1615
g6
sa(dp1616
S'EventTime'
p1617
S'351124652'
p1618
sg4
L1449728627584L
sS'recordCount'
p1619
g6
sS'EventType'
p1620
S'TYPE_WINDOW_CONTENT_CHANGED'
p1621
sS'PackageName'
p1622
S'com.xdf.ucan'
p1623
sS'OutBounds'
p1624
S'Rect(0, 0 - 480, 800)'
p1625
sS'Action'
p1626
S'[ ClassName: android.widget.FrameLayout; Text: []; ContentDescription: null; ItemCount: -1; CurrentItemIndex: -1; IsEnabled: true; IsPassword: false; IsChecked: false; IsFullScreen: false; Scrollable: false; BeforeText: null; FromIndex: -1; ToIndex: -1; ScrollX: -1; ScrollY: -1; MaxScrollX: -1; MaxScrollY: -1; AddedCount: -1; RemovedCount: -1; ParcelableData: null ]'
p1627
sS'MovementGranularity'
p1628
g6
sa(dp1629
S'EventTime'
p1630
S'351124947'
p1631
sg4
L1449728627705L
sS'recordCount'
p1632
g6
sS'EventType'
p1633
S'TYPE_WINDOW_STATE_CHANGED'
p1634
sS'PackageName'
p1635
S'com.xdf.ucan'
p1636
sS'OutBounds'
p1637
S'Rect(0, 0 - 480, 800)'
p1638
sS'Action'
p1639
S'[ ClassName: com.xdf.ucan.ui.video.VideoPlayerActivity; Text: [\xe4\xbc\x98\xe6\x92\xad\xe8\xaf\xbe]; ContentDescription: null; ItemCount: -1; CurrentItemIndex: -1; IsEnabled: true; IsPassword: false; IsChecked: false; IsFullScreen: true; Scrollable: false; BeforeText: null; FromIndex: -1; ToIndex: -1; ScrollX: -1; ScrollY: -1; MaxScrollX: -1; MaxScrollY: -1; AddedCount: -1; RemovedCount: -1; ParcelableData: null ]'
p1640
sS'MovementGranularity'
p1641
g6
sa(dp1642
S'EventTime'
p1643
S'351124948'
p1644
sg4
L1449728627741L
sS'recordCount'
p1645
g6
sS'EventType'
p1646
S'TYPE_VIEW_SELECTED'
p1647
sS'PackageName'
p1648
S'com.xdf.ucan'
p1649
sS'OutBounds'
p1650
S'Rect(75, 375 - 421, 398)'
p1651
sS'Action'
p1652
S'[ ClassName: android.widget.SeekBar; Text: []; ContentDescription: null; ItemCount: 100; CurrentItemIndex: 20; IsEnabled: true; IsPassword: false; IsChecked: false; IsFullScreen: false; Scrollable: false; BeforeText: null; FromIndex: -1; ToIndex: -1; ScrollX: -1; ScrollY: -1; MaxScrollX: -1; MaxScrollY: -1; AddedCount: -1; RemovedCount: -1; ParcelableData: null ]'
p1653
sS'MovementGranularity'
p1654
g6
sa(dp1655
S'EventTime'
p1656
S'351125148'
p1657
sg4
L1449728627804L
sS'recordCount'
p1658
g6
sS'EventType'
p1659
S'TYPE_WINDOW_CONTENT_CHANGED'
p1660
sS'PackageName'
p1661
S'com.xdf.ucan'
p1662
sS'OutBounds'
p1663
S'Rect(0, 0 - 480, 800)'
p1664
sS'Action'
p1665
S'[ ClassName: android.widget.FrameLayout; Text: []; ContentDescription: null; ItemCount: -1; CurrentItemIndex: -1; IsEnabled: true; IsPassword: false; IsChecked: false; IsFullScreen: false; Scrollable: false; BeforeText: null; FromIndex: -1; ToIndex: -1; ScrollX: -1; ScrollY: -1; MaxScrollX: -1; MaxScrollY: -1; AddedCount: -1; RemovedCount: -1; ParcelableData: null ]'
p1666
sS'MovementGranularity'
p1667
g6
sa(dp1668
S'EventTime'
p1669
S'351126693'
p1670
sg4
L1449728629388L
sS'recordCount'
p1671
g6
sS'EventType'
p1672
S'TYPE_WINDOW_CONTENT_CHANGED'
p1673
sS'PackageName'
p1674
S'com.xdf.ucan'
p1675
sS'OutBounds'
p1676
S'Rect(0, 0 - 480, 800)'
p1677
sS'Action'
p1678
S'[ ClassName: android.widget.FrameLayout; Text: []; ContentDescription: null; ItemCount: -1; CurrentItemIndex: -1; IsEnabled: true; IsPassword: false; IsChecked: false; IsFullScreen: false; Scrollable: false; BeforeText: null; FromIndex: -1; ToIndex: -1; ScrollX: -1; ScrollY: -1; MaxScrollX: -1; MaxScrollY: -1; AddedCount: -1; RemovedCount: -1; ParcelableData: null ]'
p1679
sS'MovementGranularity'
p1680
g6
sa(dp1681
S'EventTime'
p1682
S'351129009'
p1683
sg4
L1449728631674L
sS'recordCount'
p1684
g6
sS'EventType'
p1685
S'TYPE_WINDOW_CONTENT_CHANGED'
p1686
sS'PackageName'
p1687
S'com.xdf.ucan'
p1688
sS'OutBounds'
p1689
S'Rect(0, 0 - 480, 800)'
p1690
sS'Action'
p1691
S'[ ClassName: android.widget.FrameLayout; Text: []; ContentDescription: null; ItemCount: -1; CurrentItemIndex: -1; IsEnabled: true; IsPassword: false; IsChecked: false; IsFullScreen: false; Scrollable: false; BeforeText: null; FromIndex: -1; ToIndex: -1; ScrollX: -1; ScrollY: -1; MaxScrollX: -1; MaxScrollY: -1; AddedCount: -1; RemovedCount: -1; ParcelableData: null ]'
p1692
sS'MovementGranularity'
p1693
g6
sa(dp1694
S'EventTime'
p1695
S'351129743'
p1696
sg4
L1449728632392L
sS'recordCount'
p1697
g6
sS'EventType'
p1698
S'TYPE_WINDOW_CONTENT_CHANGED'
p1699
sS'PackageName'
p1700
S'com.xdf.ucan'
p1701
sS'OutBounds'
p1702
S'Rect(0, 0 - 480, 800)'
p1703
sS'Action'
p1704
S'[ ClassName: android.widget.FrameLayout; Text: []; ContentDescription: null; ItemCount: -1; CurrentItemIndex: -1; IsEnabled: true; IsPassword: false; IsChecked: false; IsFullScreen: false; Scrollable: false; BeforeText: null; FromIndex: -1; ToIndex: -1; ScrollX: -1; ScrollY: -1; MaxScrollX: -1; MaxScrollY: -1; AddedCount: -1; RemovedCount: -1; ParcelableData: null ]'
p1705
sS'MovementGranularity'
p1706
g6
sa(dp1707
S'EventTime'
p1708
S'351129827'
p1709
sg4
L1449728632443L
sS'recordCount'
p1710
g6
sS'EventType'
p1711
S'TYPE_VIEW_SELECTED'
p1712
sS'PackageName'
p1713
S'com.xdf.ucan'
p1714
sS'OutBounds'
p1715
S'Rect(75, 375 - 306, 398)'
p1716
sS'Action'
p1717
S'[ ClassName: android.widget.SeekBar; Text: []; ContentDescription: null; ItemCount: 252957; CurrentItemIndex: 2651; IsEnabled: true; IsPassword: false; IsChecked: false; IsFullScreen: false; Scrollable: false; BeforeText: null; FromIndex: -1; ToIndex: -1; ScrollX: -1; ScrollY: -1; MaxScrollX: -1; MaxScrollY: -1; AddedCount: -1; RemovedCount: -1; ParcelableData: null ]'
p1718
sS'MovementGranularity'
p1719
g6
sa(dp1720
S'EventTime'
p1721
S'351129935'
p1722
sg4
L1449728632545L
sS'recordCount'
p1723
g6
sS'EventType'
p1724
S'TYPE_VIEW_CLICKED'
p1725
sS'PackageName'
p1726
S'com.xdf.ucan'
p1727
sS'OutBounds'
p1728
S'Rect(0, 357 - 75, 416)'
p1729
sS'Action'
p1730
S'[ ClassName: android.widget.ImageButton; Text: []; ContentDescription: null; ItemCount: -1; CurrentItemIndex: -1; IsEnabled: true; IsPassword: false; IsChecked: false; IsFullScreen: false; Scrollable: false; BeforeText: null; FromIndex: -1; ToIndex: -1; ScrollX: -1; ScrollY: -1; MaxScrollX: -1; MaxScrollY: -1; AddedCount: -1; RemovedCount: -1; ParcelableData: null ]'
p1731
sS'MovementGranularity'
p1732
g6
sa(dp1733
S'EventTime'
p1734
S'351130747'
p1735
sg4
L1449728633395L
sS'recordCount'
p1736
g6
sS'EventType'
p1737
S'TYPE_WINDOW_CONTENT_CHANGED'
p1738
sS'PackageName'
p1739
S'com.xdf.ucan'
p1740
sS'OutBounds'
p1741
S'Rect(0, 0 - 480, 800)'
p1742
sS'Action'
p1743
S'[ ClassName: android.widget.FrameLayout; Text: []; ContentDescription: null; ItemCount: -1; CurrentItemIndex: -1; IsEnabled: true; IsPassword: false; IsChecked: false; IsFullScreen: false; Scrollable: false; BeforeText: null; FromIndex: -1; ToIndex: -1; ScrollX: -1; ScrollY: -1; MaxScrollX: -1; MaxScrollY: -1; AddedCount: -1; RemovedCount: -1; ParcelableData: null ]'
p1744
sS'MovementGranularity'
p1745
g6
sa(dp1746
S'EventTime'
p1747
S'351130832'
p1748
sg4
L1449728633448L
sS'recordCount'
p1749
g6
sS'EventType'
p1750
S'TYPE_VIEW_SELECTED'
p1751
sS'PackageName'
p1752
S'com.xdf.ucan'
p1753
sS'OutBounds'
p1754
S'Rect(75, 375 - 306, 398)'
p1755
sS'Action'
p1756
S'[ ClassName: android.widget.SeekBar; Text: []; ContentDescription: null; ItemCount: 252957; CurrentItemIndex: 3000; IsEnabled: true; IsPassword: false; IsChecked: false; IsFullScreen: false; Scrollable: false; BeforeText: null; FromIndex: -1; ToIndex: -1; ScrollX: -1; ScrollY: -1; MaxScrollX: -1; MaxScrollY: -1; AddedCount: -1; RemovedCount: -1; ParcelableData: null ]'
p1757
sS'MovementGranularity'
p1758
g6
sa(dp1759
S'EventTime'
p1760
S'351131752'
p1761
sg4
L1449728634403L
sS'recordCount'
p1762
g6
sS'EventType'
p1763
S'TYPE_WINDOW_CONTENT_CHANGED'
p1764
sS'PackageName'
p1765
S'com.xdf.ucan'
p1766
sS'OutBounds'
p1767
S'Rect(0, 0 - 480, 800)'
p1768
sS'Action'
p1769
S'[ ClassName: android.widget.FrameLayout; Text: []; ContentDescription: null; ItemCount: -1; CurrentItemIndex: -1; IsEnabled: true; IsPassword: false; IsChecked: false; IsFullScreen: false; Scrollable: false; BeforeText: null; FromIndex: -1; ToIndex: -1; ScrollX: -1; ScrollY: -1; MaxScrollX: -1; MaxScrollY: -1; AddedCount: -1; RemovedCount: -1; ParcelableData: null ]'
p1770
sS'MovementGranularity'
p1771
g6
sa(dp1772
S'EventTime'
p1773
S'351132752'
p1774
sg4
L1449728635393L
sS'recordCount'
p1775
g6
sS'EventType'
p1776
S'TYPE_WINDOW_CONTENT_CHANGED'
p1777
sS'PackageName'
p1778
S'com.xdf.ucan'
p1779
sS'OutBounds'
p1780
S'Rect(0, 0 - 480, 800)'
p1781
sS'Action'
p1782
S'[ ClassName: android.widget.FrameLayout; Text: []; ContentDescription: null; ItemCount: -1; CurrentItemIndex: -1; IsEnabled: true; IsPassword: false; IsChecked: false; IsFullScreen: false; Scrollable: false; BeforeText: null; FromIndex: -1; ToIndex: -1; ScrollX: -1; ScrollY: -1; MaxScrollX: -1; MaxScrollY: -1; AddedCount: -1; RemovedCount: -1; ParcelableData: null ]'
p1783
sS'MovementGranularity'
p1784
g6
sa(dp1785
S'EventTime'
p1786
S'351132930'
p1787
sg4
L1449728635539L
sS'recordCount'
p1788
g6
sS'EventType'
p1789
S'TYPE_VIEW_CLICKED'
p1790
sS'PackageName'
p1791
S'com.xdf.ucan'
p1792
sS'OutBounds'
p1793
S'Rect(0, 723 - 239, 799)'
p1794
sS'Action'
p1795
S'[ ClassName: android.widget.LinearLayout; Text: [\xe8\xaf\x84\xe8\xae\xba]; ContentDescription: null; ItemCount: -1; CurrentItemIndex: -1; IsEnabled: true; IsPassword: false; IsChecked: false; IsFullScreen: false; Scrollable: false; BeforeText: null; FromIndex: -1; ToIndex: -1; ScrollX: -1; ScrollY: -1; MaxScrollX: -1; MaxScrollY: -1; AddedCount: -1; RemovedCount: -1; ParcelableData: null ]'
p1796
sS'MovementGranularity'
p1797
g6
sa(dp1798
S'EventTime'
p1799
S'351132932'
p1800
sg4
L1449728635590L
sS'recordCount'
p1801
g6
sS'EventType'
p1802
S'TYPE_VIEW_FOCUSED'
p1803
sS'PackageName'
p1804
S'com.xdf.ucan'
p1805
sS'OutBounds'
p1806
S'Rect(23, 740 - 382, 777)'
p1807
sS'Action'
p1808
S'[ ClassName: android.widget.EditText; Text: []; ContentDescription: null; ItemCount: 6; CurrentItemIndex: 5; IsEnabled: true; IsPassword: false; IsChecked: false; IsFullScreen: false; Scrollable: false; BeforeText: null; FromIndex: -1; ToIndex: -1; ScrollX: -1; ScrollY: -1; MaxScrollX: -1; MaxScrollY: -1; AddedCount: -1; RemovedCount: -1; ParcelableData: null ]'
p1809
sS'MovementGranularity'
p1810
g6
sa(dp1811
S'EventTime'
p1812
S'351133059'
p1813
sg4
L1449728635742L
sS'recordCount'
p1814
g6
sS'EventType'
p1815
S'TYPE_WINDOW_CONTENT_CHANGED'
p1816
sS'PackageName'
p1817
S'com.xdf.ucan'
p1818
sS'OutBounds'
p1819
S'Rect(0, 0 - 480, 800)'
p1820
sS'Action'
p1821
S'[ ClassName: android.widget.FrameLayout; Text: []; ContentDescription: null; ItemCount: -1; CurrentItemIndex: -1; IsEnabled: true; IsPassword: false; IsChecked: false; IsFullScreen: false; Scrollable: false; BeforeText: null; FromIndex: -1; ToIndex: -1; ScrollX: -1; ScrollY: -1; MaxScrollX: -1; MaxScrollY: -1; AddedCount: -1; RemovedCount: -1; ParcelableData: null ]'
p1822
sS'MovementGranularity'
p1823
g6
sa(dp1824
S'EventTime'
p1825
S'351133758'
p1826
sg4
L1449728636408L
sS'recordCount'
p1827
g6
sS'EventType'
p1828
S'TYPE_WINDOW_CONTENT_CHANGED'
p1829
sS'PackageName'
p1830
S'com.xdf.ucan'
p1831
sS'OutBounds'
p1832
S'Rect(0, 0 - 480, 800)'
p1833
sS'Action'
p1834
S'[ ClassName: android.widget.FrameLayout; Text: []; ContentDescription: null; ItemCount: -1; CurrentItemIndex: -1; IsEnabled: true; IsPassword: false; IsChecked: false; IsFullScreen: false; Scrollable: false; BeforeText: null; FromIndex: -1; ToIndex: -1; ScrollX: -1; ScrollY: -1; MaxScrollX: -1; MaxScrollY: -1; AddedCount: -1; RemovedCount: -1; ParcelableData: null ]'
p1835
sS'MovementGranularity'
p1836
g6
sa(dp1837
S'EventTime'
p1838
S'351134760'
p1839
sg4
L1449728637404L
sS'recordCount'
p1840
g6
sS'EventType'
p1841
S'TYPE_WINDOW_CONTENT_CHANGED'
p1842
sS'PackageName'
p1843
S'com.xdf.ucan'
p1844
sS'OutBounds'
p1845
S'Rect(0, 0 - 480, 800)'
p1846
sS'Action'
p1847
S'[ ClassName: android.widget.FrameLayout; Text: []; ContentDescription: null; ItemCount: -1; CurrentItemIndex: -1; IsEnabled: true; IsPassword: false; IsChecked: false; IsFullScreen: false; Scrollable: false; BeforeText: null; FromIndex: -1; ToIndex: -1; ScrollX: -1; ScrollY: -1; MaxScrollX: -1; MaxScrollY: -1; AddedCount: -1; RemovedCount: -1; ParcelableData: null ]'
p1848
sS'MovementGranularity'
p1849
g6
sa(dp1850
S'EventTime'
p1851
S'351135764'
p1852
sg4
L1449728638415L
sS'recordCount'
p1853
g6
sS'EventType'
p1854
S'TYPE_WINDOW_CONTENT_CHANGED'
p1855
sS'PackageName'
p1856
S'com.xdf.ucan'
p1857
sS'OutBounds'
p1858
S'Rect(0, 0 - 480, 800)'
p1859
sS'Action'
p1860
S'[ ClassName: android.widget.FrameLayout; Text: []; ContentDescription: null; ItemCount: -1; CurrentItemIndex: -1; IsEnabled: true; IsPassword: false; IsChecked: false; IsFullScreen: false; Scrollable: false; BeforeText: null; FromIndex: -1; ToIndex: -1; ScrollX: -1; ScrollY: -1; MaxScrollX: -1; MaxScrollY: -1; AddedCount: -1; RemovedCount: -1; ParcelableData: null ]'
p1861
sS'MovementGranularity'
p1862
g6
sa(dp1863
S'EventTime'
p1864
S'351136090'
p1865
sg4
L1449728638734L
sS'recordCount'
p1866
g6
sS'EventType'
p1867
S'TYPE_WINDOW_CONTENT_CHANGED'
p1868
sS'PackageName'
p1869
S'com.xdf.ucan'
p1870
sS'OutBounds'
p1871
S'Rect(0, 0 - 480, 800)'
p1872
sS'Action'
p1873
S'[ ClassName: android.widget.FrameLayout; Text: []; ContentDescription: null; ItemCount: -1; CurrentItemIndex: -1; IsEnabled: true; IsPassword: false; IsChecked: false; IsFullScreen: false; Scrollable: false; BeforeText: null; FromIndex: -1; ToIndex: -1; ScrollX: -1; ScrollY: -1; MaxScrollX: -1; MaxScrollY: -1; AddedCount: -1; RemovedCount: -1; ParcelableData: null ]'
p1874
sS'MovementGranularity'
p1875
g6
sa(dp1876
S'EventTime'
p1877
S'351143993'
p1878
sg4
L1449728646620L
sS'recordCount'
p1879
g6
sS'EventType'
p1880
S'TYPE_VIEW_TEXT_CHANGED'
p1881
sS'PackageName'
p1882
S'com.xdf.ucan'
p1883
sS'OutBounds'
p1884
S'Rect(23, 740 - 382, 777)'
p1885
sS'Action'
p1886
S'[ ClassName: android.widget.EditText; Text: [\xe5\xbe\x88\xe5\xa5\xbd\xe7\x9c\x8b]; ContentDescription: null; ItemCount: -1; CurrentItemIndex: -1; IsEnabled: true; IsPassword: false; IsChecked: false; IsFullScreen: false; Scrollable: false; BeforeText: ; FromIndex: 0; ToIndex: -1; ScrollX: -1; ScrollY: -1; MaxScrollX: -1; MaxScrollY: -1; AddedCount: 3; RemovedCount: 0; ParcelableData: null ]'
p1887
sS'MovementGranularity'
p1888
g6
sa(dp1889
S'EventTime'
p1890
S'351144004'
p1891
sg4
L1449728646649L
sS'recordCount'
p1892
g6
sS'EventType'
p1893
S'TYPE_VIEW_TEXT_SELECTION_CHANGED'
p1894
sS'PackageName'
p1895
S'com.xdf.ucan'
p1896
sS'OutBounds'
p1897
S'Rect(23, 740 - 382, 777)'
p1898
sS'Action'
p1899
S'[ ClassName: android.widget.EditText; Text: [\xe5\xbe\x88\xe5\xa5\xbd\xe7\x9c\x8b]; ContentDescription: null; ItemCount: 3; CurrentItemIndex: -1; IsEnabled: true; IsPassword: false; IsChecked: false; IsFullScreen: false; Scrollable: false; BeforeText: null; FromIndex: 3; ToIndex: 3; ScrollX: -1; ScrollY: -1; MaxScrollX: -1; MaxScrollY: -1; AddedCount: -1; RemovedCount: -1; ParcelableData: null ]'
p1900
sS'MovementGranularity'
p1901
g6
sa(dp1902
S'EventTime'
p1903
S'351144142'
p1904
sg4
L1449728646795L
sS'recordCount'
p1905
g6
sS'EventType'
p1906
S'TYPE_WINDOW_CONTENT_CHANGED'
p1907
sS'PackageName'
p1908
S'com.xdf.ucan'
p1909
sS'OutBounds'
p1910
S'Rect(0, 0 - 480, 800)'
p1911
sS'Action'
p1912
S'[ ClassName: android.widget.FrameLayout; Text: []; ContentDescription: null; ItemCount: -1; CurrentItemIndex: -1; IsEnabled: true; IsPassword: false; IsChecked: false; IsFullScreen: false; Scrollable: false; BeforeText: null; FromIndex: -1; ToIndex: -1; ScrollX: -1; ScrollY: -1; MaxScrollX: -1; MaxScrollY: -1; AddedCount: -1; RemovedCount: -1; ParcelableData: null ]'
p1913
sS'MovementGranularity'
p1914
g6
sa(dp1915
S'EventTime'
p1916
S'351145554'
p1917
sg4
L1449728648306L
sS'recordCount'
p1918
g6
sS'EventType'
p1919
S'TYPE_WINDOW_STATE_CHANGED'
p1920
sS'PackageName'
p1921
S'com.xdf.ucan'
p1922
sS'Action'
p1923
S'[ ClassName: com.xdf.ucan.views.LoadingDialog; Text: []; ContentDescription: null; ItemCount: -1; CurrentItemIndex: -1; IsEnabled: true; IsPassword: false; IsChecked: false; IsFullScreen: false; Scrollable: false; BeforeText: null; FromIndex: -1; ToIndex: -1; ScrollX: -1; ScrollY: -1; MaxScrollX: -1; MaxScrollY: -1; AddedCount: -1; RemovedCount: -1; ParcelableData: null ]'
p1924
sS'MovementGranularity'
p1925
g6
sa(dp1926
S'EventTime'
p1927
S'351145567'
p1928
sg4
L1449728648308L
sS'recordCount'
p1929
g6
sS'EventType'
p1930
S'TYPE_WINDOW_CONTENT_CHANGED'
p1931
sS'PackageName'
p1932
S'com.xdf.ucan'
p1933
sS'Action'
p1934
S'[ ClassName: android.widget.FrameLayout; Text: []; ContentDescription: null; ItemCount: -1; CurrentItemIndex: -1; IsEnabled: true; IsPassword: false; IsChecked: false; IsFullScreen: false; Scrollable: false; BeforeText: null; FromIndex: -1; ToIndex: -1; ScrollX: -1; ScrollY: -1; MaxScrollX: -1; MaxScrollY: -1; AddedCount: -1; RemovedCount: -1; ParcelableData: null ]'
p1935
sS'MovementGranularity'
p1936
g6
sa(dp1937
S'EventTime'
p1938
S'351147043'
p1939
sg4
L1449728649816L
sS'recordCount'
p1940
g6
sS'EventType'
p1941
S'TYPE_WINDOW_STATE_CHANGED'
p1942
sS'PackageName'
p1943
S'com.xdf.ucan'
p1944
sS'OutBounds'
p1945
S'Rect(0, 0 - 480, 800)'
p1946
sS'Action'
p1947
S'[ ClassName: com.xdf.ucan.ui.video.VideoPlayerActivity; Text: [\xe4\xbc\x98\xe6\x92\xad\xe8\xaf\xbe]; ContentDescription: null; ItemCount: -1; CurrentItemIndex: -1; IsEnabled: true; IsPassword: false; IsChecked: false; IsFullScreen: true; Scrollable: false; BeforeText: null; FromIndex: -1; ToIndex: -1; ScrollX: -1; ScrollY: -1; MaxScrollX: -1; MaxScrollY: -1; AddedCount: -1; RemovedCount: -1; ParcelableData: null ]'
p1948
sS'MovementGranularity'
p1949
g6
sa(dp1950
S'EventTime'
p1951
S'351147099'
p1952
sg4
L1449728650175L
sS'recordCount'
p1953
g6
sS'EventType'
p1954
S'TYPE_VIEW_SCROLLED'
p1955
sS'PackageName'
p1956
S'com.xdf.ucan'
p1957
sS'OutBounds'
p1958
S'Rect(0, 416 - 480, 722)'
p1959
sS'Action'
p1960
S'[ ClassName: android.widget.ListView; Text: []; ContentDescription: null; ItemCount: 4; CurrentItemIndex: -1; IsEnabled: true; IsPassword: false; IsChecked: false; IsFullScreen: false; Scrollable: false; BeforeText: null; FromIndex: 0; ToIndex: 3; ScrollX: -1; ScrollY: -1; MaxScrollX: -1; MaxScrollY: -1; AddedCount: -1; RemovedCount: -1; ParcelableData: null ]'
p1961
sS'MovementGranularity'
p1962
g6
sa(dp1963
S'EventTime'
p1964
S'351147100'
p1965
sg4
L1449728650253L
sS'recordCount'
p1966
g6
sS'EventType'
p1967
S'TYPE_WINDOW_CONTENT_CHANGED'
p1968
sS'PackageName'
p1969
S'com.xdf.ucan'
p1970
sS'OutBounds'
p1971
S'Rect(0, 0 - 480, 800)'
p1972
sS'Action'
p1973
S'[ ClassName: android.widget.FrameLayout; Text: []; ContentDescription: null; ItemCount: -1; CurrentItemIndex: -1; IsEnabled: true; IsPassword: false; IsChecked: false; IsFullScreen: false; Scrollable: false; BeforeText: null; FromIndex: -1; ToIndex: -1; ScrollX: -1; ScrollY: -1; MaxScrollX: -1; MaxScrollY: -1; AddedCount: -1; RemovedCount: -1; ParcelableData: null ]'
p1974
sS'MovementGranularity'
p1975
g6
sa(dp1976
S'EventTime'
p1977
S'351147677'
p1978
sg4
L1449728650469L
sS'recordCount'
p1979
g6
sS'EventType'
p1980
S'TYPE_WINDOW_CONTENT_CHANGED'
p1981
sS'PackageName'
p1982
S'com.xdf.ucan'
p1983
sS'OutBounds'
p1984
S'Rect(0, 0 - 480, 800)'
p1985
sS'Action'
p1986
S'[ ClassName: android.widget.FrameLayout; Text: []; ContentDescription: null; ItemCount: -1; CurrentItemIndex: -1; IsEnabled: true; IsPassword: false; IsChecked: false; IsFullScreen: false; Scrollable: false; BeforeText: null; FromIndex: -1; ToIndex: -1; ScrollX: -1; ScrollY: -1; MaxScrollX: -1; MaxScrollY: -1; AddedCount: -1; RemovedCount: -1; ParcelableData: null ]'
p1987
sS'MovementGranularity'
p1988
g6
sa(dp1989
S'EventTime'
p1990
S'351147963'
p1991
sg4
L1449728650641L
sS'recordCount'
p1992
g6
sS'EventType'
p1993
S'TYPE_WINDOW_CONTENT_CHANGED'
p1994
sS'PackageName'
p1995
S'com.xdf.ucan'
p1996
sS'OutBounds'
p1997
S'Rect(0, 0 - 480, 800)'
p1998
sS'Action'
p1999
S'[ ClassName: android.widget.FrameLayout; Text: []; ContentDescription: null; ItemCount: -1; CurrentItemIndex: -1; IsEnabled: true; IsPassword: false; IsChecked: false; IsFullScreen: false; Scrollable: false; BeforeText: null; FromIndex: -1; ToIndex: -1; ScrollX: -1; ScrollY: -1; MaxScrollX: -1; MaxScrollY: -1; AddedCount: -1; RemovedCount: -1; ParcelableData: null ]'
p2000
sS'MovementGranularity'
p2001
g6
sa(dp2002
S'EventTime'
p2003
S'351167952'
p2004
sg4
L1449728670562L
sS'recordCount'
p2005
g6
sS'EventType'
p2006
S'TYPE_VIEW_CLICKED'
p2007
sS'PackageName'
p2008
S'com.xdf.ucan'
p2009
sS'OutBounds'
p2010
S'Rect(433, 38 - 465, 104)'
p2011
sS'Action'
p2012
S'[ ClassName: android.widget.TextView; Text: []; ContentDescription: null; ItemCount: -1; CurrentItemIndex: -1; IsEnabled: true; IsPassword: false; IsChecked: false; IsFullScreen: false; Scrollable: false; BeforeText: null; FromIndex: -1; ToIndex: -1; ScrollX: -1; ScrollY: -1; MaxScrollX: -1; MaxScrollY: -1; AddedCount: -1; RemovedCount: -1; ParcelableData: null ]'
p2013
sS'MovementGranularity'
p2014
g6
sa(dp2015
S'EventTime'
p2016
S'351168094'
p2017
sg4
L1449728670765L
sS'recordCount'
p2018
g6
sS'EventType'
p2019
S'TYPE_WINDOW_STATE_CHANGED'
p2020
sS'PackageName'
p2021
S'com.xdf.ucan'
p2022
sS'OutBounds'
p2023
S'Rect(0, 38 - 480, 800)'
p2024
sS'Action'
p2025
S'[ ClassName: com.xdf.ucan.views.LoadingDialog; Text: []; ContentDescription: null; ItemCount: -1; CurrentItemIndex: -1; IsEnabled: true; IsPassword: false; IsChecked: false; IsFullScreen: false; Scrollable: false; BeforeText: null; FromIndex: -1; ToIndex: -1; ScrollX: -1; ScrollY: -1; MaxScrollX: -1; MaxScrollY: -1; AddedCount: -1; RemovedCount: -1; ParcelableData: null ]'
p2026
sS'MovementGranularity'
p2027
g6
sa(dp2028
S'EventTime'
p2029
S'351168250'
p2030
sg4
L1449728670891L
sS'recordCount'
p2031
g6
sS'EventType'
p2032
S'TYPE_WINDOW_CONTENT_CHANGED'
p2033
sS'PackageName'
p2034
S'com.xdf.ucan'
p2035
sS'OutBounds'
p2036
S'Rect(0, 38 - 480, 800)'
p2037
sS'Action'
p2038
S'[ ClassName: android.widget.FrameLayout; Text: []; ContentDescription: null; ItemCount: -1; CurrentItemIndex: -1; IsEnabled: true; IsPassword: false; IsChecked: false; IsFullScreen: false; Scrollable: false; BeforeText: null; FromIndex: -1; ToIndex: -1; ScrollX: -1; ScrollY: -1; MaxScrollX: -1; MaxScrollY: -1; AddedCount: -1; RemovedCount: -1; ParcelableData: null ]'
p2039
sS'MovementGranularity'
p2040
g6
sa(dp2041
S'EventTime'
p2042
S'351169742'
p2043
sg4
L1449728672701L
sS'recordCount'
p2044
g6
sS'EventType'
p2045
S'TYPE_WINDOW_STATE_CHANGED'
p2046
sS'PackageName'
p2047
S'com.xdf.ucan'
p2048
sS'OutBounds'
p2049
S'Rect(0, 0 - 480, 800)'
p2050
sS'Action'
p2051
S'[ ClassName: com.xdf.ucan.ui.video.VideoPlayerActivity; Text: [\xe4\xbc\x98\xe6\x92\xad\xe8\xaf\xbe]; ContentDescription: null; ItemCount: -1; CurrentItemIndex: -1; IsEnabled: true; IsPassword: false; IsChecked: false; IsFullScreen: true; Scrollable: false; BeforeText: null; FromIndex: -1; ToIndex: -1; ScrollX: -1; ScrollY: -1; MaxScrollX: -1; MaxScrollY: -1; AddedCount: -1; RemovedCount: -1; ParcelableData: null ]'
p2052
sS'MovementGranularity'
p2053
g6
sa(dp2054
S'EventTime'
p2055
S'351171385'
p2056
sg4
L1449728674031L
sS'recordCount'
p2057
g6
sS'EventType'
p2058
S'TYPE_WINDOW_STATE_CHANGED'
p2059
sS'PackageName'
p2060
S'com.xdf.ucan'
p2061
sS'OutBounds'
p2062
S'Rect(0, 0 - 480, 800)'
p2063
sS'Action'
p2064
S'[ ClassName: com.mob.tools.MobUIShell; Text: [\xe4\xbc\x98\xe6\x92\xad\xe8\xaf\xbe]; ContentDescription: null; ItemCount: -1; CurrentItemIndex: -1; IsEnabled: true; IsPassword: false; IsChecked: false; IsFullScreen: true; Scrollable: false; BeforeText: null; FromIndex: -1; ToIndex: -1; ScrollX: -1; ScrollY: -1; MaxScrollX: -1; MaxScrollY: -1; AddedCount: -1; RemovedCount: -1; ParcelableData: null ]'
p2065
sS'MovementGranularity'
p2066
g6
sa(dp2067
S'EventTime'
p2068
S'351171592'
p2069
sg4
L1449728674565L
sS'recordCount'
p2070
g6
sS'EventType'
p2071
S'TYPE_WINDOW_CONTENT_CHANGED'
p2072
sS'PackageName'
p2073
S'com.xdf.ucan'
p2074
sS'OutBounds'
p2075
S'Rect(0, 0 - 480, 800)'
p2076
sS'Action'
p2077
S'[ ClassName: android.widget.FrameLayout; Text: []; ContentDescription: null; ItemCount: -1; CurrentItemIndex: -1; IsEnabled: true; IsPassword: false; IsChecked: false; IsFullScreen: false; Scrollable: false; BeforeText: null; FromIndex: -1; ToIndex: -1; ScrollX: -1; ScrollY: -1; MaxScrollX: -1; MaxScrollY: -1; AddedCount: -1; RemovedCount: -1; ParcelableData: null ]'
p2078
sS'MovementGranularity'
p2079
g6
sa(dp2080
S'EventTime'
p2081
S'351177406'
p2082
sg4
L1449728680018L
sS'recordCount'
p2083
g6
sS'EventType'
p2084
S'TYPE_VIEW_CLICKED'
p2085
sS'PackageName'
p2086
S'com.xdf.ucan'
p2087
sS'OutBounds'
p2088
S'Rect(163, 543 - 318, 694)'
p2089
sS'Action'
p2090
S'[ ClassName: android.widget.LinearLayout; Text: [\xe5\xbe\xae\xe4\xbf\xa1\xe6\x9c\x8b\xe5\x8f\x8b\xe5\x9c\x88]; ContentDescription: null; ItemCount: -1; CurrentItemIndex: -1; IsEnabled: true; IsPassword: false; IsChecked: false; IsFullScreen: false; Scrollable: false; BeforeText: null; FromIndex: -1; ToIndex: -1; ScrollX: -1; ScrollY: -1; MaxScrollX: -1; MaxScrollY: -1; AddedCount: -1; RemovedCount: -1; ParcelableData: null ]'
p2091
sS'MovementGranularity'
p2092
g6
sa(dp2093
S'EventTime'
p2094
S'351178183'
p2095
sg4
L1449728680796L
sS'recordCount'
p2096
g6
sS'EventType'
p2097
S'TYPE_NOTIFICATION_STATE_CHANGED'
p2098
sS'PackageName'
p2099
S'com.xdf.ucan'
p2100
sS'Action'
p2101
S'[ ClassName: android.widget.Toast$TN; Text: [\xe5\x88\x86\xe4\xba\xab\xe6\x93\x8d\xe4\xbd\x9c\xe6\xad\xa3\xe5\x9c\xa8\xe5\x90\x8e\xe5\x8f\xb0\xe8\xbf\x9b\xe8\xa1\x8c\xe2\x80\xa6]; ContentDescription: null; ItemCount: -1; CurrentItemIndex: -1; IsEnabled: false; IsPassword: false; IsChecked: false; IsFullScreen: false; Scrollable: false; BeforeText: null; FromIndex: -1; ToIndex: -1; ScrollX: -1; ScrollY: -1; MaxScrollX: -1; MaxScrollY: -1; AddedCount: -1; RemovedCount: -1; ParcelableData: null ]'
p2102
sS'MovementGranularity'
p2103
g6
sa(dp2104
S'EventTime'
p2105
S'351179272'
p2106
sg4
L1449728682123L
sS'recordCount'
p2107
g6
sS'EventType'
p2108
S'TYPE_WINDOW_CONTENT_CHANGED'
p2109
sS'PackageName'
p2110
S'com.xdf.ucan'
p2111
sS'Action'
p2112
S'[ ClassName: android.widget.FrameLayout; Text: []; ContentDescription: null; ItemCount: -1; CurrentItemIndex: -1; IsEnabled: true; IsPassword: false; IsChecked: false; IsFullScreen: false; Scrollable: false; BeforeText: null; FromIndex: -1; ToIndex: -1; ScrollX: -1; ScrollY: -1; MaxScrollX: -1; MaxScrollY: -1; AddedCount: -1; RemovedCount: -1; ParcelableData: null ]'
p2113
sS'MovementGranularity'
p2114
g6
sa(dp2115
S'EventTime'
p2116
S'351179481'
p2117
sg4
L1449728682476L
sS'recordCount'
p2118
g6
sS'EventType'
p2119
S'TYPE_WINDOW_STATE_CHANGED'
p2120
sS'PackageName'
p2121
S'com.xdf.ucan'
p2122
sS'OutBounds'
p2123
S'Rect(0, 0 - 480, 800)'
p2124
sS'Action'
p2125
S'[ ClassName: com.xdf.ucan.ui.video.VideoPlayerActivity; Text: [\xe4\xbc\x98\xe6\x92\xad\xe8\xaf\xbe]; ContentDescription: null; ItemCount: -1; CurrentItemIndex: -1; IsEnabled: true; IsPassword: false; IsChecked: false; IsFullScreen: true; Scrollable: false; BeforeText: null; FromIndex: -1; ToIndex: -1; ScrollX: -1; ScrollY: -1; MaxScrollX: -1; MaxScrollY: -1; AddedCount: -1; RemovedCount: -1; ParcelableData: null ]'
p2126
sS'MovementGranularity'
p2127
g6
sa(dp2128
S'EventTime'
p2129
S'351237908'
p2130
sg4
L1449728740693L
sS'recordCount'
p2131
g6
sS'EventType'
p2132
S'TYPE_WINDOW_STATE_CHANGED'
p2133
sS'PackageName'
p2134
S'com.xdf.ucan'
p2135
sS'OutBounds'
p2136
S'Rect(0, 0 - 480, 800)'
p2137
sS'Action'
p2138
S'[ ClassName: com.xdf.ucan.ui.video.VideoPlayerActivity; Text: [\xe4\xbc\x98\xe6\x92\xad\xe8\xaf\xbe]; ContentDescription: null; ItemCount: -1; CurrentItemIndex: -1; IsEnabled: true; IsPassword: false; IsChecked: false; IsFullScreen: true; Scrollable: false; BeforeText: null; FromIndex: -1; ToIndex: -1; ScrollX: -1; ScrollY: -1; MaxScrollX: -1; MaxScrollY: -1; AddedCount: -1; RemovedCount: -1; ParcelableData: null ]'
p2139
sS'MovementGranularity'
p2140
g6
sa(dp2141
S'EventTime'
p2142
S'351238188'
p2143
sg4
L1449728740901L
sS'recordCount'
p2144
g6
sS'EventType'
p2145
S'TYPE_WINDOW_CONTENT_CHANGED'
p2146
sS'PackageName'
p2147
S'com.xdf.ucan'
p2148
sS'OutBounds'
p2149
S'Rect(0, 0 - 480, 800)'
p2150
sS'Action'
p2151
S'[ ClassName: android.widget.FrameLayout; Text: []; ContentDescription: null; ItemCount: -1; CurrentItemIndex: -1; IsEnabled: true; IsPassword: false; IsChecked: false; IsFullScreen: false; Scrollable: false; BeforeText: null; FromIndex: -1; ToIndex: -1; ScrollX: -1; ScrollY: -1; MaxScrollX: -1; MaxScrollY: -1; AddedCount: -1; RemovedCount: -1; ParcelableData: null ]'
p2152
sS'MovementGranularity'
p2153
g6
sa(dp2154
S'EventTime'
p2155
S'351249430'
p2156
sg4
L1449728752039L
sS'recordCount'
p2157
g6
sS'EventType'
p2158
S'TYPE_VIEW_CLICKED'
p2159
sS'PackageName'
p2160
S'com.xdf.ucan'
p2161
sS'OutBounds'
p2162
S'Rect(15, 38 - 91, 104)'
p2163
sS'Action'
p2164
S'[ ClassName: android.widget.TextView; Text: [\xe8\xbf\x94\xe5\x9b\x9e]; ContentDescription: null; ItemCount: -1; CurrentItemIndex: -1; IsEnabled: true; IsPassword: false; IsChecked: false; IsFullScreen: false; Scrollable: false; BeforeText: null; FromIndex: -1; ToIndex: -1; ScrollX: -1; ScrollY: -1; MaxScrollX: -1; MaxScrollY: -1; AddedCount: -1; RemovedCount: -1; ParcelableData: null ]'
p2165
sS'MovementGranularity'
p2166
g6
sa(dp2167
S'EventTime'
p2168
S'351251102'
p2169
sg4
L1449728753897L
sS'recordCount'
p2170
g6
sS'EventType'
p2171
S'TYPE_WINDOW_STATE_CHANGED'
p2172
sS'PackageName'
p2173
S'com.xdf.ucan'
p2174
sS'OutBounds'
p2175
S'Rect(0, 0 - 480, 800)'
p2176
sS'Action'
p2177
S'[ ClassName: com.xdf.ucan.ui.video.VideoListActivity; Text: [\xe4\xbc\x98\xe6\x92\xad\xe8\xaf\xbe]; ContentDescription: null; ItemCount: -1; CurrentItemIndex: -1; IsEnabled: true; IsPassword: false; IsChecked: false; IsFullScreen: true; Scrollable: false; BeforeText: null; FromIndex: -1; ToIndex: -1; ScrollX: -1; ScrollY: -1; MaxScrollX: -1; MaxScrollY: -1; AddedCount: -1; RemovedCount: -1; ParcelableData: null ]'
p2178
sS'MovementGranularity'
p2179
g6
sa(dp2180
S'EventTime'
p2181
S'351251103'
p2182
sg4
L1449728753973L
sS'recordCount'
p2183
g6
sS'EventType'
p2184
S'TYPE_WINDOW_CONTENT_CHANGED'
p2185
sS'PackageName'
p2186
S'com.xdf.ucan'
p2187
sS'OutBounds'
p2188
S'Rect(0, 0 - 480, 800)'
p2189
sS'Action'
p2190
S'[ ClassName: android.widget.FrameLayout; Text: []; ContentDescription: null; ItemCount: -1; CurrentItemIndex: -1; IsEnabled: true; IsPassword: false; IsChecked: false; IsFullScreen: false; Scrollable: false; BeforeText: null; FromIndex: -1; ToIndex: -1; ScrollX: -1; ScrollY: -1; MaxScrollX: -1; MaxScrollY: -1; AddedCount: -1; RemovedCount: -1; ParcelableData: null ]'
p2191
sS'MovementGranularity'
p2192
g6
sa(dp2193
S'EventTime'
p2194
S'351252942'
p2195
sg4
L1449728757256L
sS'recordCount'
p2196
g6
sS'EventType'
p2197
S'TYPE_WINDOW_CONTENT_CHANGED'
p2198
sS'PackageName'
p2199
S'com.xdf.ucan'
p2200
sS'OutBounds'
p2201
S'Rect(0, 0 - 480, 800)'
p2202
sS'Action'
p2203
S'[ ClassName: android.widget.FrameLayout; Text: []; ContentDescription: null; ItemCount: -1; CurrentItemIndex: -1; IsEnabled: true; IsPassword: false; IsChecked: false; IsFullScreen: false; Scrollable: false; BeforeText: null; FromIndex: -1; ToIndex: -1; ScrollX: -1; ScrollY: -1; MaxScrollX: -1; MaxScrollY: -1; AddedCount: -1; RemovedCount: -1; ParcelableData: null ]'
p2204
sS'MovementGranularity'
p2205
g6
sa(dp2206
S'EventTime'
p2207
S'351254857'
p2208
sg4
L1449728757554L
sS'recordCount'
p2209
g6
sS'EventType'
p2210
S'TYPE_VIEW_SCROLLED'
p2211
sS'PackageName'
p2212
S'com.xdf.ucan'
p2213
sS'OutBounds'
p2214
S'Rect(0, 104 - 480, 800)'
p2215
sS'Action'
p2216
S'[ ClassName: android.widget.ListView; Text: []; ContentDescription: null; ItemCount: 16; CurrentItemIndex: -1; IsEnabled: true; IsPassword: false; IsChecked: false; IsFullScreen: false; Scrollable: true; BeforeText: null; FromIndex: 3; ToIndex: 6; ScrollX: -1; ScrollY: -1; MaxScrollX: -1; MaxScrollY: -1; AddedCount: -1; RemovedCount: -1; ParcelableData: null ]'
p2217
sS'MovementGranularity'
p2218
g6
sa(dp2219
S'EventTime'
p2220
S'351254859'
p2221
sg4
L1449728757616L
sS'recordCount'
p2222
g6
sS'EventType'
p2223
S'TYPE_WINDOW_CONTENT_CHANGED'
p2224
sS'PackageName'
p2225
S'com.xdf.ucan'
p2226
sS'OutBounds'
p2227
S'Rect(0, 0 - 480, 800)'
p2228
sS'Action'
p2229
S'[ ClassName: android.widget.FrameLayout; Text: []; ContentDescription: null; ItemCount: -1; CurrentItemIndex: -1; IsEnabled: true; IsPassword: false; IsChecked: false; IsFullScreen: false; Scrollable: false; BeforeText: null; FromIndex: -1; ToIndex: -1; ScrollX: -1; ScrollY: -1; MaxScrollX: -1; MaxScrollY: -1; AddedCount: -1; RemovedCount: -1; ParcelableData: null ]'
p2230
sS'MovementGranularity'
p2231
g6
sa(dp2232
S'EventTime'
p2233
S'351255179'
p2234
sg4
L1449728757875L
sS'recordCount'
p2235
g6
sS'EventType'
p2236
S'TYPE_VIEW_SCROLLED'
p2237
sS'PackageName'
p2238
S'com.xdf.ucan'
p2239
sS'OutBounds'
p2240
S'Rect(0, 104 - 480, 800)'
p2241
sS'Action'
p2242
S'[ ClassName: android.widget.ListView; Text: []; ContentDescription: null; ItemCount: 16; CurrentItemIndex: -1; IsEnabled: true; IsPassword: false; IsChecked: false; IsFullScreen: false; Scrollable: true; BeforeText: null; FromIndex: 4; ToIndex: 7; ScrollX: -1; ScrollY: -1; MaxScrollX: -1; MaxScrollY: -1; AddedCount: -1; RemovedCount: -1; ParcelableData: null ]'
p2243
sS'MovementGranularity'
p2244
g6
sa(dp2245
S'EventTime'
p2246
S'351255917'
p2247
sg4
L1449728758600L
sS'recordCount'
p2248
g6
sS'EventType'
p2249
S'TYPE_VIEW_SCROLLED'
p2250
sS'PackageName'
p2251
S'com.xdf.ucan'
p2252
sS'OutBounds'
p2253
S'Rect(0, 104 - 480, 800)'
p2254
sS'Action'
p2255
S'[ ClassName: android.widget.ListView; Text: []; ContentDescription: null; ItemCount: 16; CurrentItemIndex: -1; IsEnabled: true; IsPassword: false; IsChecked: false; IsFullScreen: false; Scrollable: true; BeforeText: null; FromIndex: 2; ToIndex: 5; ScrollX: -1; ScrollY: -1; MaxScrollX: -1; MaxScrollY: -1; AddedCount: -1; RemovedCount: -1; ParcelableData: null ]'
p2256
sS'MovementGranularity'
p2257
g6
sa(dp2258
S'EventTime'
p2259
S'351256107'
p2260
sg4
L1449728758780L
sS'recordCount'
p2261
g6
sS'EventType'
p2262
S'TYPE_VIEW_SCROLLED'
p2263
sS'PackageName'
p2264
S'com.xdf.ucan'
p2265
sS'OutBounds'
p2266
S'Rect(0, 104 - 480, 800)'
p2267
sS'Action'
p2268
S'[ ClassName: android.widget.ListView; Text: []; ContentDescription: null; ItemCount: 16; CurrentItemIndex: -1; IsEnabled: true; IsPassword: false; IsChecked: false; IsFullScreen: false; Scrollable: true; BeforeText: null; FromIndex: 0; ToIndex: 4; ScrollX: -1; ScrollY: -1; MaxScrollX: -1; MaxScrollY: -1; AddedCount: -1; RemovedCount: -1; ParcelableData: null ]'
p2269
sS'MovementGranularity'
p2270
g6
sa(dp2271
S'EventTime'
p2272
S'351256871'
p2273
sg4
L1449728759584L
sS'recordCount'
p2274
g6
sS'EventType'
p2275
S'TYPE_WINDOW_CONTENT_CHANGED'
p2276
sS'PackageName'
p2277
S'com.xdf.ucan'
p2278
sS'OutBounds'
p2279
S'Rect(0, 0 - 480, 800)'
p2280
sS'Action'
p2281
S'[ ClassName: android.widget.FrameLayout; Text: []; ContentDescription: null; ItemCount: -1; CurrentItemIndex: -1; IsEnabled: true; IsPassword: false; IsChecked: false; IsFullScreen: false; Scrollable: false; BeforeText: null; FromIndex: -1; ToIndex: -1; ScrollX: -1; ScrollY: -1; MaxScrollX: -1; MaxScrollY: -1; AddedCount: -1; RemovedCount: -1; ParcelableData: null ]'
p2282
sS'MovementGranularity'
p2283
g6
sa(dp2284
S'EventTime'
p2285
S'351257083'
p2286
sg4
L1449728759845L
sS'recordCount'
p2287
g6
sS'EventType'
p2288
S'TYPE_WINDOW_CONTENT_CHANGED'
p2289
sS'PackageName'
p2290
S'com.xdf.ucan'
p2291
sS'OutBounds'
p2292
S'Rect(0, 0 - 480, 800)'
p2293
sS'Action'
p2294
S'[ ClassName: android.widget.FrameLayout; Text: []; ContentDescription: null; ItemCount: -1; CurrentItemIndex: -1; IsEnabled: true; IsPassword: false; IsChecked: false; IsFullScreen: false; Scrollable: false; BeforeText: null; FromIndex: -1; ToIndex: -1; ScrollX: -1; ScrollY: -1; MaxScrollX: -1; MaxScrollY: -1; AddedCount: -1; RemovedCount: -1; ParcelableData: null ]'
p2295
sS'MovementGranularity'
p2296
g6
sa(dp2297
S'EventTime'
p2298
S'351298810'
p2299
sg4
L1449728801420L
sS'recordCount'
p2300
g6
sS'EventType'
p2301
S'TYPE_VIEW_CLICKED'
p2302
sS'PackageName'
p2303
S'com.xdf.ucan'
p2304
sS'OutBounds'
p2305
S'Rect(15, 38 - 91, 104)'
p2306
sS'Action'
p2307
S'[ ClassName: android.widget.TextView; Text: [\xe8\xbf\x94\xe5\x9b\x9e]; ContentDescription: null; ItemCount: -1; CurrentItemIndex: -1; IsEnabled: true; IsPassword: false; IsChecked: false; IsFullScreen: false; Scrollable: false; BeforeText: null; FromIndex: -1; ToIndex: -1; ScrollX: -1; ScrollY: -1; MaxScrollX: -1; MaxScrollY: -1; AddedCount: -1; RemovedCount: -1; ParcelableData: null ]'
p2308
sS'MovementGranularity'
p2309
g6
sa(dp2310
S'EventTime'
p2311
S'351300121'
p2312
sg4
L1449728802750L
sS'recordCount'
p2313
g6
sS'EventType'
p2314
S'TYPE_WINDOW_STATE_CHANGED'
p2315
sS'PackageName'
p2316
S'com.xdf.ucan'
p2317
sS'OutBounds'
p2318
S'Rect(0, 0 - 480, 800)'
p2319
sS'Action'
p2320
S'[ ClassName: com.xdf.ucan.MainActivity; Text: [\xe4\xbc\x98\xe6\x92\xad\xe8\xaf\xbe]; ContentDescription: null; ItemCount: -1; CurrentItemIndex: -1; IsEnabled: true; IsPassword: false; IsChecked: false; IsFullScreen: true; Scrollable: false; BeforeText: null; FromIndex: -1; ToIndex: -1; ScrollX: -1; ScrollY: -1; MaxScrollX: -1; MaxScrollY: -1; AddedCount: -1; RemovedCount: -1; ParcelableData: null ]'
p2321
sS'MovementGranularity'
p2322
g6
sa(dp2323
S'EventTime'
p2324
S'351300124'
p2325
sg4
L1449728802893L
sS'recordCount'
p2326
g6
sS'EventType'
p2327
S'TYPE_WINDOW_CONTENT_CHANGED'
p2328
sS'PackageName'
p2329
S'com.xdf.ucan'
p2330
sS'OutBounds'
p2331
S'Rect(0, 0 - 480, 800)'
p2332
sS'Action'
p2333
S'[ ClassName: android.widget.FrameLayout; Text: []; ContentDescription: null; ItemCount: -1; CurrentItemIndex: -1; IsEnabled: true; IsPassword: false; IsChecked: false; IsFullScreen: false; Scrollable: false; BeforeText: null; FromIndex: -1; ToIndex: -1; ScrollX: -1; ScrollY: -1; MaxScrollX: -1; MaxScrollY: -1; AddedCount: -1; RemovedCount: -1; ParcelableData: null ]'
p2334
sS'MovementGranularity'
p2335
g6
sa.