(lp0
(dp1
S'EventTime'
p2
S'4759521'
p3
sS'SyscTime'
p4
L1449716152848L
sS'recordCount'
p5
S'0'
p6
sS'EventType'
p7
S'TYPE_WINDOW_STATE_CHANGED'
p8
sS'PackageName'
p9
S'com.example.myfristandroid'
p10
sS'OutBounds'
p11
S'Rect(0, 0 - 720, 1280)'
p12
sS'Action'
p13
S'[ ClassName: com.example.myfristandroid.SplashActivity; Text: [SE-1800\xe7\xa7\xbb\xe5\x8a\xa8APP]; ContentDescription: null; ItemCount: -1; CurrentItemIndex: -1; IsEnabled: true; IsPassword: false; IsChecked: false; IsFullScreen: true; Scrollable: false; BeforeText: null; FromIndex: -1; ToIndex: -1; ScrollX: -1; ScrollY: -1; MaxScrollX: -1; MaxScrollY: -1; AddedCount: -1; RemovedCount: -1; ParcelableData: null ]'
p14
sS'MovementGranularity'
p15
g6
sa(dp16
S'EventTime'
p17
S'4759522'
p18
sg4
L1449716152864L
sS'recordCount'
p19
g6
sS'EventType'
p20
S'TYPE_WINDOW_CONTENT_CHANGED'
p21
sS'PackageName'
p22
S'com.example.myfristandroid'
p23
sS'OutBounds'
p24
S'Rect(0, 0 - 720, 1280)'
p25
sS'Action'
p26
S'[ ClassName: android.widget.FrameLayout; Text: []; ContentDescription: null; ItemCount: -1; CurrentItemIndex: -1; IsEnabled: true; IsPassword: false; IsChecked: false; IsFullScreen: false; Scrollable: false; BeforeText: null; FromIndex: -1; ToIndex: -1; ScrollX: -1; ScrollY: -1; MaxScrollX: -1; MaxScrollY: -1; AddedCount: -1; RemovedCount: -1; ParcelableData: null ]'
p27
sS'MovementGranularity'
p28
g6
sa(dp29
S'EventTime'
p30
S'4759770'
p31
sg4
L1449716152945L
sS'recordCount'
p32
g6
sS'EventType'
p33
S'TYPE_WINDOW_CONTENT_CHANGED'
p34
sS'PackageName'
p35
S'com.example.myfristandroid'
p36
sS'OutBounds'
p37
S'Rect(0, 0 - 720, 1280)'
p38
sS'Action'
p39
S'[ ClassName: android.widget.FrameLayout; Text: []; ContentDescription: null; ItemCount: -1; CurrentItemIndex: -1; IsEnabled: true; IsPassword: false; IsChecked: false; IsFullScreen: false; Scrollable: false; BeforeText: null; FromIndex: -1; ToIndex: -1; ScrollX: -1; ScrollY: -1; MaxScrollX: -1; MaxScrollY: -1; AddedCount: -1; RemovedCount: -1; ParcelableData: null ]'
p40
sS'MovementGranularity'
p41
g6
sa(dp42
S'EventTime'
p43
S'4761818'
p44
sg4
L1449716155021L
sS'recordCount'
p45
g6
sS'EventType'
p46
S'TYPE_VIEW_FOCUSED'
p47
sS'PackageName'
p48
S'com.example.myfristandroid'
p49
sS'Action'
p50
S'[ ClassName: android.widget.LinearLayout; Text: []; ContentDescription: null; ItemCount: 6; CurrentItemIndex: 0; IsEnabled: true; IsPassword: false; IsChecked: false; IsFullScreen: false; Scrollable: false; BeforeText: null; FromIndex: -1; ToIndex: -1; ScrollX: -1; ScrollY: -1; MaxScrollX: -1; MaxScrollY: -1; AddedCount: -1; RemovedCount: -1; ParcelableData: null ]'
p51
sS'MovementGranularity'
p52
g6
sa(dp53
S'EventTime'
p54
S'4761959'
p55
sg4
L1449716155170L
sS'recordCount'
p56
g6
sS'EventType'
p57
S'TYPE_WINDOW_STATE_CHANGED'
p58
sS'PackageName'
p59
S'com.example.myfristandroid'
p60
sS'OutBounds'
p61
S'Rect(0, 0 - 720, 1280)'
p62
sS'Action'
p63
S'[ ClassName: com.example.myfristandroid.MainActivity; Text: [SE-1800\xe7\xa7\xbb\xe5\x8a\xa8APP]; ContentDescription: null; ItemCount: -1; CurrentItemIndex: -1; IsEnabled: true; IsPassword: false; IsChecked: false; IsFullScreen: true; Scrollable: false; BeforeText: null; FromIndex: -1; ToIndex: -1; ScrollX: -1; ScrollY: -1; MaxScrollX: -1; MaxScrollY: -1; AddedCount: -1; RemovedCount: -1; ParcelableData: null ]'
p64
sS'MovementGranularity'
p65
g6
sa(dp66
S'EventTime'
p67
S'4761967'
p68
sg4
L1449716155177L
sS'recordCount'
p69
g6
sS'EventType'
p70
S'TYPE_VIEW_SCROLLED'
p71
sS'PackageName'
p72
S'com.example.myfristandroid'
p73
sS'OutBounds'
p74
S'Rect(732, 416 - 1428, 416)'
p75
sS'Action'
p76
S'[ ClassName: android.widget.ListView; Text: []; ContentDescription: null; ItemCount: 0; CurrentItemIndex: -1; IsEnabled: true; IsPassword: false; IsChecked: false; IsFullScreen: false; Scrollable: false; BeforeText: null; FromIndex: 0; ToIndex: -1; ScrollX: -1; ScrollY: -1; MaxScrollX: -1; MaxScrollY: -1; AddedCount: -1; RemovedCount: -1; ParcelableData: null ]'
p77
sS'MovementGranularity'
p78
g6
sa(dp79
S'EventTime'
p80
S'4762096'
p81
sg4
L1449716155291L
sS'recordCount'
p82
g6
sS'EventType'
p83
S'TYPE_WINDOW_CONTENT_CHANGED'
p84
sS'PackageName'
p85
S'com.example.myfristandroid'
p86
sS'OutBounds'
p87
S'Rect(0, 0 - 720, 1280)'
p88
sS'Action'
p89
S'[ ClassName: android.widget.FrameLayout; Text: []; ContentDescription: null; ItemCount: -1; CurrentItemIndex: -1; IsEnabled: true; IsPassword: false; IsChecked: false; IsFullScreen: false; Scrollable: false; BeforeText: null; FromIndex: -1; ToIndex: -1; ScrollX: -1; ScrollY: -1; MaxScrollX: -1; MaxScrollY: -1; AddedCount: -1; RemovedCount: -1; ParcelableData: null ]'
p90
sS'MovementGranularity'
p91
g6
sa(dp92
S'EventTime'
p93
S'4762907'
p94
sg4
L1449716156107L
sS'recordCount'
p95
g6
sS'EventType'
p96
S'TYPE_WINDOW_STATE_CHANGED'
p97
sS'PackageName'
p98
S'com.example.myfristandroid'
p99
sS'OutBounds'
p100
S'Rect(0, 0 - 720, 1280)'
p101
sS'Action'
p102
S'[ ClassName: com.example.myfristandroid.HuzAlertDialog; Text: [\xe6\x8f\x90\xe7\xa4\xba, \xe7\x89\x88\xe6\x9c\xac\xe6\x9c\x89\xe6\x9b\xb4\xe6\x96\xb0\xef\xbc\x8c\xe6\x98\xaf\xe5\x90\xa6\xe9\x9c\x80\xe8\xa6\x81\xe6\x9b\xb4\xe6\x96\xb0, \xe7\xab\x8b\xe5\x8d\xb3\xe6\x9b\xb4\xe6\x96\xb0, \xe7\xa8\x8d\xe5\x90\x8e\xe6\x9b\xb4\xe6\x96\xb0]; ContentDescription: null; ItemCount: -1; CurrentItemIndex: -1; IsEnabled: true; IsPassword: false; IsChecked: false; IsFullScreen: true; Scrollable: false; BeforeText: null; FromIndex: -1; ToIndex: -1; ScrollX: -1; ScrollY: -1; MaxScrollX: -1; MaxScrollY: -1; AddedCount: -1; RemovedCount: -1; ParcelableData: null ]'
p103
sS'MovementGranularity'
p104
g6
sa(dp105
S'EventTime'
p106
S'4762964'
p107
sg4
L1449716156170L
sS'recordCount'
p108
g6
sS'EventType'
p109
S'TYPE_WINDOW_CONTENT_CHANGED'
p110
sS'PackageName'
p111
S'com.example.myfristandroid'
p112
sS'OutBounds'
p113
S'Rect(0, 0 - 720, 1280)'
p114
sS'Action'
p115
S'[ ClassName: android.widget.FrameLayout; Text: []; ContentDescription: null; ItemCount: -1; CurrentItemIndex: -1; IsEnabled: true; IsPassword: false; IsChecked: false; IsFullScreen: false; Scrollable: false; BeforeText: null; FromIndex: -1; ToIndex: -1; ScrollX: -1; ScrollY: -1; MaxScrollX: -1; MaxScrollY: -1; AddedCount: -1; RemovedCount: -1; ParcelableData: null ]'
p116
sS'MovementGranularity'
p117
g6
sa(dp118
S'EventTime'
p119
S'4763108'
p120
sg4
L1449716156291L
sS'recordCount'
p121
g6
sS'EventType'
p122
S'TYPE_WINDOW_CONTENT_CHANGED'
p123
sS'PackageName'
p124
S'com.example.myfristandroid'
p125
sS'OutBounds'
p126
S'Rect(0, 0 - 720, 1280)'
p127
sS'Action'
p128
S'[ ClassName: android.widget.FrameLayout; Text: []; ContentDescription: null; ItemCount: -1; CurrentItemIndex: -1; IsEnabled: true; IsPassword: false; IsChecked: false; IsFullScreen: false; Scrollable: false; BeforeText: null; FromIndex: -1; ToIndex: -1; ScrollX: -1; ScrollY: -1; MaxScrollX: -1; MaxScrollY: -1; AddedCount: -1; RemovedCount: -1; ParcelableData: null ]'
p129
sS'MovementGranularity'
p130
g6
sa(dp131
S'EventTime'
p132
S'4764051'
p133
sg4
L1449716157234L
sS'recordCount'
p134
g6
sS'EventType'
p135
S'TYPE_VIEW_CLICKED'
p136
sS'PackageName'
p137
S'com.example.myfristandroid'
p138
sS'OutBounds'
p139
S'Rect(372, 711 - 679, 807)'
p140
sS'Action'
p141
S'[ ClassName: android.widget.Button; Text: [\xe7\xa8\x8d\xe5\x90\x8e\xe6\x9b\xb4\xe6\x96\xb0]; ContentDescription: null; ItemCount: -1; CurrentItemIndex: -1; IsEnabled: true; IsPassword: false; IsChecked: false; IsFullScreen: false; Scrollable: false; BeforeText: null; FromIndex: -1; ToIndex: -1; ScrollX: -1; ScrollY: -1; MaxScrollX: -1; MaxScrollY: -1; AddedCount: -1; RemovedCount: -1; ParcelableData: null ]'
p142
sS'MovementGranularity'
p143
g6
sa(dp144
S'EventTime'
p145
S'4764133'
p146
sg4
L1449716157339L
sS'recordCount'
p147
g6
sS'EventType'
p148
S'TYPE_WINDOW_STATE_CHANGED'
p149
sS'PackageName'
p150
S'com.example.myfristandroid'
p151
sS'OutBounds'
p152
S'Rect(0, 0 - 720, 1280)'
p153
sS'Action'
p154
S'[ ClassName: com.example.myfristandroid.MainActivity; Text: [SE-1800\xe7\xa7\xbb\xe5\x8a\xa8APP]; ContentDescription: null; ItemCount: -1; CurrentItemIndex: -1; IsEnabled: true; IsPassword: false; IsChecked: false; IsFullScreen: true; Scrollable: false; BeforeText: null; FromIndex: -1; ToIndex: -1; ScrollX: -1; ScrollY: -1; MaxScrollX: -1; MaxScrollY: -1; AddedCount: -1; RemovedCount: -1; ParcelableData: null ]'
p155
sS'MovementGranularity'
p156
g6
sa(dp157
S'EventTime'
p158
S'4774394'
p159
sg4
L1449716167569L
sS'recordCount'
p160
g6
sS'EventType'
p161
S'TYPE_VIEW_CLICKED'
p162
sS'PackageName'
p163
S'com.example.myfristandroid'
p164
sS'OutBounds'
p165
S'Rect(180, 1170 - 360, 1280)'
p166
sS'Action'
p167
S'[ ClassName: android.widget.LinearLayout; Text: [\xe6\x9f\xa5\xe7\x9c\x8b\xe5\xae\x9e\xe6\x97\xb6\xe6\x95\xb0\xe6\x8d\xae\xe4\xbf\xa1\xe6\x81\xaf, \xe6\x95\xb0\xe6\x8d\xae]; ContentDescription: null; ItemCount: -1; CurrentItemIndex: -1; IsEnabled: true; IsPassword: false; IsChecked: false; IsFullScreen: false; Scrollable: false; BeforeText: null; FromIndex: -1; ToIndex: -1; ScrollX: -1; ScrollY: -1; MaxScrollX: -1; MaxScrollY: -1; AddedCount: -1; RemovedCount: -1; ParcelableData: null ]'
p168
sS'MovementGranularity'
p169
g6
sa(dp170
S'EventTime'
p171
S'4774401'
p172
sg4
L1449716167589L
sS'recordCount'
p173
g6
sS'EventType'
p174
S'TYPE_VIEW_FOCUSED'
p175
sS'PackageName'
p176
S'com.example.myfristandroid'
p177
sS'OutBounds'
p178
S'Rect(38, 300 - 746, 360)'
p179
sS'Action'
p180
S'[ ClassName: android.widget.EditText; Text: [\xe6\x90\x9c\xe7\xb4\xa2]; ContentDescription: null; ItemCount: 10; CurrentItemIndex: 4; IsEnabled: true; IsPassword: false; IsChecked: false; IsFullScreen: false; Scrollable: false; BeforeText: null; FromIndex: -1; ToIndex: -1; ScrollX: -1; ScrollY: -1; MaxScrollX: -1; MaxScrollY: -1; AddedCount: -1; RemovedCount: -1; ParcelableData: null ]'
p181
sS'MovementGranularity'
p182
g6
sa(dp183
S'EventTime'
p184
S'4774509'
p185
sg4
L1449716167708L
sS'recordCount'
p186
g6
sS'EventType'
p187
S'TYPE_WINDOW_CONTENT_CHANGED'
p188
sS'PackageName'
p189
S'com.example.myfristandroid'
p190
sS'OutBounds'
p191
S'Rect(0, 0 - 720, 1280)'
p192
sS'Action'
p193
S'[ ClassName: android.widget.FrameLayout; Text: []; ContentDescription: null; ItemCount: -1; CurrentItemIndex: -1; IsEnabled: true; IsPassword: false; IsChecked: false; IsFullScreen: false; Scrollable: false; BeforeText: null; FromIndex: -1; ToIndex: -1; ScrollX: -1; ScrollY: -1; MaxScrollX: -1; MaxScrollY: -1; AddedCount: -1; RemovedCount: -1; ParcelableData: null ]'
p194
sS'MovementGranularity'
p195
g6
sa(dp196
S'EventTime'
p197
S'4774516'
p198
sg4
L1449716167728L
sS'recordCount'
p199
g6
sS'EventType'
p200
S'TYPE_VIEW_SCROLLED'
p201
sS'PackageName'
p202
S'com.example.myfristandroid'
p203
sS'OutBounds'
p204
S'Rect(0, 140 - 720, 1170)'
p205
sS'Action'
p206
S'[ ClassName: android.support.v4.view.ViewPager; Text: []; ContentDescription: null; ItemCount: -1; CurrentItemIndex: -1; IsEnabled: true; IsPassword: false; IsChecked: false; IsFullScreen: false; Scrollable: false; BeforeText: null; FromIndex: -1; ToIndex: -1; ScrollX: -1; ScrollY: -1; MaxScrollX: -1; MaxScrollY: -1; AddedCount: -1; RemovedCount: -1; ParcelableData: null ]'
p207
sS'MovementGranularity'
p208
g6
sa(dp209
S'EventTime'
p210
S'4774634'
p211
sg4
L1449716167824L
sS'recordCount'
p212
g6
sS'EventType'
p213
S'TYPE_VIEW_SCROLLED'
p214
sS'PackageName'
p215
S'com.example.myfristandroid'
p216
sS'OutBounds'
p217
S'Rect(0, 140 - 720, 1170)'
p218
sS'Action'
p219
S'[ ClassName: android.support.v4.view.ViewPager; Text: []; ContentDescription: null; ItemCount: -1; CurrentItemIndex: -1; IsEnabled: true; IsPassword: false; IsChecked: false; IsFullScreen: false; Scrollable: false; BeforeText: null; FromIndex: -1; ToIndex: -1; ScrollX: -1; ScrollY: -1; MaxScrollX: -1; MaxScrollY: -1; AddedCount: -1; RemovedCount: -1; ParcelableData: null ]'
p220
sS'MovementGranularity'
p221
g6
sa(dp222
S'EventTime'
p223
S'4778195'
p224
sg4
L1449716171370L
sS'recordCount'
p225
g6
sS'EventType'
p226
S'TYPE_VIEW_CLICKED'
p227
sS'PackageName'
p228
S'com.example.myfristandroid'
p229
sS'OutBounds'
p230
S'Rect(540, 1170 - 720, 1280)'
p231
sS'Action'
p232
S'[ ClassName: android.widget.LinearLayout; Text: [\xe8\xae\xbe\xe7\xbd\xae\xe7\xb3\xbb\xe7\xbb\x9f\xe8\xbf\x90\xe8\xa1\x8c\xe5\x8f\x82\xe6\x95\xb0, \xe8\xae\xbe\xe7\xbd\xae]; ContentDescription: null; ItemCount: -1; CurrentItemIndex: -1; IsEnabled: true; IsPassword: false; IsChecked: false; IsFullScreen: false; Scrollable: false; BeforeText: null; FromIndex: -1; ToIndex: -1; ScrollX: -1; ScrollY: -1; MaxScrollX: -1; MaxScrollY: -1; AddedCount: -1; RemovedCount: -1; ParcelableData: null ]'
p233
sS'MovementGranularity'
p234
g6
sa(dp235
S'EventTime'
p236
S'4778203'
p237
sg4
L1449716171405L
sS'recordCount'
p238
g6
sS'EventType'
p239
S'TYPE_VIEW_FOCUSED'
p240
sS'PackageName'
p241
S'com.example.myfristandroid'
p242
sS'OutBounds'
p243
S'Rect(385, 150 - 895, 210)'
p244
sS'Action'
p245
S'[ ClassName: android.widget.EditText; Text: [\xe6\x9c\x8d\xe5\x8a\xa1\xe5\x99\xa8\xe5\x9c\xb0\xe5\x9d\x80]; ContentDescription: null; ItemCount: 10; CurrentItemIndex: 0; IsEnabled: true; IsPassword: false; IsChecked: false; IsFullScreen: false; Scrollable: false; BeforeText: null; FromIndex: -1; ToIndex: -1; ScrollX: -1; ScrollY: -1; MaxScrollX: -1; MaxScrollY: -1; AddedCount: -1; RemovedCount: -1; ParcelableData: null ]'
p246
sS'MovementGranularity'
p247
g6
sa(dp248
S'EventTime'
p249
S'4778216'
p250
sg4
L1449716171421L
sS'recordCount'
p251
g6
sS'EventType'
p252
S'TYPE_VIEW_TEXT_SELECTION_CHANGED'
p253
sS'PackageName'
p254
S'com.example.myfristandroid'
p255
sS'OutBounds'
p256
S'Rect(295, 220 - 805, 280)'
p257
sS'Action'
p258
S'[ ClassName: android.widget.EditText; Text: [143]; ContentDescription: null; ItemCount: 3; CurrentItemIndex: -1; IsEnabled: true; IsPassword: false; IsChecked: false; IsFullScreen: false; Scrollable: false; BeforeText: null; FromIndex: 0; ToIndex: 0; ScrollX: -1; ScrollY: -1; MaxScrollX: -1; MaxScrollY: -1; AddedCount: -1; RemovedCount: -1; ParcelableData: null ]'
p259
sS'MovementGranularity'
p260
g6
sa(dp261
S'EventTime'
p262
S'4778318'
p263
sg4
L1449716171520L
sS'recordCount'
p264
g6
sS'EventType'
p265
S'TYPE_WINDOW_CONTENT_CHANGED'
p266
sS'PackageName'
p267
S'com.example.myfristandroid'
p268
sS'OutBounds'
p269
S'Rect(0, 0 - 720, 1280)'
p270
sS'Action'
p271
S'[ ClassName: android.widget.FrameLayout; Text: []; ContentDescription: null; ItemCount: -1; CurrentItemIndex: -1; IsEnabled: true; IsPassword: false; IsChecked: false; IsFullScreen: false; Scrollable: false; BeforeText: null; FromIndex: -1; ToIndex: -1; ScrollX: -1; ScrollY: -1; MaxScrollX: -1; MaxScrollY: -1; AddedCount: -1; RemovedCount: -1; ParcelableData: null ]'
p272
sS'MovementGranularity'
p273
g6
sa(dp274
S'EventTime'
p275
S'4778353'
p276
sg4
L1449716171546L
sS'recordCount'
p277
g6
sS'EventType'
p278
S'TYPE_VIEW_SCROLLED'
p279
sS'PackageName'
p280
S'com.example.myfristandroid'
p281
sS'OutBounds'
p282
S'Rect(0, 140 - 720, 1170)'
p283
sS'Action'
p284
S'[ ClassName: android.support.v4.view.ViewPager; Text: []; ContentDescription: null; ItemCount: -1; CurrentItemIndex: -1; IsEnabled: true; IsPassword: false; IsChecked: false; IsFullScreen: false; Scrollable: false; BeforeText: null; FromIndex: -1; ToIndex: -1; ScrollX: -1; ScrollY: -1; MaxScrollX: -1; MaxScrollY: -1; AddedCount: -1; RemovedCount: -1; ParcelableData: null ]'
p285
sS'MovementGranularity'
p286
g6
sa(dp287
S'EventTime'
p288
S'4778454'
p289
sg4
L1449716171637L
sS'recordCount'
p290
g6
sS'EventType'
p291
S'TYPE_VIEW_SCROLLED'
p292
sS'PackageName'
p293
S'com.example.myfristandroid'
p294
sS'OutBounds'
p295
S'Rect(0, 140 - 720, 1170)'
p296
sS'Action'
p297
S'[ ClassName: android.support.v4.view.ViewPager; Text: []; ContentDescription: null; ItemCount: -1; CurrentItemIndex: -1; IsEnabled: true; IsPassword: false; IsChecked: false; IsFullScreen: false; Scrollable: false; BeforeText: null; FromIndex: -1; ToIndex: -1; ScrollX: -1; ScrollY: -1; MaxScrollX: -1; MaxScrollY: -1; AddedCount: -1; RemovedCount: -1; ParcelableData: null ]'
p298
sS'MovementGranularity'
p299
g6
sa(dp300
S'EventTime'
p301
S'4778645'
p302
sg4
L1449716171828L
sS'recordCount'
p303
g6
sS'EventType'
p304
S'TYPE_WINDOW_CONTENT_CHANGED'
p305
sS'PackageName'
p306
S'com.example.myfristandroid'
p307
sS'OutBounds'
p308
S'Rect(0, 0 - 720, 1280)'
p309
sS'Action'
p310
S'[ ClassName: android.widget.FrameLayout; Text: []; ContentDescription: null; ItemCount: -1; CurrentItemIndex: -1; IsEnabled: true; IsPassword: false; IsChecked: false; IsFullScreen: false; Scrollable: false; BeforeText: null; FromIndex: -1; ToIndex: -1; ScrollX: -1; ScrollY: -1; MaxScrollX: -1; MaxScrollY: -1; AddedCount: -1; RemovedCount: -1; ParcelableData: null ]'
p311
sS'MovementGranularity'
p312
g6
sa(dp313
S'EventTime'
p314
S'4780031'
p315
sg4
L1449716173209L
sS'recordCount'
p316
g6
sS'EventType'
p317
S'TYPE_VIEW_CLICKED'
p318
sS'PackageName'
p319
S'com.example.myfristandroid'
p320
sS'OutBounds'
p321
S'Rect(220, 500 - 500, 560)'
p322
sS'Action'
p323
S'[ ClassName: android.widget.Button; Text: [\xe7\x99\xbb\xe5\xbd\x95]; ContentDescription: null; ItemCount: -1; CurrentItemIndex: -1; IsEnabled: true; IsPassword: false; IsChecked: false; IsFullScreen: false; Scrollable: false; BeforeText: null; FromIndex: -1; ToIndex: -1; ScrollX: -1; ScrollY: -1; MaxScrollX: -1; MaxScrollY: -1; AddedCount: -1; RemovedCount: -1; ParcelableData: null ]'
p324
sS'MovementGranularity'
p325
g6
sa(dp326
S'EventTime'
p327
S'4780152'
p328
sg4
L1449716173341L
sS'recordCount'
p329
g6
sS'EventType'
p330
S'TYPE_WINDOW_CONTENT_CHANGED'
p331
sS'PackageName'
p332
S'com.example.myfristandroid'
p333
sS'OutBounds'
p334
S'Rect(0, 0 - 720, 1280)'
p335
sS'Action'
p336
S'[ ClassName: android.widget.FrameLayout; Text: []; ContentDescription: null; ItemCount: -1; CurrentItemIndex: -1; IsEnabled: true; IsPassword: false; IsChecked: false; IsFullScreen: false; Scrollable: false; BeforeText: null; FromIndex: -1; ToIndex: -1; ScrollX: -1; ScrollY: -1; MaxScrollX: -1; MaxScrollY: -1; AddedCount: -1; RemovedCount: -1; ParcelableData: null ]'
p337
sS'MovementGranularity'
p338
g6
sa.