(lp0
(dp1
S'processID'
p2
S'17143'
p3
sS'SyscTime'
p4
L1449715084863L
sS'priority'
p5
S'D'
p6
sS'tag'
p7
S'dalvikvm'
p8
sS'threadID'
p9
S'17143'
p10
sS'message'
p11
S'Late-enabling CheckJNI\n'
p12
sa(dp13
g2
S'17143'
p14
sg4
L1449715085163L
sg5
S'W'
p15
sg7
S'ApplicationPackageManager'
p16
sg9
S'17143'
p17
sg11
S'getCSCPackageItemText()\n'
p18
sa(dp19
g2
S'17143'
p20
sg4
L1449715085268L
sg5
g6
sg7
S'dalvikvm'
p21
sg9
S'17143'
p22
sg11
S'GC_FOR_ALLOC freed 82K, 10% free 16861K/18648K, paused 13ms, total 13ms\n'
p23
sa(dp24
g2
S'17143'
p25
sg4
L1449715085358L
sg5
S'I'
p26
sg7
S'dalvikvm-heap'
p27
sg9
S'17143'
p28
sg11
S'Grow heap (frag case) to 51.396MB for 34885888-byte allocation\n'
p29
sa(dp30
g2
S'17143'
p31
sg4
L1449715085368L
sg5
g6
sg7
S'dalvikvm'
p32
sg9
S'17152'
p33
sg11
S'GC_FOR_ALLOC freed <1K, 4% free 50929K/52720K, paused 13ms, total 13ms\n'
p34
sa(dp35
g2
S'17143'
p36
sg4
L1449715085383L
sg5
g6
sg7
S'dalvikvm'
p37
sg9
S'17147'
p38
sg11
S'GC_CONCURRENT freed <1K, 4% free 50929K/52720K, paused 2ms+1ms, total 11ms\n'
p39
sa(dp40
g2
S'17159'
p41
sg4
L1449715085408L
sg5
g6
sg7
S'dalvikvm'
p42
sg9
S'17159'
p43
sg11
S'Late-enabling CheckJNI\n'
p44
sa(dp45
g2
S'17159'
p46
sg4
L1449715085493L
sg5
g6
sg7
S'SocketService'
p47
sg9
S'17159'
p48
sg11
S'onStartCommand : bLogin:false\n'
p49
sa(dp50
g2
S'17159'
p51
sg4
L1449715085493L
sg5
g6
sg7
S'SocketService'
p52
sg9
S'17159'
p53
sg11
S'pid:17159 myPid:17159\n'
p54
sa(dp55
g2
S'17159'
p56
sg4
L1449715085498L
sg5
g6
sg7
S'SocketService'
p57
sg9
S'17159'
p58
sg11
S'start to run current thread!id:612\n'
p59
sa(dp60
g2
S'17143'
p61
sg4
L1449715085518L
sg5
g6
sg7
S'OpenGLRenderer'
p62
sg9
S'17143'
p63
sg11
S'Enabling debug mode 0\n'
p64
sa(dp65
g2
S'17159'
p66
sg4
L1449715085683L
sg5
g6
sg7
S'SocketService'
p67
sg9
S'17177'
p68
sg11
S'ip/10.31.80.186 lport:58171 p:143\n'
p69
sa(dp70
g2
S'17159'
p71
sg4
L1449715085688L
sg5
g6
sg7
S'ForegroundActivity'
p72
sg9
S'17177'
p73
sg11
S'\xe6\x9c\xac\xe6\xac\xa1\xe5\x8f\x91\xe9\x80\x81\xe5\xb8\xa7\xe9\x95\xbf:35\t\xe6\x80\xbb\xe5\xb8\xa7\xe9\x95\xbf:35\n'
p74
sa(dp75
g2
S'17159'
p76
sg4
L1449715085688L
sg5
g6
sg7
S'SocketService'
p77
sg9
S'17177'
p78
sg11
S'success to connect server!id:612 bLogin:false\n'
p79
sa(dp80
g2
S'17159'
p81
sg4
L1449715085923L
sg5
g6
sg7
S'ForegroundActivity'
p82
sg9
S'17180'
p83
sg11
S'\xe6\x9c\xac\xe6\xac\xa1\xe6\x94\xb6\xe5\x88\xb0\xe5\xb8\xa7\xe9\x95\xbf:13\t\xe6\x80\xbb\xe5\xb8\xa7\xe9\x95\xbf:13\n'
p84
sa(dp85
g2
S'17159'
p86
sg4
L1449715086498L
sg5
g6
sg7
S'SocketService1'
p87
sg9
S'17175'
p88
sg11
S'\xe6\x9c\xac\xe6\xac\xa1\xe6\x8f\x90\xe5\x8f\x961:LoadPtr:13 HeadIndex:0 GetSize:13 13 0 \xe5\xa4\xb4\xe4\xbf\xa1\xe6\x81\xaf:EB 90 EB 90 EB 90 0D 00 0E 01 \n'
p89
sa(dp90
g2
S'17159'
p91
sg4
L1449715086693L
sg5
g6
sg7
S'ForegroundActivity'
p92
sg9
S'17177'
p93
sg11
S'\xe6\x9c\xac\xe6\xac\xa1\xe5\x8f\x91\xe9\x80\x81\xe5\xb8\xa7\xe9\x95\xbf:11\t\xe6\x80\xbb\xe5\xb8\xa7\xe9\x95\xbf:46\n'
p94
sa(dp95
g2
S'17159'
p96
sg4
L1449715087293L
sg5
g6
sg7
S'ForegroundActivity'
p97
sg9
S'17180'
p98
sg11
S'\xe6\x9c\xac\xe6\xac\xa1\xe6\x94\xb6\xe5\x88\xb0\xe5\xb8\xa7\xe9\x95\xbf:642\t\xe6\x80\xbb\xe5\xb8\xa7\xe9\x95\xbf:655\n'
p99
sa(dp100
g2
S'17143'
p101
sg4
L1449715087438L
sg5
g15
sg7
S'ApplicationPackageManager'
p102
sg9
S'17143'
p103
sg11
S'getCSCPackageItemText()\n'
p104
sa(dp105
g2
S'17143'
p106
sg4
L1449715087498L
sg5
g6
sg7
S'AbsListView'
p107
sg9
S'17143'
p108
sg11
S'Get MotionRecognitionManager\n'
p109
sa(dp110
g2
S'17159'
p111
sg4
L1449715087513L
sg5
g6
sg7
S'SocketService1'
p112
sg9
S'17175'
p113
sg11
S'\xe6\x9c\xac\xe6\xac\xa1\xe6\x8f\x90\xe5\x8f\x961:LoadPtr:655 HeadIndex:13 GetSize:642 130 512 \xe5\xa4\xb4\xe4\xbf\xa1\xe6\x81\xaf:EB 90 EB 90 EB 90 82 02 14 0A \n'
p114
sa(dp115
g2
S'17143'
p116
sg4
L1449715087548L
sg5
g6
sg7
S'AbsListView'
p117
sg9
S'17143'
p118
sg11
S'Get MotionRecognitionManager\n'
p119
sa(dp120
g2
S'17143'
p121
sg4
L1449715087558L
sg5
g6
sg7
S'AbsListView'
p122
sg9
S'17143'
p123
sg11
S'Get MotionRecognitionManager\n'
p124
sa(dp125
g2
S'17143'
p126
sg4
L1449715087598L
sg5
g6
sg7
S'MainActivity'
p127
sg9
S'17143'
p128
sg11
S'Start One Client\n'
p129
sa(dp130
g2
S'17143'
p131
sg4
L1449715087618L
sg5
g6
sg7
S'AbsListView'
p132
sg9
S'17143'
p133
sg11
S'unregisterIRListener() is called \n'
p134
sa(dp135
g2
S'17159'
p136
sg4
L1449715087693L
sg5
g6
sg7
S'ForegroundActivity'
p137
sg9
S'17177'
p138
sg11
S'\xe6\x9c\xac\xe6\xac\xa1\xe5\x8f\x91\xe9\x80\x81\xe5\xb8\xa7\xe9\x95\xbf:11\t\xe6\x80\xbb\xe5\xb8\xa7\xe9\x95\xbf:57\n'
p139
sa(dp140
g2
S'17143'
p141
sg4
L1449715087748L
sg5
g6
sg7
S'AbsListView'
p142
sg9
S'17143'
p143
sg11
S'unregisterIRListener() is called \n'
p144
sa(dp145
g2
S'17143'
p146
sg4
L1449715087753L
sg5
g6
sg7
S'AbsListView'
p147
sg9
S'17143'
p148
sg11
S'unregisterIRListener() is called \n'
p149
sa(dp150
g2
S'17143'
p151
sg4
L1449715087828L
sg5
g6
sg7
S'AbsListView'
p152
sg9
S'17143'
p153
sg11
S'unregisterIRListener() is called \n'
p154
sa(dp155
g2
S'17143'
p156
sg4
L1449715087863L
sg5
g6
sg7
S'AbsListView'
p157
sg9
S'17143'
p158
sg11
S'unregisterIRListener() is called \n'
p159
sa(dp160
g2
S'17143'
p161
sg4
L1449715087868L
sg5
g6
sg7
S'AbsListView'
p162
sg9
S'17143'
p163
sg11
S'unregisterIRListener() is called \n'
p164
sa(dp165
g2
S'17159'
p166
sg4
L1449715090388L
sg5
g6
sg7
S'ForegroundActivity'
p167
sg9
S'17180'
p168
sg11
S'\xe6\x9c\xac\xe6\xac\xa1\xe6\x94\xb6\xe5\x88\xb0\xe5\xb8\xa7\xe9\x95\xbf:67\t\xe6\x80\xbb\xe5\xb8\xa7\xe9\x95\xbf:722\n'
p169
sa(dp170
g2
S'17159'
p171
sg4
L1449715090533L
sg5
g6
sg7
S'SocketService1'
p172
sg9
S'17175'
p173
sg11
S'\xe6\x9c\xac\xe6\xac\xa1\xe6\x8f\x90\xe5\x8f\x961:LoadPtr:722 HeadIndex:655 GetSize:67 67 0 \xe5\xa4\xb4\xe4\xbf\xa1\xe6\x81\xaf:EB 90 EB 90 EB 90 43 00 15 02 \n'
p174
sa(dp175
g2
S'17143'
p176
sg4
L1449715090543L
sg5
g6
sg7
S'MainActivity'
p177
sg9
S'17143'
p178
sg11
S'ServerVersion:22 LocalVersion:12\n'
p179
sa(dp180
g2
S'17143'
p181
sg4
L1449715090803L
sg5
g6
sg7
S'AbsListView'
p182
sg9
S'17143'
p183
sg11
S'unregisterIRListener() is called \n'
p184
sa(dp185
g2
S'17143'
p186
sg4
L1449715090808L
sg5
g6
sg7
S'AbsListView'
p187
sg9
S'17143'
p188
sg11
S'unregisterIRListener() is called \n'
p189
sa(dp190
g2
S'17143'
p191
sg4
L1449715091993L
sg5
g6
sg7
S'AbsListView'
p192
sg9
S'17143'
p193
sg11
S'unregisterIRListener() is called \n'
p194
sa(dp195
g2
S'17143'
p196
sg4
L1449715091998L
sg5
S'E'
p197
sg7
S'ViewRootImpl'
p198
sg9
S'17143'
p199
sg11
S'sendUserActionEvent() mView == null\n'
p200
sa(dp201
g2
S'17143'
p202
sg4
L1449715125163L
sg5
g6
sg7
S'dalvikvm'
p203
sg9
S'17143'
p204
sg11
S'GC_FOR_ALLOC freed 1250K, 5% free 65191K/68148K, paused 23ms, total 23ms\n'
p205
sa(dp206
g2
S'17143'
p207
sg4
L1449715125178L
sg5
g26
sg7
S'dalvikvm-heap'
p208
sg9
S'17143'
p209
sg11
S'Grow heap (frag case) to 73.235MB for 8294416-byte allocation\n'
p210
sa(dp211
g2
S'17143'
p212
sg4
L1449715125208L
sg5
g6
sg7
S'dalvikvm'
p213
sg9
S'17152'
p214
sg11
S'GC_FOR_ALLOC freed 15K, 4% free 73276K/76252K, paused 28ms, total 28ms\n'
p215
sa(dp216
g2
S'17143'
p217
sg4
L1449715125233L
sg5
g6
sg7
S'dalvikvm'
p218
sg9
S'17147'
p219
sg11
S'GC_CONCURRENT freed 8367K, 15% free 64916K/76252K, paused 3ms+4ms, total 26ms\n'
p220
sa(dp221
g2
S'17143'
p222
sg4
L1449715125473L
sg5
g6
sg7
S'cn.edu.nju.ise.kikandroid'
p223
sg9
S'17183'
p224
sg11
S'Screenshot:1449715125055\n'
p225
sa(dp226
g2
S'17159'
p227
sg4
L1449715125493L
sg5
g6
sg7
S'ForegroundActivity'
p228
sg9
S'17173'
p229
sg11
S'\xe6\x9c\xac\xe6\xac\xa1\xe5\x8f\x91\xe9\x80\x81\xe5\xb8\xa7\xe9\x95\xbf:13\t\xe6\x80\xbb\xe5\xb8\xa7\xe9\x95\xbf:70\n'
p230
sa(dp231
g2
S'17143'
p232
sg4
L1449715126583L
sg5
g6
sg7
S'MainActivity'
p233
sg9
S'17143'
p234
sg11
S'V.getTag:null v.id:2131230738\n'
p235
sa(dp236
g2
S'17143'
p237
sg4
L1449715126583L
sg5
g6
sg7
S'AbsListView'
p238
sg9
S'17143'
p239
sg11
S'unregisterIRListener() is called \n'
p240
sa(dp241
g2
S'17143'
p242
sg4
L1449715126618L
sg5
g6
sg7
S'AbsListView'
p243
sg9
S'17143'
p244
sg11
S'unregisterIRListener() is called \n'
p245
sa(dp246
g2
S'17143'
p247
sg4
L1449715126638L
sg5
S'V'
p248
sg7
S'RenderScript'
p249
sg9
S'17143'
p250
sg11
S'0x78d27080 Launching thread(s), CPUs 4\n'
p251
sa(dp252
g2
S'17143'
p253
sg4
L1449715126983L
sg5
g6
sg7
S'AbsListView'
p254
sg9
S'17143'
p255
sg11
S'onDetachedFromWindow\n'
p256
sa(dp257
g2
S'17143'
p258
sg4
L1449715126983L
sg5
g6
sg7
S'AbsListView'
p259
sg9
S'17143'
p260
sg11
S'unregisterIRListener() is called \n'
p261
sa(dp262
g2
S'17159'
p263
sg4
L1449715127578L
sg5
g6
sg7
S'ForegroundActivity'
p264
sg9
S'17180'
p265
sg11
S'\xe6\x9c\xac\xe6\xac\xa1\xe6\x94\xb6\xe5\x88\xb0\xe5\xb8\xa7\xe9\x95\xbf:13\t\xe6\x80\xbb\xe5\xb8\xa7\xe9\x95\xbf:735\n'
p266
sa(dp267
g2
S'17159'
p268
sg4
L1449715128568L
sg5
g6
sg7
S'SocketService1'
p269
sg9
S'17175'
p270
sg11
S'\xe6\x9c\xac\xe6\xac\xa1\xe6\x8f\x90\xe5\x8f\x961:LoadPtr:735 HeadIndex:722 GetSize:13 13 0 \xe5\xa4\xb4\xe4\xbf\xa1\xe6\x81\xaf:EB 90 EB 90 EB 90 0D 00 10 01 \n'
p271
sa(dp272
g2
S'17143'
p273
sg4
L1449715129318L
sg5
g6
sg7
S'dalvikvm'
p274
sg9
S'17143'
p275
sg11
S'GC_FOR_ALLOC freed 8486K, 17% free 57008K/68148K, paused 26ms, total 26ms\n'
p276
sa(dp277
g2
S'17143'
p278
sg4
L1449715129363L
sg5
g6
sg7
S'dalvikvm'
p279
sg9
S'17147'
p280
sg11
S'GC_CONCURRENT freed 16K, 5% free 65092K/68148K, paused 2ms+8ms, total 32ms\n'
p281
sa(dp282
g2
S'17143'
p283
sg4
L1449715129393L
sg5
g6
sg7
S'dalvikvm'
p284
sg9
S'17143'
p285
sg11
S'GC_FOR_ALLOC freed <1K, 5% free 65092K/68148K, paused 20ms, total 20ms\n'
p286
sa(dp287
g2
S'17143'
p288
sg4
L1449715129603L
sg5
g6
sg7
S'cn.edu.nju.ise.kikandroid'
p289
sg9
S'17183'
p290
sg11
S'Screenshot:1449715129286\n'
p291
sa(dp292
g2
S'17143'
p293
sg4
L1449715134443L
sg5
g6
sg7
S'AbsListView'
p294
sg9
S'17143'
p295
sg11
S'unregisterIRListener() is called \n'
p296
sa(dp297
g2
S'17143'
p298
sg4
L1449715134448L
sg5
g6
sg7
S'AbsListView'
p299
sg9
S'17143'
p300
sg11
S'unregisterIRListener() is called \n'
p301
sa(dp302
g2
S'17143'
p303
sg4
L1449715135113L
sg5
g6
sg7
S'MainActivity'
p304
sg9
S'17143'
p305
sg11
S'V.getTag:null v.id:2131230790\n'
p306
sa(dp307
g2
S'17143'
p308
sg4
L1449715135118L
sg5
g6
sg7
S'AbsListView'
p309
sg9
S'17143'
p310
sg11
S'unregisterIRListener() is called \n'
p311
sa(dp312
g2
S'17143'
p313
sg4
L1449715135888L
sg5
g6
sg7
S'MainActivity'
p314
sg9
S'17143'
p315
sg11
S'V.getTag:null v.id:2131230790\n'
p316
sa(dp317
g2
S'17143'
p318
sg4
L1449715135903L
sg5
g6
sg7
S'AbsListView'
p319
sg9
S'17143'
p320
sg11
S'unregisterIRListener() is called \n'
p321
sa(dp322
g2
S'17143'
p323
sg4
L1449715138118L
sg5
g6
sg7
S'MainActivity'
p324
sg9
S'17143'
p325
sg11
S'V.getTag:null v.id:2131230791\n'
p326
sa(dp327
g2
S'17143'
p328
sg4
L1449715138163L
sg5
g6
sg7
S'AbsListView'
p329
sg9
S'17143'
p330
sg11
S'Get MotionRecognitionManager\n'
p331
sa(dp332
g2
S'17143'
p333
sg4
L1449715138183L
sg5
g6
sg7
S'AbsListView'
p334
sg9
S'17143'
p335
sg11
S'onVisibilityChanged() is called, visibility : 8\n'
p336
sa(dp337
g2
S'17143'
p338
sg4
L1449715138183L
sg5
g6
sg7
S'AbsListView'
p339
sg9
S'17143'
p340
sg11
S'unregisterIRListener() is called \n'
p341
sa(dp342
g2
S'17143'
p343
sg4
L1449715138258L
sg5
g6
sg7
S'AbsListView'
p344
sg9
S'17143'
p345
sg11
S'unregisterIRListener() is called \n'
p346
sa(dp347
g2
S'17143'
p348
sg4
L1449715138373L
sg5
g6
sg7
S'AbsListView'
p349
sg9
S'17143'
p350
sg11
S'unregisterIRListener() is called \n'
p351
sa(dp352
g2
S'17143'
p353
sg4
L1449715138593L
sg5
g6
sg7
S'AbsListView'
p354
sg9
S'17143'
p355
sg11
S'unregisterIRListener() is called \n'
p356
sa(dp357
g2
S'17143'
p358
sg4
L1449715138598L
sg5
g6
sg7
S'AbsListView'
p359
sg9
S'17143'
p360
sg11
S'unregisterIRListener() is called \n'
p361
sa(dp362
g2
S'17143'
p363
sg4
L1449715138603L
sg5
g6
sg7
S'AbsListView'
p364
sg9
S'17143'
p365
sg11
S'unregisterIRListener() is called \n'
p366
sa(dp367
g2
S'17143'
p368
sg4
L1449715138608L
sg5
g6
sg7
S'AbsListView'
p369
sg9
S'17143'
p370
sg11
S'unregisterIRListener() is called \n'
p371
sa(dp372
g2
S'17143'
p373
sg4
L1449715156123L
sg5
g6
sg7
S'AbsListView'
p374
sg9
S'17143'
p375
sg11
S'onDetachedFromWindow\n'
p376
sa(dp377
g2
S'17143'
p378
sg4
L1449715156123L
sg5
g6
sg7
S'AbsListView'
p379
sg9
S'17143'
p380
sg11
S'unregisterIRListener() is called \n'
p381
sa(dp382
g2
S'17143'
p383
sg4
L1449715156163L
sg5
g6
sg7
S'MainActivity'
p384
sg9
S'17143'
p385
sg11
S'logList.size2():0 com.example.myfristandroid.myListView{44beeca8 V.ED.VC. ......ID 15,15-1047,15 #7f08003c app:id/id_lv_logView}\n'
p386
sa(dp387
g2
S'17143'
p388
sg4
L1449715156163L
sg5
g6
sg7
S'MainActivity'
p389
sg9
S'17143'
p390
sg11
S'MainActivity Send BroadCast Length:22\n'
p391
sa(dp392
g2
S'17143'
p393
sg4
L1449715156168L
sg5
g6
sg7
S'AbsListView'
p394
sg9
S'17143'
p395
sg11
S'unregisterIRListener() is called \n'
p396
sa(dp397
g2
S'17159'
p398
sg4
L1449715156168L
sg5
g6
sg7
S'ForegroundActivity'
p399
sg9
S'17159'
p400
sg11
S'\xe6\x9c\xac\xe6\xac\xa1\xe5\x8f\x91\xe9\x80\x81\xe5\xb8\xa7\xe9\x95\xbf:22\t\xe6\x80\xbb\xe5\xb8\xa7\xe9\x95\xbf:92\n'
p401
sa(dp402
g2
S'17143'
p403
sg4
L1449715156178L
sg5
g197
sg7
S'ViewRootImpl'
p404
sg9
S'17143'
p405
sg11
S'sendUserActionEvent() mView == null\n'
p406
sa(dp407
g2
S'17143'
p408
sg4
L1449715158028L
sg5
g6
sg7
S'MainActivity'
p409
sg9
S'17143'
p410
sg11
S'V.getTag:null v.id:2131230791\n'
p411
sa(dp412
g2
S'17143'
p413
sg4
L1449715158068L
sg5
g6
sg7
S'AbsListView'
p414
sg9
S'17143'
p415
sg11
S'Get MotionRecognitionManager\n'
p416
sa(dp417
g2
S'17143'
p418
sg4
L1449715158078L
sg5
g6
sg7
S'AbsListView'
p419
sg9
S'17143'
p420
sg11
S'onVisibilityChanged() is called, visibility : 8\n'
p421
sa(dp422
g2
S'17143'
p423
sg4
L1449715158078L
sg5
g6
sg7
S'AbsListView'
p424
sg9
S'17143'
p425
sg11
S'unregisterIRListener() is called \n'
p426
sa(dp427
g2
S'17143'
p428
sg4
L1449715158143L
sg5
g6
sg7
S'AbsListView'
p429
sg9
S'17143'
p430
sg11
S'unregisterIRListener() is called \n'
p431
sa(dp432
g2
S'17143'
p433
sg4
L1449715158243L
sg5
g6
sg7
S'AbsListView'
p434
sg9
S'17143'
p435
sg11
S'unregisterIRListener() is called \n'
p436
sa(dp437
g2
S'17143'
p438
sg4
L1449715158348L
sg5
g6
sg7
S'AbsListView'
p439
sg9
S'17143'
p440
sg11
S'unregisterIRListener() is called \n'
p441
sa(dp442
g2
S'17159'
p443
sg4
L1449715158663L
sg5
g6
sg7
S'ForegroundActivity'
p444
sg9
S'17180'
p445
sg11
S'\xe6\x9c\xac\xe6\xac\xa1\xe6\x94\xb6\xe5\x88\xb0\xe5\xb8\xa7\xe9\x95\xbf:17\t\xe6\x80\xbb\xe5\xb8\xa7\xe9\x95\xbf:752\n'
p446
sa(dp447
g2
S'17159'
p448
sg4
L1449715159598L
sg5
g6
sg7
S'SocketService1'
p449
sg9
S'17175'
p450
sg11
S'\xe6\x9c\xac\xe6\xac\xa1\xe6\x8f\x90\xe5\x8f\x961:LoadPtr:752 HeadIndex:735 GetSize:17 17 0 \xe5\xa4\xb4\xe4\xbf\xa1\xe6\x81\xaf:EB 90 EB 90 EB 90 11 00 0D 01 \n'
p451
sa(dp452
g2
S'17143'
p453
sg4
L1449715160518L
sg5
g6
sg7
S'dalvikvm'
p454
sg9
S'17143'
p455
sg11
S'GC_FOR_ALLOC freed 17099K, 25% free 57487K/76292K, paused 26ms, total 26ms\n'
p456
sa(dp457
g2
S'17143'
p458
sg4
L1449715160533L
sg5
g6
sg7
S'AbsListView'
p459
sg9
S'17152'
p460
sg11
S'[unregisterDoubleTapMotionListener]\n'
p461
sa(dp462
g2
S'17143'
p463
sg4
L1449715160533L
sg5
g26
sg7
S'MotionRecognitionManager'
p464
sg9
S'17152'
p465
sg11
S'  .unregisterListener : / listener count = 0->0,  \n'
p466
sa(dp467
g2
S'17143'
p468
sg4
L1449715160533L
sg5
g6
sg7
S'AbsListView'
p469
sg9
S'17152'
p470
sg11
S'unregisterIRListener() is called \n'
p471
sa(dp472
g2
S'17143'
p473
sg4
L1449715160563L
sg5
g6
sg7
S'dalvikvm'
p474
sg9
S'17147'
p475
sg11
S'GC_CONCURRENT freed 169K, 15% free 65420K/76292K, paused 3ms+5ms, total 31ms\n'
p476
sa(dp477
g2
S'17143'
p478
sg4
L1449715160618L
sg5
g6
sg7
S'dalvikvm'
p479
sg9
S'17147'
p480
sg11
S'GC_CONCURRENT freed 8101K, 15% free 65425K/76292K, paused 4ms+4ms, total 30ms\n'
p481
sa(dp482
g2
S'17143'
p483
sg4
L1449715160818L
sg5
g6
sg7
S'cn.edu.nju.ise.kikandroid'
p484
sg9
S'17183'
p485
sg11
S'Screenshot:1449715160483\n'
p486
sa(dp487
g2
S'17143'
p488
sg4
L1449715161123L
sg5
g6
sg7
S'AbsListView'
p489
sg9
S'17143'
p490
sg11
S'onDetachedFromWindow\n'
p491
sa(dp492
g2
S'17143'
p493
sg4
L1449715161123L
sg5
g6
sg7
S'AbsListView'
p494
sg9
S'17143'
p495
sg11
S'unregisterIRListener() is called \n'
p496
sa(dp497
g2
S'17143'
p498
sg4
L1449715161173L
sg5
g6
sg7
S'MainActivity'
p499
sg9
S'17143'
p500
sg11
S'logList.size2():0 com.example.myfristandroid.myListView{44beeca8 V.ED.VC. ......ID 15,15-1047,15 #7f08003c app:id/id_lv_logView}\n'
p501
sa(dp502
g2
S'17143'
p503
sg4
L1449715161173L
sg5
g6
sg7
S'MainActivity'
p504
sg9
S'17143'
p505
sg11
S'MainActivity Send BroadCast Length:22\n'
p506
sa(dp507
g2
S'17159'
p508
sg4
L1449715161178L
sg5
g6
sg7
S'ForegroundActivity'
p509
sg9
S'17159'
p510
sg11
S'\xe6\x9c\xac\xe6\xac\xa1\xe5\x8f\x91\xe9\x80\x81\xe5\xb8\xa7\xe9\x95\xbf:22\t\xe6\x80\xbb\xe5\xb8\xa7\xe9\x95\xbf:114\n'
p511
sa(dp512
g2
S'17143'
p513
sg4
L1449715161178L
sg5
g6
sg7
S'AbsListView'
p514
sg9
S'17143'
p515
sg11
S'unregisterIRListener() is called \n'
p516
sa(dp517
g2
S'17143'
p518
sg4
L1449715161188L
sg5
g197
sg7
S'ViewRootImpl'
p519
sg9
S'17143'
p520
sg11
S'sendUserActionEvent() mView == null\n'
p521
sa(dp522
g2
S'17159'
p523
sg4
L1449715161333L
sg5
g6
sg7
S'ForegroundActivity'
p524
sg9
S'17180'
p525
sg11
S'\xe6\x9c\xac\xe6\xac\xa1\xe6\x94\xb6\xe5\x88\xb0\xe5\xb8\xa7\xe9\x95\xbf:17\t\xe6\x80\xbb\xe5\xb8\xa7\xe9\x95\xbf:769\n'
p526
sa(dp527
g2
S'17159'
p528
sg4
L1449715161613L
sg5
g6
sg7
S'SocketService1'
p529
sg9
S'17175'
p530
sg11
S'\xe6\x9c\xac\xe6\xac\xa1\xe6\x8f\x90\xe5\x8f\x961:LoadPtr:769 HeadIndex:752 GetSize:17 17 0 \xe5\xa4\xb4\xe4\xbf\xa1\xe6\x81\xaf:EB 90 EB 90 EB 90 11 00 0D 01 \n'
p531
sa(dp532
g2
S'17159'
p533
sg4
L1449715162378L
sg5
g6
sg7
S'dalvikvm'
p534
sg9
S'17163'
p535
sg11
S'GC_CONCURRENT freed 1883K, 17% free 17864K/21452K, paused 4ms+5ms, total 58ms\n'
p536
sa(dp537
g2
S'17143'
p538
sg4
L1449715164338L
sg5
g6
sg7
S'dalvikvm'
p539
sg9
S'17143'
p540
sg11
S'GC_FOR_ALLOC freed 8282K, 16% free 57322K/68148K, paused 24ms, total 24ms\n'
p541
sa(dp542
g2
S'17143'
p543
sg4
L1449715164388L
sg5
g6
sg7
S'dalvikvm'
p544
sg9
S'17147'
p545
sg11
S'GC_CONCURRENT freed 12K, 5% free 65409K/68148K, paused 2ms+12ms, total 38ms\n'
p546
sa(dp547
g2
S'17143'
p548
sg4
L1449715164413L
sg5
g6
sg7
S'dalvikvm'
p549
sg9
S'17143'
p550
sg11
S'GC_FOR_ALLOC freed <1K, 5% free 65409K/68148K, paused 20ms, total 20ms\n'
p551
sa(dp552
g2
S'17143'
p553
sg4
L1449715164418L
sg5
g6
sg7
S'AbsListView'
p554
sg9
S'17152'
p555
sg11
S'[unregisterDoubleTapMotionListener]\n'
p556
sa(dp557
g2
S'17143'
p558
sg4
L1449715164428L
sg5
g26
sg7
S'MotionRecognitionManager'
p559
sg9
S'17152'
p560
sg11
S'  .unregisterListener : / listener count = 0->0,  \n'
p561
sa(dp562
g2
S'17143'
p563
sg4
L1449715164428L
sg5
g6
sg7
S'AbsListView'
p564
sg9
S'17152'
p565
sg11
S'unregisterIRListener() is called \n'
p566
sa(dp567
g2
S'17143'
p568
sg4
L1449715164593L
sg5
g6
sg7
S'cn.edu.nju.ise.kikandroid'
p569
sg9
S'17183'
p570
sg11
S'Screenshot:1449715164303\n'
p571
sa(dp572
g2
S'17143'
p573
sg4
L1449715182658L
sg5
g6
sg7
S'cn.edu.nju.ise.kikandroid'
p574
sg9
S'17183'
p575
sg11
S'Log:1449715182661\n'
p576
sa(dp577
g2
S'17143'
p578
sg4
L1449715185648L
sg5
g6
sg7
S'cn.edu.nju.ise.kikandroid'
p579
sg9
S'17183'
p580
sg11
S'Log:1449715185654\n'
p581
sa(dp582
g2
S'17143'
p583
sg4
L1449715185723L
sg5
g6
sg7
S'dalvikvm'
p584
sg9
S'17143'
p585
sg11
S'GC_FOR_ALLOC freed 16689K, 17% free 57014K/68148K, paused 24ms, total 24ms\n'
p586
sa(dp587
g2
S'17143'
p588
sg4
L1449715185758L
sg5
g6
sg7
S'dalvikvm'
p589
sg9
S'17147'
p590
sg11
S'GC_CONCURRENT freed 3K, 5% free 65112K/68148K, paused 3ms+4ms, total 25ms\n'
p591
sa(dp592
g2
S'17143'
p593
sg4
L1449715185788L
sg5
g6
sg7
S'dalvikvm'
p594
sg9
S'17143'
p595
sg11
S'GC_FOR_ALLOC freed <1K, 5% free 65112K/68148K, paused 18ms, total 18ms\n'
p596
sa(dp597
g2
S'17143'
p598
sg4
L1449715186138L
sg5
g6
sg7
S'cn.edu.nju.ise.kikandroid'
p599
sg9
S'17183'
p600
sg11
S'Screenshot:1449715185686\n'
p601
sa(dp602
g2
S'17143'
p603
sg4
L1449715186138L
sg5
g15
sg7
S'dalvikvm'
p604
sg9
S'17183'
p605
sg11
S'threadid=14: thread exiting with uncaught exception (group=0x417d0c08)\n'
p606
sa(dp607
g2
S'17143'
p608
sg4
L1449715186143L
sg5
g197
sg7
S'AndroidRuntime'
p609
sg9
S'17183'
p610
sg11
S'FATAL EXCEPTION: Thread-607\nProcess: com.example.myfristandroid, PID: 17143\njava.lang.NullPointerException\n\tat android.app.Instrumentation.finish(Instrumentation.java:195)\n\tat cn.edu.nju.ise.kikandroid.AUTInstrument.quitInstr(AUTInstrument.java:195)\n\tat cn.edu.nju.ise.kikandroid.AUTInstrument.startServer(AUTInstrument.java:161)\n\tat cn.edu.nju.ise.kikandroid.AUTInstrument$1.run(AUTInstrument.java:107)\n\tat java.lang.Thread.run(Thread.java:841)\n'
p611
sa.