(lp0
(dp1
S'processID'
p2
S'21698'
p3
sS'SyscTime'
p4
L1449717734601L
sS'priority'
p5
S'D'
p6
sS'tag'
p7
S'dalvikvm'
p8
sS'threadID'
p9
S'21698'
p10
sS'message'
p11
S'Late-enabling CheckJNI\n'
p12
sa(dp13
g2
S'21698'
p14
sg4
L1449717735500L
sg5
g6
sg7
S'dalvikvm'
p15
sg9
S'21698'
p16
sg11
S'GC_FOR_ALLOC freed 79K, 12% free 6707K/7536K, paused 26ms, total 28ms\n'
p17
sa(dp18
g2
S'21698'
p19
sg4
L1449717735523L
sg5
S'I'
p20
sg7
S'dalvikvm-heap'
p21
sg9
S'21698'
p22
sg11
S'Grow heap (frag case) to 10.976MB for 3876224-byte allocation\n'
p23
sa(dp24
g2
S'21698'
p25
sg4
L1449717735554L
sg5
g6
sg7
S'dalvikvm'
p26
sg9
S'21707'
p27
sg11
S'GC_FOR_ALLOC freed <1K, 8% free 10491K/11324K, paused 35ms, total 35ms\n'
p28
sa(dp29
g2
S'21698'
p30
sg4
L1449717735593L
sg5
g6
sg7
S'dalvikvm'
p31
sg9
S'21700'
p32
sg11
S'GC_CONCURRENT freed <1K, 8% free 10491K/11324K, paused 2ms+2ms, total 34ms\n'
p33
sa(dp34
g2
S'21698'
p35
sg4
L1449717735765L
sg5
g6
sg7
S'dalvikvm'
p36
sg9
S'21698'
p37
sg11
S'GC_FOR_ALLOC freed <1K, 8% free 10491K/11324K, paused 16ms, total 16ms\n'
p38
sa(dp39
g2
S'21698'
p40
sg4
L1449717735789L
sg5
g20
sg7
S'dalvikvm-heap'
p41
sg9
S'21698'
p42
sg11
S'Grow heap (frag case) to 19.292MB for 8721484-byte allocation\n'
p43
sa(dp44
g2
S'21698'
p45
sg4
L1449717735812L
sg5
g6
sg7
S'dalvikvm'
p46
sg9
S'21700'
p47
sg11
S'GC_CONCURRENT freed 0K, 5% free 19008K/19844K, paused 4ms+2ms, total 26ms\n'
p48
sa(dp49
g2
S'21717'
p50
sg4
L1449717735937L
sg5
g6
sg7
S'dalvikvm'
p51
sg9
S'21717'
p52
sg11
S'Late-enabling CheckJNI\n'
p53
sa(dp54
g2
S'21698'
p55
sg4
L1449717736007L
sg5
g6
sg7
S'libEGL  '
p56
sg9
S'21698'
p57
sg11
S'loaded /system/lib/egl/libEGL_MRVL.so\n'
p58
sa(dp59
g2
S'21717'
p60
sg4
L1449717736054L
sg5
g6
sg7
S'dalvikvm'
p61
sg9
S'21717'
p62
sg11
S'GC_FOR_ALLOC freed 26K, 11% free 6662K/7440K, paused 18ms, total 18ms\n'
p63
sa(dp64
g2
S'21717'
p65
sg4
L1449717736054L
sg5
g20
sg7
S'dalvikvm-heap'
p66
sg9
S'21717'
p67
sg11
S'Grow heap (frag case) to 8.212MB for 1024016-byte allocation\n'
p68
sa(dp69
g2
S'21717'
p70
sg4
L1449717736070L
sg5
g6
sg7
S'dalvikvm'
p71
sg9
S'21727'
p72
sg11
S'GC_FOR_ALLOC freed <1K, 10% free 7661K/8444K, paused 15ms, total 15ms\n'
p73
sa(dp74
g2
S'21717'
p75
sg4
L1449717736093L
sg5
g6
sg7
S'dalvikvm'
p76
sg9
S'21721'
p77
sg11
S'GC_CONCURRENT freed 2K, 10% free 7698K/8484K, paused 3ms+2ms, total 20ms\n'
p78
sa(dp79
g2
S'21698'
p80
sg4
L1449717736218L
sg5
g6
sg7
S'libEGL  '
p81
sg9
S'21698'
p82
sg11
S'loaded /system/lib/egl/libGLESv1_CM_MRVL.so\n'
p83
sa(dp84
g2
S'21698'
p85
sg4
L1449717736367L
sg5
g6
sg7
S'libEGL  '
p86
sg9
S'21698'
p87
sg11
S'loaded /system/lib/egl/libGLESv2_MRVL.so\n'
p88
sa(dp89
g2
S'21717'
p90
sg4
L1449717736367L
sg5
g6
sg7
S'SocketService'
p91
sg9
S'21717'
p92
sg11
S'onStartCommand : bLogin:false\n'
p93
sa(dp94
g2
S'21717'
p95
sg4
L1449717736375L
sg5
g6
sg7
S'SocketService'
p96
sg9
S'21717'
p97
sg11
S'pid:21717 myPid:21717\n'
p98
sa(dp99
g2
S'21717'
p100
sg4
L1449717736382L
sg5
g6
sg7
S'SocketService'
p101
sg9
S'21717'
p102
sg11
S'start to run current thread!id:16354\n'
p103
sa(dp104
g2
S'21698'
p105
sg4
L1449717736398L
sg5
g6
sg7
S'GC      '
p106
sg9
S'21698'
p107
sg11
S'<tid=21698> OES20 ===> GC Version   : GC Ver rls_pxa988_JB42_R1_RC2_GC13 \n'
p108
sa(dp109
g2
S'21698'
p110
sg4
L1449717736406L
sg5
g6
sg7
S'v_gal   '
p111
sg9
S'21698'
p112
sg11
S'[tid=21698] gcmONERROR: status=-13(gcvSTATUS_NOT_SUPPORTED) @ gcoHARDWARE_IsFeatureAvailable(2672)\n'
p113
sa(dp114
g2
S'21698'
p115
sg4
L1449717736422L
sg5
g6
sg7
S'OpenGLRenderer'
p116
sg9
S'21698'
p117
sg11
S'Enabling debug mode 0\n'
p118
sa(dp119
g2
S'21717'
p120
sg4
L1449717736687L
sg5
g6
sg7
S'SocketService'
p121
sg9
S'21736'
p122
sg11
S'ip/172.20.10.6 lport:50628 p:143\n'
p123
sa(dp124
g2
S'21717'
p125
sg4
L1449717736757L
sg5
g6
sg7
S'ForegroundActivity'
p126
sg9
S'21736'
p127
sg11
S'\xe6\x9c\xac\xe6\xac\xa1\xe5\x8f\x91\xe9\x80\x81\xe5\xb8\xa7\xe9\x95\xbf:35\t\xe6\x80\xbb\xe5\xb8\xa7\xe9\x95\xbf:35\n'
p128
sa(dp129
g2
S'21717'
p130
sg4
L1449717736757L
sg5
g6
sg7
S'SocketService'
p131
sg9
S'21736'
p132
sg11
S'success to connect server!id:16354 bLogin:false\n'
p133
sa(dp134
g2
S'21717'
p135
sg4
L1449717736906L
sg5
g6
sg7
S'ForegroundActivity'
p136
sg9
S'21740'
p137
sg11
S'\xe6\x9c\xac\xe6\xac\xa1\xe6\x94\xb6\xe5\x88\xb0\xe5\xb8\xa7\xe9\x95\xbf:13\t\xe6\x80\xbb\xe5\xb8\xa7\xe9\x95\xbf:13\n'
p138
sa(dp139
g2
S'21717'
p140
sg4
L1449717737242L
sg5
g6
sg7
S'SocketService1'
p141
sg9
S'21734'
p142
sg11
S'\xe6\x9c\xac\xe6\xac\xa1\xe6\x8f\x90\xe5\x8f\x961:LoadPtr:13 HeadIndex:0 GetSize:13 13 0 \xe5\xa4\xb4\xe4\xbf\xa1\xe6\x81\xaf:EB 90 EB 90 EB 90 0D 00 0E 01 \n'
p143
sa(dp144
g2
S'21717'
p145
sg4
L1449717737757L
sg5
g6
sg7
S'ForegroundActivity'
p146
sg9
S'21736'
p147
sg11
S'\xe6\x9c\xac\xe6\xac\xa1\xe5\x8f\x91\xe9\x80\x81\xe5\xb8\xa7\xe9\x95\xbf:11\t\xe6\x80\xbb\xe5\xb8\xa7\xe9\x95\xbf:46\n'
p148
sa(dp149
g2
S'21717'
p150
sg4
L1449717738226L
sg5
g6
sg7
S'ForegroundActivity'
p151
sg9
S'21740'
p152
sg11
S'\xe6\x9c\xac\xe6\xac\xa1\xe6\x94\xb6\xe5\x88\xb0\xe5\xb8\xa7\xe9\x95\xbf:642\t\xe6\x80\xbb\xe5\xb8\xa7\xe9\x95\xbf:655\n'
p153
sa(dp154
g2
S'21717'
p155
sg4
L1449717738265L
sg5
g6
sg7
S'SocketService1'
p156
sg9
S'21734'
p157
sg11
S'\xe6\x9c\xac\xe6\xac\xa1\xe6\x8f\x90\xe5\x8f\x961:LoadPtr:655 HeadIndex:13 GetSize:642 130 512 \xe5\xa4\xb4\xe4\xbf\xa1\xe6\x81\xaf:EB 90 EB 90 EB 90 82 02 14 0A \n'
p158
sa(dp159
g2
S'21698'
p160
sg4
L1449717738453L
sg5
g6
sg7
S'AbsListView'
p161
sg9
S'21698'
p162
sg11
S'Get MotionRecognitionManager\n'
p163
sa(dp164
g2
S'21698'
p165
sg4
L1449717738515L
sg5
g6
sg7
S'AbsListView'
p166
sg9
S'21698'
p167
sg11
S'Get MotionRecognitionManager\n'
p168
sa(dp169
g2
S'21698'
p170
sg4
L1449717738531L
sg5
g6
sg7
S'AbsListView'
p171
sg9
S'21698'
p172
sg11
S'Get MotionRecognitionManager\n'
p173
sa(dp174
g2
S'21698'
p175
sg4
L1449717738593L
sg5
g6
sg7
S'MainActivity'
p176
sg9
S'21698'
p177
sg11
S'Start One Client\n'
p178
sa(dp179
g2
S'21717'
p180
sg4
L1449717738757L
sg5
g6
sg7
S'ForegroundActivity'
p181
sg9
S'21736'
p182
sg11
S'\xe6\x9c\xac\xe6\xac\xa1\xe5\x8f\x91\xe9\x80\x81\xe5\xb8\xa7\xe9\x95\xbf:11\t\xe6\x80\xbb\xe5\xb8\xa7\xe9\x95\xbf:57\n'
p183
sa(dp184
g2
S'21698'
p185
sg4
L1449717738789L
sg5
g6
sg7
S'dalvikvm'
p186
sg9
S'21698'
p187
sg11
S'GC_FOR_ALLOC freed 4048K, 23% free 16290K/21088K, paused 20ms, total 20ms\n'
p188
sa(dp189
g2
S'21698'
p190
sg4
L1449717739039L
sg5
g6
sg7
S'dalvikvm'
p191
sg9
S'21700'
p192
sg11
S'GC_CONCURRENT freed 333K, 15% free 17960K/21088K, paused 3ms+3ms, total 24ms\n'
p193
sa(dp194
g2
S'21698'
p195
sg4
L1449717739039L
sg5
g6
sg7
S'dalvikvm'
p196
sg9
S'21698'
p197
sg11
S'WAIT_FOR_CONCURRENT_GC blocked 13ms\n'
p198
sa(dp199
g2
S'21698'
p200
sg4
L1449717739086L
sg5
g6
sg7
S'AbsListView'
p201
sg9
S'21698'
p202
sg11
S'unregisterIRListener() is called \n'
p203
sa(dp204
g2
S'21698'
p205
sg4
L1449717739093L
sg5
g6
sg7
S'AbsListView'
p206
sg9
S'21698'
p207
sg11
S'unregisterIRListener() is called \n'
p208
sa(dp209
g2
S'21717'
p210
sg4
L1449717739140L
sg5
g6
sg7
S'ForegroundActivity'
p211
sg9
S'21740'
p212
sg11
S'\xe6\x9c\xac\xe6\xac\xa1\xe6\x94\xb6\xe5\x88\xb0\xe5\xb8\xa7\xe9\x95\xbf:67\t\xe6\x80\xbb\xe5\xb8\xa7\xe9\x95\xbf:722\n'
p213
sa(dp214
g2
S'21698'
p215
sg4
L1449717739257L
sg5
g6
sg7
S'AbsListView'
p216
sg9
S'21698'
p217
sg11
S'unregisterIRListener() is called \n'
p218
sa(dp219
g2
S'21698'
p220
sg4
L1449717739297L
sg5
g6
sg7
S'AbsListView'
p221
sg9
S'21698'
p222
sg11
S'unregisterIRListener() is called \n'
p223
sa(dp224
g2
S'21717'
p225
sg4
L1449717739328L
sg5
g6
sg7
S'SocketService1'
p226
sg9
S'21734'
p227
sg11
S'\xe6\x9c\xac\xe6\xac\xa1\xe6\x8f\x90\xe5\x8f\x961:LoadPtr:722 HeadIndex:655 GetSize:67 67 0 \xe5\xa4\xb4\xe4\xbf\xa1\xe6\x81\xaf:EB 90 EB 90 EB 90 43 00 15 02 \n'
p228
sa(dp229
g2
S'21698'
p230
sg4
L1449717739382L
sg5
g6
sg7
S'MainActivity'
p231
sg9
S'21698'
p232
sg11
S'ServerVersion:22 LocalVersion:12\n'
p233
sa(dp234
g2
S'21698'
p235
sg4
L1449717739554L
sg5
g6
sg7
S'AbsListView'
p236
sg9
S'21698'
p237
sg11
S'unregisterIRListener() is called \n'
p238
sa(dp239
g2
S'21698'
p240
sg4
L1449717747757L
sg5
g6
sg7
S'AbsListView'
p241
sg9
S'21698'
p242
sg11
S'unregisterIRListener() is called \n'
p243
sa(dp244
g2
S'21698'
p245
sg4
L1449717747773L
sg5
S'E'
p246
sg7
S'ViewRootImpl'
p247
sg9
S'21698'
p248
sg11
S'sendUserActionEvent() mView == null\n'
p249
sa(dp250
g2
S'21717'
p251
sg4
L1449717753617L
sg5
g6
sg7
S'dalvikvm'
p252
sg9
S'21721'
p253
sg11
S'GC_CONCURRENT freed 402K, 14% free 7698K/8852K, paused 5ms+2ms, total 38ms\n'
p254
sa(dp255
g2
S'21698'
p256
sg4
L1449717754539L
sg5
g6
sg7
S'MainActivity'
p257
sg9
S'21698'
p258
sg11
S'V.getTag:null v.id:2131230734\n'
p259
sa(dp260
g2
S'21698'
p261
sg4
L1449717758265L
sg5
g20
sg7
S'webclipboard'
p262
sg9
S'21698'
p263
sg11
S'clipservice: android.sec.clipboard.ClipboardExManager@41949b50\n'
p264
sa(dp265
g2
S'21698'
p266
sg4
L1449717758554L
sg5
g6
sg7
S'WebView '
p267
sg9
S'21698'
p268
sg11
S'loadUrlImpl: called\n'
p269
sa(dp270
g2
S'21698'
p271
sg4
L1449717758750L
sg5
g6
sg7
S'AbsListView'
p272
sg9
S'21698'
p273
sg11
S'unregisterIRListener() is called \n'
p274
sa(dp275
g2
S'21698'
p276
sg4
L1449717758797L
sg5
g6
sg7
S'WebView '
p277
sg9
S'21698'
p278
sg11
S'onSizeChanged - w:480 h:694\n'
p279
sa(dp280
g2
S'21698'
p281
sg4
L1449717759000L
sg5
S'V'
p282
sg7
S'webkit  '
p283
sg9
S'21761'
p284
sg11
S'BrowserFrame constructor: this=Handler (android.webkit.BrowserFrame) {41947ac8}\n'
p285
sa(dp286
g2
S'21698'
p287
sg4
L1449717759000L
sg5
g6
sg7
S'AbsListView'
p288
sg9
S'21698'
p289
sg11
S'onVisibilityChanged() is called, visibility : 4\n'
p290
sa(dp291
g2
S'21698'
p292
sg4
L1449717759000L
sg5
g6
sg7
S'AbsListView'
p293
sg9
S'21698'
p294
sg11
S'unregisterIRListener() is called \n'
p295
sa(dp296
g2
S'21698'
p297
sg4
L1449717759007L
sg5
g6
sg7
S'AbsListView'
p298
sg9
S'21698'
p299
sg11
S'onVisibilityChanged() is called, visibility : 4\n'
p300
sa(dp301
g2
S'21698'
p302
sg4
L1449717759007L
sg5
g6
sg7
S'AbsListView'
p303
sg9
S'21698'
p304
sg11
S'unregisterIRListener() is called \n'
p305
sa(dp306
g2
S'21698'
p307
sg4
L1449717759047L
sg5
g6
sg7
S'webcore '
p308
sg9
S'21761'
p309
sg11
S' CORE loadUrl: called\n'
p310
sa(dp311
g2
S'21698'
p312
sg4
L1449717759047L
sg5
g6
sg7
S'webkit  '
p313
sg9
S'21761'
p314
sg11
S'Firewall not null\n'
p315
sa(dp316
g2
S'21698'
p317
sg4
L1449717759047L
sg5
g6
sg7
S'webkit  '
p318
sg9
S'21761'
p319
sg11
S'euler: isUrlBlocked = false\n'
p320
sa(dp321
g2
S'21698'
p322
sg4
L1449717760593L
sg5
g20
sg7
S'GATE    '
p323
sg9
S'21761'
p324
sg11
S'<GATE-M>DEV_ACTION_COMPLETED</GATE-M>\n'
p325
sa(dp326
g2
S'21698'
p327
sg4
L1449717760617L
sg5
g6
sg7
S'TilesManager'
p328
sg9
S'21698'
p329
sg11
S'Starting TG #0, 0x56f76d40\n'
p330
sa(dp331
g2
S'21698'
p332
sg4
L1449717760617L
sg5
g6
sg7
S'TilesManager'
p333
sg9
S'21698'
p334
sg11
S'new EGLContext from framework: 4ff20818 \n'
p335
sa(dp336
g2
S'21698'
p337
sg4
L1449717760625L
sg5
g6
sg7
S'GLWebViewState'
p338
sg9
S'21698'
p339
sg11
S'Reinit shader\n'
p340
sa(dp341
g2
S'21698'
p342
sg4
L1449717760718L
sg5
g6
sg7
S'GLWebViewState'
p343
sg9
S'21698'
p344
sg11
S'Reinit transferQueue\n'
p345
sa(dp346
g2
S'21698'
p347
sg4
L1449717764078L
sg5
g6
sg7
S'cn.edu.nju.ise.kikandroid'
p348
sg9
S'21748'
p349
sg11
S'Screenshot:1449717764082\n'
p350
sa(dp351
g2
S'21698'
p352
sg4
L1449717764164L
sg5
g6
sg7
S'dalvikvm'
p353
sg9
S'21698'
p354
sg11
S'GC_FOR_ALLOC freed 1194K, 15% free 18011K/21088K, paused 35ms, total 37ms\n'
p355
sa(dp356
g2
S'21698'
p357
sg4
L1449717764172L
sg5
g20
sg7
S'dalvikvm-heap'
p358
sg9
S'21698'
p359
sg11
S'Grow heap (frag case) to 19.784MB for 1536016-byte allocation\n'
p360
sa(dp361
g2
S'21698'
p362
sg4
L1449717764187L
sg5
g6
sg7
S'dalvikvm'
p363
sg9
S'21707'
p364
sg11
S'GC_FOR_ALLOC freed 7K, 14% free 19503K/22592K, paused 20ms, total 20ms\n'
p365
sa(dp366
g2
S'21698'
p367
sg4
L1449717764218L
sg5
g6
sg7
S'dalvikvm'
p368
sg9
S'21698'
p369
sg11
S'GC_FOR_ALLOC freed 106K, 15% free 19397K/22592K, paused 21ms, total 21ms\n'
p370
sa(dp371
g2
S'21698'
p372
sg4
L1449717764226L
sg5
g20
sg7
S'dalvikvm-heap'
p373
sg9
S'21698'
p374
sg11
S'Grow heap (frag case) to 21.137MB for 1536016-byte allocation\n'
p375
sa(dp376
g2
S'21698'
p377
sg4
L1449717764257L
sg5
g6
sg7
S'dalvikvm'
p378
sg9
S'21707'
p379
sg11
S'GC_FOR_ALLOC freed 2K, 14% free 20894K/24096K, paused 30ms, total 30ms\n'
p380
sa(dp381
g2
S'21698'
p382
sg4
L1449717765422L
sg5
g6
sg7
S'AbsListView'
p383
sg9
S'21698'
p384
sg11
S'onVisibilityChanged() is called, visibility : 0\n'
p385
sa(dp386
g2
S'21698'
p387
sg4
L1449717765422L
sg5
g6
sg7
S'AbsListView'
p388
sg9
S'21698'
p389
sg11
S'unregisterIRListener() is called \n'
p390
sa(dp391
g2
S'21698'
p392
sg4
L1449717765429L
sg5
g6
sg7
S'AbsListView'
p393
sg9
S'21698'
p394
sg11
S'onVisibilityChanged() is called, visibility : 0\n'
p395
sa(dp396
g2
S'21698'
p397
sg4
L1449717765429L
sg5
g6
sg7
S'AbsListView'
p398
sg9
S'21698'
p399
sg11
S'unregisterIRListener() is called \n'
p400
sa(dp401
g2
S'21698'
p402
sg4
L1449717765453L
sg5
g6
sg7
S'AbsListView'
p403
sg9
S'21698'
p404
sg11
S'unregisterIRListener() is called \n'
p405
sa(dp406
g2
S'21698'
p407
sg4
L1449717768320L
sg5
g20
sg7
S'webclipboard'
p408
sg9
S'21698'
p409
sg11
S'clipservice: android.sec.clipboard.ClipboardExManager@4196a870\n'
p410
sa(dp411
g2
S'21698'
p412
sg4
L1449717768320L
sg5
g282
sg7
S'webkit  '
p413
sg9
S'21761'
p414
sg11
S'BrowserFrame constructor: this=Handler (android.webkit.BrowserFrame) {4195c1d8}\n'
p415
sa(dp416
g2
S'21698'
p417
sg4
L1449717768336L
sg5
g6
sg7
S'WebView '
p418
sg9
S'21698'
p419
sg11
S'loadUrlImpl: called\n'
p420
sa(dp421
g2
S'21698'
p422
sg4
L1449717768336L
sg5
g6
sg7
S'webcore '
p423
sg9
S'21761'
p424
sg11
S' CORE loadUrl: called\n'
p425
sa(dp426
g2
S'21698'
p427
sg4
L1449717768336L
sg5
g6
sg7
S'webkit  '
p428
sg9
S'21761'
p429
sg11
S'Firewall not null\n'
p430
sa(dp431
g2
S'21698'
p432
sg4
L1449717768336L
sg5
g6
sg7
S'webkit  '
p433
sg9
S'21761'
p434
sg11
S'euler: isUrlBlocked = false\n'
p435
sa(dp436
g2
S'21698'
p437
sg4
L1449717768343L
sg5
g6
sg7
S'AbsListView'
p438
sg9
S'21698'
p439
sg11
S'unregisterIRListener() is called \n'
p440
sa(dp441
g2
S'21698'
p442
sg4
L1449717768351L
sg5
g6
sg7
S'AbsListView'
p443
sg9
S'21698'
p444
sg11
S'unregisterIRListener() is called \n'
p445
sa(dp446
g2
S'21698'
p447
sg4
L1449717768375L
sg5
g6
sg7
S'WebView '
p448
sg9
S'21698'
p449
sg11
S'onSizeChanged - w:480 h:694\n'
p450
sa(dp451
g2
S'21698'
p452
sg4
L1449717768437L
sg5
g6
sg7
S'AbsListView'
p453
sg9
S'21698'
p454
sg11
S'onVisibilityChanged() is called, visibility : 4\n'
p455
sa(dp456
g2
S'21698'
p457
sg4
L1449717768437L
sg5
g6
sg7
S'AbsListView'
p458
sg9
S'21698'
p459
sg11
S'unregisterIRListener() is called \n'
p460
sa(dp461
g2
S'21698'
p462
sg4
L1449717768867L
sg5
g20
sg7
S'GATE    '
p463
sg9
S'21761'
p464
sg11
S'<GATE-M>DEV_ACTION_COMPLETED</GATE-M>\n'
p465
sa(dp466
g2
S'21698'
p467
sg4
L1449717769500L
sg5
g282
sg7
S'WebViewInputDispatcher'
p468
sg9
S'21698'
p469
sg11
S'blockWebkitDraw\n'
p470
sa(dp471
g2
S'21698'
p472
sg4
L1449717769500L
sg5
g282
sg7
S'WebViewInputDispatcher'
p473
sg9
S'21698'
p474
sg11
S'blockWebkitDraw lockedfalse\n'
p475
sa(dp476
g2
S'21698'
p477
sg4
L1449717769804L
sg5
g6
sg7
S'webview '
p478
sg9
S'21761'
p479
sg11
S'blockWebkitViewMessage= false\n'
p480
sa(dp481
g2
S'21698'
p482
sg4
L1449717771047L
sg5
g6
sg7
S'cn.edu.nju.ise.kikandroid'
p483
sg9
S'21748'
p484
sg11
S'Screenshot:1449717771049\n'
p485
sa(dp486
g2
S'21698'
p487
sg4
L1449717771086L
sg5
g6
sg7
S'dalvikvm'
p488
sg9
S'21698'
p489
sg11
S'GC_FOR_ALLOC freed 3122K, 15% free 17957K/21088K, paused 21ms, total 22ms\n'
p490
sa(dp491
g2
S'21698'
p492
sg4
L1449717771093L
sg5
g20
sg7
S'dalvikvm-heap'
p493
sg9
S'21698'
p494
sg11
S'Grow heap (frag case) to 19.731MB for 1536016-byte allocation\n'
p495
sa(dp496
g2
S'21698'
p497
sg4
L1449717771117L
sg5
g6
sg7
S'dalvikvm'
p498
sg9
S'21698'
p499
sg11
S'GC_FOR_ALLOC freed 7K, 14% free 19450K/22592K, paused 21ms, total 21ms\n'
p500
sa(dp501
g2
S'21698'
p502
sg4
L1449717771140L
sg5
g6
sg7
S'dalvikvm'
p503
sg9
S'21698'
p504
sg11
S'GC_FOR_ALLOC freed <1K, 14% free 19450K/22592K, paused 19ms, total 19ms\n'
p505
sa(dp506
g2
S'21698'
p507
sg4
L1449717771148L
sg5
g20
sg7
S'dalvikvm-heap'
p508
sg9
S'21698'
p509
sg11
S'Grow heap (frag case) to 21.189MB for 1536016-byte allocation\n'
p510
sa(dp511
g2
S'21698'
p512
sg4
L1449717771172L
sg5
g6
sg7
S'dalvikvm'
p513
sg9
S'21698'
p514
sg11
S'GC_FOR_ALLOC freed 0K, 14% free 20950K/24096K, paused 19ms, total 19ms\n'
p515
sa(dp516
g2
S'21698'
p517
sg4
L1449717772039L
sg5
g6
sg7
S'AbsListView'
p518
sg9
S'21698'
p519
sg11
S'onVisibilityChanged() is called, visibility : 0\n'
p520
sa(dp521
g2
S'21698'
p522
sg4
L1449717772039L
sg5
g6
sg7
S'AbsListView'
p523
sg9
S'21698'
p524
sg11
S'unregisterIRListener() is called \n'
p525
sa(dp526
g2
S'21698'
p527
sg4
L1449717772062L
sg5
g6
sg7
S'AbsListView'
p528
sg9
S'21698'
p529
sg11
S'unregisterIRListener() is called \n'
p530
sa(dp531
g2
S'21717'
p532
sg4
L1449717773828L
sg5
g6
sg7
S'dalvikvm'
p533
sg9
S'21721'
p534
sg11
S'GC_CONCURRENT freed 403K, 14% free 7697K/8852K, paused 5ms+2ms, total 24ms\n'
p535
sa(dp536
g2
S'21698'
p537
sg4
L1449717774445L
sg5
g20
sg7
S'webclipboard'
p538
sg9
S'21698'
p539
sg11
S'clipservice: android.sec.clipboard.ClipboardExManager@4198e9b8\n'
p540
sa(dp541
g2
S'21698'
p542
sg4
L1449717774445L
sg5
g282
sg7
S'webkit  '
p543
sg9
S'21761'
p544
sg11
S'BrowserFrame constructor: this=Handler (android.webkit.BrowserFrame) {4198e618}\n'
p545
sa(dp546
g2
S'21698'
p547
sg4
L1449717774468L
sg5
g6
sg7
S'WebView '
p548
sg9
S'21698'
p549
sg11
S'loadUrlImpl: called\n'
p550
sa(dp551
g2
S'21698'
p552
sg4
L1449717774468L
sg5
g6
sg7
S'webcore '
p553
sg9
S'21761'
p554
sg11
S' CORE loadUrl: called\n'
p555
sa(dp556
g2
S'21698'
p557
sg4
L1449717774468L
sg5
g6
sg7
S'webkit  '
p558
sg9
S'21761'
p559
sg11
S'Firewall not null\n'
p560
sa(dp561
g2
S'21698'
p562
sg4
L1449717774476L
sg5
g6
sg7
S'webkit  '
p563
sg9
S'21761'
p564
sg11
S'euler: isUrlBlocked = false\n'
p565
sa(dp566
g2
S'21698'
p567
sg4
L1449717774484L
sg5
g6
sg7
S'AbsListView'
p568
sg9
S'21698'
p569
sg11
S'unregisterIRListener() is called \n'
p570
sa(dp571
g2
S'21698'
p572
sg4
L1449717774492L
sg5
g6
sg7
S'AbsListView'
p573
sg9
S'21698'
p574
sg11
S'unregisterIRListener() is called \n'
p575
sa(dp576
g2
S'21698'
p577
sg4
L1449717774531L
sg5
g6
sg7
S'WebView '
p578
sg9
S'21698'
p579
sg11
S'onSizeChanged - w:480 h:694\n'
p580
sa(dp581
g2
S'21698'
p582
sg4
L1449717774672L
sg5
g6
sg7
S'AbsListView'
p583
sg9
S'21698'
p584
sg11
S'onVisibilityChanged() is called, visibility : 4\n'
p585
sa(dp586
g2
S'21698'
p587
sg4
L1449717774672L
sg5
g6
sg7
S'AbsListView'
p588
sg9
S'21698'
p589
sg11
S'unregisterIRListener() is called \n'
p590
sa(dp591
g2
S'21698'
p592
sg4
L1449717775070L
sg5
g20
sg7
S'GATE    '
p593
sg9
S'21761'
p594
sg11
S'<GATE-M>DEV_ACTION_COMPLETED</GATE-M>\n'
p595
sa(dp596
g2
S'21717'
p597
sg4
L1449717776242L
sg5
g6
sg7
S'ForegroundActivity'
p598
sg9
S'21732'
p599
sg11
S'\xe6\x9c\xac\xe6\xac\xa1\xe5\x8f\x91\xe9\x80\x81\xe5\xb8\xa7\xe9\x95\xbf:13\t\xe6\x80\xbb\xe5\xb8\xa7\xe9\x95\xbf:70\n'
p600
sa(dp601
g2
S'21717'
p602
sg4
L1449717776625L
sg5
g6
sg7
S'ForegroundActivity'
p603
sg9
S'21740'
p604
sg11
S'\xe6\x9c\xac\xe6\xac\xa1\xe6\x94\xb6\xe5\x88\xb0\xe5\xb8\xa7\xe9\x95\xbf:13\t\xe6\x80\xbb\xe5\xb8\xa7\xe9\x95\xbf:735\n'
p605
sa(dp606
g2
S'21698'
p607
sg4
L1449717776836L
sg5
g6
sg7
S'cn.edu.nju.ise.kikandroid'
p608
sg9
S'21748'
p609
sg11
S'Screenshot:1449717776838\n'
p610
sa(dp611
g2
S'21698'
p612
sg4
L1449717776875L
sg5
g6
sg7
S'dalvikvm'
p613
sg9
S'21698'
p614
sg11
S'GC_FOR_ALLOC freed 3129K, 15% free 18001K/21088K, paused 24ms, total 25ms\n'
p615
sa(dp616
g2
S'21698'
p617
sg4
L1449717776882L
sg5
g20
sg7
S'dalvikvm-heap'
p618
sg9
S'21698'
p619
sg11
S'Grow heap (frag case) to 19.774MB for 1536016-byte allocation\n'
p620
sa(dp621
g2
S'21698'
p622
sg4
L1449717776906L
sg5
g6
sg7
S'dalvikvm'
p623
sg9
S'21698'
p624
sg11
S'GC_FOR_ALLOC freed 7K, 14% free 19493K/22592K, paused 27ms, total 27ms\n'
p625
sa(dp626
g2
S'21698'
p627
sg4
L1449717776937L
sg5
g6
sg7
S'dalvikvm'
p628
sg9
S'21698'
p629
sg11
S'GC_FOR_ALLOC freed <1K, 14% free 19493K/22592K, paused 19ms, total 19ms\n'
p630
sa(dp631
g2
S'21698'
p632
sg4
L1449717776937L
sg5
g20
sg7
S'dalvikvm-heap'
p633
sg9
S'21698'
p634
sg11
S'Grow heap (frag case) to 21.232MB for 1536016-byte allocation\n'
p635
sa(dp636
g2
S'21698'
p637
sg4
L1449717776968L
sg5
g6
sg7
S'dalvikvm'
p638
sg9
S'21698'
p639
sg11
S'GC_FOR_ALLOC freed 0K, 13% free 20993K/24096K, paused 26ms, total 26ms\n'
p640
sa(dp641
g2
S'21717'
p642
sg4
L1449717777375L
sg5
g6
sg7
S'SocketService1'
p643
sg9
S'21734'
p644
sg11
S'\xe6\x9c\xac\xe6\xac\xa1\xe6\x8f\x90\xe5\x8f\x961:LoadPtr:735 HeadIndex:722 GetSize:13 13 0 \xe5\xa4\xb4\xe4\xbf\xa1\xe6\x81\xaf:EB 90 EB 90 EB 90 0D 00 10 01 \n'
p645
sa(dp646
g2
S'21698'
p647
sg4
L1449717777812L
sg5
g6
sg7
S'AbsListView'
p648
sg9
S'21698'
p649
sg11
S'onVisibilityChanged() is called, visibility : 0\n'
p650
sa(dp651
g2
S'21698'
p652
sg4
L1449717777812L
sg5
g6
sg7
S'AbsListView'
p653
sg9
S'21698'
p654
sg11
S'unregisterIRListener() is called \n'
p655
sa(dp656
g2
S'21698'
p657
sg4
L1449717777828L
sg5
g6
sg7
S'AbsListView'
p658
sg9
S'21698'
p659
sg11
S'unregisterIRListener() is called \n'
p660
sa(dp661
g2
S'21698'
p662
sg4
L1449717777836L
sg5
g6
sg7
S'AbsListView'
p663
sg9
S'21698'
p664
sg11
S'unregisterIRListener() is called \n'
p665
sa(dp666
g2
S'21698'
p667
sg4
L1449717779031L
sg5
g20
sg7
S'webclipboard'
p668
sg9
S'21698'
p669
sg11
S'clipservice: android.sec.clipboard.ClipboardExManager@4199d468\n'
p670
sa(dp671
g2
S'21698'
p672
sg4
L1449717779031L
sg5
g282
sg7
S'webkit  '
p673
sg9
S'21761'
p674
sg11
S'BrowserFrame constructor: this=Handler (android.webkit.BrowserFrame) {4199d2e8}\n'
p675
sa(dp676
g2
S'21698'
p677
sg4
L1449717779047L
sg5
g6
sg7
S'WebView '
p678
sg9
S'21698'
p679
sg11
S'loadUrlImpl: called\n'
p680
sa(dp681
g2
S'21698'
p682
sg4
L1449717779047L
sg5
g6
sg7
S'webcore '
p683
sg9
S'21761'
p684
sg11
S' CORE loadUrl: called\n'
p685
sa(dp686
g2
S'21698'
p687
sg4
L1449717779047L
sg5
g6
sg7
S'webkit  '
p688
sg9
S'21761'
p689
sg11
S'Firewall not null\n'
p690
sa(dp691
g2
S'21698'
p692
sg4
L1449717779047L
sg5
g6
sg7
S'webkit  '
p693
sg9
S'21761'
p694
sg11
S'euler: isUrlBlocked = false\n'
p695
sa(dp696
g2
S'21698'
p697
sg4
L1449717779054L
sg5
g6
sg7
S'AbsListView'
p698
sg9
S'21698'
p699
sg11
S'unregisterIRListener() is called \n'
p700
sa(dp701
g2
S'21698'
p702
sg4
L1449717779093L
sg5
g6
sg7
S'WebView '
p703
sg9
S'21698'
p704
sg11
S'onSizeChanged - w:480 h:694\n'
p705
sa(dp706
g2
S'21698'
p707
sg4
L1449717779211L
sg5
g6
sg7
S'AbsListView'
p708
sg9
S'21698'
p709
sg11
S'onVisibilityChanged() is called, visibility : 4\n'
p710
sa(dp711
g2
S'21698'
p712
sg4
L1449717779211L
sg5
g6
sg7
S'AbsListView'
p713
sg9
S'21698'
p714
sg11
S'unregisterIRListener() is called \n'
p715
sa(dp716
g2
S'21698'
p717
sg4
L1449717779468L
sg5
g20
sg7
S'GATE    '
p718
sg9
S'21761'
p719
sg11
S'<GATE-M>DEV_ACTION_COMPLETED</GATE-M>\n'
p720
sa(dp721
g2
S'21698'
p722
sg4
L1449717784453L
sg5
g6
sg7
S'cn.edu.nju.ise.kikandroid'
p723
sg9
S'21748'
p724
sg11
S'Screenshot:1449717784457\n'
p725
sa(dp726
g2
S'21698'
p727
sg4
L1449717784531L
sg5
g6
sg7
S'dalvikvm'
p728
sg9
S'21698'
p729
sg11
S'GC_FOR_ALLOC freed 3130K, 15% free 18045K/21088K, paused 70ms, total 71ms\n'
p730
sa(dp731
g2
S'21698'
p732
sg4
L1449717784531L
sg5
g20
sg7
S'dalvikvm-heap'
p733
sg9
S'21698'
p734
sg11
S'Grow heap (frag case) to 19.817MB for 1536016-byte allocation\n'
p735
sa(dp736
g2
S'21698'
p737
sg4
L1449717784578L
sg5
g6
sg7
S'dalvikvm'
p738
sg9
S'21698'
p739
sg11
S'GC_FOR_ALLOC freed 7K, 14% free 19538K/22592K, paused 41ms, total 41ms\n'
p740
sa(dp741
g2
S'21698'
p742
sg4
L1449717784664L
sg5
g6
sg7
S'dalvikvm'
p743
sg9
S'21698'
p744
sg11
S'GC_FOR_ALLOC freed <1K, 14% free 19538K/22592K, paused 53ms, total 53ms\n'
p745
sa(dp746
g2
S'21698'
p747
sg4
L1449717784664L
sg5
g20
sg7
S'dalvikvm-heap'
p748
sg9
S'21698'
p749
sg11
S'Grow heap (frag case) to 21.275MB for 1536016-byte allocation\n'
p750
sa(dp751
g2
S'21698'
p752
sg4
L1449717784765L
sg5
g6
sg7
S'dalvikvm'
p753
sg9
S'21698'
p754
sg11
S'GC_FOR_ALLOC freed 0K, 13% free 21038K/24096K, paused 78ms, total 78ms\n'
p755
sa(dp756
g2
S'21698'
p757
sg4
L1449717785523L
sg5
g6
sg7
S'AbsListView'
p758
sg9
S'21698'
p759
sg11
S'onVisibilityChanged() is called, visibility : 0\n'
p760
sa(dp761
g2
S'21698'
p762
sg4
L1449717785523L
sg5
g6
sg7
S'AbsListView'
p763
sg9
S'21698'
p764
sg11
S'unregisterIRListener() is called \n'
p765
sa(dp766
g2
S'21698'
p767
sg4
L1449717785531L
sg5
g6
sg7
S'AbsListView'
p768
sg9
S'21698'
p769
sg11
S'onVisibilityChanged() is called, visibility : 0\n'
p770
sa(dp771
g2
S'21698'
p772
sg4
L1449717785531L
sg5
g6
sg7
S'AbsListView'
p773
sg9
S'21698'
p774
sg11
S'unregisterIRListener() is called \n'
p775
sa(dp776
g2
S'21698'
p777
sg4
L1449717785547L
sg5
g6
sg7
S'AbsListView'
p778
sg9
S'21698'
p779
sg11
S'unregisterIRListener() is called \n'
p780
sa(dp781
g2
S'21698'
p782
sg4
L1449717787843L
sg5
g20
sg7
S'webclipboard'
p783
sg9
S'21698'
p784
sg11
S'clipservice: android.sec.clipboard.ClipboardExManager@419abb78\n'
p785
sa(dp786
g2
S'21698'
p787
sg4
L1449717787851L
sg5
g282
sg7
S'webkit  '
p788
sg9
S'21761'
p789
sg11
S'BrowserFrame constructor: this=Handler (android.webkit.BrowserFrame) {419ab7d8}\n'
p790
sa(dp791
g2
S'21698'
p792
sg4
L1449717787867L
sg5
g6
sg7
S'WebView '
p793
sg9
S'21698'
p794
sg11
S'loadUrlImpl: called\n'
p795
sa(dp796
g2
S'21698'
p797
sg4
L1449717787867L
sg5
g6
sg7
S'webcore '
p798
sg9
S'21761'
p799
sg11
S' CORE loadUrl: called\n'
p800
sa(dp801
g2
S'21698'
p802
sg4
L1449717787867L
sg5
g6
sg7
S'webkit  '
p803
sg9
S'21761'
p804
sg11
S'Firewall not null\n'
p805
sa(dp806
g2
S'21698'
p807
sg4
L1449717787875L
sg5
g6
sg7
S'webkit  '
p808
sg9
S'21761'
p809
sg11
S'euler: isUrlBlocked = false\n'
p810
sa(dp811
g2
S'21698'
p812
sg4
L1449717787882L
sg5
g6
sg7
S'AbsListView'
p813
sg9
S'21698'
p814
sg11
S'unregisterIRListener() is called \n'
p815
sa(dp816
g2
S'21698'
p817
sg4
L1449717787890L
sg5
g6
sg7
S'AbsListView'
p818
sg9
S'21698'
p819
sg11
S'unregisterIRListener() is called \n'
p820
sa(dp821
g2
S'21698'
p822
sg4
L1449717787929L
sg5
g6
sg7
S'WebView '
p823
sg9
S'21698'
p824
sg11
S'onSizeChanged - w:480 h:694\n'
p825
sa(dp826
g2
S'21698'
p827
sg4
L1449717788093L
sg5
g6
sg7
S'AbsListView'
p828
sg9
S'21698'
p829
sg11
S'onVisibilityChanged() is called, visibility : 4\n'
p830
sa(dp831
g2
S'21698'
p832
sg4
L1449717788093L
sg5
g6
sg7
S'AbsListView'
p833
sg9
S'21698'
p834
sg11
S'unregisterIRListener() is called \n'
p835
sa(dp836
g2
S'21698'
p837
sg4
L1449717788101L
sg5
g6
sg7
S'AbsListView'
p838
sg9
S'21698'
p839
sg11
S'onVisibilityChanged() is called, visibility : 4\n'
p840
sa(dp841
g2
S'21698'
p842
sg4
L1449717788101L
sg5
g6
sg7
S'AbsListView'
p843
sg9
S'21698'
p844
sg11
S'unregisterIRListener() is called \n'
p845
sa(dp846
g2
S'21698'
p847
sg4
L1449717788211L
sg5
g20
sg7
S'GATE    '
p848
sg9
S'21761'
p849
sg11
S'<GATE-M>DEV_ACTION_COMPLETED</GATE-M>\n'
p850
sa(dp851
g2
S'21698'
p852
sg4
L1449717792734L
sg5
g6
sg7
S'cn.edu.nju.ise.kikandroid'
p853
sg9
S'21748'
p854
sg11
S'Screenshot:1449717792737\n'
p855
sa(dp856
g2
S'21698'
p857
sg4
L1449717792789L
sg5
g6
sg7
S'dalvikvm'
p858
sg9
S'21698'
p859
sg11
S'GC_FOR_ALLOC freed 3129K, 15% free 18089K/21088K, paused 53ms, total 54ms\n'
p860
sa(dp861
g2
S'21698'
p862
sg4
L1449717792804L
sg5
g20
sg7
S'dalvikvm-heap'
p863
sg9
S'21698'
p864
sg11
S'Grow heap (frag case) to 19.860MB for 1536016-byte allocation\n'
p865
sa(dp866
g2
S'21698'
p867
sg4
L1449717792836L
sg5
g6
sg7
S'dalvikvm'
p868
sg9
S'21698'
p869
sg11
S'GC_FOR_ALLOC freed 7K, 14% free 19582K/22592K, paused 34ms, total 34ms\n'
p870
sa(dp871
g2
S'21698'
p872
sg4
L1449717792882L
sg5
g6
sg7
S'dalvikvm'
p873
sg9
S'21698'
p874
sg11
S'GC_FOR_ALLOC freed <1K, 14% free 19582K/22592K, paused 35ms, total 35ms\n'
p875
sa(dp876
g2
S'21698'
p877
sg4
L1449717792890L
sg5
g20
sg7
S'dalvikvm-heap'
p878
sg9
S'21698'
p879
sg11
S'Grow heap (frag case) to 21.318MB for 1536016-byte allocation\n'
p880
sa(dp881
g2
S'21698'
p882
sg4
L1449717792929L
sg5
g6
sg7
S'dalvikvm'
p883
sg9
S'21698'
p884
sg11
S'GC_FOR_ALLOC freed 0K, 13% free 21082K/24096K, paused 28ms, total 28ms\n'
p885
sa(dp886
g2
S'21717'
p887
sg4
L1449717793140L
sg5
g6
sg7
S'dalvikvm'
p888
sg9
S'21721'
p889
sg11
S'GC_CONCURRENT freed 390K, 14% free 7697K/8852K, paused 4ms+2ms, total 88ms\n'
p890
sa(dp891
g2
S'21698'
p892
sg4
L1449717793773L
sg5
g6
sg7
S'AbsListView'
p893
sg9
S'21698'
p894
sg11
S'onVisibilityChanged() is called, visibility : 0\n'
p895
sa(dp896
g2
S'21698'
p897
sg4
L1449717793773L
sg5
g6
sg7
S'AbsListView'
p898
sg9
S'21698'
p899
sg11
S'unregisterIRListener() is called \n'
p900
sa(dp901
g2
S'21698'
p902
sg4
L1449717793804L
sg5
g6
sg7
S'AbsListView'
p903
sg9
S'21698'
p904
sg11
S'unregisterIRListener() is called \n'
p905
sa(dp906
g2
S'21717'
p907
sg4
L1449717813242L
sg5
g6
sg7
S'dalvikvm'
p908
sg9
S'21721'
p909
sg11
S'GC_CONCURRENT freed 403K, 14% free 7697K/8852K, paused 4ms+2ms, total 24ms\n'
p910
sa(dp911
g2
S'21698'
p912
sg4
L1449717815304L
sg5
g6
sg7
S'cn.edu.nju.ise.kikandroid'
p913
sg9
S'21748'
p914
sg11
S'Log:1449717815305\n'
p915
sa(dp916
g2
S'21698'
p917
sg4
L1449717815336L
sg5
g6
sg7
S'cn.edu.nju.ise.kikandroid'
p918
sg9
S'21748'
p919
sg11
S'Screenshot:1449717815342\n'
p920
sa(dp921
g2
S'21698'
p922
sg4
L1449717815406L
sg5
g6
sg7
S'dalvikvm'
p923
sg9
S'21698'
p924
sg11
S'GC_FOR_ALLOC freed 3121K, 15% free 18084K/21088K, paused 24ms, total 25ms\n'
p925
sa(dp926
g2
S'21698'
p927
sg4
L1449717815414L
sg5
g20
sg7
S'dalvikvm-heap'
p928
sg9
S'21698'
p929
sg11
S'Grow heap (frag case) to 19.855MB for 1536016-byte allocation\n'
p930
sa(dp931
g2
S'21698'
p932
sg4
L1449717815437L
sg5
g6
sg7
S'dalvikvm'
p933
sg9
S'21707'
p934
sg11
S'GC_FOR_ALLOC freed 7K, 14% free 19577K/22592K, paused 20ms, total 20ms\n'
p935
sa(dp936
g2
S'21698'
p937
sg4
L1449717815492L
sg5
g6
sg7
S'dalvikvm'
p938
sg9
S'21698'
p939
sg11
S'GC_FOR_ALLOC freed 1K, 14% free 19577K/22592K, paused 17ms, total 17ms\n'
p940
sa(dp941
g2
S'21698'
p942
sg4
L1449717815500L
sg5
g20
sg7
S'dalvikvm-heap'
p943
sg9
S'21698'
p944
sg11
S'Grow heap (frag case) to 21.313MB for 1536016-byte allocation\n'
p945
sa(dp946
g2
S'21698'
p947
sg4
L1449717815539L
sg5
g6
sg7
S'dalvikvm'
p948
sg9
S'21707'
p949
sg11
S'GC_FOR_ALLOC freed <1K, 13% free 21076K/24096K, paused 34ms, total 34ms\n'
p950
sa(dp951
g2
S'21698'
p952
sg4
L1449717815625L
sg5
S'W'
p953
sg7
S'dalvikvm'
p954
sg9
S'21748'
p955
sg11
S'threadid=15: thread exiting with uncaught exception (group=0x40f98930)\n'
p956
sa(dp957
g2
S'21698'
p958
sg4
L1449717815625L
sg5
g246
sg7
S'AndroidRuntime'
p959
sg9
S'21748'
p960
sg11
S'FATAL EXCEPTION: Thread-16350\njava.lang.NullPointerException\n\tat android.app.Instrumentation.finish(Instrumentation.java:192)\n\tat cn.edu.nju.ise.kikandroid.AUTInstrument.quitInstr(AUTInstrument.java:195)\n\tat cn.edu.nju.ise.kikandroid.AUTInstrument.startServer(AUTInstrument.java:161)\n\tat cn.edu.nju.ise.kikandroid.AUTInstrument$1.run(AUTInstrument.java:107)\n\tat java.lang.Thread.run(Thread.java:856)\n'
p961
sa.