(lp0
(dp1
S'processID'
p2
S'29850'
p3
sS'SyscTime'
p4
L1449728221431L
sS'priority'
p5
S'D'
p6
sS'tag'
p7
S'webcoreglue'
p8
sS'threadID'
p9
S'30833'
p10
sS'message'
p11
S'netstack: Memory Cache feature is ON\n'
p12
sa(dp13
g2
S'29850'
p14
sg4
L1449728221832L
sg5
g6
sg7
S'HostStatisticManager'
p15
sg9
S'30833'
p16
sg11
S'netstack: DNS Host Prioritization is: ON, Version: 5.0.1\n'
p17
sa(dp18
g2
S'29850'
p19
sg4
L1449728221852L
sg5
g6
sg7
S'        '
p20
sg9
S'30833'
p21
sg11
S'external/chromium/net/socket/tcp_fin_aggregation_factory.cc: libtcpfinaggr.so successfully loaded\n'
p22
sa(dp23
g2
S'29850'
p24
sg4
L1449728221852L
sg5
g6
sg7
S'        '
p25
sg9
S'30833'
p26
sg11
S'external/chromium/net/socket/tcp_fin_aggregation_factory.cc,: TCP Fin Aggregation initializing method was found in libtcpfinaggr.so\n'
p27
sa(dp28
g2
S'29850'
p29
sg4
L1449728221852L
sg5
g6
sg7
S'TCPFinAggregation'
p30
sg9
S'30833'
p31
sg11
S'netstack: TCPFinAggregation is 1, Version 5.0.1\n'
p32
sa(dp33
g2
S'29850'
p34
sg4
L1449728221852L
sg5
g6
sg7
S'TCPFinAggregation'
p35
sg9
S'30833'
p36
sg11
S'system property net.tcp.fin.aggregation.wait was set, value: 20\n'
p37
sa(dp38
g2
S'29850'
p39
sg4
L1449728221852L
sg5
g6
sg7
S'TCPFinAggregation'
p40
sg9
S'30833'
p41
sg11
S'system property net.tcp.fin.aggregation.close was set, value: 300\n'
p42
sa(dp43
g2
S'29850'
p44
sg4
L1449728221852L
sg5
g6
sg7
S'TCPFinAggregation'
p45
sg9
S'30833'
p46
sg11
S'netstack: CloseUnusedSockets is ON, (TCPFinAggregation), Version 5.0.1\n'
p47
sa(dp48
g2
S'29850'
p49
sg4
L1449728221852L
sg5
g6
sg7
S'TCPFinAggregation'
p50
sg9
S'30833'
p51
sg11
S'Failed to get network status! received ret: -2\n'
p52
sa(dp53
g2
S'29850'
p54
sg4
L1449728221852L
sg5
g6
sg7
S'Socket_Pool'
p55
sg9
S'30833'
p56
sg11
S'netstack: CloseUnusedSockets is ON\n'
p57
sa(dp58
g2
S'29850'
p59
sg4
L1449728221852L
sg5
g6
sg7
S'Socket_Pool'
p60
sg9
S'30833'
p61
sg11
S'netstack: system net.statistics value: 0\n'
p62
sa(dp63
g2
S'29850'
p64
sg4
L1449728221852L
sg5
g6
sg7
S'        '
p65
sg9
S'30833'
p66
sg11
S'external/chromium/net/http/http_getzip_factory.cc: libgetzip.so successfully loaded\n'
p67
sa(dp68
g2
S'29850'
p69
sg4
L1449728221852L
sg5
g6
sg7
S'        '
p70
sg9
S'30833'
p71
sg11
S'external/chromium/net/http/http_getzip_factory.cc,: GETzip initializing method was found in libgetzip.so\n'
p72
sa(dp73
g2
S'29850'
p74
sg4
L1449728221852L
sg5
g6
sg7
S'        '
p75
sg9
S'30833'
p76
sg11
S'netstack: Getzip is: ON, Version: 5.0.1\n'
p77
sa(dp78
g2
S'31289'
p79
sg4
L1449728424718L
sg5
g6
sg7
S'webcoreglue'
p80
sg9
S'31571'
p81
sg11
S'netstack: Memory Cache feature is ON\n'
p82
sa(dp83
g2
S'31289'
p84
sg4
L1449728424798L
sg5
g6
sg7
S'HostStatisticManager'
p85
sg9
S'31571'
p86
sg11
S'netstack: DNS Host Prioritization is: ON, Version: 5.0.1\n'
p87
sa(dp88
g2
S'31289'
p89
sg4
L1449728424808L
sg5
g6
sg7
S'        '
p90
sg9
S'31571'
p91
sg11
S'external/chromium/net/socket/tcp_fin_aggregation_factory.cc: libtcpfinaggr.so successfully loaded\n'
p92
sa(dp93
g2
S'31289'
p94
sg4
L1449728424808L
sg5
g6
sg7
S'        '
p95
sg9
S'31571'
p96
sg11
S'external/chromium/net/socket/tcp_fin_aggregation_factory.cc,: TCP Fin Aggregation initializing method was found in libtcpfinaggr.so\n'
p97
sa(dp98
g2
S'31289'
p99
sg4
L1449728424808L
sg5
g6
sg7
S'TCPFinAggregation'
p100
sg9
S'31571'
p101
sg11
S'netstack: TCPFinAggregation is 1, Version 5.0.1\n'
p102
sa(dp103
g2
S'31289'
p104
sg4
L1449728424808L
sg5
g6
sg7
S'TCPFinAggregation'
p105
sg9
S'31571'
p106
sg11
S'system property net.tcp.fin.aggregation.wait was set, value: 20\n'
p107
sa(dp108
g2
S'31289'
p109
sg4
L1449728424808L
sg5
g6
sg7
S'TCPFinAggregation'
p110
sg9
S'31571'
p111
sg11
S'system property net.tcp.fin.aggregation.close was set, value: 300\n'
p112
sa(dp113
g2
S'31289'
p114
sg4
L1449728424808L
sg5
g6
sg7
S'TCPFinAggregation'
p115
sg9
S'31571'
p116
sg11
S'netstack: CloseUnusedSockets is ON, (TCPFinAggregation), Version 5.0.1\n'
p117
sa(dp118
g2
S'31289'
p119
sg4
L1449728424808L
sg5
g6
sg7
S'TCPFinAggregation'
p120
sg9
S'31571'
p121
sg11
S'Failed to get network status! received ret: -2\n'
p122
sa(dp123
g2
S'31289'
p124
sg4
L1449728424808L
sg5
g6
sg7
S'Socket_Pool'
p125
sg9
S'31571'
p126
sg11
S'netstack: CloseUnusedSockets is ON\n'
p127
sa(dp128
g2
S'31289'
p129
sg4
L1449728424808L
sg5
g6
sg7
S'Socket_Pool'
p130
sg9
S'31571'
p131
sg11
S'netstack: system net.statistics value: 0\n'
p132
sa(dp133
g2
S'31289'
p134
sg4
L1449728424808L
sg5
g6
sg7
S'        '
p135
sg9
S'31571'
p136
sg11
S'external/chromium/net/http/http_getzip_factory.cc: libgetzip.so successfully loaded\n'
p137
sa(dp138
g2
S'31289'
p139
sg4
L1449728424808L
sg5
g6
sg7
S'        '
p140
sg9
S'31571'
p141
sg11
S'external/chromium/net/http/http_getzip_factory.cc,: GETzip initializing method was found in libgetzip.so\n'
p142
sa.