(lp0
(dp1
S'EventTime'
p2
S'11232108'
p3
sS'SyscTime'
p4
L1449733601625L
sS'recordCount'
p5
S'0'
p6
sS'EventType'
p7
S'TYPE_WINDOW_STATE_CHANGED'
p8
sS'PackageName'
p9
S'com.xdf.ucan'
p10
sS'OutBounds'
p11
S'Rect(0, 0 - 720, 1280)'
p12
sS'Action'
p13
S'[ ClassName: com.xdf.ucan.ui.login.StartActivity; Text: [\xe4\xbc\x98\xe6\x92\xad\xe8\xaf\xbe]; ContentDescription: null; ItemCount: -1; CurrentItemIndex: -1; IsEnabled: true; IsPassword: false; IsChecked: false; IsFullScreen: true; Scrollable: false; BeforeText: null; FromIndex: -1; ToIndex: -1; ScrollX: -1; ScrollY: -1; MaxScrollX: -1; MaxScrollY: -1; AddedCount: -1; RemovedCount: -1; ParcelableData: null ]'
p14
sS'MovementGranularity'
p15
g6
sa(dp16
S'EventTime'
p17
S'11232148'
p18
sg4
L1449733601855L
sS'recordCount'
p19
g6
sS'EventType'
p20
S'TYPE_WINDOW_CONTENT_CHANGED'
p21
sS'PackageName'
p22
S'com.xdf.ucan'
p23
sS'OutBounds'
p24
S'Rect(0, 0 - 720, 1280)'
p25
sS'Action'
p26
S'[ ClassName: android.widget.FrameLayout; Text: []; ContentDescription: null; ItemCount: -1; CurrentItemIndex: -1; IsEnabled: true; IsPassword: false; IsChecked: false; IsFullScreen: false; Scrollable: false; BeforeText: null; FromIndex: -1; ToIndex: -1; ScrollX: -1; ScrollY: -1; MaxScrollX: -1; MaxScrollY: -1; AddedCount: -1; RemovedCount: -1; ParcelableData: null ]'
p27
sS'MovementGranularity'
p28
g6
sa(dp29
S'EventTime'
p30
S'11232440'
p31
sg4
L1449733602221L
sS'recordCount'
p32
g6
sS'EventType'
p33
S'TYPE_WINDOW_CONTENT_CHANGED'
p34
sS'PackageName'
p35
S'com.xdf.ucan'
p36
sS'OutBounds'
p37
S'Rect(0, 0 - 720, 1280)'
p38
sS'Action'
p39
S'[ ClassName: android.widget.FrameLayout; Text: []; ContentDescription: null; ItemCount: -1; CurrentItemIndex: -1; IsEnabled: true; IsPassword: false; IsChecked: false; IsFullScreen: false; Scrollable: false; BeforeText: null; FromIndex: -1; ToIndex: -1; ScrollX: -1; ScrollY: -1; MaxScrollX: -1; MaxScrollY: -1; AddedCount: -1; RemovedCount: -1; ParcelableData: null ]'
p40
sS'MovementGranularity'
p41
g6
sa(dp42
S'EventTime'
p43
S'11232865'
p44
sg4
L1449733602472L
sS'recordCount'
p45
g6
sS'EventType'
p46
S'TYPE_WINDOW_STATE_CHANGED'
p47
sS'PackageName'
p48
S'com.xdf.ucan'
p49
sS'OutBounds'
p50
S'Rect(0, 0 - 720, 1280)'
p51
sS'Action'
p52
S'[ ClassName: com.xdf.ucan.MainActivity; Text: [\xe4\xbc\x98\xe6\x92\xad\xe8\xaf\xbe]; ContentDescription: null; ItemCount: -1; CurrentItemIndex: -1; IsEnabled: true; IsPassword: false; IsChecked: false; IsFullScreen: true; Scrollable: false; BeforeText: null; FromIndex: -1; ToIndex: -1; ScrollX: -1; ScrollY: -1; MaxScrollX: -1; MaxScrollY: -1; AddedCount: -1; RemovedCount: -1; ParcelableData: null ]'
p53
sS'MovementGranularity'
p54
g6
sa(dp55
S'EventTime'
p56
S'11232887'
p57
sg4
L1449733602555L
sS'recordCount'
p58
g6
sS'EventType'
p59
S'TYPE_NOTIFICATION_STATE_CHANGED'
p60
sS'PackageName'
p61
S'com.xdf.ucan'
p62
sS'Action'
p63
S'[ ClassName: android.widget.Toast$TN; Text: [\xe7\xbd\x91\xe7\xbb\x9c\xe4\xb8\x8d\xe7\xbb\x99\xe5\x8a\x9b]; ContentDescription: null; ItemCount: -1; CurrentItemIndex: -1; IsEnabled: false; IsPassword: false; IsChecked: false; IsFullScreen: false; Scrollable: false; BeforeText: null; FromIndex: -1; ToIndex: -1; ScrollX: -1; ScrollY: -1; MaxScrollX: -1; MaxScrollY: -1; AddedCount: -1; RemovedCount: -1; ParcelableData: null ]'
p64
sS'MovementGranularity'
p65
g6
sa(dp66
S'EventTime'
p67
S'11233032'
p68
sg4
L1449733602605L
sS'recordCount'
p69
g6
sS'EventType'
p70
S'TYPE_WINDOW_CONTENT_CHANGED'
p71
sS'PackageName'
p72
S'com.xdf.ucan'
p73
sS'OutBounds'
p74
S'Rect(0, 0 - 720, 1280)'
p75
sS'Action'
p76
S'[ ClassName: android.widget.FrameLayout; Text: []; ContentDescription: null; ItemCount: -1; CurrentItemIndex: -1; IsEnabled: true; IsPassword: false; IsChecked: false; IsFullScreen: false; Scrollable: false; BeforeText: null; FromIndex: -1; ToIndex: -1; ScrollX: -1; ScrollY: -1; MaxScrollX: -1; MaxScrollY: -1; AddedCount: -1; RemovedCount: -1; ParcelableData: null ]'
p77
sS'MovementGranularity'
p78
g6
sa(dp79
S'EventTime'
p80
S'11233227'
p81
sg4
L1449733602767L
sS'recordCount'
p82
g6
sS'EventType'
p83
S'TYPE_WINDOW_CONTENT_CHANGED'
p84
sS'PackageName'
p85
S'com.xdf.ucan'
p86
sS'OutBounds'
p87
S'Rect(0, 0 - 720, 1280)'
p88
sS'Action'
p89
S'[ ClassName: android.widget.FrameLayout; Text: []; ContentDescription: null; ItemCount: -1; CurrentItemIndex: -1; IsEnabled: true; IsPassword: false; IsChecked: false; IsFullScreen: false; Scrollable: false; BeforeText: null; FromIndex: -1; ToIndex: -1; ScrollX: -1; ScrollY: -1; MaxScrollX: -1; MaxScrollY: -1; AddedCount: -1; RemovedCount: -1; ParcelableData: null ]'
p90
sS'MovementGranularity'
p91
g6
sa(dp92
S'EventTime'
p93
S'11238132'
p94
sg4
L1449733607643L
sS'recordCount'
p95
g6
sS'EventType'
p96
S'TYPE_VIEW_CLICKED'
p97
sS'PackageName'
p98
S'com.xdf.ucan'
p99
sS'OutBounds'
p100
S'Rect(480, 1187 - 720, 1280)'
p101
sS'Action'
p102
S'[ ClassName: android.widget.RelativeLayout; Text: [\xe6\x88\x91]; ContentDescription: null; ItemCount: -1; CurrentItemIndex: -1; IsEnabled: true; IsPassword: false; IsChecked: false; IsFullScreen: false; Scrollable: false; BeforeText: null; FromIndex: -1; ToIndex: -1; ScrollX: -1; ScrollY: -1; MaxScrollX: -1; MaxScrollY: -1; AddedCount: -1; RemovedCount: -1; ParcelableData: null ]'
p103
sS'MovementGranularity'
p104
g6
sa(dp105
S'EventTime'
p106
S'11238137'
p107
sg4
L1449733607758L
sS'recordCount'
p108
g6
sS'EventType'
p109
S'TYPE_VIEW_SELECTED'
p110
sS'PackageName'
p111
S'com.xdf.ucan'
p112
sS'OutBounds'
p113
S'Rect(0, 1186 - 720, 1280)'
p114
sS'Action'
p115
S'[ ClassName: android.widget.TabWidget; Text: [\xe6\x88\x91]; ContentDescription: null; ItemCount: 3; CurrentItemIndex: 2; IsEnabled: true; IsPassword: false; IsChecked: false; IsFullScreen: false; Scrollable: false; BeforeText: null; FromIndex: -1; ToIndex: -1; ScrollX: -1; ScrollY: -1; MaxScrollX: -1; MaxScrollY: -1; AddedCount: -1; RemovedCount: -1; ParcelableData: null ]'
p116
sS'MovementGranularity'
p117
g6
sa(dp118
S'EventTime'
p119
S'11238302'
p120
sg4
L1449733607828L
sS'recordCount'
p121
g6
sS'EventType'
p122
S'TYPE_WINDOW_CONTENT_CHANGED'
p123
sS'PackageName'
p124
S'com.xdf.ucan'
p125
sS'OutBounds'
p126
S'Rect(0, 0 - 720, 1280)'
p127
sS'Action'
p128
S'[ ClassName: android.widget.FrameLayout; Text: []; ContentDescription: null; ItemCount: -1; CurrentItemIndex: -1; IsEnabled: true; IsPassword: false; IsChecked: false; IsFullScreen: false; Scrollable: false; BeforeText: null; FromIndex: -1; ToIndex: -1; ScrollX: -1; ScrollY: -1; MaxScrollX: -1; MaxScrollY: -1; AddedCount: -1; RemovedCount: -1; ParcelableData: null ]'
p129
sS'MovementGranularity'
p130
g6
sa(dp131
S'EventTime'
p132
S'11238421'
p133
sg4
L1449733607971L
sS'recordCount'
p134
g6
sS'EventType'
p135
S'TYPE_WINDOW_CONTENT_CHANGED'
p136
sS'PackageName'
p137
S'com.xdf.ucan'
p138
sS'OutBounds'
p139
S'Rect(0, 0 - 720, 1280)'
p140
sS'Action'
p141
S'[ ClassName: android.widget.FrameLayout; Text: []; ContentDescription: null; ItemCount: -1; CurrentItemIndex: -1; IsEnabled: true; IsPassword: false; IsChecked: false; IsFullScreen: false; Scrollable: false; BeforeText: null; FromIndex: -1; ToIndex: -1; ScrollX: -1; ScrollY: -1; MaxScrollX: -1; MaxScrollY: -1; AddedCount: -1; RemovedCount: -1; ParcelableData: null ]'
p142
sS'MovementGranularity'
p143
g6
sa.