(lp0
(dp1
S'processID'
p2
S'5716'
p3
sS'SyscTime'
p4
L1449728668146L
sS'priority'
p5
S'V'
p6
sS'tag'
p7
S'Activity'
p8
sS'threadID'
p9
S' 5716'
p10
sS'message'
p11
S'onPause com.xdf.ucan.ui.login.StartActivity@41823d08\n'
p12
sa(dp13
g2
S'5716'
p14
sg4
L1449728668166L
sg5
g6
sg7
S'Activity'
p15
sg9
S' 5716'
p16
sg11
S'onCreate com.xdf.ucan.ui.login.LoginActivity@41e37190: null\n'
p17
sa(dp18
g2
S'5716'
p19
sg4
L1449728668256L
sg5
g6
sg7
S'Activity'
p20
sg9
S' 5716'
p21
sg11
S'onStart com.xdf.ucan.ui.login.LoginActivity@41e37190\n'
p22
sa(dp23
g2
S'5716'
p24
sg4
L1449728668256L
sg5
g6
sg7
S'Activity'
p25
sg9
S' 5716'
p26
sg11
S'onResume com.xdf.ucan.ui.login.LoginActivity@41e37190\n'
p27
sa(dp28
g2
S'5716'
p29
sg4
L1449728668416L
sg5
g6
sg7
S'PowerManager'
p30
sg9
S' 5716'
p31
sg11
S'acquire(long)/mToken = android.os.Binder@41f26788 timeout = 60000\n'
p32
sa(dp33
g2
S'5716'
p34
sg4
L1449728668416L
sg5
g6
sg7
S'PowerManager'
p35
sg9
S' 5716'
p36
sg11
S'acquireLocked/mFlags = 1 mToken = android.os.Binder@41f26788 mTag = wake:com.xdf.ucan/io.rong.imlib.ReConnectService mWorkSource = null\n'
p37
sa(dp38
g2
S'5716'
p39
sg4
L1449728668416L
sg5
g6
sg7
S'PowerManager'
p40
sg9
S' 5716'
p41
sg11
S'acquireLocked/mRefCounted = false mCount = 0\n'
p42
sa(dp43
g2
S'5716'
p44
sg4
L1449728668496L
sg5
g6
sg7
S'PowerManager'
p45
sg9
S' 5716'
p46
sg11
S'release/flags = 0 mToken = android.os.Binder@41f26788 mTag = wake:com.xdf.ucan/io.rong.imlib.ReConnectService mWorkSource = null\n'
p47
sa(dp48
g2
S'5716'
p49
sg4
L1449728668496L
sg5
g6
sg7
S'PowerManager'
p50
sg9
S' 5716'
p51
sg11
S'release/mRefCounted = false mCount = 0\n'
p52
sa(dp53
g2
S'5716'
p54
sg4
L1449728668726L
sg5
g6
sg7
S'Activity'
p55
sg9
S' 5716'
p56
sg11
S'onStop com.xdf.ucan.ui.login.StartActivity@41823d08\n'
p57
sa(dp58
g2
S'5716'
p59
sg4
L1449728668736L
sg5
g6
sg7
S'Activity'
p60
sg9
S' 5716'
p61
sg11
S'onDestroy com.xdf.ucan.ui.login.StartActivity@41823d08\n'
p62
sa(dp63
g2
S'5810'
p64
sg4
L1449728671906L
sg5
g6
sg7
S'PowerManager'
p65
sg9
S' 5810'
p66
sg11
S'acquire(long)/mToken = android.os.Binder@4174e4a8 timeout = 60000\n'
p67
sa(dp68
g2
S'5810'
p69
sg4
L1449728671906L
sg5
g6
sg7
S'PowerManager'
p70
sg9
S' 5810'
p71
sg11
S'acquireLocked/mFlags = 1 mToken = android.os.Binder@4174e4a8 mTag = wake:com.xdf.ucan/io.rong.push.PushService mWorkSource = null\n'
p72
sa(dp73
g2
S'5810'
p74
sg4
L1449728671906L
sg5
g6
sg7
S'PowerManager'
p75
sg9
S' 5810'
p76
sg11
S'acquireLocked/mRefCounted = false mCount = 0\n'
p77
sa(dp78
g2
S'5810'
p79
sg4
L1449728672236L
sg5
g6
sg7
S'PowerManager'
p80
sg9
S' 5828'
p81
sg11
S'release/flags = 0 mToken = android.os.Binder@4174e4a8 mTag = wake:com.xdf.ucan/io.rong.push.PushService mWorkSource = null\n'
p82
sa(dp83
g2
S'5810'
p84
sg4
L1449728672236L
sg5
g6
sg7
S'PowerManager'
p85
sg9
S' 5828'
p86
sg11
S'release/mRefCounted = false mCount = 0\n'
p87
sa(dp88
g2
S'5810'
p89
sg4
L1449728674916L
sg5
g6
sg7
S'PowerManager'
p90
sg9
S' 5810'
p91
sg11
S'acquire(long)/mToken = android.os.Binder@417bf7e0 timeout = 60000\n'
p92
sa(dp93
g2
S'5810'
p94
sg4
L1449728674916L
sg5
g6
sg7
S'PowerManager'
p95
sg9
S' 5810'
p96
sg11
S'acquireLocked/mFlags = 1 mToken = android.os.Binder@417bf7e0 mTag = wake:com.xdf.ucan/io.rong.push.PushService mWorkSource = null\n'
p97
sa(dp98
g2
S'5810'
p99
sg4
L1449728674916L
sg5
g6
sg7
S'PowerManager'
p100
sg9
S' 5810'
p101
sg11
S'acquireLocked/mRefCounted = false mCount = 0\n'
p102
sa(dp103
g2
S'5716'
p104
sg4
L1449728680936L
sg5
g6
sg7
S'Activity'
p105
sg9
S' 5716'
p106
sg11
S'onPause com.xdf.ucan.ui.login.LoginActivity@41e37190\n'
p107
sa(dp108
g2
S'5716'
p109
sg4
L1449728680956L
sg5
g6
sg7
S'Activity'
p110
sg9
S' 5716'
p111
sg11
S'onCreate com.xdf.ucan.MainActivity@41dc71f8: null\n'
p112
sa(dp113
g2
S'5716'
p114
sg4
L1449728681086L
sg5
g6
sg7
S'Activity'
p115
sg9
S' 5716'
p116
sg11
S'onStart com.xdf.ucan.MainActivity@41dc71f8\n'
p117
sa(dp118
g2
S'5716'
p119
sg4
L1449728681086L
sg5
g6
sg7
S'Activity'
p120
sg9
S' 5716'
p121
sg11
S'onResume com.xdf.ucan.MainActivity@41dc71f8\n'
p122
sa(dp123
g2
S'5716'
p124
sg4
L1449728681776L
sg5
g6
sg7
S'Activity'
p125
sg9
S' 5716'
p126
sg11
S'onStop com.xdf.ucan.ui.login.LoginActivity@41e37190\n'
p127
sa(dp128
g2
S'5716'
p129
sg4
L1449728681776L
sg5
g6
sg7
S'Activity'
p130
sg9
S' 5716'
p131
sg11
S'onDestroy com.xdf.ucan.ui.login.LoginActivity@41e37190\n'
p132
sa(dp133
g2
S'5716'
p134
sg4
L1449728688486L
sg5
g6
sg7
S'Activity'
p135
sg9
S' 5716'
p136
sg11
S'onPause com.xdf.ucan.MainActivity@41dc71f8\n'
p137
sa(dp138
g2
S'5716'
p139
sg4
L1449728688516L
sg5
g6
sg7
S'Activity'
p140
sg9
S' 5716'
p141
sg11
S'onCreate com.xdf.ucan.ui.video.VideoListActivity@41dee018: null\n'
p142
sa(dp143
g2
S'5716'
p144
sg4
L1449728688626L
sg5
g6
sg7
S'Activity'
p145
sg9
S' 5716'
p146
sg11
S'onStart com.xdf.ucan.ui.video.VideoListActivity@41dee018\n'
p147
sa(dp148
g2
S'5716'
p149
sg4
L1449728688626L
sg5
g6
sg7
S'Activity'
p150
sg9
S' 5716'
p151
sg11
S'onResume com.xdf.ucan.ui.video.VideoListActivity@41dee018\n'
p152
sa(dp153
g2
S'5716'
p154
sg4
L1449728689306L
sg5
g6
sg7
S'Activity'
p155
sg9
S' 5716'
p156
sg11
S'onStop com.xdf.ucan.MainActivity@41dc71f8\n'
p157
sa(dp158
g2
S'5716'
p159
sg4
L1449728702646L
sg5
g6
sg7
S'Activity'
p160
sg9
S' 5716'
p161
sg11
S'onPause com.xdf.ucan.ui.video.VideoListActivity@41dee018\n'
p162
sa(dp163
g2
S'5716'
p164
sg4
L1449728702666L
sg5
g6
sg7
S'Activity'
p165
sg9
S' 5716'
p166
sg11
S'onCreate com.xdf.ucan.ui.subscript.AddSubscriptionActivity@417d6240: null\n'
p167
sa(dp168
g2
S'5716'
p169
sg4
L1449728702726L
sg5
g6
sg7
S'Activity'
p170
sg9
S' 5716'
p171
sg11
S'onStart com.xdf.ucan.ui.subscript.AddSubscriptionActivity@417d6240\n'
p172
sa(dp173
g2
S'5716'
p174
sg4
L1449728702726L
sg5
g6
sg7
S'Activity'
p175
sg9
S' 5716'
p176
sg11
S'onResume com.xdf.ucan.ui.subscript.AddSubscriptionActivity@417d6240\n'
p177
sa(dp178
g2
S'5716'
p179
sg4
L1449728703256L
sg5
g6
sg7
S'Activity'
p180
sg9
S' 5716'
p181
sg11
S'onStop com.xdf.ucan.ui.video.VideoListActivity@41dee018\n'
p182
sa(dp183
g2
S'5716'
p184
sg4
L1449728721106L
sg5
g6
sg7
S'Activity'
p185
sg9
S' 5716'
p186
sg11
S'onPause com.xdf.ucan.ui.subscript.AddSubscriptionActivity@417d6240\n'
p187
sa(dp188
g2
S'5716'
p189
sg4
L1449728721126L
sg5
g6
sg7
S'Activity'
p190
sg9
S' 5716'
p191
sg11
S'onStart com.xdf.ucan.ui.video.VideoListActivity@41dee018\n'
p192
sa(dp193
g2
S'5716'
p194
sg4
L1449728721126L
sg5
g6
sg7
S'Activity'
p195
sg9
S' 5716'
p196
sg11
S'onResume com.xdf.ucan.ui.video.VideoListActivity@41dee018\n'
p197
sa(dp198
g2
S'5716'
p199
sg4
L1449728721526L
sg5
g6
sg7
S'Activity'
p200
sg9
S' 5716'
p201
sg11
S'onStop com.xdf.ucan.ui.subscript.AddSubscriptionActivity@417d6240\n'
p202
sa(dp203
g2
S'5716'
p204
sg4
L1449728721526L
sg5
g6
sg7
S'Activity'
p205
sg9
S' 5716'
p206
sg11
S'onDestroy com.xdf.ucan.ui.subscript.AddSubscriptionActivity@417d6240\n'
p207
sa(dp208
g2
S'5716'
p209
sg4
L1449728724996L
sg5
g6
sg7
S'Activity'
p210
sg9
S' 5716'
p211
sg11
S'onPause com.xdf.ucan.ui.video.VideoListActivity@41dee018\n'
p212
sa(dp213
g2
S'5716'
p214
sg4
L1449728725016L
sg5
g6
sg7
S'Activity'
p215
sg9
S' 5716'
p216
sg11
S'onStart com.xdf.ucan.MainActivity@41dc71f8\n'
p217
sa(dp218
g2
S'5716'
p219
sg4
L1449728725016L
sg5
g6
sg7
S'Activity'
p220
sg9
S' 5716'
p221
sg11
S'onResume com.xdf.ucan.MainActivity@41dc71f8\n'
p222
sa(dp223
g2
S'5716'
p224
sg4
L1449728725416L
sg5
g6
sg7
S'Activity'
p225
sg9
S' 5716'
p226
sg11
S'onStop com.xdf.ucan.ui.video.VideoListActivity@41dee018\n'
p227
sa(dp228
g2
S'5716'
p229
sg4
L1449728725426L
sg5
g6
sg7
S'Activity'
p230
sg9
S' 5716'
p231
sg11
S'onDestroy com.xdf.ucan.ui.video.VideoListActivity@41dee018\n'
p232
sa(dp233
g2
S'5716'
p234
sg4
L1449728726806L
sg5
g6
sg7
S'Activity'
p235
sg9
S' 5716'
p236
sg11
S'onPause com.xdf.ucan.MainActivity@41dc71f8\n'
p237
sa(dp238
g2
S'5716'
p239
sg4
L1449728726836L
sg5
g6
sg7
S'Activity'
p240
sg9
S' 5716'
p241
sg11
S'onCreate com.xdf.ucan.ui.video.VideoListActivity@419c5fd0: null\n'
p242
sa(dp243
g2
S'5716'
p244
sg4
L1449728726926L
sg5
g6
sg7
S'Activity'
p245
sg9
S' 5716'
p246
sg11
S'onStart com.xdf.ucan.ui.video.VideoListActivity@419c5fd0\n'
p247
sa(dp248
g2
S'5716'
p249
sg4
L1449728726926L
sg5
g6
sg7
S'Activity'
p250
sg9
S' 5716'
p251
sg11
S'onResume com.xdf.ucan.ui.video.VideoListActivity@419c5fd0\n'
p252
sa(dp253
g2
S'5716'
p254
sg4
L1449728727516L
sg5
g6
sg7
S'Activity'
p255
sg9
S' 5716'
p256
sg11
S'onStop com.xdf.ucan.MainActivity@41dc71f8\n'
p257
sa(dp258
g2
S'5810'
p259
sg4
L1449728734976L
sg5
g6
sg7
S'PowerManager'
p260
sg9
S' 5810'
p261
sg11
S'release/flags = 0 mToken = android.os.Binder@417bf7e0 mTag = wake:com.xdf.ucan/io.rong.push.PushService mWorkSource = null\n'
p262
sa(dp263
g2
S'5810'
p264
sg4
L1449728734976L
sg5
g6
sg7
S'PowerManager'
p265
sg9
S' 5810'
p266
sg11
S'release/mRefCounted = false mCount = 0\n'
p267
sa(dp268
g2
S'5716'
p269
sg4
L1449728741996L
sg5
g6
sg7
S'Activity'
p270
sg9
S' 5716'
p271
sg11
S'onPause com.xdf.ucan.ui.video.VideoListActivity@419c5fd0\n'
p272
sa(dp273
g2
S'5716'
p274
sg4
L1449728742026L
sg5
g6
sg7
S'Activity'
p275
sg9
S' 5716'
p276
sg11
S'onCreate com.xdf.ucan.ui.video.VideoPlayerActivity@41a58898: null\n'
p277
sa(dp278
g2
S'5716'
p279
sg4
L1449728742236L
sg5
g6
sg7
S'Activity'
p280
sg9
S' 5716'
p281
sg11
S'onStart com.xdf.ucan.ui.video.VideoPlayerActivity@41a58898\n'
p282
sa(dp283
g2
S'5716'
p284
sg4
L1449728742236L
sg5
g6
sg7
S'Activity'
p285
sg9
S' 5716'
p286
sg11
S'onResume com.xdf.ucan.ui.video.VideoPlayerActivity@41a58898\n'
p287
sa(dp288
g2
S'5716'
p289
sg4
L1449728743176L
sg5
g6
sg7
S'Activity'
p290
sg9
S' 5716'
p291
sg11
S'onStop com.xdf.ucan.ui.video.VideoListActivity@419c5fd0\n'
p292
sa(dp293
g2
S'5716'
p294
sg4
L1449728795546L
sg5
g6
sg7
S'Activity'
p295
sg9
S' 5716'
p296
sg11
S'onPause com.xdf.ucan.ui.video.VideoPlayerActivity@41a58898\n'
p297
sa(dp298
g2
S'5716'
p299
sg4
L1449728795606L
sg5
g6
sg7
S'Activity'
p300
sg9
S' 5716'
p301
sg11
S'onStart com.xdf.ucan.ui.video.VideoListActivity@419c5fd0\n'
p302
sa(dp303
g2
S'5716'
p304
sg4
L1449728795606L
sg5
g6
sg7
S'Activity'
p305
sg9
S' 5716'
p306
sg11
S'onResume com.xdf.ucan.ui.video.VideoListActivity@419c5fd0\n'
p307
sa(dp308
g2
S'5716'
p309
sg4
L1449728796146L
sg5
g6
sg7
S'Activity'
p310
sg9
S' 5716'
p311
sg11
S'onStop com.xdf.ucan.ui.video.VideoPlayerActivity@41a58898\n'
p312
sa(dp313
g2
S'5716'
p314
sg4
L1449728796146L
sg5
g6
sg7
S'Activity'
p315
sg9
S' 5716'
p316
sg11
S'onDestroy com.xdf.ucan.ui.video.VideoPlayerActivity@41a58898\n'
p317
sa(dp318
g2
S'5716'
p319
sg4
L1449728808796L
sg5
g6
sg7
S'Activity'
p320
sg9
S' 5716'
p321
sg11
S'onPause com.xdf.ucan.ui.video.VideoListActivity@419c5fd0\n'
p322
sa(dp323
g2
S'5716'
p324
sg4
L1449728808826L
sg5
g6
sg7
S'Activity'
p325
sg9
S' 5716'
p326
sg11
S'onCreate com.xdf.ucan.ui.video.VideoPlayerActivity@418fb660: null\n'
p327
sa(dp328
g2
S'5716'
p329
sg4
L1449728808896L
sg5
g6
sg7
S'Activity'
p330
sg9
S' 5716'
p331
sg11
S'onStart com.xdf.ucan.ui.video.VideoPlayerActivity@418fb660\n'
p332
sa(dp333
g2
S'5716'
p334
sg4
L1449728808896L
sg5
g6
sg7
S'Activity'
p335
sg9
S' 5716'
p336
sg11
S'onResume com.xdf.ucan.ui.video.VideoPlayerActivity@418fb660\n'
p337
sa(dp338
g2
S'5716'
p339
sg4
L1449728811266L
sg5
g6
sg7
S'Activity'
p340
sg9
S' 5716'
p341
sg11
S'onPause com.xdf.ucan.ui.video.VideoPlayerActivity@418fb660\n'
p342
sa(dp343
g2
S'5716'
p344
sg4
L1449728811416L
sg5
g6
sg7
S'Activity'
p345
sg9
S' 5716'
p346
sg11
S'onCreate com.mob.tools.MobUIShell@41db90f0: null\n'
p347
sa(dp348
g2
S'5716'
p349
sg4
L1449728811446L
sg5
g6
sg7
S'Activity'
p350
sg9
S' 5716'
p351
sg11
S'onStart com.mob.tools.MobUIShell@41db90f0\n'
p352
sa(dp353
g2
S'5716'
p354
sg4
L1449728811456L
sg5
g6
sg7
S'Activity'
p355
sg9
S' 5716'
p356
sg11
S'onResume com.mob.tools.MobUIShell@41db90f0\n'
p357
sa(dp358
g2
S'5716'
p359
sg4
L1449728813746L
sg5
g6
sg7
S'Activity'
p360
sg9
S' 5716'
p361
sg11
S'onStop com.xdf.ucan.ui.video.VideoListActivity@419c5fd0\n'
p362
sa(dp363
g2
S'5716'
p364
sg4
L1449728819506L
sg5
S'I'
p365
sg7
S'Toast   '
p366
sg9
S' 5716'
p367
sg11
S'the toast owner is: com.xdf.ucan\n'
p368
sa(dp369
g2
S'5716'
p370
sg4
L1449728819916L
sg5
g6
sg7
S'Activity'
p371
sg9
S' 5716'
p372
sg11
S'onPause com.mob.tools.MobUIShell@41db90f0\n'
p373
sa(dp374
g2
S'5716'
p375
sg4
L1449728819956L
sg5
g6
sg7
S'Activity'
p376
sg9
S' 5716'
p377
sg11
S'onResume com.xdf.ucan.ui.video.VideoPlayerActivity@418fb660\n'
p378
sa(dp379
g2
S'5716'
p380
sg4
L1449728820036L
sg5
g6
sg7
S'Activity'
p381
sg9
S' 5716'
p382
sg11
S'onStop com.mob.tools.MobUIShell@41db90f0\n'
p383
sa(dp384
g2
S'5716'
p385
sg4
L1449728820046L
sg5
g6
sg7
S'Activity'
p386
sg9
S' 5716'
p387
sg11
S'onDestroy com.mob.tools.MobUIShell@41db90f0\n'
p388
sa(dp389
g2
S'5716'
p390
sg4
L1449728824016L
sg5
g365
sg7
S'System.out'
p391
sg9
S' 5716'
p392
sg11
S'\xe6\xbf\x80\xe6\xb4\xbb\n'
p393
sa(dp394
g2
S'5716'
p395
sg4
L1449728824656L
sg5
g365
sg7
S'System.out'
p396
sg9
S' 5716'
p397
sg11
S'\xe6\xbf\x80\xe6\xb4\xbb\n'
p398
sa(dp399
g2
S'5716'
p400
sg4
L1449728824726L
sg5
g365
sg7
S'System.out'
p401
sg9
S' 5716'
p402
sg11
S'\xe6\xbf\x80\xe6\xb4\xbb\n'
p403
sa(dp404
g2
S'5716'
p405
sg4
L1449728824936L
sg5
g365
sg7
S'System.out'
p406
sg9
S' 5716'
p407
sg11
S'\xe6\xbf\x80\xe6\xb4\xbb\n'
p408
sa(dp409
g2
S'5716'
p410
sg4
L1449728826136L
sg5
g365
sg7
S'System.out'
p411
sg9
S' 5716'
p412
sg11
S'\xe6\xbf\x80\xe6\xb4\xbb\n'
p413
sa(dp414
g2
S'5716'
p415
sg4
L1449728826856L
sg5
S'D'
p416
sg7
S'cn.edu.nju.ise.kikandroid'
p417
sg9
S' 5784'
p418
sg11
S'Screenshot:1449728826861\n'
p419
sa(dp420
g2
S'5716'
p421
sg4
L1449728826946L
sg5
g416
sg7
S'dalvikvm'
p422
sg9
S' 5716'
p423
sg11
S'GC_FOR_ALLOC freed 3161K, 38% free 16330K/26183K, paused 67ms, total 67ms\n'
p424
sa(dp425
g2
S'5716'
p426
sg4
L1449728827046L
sg5
g416
sg7
S'dalvikvm'
p427
sg9
S' 5718'
p428
sg11
S'GC_CONCURRENT freed 41K, 30% free 18331K/26183K, paused 3ms+20ms, total 91ms\n'
p429
sa(dp430
g2
S'5716'
p431
sg4
L1449728827186L
sg5
g416
sg7
S'dalvikvm'
p432
sg9
S' 5716'
p433
sg11
S'GC_FOR_ALLOC freed 175K, 30% free 18341K/26183K, paused 45ms, total 45ms\n'
p434
sa(dp435
g2
S'5716'
p436
sg4
L1449728827256L
sg5
g416
sg7
S'dalvikvm'
p437
sg9
S' 5718'
p438
sg11
S'GC_CONCURRENT freed 2044K, 30% free 18329K/26183K, paused 17ms+7ms, total 70ms\n'
p439
sa(dp440
g2
S'5716'
p441
sg4
L1449728827466L
sg5
g365
sg7
S'System.out'
p442
sg9
S' 5716'
p443
sg11
S'\xe6\xbf\x80\xe6\xb4\xbb\n'
p444
sa(dp445
g2
S'5716'
p446
sg4
L1449728827536L
sg5
g365
sg7
S'System.out'
p447
sg9
S' 5716'
p448
sg11
S'\xe6\xbf\x80\xe6\xb4\xbb\n'
p449
sa(dp450
g2
S'5716'
p451
sg4
L1449728827606L
sg5
g365
sg7
S'System.out'
p452
sg9
S' 5716'
p453
sg11
S'\xe6\xbf\x80\xe6\xb4\xbb\n'
p454
sa(dp455
g2
S'5716'
p456
sg4
L1449728827886L
sg5
g365
sg7
S'System.out'
p457
sg9
S' 5716'
p458
sg11
S'\xe6\xbf\x80\xe6\xb4\xbb\n'
p459
sa(dp460
g2
S'5716'
p461
sg4
L1449728828026L
sg5
g365
sg7
S'System.out'
p462
sg9
S' 5716'
p463
sg11
S'\xe6\xbf\x80\xe6\xb4\xbb\n'
p464
sa(dp465
g2
S'5716'
p466
sg4
L1449728828096L
sg5
g365
sg7
S'System.out'
p467
sg9
S' 5716'
p468
sg11
S'\xe6\xbf\x80\xe6\xb4\xbb\n'
p469
sa(dp470
g2
S'5716'
p471
sg4
L1449728828236L
sg5
g365
sg7
S'System.out'
p472
sg9
S' 5716'
p473
sg11
S'\xe6\xbf\x80\xe6\xb4\xbb\n'
p474
sa(dp475
g2
S'5716'
p476
sg4
L1449728828446L
sg5
g416
sg7
S'http    '
p477
sg9
S' 5716'
p478
sg11
S'\xe8\xaf\xb7\xe6\xb1\x82\xe7\x9a\x84\xe5\x9c\xb0\xe5\x9d\x80\xef\xbc\x9ahttp://v.xdf.cn/videov.php?do=playerCode&playerType=CC&vid=47187\n'
p479
sa(dp480
g2
S'5716'
p481
sg4
L1449728828446L
sg5
g416
sg7
S'http    '
p482
sg9
S' 5716'
p483
sg11
S'\xe8\xaf\xb7\xe6\xb1\x82\xe7\x9a\x84\xe5\x8f\x82\xe6\x95\xb0\xef\xbc\x9a\n'
p484
sa(dp485
g2
S'5716'
p486
sg4
L1449728828446L
sg5
g416
sg7
S'long    '
p487
sg9
S' 5716'
p488
sg11
S'context.getClass().getName():com.xdf.ucan.ui.video.VideoPlayerActivity\n'
p489
sa(dp490
g2
S'5716'
p491
sg4
L1449728828446L
sg5
g365
sg7
S'System.out'
p492
sg9
S' 5716'
p493
sg11
S'\xe6\xbf\x80\xe6\xb4\xbb\n'
p494
sa(dp495
g2
S'5716'
p496
sg4
L1449728828556L
sg5
g365
sg7
S'System.out'
p497
sg9
S' 5716'
p498
sg11
S'\xe6\xbf\x80\xe6\xb4\xbb\n'
p499
sa(dp500
g2
S'5716'
p501
sg4
L1449728828586L
sg5
g365
sg7
S'System.out'
p502
sg9
S' 5716'
p503
sg11
S'\xe6\xbf\x80\xe6\xb4\xbb\n'
p504
sa(dp505
g2
S'5716'
p506
sg4
L1449728828626L
sg5
g6
sg7
S'AsyncHttpRH'
p507
sg9
S' 5716'
p508
sg11
S'Progress 87 from 1 (8700%)\n'
p509
sa(dp510
g2
S'5716'
p511
sg4
L1449728828626L
sg5
S'E'
p512
sg7
S'shareurl'
p513
sg9
S' 5716'
p514
sg11
S'http://p.bokecc.com/qrplay.bo?uid=9623CE22237FB8F2&vid=EF620185D7CA1D799C33DC5901307461\n'
p515
sa(dp516
g2
S'5716'
p517
sg4
L1449728828626L
sg5
g365
sg7
S'Environment'
p518
sg9
S' 5716'
p519
sg11
S'GetExternalStorageDirectory info:ApplicationInfo{41f31f80 com.xdf.ucan},packagename:com.xdf.ucan,UID:0\n'
p520
sa(dp521
g2
S'5716'
p522
sg4
L1449728828626L
sg5
g416
sg7
S'Environment'
p523
sg9
S' 5716'
p524
sg11
S'Enviroment getExternalStorageState :/mnt/sdcard\n'
p525
sa(dp526
g2
S'5716'
p527
sg4
L1449728828626L
sg5
g365
sg7
S'Environment'
p528
sg9
S' 5716'
p529
sg11
S'GetExternalStorageDirectory info:ApplicationInfo{41f2bc78 com.xdf.ucan},packagename:com.xdf.ucan,UID:0\n'
p530
sa(dp531
g2
S'5716'
p532
sg4
L1449728828646L
sg5
g365
sg7
S'Environment'
p533
sg9
S' 5716'
p534
sg11
S'GetExternalStorageDirectory info:ApplicationInfo{41efc9a0 com.xdf.ucan},packagename:com.xdf.ucan,UID:0\n'
p535
sa(dp536
g2
S'5716'
p537
sg4
L1449728828646L
sg5
g416
sg7
S'Environment'
p538
sg9
S' 5716'
p539
sg11
S'Enviroment getExternalStorageState :/mnt/sdcard\n'
p540
sa(dp541
g2
S'5716'
p542
sg4
L1449728828646L
sg5
g365
sg7
S'Environment'
p543
sg9
S' 5716'
p544
sg11
S'GetExternalStorageDirectory info:ApplicationInfo{41edd7a8 com.xdf.ucan},packagename:com.xdf.ucan,UID:0\n'
p545
sa(dp546
g2
S'5716'
p547
sg4
L1449728828756L
sg5
g365
sg7
S'System.out'
p548
sg9
S' 5716'
p549
sg11
S'\xe6\xbf\x80\xe6\xb4\xbb\n'
p550
sa(dp551
g2
S'5716'
p552
sg4
L1449728828766L
sg5
g6
sg7
S'Activity'
p553
sg9
S' 5716'
p554
sg11
S'onPause com.xdf.ucan.ui.video.VideoPlayerActivity@418fb660\n'
p555
sa(dp556
g2
S'5716'
p557
sg4
L1449728828796L
sg5
g6
sg7
S'Activity'
p558
sg9
S' 5716'
p559
sg11
S'onCreate com.mob.tools.MobUIShell@41f20120: null\n'
p560
sa(dp561
g2
S'5716'
p562
sg4
L1449728828826L
sg5
g6
sg7
S'Activity'
p563
sg9
S' 5716'
p564
sg11
S'onStart com.mob.tools.MobUIShell@41f20120\n'
p565
sa(dp566
g2
S'5716'
p567
sg4
L1449728828826L
sg5
g6
sg7
S'Activity'
p568
sg9
S' 5716'
p569
sg11
S'onResume com.mob.tools.MobUIShell@41f20120\n'
p570
sa(dp571
g2
S'5716'
p572
sg4
L1449728829816L
sg5
g365
sg7
S'System.out'
p573
sg9
S' 6480'
p574
sg11
S'type: value, col: 2\n'
p575
sa(dp576
g2
S'5716'
p577
sg4
L1449728829816L
sg5
g365
sg7
S'System.out'
p578
sg9
S' 6480'
p579
sg11
S'type: value, col: 1\n'
p580
sa(dp581
g2
S'5716'
p582
sg4
L1449728831306L
sg5
g365
sg7
S'Environment'
p583
sg9
S' 6595'
p584
sg11
S'GetExternalStorageDirectory info:ApplicationInfo{41f3dd40 com.xdf.ucan},packagename:com.xdf.ucan,UID:0\n'
p585
sa(dp586
g2
S'5716'
p587
sg4
L1449728831306L
sg5
g416
sg7
S'Environment'
p588
sg9
S' 6595'
p589
sg11
S'Enviroment getExternalStorageState :/mnt/sdcard\n'
p590
sa(dp591
g2
S'5716'
p592
sg4
L1449728831306L
sg5
g365
sg7
S'Environment'
p593
sg9
S' 6595'
p594
sg11
S'GetExternalStorageDirectory info:ApplicationInfo{419f2058 com.xdf.ucan},packagename:com.xdf.ucan,UID:0\n'
p595
sa(dp596
g2
S'5716'
p597
sg4
L1449728831496L
sg5
g365
sg7
S'Environment'
p598
sg9
S' 6595'
p599
sg11
S'GetExternalStorageDirectory info:ApplicationInfo{41af5a60 com.xdf.ucan},packagename:com.xdf.ucan,UID:0\n'
p600
sa(dp601
g2
S'5716'
p602
sg4
L1449728831496L
sg5
g416
sg7
S'Environment'
p603
sg9
S' 6595'
p604
sg11
S'Enviroment getExternalStorageState :/mnt/sdcard\n'
p605
sa(dp606
g2
S'5716'
p607
sg4
L1449728831496L
sg5
g365
sg7
S'Environment'
p608
sg9
S' 6595'
p609
sg11
S'GetExternalStorageDirectory info:ApplicationInfo{419ebb48 com.xdf.ucan},packagename:com.xdf.ucan,UID:0\n'
p610
sa(dp611
g2
S'5716'
p612
sg4
L1449728831546L
sg5
g416
sg7
S'dalvikvm'
p613
sg9
S' 6595'
p614
sg11
S'GC_FOR_ALLOC freed 2899K, 37% free 16507K/26183K, paused 42ms, total 42ms\n'
p615
sa(dp616
g2
S'5716'
p617
sg4
L1449728831726L
sg5
g6
sg7
S'Activity'
p618
sg9
S' 5716'
p619
sg11
S'onPause com.mob.tools.MobUIShell@41f20120\n'
p620
sa(dp621
g2
S'5716'
p622
sg4
L1449728831876L
sg5
g6
sg7
S'AudioManager'
p623
sg9
S' 5716'
p624
sg11
S'AudioManager ctor mUseMasterVolume:false\n'
p625
sa(dp626
g2
S'5716'
p627
sg4
L1449728831876L
sg5
g416
sg7
S'long    '
p628
sg9
S' 5716'
p629
sg11
S'subscriptionName:\xe5\x88\x9d\xe4\xb8\xad\xe5\x8c\x96\xe5\xad\xa6\n'
p630
sa(dp631
g2
S'5716'
p632
sg4
L1449728831876L
sg5
g365
sg7
S'Toast   '
p633
sg9
S' 5716'
p634
sg11
S'the toast owner is: com.xdf.ucan\n'
p635
sa(dp636
g2
S'5716'
p637
sg4
L1449728831936L
sg5
g365
sg7
S'Environment'
p638
sg9
S' 6748'
p639
sg11
S'GetExternalStorageDirectory info:ApplicationInfo{41dcb638 com.xdf.ucan},packagename:com.xdf.ucan,UID:0\n'
p640
sa(dp641
g2
S'5716'
p642
sg4
L1449728831936L
sg5
g416
sg7
S'Environment'
p643
sg9
S' 6748'
p644
sg11
S'Enviroment getExternalStorageState :/mnt/sdcard\n'
p645
sa(dp646
g2
S'5716'
p647
sg4
L1449728831936L
sg5
g365
sg7
S'Environment'
p648
sg9
S' 6748'
p649
sg11
S'GetExternalStorageDirectory info:ApplicationInfo{41b75250 com.xdf.ucan},packagename:com.xdf.ucan,UID:0\n'
p650
sa(dp651
g2
S'5716'
p652
sg4
L1449728832446L
sg5
g416
sg7
S'cn.edu.nju.ise.kikandroid'
p653
sg9
S' 5784'
p654
sg11
S'Screenshot:1449728832453\n'
p655
sa(dp656
g2
S'5716'
p657
sg4
L1449728839686L
sg5
g6
sg7
S'Activity'
p658
sg9
S' 5716'
p659
sg11
S'onStop com.mob.tools.MobUIShell@41f20120\n'
p660
sa(dp661
g2
S'5716'
p662
sg4
L1449728839686L
sg5
g6
sg7
S'Activity'
p663
sg9
S' 5716'
p664
sg11
S'onDestroy com.mob.tools.MobUIShell@41f20120\n'
p665
sa(dp666
g2
S'5716'
p667
sg4
L1449728841526L
sg5
g365
sg7
S'System.out'
p668
sg9
S' 6480'
p669
sg11
S'type: value, col: 2\n'
p670
sa(dp671
g2
S'5716'
p672
sg4
L1449728841526L
sg5
g365
sg7
S'System.out'
p673
sg9
S' 6480'
p674
sg11
S'type: value, col: 1\n'
p675
sa(dp676
g2
S'5716'
p677
sg4
L1449728841556L
sg5
g365
sg7
S'Environment'
p678
sg9
S' 6492'
p679
sg11
S'GetExternalStorageDirectory info:ApplicationInfo{4174ef18 com.xdf.ucan},packagename:com.xdf.ucan,UID:0\n'
p680
sa(dp681
g2
S'5716'
p682
sg4
L1449728841556L
sg5
g416
sg7
S'Environment'
p683
sg9
S' 6492'
p684
sg11
S'Enviroment getExternalStorageState :/mnt/sdcard\n'
p685
sa(dp686
g2
S'5716'
p687
sg4
L1449728841566L
sg5
g365
sg7
S'Environment'
p688
sg9
S' 6492'
p689
sg11
S'GetExternalStorageDirectory info:ApplicationInfo{41b72b48 com.xdf.ucan},packagename:com.xdf.ucan,UID:0\n'
p690
sa(dp691
g2
S'5716'
p692
sg4
L1449728850636L
sg5
g365
sg7
S'Environment'
p693
sg9
S' 6492'
p694
sg11
S'GetExternalStorageDirectory info:ApplicationInfo{41e92e98 com.xdf.ucan},packagename:com.xdf.ucan,UID:0\n'
p695
sa(dp696
g2
S'5716'
p697
sg4
L1449728850636L
sg5
g416
sg7
S'Environment'
p698
sg9
S' 6492'
p699
sg11
S'Enviroment getExternalStorageState :/mnt/sdcard\n'
p700
sa(dp701
g2
S'5716'
p702
sg4
L1449728850646L
sg5
g365
sg7
S'Environment'
p703
sg9
S' 6492'
p704
sg11
S'GetExternalStorageDirectory info:ApplicationInfo{419bd850 com.xdf.ucan},packagename:com.xdf.ucan,UID:0\n'
p705
sa(dp706
g2
S'5716'
p707
sg4
L1449728850926L
sg5
g416
sg7
S'dalvikvm'
p708
sg9
S' 5718'
p709
sg11
S'GC_CONCURRENT freed 2072K, 38% free 16374K/26183K, paused 13ms+10ms, total 123ms\n'
p710
sa(dp711
g2
S'5810'
p712
sg4
L1449728852256L
sg5
g365
sg7
S'##COMMON_io.rong.push.PushReceiver:Action'
p713
sg9
S' 5810'
p714
sg11
S'io.rong.push.HeartBeat\n'
p715
sa(dp716
g2
S'5810'
p717
sg4
L1449728852256L
sg5
g365
sg7
S'##COMMON_io.rong.push.PushReceiver:ACTION_HEARTBEAT'
p718
sg9
S' 5810'
p719
sg11
S'Receive heartbeat action.\n'
p720
sa(dp721
g2
S'5810'
p722
sg4
L1449728852256L
sg5
g416
sg7
S'PowerManager'
p723
sg9
S' 5810'
p724
sg11
S'wake:com.xdf.ucan/io.rong.push.PushService [acquire]\n'
p725
sa(dp726
g2
S'5810'
p727
sg4
L1449728852256L
sg5
g6
sg7
S'PowerManager'
p728
sg9
S' 5810'
p729
sg11
S'acquire(long)/mToken = android.os.Binder@417fc758 timeout = 60000\n'
p730
sa(dp731
g2
S'5810'
p732
sg4
L1449728852256L
sg5
g6
sg7
S'PowerManager'
p733
sg9
S' 5810'
p734
sg11
S'acquireLocked/mFlags = 1 mToken = android.os.Binder@417fc758 mTag = wake:com.xdf.ucan/io.rong.push.PushService mWorkSource = null\n'
p735
sa(dp736
g2
S'5810'
p737
sg4
L1449728852256L
sg5
g6
sg7
S'PowerManager'
p738
sg9
S' 5810'
p739
sg11
S'acquireLocked/mRefCounted = false mCount = 0\n'
p740
sa(dp741
g2
S'5810'
p742
sg4
L1449728852266L
sg5
g365
sg7
S'##COMMON_io.rong.push.PushClient:Ping'
p743
sg9
S' 5828'
p744
sg11
S'/119.254.110.229\n'
p745
sa(dp746
g2
S'5810'
p747
sg4
L1449728852266L
sg5
g365
sg7
S'##COMMON_io.rong.push.PushService.PushHandler:ping'
p748
sg9
S' 5828'
p749
sg11
S'Reconnect in 30 sec later if no PINGRESP received.\n'
p750
sa(dp751
g2
S'5810'
p752
sg4
L1449728852266L
sg5
g365
sg7
S'##COMMON_io.rong.push.PushContext:Heartbeat'
p753
sg9
S' 5828'
p754
sg11
S'start_next\n'
p755
sa(dp756
g2
S'5810'
p757
sg4
L1449728852276L
sg5
g416
sg7
S'PowerManager'
p758
sg9
S' 5828'
p759
sg11
S'wake:com.xdf.ucan/io.rong.push.PushService [release]\n'
p760
sa(dp761
g2
S'5810'
p762
sg4
L1449728852276L
sg5
g6
sg7
S'PowerManager'
p763
sg9
S' 5828'
p764
sg11
S'release/flags = 0 mToken = android.os.Binder@417fc758 mTag = wake:com.xdf.ucan/io.rong.push.PushService mWorkSource = null\n'
p765
sa(dp766
g2
S'5810'
p767
sg4
L1449728852276L
sg5
g6
sg7
S'PowerManager'
p768
sg9
S' 5828'
p769
sg11
S'release/mRefCounted = false mCount = 0\n'
p770
sa(dp771
g2
S'5716'
p772
sg4
L1449728852446L
sg5
g416
sg7
S'cn.edu.nju.ise.kikandroid'
p773
sg9
S' 5784'
p774
sg11
S'Screenshot:1449728852446\n'
p775
sa(dp776
g2
S'5810'
p777
sg4
L1449728853066L
sg5
g365
sg7
S'##COMMON_io.rong.push.PushClient:Handler'
p778
sg9
S' 5831'
p779
sg11
S'PINGRESP\n'
p780
sa(dp781
g2
S'5810'
p782
sg4
L1449728853066L
sg5
g365
sg7
S'##COMMON_io.rong.push.PushService.PushHandler.PingSuccessListener:PingSuccessListener'
p783
sg9
S' 5831'
p784
sg11
S'Receive PingResp. Cancel the runnable.\n'
p785
sa(dp786
g2
S'5716'
p787
sg4
L1449728863226L
sg5
g365
sg7
S'Environment'
p788
sg9
S' 6748'
p789
sg11
S'GetExternalStorageDirectory info:ApplicationInfo{41f38cc8 com.xdf.ucan},packagename:com.xdf.ucan,UID:0\n'
p790
sa(dp791
g2
S'5716'
p792
sg4
L1449728863226L
sg5
g416
sg7
S'Environment'
p793
sg9
S' 6748'
p794
sg11
S'Enviroment getExternalStorageState :/mnt/sdcard\n'
p795
sa(dp796
g2
S'5716'
p797
sg4
L1449728863236L
sg5
g365
sg7
S'Environment'
p798
sg9
S' 6748'
p799
sg11
S'GetExternalStorageDirectory info:ApplicationInfo{41f33f10 com.xdf.ucan},packagename:com.xdf.ucan,UID:0\n'
p800
sa(dp801
g2
S'5716'
p802
sg4
L1449728873906L
sg5
g416
sg7
S'cn.edu.nju.ise.kikandroid'
p803
sg9
S' 5784'
p804
sg11
S'Screenshot:1449728873908\n'
p805
sa(dp806
g2
S'5716'
p807
sg4
L1449728880836L
sg5
g365
sg7
S'System.out'
p808
sg9
S' 6480'
p809
sg11
S'type: value, col: 2\n'
p810
sa(dp811
g2
S'5716'
p812
sg4
L1449728880836L
sg5
g365
sg7
S'System.out'
p813
sg9
S' 6480'
p814
sg11
S'type: value, col: 1\n'
p815
sa(dp816
g2
S'5716'
p817
sg4
L1449728880836L
sg5
g365
sg7
S'Environment'
p818
sg9
S' 6492'
p819
sg11
S'GetExternalStorageDirectory info:ApplicationInfo{41edd7a8 com.xdf.ucan},packagename:com.xdf.ucan,UID:0\n'
p820
sa(dp821
g2
S'5716'
p822
sg4
L1449728880836L
sg5
g416
sg7
S'Environment'
p823
sg9
S' 6492'
p824
sg11
S'Enviroment getExternalStorageState :/mnt/sdcard\n'
p825
sa(dp826
g2
S'5716'
p827
sg4
L1449728880836L
sg5
g365
sg7
S'Environment'
p828
sg9
S' 6492'
p829
sg11
S'GetExternalStorageDirectory info:ApplicationInfo{41e56750 com.xdf.ucan},packagename:com.xdf.ucan,UID:0\n'
p830
sa(dp831
g2
S'5716'
p832
sg4
L1449728880856L
sg5
g365
sg7
S'System.out'
p833
sg9
S' 6480'
p834
sg11
S'type: value, col: 2\n'
p835
sa(dp836
g2
S'5716'
p837
sg4
L1449728880856L
sg5
g365
sg7
S'System.out'
p838
sg9
S' 6480'
p839
sg11
S'type: value, col: 1\n'
p840
sa(dp841
g2
S'5716'
p842
sg4
L1449728884706L
sg5
S'W'
p843
sg7
S'System.err'
p844
sg9
S' 5716'
p845
sg11
S'java.lang.Throwable: {"req":"e","errCode":-6,"transaction":"webpage1449728863380"}\n'
p846
sa(dp847
g2
S'5716'
p848
sg4
L1449728884706L
sg5
g843
sg7
S'System.err'
p849
sg9
S' 5716'
p850
sg11
S'\tat cn.sharesdk.wechat.utils.k.a(Unknown Source)\n'
p851
sa(dp852
g2
S'5716'
p853
sg4
L1449728884706L
sg5
g843
sg7
S'System.err'
p854
sg9
S' 5716'
p855
sg11
S'\tat cn.sharesdk.wechat.utils.j.a(Unknown Source)\n'
p856
sa(dp857
g2
S'5716'
p858
sg4
L1449728884706L
sg5
g843
sg7
S'System.err'
p859
sg9
S' 5716'
p860
sg11
S'\tat cn.sharesdk.wechat.utils.WechatHelper.a(Unknown Source)\n'
p861
sa(dp862
g2
S'5716'
p863
sg4
L1449728884706L
sg5
g843
sg7
S'System.err'
p864
sg9
S' 5716'
p865
sg11
S'\tat cn.sharesdk.wechat.utils.WechatHandlerActivity.onCreate(Unknown Source)\n'
p866
sa(dp867
g2
S'5716'
p868
sg4
L1449728884706L
sg5
g843
sg7
S'System.err'
p869
sg9
S' 5716'
p870
sg11
S'\tat android.app.Activity.performCreate(Activity.java:5051)\n'
p871
sa(dp872
g2
S'5716'
p873
sg4
L1449728884706L
sg5
g843
sg7
S'System.err'
p874
sg9
S' 5716'
p875
sg11
S'\tat android.app.Instrumentation.callActivityOnCreate(Instrumentation.java:1101)\n'
p876
sa(dp877
g2
S'5716'
p878
sg4
L1449728884706L
sg5
g843
sg7
S'System.err'
p879
sg9
S' 5716'
p880
sg11
S'\tat android.app.ActivityThread.performLaunchActivity(ActivityThread.java:2031)\n'
p881
sa(dp882
g2
S'5716'
p883
sg4
L1449728884706L
sg5
g843
sg7
S'System.err'
p884
sg9
S' 5716'
p885
sg11
S'\tat android.app.ActivityThread.handleLaunchActivity(ActivityThread.java:2092)\n'
p886
sa(dp887
g2
S'5716'
p888
sg4
L1449728884706L
sg5
g843
sg7
S'System.err'
p889
sg9
S' 5716'
p890
sg11
S'\tat android.app.ActivityThread.access$600(ActivityThread.java:133)\n'
p891
sa(dp892
g2
S'5716'
p893
sg4
L1449728884706L
sg5
g843
sg7
S'System.err'
p894
sg9
S' 5716'
p895
sg11
S'\tat android.app.ActivityThread$H.handleMessage(ActivityThread.java:1203)\n'
p896
sa(dp897
g2
S'5716'
p898
sg4
L1449728884706L
sg5
g843
sg7
S'System.err'
p899
sg9
S' 5716'
p900
sg11
S'\tat android.os.Handler.dispatchMessage(Handler.java:99)\n'
p901
sa(dp902
g2
S'5716'
p903
sg4
L1449728884706L
sg5
g843
sg7
S'System.err'
p904
sg9
S' 5716'
p905
sg11
S'\tat android.os.Looper.loop(Looper.java:137)\n'
p906
sa(dp907
g2
S'5716'
p908
sg4
L1449728884706L
sg5
g843
sg7
S'System.err'
p909
sg9
S' 5716'
p910
sg11
S'\tat android.app.ActivityThread.main(ActivityThread.java:4802)\n'
p911
sa(dp912
g2
S'5716'
p913
sg4
L1449728884706L
sg5
g843
sg7
S'System.err'
p914
sg9
S' 5716'
p915
sg11
S'\tat java.lang.reflect.Method.invokeNative(Native Method)\n'
p916
sa(dp917
g2
S'5716'
p918
sg4
L1449728884706L
sg5
g843
sg7
S'System.err'
p919
sg9
S' 5716'
p920
sg11
S'\tat java.lang.reflect.Method.invoke(Method.java:511)\n'
p921
sa(dp922
g2
S'5716'
p923
sg4
L1449728884706L
sg5
g6
sg7
S'Activity'
p924
sg9
S' 5716'
p925
sg11
S'onCreate com.xdf.ucan.wxapi.WXEntryActivity@41af16c8: null\n'
p926
sa(dp927
g2
S'5716'
p928
sg4
L1449728884716L
sg5
g843
sg7
S'System.err'
p929
sg9
S' 5716'
p930
sg11
S'\tat com.android.internal.os.ZygoteInit$MethodAndArgsCaller.run(ZygoteInit.java:809)\n'
p931
sa(dp932
g2
S'5716'
p933
sg4
L1449728884716L
sg5
g843
sg7
S'System.err'
p934
sg9
S' 5716'
p935
sg11
S'\tat com.android.internal.os.ZygoteInit.main(ZygoteInit.java:576)\n'
p936
sa(dp937
g2
S'5716'
p938
sg4
L1449728884716L
sg5
g843
sg7
S'System.err'
p939
sg9
S' 5716'
p940
sg11
S'\tat dalvik.system.NativeStart.main(Native Method)\n'
p941
sa(dp942
g2
S'5716'
p943
sg4
L1449728884766L
sg5
g416
sg7
S'dalvikvm'
p944
sg9
S' 5718'
p945
sg11
S'GC_CONCURRENT freed 1889K, 38% free 16408K/26183K, paused 4ms+6ms, total 56ms\n'
p946
sa(dp947
g2
S'5716'
p948
sg4
L1449728884766L
sg5
g6
sg7
S'Activity'
p949
sg9
S' 5716'
p950
sg11
S'onResume com.xdf.ucan.ui.video.VideoPlayerActivity@418fb660\n'
p951
sa(dp952
g2
S'5716'
p953
sg4
L1449728884816L
sg5
g6
sg7
S'Activity'
p954
sg9
S' 5716'
p955
sg11
S'onDestroy com.xdf.ucan.wxapi.WXEntryActivity@41af16c8\n'
p956
sa(dp957
g2
S'5716'
p958
sg4
L1449728885626L
sg5
g365
sg7
S'Environment'
p959
sg9
S' 6492'
p960
sg11
S'GetExternalStorageDirectory info:ApplicationInfo{419b4eb0 com.xdf.ucan},packagename:com.xdf.ucan,UID:0\n'
p961
sa(dp962
g2
S'5716'
p963
sg4
L1449728885626L
sg5
g416
sg7
S'Environment'
p964
sg9
S' 6492'
p965
sg11
S'Enviroment getExternalStorageState :/mnt/sdcard\n'
p966
sa(dp967
g2
S'5716'
p968
sg4
L1449728885626L
sg5
g365
sg7
S'Environment'
p969
sg9
S' 6492'
p970
sg11
S'GetExternalStorageDirectory info:ApplicationInfo{4182b098 com.xdf.ucan},packagename:com.xdf.ucan,UID:0\n'
p971
sa(dp972
g2
S'5716'
p973
sg4
L1449728885626L
sg5
g365
sg7
S'Environment'
p974
sg9
S' 6492'
p975
sg11
S'GetExternalStorageDirectory info:ApplicationInfo{41b739f0 com.xdf.ucan},packagename:com.xdf.ucan,UID:0\n'
p976
sa(dp977
g2
S'5716'
p978
sg4
L1449728885626L
sg5
g365
sg7
S'Environment'
p979
sg9
S' 6492'
p980
sg11
S'GetExternalStorageDirectory info:ApplicationInfo{41ef91f8 com.xdf.ucan},packagename:com.xdf.ucan,UID:0\n'
p981
sa(dp982
g2
S'5716'
p983
sg4
L1449728885696L
sg5
g365
sg7
S'Environment'
p984
sg9
S' 6492'
p985
sg11
S'GetExternalStorageDirectory info:ApplicationInfo{41b4e1a8 com.xdf.ucan},packagename:com.xdf.ucan,UID:0\n'
p986
sa(dp987
g2
S'5716'
p988
sg4
L1449728885696L
sg5
g416
sg7
S'Environment'
p989
sg9
S' 6492'
p990
sg11
S'Enviroment getExternalStorageState :/mnt/sdcard\n'
p991
sa(dp992
g2
S'5716'
p993
sg4
L1449728885696L
sg5
g365
sg7
S'Environment'
p994
sg9
S' 6492'
p995
sg11
S'GetExternalStorageDirectory info:ApplicationInfo{41e73fe0 com.xdf.ucan},packagename:com.xdf.ucan,UID:0\n'
p996
sa(dp997
g2
S'5716'
p998
sg4
L1449728885716L
sg5
g365
sg7
S'Environment'
p999
sg9
S' 6492'
p1000
sg11
S'GetExternalStorageDirectory info:ApplicationInfo{41a83f98 com.xdf.ucan},packagename:com.xdf.ucan,UID:0\n'
p1001
sa(dp1002
g2
S'5716'
p1003
sg4
L1449728885716L
sg5
g416
sg7
S'Environment'
p1004
sg9
S' 6492'
p1005
sg11
S'Enviroment getExternalStorageState :/mnt/sdcard\n'
p1006
sa(dp1007
g2
S'5716'
p1008
sg4
L1449728885716L
sg5
g365
sg7
S'Environment'
p1009
sg9
S' 6492'
p1010
sg11
S'GetExternalStorageDirectory info:ApplicationInfo{41a9d308 com.xdf.ucan},packagename:com.xdf.ucan,UID:0\n'
p1011
sa(dp1012
g2
S'5716'
p1013
sg4
L1449728885786L
sg5
g365
sg7
S'Environment'
p1014
sg9
S' 7094'
p1015
sg11
S'GetExternalStorageDirectory info:ApplicationInfo{41a00738 com.xdf.ucan},packagename:com.xdf.ucan,UID:0\n'
p1016
sa(dp1017
g2
S'5716'
p1018
sg4
L1449728885786L
sg5
g416
sg7
S'Environment'
p1019
sg9
S' 7094'
p1020
sg11
S'Enviroment getExternalStorageState :/mnt/sdcard\n'
p1021
sa(dp1022
g2
S'5716'
p1023
sg4
L1449728885786L
sg5
g365
sg7
S'Environment'
p1024
sg9
S' 7094'
p1025
sg11
S'GetExternalStorageDirectory info:ApplicationInfo{41974e18 com.xdf.ucan},packagename:com.xdf.ucan,UID:0\n'
p1026
sa(dp1027
g2
S'5716'
p1028
sg4
L1449728885796L
sg5
g365
sg7
S'dalvikvm'
p1029
sg9
S' 5722'
p1030
sg11
S'Total arena pages for JIT: 11\n'
p1031
sa(dp1032
g2
S'5716'
p1033
sg4
L1449728885796L
sg5
g365
sg7
S'dalvikvm'
p1034
sg9
S' 5722'
p1035
sg11
S'Total arena pages for JIT: 12\n'
p1036
sa(dp1037
g2
S'5716'
p1038
sg4
L1449728885796L
sg5
g365
sg7
S'dalvikvm'
p1039
sg9
S' 5722'
p1040
sg11
S'Total arena pages for JIT: 13\n'
p1041
sa(dp1042
g2
S'5716'
p1043
sg4
L1449728885796L
sg5
g365
sg7
S'dalvikvm'
p1044
sg9
S' 5722'
p1045
sg11
S'Total arena pages for JIT: 14\n'
p1046
sa(dp1047
g2
S'5716'
p1048
sg4
L1449728885796L
sg5
g365
sg7
S'dalvikvm'
p1049
sg9
S' 5722'
p1050
sg11
S'Total arena pages for JIT: 15\n'
p1051
sa(dp1052
g2
S'5716'
p1053
sg4
L1449728885806L
sg5
g365
sg7
S'dalvikvm'
p1054
sg9
S' 5722'
p1055
sg11
S'Total arena pages for JIT: 16\n'
p1056
sa(dp1057
g2
S'5716'
p1058
sg4
L1449728885806L
sg5
g365
sg7
S'dalvikvm'
p1059
sg9
S' 5722'
p1060
sg11
S'Total arena pages for JIT: 17\n'
p1061
sa(dp1062
g2
S'5716'
p1063
sg4
L1449728886166L
sg5
g365
sg7
S'System.out'
p1064
sg9
S' 5716'
p1065
sg11
S'\xe6\xbf\x80\xe6\xb4\xbb\n'
p1066
sa(dp1067
g2
S'5716'
p1068
sg4
L1449728886936L
sg5
g365
sg7
S'System.out'
p1069
sg9
S' 5716'
p1070
sg11
S'\xe6\xbf\x80\xe6\xb4\xbb\n'
p1071
sa(dp1072
g2
S'5716'
p1073
sg4
L1449728887076L
sg5
g365
sg7
S'System.out'
p1074
sg9
S' 5716'
p1075
sg11
S'\xe6\xbf\x80\xe6\xb4\xbb\n'
p1076
sa(dp1077
g2
S'5716'
p1078
sg4
L1449728888266L
sg5
g365
sg7
S'System.out'
p1079
sg9
S' 5716'
p1080
sg11
S'\xe6\xbf\x80\xe6\xb4\xbb\n'
p1081
sa(dp1082
g2
S'5716'
p1083
sg4
L1449728889316L
sg5
g365
sg7
S'System.out'
p1084
sg9
S' 5716'
p1085
sg11
S'\xe6\xbf\x80\xe6\xb4\xbb\n'
p1086
sa(dp1087
g2
S'5716'
p1088
sg4
L1449728889386L
sg5
g365
sg7
S'System.out'
p1089
sg9
S' 5716'
p1090
sg11
S'\xe6\xbf\x80\xe6\xb4\xbb\n'
p1091
sa(dp1092
g2
S'5716'
p1093
sg4
L1449728889456L
sg5
g365
sg7
S'System.out'
p1094
sg9
S' 5716'
p1095
sg11
S'\xe6\xbf\x80\xe6\xb4\xbb\n'
p1096
sa(dp1097
g2
S'5716'
p1098
sg4
L1449728890016L
sg5
g365
sg7
S'System.out'
p1099
sg9
S' 5716'
p1100
sg11
S'\xe6\xbf\x80\xe6\xb4\xbb\n'
p1101
sa(dp1102
g2
S'5716'
p1103
sg4
L1449728890226L
sg5
g365
sg7
S'System.out'
p1104
sg9
S' 5716'
p1105
sg11
S'\xe6\xbf\x80\xe6\xb4\xbb\n'
p1106
sa(dp1107
g2
S'5716'
p1108
sg4
L1449728890436L
sg5
g365
sg7
S'System.out'
p1109
sg9
S' 5716'
p1110
sg11
S'\xe6\xbf\x80\xe6\xb4\xbb\n'
p1111
sa(dp1112
g2
S'5716'
p1113
sg4
L1449728890786L
sg5
g365
sg7
S'System.out'
p1114
sg9
S' 5716'
p1115
sg11
S'\xe6\xbf\x80\xe6\xb4\xbb\n'
p1116
sa(dp1117
g2
S'5716'
p1118
sg4
L1449728890856L
sg5
g365
sg7
S'System.out'
p1119
sg9
S' 5716'
p1120
sg11
S'\xe6\xbf\x80\xe6\xb4\xbb\n'
p1121
sa(dp1122
g2
S'5716'
p1123
sg4
L1449728891136L
sg5
g365
sg7
S'System.out'
p1124
sg9
S' 5716'
p1125
sg11
S'\xe6\xbf\x80\xe6\xb4\xbb\n'
p1126
sa(dp1127
g2
S'5716'
p1128
sg4
L1449728891346L
sg5
g365
sg7
S'System.out'
p1129
sg9
S' 5716'
p1130
sg11
S'\xe6\xbf\x80\xe6\xb4\xbb\n'
p1131
sa(dp1132
g2
S'5716'
p1133
sg4
L1449728892606L
sg5
g365
sg7
S'System.out'
p1134
sg9
S' 5716'
p1135
sg11
S'\xe6\xbf\x80\xe6\xb4\xbb\n'
p1136
sa(dp1137
g2
S'5716'
p1138
sg4
L1449728892676L
sg5
g365
sg7
S'System.out'
p1139
sg9
S' 5716'
p1140
sg11
S'\xe6\xbf\x80\xe6\xb4\xbb\n'
p1141
sa(dp1142
g2
S'5716'
p1143
sg4
L1449728892746L
sg5
g365
sg7
S'System.out'
p1144
sg9
S' 5716'
p1145
sg11
S'\xe6\xbf\x80\xe6\xb4\xbb\n'
p1146
sa(dp1147
g2
S'5716'
p1148
sg4
L1449728892746L
sg5
g416
sg7
S'cn.edu.nju.ise.kikandroid'
p1149
sg9
S' 5784'
p1150
sg11
S'Log:1449728892754\n'
p1151
sa(dp1152
g2
S'5716'
p1153
sg4
L1449728894086L
sg5
g365
sg7
S'System.out'
p1154
sg9
S' 5716'
p1155
sg11
S'\xe6\xbf\x80\xe6\xb4\xbb\n'
p1156
sa(dp1157
g2
S'5716'
p1158
sg4
L1449728895226L
sg5
g365
sg7
S'System.out'
p1159
sg9
S' 5716'
p1160
sg11
S'\xe6\xbf\x80\xe6\xb4\xbb\n'
p1161
sa(dp1162
g2
S'5716'
p1163
sg4
L1449728895366L
sg5
g365
sg7
S'System.out'
p1164
sg9
S' 5716'
p1165
sg11
S'\xe6\xbf\x80\xe6\xb4\xbb\n'
p1166
sa(dp1167
g2
S'5716'
p1168
sg4
L1449728896916L
sg5
g365
sg7
S'System.out'
p1169
sg9
S' 5716'
p1170
sg11
S'\xe6\xbf\x80\xe6\xb4\xbb\n'
p1171
sa(dp1172
g2
S'5716'
p1173
sg4
L1449728897126L
sg5
g365
sg7
S'System.out'
p1174
sg9
S' 5716'
p1175
sg11
S'\xe6\xbf\x80\xe6\xb4\xbb\n'
p1176
sa(dp1177
g2
S'5716'
p1178
sg4
L1449728897266L
sg5
g365
sg7
S'System.out'
p1179
sg9
S' 5716'
p1180
sg11
S'\xe6\xbf\x80\xe6\xb4\xbb\n'
p1181
sa(dp1182
g2
S'5716'
p1183
sg4
L1449728897336L
sg5
g365
sg7
S'System.out'
p1184
sg9
S' 5716'
p1185
sg11
S'\xe6\xbf\x80\xe6\xb4\xbb\n'
p1186
sa(dp1187
g2
S'5716'
p1188
sg4
L1449728897906L
sg5
g365
sg7
S'System.out'
p1189
sg9
S' 5716'
p1190
sg11
S'\xe6\xbf\x80\xe6\xb4\xbb\n'
p1191
sa(dp1192
g2
S'5716'
p1193
sg4
L1449728898756L
sg5
g365
sg7
S'System.out'
p1194
sg9
S' 5716'
p1195
sg11
S'\xe6\xbf\x80\xe6\xb4\xbb\n'
p1196
sa(dp1197
g2
S'5716'
p1198
sg4
L1449728899046L
sg5
g365
sg7
S'System.out'
p1199
sg9
S' 5716'
p1200
sg11
S'\xe6\xbf\x80\xe6\xb4\xbb\n'
p1201
sa(dp1202
g2
S'5716'
p1203
sg4
L1449728899116L
sg5
g365
sg7
S'System.out'
p1204
sg9
S' 5716'
p1205
sg11
S'\xe6\xbf\x80\xe6\xb4\xbb\n'
p1206
sa(dp1207
g2
S'5716'
p1208
sg4
L1449728899186L
sg5
g365
sg7
S'System.out'
p1209
sg9
S' 5716'
p1210
sg11
S'\xe6\xbf\x80\xe6\xb4\xbb\n'
p1211
sa(dp1212
g2
S'5716'
p1213
sg4
L1449728899256L
sg5
g365
sg7
S'System.out'
p1214
sg9
S' 5716'
p1215
sg11
S'\xe6\xbf\x80\xe6\xb4\xbb\n'
p1216
sa(dp1217
g2
S'5716'
p1218
sg4
L1449728899396L
sg5
g365
sg7
S'System.out'
p1219
sg9
S' 5716'
p1220
sg11
S'\xe6\xbf\x80\xe6\xb4\xbb\n'
p1221
sa(dp1222
g2
S'5716'
p1223
sg4
L1449728899466L
sg5
g365
sg7
S'System.out'
p1224
sg9
S' 5716'
p1225
sg11
S'\xe6\xbf\x80\xe6\xb4\xbb\n'
p1226
sa(dp1227
g2
S'5716'
p1228
sg4
L1449728899536L
sg5
g365
sg7
S'System.out'
p1229
sg9
S' 5716'
p1230
sg11
S'\xe6\xbf\x80\xe6\xb4\xbb\n'
p1231
sa(dp1232
g2
S'5716'
p1233
sg4
L1449728899756L
sg5
g365
sg7
S'System.out'
p1234
sg9
S' 5716'
p1235
sg11
S'\xe6\xbf\x80\xe6\xb4\xbb\n'
p1236
sa(dp1237
g2
S'5716'
p1238
sg4
L1449728899826L
sg5
g365
sg7
S'System.out'
p1239
sg9
S' 5716'
p1240
sg11
S'\xe6\xbf\x80\xe6\xb4\xbb\n'
p1241
sa(dp1242
g2
S'5716'
p1243
sg4
L1449728899966L
sg5
g365
sg7
S'System.out'
p1244
sg9
S' 5716'
p1245
sg11
S'\xe6\xbf\x80\xe6\xb4\xbb\n'
p1246
sa(dp1247
g2
S'5716'
p1248
sg4
L1449728900386L
sg5
g365
sg7
S'System.out'
p1249
sg9
S' 5716'
p1250
sg11
S'\xe6\xbf\x80\xe6\xb4\xbb\n'
p1251
sa(dp1252
g2
S'5716'
p1253
sg4
L1449728900596L
sg5
g365
sg7
S'System.out'
p1254
sg9
S' 5716'
p1255
sg11
S'\xe6\xbf\x80\xe6\xb4\xbb\n'
p1256
sa(dp1257
g2
S'5716'
p1258
sg4
L1449728900736L
sg5
g365
sg7
S'System.out'
p1259
sg9
S' 5716'
p1260
sg11
S'\xe6\xbf\x80\xe6\xb4\xbb\n'
p1261
sa(dp1262
g2
S'5716'
p1263
sg4
L1449728900816L
sg5
g365
sg7
S'System.out'
p1264
sg9
S' 5716'
p1265
sg11
S'\xe6\xbf\x80\xe6\xb4\xbb\n'
p1266
sa(dp1267
g2
S'5716'
p1268
sg4
L1449728901296L
sg5
g365
sg7
S'System.out'
p1269
sg9
S' 5716'
p1270
sg11
S'\xe6\xbf\x80\xe6\xb4\xbb\n'
p1271
sa(dp1272
g2
S'5716'
p1273
sg4
L1449728901366L
sg5
g365
sg7
S'System.out'
p1274
sg9
S' 5716'
p1275
sg11
S'\xe6\xbf\x80\xe6\xb4\xbb\n'
p1276
sa(dp1277
g2
S'5716'
p1278
sg4
L1449728901446L
sg5
g365
sg7
S'System.out'
p1279
sg9
S' 5716'
p1280
sg11
S'\xe6\xbf\x80\xe6\xb4\xbb\n'
p1281
sa(dp1282
g2
S'5716'
p1283
sg4
L1449728901996L
sg5
g365
sg7
S'System.out'
p1284
sg9
S' 5716'
p1285
sg11
S'\xe6\xbf\x80\xe6\xb4\xbb\n'
p1286
sa(dp1287
g2
S'5716'
p1288
sg4
L1449728902486L
sg5
g365
sg7
S'System.out'
p1289
sg9
S' 5716'
p1290
sg11
S'\xe6\xbf\x80\xe6\xb4\xbb\n'
p1291
sa(dp1292
g2
S'5716'
p1293
sg4
L1449728902566L
sg5
g365
sg7
S'System.out'
p1294
sg9
S' 5716'
p1295
sg11
S'\xe6\xbf\x80\xe6\xb4\xbb\n'
p1296
sa(dp1297
g2
S'5716'
p1298
sg4
L1449728902626L
sg5
g365
sg7
S'System.out'
p1299
sg9
S' 5716'
p1300
sg11
S'\xe6\xbf\x80\xe6\xb4\xbb\n'
p1301
sa(dp1302
g2
S'5716'
p1303
sg4
L1449728903116L
sg5
g365
sg7
S'System.out'
p1304
sg9
S' 5716'
p1305
sg11
S'\xe6\xbf\x80\xe6\xb4\xbb\n'
p1306
sa(dp1307
g2
S'5716'
p1308
sg4
L1449728903206L
sg5
g365
sg7
S'System.out'
p1309
sg9
S' 5716'
p1310
sg11
S'\xe6\xbf\x80\xe6\xb4\xbb\n'
p1311
sa(dp1312
g2
S'5716'
p1313
sg4
L1449728903816L
sg5
g365
sg7
S'System.out'
p1314
sg9
S' 5716'
p1315
sg11
S'\xe6\xbf\x80\xe6\xb4\xbb\n'
p1316
sa(dp1317
g2
S'5716'
p1318
sg4
L1449728903966L
sg5
g365
sg7
S'System.out'
p1319
sg9
S' 5716'
p1320
sg11
S'\xe6\xbf\x80\xe6\xb4\xbb\n'
p1321
sa(dp1322
g2
S'5716'
p1323
sg4
L1449728904026L
sg5
g365
sg7
S'System.out'
p1324
sg9
S' 5716'
p1325
sg11
S'\xe6\xbf\x80\xe6\xb4\xbb\n'
p1326
sa(dp1327
g2
S'5716'
p1328
sg4
L1449728904236L
sg5
g365
sg7
S'System.out'
p1329
sg9
S' 5716'
p1330
sg11
S'\xe6\xbf\x80\xe6\xb4\xbb\n'
p1331
sa(dp1332
g2
S'5716'
p1333
sg4
L1449728904306L
sg5
g365
sg7
S'System.out'
p1334
sg9
S' 5716'
p1335
sg11
S'\xe6\xbf\x80\xe6\xb4\xbb\n'
p1336
sa(dp1337
g2
S'5716'
p1338
sg4
L1449728904376L
sg5
g365
sg7
S'System.out'
p1339
sg9
S' 5716'
p1340
sg11
S'\xe6\xbf\x80\xe6\xb4\xbb\n'
p1341
sa(dp1342
g2
S'5716'
p1343
sg4
L1449728904466L
sg5
g365
sg7
S'System.out'
p1344
sg9
S' 5716'
p1345
sg11
S'\xe6\xbf\x80\xe6\xb4\xbb\n'
p1346
sa(dp1347
g2
S'5716'
p1348
sg4
L1449728904516L
sg5
g365
sg7
S'System.out'
p1349
sg9
S' 5716'
p1350
sg11
S'\xe6\xbf\x80\xe6\xb4\xbb\n'
p1351
sa(dp1352
g2
S'5716'
p1353
sg4
L1449728905076L
sg5
g365
sg7
S'System.out'
p1354
sg9
S' 5716'
p1355
sg11
S'\xe6\xbf\x80\xe6\xb4\xbb\n'
p1356
sa(dp1357
g2
S'5716'
p1358
sg4
L1449728906266L
sg5
g365
sg7
S'System.out'
p1359
sg9
S' 5716'
p1360
sg11
S'\xe6\xbf\x80\xe6\xb4\xbb\n'
p1361
sa(dp1362
g2
S'5716'
p1363
sg4
L1449728906336L
sg5
g365
sg7
S'System.out'
p1364
sg9
S' 5716'
p1365
sg11
S'\xe6\xbf\x80\xe6\xb4\xbb\n'
p1366
sa(dp1367
g2
S'5716'
p1368
sg4
L1449728906546L
sg5
g365
sg7
S'System.out'
p1369
sg9
S' 5716'
p1370
sg11
S'\xe6\xbf\x80\xe6\xb4\xbb\n'
p1371
sa(dp1372
g2
S'5716'
p1373
sg4
L1449728906826L
sg5
g365
sg7
S'System.out'
p1374
sg9
S' 5716'
p1375
sg11
S'\xe6\xbf\x80\xe6\xb4\xbb\n'
p1376
sa(dp1377
g2
S'5716'
p1378
sg4
L1449728907526L
sg5
g365
sg7
S'System.out'
p1379
sg9
S' 5716'
p1380
sg11
S'\xe6\xbf\x80\xe6\xb4\xbb\n'
p1381
sa(dp1382
g2
S'5716'
p1383
sg4
L1449728908506L
sg5
g365
sg7
S'System.out'
p1384
sg9
S' 5716'
p1385
sg11
S'\xe6\xbf\x80\xe6\xb4\xbb\n'
p1386
sa(dp1387
g2
S'5716'
p1388
sg4
L1449728911796L
sg5
g365
sg7
S'System.out'
p1389
sg9
S' 5716'
p1390
sg11
S'\xe6\xbf\x80\xe6\xb4\xbb\n'
p1391
sa(dp1392
g2
S'5716'
p1393
sg4
L1449728912926L
sg5
g365
sg7
S'System.out'
p1394
sg9
S' 5716'
p1395
sg11
S'\xe6\xbf\x80\xe6\xb4\xbb\n'
p1396
sa(dp1397
g2
S'5716'
p1398
sg4
L1449728913126L
sg5
g365
sg7
S'System.out'
p1399
sg9
S' 5716'
p1400
sg11
S'\xe6\xbf\x80\xe6\xb4\xbb\n'
p1401
sa(dp1402
g2
S'5716'
p1403
sg4
L1449728913266L
sg5
g365
sg7
S'System.out'
p1404
sg9
S' 5716'
p1405
sg11
S'\xe6\xbf\x80\xe6\xb4\xbb\n'
p1406
sa(dp1407
g2
S'5716'
p1408
sg4
L1449728913406L
sg5
g365
sg7
S'System.out'
p1409
sg9
S' 5716'
p1410
sg11
S'\xe6\xbf\x80\xe6\xb4\xbb\n'
p1411
sa(dp1412
g2
S'5716'
p1413
sg4
L1449728914386L
sg5
g365
sg7
S'System.out'
p1414
sg9
S' 5716'
p1415
sg11
S'\xe6\xbf\x80\xe6\xb4\xbb\n'
p1416
sa(dp1417
g2
S'5716'
p1418
sg4
L1449728914596L
sg5
g365
sg7
S'System.out'
p1419
sg9
S' 5716'
p1420
sg11
S'\xe6\xbf\x80\xe6\xb4\xbb\n'
p1421
sa(dp1422
g2
S'5716'
p1423
sg4
L1449728914806L
sg5
g365
sg7
S'System.out'
p1424
sg9
S' 5716'
p1425
sg11
S'\xe6\xbf\x80\xe6\xb4\xbb\n'
p1426
sa(dp1427
g2
S'5716'
p1428
sg4
L1449728914886L
sg5
g365
sg7
S'System.out'
p1429
sg9
S' 5716'
p1430
sg11
S'\xe6\xbf\x80\xe6\xb4\xbb\n'
p1431
sa(dp1432
g2
S'5716'
p1433
sg4
L1449728915016L
sg5
g365
sg7
S'System.out'
p1434
sg9
S' 5716'
p1435
sg11
S'\xe6\xbf\x80\xe6\xb4\xbb\n'
p1436
sa(dp1437
g2
S'5716'
p1438
sg4
L1449728915226L
sg5
g365
sg7
S'System.out'
p1439
sg9
S' 5716'
p1440
sg11
S'\xe6\xbf\x80\xe6\xb4\xbb\n'
p1441
sa(dp1442
g2
S'5716'
p1443
sg4
L1449728915576L
sg5
g365
sg7
S'System.out'
p1444
sg9
S' 5716'
p1445
sg11
S'\xe6\xbf\x80\xe6\xb4\xbb\n'
p1446
sa(dp1447
g2
S'5716'
p1448
sg4
L1449728915886L
sg5
g365
sg7
S'System.out'
p1449
sg9
S' 6480'
p1450
sg11
S'type: value, col: 2\n'
p1451
sa(dp1452
g2
S'5716'
p1453
sg4
L1449728915886L
sg5
g365
sg7
S'System.out'
p1454
sg9
S' 6480'
p1455
sg11
S'type: value, col: 1\n'
p1456
sa(dp1457
g2
S'5716'
p1458
sg4
L1449728916066L
sg5
g365
sg7
S'System.out'
p1459
sg9
S' 5716'
p1460
sg11
S'\xe6\xbf\x80\xe6\xb4\xbb\n'
p1461
sa(dp1462
g2
S'5716'
p1463
sg4
L1449728916206L
sg5
g365
sg7
S'System.out'
p1464
sg9
S' 5716'
p1465
sg11
S'\xe6\xbf\x80\xe6\xb4\xbb\n'
p1466
sa(dp1467
g2
S'5716'
p1468
sg4
L1449728917486L
sg5
g365
sg7
S'System.out'
p1469
sg9
S' 5716'
p1470
sg11
S'\xe6\xbf\x80\xe6\xb4\xbb\n'
p1471
sa(dp1472
g2
S'5716'
p1473
sg4
L1449728917696L
sg5
g365
sg7
S'System.out'
p1474
sg9
S' 5716'
p1475
sg11
S'\xe6\xbf\x80\xe6\xb4\xbb\n'
p1476
sa(dp1477
g2
S'5716'
p1478
sg4
L1449728918056L
sg5
g365
sg7
S'System.out'
p1479
sg9
S' 5716'
p1480
sg11
S'\xe6\xbf\x80\xe6\xb4\xbb\n'
p1481
sa(dp1482
g2
S'5716'
p1483
sg4
L1449728918136L
sg5
g365
sg7
S'System.out'
p1484
sg9
S' 5716'
p1485
sg11
S'\xe6\xbf\x80\xe6\xb4\xbb\n'
p1486
sa(dp1487
g2
S'5716'
p1488
sg4
L1449728918766L
sg5
g365
sg7
S'System.out'
p1489
sg9
S' 5716'
p1490
sg11
S'\xe6\xbf\x80\xe6\xb4\xbb\n'
p1491
sa(dp1492
g2
S'5716'
p1493
sg4
L1449728919046L
sg5
g365
sg7
S'System.out'
p1494
sg9
S' 5716'
p1495
sg11
S'\xe6\xbf\x80\xe6\xb4\xbb\n'
p1496
sa(dp1497
g2
S'5716'
p1498
sg4
L1449728919116L
sg5
g365
sg7
S'System.out'
p1499
sg9
S' 5716'
p1500
sg11
S'\xe6\xbf\x80\xe6\xb4\xbb\n'
p1501
sa(dp1502
g2
S'5716'
p1503
sg4
L1449728919186L
sg5
g365
sg7
S'System.out'
p1504
sg9
S' 5716'
p1505
sg11
S'\xe6\xbf\x80\xe6\xb4\xbb\n'
p1506
sa(dp1507
g2
S'5716'
p1508
sg4
L1449728919326L
sg5
g365
sg7
S'System.out'
p1509
sg9
S' 5716'
p1510
sg11
S'\xe6\xbf\x80\xe6\xb4\xbb\n'
p1511
sa(dp1512
g2
S'5716'
p1513
sg4
L1449728919816L
sg5
g365
sg7
S'System.out'
p1514
sg9
S' 5716'
p1515
sg11
S'\xe6\xbf\x80\xe6\xb4\xbb\n'
p1516
sa(dp1517
g2
S'5716'
p1518
sg4
L1449728919956L
sg5
g365
sg7
S'System.out'
p1519
sg9
S' 5716'
p1520
sg11
S'\xe6\xbf\x80\xe6\xb4\xbb\n'
p1521
sa(dp1522
g2
S'5716'
p1523
sg4
L1449728920656L
sg5
g365
sg7
S'System.out'
p1524
sg9
S' 5716'
p1525
sg11
S'\xe6\xbf\x80\xe6\xb4\xbb\n'
p1526
sa(dp1527
g2
S'5716'
p1528
sg4
L1449728920796L
sg5
g365
sg7
S'System.out'
p1529
sg9
S' 5716'
p1530
sg11
S'\xe6\xbf\x80\xe6\xb4\xbb\n'
p1531
sa(dp1532
g2
S'5716'
p1533
sg4
L1449728920946L
sg5
g365
sg7
S'System.out'
p1534
sg9
S' 5716'
p1535
sg11
S'\xe6\xbf\x80\xe6\xb4\xbb\n'
p1536
sa(dp1537
g2
S'5716'
p1538
sg4
L1449728921356L
sg5
g365
sg7
S'System.out'
p1539
sg9
S' 5716'
p1540
sg11
S'\xe6\xbf\x80\xe6\xb4\xbb\n'
p1541
sa(dp1542
g2
S'5716'
p1543
sg4
L1449728922626L
sg5
g365
sg7
S'System.out'
p1544
sg9
S' 5716'
p1545
sg11
S'\xe6\xbf\x80\xe6\xb4\xbb\n'
p1546
sa(dp1547
g2
S'5716'
p1548
sg4
L1449728922686L
sg5
g365
sg7
S'System.out'
p1549
sg9
S' 5716'
p1550
sg11
S'\xe6\xbf\x80\xe6\xb4\xbb\n'
p1551
sa(dp1552
g2
S'5716'
p1553
sg4
L1449728922706L
sg5
g416
sg7
S'http    '
p1554
sg9
S' 5716'
p1555
sg11
S'\xe8\xaf\xb7\xe6\xb1\x82\xe7\x9a\x84\xe5\x9c\xb0\xe5\x9d\x80\xef\xbc\x9ahttp://v.xdf.cn/videov.php?do=playerCode&playerType=CC&vid=47187\n'
p1556
sa(dp1557
g2
S'5716'
p1558
sg4
L1449728922706L
sg5
g416
sg7
S'http    '
p1559
sg9
S' 5716'
p1560
sg11
S'\xe8\xaf\xb7\xe6\xb1\x82\xe7\x9a\x84\xe5\x8f\x82\xe6\x95\xb0\xef\xbc\x9a\n'
p1561
sa(dp1562
g2
S'5716'
p1563
sg4
L1449728922706L
sg5
g416
sg7
S'long    '
p1564
sg9
S' 5716'
p1565
sg11
S'context.getClass().getName():com.xdf.ucan.ui.video.VideoPlayerActivity\n'
p1566
sa(dp1567
g2
S'5716'
p1568
sg4
L1449728922806L
sg5
g365
sg7
S'System.out'
p1569
sg9
S' 5716'
p1570
sg11
S'\xe6\xbf\x80\xe6\xb4\xbb\n'
p1571
sa(dp1572
g2
S'5716'
p1573
sg4
L1449728922966L
sg5
g365
sg7
S'System.out'
p1574
sg9
S' 5716'
p1575
sg11
S'\xe6\xbf\x80\xe6\xb4\xbb\n'
p1576
sa(dp1577
g2
S'5716'
p1578
sg4
L1449728923036L
sg5
g365
sg7
S'System.out'
p1579
sg9
S' 5716'
p1580
sg11
S'\xe6\xbf\x80\xe6\xb4\xbb\n'
p1581
sa(dp1582
g2
S'5716'
p1583
sg4
L1449728923176L
sg5
g365
sg7
S'System.out'
p1584
sg9
S' 5716'
p1585
sg11
S'\xe6\xbf\x80\xe6\xb4\xbb\n'
p1586
sa(dp1587
g2
S'5716'
p1588
sg4
L1449728923596L
sg5
g365
sg7
S'System.out'
p1589
sg9
S' 5716'
p1590
sg11
S'\xe6\xbf\x80\xe6\xb4\xbb\n'
p1591
sa(dp1592
g2
S'5716'
p1593
sg4
L1449728924026L
sg5
g6
sg7
S'AsyncHttpRH'
p1594
sg9
S' 5716'
p1595
sg11
S'Progress 87 from 1 (8700%)\n'
p1596
sa(dp1597
g2
S'5716'
p1598
sg4
L1449728924036L
sg5
g512
sg7
S'shareurl'
p1599
sg9
S' 5716'
p1600
sg11
S'http://p.bokecc.com/qrplay.bo?uid=9623CE22237FB8F2&vid=EF620185D7CA1D799C33DC5901307461\n'
p1601
sa(dp1602
g2
S'5716'
p1603
sg4
L1449728924046L
sg5
g365
sg7
S'Environment'
p1604
sg9
S' 5716'
p1605
sg11
S'GetExternalStorageDirectory info:ApplicationInfo{4198a008 com.xdf.ucan},packagename:com.xdf.ucan,UID:0\n'
p1606
sa(dp1607
g2
S'5716'
p1608
sg4
L1449728924046L
sg5
g416
sg7
S'Environment'
p1609
sg9
S' 5716'
p1610
sg11
S'Enviroment getExternalStorageState :/mnt/sdcard\n'
p1611
sa(dp1612
g2
S'5716'
p1613
sg4
L1449728924046L
sg5
g365
sg7
S'Environment'
p1614
sg9
S' 5716'
p1615
sg11
S'GetExternalStorageDirectory info:ApplicationInfo{41b0cce8 com.xdf.ucan},packagename:com.xdf.ucan,UID:0\n'
p1616
sa(dp1617
g2
S'5716'
p1618
sg4
L1449728924066L
sg5
g365
sg7
S'Environment'
p1619
sg9
S' 5716'
p1620
sg11
S'GetExternalStorageDirectory info:ApplicationInfo{41968bd8 com.xdf.ucan},packagename:com.xdf.ucan,UID:0\n'
p1621
sa(dp1622
g2
S'5716'
p1623
sg4
L1449728924066L
sg5
g416
sg7
S'Environment'
p1624
sg9
S' 5716'
p1625
sg11
S'Enviroment getExternalStorageState :/mnt/sdcard\n'
p1626
sa(dp1627
g2
S'5716'
p1628
sg4
L1449728924066L
sg5
g365
sg7
S'Environment'
p1629
sg9
S' 5716'
p1630
sg11
S'GetExternalStorageDirectory info:ApplicationInfo{41969a08 com.xdf.ucan},packagename:com.xdf.ucan,UID:0\n'
p1631
sa(dp1632
g2
S'5716'
p1633
sg4
L1449728924156L
sg5
g6
sg7
S'Activity'
p1634
sg9
S' 5716'
p1635
sg11
S'onPause com.xdf.ucan.ui.video.VideoPlayerActivity@418fb660\n'
p1636
sa(dp1637
g2
S'5716'
p1638
sg4
L1449728924196L
sg5
g6
sg7
S'Activity'
p1639
sg9
S' 5716'
p1640
sg11
S'onCreate com.mob.tools.MobUIShell@41b5fdc8: null\n'
p1641
sa(dp1642
g2
S'5716'
p1643
sg4
L1449728924216L
sg5
g6
sg7
S'Activity'
p1644
sg9
S' 5716'
p1645
sg11
S'onStart com.mob.tools.MobUIShell@41b5fdc8\n'
p1646
sa(dp1647
g2
S'5716'
p1648
sg4
L1449728924216L
sg5
g6
sg7
S'Activity'
p1649
sg9
S' 5716'
p1650
sg11
S'onResume com.mob.tools.MobUIShell@41b5fdc8\n'
p1651
sa(dp1652
g2
S'5716'
p1653
sg4
L1449728924296L
sg5
g416
sg7
S'dalvikvm'
p1654
sg9
S' 5718'
p1655
sg11
S'GC_CONCURRENT freed 1836K, 37% free 16607K/26183K, paused 6ms+7ms, total 70ms\n'
p1656
sa(dp1657
g2
S'5716'
p1658
sg4
L1449728924296L
sg5
g416
sg7
S'dalvikvm'
p1659
sg9
S' 5716'
p1660
sg11
S'WAIT_FOR_CONCURRENT_GC blocked 44ms\n'
p1661
sa(dp1662
g2
S'5716'
p1663
sg4
L1449728927316L
sg5
g6
sg7
S'AudioManager'
p1664
sg9
S' 5716'
p1665
sg11
S'AudioManager ctor mUseMasterVolume:false\n'
p1666
sa(dp1667
g2
S'5716'
p1668
sg4
L1449728927326L
sg5
g365
sg7
S'Toast   '
p1669
sg9
S' 5716'
p1670
sg11
S'the toast owner is: com.xdf.ucan\n'
p1671
sa(dp1672
g2
S'5716'
p1673
sg4
L1449728927656L
sg5
g6
sg7
S'Activity'
p1674
sg9
S' 5716'
p1675
sg11
S'onPause com.mob.tools.MobUIShell@41b5fdc8\n'
p1676
sa(dp1677
g2
S'5716'
p1678
sg4
L1449728927676L
sg5
g6
sg7
S'Activity'
p1679
sg9
S' 5716'
p1680
sg11
S'onCreate com.mob.tools.MobUIShell@41ee5500: null\n'
p1681
sa(dp1682
g2
S'5716'
p1683
sg4
L1449728927686L
sg5
g365
sg7
S'Environment'
p1684
sg9
S' 7210'
p1685
sg11
S'GetExternalStorageDirectory info:ApplicationInfo{4196db28 com.xdf.ucan},packagename:com.xdf.ucan,UID:0\n'
p1686
sa(dp1687
g2
S'5716'
p1688
sg4
L1449728927686L
sg5
g416
sg7
S'Environment'
p1689
sg9
S' 7210'
p1690
sg11
S'Enviroment getExternalStorageState :/mnt/sdcard\n'
p1691
sa(dp1692
g2
S'5716'
p1693
sg4
L1449728927686L
sg5
g6
sg7
S'Activity'
p1694
sg9
S' 5716'
p1695
sg11
S'onStart com.mob.tools.MobUIShell@41ee5500\n'
p1696
sa(dp1697
g2
S'5716'
p1698
sg4
L1449728927686L
sg5
g6
sg7
S'Activity'
p1699
sg9
S' 5716'
p1700
sg11
S'onResume com.mob.tools.MobUIShell@41ee5500\n'
p1701
sa(dp1702
g2
S'5716'
p1703
sg4
L1449728927696L
sg5
g365
sg7
S'Environment'
p1704
sg9
S' 7210'
p1705
sg11
S'GetExternalStorageDirectory info:ApplicationInfo{41a42340 com.xdf.ucan},packagename:com.xdf.ucan,UID:0\n'
p1706
sa(dp1707
g2
S'5716'
p1708
sg4
L1449728927796L
sg5
g6
sg7
S'Activity'
p1709
sg9
S' 5716'
p1710
sg11
S'onStop com.mob.tools.MobUIShell@41b5fdc8\n'
p1711
sa(dp1712
g2
S'5716'
p1713
sg4
L1449728927796L
sg5
g365
sg7
S'dalvikvm'
p1714
sg9
S' 5722'
p1715
sg11
S'Jit: resizing JitTable from 8192 to 16384\n'
p1716
sa(dp1717
g2
S'5716'
p1718
sg4
L1449728927796L
sg5
g6
sg7
S'Activity'
p1719
sg9
S' 5716'
p1720
sg11
S'onDestroy com.mob.tools.MobUIShell@41b5fdc8\n'
p1721
sa(dp1722
g2
S'5716'
p1723
sg4
L1449728955946L
sg5
g416
sg7
S'cn.edu.nju.ise.kikandroid'
p1724
sg9
S' 5784'
p1725
sg11
S'Log:1449728955952\n'
p1726
sa(dp1727
g2
S'5716'
p1728
sg4
L1449728955996L
sg5
g416
sg7
S'cn.edu.nju.ise.kikandroid'
p1729
sg9
S' 5784'
p1730
sg11
S'Screenshot:1449728956000\n'
p1731
sa(dp1732
g2
S'5716'
p1733
sg4
L1449728956056L
sg5
g416
sg7
S'dalvikvm'
p1734
sg9
S' 5716'
p1735
sg11
S'GC_FOR_ALLOC freed 979K, 38% free 16446K/26183K, paused 58ms, total 58ms\n'
p1736
sa(dp1737
g2
S'5716'
p1738
sg4
L1449728956126L
sg5
g416
sg7
S'dalvikvm'
p1739
sg9
S' 5718'
p1740
sg11
S'GC_CONCURRENT freed 31K, 30% free 18440K/26183K, paused 14ms+5ms, total 60ms\n'
p1741
sa(dp1742
g2
S'5716'
p1743
sg4
L1449728956126L
sg5
g416
sg7
S'dalvikvm'
p1744
sg9
S' 5716'
p1745
sg11
S'WAIT_FOR_CONCURRENT_GC blocked 45ms\n'
p1746
sa(dp1747
g2
S'5716'
p1748
sg4
L1449728956206L
sg5
g416
sg7
S'dalvikvm'
p1749
sg9
S' 5718'
p1750
sg11
S'GC_CONCURRENT freed 2026K, 30% free 18445K/26183K, paused 18ms+21ms, total 77ms\n'
p1751
sa(dp1752
g2
S'5716'
p1753
sg4
L1449728956236L
sg5
g843
sg7
S'dalvikvm'
p1754
sg9
S' 5784'
p1755
sg11
S'threadid=23: thread exiting with uncaught exception (group=0x40d96588)\n'
p1756
sa(dp1757
g2
S'5716'
p1758
sg4
L1449728956236L
sg5
S'F'
p1759
sg7
S'MobUncaughtExceptionHandler'
p1760
sg9
S' 5784'
p1761
sg11
S'null\njava.lang.NullPointerException\n\tat android.app.Instrumentation.finish(Instrumentation.java:191)\n\tat cn.edu.nju.ise.kikandroid.AUTInstrument.quitInstr(AUTInstrument.java:195)\n\tat cn.edu.nju.ise.kikandroid.AUTInstrument.startServer(AUTInstrument.java:161)\n\tat cn.edu.nju.ise.kikandroid.AUTInstrument$1.run(AUTInstrument.java:107)\n\tat java.lang.Thread.run(Thread.java:856)\n'
p1762
sa(dp1763
g2
S'5716'
p1764
sg4
L1449728956246L
sg5
g365
sg7
S'System.out'
p1765
sg9
S' 6480'
p1766
sg11
S'type: value, col: 2\n'
p1767
sa(dp1768
g2
S'5716'
p1769
sg4
L1449728956246L
sg5
g365
sg7
S'System.out'
p1770
sg9
S' 6480'
p1771
sg11
S'type: value, col: 1\n'
p1772
sa(dp1773
g2
S'5716'
p1774
sg4
L1449728956316L
sg5
g365
sg7
S'Process '
p1775
sg9
S' 6480'
p1776
sg11
S'Sending signal. PID: 5716 SIG: 9\n'
p1777
sa(dp1778
g2
S'5742'
p1779
sg4
L1449728956356L
sg5
g416
sg7
S'RongService'
p1780
sg9
S' 5742'
p1781
sg11
S'onUnbind, pid=5742\n'
p1782
sa(dp1783
g2
S'5742'
p1784
sg4
L1449728956356L
sg5
g416
sg7
S'RongService'
p1785
sg9
S' 5742'
p1786
sg11
S'onDestroy, pid=5742\n'
p1787
sa(dp1788
g2
S'5742'
p1789
sg4
L1449728956356L
sg5
g365
sg7
S'Process '
p1790
sg9
S' 5742'
p1791
sg11
S'Sending signal. PID: 5742 SIG: 9\n'
p1792
sa(dp1793
g2
S'7236'
p1794
sg4
L1449728956436L
sg5
g512
sg7
S'Trace   '
p1795
sg9
S' 7236'
p1796
sg11
S'error opening trace file: No such file or directory (2)\n'
p1797
sa(dp1798
g2
S'7236'
p1799
sg4
L1449728956566L
sg5
g416
sg7
S'dalvikvm'
p1800
sg9
S' 7238'
p1801
sg11
S'GC_CONCURRENT freed 155K, 6% free 9880K/10439K, paused 14ms+2ms, total 43ms\n'
p1802
sa(dp1803
g2
S'7236'
p1804
sg4
L1449728956566L
sg5
g416
sg7
S'dalvikvm'
p1805
sg9
S' 7236'
p1806
sg11
S'WAIT_FOR_CONCURRENT_GC blocked 17ms\n'
p1807
sa(dp1808
g2
S'7236'
p1809
sg4
L1449728956596L
sg5
g416
sg7
S'long    '
p1810
sg9
S' 7236'
p1811
sg11
S'\xe8\xbf\x9e\xe6\x8e\xa5\xe7\x9a\x84\xe6\x95\xb0\xe6\x8d\xae\xe5\xba\x93\xe6\x98\xaf\xef\xbc\x9axdf004483225.db\n'
p1812
sa(dp1813
g2
S'7236'
p1814
sg4
L1449728956606L
sg5
g365
sg7
S'Environment'
p1815
sg9
S' 7236'
p1816
sg11
S'GetExternalStorageDirectory info:ApplicationInfo{417c99e0 com.xdf.ucan},packagename:com.xdf.ucan,UID:0\n'
p1817
sa(dp1818
g2
S'7236'
p1819
sg4
L1449728956606L
sg5
g416
sg7
S'Environment'
p1820
sg9
S' 7236'
p1821
sg11
S'Enviroment getExternalStorageState :/mnt/sdcard\n'
p1822
sa(dp1823
g2
S'7236'
p1824
sg4
L1449728956606L
sg5
g365
sg7
S'Environment'
p1825
sg9
S' 7236'
p1826
sg11
S'GetExternalStorageDirectory info:ApplicationInfo{417ca838 com.xdf.ucan},packagename:com.xdf.ucan,UID:0\n'
p1827
sa(dp1828
g2
S'7236'
p1829
sg4
L1449728956606L
sg5
g365
sg7
S'Environment'
p1830
sg9
S' 7236'
p1831
sg11
S'GetExternalStorageDirectory info:ApplicationInfo{417cb190 com.xdf.ucan},packagename:com.xdf.ucan,UID:0\n'
p1832
sa(dp1833
g2
S'7236'
p1834
sg4
L1449728956606L
sg5
g416
sg7
S'ImageLoader'
p1835
sg9
S' 7236'
p1836
sg11
S'Initialize ImageLoader with configuration\n'
p1837
sa(dp1838
g2
S'7236'
p1839
sg4
L1449728956616L
sg5
g416
sg7
S'long    '
p1840
sg9
S' 7236'
p1841
sg11
S'getCurProcessName:com.xdf.ucan\n'
p1842
sa(dp1843
g2
S'7236'
p1844
sg4
L1449728956676L
sg5
g416
sg7
S'dalvikvm'
p1845
sg9
S' 7238'
p1846
sg11
S'GC_CONCURRENT freed 304K, 7% free 10074K/10823K, paused 13ms+2ms, total 32ms\n'
p1847
sa(dp1848
g2
S'7236'
p1849
sg4
L1449728956676L
sg5
g416
sg7
S'##KIT_io.rong.imkit.widget.provider.TextInputProvider:TextInputProvider'
p1850
sg9
S' 7236'
p1851
sg11
S''
p1852
sa(dp1853
g2
S'7236'
p1854
sg4
L1449728956686L
sg5
g512
sg7
S'##IPC_io.rong.imkit.widget.provider.VoIPInputProvider:VoIPInputProvider'
p1855
sg9
S' 7236'
p1856
sg11
S'----------\xe6\x9e\x84\xe9\x80\xa0\xe6\x96\xb9\xe6\xb3\x95----------\n'
p1857
sa(dp1858
g2
S'7236'
p1859
sg4
L1449728956686L
sg5
g416
sg7
S'##IPC_com.xdf.ucan.BaseApplication:RongIMClient : init'
p1860
sg9
S' 7236'
p1861
sg11
S'process = com.xdf.ucan\n'
p1862
sa(dp1863
g2
S'7236'
p1864
sg4
L1449728956706L
sg5
g416
sg7
S'##COMMON_io.rong.push.PushContext:PushContext'
p1865
sg9
S' 7236'
p1866
sg11
S'init\n'
p1867
sa(dp1868
g2
S'7236'
p1869
sg4
L1449728956786L
sg5
g365
sg7
S'##COMMON_io.rong.push.PushContext:sendConnectCommand'
p1870
sg9
S' 7236'
p1871
sg11
S'4500\n'
p1872
sa(dp1873
g2
S'7236'
p1874
sg4
L1449728956816L
sg5
g416
sg7
S'##IPC_io.rong.imlib.RongIMClient:initBindService'
p1875
sg9
S' 7236'
p1876
sg11
S'mIsBind = false\n'
p1877
sa(dp1878
g2
S'7236'
p1879
sg4
L1449728956836L
sg5
g416
sg7
S'##IPC_io.rong.imlib.RongIMClient:registerMessageType'
p1880
sg9
S' 7236'
p1881
sg11
S'class io.rong.message.TextMessage\n'
p1882
sa(dp1883
g2
S'7236'
p1884
sg4
L1449728956836L
sg5
g416
sg7
S'##IPC_io.rong.imlib.RongIMClient:registerMessageType'
p1885
sg9
S' 7236'
p1886
sg11
S'class io.rong.message.VoiceMessage\n'
p1887
sa(dp1888
g2
S'7236'
p1889
sg4
L1449728956836L
sg5
g416
sg7
S'##IPC_io.rong.imlib.RongIMClient:registerMessageType'
p1890
sg9
S' 7236'
p1891
sg11
S'class io.rong.message.ImageMessage\n'
p1892
sa(dp1893
g2
S'7236'
p1894
sg4
L1449728956836L
sg5
g416
sg7
S'##IPC_io.rong.imlib.RongIMClient:registerMessageType'
p1895
sg9
S' 7236'
p1896
sg11
S'class io.rong.message.LocationMessage\n'
p1897
sa(dp1898
g2
S'7236'
p1899
sg4
L1449728956836L
sg5
g416
sg7
S'##IPC_io.rong.imlib.RongIMClient:registerMessageType'
p1900
sg9
S' 7236'
p1901
sg11
S'class io.rong.message.CommandNotificationMessage\n'
p1902
sa(dp1903
g2
S'7236'
p1904
sg4
L1449728956836L
sg5
g416
sg7
S'##IPC_io.rong.imlib.RongIMClient:registerMessageType'
p1905
sg9
S' 7236'
p1906
sg11
S'class io.rong.message.ContactNotificationMessage\n'
p1907
sa(dp1908
g2
S'7236'
p1909
sg4
L1449728956846L
sg5
g416
sg7
S'##IPC_io.rong.imlib.RongIMClient:registerMessageType'
p1910
sg9
S' 7236'
p1911
sg11
S'class io.rong.message.RichContentMessage\n'
p1912
sa(dp1913
g2
S'7236'
p1914
sg4
L1449728956846L
sg5
g416
sg7
S'##IPC_io.rong.imlib.RongIMClient:registerMessageType'
p1915
sg9
S' 7236'
p1916
sg11
S'class io.rong.message.PublicServiceMultiRichContentMessage\n'
p1917
sa(dp1918
g2
S'7236'
p1919
sg4
L1449728956846L
sg5
g416
sg7
S'##IPC_io.rong.imlib.RongIMClient:registerMessageType'
p1920
sg9
S' 7236'
p1921
sg11
S'class io.rong.message.PublicServiceRichContentMessage\n'
p1922
sa(dp1923
g2
S'7236'
p1924
sg4
L1449728956846L
sg5
g416
sg7
S'##IPC_io.rong.imlib.RongIMClient:registerMessageType'
p1925
sg9
S' 7236'
p1926
sg11
S'class io.rong.message.PublicServiceCommandMessage\n'
p1927
sa(dp1928
g2
S'7236'
p1929
sg4
L1449728956846L
sg5
g416
sg7
S'##IPC_io.rong.imlib.RongIMClient:registerMessageType'
p1930
sg9
S' 7236'
p1931
sg11
S'class io.rong.message.ProfileNotificationMessage\n'
p1932
sa(dp1933
g2
S'7236'
p1934
sg4
L1449728956846L
sg5
g416
sg7
S'##IPC_io.rong.imlib.RongIMClient:registerMessageType'
p1935
sg9
S' 7236'
p1936
sg11
S'class io.rong.message.HandshakeMessage\n'
p1937
sa(dp1938
g2
S'7236'
p1939
sg4
L1449728956846L
sg5
g416
sg7
S'##IPC_io.rong.imlib.RongIMClient:registerMessageType'
p1940
sg9
S' 7236'
p1941
sg11
S'class io.rong.message.InformationNotificationMessage\n'
p1942
sa(dp1943
g2
S'7236'
p1944
sg4
L1449728956846L
sg5
g416
sg7
S'##IPC_io.rong.imlib.RongIMClient:registerMessageType'
p1945
sg9
S' 7236'
p1946
sg11
S'class io.rong.message.DiscussionNotificationMessage\n'
p1947
sa(dp1948
g2
S'7236'
p1949
sg4
L1449728956846L
sg5
g416
sg7
S'##IPC_io.rong.imlib.RongIMClient:registerMessageType'
p1950
sg9
S' 7236'
p1951
sg11
S'class io.rong.message.SuspendMessage\n'
p1952
sa(dp1953
g2
S'7236'
p1954
sg4
L1449728956856L
sg5
g512
sg7
S'##KIT_com.xdf.ucan.BaseApplication:init'
p1955
sg9
S' 7236'
p1956
sg11
S'before init\n'
p1957
sa(dp1958
g2
S'7236'
p1959
sg4
L1449728956856L
sg5
g416
sg7
S'##IPC_io.rong.imlib.RongIMClient:registerMessageType'
p1960
sg9
S' 7236'
p1961
sg11
S'class io.rong.voipkit.message.VoIPAcceptMessage\n'
p1962
sa(dp1963
g2
S'7236'
p1964
sg4
L1449728956856L
sg5
g416
sg7
S'##IPC_io.rong.imlib.RongIMClient:registerMessageType'
p1965
sg9
S' 7236'
p1966
sg11
S'class io.rong.voipkit.message.VoIPCallMessage\n'
p1967
sa(dp1968
g2
S'7236'
p1969
sg4
L1449728956856L
sg5
g416
sg7
S'##IPC_io.rong.imlib.RongIMClient:registerMessageType'
p1970
sg9
S' 7236'
p1971
sg11
S'class io.rong.voipkit.message.VoIPFinishMessage\n'
p1972
sa(dp1973
g2
S'7261'
p1974
sg4
L1449728956856L
sg5
g512
sg7
S'Trace   '
p1975
sg9
S' 7261'
p1976
sg11
S'error opening trace file: No such file or directory (2)\n'
p1977
sa(dp1978
g2
S'7236'
p1979
sg4
L1449728956866L
sg5
g6
sg7
S'AudioManager'
p1980
sg9
S' 7236'
p1981
sg11
S'AudioManager ctor mUseMasterVolume:false\n'
p1982
sa(dp1983
g2
S'7236'
p1984
sg4
L1449728956876L
sg5
g365
sg7
S'##KIT_com.xdf.ucan.RongCloudEvent:RongIMClientWrapper'
p1985
sg9
S' 7236'
p1986
sg11
S'setOnReceiveMessageListener\n'
p1987
sa(dp1988
g2
S'7261'
p1989
sg4
L1449728956966L
sg5
g416
sg7
S'dalvikvm'
p1990
sg9
S' 7263'
p1991
sg11
S'GC_CONCURRENT freed 154K, 6% free 9867K/10439K, paused 12ms+12ms, total 42ms\n'
p1992
sa(dp1993
g2
S'7261'
p1994
sg4
L1449728957006L
sg5
g416
sg7
S'long    '
p1995
sg9
S' 7261'
p1996
sg11
S'\xe8\xbf\x9e\xe6\x8e\xa5\xe7\x9a\x84\xe6\x95\xb0\xe6\x8d\xae\xe5\xba\x93\xe6\x98\xaf\xef\xbc\x9axdf004483225.db\n'
p1997
sa(dp1998
g2
S'7261'
p1999
sg4
L1449728957006L
sg5
g365
sg7
S'Environment'
p2000
sg9
S' 7261'
p2001
sg11
S'GetExternalStorageDirectory info:ApplicationInfo{417cb6a8 com.xdf.ucan},packagename:com.xdf.ucan,UID:0\n'
p2002
sa(dp2003
g2
S'7261'
p2004
sg4
L1449728957006L
sg5
g416
sg7
S'Environment'
p2005
sg9
S' 7261'
p2006
sg11
S'Enviroment getExternalStorageState :/mnt/sdcard\n'
p2007
sa(dp2008
g2
S'7261'
p2009
sg4
L1449728957006L
sg5
g365
sg7
S'Environment'
p2010
sg9
S' 7261'
p2011
sg11
S'GetExternalStorageDirectory info:ApplicationInfo{417cc500 com.xdf.ucan},packagename:com.xdf.ucan,UID:0\n'
p2012
sa(dp2013
g2
S'7261'
p2014
sg4
L1449728957006L
sg5
g365
sg7
S'Environment'
p2015
sg9
S' 7261'
p2016
sg11
S'GetExternalStorageDirectory info:ApplicationInfo{417cce58 com.xdf.ucan},packagename:com.xdf.ucan,UID:0\n'
p2017
sa(dp2018
g2
S'7261'
p2019
sg4
L1449728957016L
sg5
g416
sg7
S'ImageLoader'
p2020
sg9
S' 7261'
p2021
sg11
S'Initialize ImageLoader with configuration\n'
p2022
sa(dp2023
g2
S'7261'
p2024
sg4
L1449728957016L
sg5
g416
sg7
S'long    '
p2025
sg9
S' 7261'
p2026
sg11
S'getCurProcessName:com.xdf.ucan:ipc\n'
p2027
sa(dp2028
g2
S'7261'
p2029
sg4
L1449728957026L
sg5
g416
sg7
S'RongService'
p2030
sg9
S' 7261'
p2031
sg11
S'onCreate, pid=7261\n'
p2032
sa(dp2033
g2
S'7261'
p2034
sg4
L1449728957026L
sg5
g416
sg7
S'RongService'
p2035
sg9
S' 7261'
p2036
sg11
S'onBind, pid=7261\n'
p2037
sa(dp2038
g2
S'7261'
p2039
sg4
L1449728957046L
sg5
g365
sg7
S'Environment'
p2040
sg9
S' 7261'
p2041
sg11
S'GetExternalStorageDirectory info:ApplicationInfo{417f87f0 com.xdf.ucan},packagename:com.xdf.ucan,UID:0\n'
p2042
sa(dp2043
g2
S'7261'
p2044
sg4
L1449728957046L
sg5
g416
sg7
S'Environment'
p2045
sg9
S' 7261'
p2046
sg11
S'Enviroment getExternalStorageState :/mnt/sdcard\n'
p2047
sa(dp2048
g2
S'7261'
p2049
sg4
L1449728957046L
sg5
g365
sg7
S'Environment'
p2050
sg9
S' 7261'
p2051
sg11
S'GetExternalStorageDirectory info:ApplicationInfo{417f9148 com.xdf.ucan},packagename:com.xdf.ucan,UID:0\n'
p2052
sa(dp2053
g2
S'7261'
p2054
sg4
L1449728957046L
sg5
g365
sg7
S'##COMMON_io.rong.imlib.LibContext:DeviceId'
p2055
sg9
S' 7261'
p2056
sg11
S'99000456348309\n'
p2057
sa(dp2058
g2
S'7261'
p2059
sg4
L1449728957046L
sg5
g416
sg7
S'dalvikvm'
p2060
sg9
S' 7261'
p2061
sg11
S'Trying to load lib /data/data/com.xdf.ucan/lib/libRongIMLib.so 0x41746078\n'
p2062
sa(dp2063
g2
S'7261'
p2064
sg4
L1449728957046L
sg5
g416
sg7
S'dalvikvm'
p2065
sg9
S' 7261'
p2066
sg11
S'Added shared lib /data/data/com.xdf.ucan/lib/libRongIMLib.so 0x41746078\n'
p2067
sa(dp2068
g2
S'7261'
p2069
sg4
L1449728957056L
sg5
g416
sg7
S'NativeClient'
p2070
sg9
S' 7261'
p2071
sg11
S'/mnt/sdcard/Android/data/com.xdf.ucan/RongCloud||/data/data/com.xdf.ucan/files\n'
p2072
sa(dp2073
g2
S'7236'
p2074
sg4
L1449728957056L
sg5
g416
sg7
S'##IPC_io.rong.imlib.RongIMClient:onServiceConnected'
p2075
sg9
S' 7236'
p2076
sg11
S'mConnectionStatus = DISCONNECTED, stub = io.rong.imlib.ipc.remote.IHandler$Stub$Proxy@417a1a48\n'
p2077
sa(dp2078
g2
S'7261'
p2079
sg4
L1449728957086L
sg5
g416
sg7
S'dalvikvm'
p2080
sg9
S' 7263'
p2081
sg11
S'GC_CONCURRENT freed 265K, 7% free 10038K/10759K, paused 2ms+17ms, total 39ms\n'
p2082
sa(dp2083
g2
S'7236'
p2084
sg4
L1449728957126L
sg5
g416
sg7
S'##IPC_io.rong.imlib.ConnectChangeReceiver:onReceive'
p2085
sg9
S' 7236'
p2086
sg11
S'network:true, intent:Intent { act=android.net.conn.CONNECTIVITY_CHANGE flg=0x8000010 (has extras) }\n'
p2087
sa(dp2088
g2
S'7236'
p2089
sg4
L1449728958156L
sg5
g416
sg7
S'##IPC_io.rong.imlib.ConnectChangeReceiver:onReceive'
p2090
sg9
S' 7236'
p2091
sg11
S'network:true, intent:Intent { act=action_reconnect flg=0x14 pkg=com.xdf.ucan cmp=com.xdf.ucan/io.rong.imlib.ConnectChangeReceiver (has extras) }\n'
p2092
sa(dp2093
g2
S'7236'
p2094
sg4
L1449728958166L
sg5
g416
sg7
S'PowerManager'
p2095
sg9
S' 7236'
p2096
sg11
S'wake:com.xdf.ucan/io.rong.imlib.ReConnectService [acquire]\n'
p2097
sa(dp2098
g2
S'7236'
p2099
sg4
L1449728958166L
sg5
g6
sg7
S'PowerManager'
p2100
sg9
S' 7236'
p2101
sg11
S'acquire(long)/mToken = android.os.Binder@418254d8 timeout = 60000\n'
p2102
sa(dp2103
g2
S'7236'
p2104
sg4
L1449728958166L
sg5
g6
sg7
S'PowerManager'
p2105
sg9
S' 7236'
p2106
sg11
S'acquireLocked/mFlags = 1 mToken = android.os.Binder@418254d8 mTag = wake:com.xdf.ucan/io.rong.imlib.ReConnectService mWorkSource = null\n'
p2107
sa(dp2108
g2
S'7236'
p2109
sg4
L1449728958166L
sg5
g6
sg7
S'PowerManager'
p2110
sg9
S' 7236'
p2111
sg11
S'acquireLocked/mRefCounted = false mCount = 0\n'
p2112
sa(dp2113
g2
S'7236'
p2114
sg4
L1449728958176L
sg5
g416
sg7
S'##IPC_io.rong.imlib.ReConnectService:RECONNECT'
p2115
sg9
S' 7291'
p2116
sg11
S'Intent { cmp=com.xdf.ucan/io.rong.imlib.ReConnectService (has extras) }\n'
p2117
sa(dp2118
g2
S'7236'
p2119
sg4
L1449728958176L
sg5
g416
sg7
S'##IPC_io.rong.imlib.RongIMClient:reconnect'
p2120
sg9
S' 7291'
p2121
sg11
S'mConnectionStatus :DISCONNECTED\n'
p2122
sa(dp2123
g2
S'7236'
p2124
sg4
L1449728958186L
sg5
g416
sg7
S'PowerManager'
p2125
sg9
S' 7236'
p2126
sg11
S'wake:com.xdf.ucan/io.rong.imlib.ReConnectService [release]\n'
p2127
sa(dp2128
g2
S'7236'
p2129
sg4
L1449728958186L
sg5
g6
sg7
S'PowerManager'
p2130
sg9
S' 7236'
p2131
sg11
S'release/flags = 0 mToken = android.os.Binder@418254d8 mTag = wake:com.xdf.ucan/io.rong.imlib.ReConnectService mWorkSource = null\n'
p2132
sa(dp2133
g2
S'7236'
p2134
sg4
L1449728958186L
sg5
g6
sg7
S'PowerManager'
p2135
sg9
S' 7236'
p2136
sg11
S'release/mRefCounted = false mCount = 0\n'
p2137
sa(dp2138
g2
S'7305'
p2139
sg4
L1449728961356L
sg5
g512
sg7
S'Trace   '
p2140
sg9
S' 7305'
p2141
sg11
S'error opening trace file: No such file or directory (2)\n'
p2142
sa(dp2143
g2
S'7305'
p2144
sg4
L1449728961466L
sg5
g416
sg7
S'dalvikvm'
p2145
sg9
S' 7307'
p2146
sg11
S'GC_CONCURRENT freed 160K, 6% free 9875K/10439K, paused 12ms+2ms, total 39ms\n'
p2147
sa(dp2148
g2
S'7305'
p2149
sg4
L1449728961466L
sg5
g416
sg7
S'dalvikvm'
p2150
sg9
S' 7305'
p2151
sg11
S'WAIT_FOR_CONCURRENT_GC blocked 6ms\n'
p2152
sa(dp2153
g2
S'7305'
p2154
sg4
L1449728961496L
sg5
g416
sg7
S'long    '
p2155
sg9
S' 7305'
p2156
sg11
S'\xe8\xbf\x9e\xe6\x8e\xa5\xe7\x9a\x84\xe6\x95\xb0\xe6\x8d\xae\xe5\xba\x93\xe6\x98\xaf\xef\xbc\x9axdf004483225.db\n'
p2157
sa(dp2158
g2
S'7305'
p2159
sg4
L1449728961496L
sg5
g365
sg7
S'Environment'
p2160
sg9
S' 7305'
p2161
sg11
S'GetExternalStorageDirectory info:ApplicationInfo{417cab60 com.xdf.ucan},packagename:com.xdf.ucan,UID:0\n'
p2162
sa(dp2163
g2
S'7305'
p2164
sg4
L1449728961496L
sg5
g416
sg7
S'Environment'
p2165
sg9
S' 7305'
p2166
sg11
S'Enviroment getExternalStorageState :/mnt/sdcard\n'
p2167
sa(dp2168
g2
S'7305'
p2169
sg4
L1449728961506L
sg5
g365
sg7
S'Environment'
p2170
sg9
S' 7305'
p2171
sg11
S'GetExternalStorageDirectory info:ApplicationInfo{417cb9b8 com.xdf.ucan},packagename:com.xdf.ucan,UID:0\n'
p2172
sa(dp2173
g2
S'7305'
p2174
sg4
L1449728961506L
sg5
g416
sg7
S'Environment'
p2175
sg9
S' 7305'
p2176
sg11
S'Enviroment getExternalStorageState :/mnt/sdcard\n'
p2177
sa(dp2178
g2
S'7305'
p2179
sg4
L1449728961506L
sg5
g365
sg7
S'Environment'
p2180
sg9
S' 7305'
p2181
sg11
S'GetExternalStorageDirectory info:ApplicationInfo{417cc310 com.xdf.ucan},packagename:com.xdf.ucan,UID:0\n'
p2182
sa(dp2183
g2
S'7305'
p2184
sg4
L1449728961506L
sg5
g416
sg7
S'ImageLoader'
p2185
sg9
S' 7305'
p2186
sg11
S'Initialize ImageLoader with configuration\n'
p2187
sa(dp2188
g2
S'7305'
p2189
sg4
L1449728961516L
sg5
g416
sg7
S'long    '
p2190
sg9
S' 7305'
p2191
sg11
S'getCurProcessName:io.rong.push\n'
p2192
sa(dp2193
g2
S'7305'
p2194
sg4
L1449728961526L
sg5
g416
sg7
S'##IPC_com.xdf.ucan.BaseApplication:RongIMClient : init'
p2195
sg9
S' 7305'
p2196
sg11
S'process = io.rong.push\n'
p2197
sa(dp2198
g2
S'7305'
p2199
sg4
L1449728961546L
sg5
g416
sg7
S'##COMMON_io.rong.push.PushContext:PushContext'
p2200
sg9
S' 7305'
p2201
sg11
S'init\n'
p2202
sa(dp2203
g2
S'7305'
p2204
sg4
L1449728961566L
sg5
g416
sg7
S'dalvikvm'
p2205
sg9
S' 7307'
p2206
sg11
S'GC_CONCURRENT freed 272K, 7% free 10027K/10759K, paused 2ms+1ms, total 18ms\n'
p2207
sa(dp2208
g2
S'7305'
p2209
sg4
L1449728961606L
sg5
g365
sg7
S'##COMMON_io.rong.push.PushContext:sendConnectCommand'
p2210
sg9
S' 7305'
p2211
sg11
S'3800\n'
p2212
sa(dp2213
g2
S'7305'
p2214
sg4
L1449728961626L
sg5
g365
sg7
S'##COMMON_io.rong.push.PushReceiver:Action'
p2215
sg9
S' 7305'
p2216
sg11
S'io.rong.push.Connect\n'
p2217
sa(dp2218
g2
S'7305'
p2219
sg4
L1449728961636L
sg5
g416
sg7
S'PowerManager'
p2220
sg9
S' 7305'
p2221
sg11
S'wake:com.xdf.ucan/io.rong.push.PushService [acquire]\n'
p2222
sa(dp2223
g2
S'7305'
p2224
sg4
L1449728961636L
sg5
g365
sg7
S'##COMMON_io.rong.push.PushReceiver:ACTION_CONNECT'
p2225
sg9
S' 7305'
p2226
sg11
S'version is null, run connect\n'
p2227
sa(dp2228
g2
S'7305'
p2229
sg4
L1449728961636L
sg5
g365
sg7
S'##COMMON_java.lang.Class:PushService'
p2230
sg9
S' 7305'
p2231
sg11
S'PushService OnCreate\n'
p2232
sa(dp2233
g2
S'7305'
p2234
sg4
L1449728961636L
sg5
g365
sg7
S'PushService'
p2235
sg9
S' 7305'
p2236
sg11
S'PushService OnCreate\n'
p2237
sa(dp2238
g2
S'7305'
p2239
sg4
L1449728961636L
sg5
g6
sg7
S'PowerManager'
p2240
sg9
S' 7305'
p2241
sg11
S'acquire(long)/mToken = android.os.Binder@41739370 timeout = 60000\n'
p2242
sa(dp2243
g2
S'7305'
p2244
sg4
L1449728961636L
sg5
g6
sg7
S'PowerManager'
p2245
sg9
S' 7305'
p2246
sg11
S'acquireLocked/mFlags = 1 mToken = android.os.Binder@41739370 mTag = wake:com.xdf.ucan/io.rong.push.PushService mWorkSource = null\n'
p2247
sa(dp2248
g2
S'7305'
p2249
sg4
L1449728961636L
sg5
g6
sg7
S'PowerManager'
p2250
sg9
S' 7305'
p2251
sg11
S'acquireLocked/mRefCounted = false mCount = 0\n'
p2252
sa(dp2253
g2
S'7305'
p2254
sg4
L1449728961656L
sg5
g365
sg7
S'##COMMON_io.rong.push.PushService:CONNECT_CHECK'
p2255
sg9
S' 7323'
p2256
sg11
S'getRunningPushServiceVersion null\n'
p2257
sa(dp2258
g2
S'7305'
p2259
sg4
L1449728961656L
sg5
g365
sg7
S'##COMMON_io.rong.push.PushService.PushHandler:PushHandler'
p2260
sg9
S' 7323'
p2261
sg11
S'ConnectToServer,isClientConnected = false\n'
p2262
sa(dp2263
g2
S'7305'
p2264
sg4
L1449728961666L
sg5
g365
sg7
S'##COMMON_io.rong.push.PushService:DeviceId'
p2265
sg9
S' 7323'
p2266
sg11
S'99000456348309\n'
p2267
sa(dp2268
g2
S'7305'
p2269
sg4
L1449728961676L
sg5
g365
sg7
S'##COMMON_io.rong.push.PushService.PushHandler:PushHandler'
p2270
sg9
S' 7323'
p2271
sg11
S'the saved IP = 119.254.110.229:8604\n'
p2272
sa(dp2273
g2
S'7305'
p2274
sg4
L1449728961676L
sg5
g365
sg7
S'PushHandler'
p2275
sg9
S' 7323'
p2276
sg11
S'the saved time = 1449727825868current time = 1449728961677\n'
p2277
sa(dp2278
g2
S'7305'
p2279
sg4
L1449728961676L
sg5
g365
sg7
S'##COMMON_io.rong.push.PushService.PushHandler:PushHandler'
p2280
sg9
S' 7323'
p2281
sg11
S'ConnectToServer,use the saved IP, IP = 119.254.110.229:8604\n'
p2282
sa(dp2283
g2
S'7305'
p2284
sg4
L1449728961686L
sg5
g365
sg7
S'##COMMON_io.rong.push.PushService:getPhoneInformation.'
p2285
sg9
S' 7323'
p2286
sg11
S'the phone information is:YuLong|Coolpad 5891|16|WIFI|46003\n'
p2287
sa(dp2288
g2
S'7305'
p2289
sg4
L1449728961686L
sg5
g365
sg7
S'##COMMON_io.rong.push.PushClient:connect'
p2290
sg9
S' 7323'
p2291
sg11
S'phone info:YuLong|Coolpad 5891|16|WIFI|46003 push version:2.6\n'
p2292
sa(dp2293
g2
S'7305'
p2294
sg4
L1449728961696L
sg5
g365
sg7
S'##COMMON_io.rong.push.PushClient:connect'
p2295
sg9
S' 7323'
p2296
sg11
S'the socket is established\n'
p2297
sa(dp2298
g2
S'7305'
p2299
sg4
L1449728965416L
sg5
g365
sg7
S'##COMMON_io.rong.push.PushReceiver:Action'
p2300
sg9
S' 7305'
p2301
sg11
S'io.rong.push.Connect\n'
p2302
sa(dp2303
g2
S'7305'
p2304
sg4
L1449728965446L
sg5
g416
sg7
S'PowerManager'
p2305
sg9
S' 7305'
p2306
sg11
S'wake:com.xdf.ucan/io.rong.push.PushService [acquire]\n'
p2307
sa(dp2308
g2
S'7305'
p2309
sg4
L1449728965446L
sg5
g365
sg7
S'##COMMON_io.rong.push.PushReceiver:ACTION_CONNECT'
p2310
sg9
S' 7305'
p2311
sg11
S'version is null, run connect\n'
p2312
sa(dp2313
g2
S'7305'
p2314
sg4
L1449728965446L
sg5
g6
sg7
S'PowerManager'
p2315
sg9
S' 7305'
p2316
sg11
S'acquire(long)/mToken = android.os.Binder@417e9280 timeout = 60000\n'
p2317
sa(dp2318
g2
S'7305'
p2319
sg4
L1449728965446L
sg5
g6
sg7
S'PowerManager'
p2320
sg9
S' 7305'
p2321
sg11
S'acquireLocked/mFlags = 1 mToken = android.os.Binder@417e9280 mTag = wake:com.xdf.ucan/io.rong.push.PushService mWorkSource = null\n'
p2322
sa(dp2323
g2
S'7305'
p2324
sg4
L1449728965446L
sg5
g6
sg7
S'PowerManager'
p2325
sg9
S' 7305'
p2326
sg11
S'acquireLocked/mRefCounted = false mCount = 0\n'
p2327
sa(dp2328
g2
S'7305'
p2329
sg4
L1449728965706L
sg5
g843
sg7
S'System.err'
p2330
sg9
S' 7323'
p2331
sg11
S'java.net.SocketTimeoutException: failed to connect to /119.254.110.229 (port 8604) after 4000ms\n'
p2332
sa(dp2333
g2
S'7305'
p2334
sg4
L1449728965716L
sg5
g843
sg7
S'System.err'
p2335
sg9
S' 7323'
p2336
sg11
S'\tat libcore.io.IoBridge.connectErrno(IoBridge.java:159)\n'
p2337
sa(dp2338
g2
S'7305'
p2339
sg4
L1449728965716L
sg5
g843
sg7
S'System.err'
p2340
sg9
S' 7323'
p2341
sg11
S'\tat libcore.io.IoBridge.connect(IoBridge.java:112)\n'
p2342
sa(dp2343
g2
S'7305'
p2344
sg4
L1449728965716L
sg5
g843
sg7
S'System.err'
p2345
sg9
S' 7323'
p2346
sg11
S'\tat java.net.PlainSocketImpl.connect(PlainSocketImpl.java:192)\n'
p2347
sa(dp2348
g2
S'7305'
p2349
sg4
L1449728965716L
sg5
g843
sg7
S'System.err'
p2350
sg9
S' 7323'
p2351
sg11
S'\tat java.net.PlainSocketImpl.connect(PlainSocketImpl.java:563)\n'
p2352
sa(dp2353
g2
S'7305'
p2354
sg4
L1449728965716L
sg5
g843
sg7
S'System.err'
p2355
sg9
S' 7323'
p2356
sg11
S'\tat java.net.Socket.connect(Socket.java:832)\n'
p2357
sa(dp2358
g2
S'7305'
p2359
sg4
L1449728965716L
sg5
g843
sg7
S'System.err'
p2360
sg9
S' 7323'
p2361
sg11
S'\tat io.rong.push.PushClient.connect(PushClient.java:50)\n'
p2362
sa(dp2363
g2
S'7305'
p2364
sg4
L1449728965716L
sg5
g843
sg7
S'System.err'
p2365
sg9
S' 7323'
p2366
sg11
S'\tat io.rong.push.PushService$PushHandler.connect(PushService.java:272)\n'
p2367
sa(dp2368
g2
S'7305'
p2369
sg4
L1449728965716L
sg5
g843
sg7
S'System.err'
p2370
sg9
S' 7323'
p2371
sg11
S'\tat io.rong.push.PushService.onHandleIntent(PushService.java:139)\n'
p2372
sa(dp2373
g2
S'7305'
p2374
sg4
L1449728965726L
sg5
g843
sg7
S'System.err'
p2375
sg9
S' 7323'
p2376
sg11
S'\tat io.rong.push.PushService$ServiceHandler.handleMessage(PushService.java:104)\n'
p2377
sa(dp2378
g2
S'7305'
p2379
sg4
L1449728965726L
sg5
g843
sg7
S'System.err'
p2380
sg9
S' 7323'
p2381
sg11
S'\tat android.os.Handler.dispatchMessage(Handler.java:99)\n'
p2382
sa(dp2383
g2
S'7305'
p2384
sg4
L1449728965726L
sg5
g843
sg7
S'System.err'
p2385
sg9
S' 7323'
p2386
sg11
S'\tat android.os.Looper.loop(Looper.java:137)\n'
p2387
sa(dp2388
g2
S'7305'
p2389
sg4
L1449728965726L
sg5
g843
sg7
S'System.err'
p2390
sg9
S' 7323'
p2391
sg11
S'\tat android.os.HandlerThread.run(HandlerThread.java:60)\n'
p2392
sa(dp2393
g2
S'7305'
p2394
sg4
L1449728965736L
sg5
g365
sg7
S'##COMMON_io.rong.push.PushContext:Heartbeat'
p2395
sg9
S' 7323'
p2396
sg11
S'start_next\n'
p2397
sa(dp2398
g2
S'7305'
p2399
sg4
L1449728965746L
sg5
g416
sg7
S'PowerManager'
p2400
sg9
S' 7323'
p2401
sg11
S'wake:com.xdf.ucan/io.rong.push.PushService [release]\n'
p2402
sa(dp2403
g2
S'7305'
p2404
sg4
L1449728965746L
sg5
g6
sg7
S'PowerManager'
p2405
sg9
S' 7323'
p2406
sg11
S'release/flags = 0 mToken = android.os.Binder@41739370 mTag = wake:com.xdf.ucan/io.rong.push.PushService mWorkSource = null\n'
p2407
sa(dp2408
g2
S'7305'
p2409
sg4
L1449728965746L
sg5
g6
sg7
S'PowerManager'
p2410
sg9
S' 7323'
p2411
sg11
S'release/mRefCounted = false mCount = 0\n'
p2412
sa(dp2413
g2
S'7305'
p2414
sg4
L1449728965756L
sg5
g365
sg7
S'##COMMON_io.rong.push.PushService:CONNECT_CHECK'
p2415
sg9
S' 7323'
p2416
sg11
S'getRunningPushServiceVersion null\n'
p2417
sa(dp2418
g2
S'7305'
p2419
sg4
L1449728965756L
sg5
g365
sg7
S'##COMMON_io.rong.push.PushService.PushHandler:PushHandler'
p2420
sg9
S' 7323'
p2421
sg11
S'ConnectToServer,isClientConnected = false\n'
p2422
sa(dp2423
g2
S'7305'
p2424
sg4
L1449728965766L
sg5
g365
sg7
S'##COMMON_io.rong.push.PushService:DeviceId'
p2425
sg9
S' 7323'
p2426
sg11
S'99000456348309\n'
p2427
sa(dp2428
g2
S'7305'
p2429
sg4
L1449728965766L
sg5
g365
sg7
S'##COMMON_io.rong.push.PushService.PushHandler:PushHandler'
p2430
sg9
S' 7323'
p2431
sg11
S'the saved IP = 119.254.110.229:8604\n'
p2432
sa(dp2433
g2
S'7305'
p2434
sg4
L1449728965766L
sg5
g365
sg7
S'PushHandler'
p2435
sg9
S' 7323'
p2436
sg11
S'the saved time = 1449727825868current time = 1449728965768\n'
p2437
sa(dp2438
g2
S'7305'
p2439
sg4
L1449728965766L
sg5
g365
sg7
S'##COMMON_io.rong.push.PushService.PushHandler:PushHandler'
p2440
sg9
S' 7323'
p2441
sg11
S'ConnectToServer,use the saved IP, IP = 119.254.110.229:8604\n'
p2442
sa(dp2443
g2
S'7305'
p2444
sg4
L1449728965766L
sg5
g365
sg7
S'##COMMON_io.rong.push.PushService:getPhoneInformation.'
p2445
sg9
S' 7323'
p2446
sg11
S'the phone information is:YuLong|Coolpad 5891|16|WIFI|46003\n'
p2447
sa(dp2448
g2
S'7305'
p2449
sg4
L1449728965766L
sg5
g365
sg7
S'##COMMON_io.rong.push.PushClient:connect'
p2450
sg9
S' 7323'
p2451
sg11
S'phone info:YuLong|Coolpad 5891|16|WIFI|46003 push version:2.6\n'
p2452
sa(dp2453
g2
S'7305'
p2454
sg4
L1449728965766L
sg5
g365
sg7
S'##COMMON_io.rong.push.PushClient:connect'
p2455
sg9
S' 7323'
p2456
sg11
S'the socket is established\n'
p2457
sa(dp2458
g2
S'7305'
p2459
sg4
L1449728969776L
sg5
g843
sg7
S'System.err'
p2460
sg9
S' 7323'
p2461
sg11
S'java.net.SocketTimeoutException: failed to connect to /119.254.110.229 (port 8604) after 4000ms\n'
p2462
sa(dp2463
g2
S'7305'
p2464
sg4
L1449728969776L
sg5
g843
sg7
S'System.err'
p2465
sg9
S' 7323'
p2466
sg11
S'\tat libcore.io.IoBridge.connectErrno(IoBridge.java:159)\n'
p2467
sa(dp2468
g2
S'7305'
p2469
sg4
L1449728969786L
sg5
g843
sg7
S'System.err'
p2470
sg9
S' 7323'
p2471
sg11
S'\tat libcore.io.IoBridge.connect(IoBridge.java:112)\n'
p2472
sa(dp2473
g2
S'7305'
p2474
sg4
L1449728969786L
sg5
g843
sg7
S'System.err'
p2475
sg9
S' 7323'
p2476
sg11
S'\tat java.net.PlainSocketImpl.connect(PlainSocketImpl.java:192)\n'
p2477
sa(dp2478
g2
S'7305'
p2479
sg4
L1449728969786L
sg5
g843
sg7
S'System.err'
p2480
sg9
S' 7323'
p2481
sg11
S'\tat java.net.PlainSocketImpl.connect(PlainSocketImpl.java:563)\n'
p2482
sa(dp2483
g2
S'7305'
p2484
sg4
L1449728969796L
sg5
g843
sg7
S'System.err'
p2485
sg9
S' 7323'
p2486
sg11
S'\tat java.net.Socket.connect(Socket.java:832)\n'
p2487
sa(dp2488
g2
S'7305'
p2489
sg4
L1449728969796L
sg5
g843
sg7
S'System.err'
p2490
sg9
S' 7323'
p2491
sg11
S'\tat io.rong.push.PushClient.connect(PushClient.java:50)\n'
p2492
sa(dp2493
g2
S'7305'
p2494
sg4
L1449728969796L
sg5
g843
sg7
S'System.err'
p2495
sg9
S' 7323'
p2496
sg11
S'\tat io.rong.push.PushService$PushHandler.connect(PushService.java:272)\n'
p2497
sa(dp2498
g2
S'7305'
p2499
sg4
L1449728969796L
sg5
g843
sg7
S'System.err'
p2500
sg9
S' 7323'
p2501
sg11
S'\tat io.rong.push.PushService.onHandleIntent(PushService.java:139)\n'
p2502
sa(dp2503
g2
S'7305'
p2504
sg4
L1449728969796L
sg5
g843
sg7
S'System.err'
p2505
sg9
S' 7323'
p2506
sg11
S'\tat io.rong.push.PushService$ServiceHandler.handleMessage(PushService.java:104)\n'
p2507
sa(dp2508
g2
S'7305'
p2509
sg4
L1449728969796L
sg5
g843
sg7
S'System.err'
p2510
sg9
S' 7323'
p2511
sg11
S'\tat android.os.Handler.dispatchMessage(Handler.java:99)\n'
p2512
sa(dp2513
g2
S'7305'
p2514
sg4
L1449728969806L
sg5
g843
sg7
S'System.err'
p2515
sg9
S' 7323'
p2516
sg11
S'\tat android.os.Looper.loop(Looper.java:137)\n'
p2517
sa(dp2518
g2
S'7305'
p2519
sg4
L1449728969806L
sg5
g843
sg7
S'System.err'
p2520
sg9
S' 7323'
p2521
sg11
S'\tat android.os.HandlerThread.run(HandlerThread.java:60)\n'
p2522
sa(dp2523
g2
S'7305'
p2524
sg4
L1449728969806L
sg5
g365
sg7
S'##COMMON_io.rong.push.PushContext:Heartbeat'
p2525
sg9
S' 7323'
p2526
sg11
S'start_next\n'
p2527
sa(dp2528
g2
S'7305'
p2529
sg4
L1449728969826L
sg5
g416
sg7
S'PowerManager'
p2530
sg9
S' 7323'
p2531
sg11
S'wake:com.xdf.ucan/io.rong.push.PushService [release]\n'
p2532
sa(dp2533
g2
S'7305'
p2534
sg4
L1449728969826L
sg5
g6
sg7
S'PowerManager'
p2535
sg9
S' 7323'
p2536
sg11
S'release/flags = 0 mToken = android.os.Binder@417e9280 mTag = wake:com.xdf.ucan/io.rong.push.PushService mWorkSource = null\n'
p2537
sa(dp2538
g2
S'7305'
p2539
sg4
L1449728969826L
sg5
g6
sg7
S'PowerManager'
p2540
sg9
S' 7323'
p2541
sg11
S'release/mRefCounted = false mCount = 0\n'
p2542
sa.