(lp0
(dp1
S'processID'
p2
S'5999'
p3
sS'SyscTime'
p4
L1449398572831L
sS'priority'
p5
S'I'
p6
sS'tag'
p7
S'Log_level_control'
p8
sS'threadID'
p9
S' 5999'
p10
sS'message'
p11
S'YWW4\n'
p12
sa(dp13
g2
S'5983'
p14
sg4
L1449398573021L
sg5
S'E'
p15
sg7
S'linker  '
p16
sg9
S' 6009'
p17
sg11
S'"app_process": ignoring 2-entry DT_PREINIT_ARRAY in shared library!\n'
p18
sa(dp19
g2
S'5983'
p20
sg4
L1449398573111L
sg5
S'W'
p21
sg7
S'dalvikvm'
p22
sg9
S' 6017'
p23
sg11
S'VFY: unable to resolve interface method 51840: Lcom/taobao/tao/log/ITLogController;.getLogLevel (Ljava/lang/String;)Lcom/taobao/tao/log/LogLevel;\n'
p24
sa(dp25
g2
S'5983'
p26
sg4
L1449398573111L
sg5
g21
sg7
S'dalvikvm'
p27
sg9
S' 6017'
p28
sg11
S'VFY: unable to resolve static method 51866: Lcom/taobao/tao/log/TLog;.logv (Ljava/lang/String;Ljava/lang/String;)V\n'
p29
sa(dp30
g2
S'5983'
p31
sg4
L1449398573281L
sg5
g21
sg7
S'dalvikvm'
p32
sg9
S' 6042'
p33
sg11
S'VFY: unable to resolve virtual method 58260: Ljava/lang/ReflectiveOperationException;.printStackTrace ()V\n'
p34
sa(dp35
g2
S'5983'
p36
sg4
L1449398573291L
sg5
g21
sg7
S'dalvikvm'
p37
sg9
S' 6042'
p38
sg11
S'VFY: unable to resolve static method 51702: Lcom/taobao/statistic/TBS$Adv;.forceUpload ()V\n'
p39
sa(dp40
g2
S'5983'
p41
sg4
L1449398573301L
sg5
g21
sg7
S'awcn    '
p42
sg9
S' 6051'
p43
sg11
S' StrategyCenter not initialized isInited:false\n'
p44
sa(dp45
g2
S'5983'
p46
sg4
L1449398573311L
sg5
g21
sg7
S'dalvikvm'
p47
sg9
S' 6039'
p48
sg11
S'VFY: unable to resolve static field 184 (SUPPORTED_ABIS) in Landroid/os/Build;\n'
p49
sa(dp50
g2
S'5983'
p51
sg4
L1449398573311L
sg5
g21
sg7
S'ConfigContainerAdapter'
p52
sg9
S' 6045'
p53
sg11
S'[initService]context is null.initService error\n'
p54
sa(dp55
g2
S'5983'
p56
sg4
L1449398573351L
sg5
g21
sg7
S'dalvikvm'
p57
sg9
S' 6042'
p58
sg11
S'VFY: unable to resolve virtual method 58260: Ljava/lang/ReflectiveOperationException;.printStackTrace ()V\n'
p59
sa(dp60
g2
S'5983'
p61
sg4
L1449398573671L
sg5
g21
sg7
S'dalvikvm'
p62
sg9
S' 5983'
p63
sg11
S'VFY: unable to resolve virtual method 58260: Ljava/lang/ReflectiveOperationException;.printStackTrace ()V\n'
p64
sa(dp65
g2
S'5983'
p66
sg4
L1449398573981L
sg5
g21
sg7
S'dalvikvm'
p67
sg9
S' 5983'
p68
sg11
S'VFY: unable to resolve virtual method 60563: Lmtopsdk/mtop/intf/MtopBuilder;.get ()Lmtopsdk/mtop/domain/MtopResponse;\n'
p69
sa(dp70
g2
S'6116'
p71
sg4
L1449398574161L
sg5
g15
sg7
S'db      '
p72
sg9
S' 6134'
p73
sg11
S'into---[initALog]\n'
p74
sa(dp75
g2
S'6116'
p76
sg4
L1449398574311L
sg5
g21
sg7
S'dalvikvm'
p77
sg9
S' 6134'
p78
sg11
S'VFY: unable to resolve interface method 51840: Lcom/taobao/tao/log/ITLogController;.getLogLevel (Ljava/lang/String;)Lcom/taobao/tao/log/LogLevel;\n'
p79
sa(dp80
g2
S'6116'
p81
sg4
L1449398574311L
sg5
g21
sg7
S'dalvikvm'
p82
sg9
S' 6134'
p83
sg11
S'VFY: unable to resolve static method 51866: Lcom/taobao/tao/log/TLog;.logv (Ljava/lang/String;Ljava/lang/String;)V\n'
p84
sa(dp85
g2
S'6116'
p86
sg4
L1449398574331L
sg5
g15
sg7
S'linker  '
p87
sg9
S' 6159'
p88
sg11
S'"app_process": ignoring 2-entry DT_PREINIT_ARRAY in shared library!\n'
p89
sa(dp90
g2
S'6116'
p91
sg4
L1449398574531L
sg5
g21
sg7
S'awcn    '
p92
sg9
S' 6157'
p93
sg11
S' \xe5\xbd\x93\xe5\x89\x8d\xe8\xbf\x9b\xe7\xa8\x8b\xe4\xb8\x8d\xe6\x98\xaf\xe4\xb8\xbb\xe8\xbf\x9b\xe7\xa8\x8b\xef\xbc\x8c\xe4\xb8\x8d\xe5\x88\x9d\xe5\xa7\x8b\xe5\x8c\x96SessionCenter\n'
p94
sa(dp95
g2
S'6116'
p96
sg4
L1449398575511L
sg5
g21
sg7
S'dalvikvm'
p97
sg9
S' 6145'
p98
sg11
S'VFY: unable to resolve static field 184 (SUPPORTED_ABIS) in Landroid/os/Build;\n'
p99
sa(dp100
g2
S'6116'
p101
sg4
L1449398575771L
sg5
g21
sg7
S'Taobao  '
p102
sg9
S' 6199'
p103
sg11
S'getPackage Name\n'
p104
sa(dp105
g2
S'6116'
p106
sg4
L1449398575821L
sg5
g21
sg7
S'agoo.PushService'
p107
sg9
S' 6116'
p108
sg11
S'[create] >>> agoo system is creating,pack= >>>com.taobao.ishopping,time=2015-12-06 18:42:55\n'
p109
sa(dp110
g2
S'6116'
p111
sg4
L1449398575821L
sg5
g21
sg7
S'agoo.ProcessUtils'
p112
sg9
S' 6116'
p113
sg11
S'[checkAndRenewPidFile] /data/data/com.taobao.ishopping/files/agoo.pid\n'
p114
sa(dp115
g2
S'6116'
p116
sg4
L1449398575841L
sg5
g21
sg7
S'agoo.SoManager'
p117
sg9
S' 6225'
p118
sg11
S'[createAlarm] time is daytime, wakeup cpu for keeping connecntion\n'
p119
sa(dp120
g2
S'6116'
p121
sg4
L1449398575911L
sg5
g21
sg7
S'agoo.SoManager'
p122
sg9
S' 6225'
p123
sg11
S'[copyBinToFiles] open assets from = armeabi/DaemonServer\n'
p124
sa(dp125
g2
S'6116'
p126
sg4
L1449398575941L
sg5
g15
sg7
S'org.android.agoo.proc2.SoManager'
p127
sg9
S' 6225'
p128
sg11
S'pidfile:/proc/12345\n'
p129
sa(dp130
g2
S'6116'
p131
sg4
L1449398575941L
sg5
g21
sg7
S'TAG.    '
p132
sg9
S' 6225'
p133
sg11
S'chmod 500 /data/data/com.taobao.ishopping/files/DaemonServer\n'
p134
sa(dp135
g2
S'6116'
p136
sg4
L1449398575961L
sg5
g21
sg7
S'TAG.    '
p137
sg9
S' 6225'
p138
sg11
S'/data/data/com.taobao.ishopping/files/DaemonServer -s "/data/data/com.taobao.ishopping/lib/" -n "runServer" -p "startservice -a com.taobao.ishopping.intent.action.COCKROACH --es cockroach cockroach-PPreotect --es pack com.taobao.ishopping --user 0" -f "/data/data/com.taobao.ishopping" -t "600" -c "agoo.pid" -P /data/data/com.taobao.ishopping -K 1009527 -U tb_android_daemon_1.1.2 -L http://agoodm.m.taobao.com/agoo/report -D %7B%22package%22%3A%22com.taobao.ishopping%22%2C%22appKey%22%3A%2223207852%22%2C%22utdid%22%3A%22VmJwdu0WwyMDAMk9TVoPXEv1%22%2C%22sdkVersion%22%3A%2220150615%22%7D -I agoodm.m.taobao.com -O 80 -T -Z \n'
p139
sa(dp140
g2
S'6116'
p141
sg4
L1449398575981L
sg5
g21
sg7
S'agoo.SoManager'
p142
sg9
S' 6225'
p143
sg11
S'[lauchIt] /data/data/com.taobao.ishopping/files/DaemonServer -s "/data/data/com.taobao.ishopping/lib/" -n "runServer" -p "startservice -a com.taobao.ishopping.intent.action.COCKROACH --es cockroach cockroach-PPreotect --es pack com.taobao.ishopping --user 0" -f "/data/data/com.taobao.ishopping" -t "600" -c "agoo.pid" -P /data/data/com.taobao.ishopping -K 1009527 -U tb_android_daemon_1.1.2 -L http://agoodm.m.taobao.com/agoo/report -D %7B%22package%22%3A%22com.taobao.ishopping%22%2C%22appKey%22%3A%2223207852%22%2C%22utdid%22%3A%22VmJwdu0WwyMDAMk9TVoPXEv1%22%2C%22sdkVersion%22%3A%2220150615%22%7D -I agoodm.m.taobao.com -O 80 -T -Z \n'
p144
sa(dp145
g2
S'6116'
p146
sg4
L1449398579211L
sg5
g15
sg7
S'SQLiteLog'
p147
sg9
S' 6141'
p148
sg11
S'(5) statement aborts at 1: [PRAGMA journal_mode=PERSIST] \n'
p149
sa(dp150
g2
S'6116'
p151
sg4
L1449398579211L
sg5
g21
sg7
S'SQLiteConnection'
p152
sg9
S' 6141'
p153
sg11
S"Could not change the database journal mode of '/data/data/com.taobao.ishopping/databases/usertrack.db' from 'wal' to 'PERSIST' because the database is locked.  This usually means that there are other open connections to the database which prevents the database from enabling or disabling write-ahead logging mode.  Proceeding without changing the journal mode.\n"
p154
sa(dp155
g2
S'6116'
p156
sg4
L1449398585201L
sg5
g21
sg7
S'Taobao  '
p157
sg9
S' 6226'
p158
sg11
S'getPackage Name\n'
p159
sa(dp160
g2
S'5983'
p161
sg4
L1449398588801L
sg5
g21
sg7
S'dalvikvm'
p162
sg9
S' 5983'
p163
sg11
S'VFY: unable to resolve virtual method 703: Landroid/content/res/TypedArray;.getChangingConfigurations ()I\n'
p164
sa(dp165
g2
S'5983'
p166
sg4
L1449398588801L
sg5
g21
sg7
S'dalvikvm'
p167
sg9
S' 5983'
p168
sg11
S'VFY: unable to resolve virtual method 725: Landroid/content/res/TypedArray;.getType (I)I\n'
p169
sa(dp170
g2
S'5983'
p171
sg4
L1449398589121L
sg5
g21
sg7
S'LoginStatus'
p172
sg9
S' 5983'
p173
sg11
S'reset login status\n'
p174
sa(dp175
g2
S'5983'
p176
sg4
L1449398589581L
sg5
g15
sg7
S'db      '
p177
sg9
S' 6167'
p178
sg11
S'into---[initALog]\n'
p179
sa(dp180
g2
S'5983'
p181
sg4
L1449398591001L
sg5
g15
sg7
S'doraemon:TraceId'
p182
sg9
S' 6433'
p183
sg11
S'an thread has traceid,but cache loss it\n'
p184
sa(dp185
g2
S'5983'
p186
sg4
L1449398591011L
sg5
g15
sg7
S'doraemon:TraceId'
p187
sg9
S' 6434'
p188
sg11
S'an thread has traceid,but cache loss it\n'
p189
sa(dp190
g2
S'5983'
p191
sg4
L1449398591081L
sg5
g15
sg7
S'doraemon:TraceId'
p192
sg9
S' 6435'
p193
sg11
S'an thread has traceid,but cache loss it\n'
p194
sa(dp195
g2
S'5983'
p196
sg4
L1449398593951L
sg5
g21
sg7
S'dalvikvm'
p197
sg9
S' 5983'
p198
sg11
S'VFY: unable to resolve static method 16952: Landroid/webkit/WebView;.setWebContentsDebuggingEnabled (Z)V\n'
p199
sa(dp200
g2
S'5983'
p201
sg4
L1449398593991L
sg5
g21
sg7
S'dalvikvm'
p202
sg9
S' 5983'
p203
sg11
S'VFY: unable to resolve static method 16952: Landroid/webkit/WebView;.setWebContentsDebuggingEnabled (Z)V\n'
p204
sa(dp205
g2
S'5983'
p206
sg4
L1449398593991L
sg5
g21
sg7
S'dalvikvm'
p207
sg9
S' 5983'
p208
sg11
S'VFY: unable to resolve virtual method 16922: Landroid/webkit/WebView;.evaluateJavascript (Ljava/lang/String;Landroid/webkit/ValueCallback;)V\n'
p209
sa(dp210
g2
S'5983'
p211
sg4
L1449398594081L
sg5
g15
sg7
S'external/chromium/net/disk_cache/stat_hub.cc'
p212
sg9
S' 6477'
p213
sg11
S"netstack:  STAT_HUB - App com.taobao.ishopping isn't supported\n"
p214
sa(dp215
g2
S'5983'
p216
sg4
L1449398595971L
sg5
g15
sg7
S'Web Console'
p217
sg9
S' 5983'
p218
sg11
S"Uncaught TypeError: Cannot call method 'onSuccess' of undefined at null:1\n"
p219
sa(dp220
g2
S'5983'
p221
sg4
L1449398598831L
sg5
g15
sg7
S'webcoreglue'
p222
sg9
S' 6477'
p223
sg11
S'Should not happen: no rect-based-test nodes found\n'
p224
sa(dp225
g2
S'5983'
p226
sg4
L1449398601511L
sg5
g15
sg7
S'Web Console'
p227
sg9
S' 5983'
p228
sg11
S"Uncaught TypeError: Cannot call method 'onSuccess' of undefined at null:1\n"
p229
sa(dp230
g2
S'5983'
p231
sg4
L1449398604111L
sg5
g15
sg7
S'Web Console'
p232
sg9
S' 5983'
p233
sg11
S"Uncaught TypeError: Cannot read property 'hash' of null at http://g.alicdn.com/??tb/mguang/2.3.0/p/publish/index.js:1\n"
p234
sa(dp235
g2
S'5983'
p236
sg4
L1449398657896L
sg5
g15
sg7
S'external/chromium/net/host_resolver_helper/dyn_lib_loader.cc'
p237
sg9
S' 6264'
p238
sg11
S'netstack: LIB_MGR - Error loading lib qnet-plugin.so\n'
p239
sa(dp240
g2
S'5983'
p241
sg4
L1449398669126L
sg5
g15
sg7
S'Web Console'
p242
sg9
S' 5983'
p243
sg11
S"Uncaught TypeError: Cannot call method 'onSuccess' of undefined at null:1\n"
p244
sa(dp245
g2
S'5983'
p246
sg4
L1449398681816L
sg5
g15
sg7
S'doraemon:TraceId'
p247
sg9
S' 6434'
p248
sg11
S'an thread has traceid,but cache loss it\n'
p249
sa(dp250
g2
S'5983'
p251
sg4
L1449398681886L
sg5
g15
sg7
S'doraemon:TraceId'
p252
sg9
S' 6435'
p253
sg11
S'an thread has traceid,but cache loss it\n'
p254
sa(dp255
g2
S'5983'
p256
sg4
L1449398690766L
sg5
g15
sg7
S'Web Console'
p257
sg9
S' 5983'
p258
sg11
S"Uncaught TypeError: Cannot call method 'onSuccess' of undefined at null:1\n"
p259
sa(dp260
g2
S'5983'
p261
sg4
L1449398691646L
sg5
g15
sg7
S'Web Console'
p262
sg9
S' 5983'
p263
sg11
S"Uncaught TypeError: Cannot read property 'hash' of null at http://g.alicdn.com/??tb/mguang/2.3.0/p/publish/index.js:1\n"
p264
sa(dp265
g2
S'5983'
p266
sg4
L1449398695856L
sg5
g15
sg7
S'Web Console'
p267
sg9
S' 5983'
p268
sg11
S"Uncaught TypeError: Cannot read property 'hash' of null at http://g.alicdn.com/??tb/mguang/2.3.0/p/publish/index.js:1\n"
p269
sa(dp270
g2
S'5983'
p271
sg4
L1449398698856L
sg5
g15
sg7
S'Web Console'
p272
sg9
S' 5983'
p273
sg11
S"Uncaught TypeError: Cannot call method 'onSuccess' of undefined at null:1\n"
p274
sa(dp275
g2
S'5983'
p276
sg4
L1449398700386L
sg5
g15
sg7
S'webcoreglue'
p277
sg9
S' 6477'
p278
sg11
S'Should not happen: no rect-based-test nodes found\n'
p279
sa(dp280
g2
S'5983'
p281
sg4
L1449398713176L
sg5
g15
sg7
S'doraemon:TraceId'
p282
sg9
S' 6422'
p283
sg11
S'an thread has traceid,but cache loss it\n'
p284
sa(dp285
g2
S'5983'
p286
sg4
L1449398748916L
sg5
g15
sg7
S'Web Console'
p287
sg9
S' 5983'
p288
sg11
S"Uncaught TypeError: Cannot call method 'onSuccess' of undefined at null:1\n"
p289
sa(dp290
g2
S'5983'
p291
sg4
L1449398749556L
sg5
g15
sg7
S'Web Console'
p292
sg9
S' 5983'
p293
sg11
S"Uncaught TypeError: Cannot read property 'hash' of null at http://g.alicdn.com/??tb/mguang/2.3.0/p/publish/index.js:1\n"
p294
sa(dp295
g2
S'5983'
p296
sg4
L1449398753706L
sg5
g15
sg7
S'Web Console'
p297
sg9
S' 5983'
p298
sg11
S"Uncaught TypeError: Cannot read property 'hash' of null at http://g.alicdn.com/??tb/mguang/2.3.0/p/publish/index.js:1\n"
p299
sa(dp300
g2
S'5983'
p301
sg4
L1449398763486L
sg5
g15
sg7
S'Web Console'
p302
sg9
S' 5983'
p303
sg11
S"Uncaught TypeError: Cannot call method 'onSuccess' of undefined at null:1\n"
p304
sa(dp305
g2
S'5983'
p306
sg4
L1449398773716L
sg5
g15
sg7
S'Web Console'
p307
sg9
S' 5983'
p308
sg11
S"Uncaught TypeError: Cannot call method 'onSuccess' of undefined at null:1\n"
p309
sa(dp310
g2
S'5983'
p311
sg4
L1449398777736L
sg5
g15
sg7
S'webcoreglue'
p312
sg9
S' 6477'
p313
sg11
S'Should not happen: no rect-based-test nodes found\n'
p314
sa(dp315
g2
S'5983'
p316
sg4
L1449398788716L
sg5
g15
sg7
S'Web Console'
p317
sg9
S' 5983'
p318
sg11
S"Uncaught TypeError: Cannot call method 'onSuccess' of undefined at null:1\n"
p319
sa(dp320
g2
S'5983'
p321
sg4
L1449398808036L
sg5
g15
sg7
S'Web Console'
p322
sg9
S' 5983'
p323
sg11
S"Uncaught TypeError: Cannot call method 'onSuccess' of undefined at null:1\n"
p324
sa(dp325
g2
S'5983'
p326
sg4
L1449398815146L
sg5
g15
sg7
S'doraemon:TraceId'
p327
sg9
S' 6434'
p328
sg11
S'an thread has traceid,but cache loss it\n'
p329
sa(dp330
g2
S'5983'
p331
sg4
L1449398818096L
sg5
g15
sg7
S'Web Console'
p332
sg9
S' 5983'
p333
sg11
S"Uncaught TypeError: Cannot call method 'onSuccess' of undefined at null:1\n"
p334
sa(dp335
g2
S'5983'
p336
sg4
L1449398818786L
sg5
g15
sg7
S'Web Console'
p337
sg9
S' 5983'
p338
sg11
S"Uncaught TypeError: Cannot read property 'hash' of null at http://g.alicdn.com/??tb/mguang/2.3.0/p/publish/index.js:1\n"
p339
sa(dp340
g2
S'5983'
p341
sg4
L1449398836336L
sg5
g15
sg7
S'Web Console'
p342
sg9
S' 5983'
p343
sg11
S"Uncaught TypeError: Cannot read property 'hash' of null at http://g.alicdn.com/??tb/mguang/2.3.0/p/publish/index.js:1\n"
p344
sa(dp345
g2
S'5983'
p346
sg4
L1449398841966L
sg5
g21
sg7
S'dalvikvm'
p347
sg9
S' 6153'
p348
sg11
S'threadid=64: thread exiting with uncaught exception (group=0x41ba4940)\n'
p349
sa(dp350
g2
S'5983'
p351
sg4
L1449398841966L
sg5
g21
sg7
S'System.err'
p352
sg9
S' 6153'
p353
sg11
S'java.lang.NullPointerException\n'
p354
sa(dp355
g2
S'5983'
p356
sg4
L1449398841966L
sg5
g21
sg7
S'System.err'
p357
sg9
S' 6153'
p358
sg11
S'\tat android.app.Instrumentation.finish(Instrumentation.java:190)\n'
p359
sa(dp360
g2
S'5983'
p361
sg4
L1449398841966L
sg5
g21
sg7
S'System.err'
p362
sg9
S' 6153'
p363
sg11
S'\tat cn.edu.nju.ise.kikandroid.AUTInstrument.quitInstr(AUTInstrument.java:195)\n'
p364
sa(dp365
g2
S'5983'
p366
sg4
L1449398841966L
sg5
g21
sg7
S'System.err'
p367
sg9
S' 6153'
p368
sg11
S'\tat cn.edu.nju.ise.kikandroid.AUTInstrument.startServer(AUTInstrument.java:161)\n'
p369
sa(dp370
g2
S'5983'
p371
sg4
L1449398841966L
sg5
g21
sg7
S'System.err'
p372
sg9
S' 6153'
p373
sg11
S'\tat cn.edu.nju.ise.kikandroid.AUTInstrument$1.run(AUTInstrument.java:107)\n'
p374
sa(dp375
g2
S'5983'
p376
sg4
L1449398841966L
sg5
g21
sg7
S'System.err'
p377
sg9
S' 6153'
p378
sg11
S'\tat java.lang.Thread.run(Thread.java:841)\n'
p379
sa(dp380
g2
S'8554'
p381
sg4
L1449398874206L
sg5
g15
sg7
S'linker  '
p382
sg9
S' 8574'
p383
sg11
S'"app_process": ignoring 2-entry DT_PREINIT_ARRAY in shared library!\n'
p384
sa(dp385
g2
S'8554'
p386
sg4
L1449398874356L
sg5
g21
sg7
S'dalvikvm'
p387
sg9
S' 8582'
p388
sg11
S'VFY: unable to resolve interface method 51840: Lcom/taobao/tao/log/ITLogController;.getLogLevel (Ljava/lang/String;)Lcom/taobao/tao/log/LogLevel;\n'
p389
sa(dp390
g2
S'8554'
p391
sg4
L1449398874356L
sg5
g21
sg7
S'dalvikvm'
p392
sg9
S' 8582'
p393
sg11
S'VFY: unable to resolve static method 51866: Lcom/taobao/tao/log/TLog;.logv (Ljava/lang/String;Ljava/lang/String;)V\n'
p394
sa(dp395
g2
S'8554'
p396
sg4
L1449398874436L
sg5
g21
sg7
S'dalvikvm'
p397
sg9
S' 8607'
p398
sg11
S'VFY: unable to resolve virtual method 58260: Ljava/lang/ReflectiveOperationException;.printStackTrace ()V\n'
p399
sa(dp400
g2
S'8554'
p401
sg4
L1449398874456L
sg5
g21
sg7
S'ConfigContainerAdapter'
p402
sg9
S' 8616'
p403
sg11
S'[initService]context is null.initService error\n'
p404
sa(dp405
g2
S'8554'
p406
sg4
L1449398874456L
sg5
g21
sg7
S'dalvikvm'
p407
sg9
S' 8607'
p408
sg11
S'VFY: unable to resolve static method 51702: Lcom/taobao/statistic/TBS$Adv;.forceUpload ()V\n'
p409
sa(dp410
g2
S'8554'
p411
sg4
L1449398874466L
sg5
g21
sg7
S'awcn    '
p412
sg9
S' 8619'
p413
sg11
S' StrategyCenter not initialized isInited:false\n'
p414
sa(dp415
g2
S'8554'
p416
sg4
L1449398874486L
sg5
g21
sg7
S'dalvikvm'
p417
sg9
S' 8605'
p418
sg11
S'VFY: unable to resolve static field 184 (SUPPORTED_ABIS) in Landroid/os/Build;\n'
p419
sa(dp420
g2
S'8554'
p421
sg4
L1449398874496L
sg5
g21
sg7
S'dalvikvm'
p422
sg9
S' 8607'
p423
sg11
S'VFY: unable to resolve virtual method 58260: Ljava/lang/ReflectiveOperationException;.printStackTrace ()V\n'
p424
sa(dp425
g2
S'8554'
p426
sg4
L1449398874556L
sg5
g15
sg7
S'doraemon:TraceId'
p427
sg9
S' 8639'
p428
sg11
S'an thread has traceid,but cache loss it\n'
p429
sa(dp430
g2
S'8554'
p431
sg4
L1449398874576L
sg5
g15
sg7
S'doraemon:TraceId'
p432
sg9
S' 8640'
p433
sg11
S'an thread has traceid,but cache loss it\n'
p434
sa(dp435
g2
S'8554'
p436
sg4
L1449398875016L
sg5
g15
sg7
S'doraemon:TraceId'
p437
sg9
S' 8670'
p438
sg11
S'an thread has traceid,but cache loss it\n'
p439
sa(dp440
g2
S'8554'
p441
sg4
L1449398875046L
sg5
g15
sg7
S'doraemon:TraceId'
p442
sg9
S' 8671'
p443
sg11
S'an thread has traceid,but cache loss it\n'
p444
sa.