(lp0
(dp1
S'processID'
p2
S'27852'
p3
sS'SyscTime'
p4
L1449732875456L
sS'priority'
p5
S'E'
p6
sS'tag'
p7
S'Trace   '
p8
sS'threadID'
p9
S'27852'
p10
sS'message'
p11
S'error opening trace file: No such file or directory (2)\n'
p12
sa(dp13
g2
S'27852'
p14
sg4
L1449732875476L
sg5
S'W'
p15
sg7
S'dalvikvm'
p16
sg9
S'27852'
p17
sg11
S"Refusing to reopen boot DEX '/system/framework/hwframework.jar'\n"
p18
sa(dp19
g2
S'27852'
p20
sg4
L1449732875596L
sg5
g6
sg7
S'dalvikvm'
p21
sg9
S'27852'
p22
sg11
S'GC_FOR_ALLOC freed 62K, 6% free 8249K/8771K, paused 13ms, total 13ms\n'
p23
sa(dp24
g2
S'27852'
p25
sg4
L1449732875626L
sg5
g6
sg7
S'dalvikvm'
p26
sg9
S'27856'
p27
sg11
S'GC_CONCURRENT freed 1K, 5% free 12033K/12615K, paused 2ms+1ms, total 13ms\n'
p28
sa(dp29
g2
S'27852'
p30
sg4
L1449732875786L
sg5
g6
sg7
S'dalvikvm'
p31
sg9
S'27852'
p32
sg11
S'GC_FOR_ALLOC freed 0K, 5% free 12033K/12615K, paused 14ms, total 14ms\n'
p33
sa(dp34
g2
S'27852'
p35
sg4
L1449732875846L
sg5
g6
sg7
S'dalvikvm'
p36
sg9
S'27856'
p37
sg11
S'GC_CONCURRENT freed 0K, 4% free 20551K/21191K, paused 12ms+3ms, total 28ms\n'
p38
sa(dp39
g2
S'27875'
p40
sg4
L1449732875936L
sg5
g6
sg7
S'Trace   '
p41
sg9
S'27875'
p42
sg11
S'error opening trace file: No such file or directory (2)\n'
p43
sa(dp44
g2
S'27875'
p45
sg4
L1449732875956L
sg5
g15
sg7
S'dalvikvm'
p46
sg9
S'27875'
p47
sg11
S"Refusing to reopen boot DEX '/system/framework/hwframework.jar'\n"
p48
sa(dp49
g2
S'27852'
p50
sg4
L1449732875966L
sg5
S'I'
p51
sg7
S'Adreno200-EGL'
p52
sg9
S'27852'
p53
sg11
S'<qeglDrvAPI_eglInitialize:299>: EGL 1.4 QUALCOMM build: AU_LINUX_ANDROID_JB_REL_2.0.3.04.01.02.21.107_msm8625_JB_REL_2.0.3_CL3357771_release_AU (CL3357771)\nBuild Date: 02/25/13 Mon\nLocal Branch: \nRemote Branch: quic/jb_rel_2.0.3\nLocal Patches: NONE\nReconstruct Branch: AU_LINUX_ANDROID_JB_REL_2.0.3.04.01.02.21.107 +  NOTHING\n'
p54
sa(dp55
g2
S'27875'
p56
sg4
L1449732875986L
sg5
g6
sg7
S'dalvikvm'
p57
sg9
S'27875'
p58
sg11
S'GC_FOR_ALLOC freed 48K, 7% free 8221K/8771K, paused 17ms, total 17ms\n'
p59
sa(dp60
g2
S'27852'
p61
sg4
L1449732878336L
sg5
g6
sg7
S'dalvikvm'
p62
sg9
S'27856'
p63
sg11
S'GC_CONCURRENT freed 5146K, 24% free 17828K/23431K, paused 2ms+3ms, total 20ms\n'
p64
sa(dp65
g2
S'27852'
p66
sg4
L1449732878436L
sg5
g6
sg7
S'dalvikvm'
p67
sg9
S'27856'
p68
sg11
S'GC_CONCURRENT freed 360K, 20% free 18863K/23431K, paused 12ms+16ms, total 52ms\n'
p69
sa(dp70
g2
S'27852'
p71
sg4
L1449732886036L
sg5
g15
sg7
S'dalvikvm'
p72
sg9
S'27852'
p73
sg11
S"Refusing to reopen boot DEX '/system/framework/qcrilhook.jar'\n"
p74
sa(dp75
g2
S'27852'
p76
sg4
L1449732886066L
sg5
g6
sg7
S'dalvikvm'
p77
sg9
S'27856'
p78
sg11
S'GC_CONCURRENT freed 1654K, 20% free 18783K/23431K, paused 2ms+3ms, total 25ms\n'
p79
sa(dp80
g2
S'27852'
p81
sg4
L1449732886186L
sg5
g51
sg7
S'TextToSpeech'
p82
sg9
S'27852'
p83
sg11
S'Sucessfully bound to com.svox.pico\n'
p84
sa(dp85
g2
S'27852'
p86
sg4
L1449732886216L
sg5
g15
sg7
S'System.err'
p87
sg9
S'27926'
p88
sg11
S'Invalid int: ""\n'
p89
sa(dp90
g2
S'27852'
p91
sg4
L1449732886316L
sg5
g51
sg7
S'TextToSpeech'
p92
sg9
S'27852'
p93
sg11
S'Connected to ComponentInfo{com.svox.pico/com.svox.pico.PicoService}\n'
p94
sa(dp95
g2
S'27852'
p96
sg4
L1449732886346L
sg5
g6
sg7
S'chromium'
p97
sg9
S'27947'
p98
sg11
S"external/chromium/net/disk_cache/stat_hub.cc:216: [1210/153446:ERROR:stat_hub.cc(216)] StatHub::Init - App com.example.myfristandroid isn't supported.\n"
p99
sa(dp100
g2
S'27852'
p101
sg4
L1449732887736L
sg5
g6
sg7
S'Web Console'
p102
sg9
S'27852'
p103
sg11
S"Uncaught TypeError: Object com.example.myfristandroid.graphWebShow$DemoJavaScriptInterface@4181fbf8 has no method 'startWait' at http://oa.paneng.cn:1143/se9200/realdata/js/realdata.js:80\n"
p104
sa(dp105
g2
S'27852'
p106
sg4
L1449732890086L
sg5
g6
sg7
S'dalvikvm'
p107
sg9
S'27856'
p108
sg11
S'GC_CONCURRENT freed 514K, 12% free 20755K/23431K, paused 14ms+11ms, total 75ms\n'
p109
sa(dp110
g2
S'27852'
p111
sg4
L1449732890136L
sg5
g6
sg7
S'dalvikvm'
p112
sg9
S'27852'
p113
sg11
S'GC_FOR_ALLOC freed 3K, 12% free 20752K/23431K, paused 28ms, total 28ms\n'
p114
sa(dp115
g2
S'27852'
p116
sg4
L1449732892396L
sg5
g6
sg7
S'dalvikvm'
p117
sg9
S'27856'
p118
sg11
S'GC_CONCURRENT freed 4227K, 27% free 18726K/25479K, paused 15ms+4ms, total 69ms\n'
p119
sa(dp120
g2
S'27852'
p121
sg4
L1449732892506L
sg5
g51
sg7
S'TextToSpeech'
p122
sg9
S'27852'
p123
sg11
S'Sucessfully bound to com.svox.pico\n'
p124
sa(dp125
g2
S'27852'
p126
sg4
L1449732892586L
sg5
g51
sg7
S'TextToSpeech'
p127
sg9
S'27852'
p128
sg11
S'Connected to ComponentInfo{com.svox.pico/com.svox.pico.PicoService}\n'
p129
sa(dp130
g2
S'27852'
p131
sg4
L1449732901286L
sg5
g6
sg7
S'dalvikvm'
p132
sg9
S'27856'
p133
sg11
S'GC_CONCURRENT freed 147K, 19% free 20806K/25479K, paused 19ms+5ms, total 61ms\n'
p134
sa(dp135
g2
S'27852'
p136
sg4
L1449732902626L
sg5
g15
sg7
S'IInputConnectionWrapper'
p137
sg9
S'27852'
p138
sg11
S'clearMetaKeyStates on inactive InputConnection\n'
p139
sa(dp140
g2
S'27852'
p141
sg4
L1449732903766L
sg5
g6
sg7
S'dalvikvm'
p142
sg9
S'27856'
p143
sg11
S'GC_CONCURRENT freed 4240K, 26% free 18871K/25479K, paused 2ms+3ms, total 38ms\n'
p144
sa(dp145
g2
S'27852'
p146
sg4
L1449732903796L
sg5
g51
sg7
S'TextToSpeech'
p147
sg9
S'27852'
p148
sg11
S'Sucessfully bound to com.svox.pico\n'
p149
sa(dp150
g2
S'27852'
p151
sg4
L1449732903876L
sg5
g51
sg7
S'TextToSpeech'
p152
sg9
S'27852'
p153
sg11
S'Connected to ComponentInfo{com.svox.pico/com.svox.pico.PicoService}\n'
p154
sa(dp155
g2
S'27852'
p156
sg4
L1449732907366L
sg5
g6
sg7
S'dalvikvm'
p157
sg9
S'27856'
p158
sg11
S'GC_CONCURRENT freed 80K, 18% free 20915K/25479K, paused 13ms+9ms, total 70ms\n'
p159
sa(dp160
g2
S'27852'
p161
sg4
L1449732909536L
sg5
g6
sg7
S'dalvikvm'
p162
sg9
S'27856'
p163
sg11
S'GC_CONCURRENT freed 4234K, 26% free 18973K/25479K, paused 12ms+7ms, total 56ms\n'
p164
sa(dp165
g2
S'27852'
p166
sg4
L1449732909566L
sg5
g51
sg7
S'TextToSpeech'
p167
sg9
S'27852'
p168
sg11
S'Sucessfully bound to com.svox.pico\n'
p169
sa(dp170
g2
S'27852'
p171
sg4
L1449732909636L
sg5
g51
sg7
S'TextToSpeech'
p172
sg9
S'27852'
p173
sg11
S'Connected to ComponentInfo{com.svox.pico/com.svox.pico.PicoService}\n'
p174
sa(dp175
g2
S'27852'
p176
sg4
L1449732917176L
sg5
g15
sg7
S'webview '
p177
sg9
S'27852'
p178
sg11
S'mInputDispatcher rejected the event!\n'
p179
sa(dp180
g2
S'27852'
p181
sg4
L1449732918726L
sg5
g6
sg7
S'dalvikvm'
p182
sg9
S'27856'
p183
sg11
S'GC_CONCURRENT freed 96K, 18% free 21024K/25479K, paused 21ms+10ms, total 85ms\n'
p184
sa(dp185
g2
S'27875'
p186
sg4
L1449732925176L
sg5
g6
sg7
S'dalvikvm'
p187
sg9
S'27892'
p188
sg11
S'GC_FOR_ALLOC freed 968K, 13% free 9247K/10567K, paused 48ms, total 48ms\n'
p189
sa(dp190
g2
S'27852'
p191
sg4
L1449732926046L
sg5
g6
sg7
S'dalvikvm'
p192
sg9
S'27852'
p193
sg11
S'GC_FOR_ALLOC freed 4121K, 26% free 18998K/25479K, paused 30ms, total 30ms\n'
p194
sa(dp195
g2
S'27852'
p196
sg4
L1449732926086L
sg5
g6
sg7
S'dalvikvm'
p197
sg9
S'27856'
p198
sg11
S'GC_CONCURRENT freed 1K, 18% free 21022K/25479K, paused 12ms+3ms, total 41ms\n'
p199
sa(dp200
g2
S'27852'
p201
sg4
L1449732926236L
sg5
g15
sg7
S'dalvikvm'
p202
sg9
S'27901'
p203
sg11
S'threadid=15: thread exiting with uncaught exception (group=0x40e7d438)\n'
p204
sa.