(lp0
(dp1
S'processID'
p2
S'28034'
p3
sS'SyscTime'
p4
L1449905724888L
sS'priority'
p5
S'D'
p6
sS'tag'
p7
S'Socket_Alarm'
p8
sS'threadID'
p9
S'28034'
p10
sS'message'
p11
S'registerHTCSocketMonitorCallBack\n'
p12
sa(dp13
g2
S'28034'
p14
sg4
L1449905724888L
sg5
g6
sg7
S'Socket_Alarm'
p15
sg9
S'28034'
p16
sg11
S'set mSocketMonitor\n'
p17
sa(dp18
g2
S'28034'
p19
sg4
L1449905724888L
sg5
g6
sg7
S'Socket_Alarm'
p20
sg9
S'28034'
p21
sg11
S'HTCSocketMonitorImpl::HTCSocketMonitorImpl\n'
p22
sa(dp23
g2
S'28379'
p24
sg4
L1449905879609L
sg5
g6
sg7
S'com.netease.cloudmusic.utils.u'
p25
sg9
S'28429'
p26
sg11
S'4148ms on url: http://music.163.com/eapi/topic/?id=199003\n'
p27
sa(dp28
g2
S'28379'
p29
sg4
L1449905881510L
sg5
g6
sg7
S'webkit  '
p30
sg9
S'28405'
p31
sg11
S'toastHandler.sendEmptyMessage(MSG_START)\n'
p32
sa(dp33
g2
S'28379'
p34
sg4
L1449905882071L
sg5
S'I'
p35
sg7
S'global  '
p36
sg9
S'28404'
p37
sg11
S'call createSocket() return a new socket.\n'
p38
sa(dp39
g2
S'28379'
p40
sg4
L1449905883292L
sg5
g6
sg7
S'webkit  '
p41
sg9
S'28405'
p42
sg11
S'BrowserFrame toastHandler MSG_START prev:10, curr:10, count:1\n'
p43
sa(dp44
g2
S'28379'
p45
sg4
L1449905883322L
sg5
g6
sg7
S'skia    '
p46
sg9
S'28405'
p47
sg11
S'----- started: [1024 1024] http://p1.music.126.net/JjOQsqb9qjG-N5tAilHrGQ==/7969260279296077.jpg\n'
p48
sa(dp49
g2
S'28379'
p50
sg4
L1449905883622L
sg5
g6
sg7
S'skia    '
p51
sg9
S'28405'
p52
sg11
S'----- started: [140 140] http://p1.music.126.net/-RxSasOonhkBUHYLkidhYg==/528865111391507.jpg?param=140y140\n'
p53
sa(dp54
g2
S'28379'
p55
sg4
L1449905883622L
sg5
g6
sg7
S'skia    '
p56
sg9
S'28405'
p57
sg11
S'----- started: [140 140] http://p1.music.126.net/iiGq-u0Gb9Ud9PH0GuL6EA==/7697680908380185.jpg?param=140y140\n'
p58
sa(dp59
g2
S'28379'
p60
sg4
L1449905883622L
sg5
g6
sg7
S'skia    '
p61
sg9
S'28405'
p62
sg11
S'----- started: [640 580] http://p1.music.126.net/TRbBNmBwRDwGrbLtYY-2zw==/3426078232905469.jpg\n'
p63
sa(dp64
g2
S'28379'
p65
sg4
L1449905884073L
sg5
g6
sg7
S'skia    '
p66
sg9
S'28405'
p67
sg11
S'----- started: [200 422] http://music.163.com/style/mobile/img/special/sprite_2x.png\n'
p68
sa(dp69
g2
S'28379'
p70
sg4
L1449905884243L
sg5
g6
sg7
S'skia    '
p71
sg9
S'28405'
p72
sg11
S'----- started: [140 140] http://p1.music.126.net/wCUeuGnABSpvVztogsgOmQ==/3435973837390555.jpg?param=140y140\n'
p73
sa(dp74
g2
S'28379'
p75
sg4
L1449905887316L
sg5
g35
sg7
S'Choreographer'
p76
sg9
S'28379'
p77
sg11
S'Skipped 42 frames!  The application may be doing too much work on its main thread.\n'
p78
sa(dp79
g2
S'28379'
p80
sg4
L1449905887466L
sg5
S'W'
p81
sg7
S'dalvikvm'
p82
sg9
S'28379'
p83
sg11
S'disableGcForExternalAlloc: false\n'
p84
sa(dp85
g2
S'28379'
p86
sg4
L1449905888287L
sg5
g6
sg7
S'skia    '
p87
sg9
S'28405'
p88
sg11
S'----- started: [30 30] http://music.163.com/style/mobile/img/share/za_2x.png\n'
p89
sa(dp90
g2
S'28379'
p91
sg4
L1449905888537L
sg5
g6
sg7
S'skia    '
p92
sg9
S'28405'
p93
sg11
S'----- started: [30 30] http://p1.music.126.net/jQ3n-ssfWDKPHMVgs4dnnQ==/3406287023572000.jpg?param=30y30\n'
p94
sa(dp95
g2
S'28379'
p96
sg4
L1449905888537L
sg5
g6
sg7
S'skia    '
p97
sg9
S'28405'
p98
sg11
S'----- started: [12 22] http://music.163.com/style/mobile/img/share/gt.png\n'
p99
sa(dp100
g2
S'28379'
p101
sg4
L1449905888647L
sg5
g6
sg7
S'skia    '
p102
sg9
S'28405'
p103
sg11
S'----- started: [30 30] http://p1.music.126.net/OOnavkOISELPfe-5bgm8hw==/18468496811801098.jpg?param=30y30\n'
p104
sa(dp105
g2
S'28379'
p106
sg4
L1449905888657L
sg5
g6
sg7
S'skia    '
p107
sg9
S'28405'
p108
sg11
S'----- started: [30 30] http://p1.music.126.net/UnAcrMbuL_Ign-QrjKjTbQ==/7810930603929965.jpg?param=30y30\n'
p109
sa(dp110
g2
S'28379'
p111
sg4
L1449905888707L
sg5
g6
sg7
S'skia    '
p112
sg9
S'28405'
p113
sg11
S'----- started: [30 30] http://p1.music.126.net/bTIoFKFaE1-JQpgN3OynGg==/1986817511391283.jpg?param=30y30\n'
p114
sa(dp115
g2
S'28379'
p116
sg4
L1449905888717L
sg5
g6
sg7
S'skia    '
p117
sg9
S'28405'
p118
sg11
S'----- started: [30 30] http://p1.music.126.net/x_mk6Ieu4cOBYfssV_sbpQ==/3405187512273396.jpg?param=30y30\n'
p119
sa(dp120
g2
S'28379'
p121
sg4
L1449905888717L
sg5
g6
sg7
S'skia    '
p122
sg9
S'28405'
p123
sg11
S'----- started: [30 30] http://p1.music.126.net/d56quBePC63gqVFudj_d8A==/2922501907433702.jpg?param=30y30\n'
p124
sa(dp125
g2
S'28379'
p126
sg4
L1449905888717L
sg5
g6
sg7
S'skia    '
p127
sg9
S'28405'
p128
sg11
S'----- started: [30 30] http://p1.music.126.net/czqehFG-xLtGIocb458E_A==/3410685071275672.jpg?param=30y30\n'
p129
sa(dp130
g2
S'28379'
p131
sg4
L1449905888727L
sg5
g6
sg7
S'skia    '
p132
sg9
S'28405'
p133
sg11
S'----- started: [30 30] http://p1.music.126.net/O0lwGNCvuOIVILzPAg37Zg==/3329321209053094.jpg?param=30y30\n'
p134
sa(dp135
g2
S'28379'
p136
sg4
L1449905888727L
sg5
g6
sg7
S'skia    '
p137
sg9
S'28405'
p138
sg11
S'----- started: [30 30] http://p1.music.126.net/v2v8uCPh75C4lu8dZRHQyw==/3227066628721761.jpg?param=30y30\n'
p139
sa(dp140
g2
S'28379'
p141
sg4
L1449905889118L
sg5
g81
sg7
S'dalvikvm'
p142
sg9
S'28379'
p143
sg11
S'disableGcForExternalAlloc: true\n'
p144
sa(dp145
g2
S'28379'
p146
sg4
L1449905889849L
sg5
g81
sg7
S'dalvikvm'
p147
sg9
S'28379'
p148
sg11
S'disableGcForExternalAlloc: false\n'
p149
sa(dp150
g2
S'28379'
p151
sg4
L1449905889899L
sg5
g81
sg7
S'dalvikvm'
p152
sg9
S'28379'
p153
sg11
S'disableGcForExternalAlloc: true\n'
p154
sa(dp155
g2
S'28379'
p156
sg4
L1449905890619L
sg5
g81
sg7
S'dalvikvm'
p157
sg9
S'28379'
p158
sg11
S'disableGcForExternalAlloc: false\n'
p159
sa(dp160
g2
S'28379'
p161
sg4
L1449905890649L
sg5
g81
sg7
S'dalvikvm'
p162
sg9
S'28379'
p163
sg11
S'disableGcForExternalAlloc: true\n'
p164
sa(dp165
g2
S'28379'
p166
sg4
L1449905891720L
sg5
g81
sg7
S'dalvikvm'
p167
sg9
S'28379'
p168
sg11
S'disableGcForExternalAlloc: false\n'
p169
sa(dp170
g2
S'28379'
p171
sg4
L1449905891720L
sg5
g81
sg7
S'dalvikvm'
p172
sg9
S'28379'
p173
sg11
S'disableGcForExternalAlloc: true\n'
p174
sa(dp175
g2
S'28379'
p176
sg4
L1449905891730L
sg5
g35
sg7
S'Choreographer'
p177
sg9
S'28379'
p178
sg11
S'Skipped 47 frames!  The application may be doing too much work on its main thread.\n'
p179
sa(dp180
g2
S'28379'
p181
sg4
L1449905892631L
sg5
g81
sg7
S'dalvikvm'
p182
sg9
S'28379'
p183
sg11
S'disableGcForExternalAlloc: false\n'
p184
sa(dp185
g2
S'28379'
p186
sg4
L1449905892641L
sg5
g81
sg7
S'dalvikvm'
p187
sg9
S'28379'
p188
sg11
S'disableGcForExternalAlloc: true\n'
p189
sa(dp190
g2
S'28379'
p191
sg4
L1449905894653L
sg5
g81
sg7
S'dalvikvm'
p192
sg9
S'28379'
p193
sg11
S'disableGcForExternalAlloc: false\n'
p194
sa(dp195
g2
S'28379'
p196
sg4
L1449905894723L
sg5
g81
sg7
S'dalvikvm'
p197
sg9
S'28379'
p198
sg11
S'disableGcForExternalAlloc: false\n'
p199
sa(dp200
g2
S'28034'
p201
sg4
L1449905894723L
sg5
g6
sg7
S'BindPlayServiceActivityBase'
p202
sg9
S'28034'
p203
sg11
S'onServiceConnected()\n'
p204
sa(dp205
g2
S'28379'
p206
sg4
L1449905894843L
sg5
g81
sg7
S'IInputConnectionWrapper'
p207
sg9
S'28379'
p208
sg11
S'showStatusIcon on inactive InputConnection\n'
p209
sa(dp210
g2
S'28379'
p211
sg4
L1449905894843L
sg5
g81
sg7
S'IInputConnectionWrapper'
p212
sg9
S'28379'
p213
sg11
S'InputConnection = android.webkit.WebViewClassic$WebViewInputConnection@4143c710, active client = false\n'
p214
sa(dp215
g2
S'28034'
p216
sg4
L1449905894954L
sg5
g6
sg7
S'PlayService'
p217
sg9
S'28123'
p218
sg11
S'PlayerHandler,action:51,null,0,0\n'
p219
sa(dp220
g2
S'28379'
p221
sg4
L1449905895024L
sg5
g6
sg7
S'HardwareRenderer'
p222
sg9
S'28379'
p223
sg11
S'startTrimMemory(level >=TRIM_MEMORY_COMPLETE)\n'
p224
sa(dp225
g2
S'28034'
p226
sg4
L1449905896695L
sg5
g6
sg7
S'BindPlayServiceActivityBase'
p227
sg9
S'28034'
p228
sg11
S'onServiceConnected()\n'
p229
sa(dp230
g2
S'28034'
p231
sg4
L1449905896835L
sg5
g6
sg7
S'PlayService'
p232
sg9
S'28123'
p233
sg11
S'PlayerHandler,action:51,null,0,0\n'
p234
sa(dp235
g2
S'28034'
p236
sg4
L1449905898547L
sg5
g35
sg7
S'global  '
p237
sg9
S'28247'
p238
sg11
S'call createSocket() return a new socket.\n'
p239
sa(dp240
g2
S'28034'
p241
sg4
L1449905918787L
sg5
g35
sg7
S'AppCompatViewInflater'
p242
sg9
S'28034'
p243
sg11
S'app:theme is now deprecated. Please move to using android:theme instead.\n'
p244
sa(dp245
g2
S'28034'
p246
sg4
L1449905919327L
sg5
g35
sg7
S'dalvikvm-heap'
p247
sg9
S'28034'
p248
sg11
S'Grow heap (frag case) to 24.494MB for 883616-byte allocation\n'
p249
sa(dp250
g2
S'28034'
p251
sg4
L1449905919738L
sg5
g6
sg7
S'PlayerActivityBase'
p252
sg9
S'28034'
p253
sg11
S'onResume()\n'
p254
sa(dp255
g2
S'28034'
p256
sg4
L1449905919818L
sg5
g35
sg7
S'Choreographer'
p257
sg9
S'28034'
p258
sg11
S'Skipped 74 frames!  The application may be doing too much work on its main thread.\n'
p259
sa(dp260
g2
S'28034'
p261
sg4
L1449905920038L
sg5
g6
sg7
S'PlayService'
p262
sg9
S'28123'
p263
sg11
S'PlayerHandler,action:57,Intent { cmp=com.netease.cloudmusic/.service.PlayService (has extras) },0,0\n'
p264
sa(dp265
g2
S'28034'
p266
sg4
L1449905920048L
sg5
g6
sg7
S'BindPlayServiceActivityBase'
p267
sg9
S'28034'
p268
sg11
S'onServiceConnected()\n'
p269
sa(dp270
g2
S'28034'
p271
sg4
L1449905920358L
sg5
g35
sg7
S'global  '
p272
sg9
S'28586'
p273
sg11
S'call createSocket() return a new socket.\n'
p274
sa(dp275
g2
S'28034'
p276
sg4
L1449905920388L
sg5
g6
sg7
S'PlayService'
p277
sg9
S'28123'
p278
sg11
S'PlayerHandler,action:51,null,0,0\n'
p279
sa(dp280
g2
S'28034'
p281
sg4
L1449905920559L
sg5
g6
sg7
S'com.netease.cloudmusic.utils.u'
p282
sg9
S'28586'
p283
sg11
S'242ms on url: http://music.163.com/eapi/v1/radio/get\n'
p284
sa(dp285
g2
S'28034'
p286
sg4
L1449905921479L
sg5
g35
sg7
S'dalvikvm-heap'
p287
sg9
S'28034'
p288
sg11
S'Grow heap (frag case) to 25.109MB for 428416-byte allocation\n'
p289
sa(dp290
g2
S'28034'
p291
sg4
L1449905921940L
sg5
g6
sg7
S'PlayService'
p292
sg9
S'28123'
p293
sg11
S'getMusicInfo:begin to play:Yellow,17177324\n'
p294
sa(dp295
g2
S'28034'
p296
sg4
L1449905921990L
sg5
g6
sg7
S'PlayService'
p297
sg9
S'28123'
p298
sg11
S'getMusicInfo,fileAllDownloaded:false\n'
p299
sa(dp300
g2
S'28034'
p301
sg4
L1449905922010L
sg5
g6
sg7
S'PlayService'
p302
sg9
S'28123'
p303
sg11
S'downloadSpeed:2147483647\n'
p304
sa(dp305
g2
S'28034'
p306
sg4
L1449905922040L
sg5
g6
sg7
S'PlayService'
p307
sg9
S'28123'
p308
sg11
S'getMusicInfo:got music play path, fileAllDownloaded:false,bitrate:192000\n'
p309
sa(dp310
g2
S'28034'
p311
sg4
L1449905922050L
sg5
g6
sg7
S'PlayService'
p312
sg9
S'28123'
p313
sg11
S'getMusicInfo: init remote control done\n'
p314
sa(dp315
g2
S'28034'
p316
sg4
L1449905922060L
sg5
g6
sg7
S'PlayService'
p317
sg9
S'28123'
p318
sg11
S'getMusicInfo, not fileAllDownloaded\n'
p319
sa(dp320
g2
S'28034'
p321
sg4
L1449905922080L
sg5
g6
sg7
S'PlayService'
p322
sg9
S'28123'
p323
sg11
S'getMusicInfo: getFilePart done\n'
p324
sa(dp325
g2
S'28034'
p326
sg4
L1449905922110L
sg5
g6
sg7
S'PlayService'
p327
sg9
S'28123'
p328
sg11
S'getMusicInfo:ready to play, alreadyDownloadProcess:0,http://127.0.0.1:37124/forFuck23?17177324&192000&108242&192000&0&0&269923&320000,false\n'
p329
sa(dp330
g2
S'28034'
p331
sg4
L1449905922120L
sg5
g6
sg7
S'MediaPlayer'
p332
sg9
S'28123'
p333
sg11
S'reset() in\n'
p334
sa(dp335
g2
S'28034'
p336
sg4
L1449905922120L
sg5
g6
sg7
S'MediaPlayer'
p337
sg9
S'28123'
p338
sg11
S'reset() out\n'
p339
sa(dp340
g2
S'28034'
p341
sg4
L1449905922120L
sg5
g35
sg7
S'MediaPlayer'
p342
sg9
S'28123'
p343
sg11
S'This is not a sprint project\n'
p344
sa(dp345
g2
S'28034'
p346
sg4
L1449905922130L
sg5
g6
sg7
S'MediaPlayer'
p347
sg9
S'28123'
p348
sg11
S'[DLNA]AP force disable DLNA: FALSE\n'
p349
sa(dp350
g2
S'28034'
p351
sg4
L1449905922530L
sg5
g6
sg7
S'MediaPlayer'
p352
sg9
S'28123'
p353
sg11
S'[DLNA]Force disable DLNA: \n'
p354
sa(dp355
g2
S'28034'
p356
sg4
L1449905923291L
sg5
g35
sg7
S'MediaPlayer'
p357
sg9
S'28123'
p358
sg11
S'setLPAflag() in\n'
p359
sa(dp360
g2
S'28034'
p361
sg4
L1449905923291L
sg5
g35
sg7
S'MediaPlayer'
p362
sg9
S'28123'
p363
sg11
S"mContext is null, can't getMirrorDisplayStatus!!!\n"
p364
sa(dp365
g2
S'28034'
p366
sg4
L1449905923291L
sg5
g35
sg7
S'MediaPlayer'
p367
sg9
S'28123'
p368
sg11
S'setLPAflag() out\n'
p369
sa(dp370
g2
S'28034'
p371
sg4
L1449905923581L
sg5
g6
sg7
S'MusicProxy'
p372
sg9
S'28586'
p373
sg11
S'proxyThread:ProxyThread#com.netease.cloudmusic.utils.an@42889fd8\n'
p374
sa(dp375
g2
S'28034'
p376
sg4
L1449905923611L
sg5
g6
sg7
S'MusicProxy'
p377
sg9
S'28586'
p378
sg11
S'read from mediaplayer:GET /forFuck23?17177324&192000&108242&192000&0&0&269923&320000 HTTP/1.1\nHost: 127.0.0.1:37124\nConnection: keep-alive\nUser-Agent: stagefright/1.2 (Linux;Android 4.1.1)\nAccept-Encoding: gzip,deflate\n'
p379
sa(dp380
g2
S'28034'
p381
sg4
L1449905923611L
sg5
g6
sg7
S'MusicProxy'
p382
sg9
S'28586'
p383
sg11
S'getPlaySongUrlInfo:17177324,0,0\n'
p384
sa(dp385
g2
S'28034'
p386
sg4
L1449905923782L
sg5
g6
sg7
S'com.netease.cloudmusic.utils.u'
p387
sg9
S'28586'
p388
sg11
S'103ms on url: http://music.163.com/eapi/song/enhance/player/url?br=192000&ids=%5B%2217177324_0%22%2C%22108242_0%22%5D\n'
p389
sa(dp390
g2
S'28034'
p391
sg4
L1449905924262L
sg5
g6
sg7
S'PlayService'
p392
sg9
S'28123'
p393
sg11
S'PlayerHandler,action:58,android.support.v4.util.Pair@45e33b8a,0,0\n'
p394
sa(dp395
g2
S'28034'
p396
sg4
L1449905924262L
sg5
g6
sg7
S'MusicProxy'
p397
sg9
S'28586'
p398
sg11
S'filePart:17177324,192000,FilePart:\n'
p399
sa(dp400
g2
S'28034'
p401
sg4
L1449905925373L
sg5
g6
sg7
S'MusicProxy'
p402
sg9
S'28586'
p403
sg11
S'download part:0,6473221\n'
p404
sa(dp405
g2
S'28034'
p406
sg4
L1449905925593L
sg5
g6
sg7
S'MusicProxy'
p407
sg9
S'28586'
p408
sg11
S'getDataFromServer:0,6473220\n'
p409
sa(dp410
g2
S'28034'
p411
sg4
L1449905925643L
sg5
g6
sg7
S'MusicProxy'
p412
sg9
S'28586'
p413
sg11
S'getDataFromServer, start request server:http://m7.music.126.net/20151212160345/8eba6d3840edd7073fb8c973fac9277b/ymusic/2d9e/eff8/40fd/047c389d51fd5a73158e4442fa4ccb77.mp3,0,6473220,192000\n'
p414
sa(dp415
g2
S'28034'
p416
sg4
L1449905925994L
sg5
g35
sg7
S'global  '
p417
sg9
S'28248'
p418
sg11
S'call createSocket() return a new socket.\n'
p419
sa(dp420
g2
S'28034'
p421
sg4
L1449905926054L
sg5
g35
sg7
S'global  '
p422
sg9
S'28586'
p423
sg11
S'call createSocket() return a new socket.\n'
p424
sa(dp425
g2
S'28034'
p426
sg4
L1449905929137L
sg5
g81
sg7
S'MediaPlayer'
p427
sg9
S'28153'
p428
sg11
S'info/warning (1, 902)\n'
p429
sa(dp430
g2
S'28034'
p431
sg4
L1449905929167L
sg5
g6
sg7
S'MediaPlayer'
p432
sg9
S'28034'
p433
sg11
S'Mediaplayer receives message, message type: 200\n'
p434
sa(dp435
g2
S'28034'
p436
sg4
L1449905929167L
sg5
g35
sg7
S'MediaPlayer'
p437
sg9
S'28034'
p438
sg11
S'Info (1,902)\n'
p439
sa(dp440
g2
S'28034'
p441
sg4
L1449905929167L
sg5
g6
sg7
S'PlayService'
p442
sg9
S'28034'
p443
sg11
S'in OnInfo,what:1,extra:902\n'
p444
sa(dp445
g2
S'28034'
p446
sg4
L1449905929177L
sg5
g6
sg7
S'MediaPlayer'
p447
sg9
S'28034'
p448
sg11
S'Mediaplayer receives message, message type: 5\n'
p449
sa(dp450
g2
S'28034'
p451
sg4
L1449905929177L
sg5
g6
sg7
S'MediaPlayer'
p452
sg9
S'28034'
p453
sg11
S'Mediaplayer receives message, message type: 1\n'
p454
sa(dp455
g2
S'28034'
p456
sg4
L1449905929197L
sg5
S'V'
p457
sg7
S'RemoteControlClient'
p458
sg9
S'28092'
p459
sg11
S'[sendArtwork_syncCacheLock]mCurrentClientGenId=766, mInternalClientGenId=766, mRcDisplay=null\n'
p460
sa(dp461
g2
S'28034'
p462
sg4
L1449905929197L
sg5
g457
sg7
S'RemoteControlClient'
p463
sg9
S'28045'
p464
sg11
S'[sendArtwork_syncCacheLock]mCurrentClientGenId=767, mInternalClientGenId=767, mRcDisplay=null\n'
p465
sa(dp466
g2
S'28034'
p467
sg4
L1449905929197L
sg5
g457
sg7
S'RemoteControlClient'
p468
sg9
S'28153'
p469
sg11
S'[sendArtwork_syncCacheLock]mCurrentClientGenId=768, mInternalClientGenId=768, mRcDisplay=null\n'
p470
sa(dp471
g2
S'28034'
p472
sg4
L1449905929207L
sg5
g6
sg7
S'MediaPlayer'
p473
sg9
S'28034'
p474
sg11
S'notify streaming music on to handle screen light\n'
p475
sa(dp476
g2
S'28034'
p477
sg4
L1449905929217L
sg5
g6
sg7
S'MediaPlayer'
p478
sg9
S'28034'
p479
sg11
S'[DLNA]contentType = 902\n'
p480
sa(dp481
g2
S'28034'
p482
sg4
L1449905929217L
sg5
g6
sg7
S'MediaPlayer'
p483
sg9
S'28034'
p484
sg11
S'[DLNA]Streaming path, should enable DLNA\n'
p485
sa(dp486
g2
S'28034'
p487
sg4
L1449905929307L
sg5
g6
sg7
S'[MediaPluginDLNA]'
p488
sg9
S'28034'
p489
sg11
S'[DLNA]not in Mirror mode, check nearby ready dongle\n'
p490
sa(dp491
g2
S'28034'
p492
sg4
L1449905929307L
sg5
g6
sg7
S'[MediaPluginDLNA]'
p493
sg9
S'28034'
p494
sg11
S'[DLNA]startMirror in\n'
p495
sa(dp496
g2
S'28034'
p497
sg4
L1449905929327L
sg5
g6
sg7
S'[MediaPluginDLNA]'
p498
sg9
S'28034'
p499
sg11
S'[getReadyDongle] No ready to use dongle\n'
p500
sa(dp501
g2
S'28034'
p502
sg4
L1449905929327L
sg5
g6
sg7
S'[MediaPluginDLNA]'
p503
sg9
S'28034'
p504
sg11
S'[DLNA][startMirror] out no ready to use dongle\n'
p505
sa(dp506
g2
S'28034'
p507
sg4
L1449905929327L
sg5
g6
sg7
S'MediaPlayer'
p508
sg9
S'28034'
p509
sg11
S'doStart() in\n'
p510
sa(dp511
g2
S'28034'
p512
sg4
L1449905929327L
sg5
g6
sg7
S'MediaPlayer'
p513
sg9
S'28034'
p514
sg11
S'getIntParameter = 902\n'
p515
sa(dp516
g2
S'28034'
p517
sg4
L1449905929407L
sg5
g6
sg7
S'MediaPlayer'
p518
sg9
S'28034'
p519
sg11
S'[DLNA]start() out\n'
p520
sa(dp521
g2
S'28034'
p522
sg4
L1449905929407L
sg5
g6
sg7
S'PlayService'
p523
sg9
S'28034'
p524
sg11
S'play music:Yellow,Coldplay\n'
p525
sa(dp526
g2
S'28034'
p527
sg4
L1449905929537L
sg5
g81
sg7
S'System.err'
p528
sg9
S'28122'
p529
sg11
S'android.content.pm.PackageManager$NameNotFoundException: com.huawei.android.thememanager\n'
p530
sa(dp531
g2
S'28034'
p532
sg4
L1449905929547L
sg5
g81
sg7
S'System.err'
p533
sg9
S'28122'
p534
sg11
S'\tat android.app.ApplicationPackageManager.getApplicationInfo(ApplicationPackageManager.java:210)\n'
p535
sa(dp536
g2
S'28034'
p537
sg4
L1449905929547L
sg5
g81
sg7
S'System.err'
p538
sg9
S'28122'
p539
sg11
S'\tat com.netease.cloudmusic.utils.o.o(ProGuard:355)\n'
p540
sa(dp541
g2
S'28034'
p542
sg4
L1449905929557L
sg5
g81
sg7
S'System.err'
p543
sg9
S'28122'
p544
sg11
S'\tat com.netease.cloudmusic.utils.o.n(ProGuard:335)\n'
p545
sa(dp546
g2
S'28034'
p547
sg4
L1449905929557L
sg5
g81
sg7
S'System.err'
p548
sg9
S'28122'
p549
sg11
S'\tat com.netease.cloudmusic.service.PlayService.R(ProGuard:1415)\n'
p550
sa(dp551
g2
S'28034'
p552
sg4
L1449905929577L
sg5
g81
sg7
S'System.err'
p553
sg9
S'28122'
p554
sg11
S'\tat com.netease.cloudmusic.service.PlayService.b(ProGuard:1319)\n'
p555
sa(dp556
g2
S'28034'
p557
sg4
L1449905929577L
sg5
g81
sg7
S'System.err'
p558
sg9
S'28122'
p559
sg11
S'\tat com.netease.cloudmusic.service.PlayService.a(ProGuard:155)\n'
p560
sa(dp561
g2
S'28034'
p562
sg4
L1449905929587L
sg5
g81
sg7
S'System.err'
p563
sg9
S'28122'
p564
sg11
S'\tat com.netease.cloudmusic.service.PlayService$18.run(ProGuard:1262)\n'
p565
sa(dp566
g2
S'28034'
p567
sg4
L1449905929587L
sg5
g81
sg7
S'System.err'
p568
sg9
S'28122'
p569
sg11
S'\tat android.os.Handler.handleCallback(Handler.java:615)\n'
p570
sa(dp571
g2
S'28034'
p572
sg4
L1449905929627L
sg5
g81
sg7
S'System.err'
p573
sg9
S'28122'
p574
sg11
S'\tat android.os.Handler.dispatchMessage(Handler.java:92)\n'
p575
sa(dp576
g2
S'28034'
p577
sg4
L1449905929627L
sg5
g81
sg7
S'System.err'
p578
sg9
S'28122'
p579
sg11
S'\tat android.os.Looper.loop(Looper.java:155)\n'
p580
sa(dp581
g2
S'28034'
p582
sg4
L1449905929627L
sg5
g81
sg7
S'System.err'
p583
sg9
S'28122'
p584
sg11
S'\tat android.os.HandlerThread.run(HandlerThread.java:60)\n'
p585
sa(dp586
g2
S'28034'
p587
sg4
L1449905930178L
sg5
g457
sg7
S'RemoteControlClient'
p588
sg9
S'28045'
p589
sg11
S'[sendArtwork_syncCacheLock]mCurrentClientGenId=769, mInternalClientGenId=769, mRcDisplay=android.media.IRemoteControlDisplay$Stub$Proxy@41939b98\n'
p590
sa(dp591
g2
S'28034'
p592
sg4
L1449905930528L
sg5
g6
sg7
S'BindPlayServiceActivityBase'
p593
sg9
S'28034'
p594
sg11
S'onServiceConnected()\n'
p595
sa(dp596
g2
S'28034'
p597
sg4
L1449905930989L
sg5
g6
sg7
S'PlayService'
p598
sg9
S'28123'
p599
sg11
S'PlayerHandler,action:51,null,0,0\n'
p600
sa(dp601
g2
S'28034'
p602
sg4
L1449905932610L
sg5
g35
sg7
S'Choreographer'
p603
sg9
S'28034'
p604
sg11
S'Skipped 32 frames!  The application may be doing too much work on its main thread.\n'
p605
sa(dp606
g2
S'28034'
p607
sg4
L1449905932730L
sg5
g6
sg7
S'PlayerActivityBase'
p608
sg9
S'28034'
p609
sg11
S'onStop()\n'
p610
sa(dp611
g2
S'28034'
p612
sg4
L1449905932740L
sg5
g6
sg7
S'PlayerActivityBase'
p613
sg9
S'28034'
p614
sg11
S'in onDestroy\n'
p615
sa(dp616
g2
S'28034'
p617
sg4
L1449905933391L
sg5
g81
sg7
S'dalvikvm'
p618
sg9
S'28122'
p619
sg11
S'VFY: unable to resolve virtual method 658: Landroid/graphics/Bitmap;.getAllocationByteCount ()I\n'
p620
sa(dp621
g2
S'28034'
p622
sg4
L1449905933601L
sg5
g81
sg7
S'KeyCharacterMap'
p623
sg9
S'28034'
p624
sg11
S'Load KCM of non-default device may incur unexpected result\n'
p625
sa(dp626
g2
S'28034'
p627
sg4
L1449905933671L
sg5
g6
sg7
S'AudioManager'
p628
sg9
S'28034'
p629
sg11
S'adjustSuggestedStreamVolume(direction:-1, suggestedStreamType:3, flags:17)\n'
p630
sa(dp631
g2
S'28034'
p632
sg4
L1449905933922L
sg5
g81
sg7
S'KeyCharacterMap'
p633
sg9
S'28034'
p634
sg11
S'Load KCM of non-default device may incur unexpected result\n'
p635
sa(dp636
g2
S'28034'
p637
sg4
L1449905933922L
sg5
g6
sg7
S'AudioManager'
p638
sg9
S'28034'
p639
sg11
S'adjustSuggestedStreamVolume(direction:-1, suggestedStreamType:3, flags:17)\n'
p640
sa(dp641
g2
S'28034'
p642
sg4
L1449905933972L
sg5
g81
sg7
S'KeyCharacterMap'
p643
sg9
S'28034'
p644
sg11
S'Load KCM of non-default device may incur unexpected result\n'
p645
sa(dp646
g2
S'28034'
p647
sg4
L1449905933972L
sg5
g6
sg7
S'AudioManager'
p648
sg9
S'28034'
p649
sg11
S'adjustSuggestedStreamVolume(direction:-1, suggestedStreamType:3, flags:17)\n'
p650
sa(dp651
g2
S'28034'
p652
sg4
L1449905934022L
sg5
g81
sg7
S'KeyCharacterMap'
p653
sg9
S'28034'
p654
sg11
S'Load KCM of non-default device may incur unexpected result\n'
p655
sa(dp656
g2
S'28034'
p657
sg4
L1449905934022L
sg5
g6
sg7
S'AudioManager'
p658
sg9
S'28034'
p659
sg11
S'adjustSuggestedStreamVolume(direction:-1, suggestedStreamType:3, flags:17)\n'
p660
sa(dp661
g2
S'28034'
p662
sg4
L1449905934082L
sg5
g81
sg7
S'KeyCharacterMap'
p663
sg9
S'28034'
p664
sg11
S'Load KCM of non-default device may incur unexpected result\n'
p665
sa(dp666
g2
S'28034'
p667
sg4
L1449905934082L
sg5
g6
sg7
S'AudioManager'
p668
sg9
S'28034'
p669
sg11
S'adjustSuggestedStreamVolume(direction:-1, suggestedStreamType:3, flags:17)\n'
p670
sa(dp671
g2
S'28034'
p672
sg4
L1449905934132L
sg5
g81
sg7
S'KeyCharacterMap'
p673
sg9
S'28034'
p674
sg11
S'Load KCM of non-default device may incur unexpected result\n'
p675
sa(dp676
g2
S'28034'
p677
sg4
L1449905934132L
sg5
g6
sg7
S'AudioManager'
p678
sg9
S'28034'
p679
sg11
S'adjustSuggestedStreamVolume(direction:-1, suggestedStreamType:3, flags:17)\n'
p680
sa(dp681
g2
S'28034'
p682
sg4
L1449905934192L
sg5
g81
sg7
S'KeyCharacterMap'
p683
sg9
S'28034'
p684
sg11
S'Load KCM of non-default device may incur unexpected result\n'
p685
sa(dp686
g2
S'28034'
p687
sg4
L1449905934192L
sg5
g6
sg7
S'AudioManager'
p688
sg9
S'28034'
p689
sg11
S'adjustSuggestedStreamVolume(direction:-1, suggestedStreamType:3, flags:17)\n'
p690
sa(dp691
g2
S'28034'
p692
sg4
L1449905934232L
sg5
g81
sg7
S'KeyCharacterMap'
p693
sg9
S'28034'
p694
sg11
S'Load KCM of non-default device may incur unexpected result\n'
p695
sa(dp696
g2
S'28034'
p697
sg4
L1449905934232L
sg5
g6
sg7
S'AudioManager'
p698
sg9
S'28034'
p699
sg11
S'adjustSuggestedStreamVolume(direction:-1, suggestedStreamType:3, flags:17)\n'
p700
sa(dp701
g2
S'28034'
p702
sg4
L1449905934282L
sg5
g81
sg7
S'KeyCharacterMap'
p703
sg9
S'28034'
p704
sg11
S'Load KCM of non-default device may incur unexpected result\n'
p705
sa(dp706
g2
S'28034'
p707
sg4
L1449905934282L
sg5
g6
sg7
S'AudioManager'
p708
sg9
S'28034'
p709
sg11
S'adjustSuggestedStreamVolume(direction:-1, suggestedStreamType:3, flags:17)\n'
p710
sa(dp711
g2
S'28034'
p712
sg4
L1449905934362L
sg5
g81
sg7
S'KeyCharacterMap'
p713
sg9
S'28034'
p714
sg11
S'Load KCM of non-default device may incur unexpected result\n'
p715
sa(dp716
g2
S'28034'
p717
sg4
L1449905934362L
sg5
g6
sg7
S'AudioManager'
p718
sg9
S'28034'
p719
sg11
S'adjustSuggestedStreamVolume(direction:-1, suggestedStreamType:3, flags:17)\n'
p720
sa(dp721
g2
S'28034'
p722
sg4
L1449905934382L
sg5
g81
sg7
S'KeyCharacterMap'
p723
sg9
S'28034'
p724
sg11
S'Load KCM of non-default device may incur unexpected result\n'
p725
sa(dp726
g2
S'28034'
p727
sg4
L1449905934382L
sg5
g6
sg7
S'AudioManager'
p728
sg9
S'28034'
p729
sg11
S'adjustSuggestedStreamVolume(direction:-1, suggestedStreamType:3, flags:17)\n'
p730
sa(dp731
g2
S'28034'
p732
sg4
L1449905934442L
sg5
g6
sg7
S'AudioManager'
p733
sg9
S'28034'
p734
sg11
S'adjustSuggestedStreamVolume(direction:0, suggestedStreamType:3, flags:4)\n'
p735
sa(dp736
g2
S'28034'
p737
sg4
L1449905934822L
sg5
g81
sg7
S'KeyCharacterMap'
p738
sg9
S'28034'
p739
sg11
S'Load KCM of non-default device may incur unexpected result\n'
p740
sa(dp741
g2
S'28034'
p742
sg4
L1449905934832L
sg5
g6
sg7
S'AudioManager'
p743
sg9
S'28034'
p744
sg11
S'adjustSuggestedStreamVolume(direction:-1, suggestedStreamType:3, flags:17)\n'
p745
sa(dp746
g2
S'28034'
p747
sg4
L1449905935013L
sg5
g6
sg7
S'AudioManager'
p748
sg9
S'28034'
p749
sg11
S'adjustSuggestedStreamVolume(direction:0, suggestedStreamType:3, flags:4)\n'
p750
sa(dp751
g2
S'28034'
p752
sg4
L1449905935333L
sg5
g81
sg7
S'KeyCharacterMap'
p753
sg9
S'28034'
p754
sg11
S'Load KCM of non-default device may incur unexpected result\n'
p755
sa(dp756
g2
S'28034'
p757
sg4
L1449905935353L
sg5
g6
sg7
S'AudioManager'
p758
sg9
S'28034'
p759
sg11
S'adjustSuggestedStreamVolume(direction:-1, suggestedStreamType:3, flags:17)\n'
p760
sa(dp761
g2
S'28034'
p762
sg4
L1449905935433L
sg5
g6
sg7
S'AudioManager'
p763
sg9
S'28034'
p764
sg11
S'adjustSuggestedStreamVolume(direction:0, suggestedStreamType:3, flags:4)\n'
p765
sa(dp766
g2
S'28034'
p767
sg4
L1449905945243L
sg5
g35
sg7
S'Choreographer'
p768
sg9
S'28034'
p769
sg11
S'Skipped 48 frames!  The application may be doing too much work on its main thread.\n'
p770
sa(dp771
g2
S'28034'
p772
sg4
L1449905947325L
sg5
g35
sg7
S'Choreographer'
p773
sg9
S'28034'
p774
sg11
S'Skipped 56 frames!  The application may be doing too much work on its main thread.\n'
p775
sa(dp776
g2
S'28034'
p777
sg4
L1449905949737L
sg5
g35
sg7
S'Choreographer'
p778
sg9
S'28034'
p779
sg11
S'Skipped 40 frames!  The application may be doing too much work on its main thread.\n'
p780
sa(dp781
g2
S'28034'
p782
sg4
L1449905953180L
sg5
g6
sg7
S'MusicProxy'
p783
sg9
S'28586'
p784
sg11
S'getPlaySongUrlInfo:108242,0,2\n'
p785
sa(dp786
g2
S'28034'
p787
sg4
L1449905953731L
sg5
g6
sg7
S'MusicProxy'
p788
sg9
S'28586'
p789
sg11
S'get nextId data:108242,192000,6932bd9b7c8236e6e705b849d2df55b9,0,192000\n'
p790
sa(dp791
g2
S'28034'
p792
sg4
L1449905954642L
sg5
g6
sg7
S'MusicProxy'
p793
sg9
S'28586'
p794
sg11
S'getDataFromServer:0,479999\n'
p795
sa(dp796
g2
S'28034'
p797
sg4
L1449905955172L
sg5
g6
sg7
S'MusicProxy'
p798
sg9
S'28586'
p799
sg11
S'getDataFromServer, start request server:http://m9.music.126.net/20151212160345/e2936ca4b4bc93f952897cf5605d9a2a/ymusic/7c11/1d0e/89c2/6932bd9b7c8236e6e705b849d2df55b9.mp3,0,479999,192000\n'
p800
sa(dp801
g2
S'28034'
p802
sg4
L1449905955332L
sg5
g35
sg7
S'global  '
p803
sg9
S'28586'
p804
sg11
S'call createSocket() return a new socket.\n'
p805
sa(dp806
g2
S'28034'
p807
sg4
L1449905957174L
sg5
g6
sg7
S'MusicProxy'
p808
sg9
S'28586'
p809
sg11
S'clean#com.netease.cloudmusic.utils.an@42889fd8\n'
p810
sa(dp811
g2
S'28034'
p812
sg4
L1449905963941L
sg5
g35
sg7
S'Choreographer'
p813
sg9
S'28034'
p814
sg11
S'Skipped 32 frames!  The application may be doing too much work on its main thread.\n'
p815
sa(dp816
g2
S'28034'
p817
sg4
L1449905964642L
sg5
g35
sg7
S'global  '
p818
sg9
S'28247'
p819
sg11
S'call createSocket() return a new socket.\n'
p820
sa(dp821
g2
S'28034'
p822
sg4
L1449905965392L
sg5
g6
sg7
S'com.netease.cloudmusic.service.PushService'
p823
sg9
S'28121'
p824
sg11
S'begin to query server, isBackground:false\n'
p825
sa(dp826
g2
S'28034'
p827
sg4
L1449905965632L
sg5
g35
sg7
S'global  '
p828
sg9
S'28121'
p829
sg11
S'call createSocket() return a new socket.\n'
p830
sa(dp831
g2
S'28034'
p832
sg4
L1449905965703L
sg5
g6
sg7
S'com.netease.cloudmusic.utils.u'
p833
sg9
S'28121'
p834
sg11
S'84ms on url: http://music.163.com/eapi/pl/count\n'
p835
sa(dp836
g2
S'28034'
p837
sg4
L1449905965723L
sg5
g35
sg7
S'com.netease.cloudmusic.service.PushService'
p838
sg9
S'28121'
p839
sg11
S'new message : PushMessage [code=200, at=0, notice=0, msg=2, follow=0, pushMsg=\xe4\xbd\xa0\xe6\x94\xb6\xe5\x88\xb0\xe4\xba\x862\xe6\x9d\xa1\xe6\xb6\x88\xe6\x81\xaf\xef\xbc\x9a2\xe6\x9d\xa1\xe7\xa7\x81\xe4\xbf\xa1, comment=0, event=0, pushMsgType=0, newFriendIsStar=false, celebrityCount=0, hasNewTheme=false, friend=null, count=0]\n'
p840
sa(dp841
g2
S'28034'
p842
sg4
L1449905965723L
sg5
g35
sg7
S'MusicActivityBase'
p843
sg9
S'28034'
p844
sg11
S'com.netease.cloudmusic.activity.MainActivity@41397ef8:onReceive msg count is 2 follow count0\n'
p845
sa(dp846
g2
S'28034'
p847
sg4
L1449905966764L
sg5
g35
sg7
S'global  '
p848
sg9
S'28248'
p849
sg11
S'call createSocket() return a new socket.\n'
p850
sa(dp851
g2
S'28034'
p852
sg4
L1449905966794L
sg5
g35
sg7
S'global  '
p853
sg9
S'28247'
p854
sg11
S'call createSocket() return a new socket.\n'
p855
sa(dp856
g2
S'28034'
p857
sg4
L1449905969336L
sg5
g35
sg7
S'Choreographer'
p858
sg9
S'28034'
p859
sg11
S'Skipped 46 frames!  The application may be doing too much work on its main thread.\n'
p860
sa(dp861
g2
S'28034'
p862
sg4
L1449905970647L
sg5
g35
sg7
S'AppCompatViewInflater'
p863
sg9
S'28034'
p864
sg11
S'app:theme is now deprecated. Please move to using android:theme instead.\n'
p865
sa(dp866
g2
S'28034'
p867
sg4
L1449905971378L
sg5
g35
sg7
S'Choreographer'
p868
sg9
S'28034'
p869
sg11
S'Skipped 31 frames!  The application may be doing too much work on its main thread.\n'
p870
sa(dp871
g2
S'28034'
p872
sg4
L1449905972779L
sg5
g35
sg7
S'global  '
p873
sg9
S'28062'
p874
sg11
S'call createSocket() return a new socket.\n'
p875
sa(dp876
g2
S'28034'
p877
sg4
L1449905973260L
sg5
g35
sg7
S'global  '
p878
sg9
S'28586'
p879
sg11
S'call createSocket() return a new socket.\n'
p880
sa(dp881
g2
S'28034'
p882
sg4
L1449905973610L
sg5
g6
sg7
S'com.netease.cloudmusic.utils.u'
p883
sg9
S'28586'
p884
sg11
S'621ms on url: http://music.163.com/eapi/privatecontent/list\n'
p885
sa(dp886
g2
S'28034'
p887
sg4
L1449905980757L
sg5
g6
sg7
S'BindPlayServiceActivityBase'
p888
sg9
S'28034'
p889
sg11
S'onServiceConnected()\n'
p890
sa(dp891
g2
S'28034'
p892
sg4
L1449905981017L
sg5
g6
sg7
S'PlayService'
p893
sg9
S'28123'
p894
sg11
S'PlayerHandler,action:51,null,0,0\n'
p895
sa(dp896
g2
S'28034'
p897
sg4
L1449905985912L
sg5
g35
sg7
S'Choreographer'
p898
sg9
S'28034'
p899
sg11
S'Skipped 41 frames!  The application may be doing too much work on its main thread.\n'
p900
sa(dp901
g2
S'28034'
p902
sg4
L1449905987324L
sg5
g35
sg7
S'Choreographer'
p903
sg9
S'28034'
p904
sg11
S'Skipped 45 frames!  The application may be doing too much work on its main thread.\n'
p905
sa(dp906
g2
S'28034'
p907
sg4
L1449905989806L
sg5
g35
sg7
S'Choreographer'
p908
sg9
S'28034'
p909
sg11
S'Skipped 53 frames!  The application may be doing too much work on its main thread.\n'
p910
sa(dp911
g2
S'28034'
p912
sg4
L1449905994280L
sg5
g81
sg7
S'KeyCharacterMap'
p913
sg9
S'28034'
p914
sg11
S'Load KCM of non-default device may incur unexpected result\n'
p915
sa(dp916
g2
S'28034'
p917
sg4
L1449905995402L
sg5
g35
sg7
S'InputMethodManager'
p918
sg9
S'28034'
p919
sg11
S'finishedEvent mSeq=1288,pid=28034,tid=28034\n'
p920
sa(dp921
g2
S'28034'
p922
sg4
L1449906085730L
sg5
g6
sg7
S'com.netease.cloudmusic.service.PushService'
p923
sg9
S'28121'
p924
sg11
S'begin to query server, isBackground:true\n'
p925
sa(dp926
g2
S'28034'
p927
sg4
L1449906086570L
sg5
g35
sg7
S'global  '
p928
sg9
S'28121'
p929
sg11
S'call createSocket() return a new socket.\n'
p930
sa(dp931
g2
S'28034'
p932
sg4
L1449906093247L
sg5
g35
sg7
S'global  '
p933
sg9
S'28062'
p934
sg11
S'call createSocket() return a new socket.\n'
p935
sa(dp936
g2
S'28034'
p937
sg4
L1449906097631L
sg5
g6
sg7
S'com.netease.cloudmusic.utils.u'
p938
sg9
S'28121'
p939
sg11
S'11410ms on url: http://music.163.com/eapi/pl/count?backend=true\n'
p940
sa(dp941
g2
S'28034'
p942
sg4
L1449906097661L
sg5
g35
sg7
S'com.netease.cloudmusic.service.PushService'
p943
sg9
S'28121'
p944
sg11
S'background new message : PushMessage [code=200, at=0, notice=0, msg=2, follow=0, pushMsg=\xe4\xbd\xa0\xe6\x94\xb6\xe5\x88\xb0\xe4\xba\x862\xe6\x9d\xa1\xe6\xb6\x88\xe6\x81\xaf\xef\xbc\x9a2\xe6\x9d\xa1\xe7\xa7\x81\xe4\xbf\xa1, comment=0, event=0, pushMsgType=0, newFriendIsStar=false, celebrityCount=0, hasNewTheme=false, friend=null, count=0]\n'
p945
sa(dp946
g2
S'28034'
p947
sg4
L1449906154897L
sg5
g6
sg7
S'cn.edu.nju.ise.kikandroid'
p948
sg9
S'28191'
p949
sg11
S'Log:1449906154906\n'
p950
sa(dp951
g2
S'28034'
p952
sg4
L1449906154987L
sg5
g6
sg7
S'cn.edu.nju.ise.kikandroid'
p953
sg9
S'28191'
p954
sg11
S'Screenshot:1449906154996\n'
p955
sa(dp956
g2
S'28034'
p957
sg4
L1449906165227L
sg5
g81
sg7
S'dalvikvm'
p958
sg9
S'28191'
p959
sg11
S'threadid=41: thread exiting with uncaught exception (group=0x40cfe3a8)\n'
p960
sa(dp961
g2
S'28034'
p962
sg4
L1449906165287L
sg5
g6
sg7
S'bugrpt  '
p963
sg9
S'28191'
p964
sg11
S'sendReportsToServer begin\n'
p965
sa(dp966
g2
S'28034'
p967
sg4
L1449906165918L
sg5
g6
sg7
S'bugrpt  '
p968
sg9
S'29312'
p969
sg11
S'sendPostReq success\n'
p970
sa(dp971
g2
S'28034'
p972
sg4
L1449906165918L
sg5
g6
sg7
S'bugrpt  '
p973
sg9
S'28191'
p974
sg11
S'sendReportsToServer end\n'
p975
sa(dp976
g2
S'28034'
p977
sg4
L1449906166098L
sg5
S'E'
p978
sg7
S'AndroidRuntime'
p979
sg9
S'28191'
p980
sg11
S'FATAL EXCEPTION: Thread-25076\njava.lang.NullPointerException\n\tat android.app.Instrumentation.finish(Instrumentation.java:192)\n\tat cn.edu.nju.ise.kikandroid.AUTInstrument.quitInstr(AUTInstrument.java:195)\n\tat cn.edu.nju.ise.kikandroid.AUTInstrument.startServer(AUTInstrument.java:161)\n\tat cn.edu.nju.ise.kikandroid.AUTInstrument$1.run(AUTInstrument.java:107)\n\tat java.lang.Thread.run(Thread.java:864)\n'
p981
sa.