(lp0
(dp1
S'processID'
p2
S'25415'
p3
sS'SyscTime'
p4
L1449713120584L
sS'priority'
p5
S'W'
p6
sS'tag'
p7
S'ViewRootImpl'
p8
sS'threadID'
p9
S'0x6347'
p10
sS'message'
p11
S'Dropping event due to no window focus: KeyEvent { action=ACTION_DOWN, keyCode=KEYCODE_BACK, scanCode=158, metaState=0, flags=0x48, repeatCount=0, eventTime=767862565, downTime=767862565, deviceId=2, source=0x101 }\n'
p12
sa(dp13
g2
S'25415'
p14
sg4
L1449713124185L
sg5
S'E'
p15
sg7
S'ActivityThread'
p16
sg9
S'0x6347'
p17
sg11
S'Activity com.example.myfristandroid.MainActivity has leaked IntentReceiver com.example.myfristandroid.MainActivity$CmdReceiver@424e8098 that was originally registered here. Are you missing a call to unregisterReceiver()?\nandroid.app.IntentReceiverLeaked: Activity com.example.myfristandroid.MainActivity has leaked IntentReceiver com.example.myfristandroid.MainActivity$CmdReceiver@424e8098 that was originally registered here. Are you missing a call to unregisterReceiver()?\n\tat android.app.LoadedApk$ReceiverDispatcher.<init>(LoadedApk.java:825)\n\tat android.app.LoadedApk.getReceiverDispatcher(LoadedApk.java:596)\n\tat android.app.ContextImpl.registerReceiverInternal(ContextImpl.java:1429)\n\tat android.app.ContextImpl.registerReceiver(ContextImpl.java:1409)\n\tat android.app.ContextImpl.registerReceiver(ContextImpl.java:1403)\n\tat android.content.ContextWrapper.registerReceiver(ContextWrapper.java:461)\n\tat com.example.myfristandroid.MainActivity.onCreate(MainActivity.java:311)\n\tat android.app.Activity.performCreate(Activity.java:5270)\n\tat android.app.Instrumentation.callActivityOnCreate(Instrumentation.java:1153)\n\tat android.app.ActivityThread.performLaunchActivity(ActivityThread.java:2328)\n\tat android.app.ActivityThread.handleLaunchActivity(ActivityThread.java:2416)\n\tat android.app.ActivityThread.access$600(ActivityThread.java:175)\n\tat android.app.ActivityThread$H.handleMessage(ActivityThread.java:1386)\n\tat android.os.Handler.dispatchMessage(Handler.java:107)\n\tat android.os.Looper.loop(Looper.java:194)\n\tat android.app.ActivityThread.main(ActivityThread.java:5434)\n\tat java.lang.reflect.Method.invokeNative(Native Method)\n\tat java.lang.reflect.Method.invoke(Method.java:525)\n\tat com.android.internal.os.ZygoteInit$MethodAndArgsCaller.run(ZygoteInit.java:838)\n\tat com.android.internal.os.ZygoteInit.main(ZygoteInit.java:605)\n\tat dalvik.system.NativeStart.main(Native Method)\n'
p18
sa(dp19
g2
S'32484'
p20
sg4
L1449714280516L
sg5
g15
sg7
S'AndroidRuntime'
p21
sg9
S'0x7f4b'
p22
sg11
S'FATAL EXCEPTION: Thread-140194\njava.lang.NullPointerException\n\tat android.app.Instrumentation.finish(Instrumentation.java:204)\n\tat cn.edu.nju.ise.kikandroid.AUTInstrument.quitInstr(AUTInstrument.java:195)\n\tat cn.edu.nju.ise.kikandroid.AUTInstrument.startServer(AUTInstrument.java:161)\n\tat cn.edu.nju.ise.kikandroid.AUTInstrument$1.run(AUTInstrument.java:107)\n\tat java.lang.Thread.run(Thread.java:838)\n'
p23
sa(dp24
g2
S'20109'
p25
sg4
L1449715557263L
sg5
g15
sg7
S'ActivityThread'
p26
sg9
S'0x4e8d'
p27
sg11
S'Activity com.example.myfristandroid.MainActivity has leaked IntentReceiver com.example.myfristandroid.MainActivity$CmdReceiver@424f4970 that was originally registered here. Are you missing a call to unregisterReceiver()?\nandroid.app.IntentReceiverLeaked: Activity com.example.myfristandroid.MainActivity has leaked IntentReceiver com.example.myfristandroid.MainActivity$CmdReceiver@424f4970 that was originally registered here. Are you missing a call to unregisterReceiver()?\n\tat android.app.LoadedApk$ReceiverDispatcher.<init>(LoadedApk.java:825)\n\tat android.app.LoadedApk.getReceiverDispatcher(LoadedApk.java:596)\n\tat android.app.ContextImpl.registerReceiverInternal(ContextImpl.java:1429)\n\tat android.app.ContextImpl.registerReceiver(ContextImpl.java:1409)\n\tat android.app.ContextImpl.registerReceiver(ContextImpl.java:1403)\n\tat android.content.ContextWrapper.registerReceiver(ContextWrapper.java:461)\n\tat com.example.myfristandroid.MainActivity.onCreate(MainActivity.java:311)\n\tat android.app.Activity.performCreate(Activity.java:5270)\n\tat android.app.Instrumentation.callActivityOnCreate(Instrumentation.java:1153)\n\tat android.app.ActivityThread.performLaunchActivity(ActivityThread.java:2328)\n\tat android.app.ActivityThread.handleLaunchActivity(ActivityThread.java:2416)\n\tat android.app.ActivityThread.access$600(ActivityThread.java:175)\n\tat android.app.ActivityThread$H.handleMessage(ActivityThread.java:1386)\n\tat android.os.Handler.dispatchMessage(Handler.java:107)\n\tat android.os.Looper.loop(Looper.java:194)\n\tat android.app.ActivityThread.main(ActivityThread.java:5434)\n\tat java.lang.reflect.Method.invokeNative(Native Method)\n\tat java.lang.reflect.Method.invoke(Method.java:525)\n\tat com.android.internal.os.ZygoteInit$MethodAndArgsCaller.run(ZygoteInit.java:838)\n\tat com.android.internal.os.ZygoteInit.main(ZygoteInit.java:605)\n\tat dalvik.system.NativeStart.main(Native Method)\n'
p28
sa(dp29
g2
S'26978'
p30
sg4
L1449715938988L
sg5
g15
sg7
S'ActivityThread'
p31
sg9
S'0x6962'
p32
sg11
S'Activity com.example.myfristandroid.MainActivity has leaked IntentReceiver com.example.myfristandroid.MainActivity$CmdReceiver@424fcb88 that was originally registered here. Are you missing a call to unregisterReceiver()?\nandroid.app.IntentReceiverLeaked: Activity com.example.myfristandroid.MainActivity has leaked IntentReceiver com.example.myfristandroid.MainActivity$CmdReceiver@424fcb88 that was originally registered here. Are you missing a call to unregisterReceiver()?\n\tat android.app.LoadedApk$ReceiverDispatcher.<init>(LoadedApk.java:825)\n\tat android.app.LoadedApk.getReceiverDispatcher(LoadedApk.java:596)\n\tat android.app.ContextImpl.registerReceiverInternal(ContextImpl.java:1429)\n\tat android.app.ContextImpl.registerReceiver(ContextImpl.java:1409)\n\tat android.app.ContextImpl.registerReceiver(ContextImpl.java:1403)\n\tat android.content.ContextWrapper.registerReceiver(ContextWrapper.java:461)\n\tat com.example.myfristandroid.MainActivity.onCreate(MainActivity.java:311)\n\tat android.app.Activity.performCreate(Activity.java:5270)\n\tat android.app.Instrumentation.callActivityOnCreate(Instrumentation.java:1153)\n\tat android.app.ActivityThread.performLaunchActivity(ActivityThread.java:2328)\n\tat android.app.ActivityThread.handleLaunchActivity(ActivityThread.java:2416)\n\tat android.app.ActivityThread.access$600(ActivityThread.java:175)\n\tat android.app.ActivityThread$H.handleMessage(ActivityThread.java:1386)\n\tat android.os.Handler.dispatchMessage(Handler.java:107)\n\tat android.os.Looper.loop(Looper.java:194)\n\tat android.app.ActivityThread.main(ActivityThread.java:5434)\n\tat java.lang.reflect.Method.invokeNative(Native Method)\n\tat java.lang.reflect.Method.invoke(Method.java:525)\n\tat com.android.internal.os.ZygoteInit$MethodAndArgsCaller.run(ZygoteInit.java:838)\n\tat com.android.internal.os.ZygoteInit.main(ZygoteInit.java:605)\n\tat dalvik.system.NativeStart.main(Native Method)\n'
p33
sa(dp34
g2
S'30813'
p35
sg4
L1449716101839L
sg5
g15
sg7
S'ActivityThread'
p36
sg9
S'0x785d'
p37
sg11
S'Activity com.example.myfristandroid.MainActivity has leaked IntentReceiver com.example.myfristandroid.MainActivity$CmdReceiver@424fcb38 that was originally registered here. Are you missing a call to unregisterReceiver()?\nandroid.app.IntentReceiverLeaked: Activity com.example.myfristandroid.MainActivity has leaked IntentReceiver com.example.myfristandroid.MainActivity$CmdReceiver@424fcb38 that was originally registered here. Are you missing a call to unregisterReceiver()?\n\tat android.app.LoadedApk$ReceiverDispatcher.<init>(LoadedApk.java:825)\n\tat android.app.LoadedApk.getReceiverDispatcher(LoadedApk.java:596)\n\tat android.app.ContextImpl.registerReceiverInternal(ContextImpl.java:1429)\n\tat android.app.ContextImpl.registerReceiver(ContextImpl.java:1409)\n\tat android.app.ContextImpl.registerReceiver(ContextImpl.java:1403)\n\tat android.content.ContextWrapper.registerReceiver(ContextWrapper.java:461)\n\tat com.example.myfristandroid.MainActivity.onCreate(MainActivity.java:311)\n\tat android.app.Activity.performCreate(Activity.java:5270)\n\tat android.app.Instrumentation.callActivityOnCreate(Instrumentation.java:1153)\n\tat android.app.ActivityThread.performLaunchActivity(ActivityThread.java:2328)\n\tat android.app.ActivityThread.handleLaunchActivity(ActivityThread.java:2416)\n\tat android.app.ActivityThread.access$600(ActivityThread.java:175)\n\tat android.app.ActivityThread$H.handleMessage(ActivityThread.java:1386)\n\tat android.os.Handler.dispatchMessage(Handler.java:107)\n\tat android.os.Looper.loop(Looper.java:194)\n\tat android.app.ActivityThread.main(ActivityThread.java:5434)\n\tat java.lang.reflect.Method.invokeNative(Native Method)\n\tat java.lang.reflect.Method.invoke(Method.java:525)\n\tat com.android.internal.os.ZygoteInit$MethodAndArgsCaller.run(ZygoteInit.java:838)\n\tat com.android.internal.os.ZygoteInit.main(ZygoteInit.java:605)\n\tat dalvik.system.NativeStart.main(Native Method)\n'
p38
sa(dp39
g2
S'1187'
p40
sg4
L1449716156675L
sg5
g15
sg7
S'ActivityThread'
p41
sg9
S'0x4a3'
p42
sg11
S'Activity com.example.myfristandroid.MainActivity has leaked IntentReceiver com.example.myfristandroid.MainActivity$CmdReceiver@424f48c8 that was originally registered here. Are you missing a call to unregisterReceiver()?\nandroid.app.IntentReceiverLeaked: Activity com.example.myfristandroid.MainActivity has leaked IntentReceiver com.example.myfristandroid.MainActivity$CmdReceiver@424f48c8 that was originally registered here. Are you missing a call to unregisterReceiver()?\n\tat android.app.LoadedApk$ReceiverDispatcher.<init>(LoadedApk.java:825)\n\tat android.app.LoadedApk.getReceiverDispatcher(LoadedApk.java:596)\n\tat android.app.ContextImpl.registerReceiverInternal(ContextImpl.java:1429)\n\tat android.app.ContextImpl.registerReceiver(ContextImpl.java:1409)\n\tat android.app.ContextImpl.registerReceiver(ContextImpl.java:1403)\n\tat android.content.ContextWrapper.registerReceiver(ContextWrapper.java:461)\n\tat com.example.myfristandroid.MainActivity.onCreate(MainActivity.java:311)\n\tat android.app.Activity.performCreate(Activity.java:5270)\n\tat android.app.Instrumentation.callActivityOnCreate(Instrumentation.java:1153)\n\tat android.app.ActivityThread.performLaunchActivity(ActivityThread.java:2328)\n\tat android.app.ActivityThread.handleLaunchActivity(ActivityThread.java:2416)\n\tat android.app.ActivityThread.access$600(ActivityThread.java:175)\n\tat android.app.ActivityThread$H.handleMessage(ActivityThread.java:1386)\n\tat android.os.Handler.dispatchMessage(Handler.java:107)\n\tat android.os.Looper.loop(Looper.java:194)\n\tat android.app.ActivityThread.main(ActivityThread.java:5434)\n\tat java.lang.reflect.Method.invokeNative(Native Method)\n\tat java.lang.reflect.Method.invoke(Method.java:525)\n\tat com.android.internal.os.ZygoteInit$MethodAndArgsCaller.run(ZygoteInit.java:838)\n\tat com.android.internal.os.ZygoteInit.main(ZygoteInit.java:605)\n\tat dalvik.system.NativeStart.main(Native Method)\n'
p43
sa(dp44
g2
S'3644'
p45
sg4
L1449716903697L
sg5
g15
sg7
S'ActivityThread'
p46
sg9
S'0xe3c'
p47
sg11
S'Activity com.example.myfristandroid.MainActivity has leaked IntentReceiver com.example.myfristandroid.MainActivity$CmdReceiver@424fca60 that was originally registered here. Are you missing a call to unregisterReceiver()?\nandroid.app.IntentReceiverLeaked: Activity com.example.myfristandroid.MainActivity has leaked IntentReceiver com.example.myfristandroid.MainActivity$CmdReceiver@424fca60 that was originally registered here. Are you missing a call to unregisterReceiver()?\n\tat android.app.LoadedApk$ReceiverDispatcher.<init>(LoadedApk.java:825)\n\tat android.app.LoadedApk.getReceiverDispatcher(LoadedApk.java:596)\n\tat android.app.ContextImpl.registerReceiverInternal(ContextImpl.java:1429)\n\tat android.app.ContextImpl.registerReceiver(ContextImpl.java:1409)\n\tat android.app.ContextImpl.registerReceiver(ContextImpl.java:1403)\n\tat android.content.ContextWrapper.registerReceiver(ContextWrapper.java:461)\n\tat com.example.myfristandroid.MainActivity.onCreate(MainActivity.java:311)\n\tat android.app.Activity.performCreate(Activity.java:5270)\n\tat android.app.Instrumentation.callActivityOnCreate(Instrumentation.java:1153)\n\tat android.app.ActivityThread.performLaunchActivity(ActivityThread.java:2328)\n\tat android.app.ActivityThread.handleLaunchActivity(ActivityThread.java:2416)\n\tat android.app.ActivityThread.access$600(ActivityThread.java:175)\n\tat android.app.ActivityThread$H.handleMessage(ActivityThread.java:1386)\n\tat android.os.Handler.dispatchMessage(Handler.java:107)\n\tat android.os.Looper.loop(Looper.java:194)\n\tat android.app.ActivityThread.main(ActivityThread.java:5434)\n\tat java.lang.reflect.Method.invokeNative(Native Method)\n\tat java.lang.reflect.Method.invoke(Method.java:525)\n\tat com.android.internal.os.ZygoteInit$MethodAndArgsCaller.run(ZygoteInit.java:838)\n\tat com.android.internal.os.ZygoteInit.main(ZygoteInit.java:605)\n\tat dalvik.system.NativeStart.main(Native Method)\n'
p48
sa(dp49
g2
S'4445'
p50
sg4
L1449717007662L
sg5
g15
sg7
S'AndroidRuntime'
p51
sg9
S'0x11b2'
p52
sg11
S'FATAL EXCEPTION: Thread-142330\njava.lang.NullPointerException\n\tat android.app.Instrumentation.finish(Instrumentation.java:204)\n\tat cn.edu.nju.ise.kikandroid.AUTInstrument.quitInstr(AUTInstrument.java:195)\n\tat cn.edu.nju.ise.kikandroid.AUTInstrument.startServer(AUTInstrument.java:161)\n\tat cn.edu.nju.ise.kikandroid.AUTInstrument$1.run(AUTInstrument.java:107)\n\tat java.lang.Thread.run(Thread.java:838)\n'
p53
sa(dp54
g2
S'6099'
p55
sg4
L1449717255491L
sg5
g15
sg7
S'AndroidRuntime'
p56
sg9
S'0x1885'
p57
sg11
S'FATAL EXCEPTION: Thread-142422\njava.lang.NullPointerException\n\tat android.app.Instrumentation.finish(Instrumentation.java:204)\n\tat cn.edu.nju.ise.kikandroid.AUTInstrument.quitInstr(AUTInstrument.java:195)\n\tat cn.edu.nju.ise.kikandroid.AUTInstrument.startServer(AUTInstrument.java:161)\n\tat cn.edu.nju.ise.kikandroid.AUTInstrument$1.run(AUTInstrument.java:107)\n\tat java.lang.Thread.run(Thread.java:838)\n'
p58
sa(dp59
g2
S'7943'
p60
sg4
L1449717681564L
sg5
g15
sg7
S'AndroidRuntime'
p61
sg9
S'0x1f93'
p62
sg11
S'FATAL EXCEPTION: Thread-142521\njava.lang.NullPointerException\n\tat android.app.Instrumentation.finish(Instrumentation.java:204)\n\tat cn.edu.nju.ise.kikandroid.AUTInstrument.quitInstr(AUTInstrument.java:195)\n\tat cn.edu.nju.ise.kikandroid.AUTInstrument.startServer(AUTInstrument.java:161)\n\tat cn.edu.nju.ise.kikandroid.AUTInstrument$1.run(AUTInstrument.java:107)\n\tat java.lang.Thread.run(Thread.java:838)\n'
p63
sa(dp64
g2
S'18416'
p65
sg4
L1449718874610L
sg5
g15
sg7
S'AndroidRuntime'
p66
sg9
S'0x485d'
p67
sg11
S'FATAL EXCEPTION: Thread-143062\njava.lang.NullPointerException\n\tat android.app.Instrumentation.finish(Instrumentation.java:204)\n\tat cn.edu.nju.ise.kikandroid.AUTInstrument.quitInstr(AUTInstrument.java:195)\n\tat cn.edu.nju.ise.kikandroid.AUTInstrument.startServer(AUTInstrument.java:161)\n\tat cn.edu.nju.ise.kikandroid.AUTInstrument$1.run(AUTInstrument.java:107)\n\tat java.lang.Thread.run(Thread.java:838)\n'
p68
sa(dp69
g2
S'26377'
p70
sg4
L1449719575858L
sg5
S'D'
p71
sg7
S'cn.edu.nju.ise.kikandroid'
p72
sg9
S'0x676d'
p73
sg11
S'Screenshot:1449719575857\n'
p74
sa(dp75
g2
S'26377'
p76
sg4
L1449719577711L
sg5
g71
sg7
S'StrictMode'
p77
sg9
S'0x6709'
p78
sg11
S'StrictMode policy violation; ~duration=67 ms: android.os.StrictMode$StrictModeDiskReadViolation: policy=279 violation=2\n\tat android.os.StrictMode$AndroidBlockGuardPolicy.onReadFromDisk(StrictMode.java:1118)\n\tat libcore.io.BlockGuardOs.open(BlockGuardOs.java:106)\n\tat libcore.io.IoBridge.open(IoBridge.java:444)\n\tat java.io.FileInputStream.<init>(FileInputStream.java:78)\n\tat java.io.FileInputStream.<init>(FileInputStream.java:105)\n\tat java.io.FileReader.<init>(FileReader.java:66)\n\tat com.android.server.am.ActivityStack.readFileInt(ActivityStack.java:1165)\n\tat com.android.server.am.ActivityStack.startPausingLocked(ActivityStack.java:1403)\n\tat com.android.server.am.ActivityStack.finishActivityLocked(ActivityStack.java:4704)\n\tat com.android.server.am.ActivityStack.finishActivityLocked(ActivityStack.java:4632)\n\tat com.android.server.am.ActivityStack.requestFinishActivityLocked(ActivityStack.java:4548)\n\tat com.android.server.am.ActivityManagerService.finishActivity(ActivityManagerService.java:3231)\n\tat android.app.ActivityManagerNative.onTransact(ActivityManagerNative.java:259)\n\tat com.android.server.am.ActivityManagerService.onTransact(ActivityManagerService.java:1966)\n\tat android.os.Binder.execTransact(Binder.java:351)\n\tat dalvik.system.NativeStart.run(Native Method)\n# via Binder call with stack:\nandroid.os.StrictMode$LogStackTrace\n\tat android.os.StrictMode.readAndHandleBinderCallViolations(StrictMode.java:1700)\n\tat android.os.Parcel.readExceptionCode(Parcel.java:1407)\n\tat android.os.Parcel.readException(Parcel.java:1376)\n\tat android.app.ActivityManagerProxy.finishActivity(ActivityManagerNative.java:2120)\n\tat android.app.Activity.finish(Activity.java:4313)\n\tat com.example.myfristandroid.graphWebShow.onKeyDown(graphWebShow.java:146)\n\tat android.view.KeyEvent.dispatch(KeyEvent.java:2679)\n\tat android.app.Activity.dispatchKeyEvent(Activity.java:2443)\n\tat com.android.internal.policy.impl.PhoneWindow$DecorView.dispatchKeyEvent(PhoneWindow.java:1884)\n\tat android.view.ViewRootImpl.deliverKeyEventPostIme(ViewRootImpl.java:4275)\n\tat android.view.ViewRootImpl.handleImeFinishedEvent(ViewRootImpl.java:4218)\n\tat android.view.ViewRootImpl$ViewRootHandler.handleMessage(ViewRootImpl.java:3263)\n\tat android.os.Handler.dispatchMessage(Handler.java:107)\n\tat android.os.Looper.loop(Looper.java:194)\n\tat android.app.ActivityThread.main(ActivityThread.java:5434)\n\tat java.lang.reflect.Method.invokeNative(Native Method)\n\tat java.lang.reflect.Method.invoke(Method.java:525)\n\tat com.android.internal.os.ZygoteInit$MethodAndArgsCaller.run(ZygoteInit.java:838)\n\tat com.android.internal.os.ZygoteInit.main(ZygoteInit.java:605)\n\tat dalvik.system.NativeStart.main(Native Method)\n'
p79
sa(dp80
g2
S'26377'
p81
sg4
L1449719577711L
sg5
g71
sg7
S'StrictMode'
p82
sg9
S'0x6709'
p83
sg11
S'StrictMode policy violation; ~duration=64 ms: android.os.StrictMode$StrictModeDiskReadViolation: policy=279 violation=2\n\tat android.os.StrictMode$AndroidBlockGuardPolicy.onReadFromDisk(StrictMode.java:1118)\n\tat libcore.io.BlockGuardOs.read(BlockGuardOs.java:148)\n\tat libcore.io.IoBridge.read(IoBridge.java:476)\n\tat java.io.FileInputStream.read(FileInputStream.java:179)\n\tat java.io.InputStreamReader.read(InputStreamReader.java:233)\n\tat java.io.BufferedReader.fillBuf(BufferedReader.java:145)\n\tat java.io.BufferedReader.readLine(BufferedReader.java:397)\n\tat com.android.server.am.ActivityStack.readFileInt(ActivityStack.java:1167)\n\tat com.android.server.am.ActivityStack.startPausingLocked(ActivityStack.java:1403)\n\tat com.android.server.am.ActivityStack.finishActivityLocked(ActivityStack.java:4704)\n\tat com.android.server.am.ActivityStack.finishActivityLocked(ActivityStack.java:4632)\n\tat com.android.server.am.ActivityStack.requestFinishActivityLocked(ActivityStack.java:4548)\n\tat com.android.server.am.ActivityManagerService.finishActivity(ActivityManagerService.java:3231)\n\tat android.app.ActivityManagerNative.onTransact(ActivityManagerNative.java:259)\n\tat com.android.server.am.ActivityManagerService.onTransact(ActivityManagerService.java:1966)\n\tat android.os.Binder.execTransact(Binder.java:351)\n\tat dalvik.system.NativeStart.run(Native Method)\n# via Binder call with stack:\nandroid.os.StrictMode$LogStackTrace\n\tat android.os.StrictMode.readAndHandleBinderCallViolations(StrictMode.java:1700)\n\tat android.os.Parcel.readExceptionCode(Parcel.java:1407)\n\tat android.os.Parcel.readException(Parcel.java:1376)\n\tat android.app.ActivityManagerProxy.finishActivity(ActivityManagerNative.java:2120)\n\tat android.app.Activity.finish(Activity.java:4313)\n\tat com.example.myfristandroid.graphWebShow.onKeyDown(graphWebShow.java:146)\n\tat android.view.KeyEvent.dispatch(KeyEvent.java:2679)\n\tat android.app.Activity.dispatchKeyEvent(Activity.java:2443)\n\tat com.android.internal.policy.impl.PhoneWindow$DecorView.dispatchKeyEvent(PhoneWindow.java:1884)\n\tat android.view.ViewRootImpl.deliverKeyEventPostIme(ViewRootImpl.java:4275)\n\tat android.view.ViewRootImpl.handleImeFinishedEvent(ViewRootImpl.java:4218)\n\tat android.view.ViewRootImpl$ViewRootHandler.handleMessage(ViewRootImpl.java:3263)\n\tat android.os.Handler.dispatchMessage(Handler.java:107)\n\tat android.os.Looper.loop(Looper.java:194)\n\tat android.app.ActivityThread.main(ActivityThread.java:5434)\n\tat java.lang.reflect.Method.invokeNative(Native Method)\n\tat java.lang.reflect.Method.invoke(Method.java:525)\n\tat com.android.internal.os.ZygoteInit$MethodAndArgsCaller.run(ZygoteInit.java:838)\n\tat com.android.internal.os.ZygoteInit.main(ZygoteInit.java:605)\n\tat dalvik.system.NativeStart.main(Native Method)\n'
p84
sa(dp85
g2
S'26377'
p86
sg4
L1449719577901L
sg5
g71
sg7
S'StrictMode'
p87
sg9
S'0x6709'
p88
sg11
S'StrictMode policy violation; ~duration=36 ms: android.os.StrictMode$StrictModeDiskWriteViolation: policy=279 violation=1\n\tat android.os.StrictMode$AndroidBlockGuardPolicy.onWriteToDisk(StrictMode.java:1092)\n\tat libcore.io.BlockGuardOs.write(BlockGuardOs.java:196)\n\tat libcore.io.IoBridge.write(IoBridge.java:501)\n\tat java.io.FileOutputStream.write(FileOutputStream.java:187)\n\tat java.io.OutputStreamWriter.flushBytes(OutputStreamWriter.java:167)\n\tat java.io.OutputStreamWriter.flush(OutputStreamWriter.java:158)\n\tat com.mediatek.common.thermal.MtkThermalSwitchManager.execShellCommand(MtkThermalSwitchManager.java:142)\n\tat com.mediatek.common.thermal.MtkThermalSwitchManager.changeToDynamicThermalManagement(MtkThermalSwitchManager.java:411)\n\tat com.mediatek.common.thermal.MtkThermalSwitchManager.notifyAppState(MtkThermalSwitchManager.java:125)\n\tat com.android.server.am.ActivityManagerService.reportResumedActivityLocked(ActivityManagerService.java:2824)\n\tat com.android.server.am.ActivityStack.completeResumeLocked(ActivityStack.java:1743)\n\tat com.android.server.am.ActivityStack.resumeTopActivityLocked(ActivityStack.java:2454)\n\tat com.android.server.am.ActivityStack.resumeTopActivityLocked(ActivityStack.java:1942)\n\tat com.android.server.am.ActivityStack.completePauseLocked(ActivityStack.java:1672)\n\tat com.android.server.am.ActivityStack.activityPaused(ActivityStack.java:1533)\n\tat com.android.server.am.ActivityManagerService.activityPaused(ActivityManagerService.java:5673)\n\tat android.app.ActivityManagerNative.onTransact(ActivityManagerNative.java:419)\n\tat com.android.server.am.ActivityManagerService.onTransact(ActivityManagerService.java:1966)\n\tat android.os.Binder.execTransact(Binder.java:351)\n\tat com.android.server.SystemServer.init1(Native Method)\n\tat com.android.server.SystemServer.main(SystemServer.java:1425)\n\tat java.lang.reflect.Method.invokeNative(Native Method)\n\tat java.lang.reflect.Method.invoke(Method.java:525)\n\tat com.android.internal.os.ZygoteInit$MethodAndArgsCaller.run(ZygoteInit.java:838)\n\tat com.android.internal.os.ZygoteInit.main(ZygoteInit.java:605)\n\tat dalvik.system.NativeStart.main(Native Method)\n# via Binder call with stack:\nandroid.os.StrictMode$LogStackTrace\n\tat android.os.StrictMode.readAndHandleBinderCallViolations(StrictMode.java:1700)\n\tat android.os.Parcel.readExceptionCode(Parcel.java:1407)\n\tat android.os.Parcel.readException(Parcel.java:1376)\n\tat android.app.ActivityManagerProxy.activityPaused(ActivityManagerNative.java:2302)\n\tat android.app.ActivityThread.handlePauseActivity(ActivityThread.java:3182)\n\tat android.app.ActivityThread.access$800(ActivityThread.java:175)\n\tat android.app.ActivityThread$H.handleMessage(ActivityThread.java:1403)\n\tat android.os.Handler.dispatchMessage(Handler.java:107)\n\tat android.os.Looper.loop(Looper.java:194)\n\tat android.app.ActivityThread.main(ActivityThread.java:5434)\n\tat java.lang.reflect.Method.invokeNative(Native Method)\n\tat java.lang.reflect.Method.invoke(Method.java:525)\n\tat com.android.internal.os.ZygoteInit$MethodAndArgsCaller.run(ZygoteInit.java:838)\n\tat com.android.internal.os.ZygoteInit.main(ZygoteInit.java:605)\n\tat dalvik.system.NativeStart.main(Native Method)\n'
p89
sa(dp90
g2
S'26377'
p91
sg4
L1449719578898L
sg5
g71
sg7
S'StrictMode'
p92
sg9
S'0x6709'
p93
sg11
S'StrictMode policy violation; ~duration=60 ms: android.os.StrictMode$StrictModeDiskReadViolation: policy=279 violation=2\n\tat android.os.StrictMode$AndroidBlockGuardPolicy.onReadFromDisk(StrictMode.java:1118)\n\tat libcore.io.BlockGuardOs.open(BlockGuardOs.java:106)\n\tat libcore.io.IoBridge.open(IoBridge.java:444)\n\tat java.io.FileInputStream.<init>(FileInputStream.java:78)\n\tat java.io.FileInputStream.<init>(FileInputStream.java:105)\n\tat java.io.FileReader.<init>(FileReader.java:66)\n\tat com.android.server.am.ActivityStack.readFileInt(ActivityStack.java:1165)\n\tat com.android.server.am.ActivityStack.startPausingLocked(ActivityStack.java:1403)\n\tat com.android.server.am.ActivityStack.resumeTopActivityLocked(ActivityStack.java:2203)\n\tat com.android.server.am.ActivityStack.resumeTopActivityLocked(ActivityStack.java:1942)\n\tat com.android.server.am.ActivityStack.startActivityLocked(ActivityStack.java:2646)\n\tat com.android.server.am.ActivityStack.startActivityUncheckedLocked(ActivityStack.java:3843)\n\tat com.android.server.am.ActivityStack.startActivityLocked(ActivityStack.java:3373)\n\tat com.android.server.am.ActivityStack.startActivityMayWait(ActivityStack.java:4040)\n\tat com.android.server.am.ActivityManagerService.startActivityAsUser(ActivityManagerService.java:2938)\n\tat com.android.server.am.ActivityManagerService.startActivity(ActivityManagerService.java:2906)\n\tat android.app.ActivityManagerNative.onTransact(ActivityManagerNative.java:132)\n\tat com.android.server.am.ActivityManagerService.onTransact(ActivityManagerService.java:1966)\n\tat android.os.Binder.execTransact(Binder.java:351)\n\tat dalvik.system.NativeStart.run(Native Method)\n# via Binder call with stack:\nandroid.os.StrictMode$LogStackTrace\n\tat android.os.StrictMode.readAndHandleBinderCallViolations(StrictMode.java:1700)\n\tat android.os.Parcel.readExceptionCode(Parcel.java:1407)\n\tat android.os.Parcel.readException(Parcel.java:1376)\n\tat android.app.ActivityManagerProxy.startActivity(ActivityManagerNative.java:1945)\n\tat android.app.Instrumentation.execStartActivity(Instrumentation.java:1491)\n\tat android.app.Activity.startActivityForResult(Activity.java:3536)\n\tat android.app.Activity.startActivityForResult(Activity.java:3399)\n\tat android.app.Activity.startActivity(Activity.java:3732)\n\tat android.app.Activity.startActivity(Activity.java:3700)\n\tat com.example.myfristandroid.MainActivity$2.onItemClick(MainActivity.java:407)\n\tat android.widget.AdapterView.performItemClick(AdapterView.java:307)\n\tat android.widget.AbsListView.performItemClick(AbsListView.java:1173)\n\tat android.widget.AbsListView$PerformClick.run(AbsListView.java:2934)\n\tat android.os.Handler.handleCallback(Handler.java:800)\n\tat android.os.Handler.dispatchMessage(Handler.java:100)\n\tat android.os.Looper.loop(Looper.java:194)\n\tat android.app.ActivityThread.main(ActivityThread.java:5434)\n\tat java.lang.reflect.Method.invokeNative(Native Method)\n\tat java.lang.reflect.Method.invoke(Method.java:525)\n\tat com.android.internal.os.ZygoteInit$MethodAndArgsCaller.run(ZygoteInit.java:838)\n\tat com.android.internal.os.ZygoteInit.main(ZygoteInit.java:605)\n\tat dalvik.system.NativeStart.main(Native Method)\n'
p94
sa(dp95
g2
S'26377'
p96
sg4
L1449719578898L
sg5
g71
sg7
S'StrictMode'
p97
sg9
S'0x6709'
p98
sg11
S'StrictMode policy violation; ~duration=59 ms: android.os.StrictMode$StrictModeDiskReadViolation: policy=279 violation=2\n\tat android.os.StrictMode$AndroidBlockGuardPolicy.onReadFromDisk(StrictMode.java:1118)\n\tat libcore.io.BlockGuardOs.read(BlockGuardOs.java:148)\n\tat libcore.io.IoBridge.read(IoBridge.java:476)\n\tat java.io.FileInputStream.read(FileInputStream.java:179)\n\tat java.io.InputStreamReader.read(InputStreamReader.java:233)\n\tat java.io.BufferedReader.fillBuf(BufferedReader.java:145)\n\tat java.io.BufferedReader.readLine(BufferedReader.java:397)\n\tat com.android.server.am.ActivityStack.readFileInt(ActivityStack.java:1167)\n\tat com.android.server.am.ActivityStack.startPausingLocked(ActivityStack.java:1403)\n\tat com.android.server.am.ActivityStack.resumeTopActivityLocked(ActivityStack.java:2203)\n\tat com.android.server.am.ActivityStack.resumeTopActivityLocked(ActivityStack.java:1942)\n\tat com.android.server.am.ActivityStack.startActivityLocked(ActivityStack.java:2646)\n\tat com.android.server.am.ActivityStack.startActivityUncheckedLocked(ActivityStack.java:3843)\n\tat com.android.server.am.ActivityStack.startActivityLocked(ActivityStack.java:3373)\n\tat com.android.server.am.ActivityStack.startActivityMayWait(ActivityStack.java:4040)\n\tat com.android.server.am.ActivityManagerService.startActivityAsUser(ActivityManagerService.java:2938)\n\tat com.android.server.am.ActivityManagerService.startActivity(ActivityManagerService.java:2906)\n\tat android.app.ActivityManagerNative.onTransact(ActivityManagerNative.java:132)\n\tat com.android.server.am.ActivityManagerService.onTransact(ActivityManagerService.java:1966)\n\tat android.os.Binder.execTransact(Binder.java:351)\n\tat dalvik.system.NativeStart.run(Native Method)\n# via Binder call with stack:\nandroid.os.StrictMode$LogStackTrace\n\tat android.os.StrictMode.readAndHandleBinderCallViolations(StrictMode.java:1700)\n\tat android.os.Parcel.readExceptionCode(Parcel.java:1407)\n\tat android.os.Parcel.readException(Parcel.java:1376)\n\tat android.app.ActivityManagerProxy.startActivity(ActivityManagerNative.java:1945)\n\tat android.app.Instrumentation.execStartActivity(Instrumentation.java:1491)\n\tat android.app.Activity.startActivityForResult(Activity.java:3536)\n\tat android.app.Activity.startActivityForResult(Activity.java:3399)\n\tat android.app.Activity.startActivity(Activity.java:3732)\n\tat android.app.Activity.startActivity(Activity.java:3700)\n\tat com.example.myfristandroid.MainActivity$2.onItemClick(MainActivity.java:407)\n\tat android.widget.AdapterView.performItemClick(AdapterView.java:307)\n\tat android.widget.AbsListView.performItemClick(AbsListView.java:1173)\n\tat android.widget.AbsListView$PerformClick.run(AbsListView.java:2934)\n\tat android.os.Handler.handleCallback(Handler.java:800)\n\tat android.os.Handler.dispatchMessage(Handler.java:100)\n\tat android.os.Looper.loop(Looper.java:194)\n\tat android.app.ActivityThread.main(ActivityThread.java:5434)\n\tat java.lang.reflect.Method.invokeNative(Native Method)\n\tat java.lang.reflect.Method.invoke(Method.java:525)\n\tat com.android.internal.os.ZygoteInit$MethodAndArgsCaller.run(ZygoteInit.java:838)\n\tat com.android.internal.os.ZygoteInit.main(ZygoteInit.java:605)\n\tat dalvik.system.NativeStart.main(Native Method)\n'
p99
sa(dp100
g2
S'26377'
p101
sg4
L1449719578981L
sg5
g71
sg7
S'StrictMode'
p102
sg9
S'0x6709'
p103
sg11
S'StrictMode policy violation; ~duration=81 ms: android.os.StrictMode$StrictModeDiskReadViolation: policy=279 violation=2\n\tat android.os.StrictMode$AndroidBlockGuardPolicy.onReadFromDisk(StrictMode.java:1118)\n\tat libcore.io.BlockGuardOs.open(BlockGuardOs.java:106)\n\tat libcore.io.IoBridge.open(IoBridge.java:444)\n\tat java.io.FileOutputStream.<init>(FileOutputStream.java:88)\n\tat java.io.FileOutputStream.<init>(FileOutputStream.java:128)\n\tat java.io.FileOutputStream.<init>(FileOutputStream.java:117)\n\tat com.android.server.am.ActivityStack.startSpecificActivityLocked(ActivityStack.java:1205)\n\tat com.android.server.am.ActivityStack.resumeTopActivityLocked(ActivityStack.java:2481)\n\tat com.android.server.am.ActivityStack.resumeTopActivityLocked(ActivityStack.java:1942)\n\tat com.android.server.am.ActivityStack.completePauseLocked(ActivityStack.java:1672)\n\tat com.android.server.am.ActivityStack.activityPaused(ActivityStack.java:1533)\n\tat com.android.server.am.ActivityManagerService.activityPaused(ActivityManagerService.java:5673)\n\tat android.app.ActivityManagerNative.onTransact(ActivityManagerNative.java:419)\n\tat com.android.server.am.ActivityManagerService.onTransact(ActivityManagerService.java:1966)\n\tat android.os.Binder.execTransact(Binder.java:351)\n\tat dalvik.system.NativeStart.run(Native Method)\n# via Binder call with stack:\nandroid.os.StrictMode$LogStackTrace\n\tat android.os.StrictMode.readAndHandleBinderCallViolations(StrictMode.java:1700)\n\tat android.os.Parcel.readExceptionCode(Parcel.java:1407)\n\tat android.os.Parcel.readException(Parcel.java:1376)\n\tat android.app.ActivityManagerProxy.activityPaused(ActivityManagerNative.java:2302)\n\tat android.app.ActivityThread.handlePauseActivity(ActivityThread.java:3182)\n\tat android.app.ActivityThread.access$800(ActivityThread.java:175)\n\tat android.app.ActivityThread$H.handleMessage(ActivityThread.java:1397)\n\tat android.os.Handler.dispatchMessage(Handler.java:107)\n\tat android.os.Looper.loop(Looper.java:194)\n\tat android.app.ActivityThread.main(ActivityThread.java:5434)\n\tat java.lang.reflect.Method.invokeNative(Native Method)\n\tat java.lang.reflect.Method.invoke(Method.java:525)\n\tat com.android.internal.os.ZygoteInit$MethodAndArgsCaller.run(ZygoteInit.java:838)\n\tat com.android.internal.os.ZygoteInit.main(ZygoteInit.java:605)\n\tat dalvik.system.NativeStart.main(Native Method)\n'
p104
sa(dp105
g2
S'26377'
p106
sg4
L1449719578982L
sg5
g71
sg7
S'StrictMode'
p107
sg9
S'0x6709'
p108
sg11
S'StrictMode policy violation; ~duration=30 ms: android.os.StrictMode$StrictModeDiskWriteViolation: policy=279 violation=1\n\tat android.os.StrictMode$AndroidBlockGuardPolicy.onWriteToDisk(StrictMode.java:1092)\n\tat libcore.io.BlockGuardOs.write(BlockGuardOs.java:196)\n\tat libcore.io.IoBridge.write(IoBridge.java:501)\n\tat java.io.FileOutputStream.write(FileOutputStream.java:187)\n\tat java.io.OutputStreamWriter.flushBytes(OutputStreamWriter.java:167)\n\tat java.io.OutputStreamWriter.flush(OutputStreamWriter.java:158)\n\tat com.mediatek.common.thermal.MtkThermalSwitchManager.execShellCommand(MtkThermalSwitchManager.java:142)\n\tat com.mediatek.common.thermal.MtkThermalSwitchManager.changeToDynamicThermalManagement(MtkThermalSwitchManager.java:411)\n\tat com.mediatek.common.thermal.MtkThermalSwitchManager.notifyAppState(MtkThermalSwitchManager.java:125)\n\tat com.android.server.am.ActivityManagerService.reportResumedActivityLocked(ActivityManagerService.java:2824)\n\tat com.android.server.am.ActivityStack.completeResumeLocked(ActivityStack.java:1743)\n\tat com.android.server.am.ActivityStack.realStartActivityLocked(ActivityStack.java:1063)\n\tat com.android.server.am.ActivityStack.startSpecificActivityLocked(ActivityStack.java:1226)\n\tat com.android.server.am.ActivityStack.resumeTopActivityLocked(ActivityStack.java:2481)\n\tat com.android.server.am.ActivityStack.resumeTopActivityLocked(ActivityStack.java:1942)\n\tat com.android.server.am.ActivityStack.completePauseLocked(ActivityStack.java:1672)\n\tat com.android.server.am.ActivityStack.activityPaused(ActivityStack.java:1533)\n\tat com.android.server.am.ActivityManagerService.activityPaused(ActivityManagerService.java:5673)\n\tat android.app.ActivityManagerNative.onTransact(ActivityManagerNative.java:419)\n\tat com.android.server.am.ActivityManagerService.onTransact(ActivityManagerService.java:1966)\n\tat android.os.Binder.execTransact(Binder.java:351)\n\tat dalvik.system.NativeStart.run(Native Method)\n# via Binder call with stack:\nandroid.os.StrictMode$LogStackTrace\n\tat android.os.StrictMode.readAndHandleBinderCallViolations(StrictMode.java:1700)\n\tat android.os.Parcel.readExceptionCode(Parcel.java:1407)\n\tat android.os.Parcel.readException(Parcel.java:1376)\n\tat android.app.ActivityManagerProxy.activityPaused(ActivityManagerNative.java:2302)\n\tat android.app.ActivityThread.handlePauseActivity(ActivityThread.java:3182)\n\tat android.app.ActivityThread.access$800(ActivityThread.java:175)\n\tat android.app.ActivityThread$H.handleMessage(ActivityThread.java:1397)\n\tat android.os.Handler.dispatchMessage(Handler.java:107)\n\tat android.os.Looper.loop(Looper.java:194)\n\tat android.app.ActivityThread.main(ActivityThread.java:5434)\n\tat java.lang.reflect.Method.invokeNative(Native Method)\n\tat java.lang.reflect.Method.invoke(Method.java:525)\n\tat com.android.internal.os.ZygoteInit$MethodAndArgsCaller.run(ZygoteInit.java:838)\n\tat com.android.internal.os.ZygoteInit.main(ZygoteInit.java:605)\n\tat dalvik.system.NativeStart.main(Native Method)\n'
p109
sa(dp110
g2
S'26377'
p111
sg4
L1449719579054L
sg5
S'I'
p112
sg7
S'v8      '
p113
sg9
S'0x67d1'
p114
sg11
S'[26377]    15576 ms:  Scavenge 3.0 (13.2) -> 2.8 (13.2) MB, 13 ms [allocation failure].\n'
p115
sa(dp116
g2
S'26377'
p117
sg4
L1449719579081L
sg5
g71
sg7
S'WebCore/XMLHttpRequest'
p118
sg9
S'0x67d1'
p119
sg11
S'changeState, from 0 to 1\n'
p120
sa(dp121
g2
S'26377'
p122
sg4
L1449719579081L
sg5
g71
sg7
S'WebCore/XMLHttpRequest'
p123
sg9
S'0x67d1'
p124
sg11
S'callReadyStateChangeListener\n'
p125
sa(dp126
g2
S'26377'
p127
sg4
L1449719579082L
sg5
g71
sg7
S'WebCore/XMLHttpRequest'
p128
sg9
S'0x67d1'
p129
sg11
S'readyState = 1\n'
p130
sa(dp131
g2
S'26377'
p132
sg4
L1449719579097L
sg5
g71
sg7
S'Canvas  '
p133
sg9
S'0x67d1'
p134
sg11
S'[HTMLCanvasElement::setSurfaceSize] size=[0,0]\n'
p135
sa(dp136
g2
S'26377'
p137
sg4
L1449719579108L
sg5
g71
sg7
S'WebCore/XMLHttpRequest'
p138
sg9
S'0x67d1'
p139
sg11
S'changeState, from 0 to 1\n'
p140
sa(dp141
g2
S'26377'
p142
sg4
L1449719579108L
sg5
g71
sg7
S'WebCore/XMLHttpRequest'
p143
sg9
S'0x67d1'
p144
sg11
S'callReadyStateChangeListener\n'
p145
sa(dp146
g2
S'26377'
p147
sg4
L1449719579132L
sg5
g71
sg7
S'WebCore/XMLHttpRequest'
p148
sg9
S'0x67d1'
p149
sg11
S'changeState, from 1 to 2\n'
p150
sa(dp151
g2
S'26377'
p152
sg4
L1449719579132L
sg5
g71
sg7
S'WebCore/XMLHttpRequest'
p153
sg9
S'0x67d1'
p154
sg11
S'callReadyStateChangeListener\n'
p155
sa(dp156
g2
S'26377'
p157
sg4
L1449719579137L
sg5
g71
sg7
S'WebCore/XMLHttpRequest'
p158
sg9
S'0x67d1'
p159
sg11
S'changeState, from 2 to 3\n'
p160
sa(dp161
g2
S'26377'
p162
sg4
L1449719579137L
sg5
g71
sg7
S'WebCore/XMLHttpRequest'
p163
sg9
S'0x67d1'
p164
sg11
S'callReadyStateChangeListener\n'
p165
sa(dp166
g2
S'26377'
p167
sg4
L1449719579138L
sg5
g71
sg7
S'WebCore/XMLHttpRequest'
p168
sg9
S'0x67d1'
p169
sg11
S'changeState, from 3 to 4\n'
p170
sa(dp171
g2
S'26377'
p172
sg4
L1449719579138L
sg5
g71
sg7
S'WebCore/XMLHttpRequest'
p173
sg9
S'0x67d1'
p174
sg11
S'callReadyStateChangeListener\n'
p175
sa(dp176
g2
S'26377'
p177
sg4
L1449719579367L
sg5
g71
sg7
S'WebCore/XMLHttpRequest'
p178
sg9
S'0x67d1'
p179
sg11
S'changeState, from 0 to 1\n'
p180
sa(dp181
g2
S'26377'
p182
sg4
L1449719579367L
sg5
g71
sg7
S'WebCore/XMLHttpRequest'
p183
sg9
S'0x67d1'
p184
sg11
S'callReadyStateChangeListener\n'
p185
sa(dp186
g2
S'26377'
p187
sg4
L1449719579372L
sg5
g71
sg7
S'WebCore/XMLHttpRequest'
p188
sg9
S'0x67d1'
p189
sg11
S'changeState, from 1 to 2\n'
p190
sa(dp191
g2
S'26377'
p192
sg4
L1449719579372L
sg5
g71
sg7
S'WebCore/XMLHttpRequest'
p193
sg9
S'0x67d1'
p194
sg11
S'callReadyStateChangeListener\n'
p195
sa(dp196
g2
S'26377'
p197
sg4
L1449719579373L
sg5
g71
sg7
S'WebCore/XMLHttpRequest'
p198
sg9
S'0x67d1'
p199
sg11
S'changeState, from 2 to 3\n'
p200
sa(dp201
g2
S'26377'
p202
sg4
L1449719579373L
sg5
g71
sg7
S'WebCore/XMLHttpRequest'
p203
sg9
S'0x67d1'
p204
sg11
S'callReadyStateChangeListener\n'
p205
sa(dp206
g2
S'26377'
p207
sg4
L1449719579373L
sg5
g71
sg7
S'WebCore/XMLHttpRequest'
p208
sg9
S'0x67d1'
p209
sg11
S'changeState, from 3 to 4\n'
p210
sa(dp211
g2
S'26377'
p212
sg4
L1449719579454L
sg5
g71
sg7
S'MainActivity'
p213
sg9
S'0x67d1'
p214
sg11
S'h:774.256,w:1432\n'
p215
sa(dp216
g2
S'26377'
p217
sg4
L1449719579623L
sg5
g71
sg7
S'WebCore/XMLHttpRequest'
p218
sg9
S'0x67d1'
p219
sg11
S'changeState, from 1 to 2\n'
p220
sa(dp221
g2
S'26377'
p222
sg4
L1449719579623L
sg5
g71
sg7
S'WebCore/XMLHttpRequest'
p223
sg9
S'0x67d1'
p224
sg11
S'callReadyStateChangeListener\n'
p225
sa(dp226
g2
S'26377'
p227
sg4
L1449719579623L
sg5
g71
sg7
S'WebCore/XMLHttpRequest'
p228
sg9
S'0x67d1'
p229
sg11
S'readyState = 2\n'
p230
sa(dp231
g2
S'26377'
p232
sg4
L1449719579623L
sg5
g71
sg7
S'WebCore/XMLHttpRequest'
p233
sg9
S'0x67d1'
p234
sg11
S'changeState, from 2 to 3\n'
p235
sa(dp236
g2
S'26377'
p237
sg4
L1449719579623L
sg5
g71
sg7
S'WebCore/XMLHttpRequest'
p238
sg9
S'0x67d1'
p239
sg11
S'readyState = 3\n'
p240
sa(dp241
g2
S'26377'
p242
sg4
L1449719579623L
sg5
g71
sg7
S'WebCore/XMLHttpRequest'
p243
sg9
S'0x67d1'
p244
sg11
S'changeState, from 3 to 4\n'
p245
sa(dp246
g2
S'26377'
p247
sg4
L1449719579623L
sg5
g71
sg7
S'WebCore/XMLHttpRequest'
p248
sg9
S'0x67d1'
p249
sg11
S'readyState = 4\n'
p250
sa(dp251
g2
S'26377'
p252
sg4
L1449719579633L
sg5
g71
sg7
S'WebCore/XMLHttpRequest'
p253
sg9
S'0x67d1'
p254
sg11
S'changeState, from 0 to 1\n'
p255
sa(dp256
g2
S'26377'
p257
sg4
L1449719579633L
sg5
g71
sg7
S'WebCore/XMLHttpRequest'
p258
sg9
S'0x67d1'
p259
sg11
S'callReadyStateChangeListener\n'
p260
sa(dp261
g2
S'26377'
p262
sg4
L1449719579633L
sg5
g71
sg7
S'WebCore/XMLHttpRequest'
p263
sg9
S'0x67d1'
p264
sg11
S'readyState = 1\n'
p265
sa(dp266
g2
S'26377'
p267
sg4
L1449719579651L
sg5
g71
sg7
S'WebCore/XMLHttpRequest'
p268
sg9
S'0x67d1'
p269
sg11
S'changeState, from 1 to 2\n'
p270
sa(dp271
g2
S'26377'
p272
sg4
L1449719579652L
sg5
g71
sg7
S'WebCore/XMLHttpRequest'
p273
sg9
S'0x67d1'
p274
sg11
S'callReadyStateChangeListener\n'
p275
sa(dp276
g2
S'26377'
p277
sg4
L1449719579652L
sg5
g71
sg7
S'WebCore/XMLHttpRequest'
p278
sg9
S'0x67d1'
p279
sg11
S'readyState = 2\n'
p280
sa(dp281
g2
S'26377'
p282
sg4
L1449719579652L
sg5
g71
sg7
S'WebCore/XMLHttpRequest'
p283
sg9
S'0x67d1'
p284
sg11
S'changeState, from 2 to 3\n'
p285
sa(dp286
g2
S'26377'
p287
sg4
L1449719579652L
sg5
g71
sg7
S'WebCore/XMLHttpRequest'
p288
sg9
S'0x67d1'
p289
sg11
S'readyState = 3\n'
p290
sa(dp291
g2
S'26377'
p292
sg4
L1449719579652L
sg5
g71
sg7
S'WebCore/XMLHttpRequest'
p293
sg9
S'0x67d1'
p294
sg11
S'changeState, from 3 to 4\n'
p295
sa(dp296
g2
S'26377'
p297
sg4
L1449719579652L
sg5
g71
sg7
S'WebCore/XMLHttpRequest'
p298
sg9
S'0x67d1'
p299
sg11
S'readyState = 4\n'
p300
sa(dp301
g2
S'26377'
p302
sg4
L1449719579718L
sg5
g71
sg7
S'WebCore/XMLHttpRequest'
p303
sg9
S'0x67d1'
p304
sg11
S'changeState, from 0 to 1\n'
p305
sa(dp306
g2
S'26377'
p307
sg4
L1449719579718L
sg5
g71
sg7
S'WebCore/XMLHttpRequest'
p308
sg9
S'0x67d1'
p309
sg11
S'callReadyStateChangeListener\n'
p310
sa(dp311
g2
S'26377'
p312
sg4
L1449719579718L
sg5
g71
sg7
S'WebCore/XMLHttpRequest'
p313
sg9
S'0x67d1'
p314
sg11
S'readyState = 1\n'
p315
sa(dp316
g2
S'26377'
p317
sg4
L1449719579738L
sg5
g71
sg7
S'WebCore/XMLHttpRequest'
p318
sg9
S'0x67d1'
p319
sg11
S'changeState, from 1 to 2\n'
p320
sa(dp321
g2
S'26377'
p322
sg4
L1449719579738L
sg5
g71
sg7
S'WebCore/XMLHttpRequest'
p323
sg9
S'0x67d1'
p324
sg11
S'callReadyStateChangeListener\n'
p325
sa(dp326
g2
S'26377'
p327
sg4
L1449719579739L
sg5
g71
sg7
S'WebCore/XMLHttpRequest'
p328
sg9
S'0x67d1'
p329
sg11
S'readyState = 2\n'
p330
sa(dp331
g2
S'26377'
p332
sg4
L1449719579739L
sg5
g71
sg7
S'WebCore/XMLHttpRequest'
p333
sg9
S'0x67d1'
p334
sg11
S'changeState, from 2 to 3\n'
p335
sa(dp336
g2
S'26377'
p337
sg4
L1449719579739L
sg5
g71
sg7
S'WebCore/XMLHttpRequest'
p338
sg9
S'0x67d1'
p339
sg11
S'callReadyStateChangeListener\n'
p340
sa(dp341
g2
S'26377'
p342
sg4
L1449719579739L
sg5
g71
sg7
S'WebCore/XMLHttpRequest'
p343
sg9
S'0x67d1'
p344
sg11
S'readyState = 3\n'
p345
sa(dp346
g2
S'26377'
p347
sg4
L1449719579739L
sg5
g71
sg7
S'WebCore/XMLHttpRequest'
p348
sg9
S'0x67d1'
p349
sg11
S'changeState, from 3 to 4\n'
p350
sa(dp351
g2
S'26377'
p352
sg4
L1449719579739L
sg5
g71
sg7
S'WebCore/XMLHttpRequest'
p353
sg9
S'0x67d1'
p354
sg11
S'readyState = 4\n'
p355
sa(dp356
g2
S'26377'
p357
sg4
L1449719579761L
sg5
g71
sg7
S'WebCore/XMLHttpRequest'
p358
sg9
S'0x67d1'
p359
sg11
S'changeState, from 0 to 1\n'
p360
sa(dp361
g2
S'26377'
p362
sg4
L1449719579761L
sg5
g71
sg7
S'WebCore/XMLHttpRequest'
p363
sg9
S'0x67d1'
p364
sg11
S'callReadyStateChangeListener\n'
p365
sa(dp366
g2
S'26377'
p367
sg4
L1449719579761L
sg5
g71
sg7
S'WebCore/XMLHttpRequest'
p368
sg9
S'0x67d1'
p369
sg11
S'readyState = 1\n'
p370
sa(dp371
g2
S'26377'
p372
sg4
L1449719579837L
sg5
g71
sg7
S'WebCore/XMLHttpRequest'
p373
sg9
S'0x67d1'
p374
sg11
S'changeState, from 1 to 2\n'
p375
sa(dp376
g2
S'26377'
p377
sg4
L1449719579837L
sg5
g71
sg7
S'WebCore/XMLHttpRequest'
p378
sg9
S'0x67d1'
p379
sg11
S'callReadyStateChangeListener\n'
p380
sa(dp381
g2
S'26377'
p382
sg4
L1449719579837L
sg5
g71
sg7
S'WebCore/XMLHttpRequest'
p383
sg9
S'0x67d1'
p384
sg11
S'readyState = 2\n'
p385
sa(dp386
g2
S'26377'
p387
sg4
L1449719579837L
sg5
g71
sg7
S'WebCore/XMLHttpRequest'
p388
sg9
S'0x67d1'
p389
sg11
S'changeState, from 2 to 3\n'
p390
sa(dp391
g2
S'26377'
p392
sg4
L1449719579837L
sg5
g71
sg7
S'WebCore/XMLHttpRequest'
p393
sg9
S'0x67d1'
p394
sg11
S'readyState = 3\n'
p395
sa(dp396
g2
S'26377'
p397
sg4
L1449719579837L
sg5
g71
sg7
S'WebCore/XMLHttpRequest'
p398
sg9
S'0x67d1'
p399
sg11
S'changeState, from 3 to 4\n'
p400
sa(dp401
g2
S'26377'
p402
sg4
L1449719579837L
sg5
g71
sg7
S'WebCore/XMLHttpRequest'
p403
sg9
S'0x67d1'
p404
sg11
S'readyState = 4\n'
p405
sa(dp406
g2
S'26377'
p407
sg4
L1449719582346L
sg5
g71
sg7
S'cn.edu.nju.ise.kikandroid'
p408
sg9
S'0x676d'
p409
sg11
S'Screenshot:1449719582346\n'
p410
sa(dp411
g2
S'26377'
p412
sg4
L1449719582844L
sg5
g71
sg7
S'WebCore/XMLHttpRequest'
p413
sg9
S'0x67d1'
p414
sg11
S'changeState, from 0 to 1\n'
p415
sa(dp416
g2
S'26377'
p417
sg4
L1449719582844L
sg5
g71
sg7
S'WebCore/XMLHttpRequest'
p418
sg9
S'0x67d1'
p419
sg11
S'callReadyStateChangeListener\n'
p420
sa(dp421
g2
S'26377'
p422
sg4
L1449719582844L
sg5
g71
sg7
S'WebCore/XMLHttpRequest'
p423
sg9
S'0x67d1'
p424
sg11
S'readyState = 1\n'
p425
sa(dp426
g2
S'26377'
p427
sg4
L1449719582868L
sg5
g71
sg7
S'WebCore/XMLHttpRequest'
p428
sg9
S'0x67d1'
p429
sg11
S'changeState, from 1 to 2\n'
p430
sa(dp431
g2
S'26377'
p432
sg4
L1449719582868L
sg5
g71
sg7
S'WebCore/XMLHttpRequest'
p433
sg9
S'0x67d1'
p434
sg11
S'callReadyStateChangeListener\n'
p435
sa(dp436
g2
S'26377'
p437
sg4
L1449719582868L
sg5
g71
sg7
S'WebCore/XMLHttpRequest'
p438
sg9
S'0x67d1'
p439
sg11
S'readyState = 2\n'
p440
sa(dp441
g2
S'26377'
p442
sg4
L1449719582868L
sg5
g71
sg7
S'WebCore/XMLHttpRequest'
p443
sg9
S'0x67d1'
p444
sg11
S'changeState, from 2 to 3\n'
p445
sa(dp446
g2
S'26377'
p447
sg4
L1449719582869L
sg5
g71
sg7
S'WebCore/XMLHttpRequest'
p448
sg9
S'0x67d1'
p449
sg11
S'readyState = 3\n'
p450
sa(dp451
g2
S'26377'
p452
sg4
L1449719582869L
sg5
g71
sg7
S'WebCore/XMLHttpRequest'
p453
sg9
S'0x67d1'
p454
sg11
S'changeState, from 3 to 4\n'
p455
sa(dp456
g2
S'26377'
p457
sg4
L1449719582869L
sg5
g71
sg7
S'WebCore/XMLHttpRequest'
p458
sg9
S'0x67d1'
p459
sg11
S'callReadyStateChangeListener\n'
p460
sa(dp461
g2
S'26377'
p462
sg4
L1449719582869L
sg5
g71
sg7
S'WebCore/XMLHttpRequest'
p463
sg9
S'0x67d1'
p464
sg11
S'readyState = 4\n'
p465
sa(dp466
g2
S'26377'
p467
sg4
L1449719585745L
sg5
g71
sg7
S'StrictMode'
p468
sg9
S'0x6709'
p469
sg11
S'StrictMode policy violation; ~duration=87 ms: android.os.StrictMode$StrictModeDiskReadViolation: policy=279 violation=2\n\tat android.os.StrictMode$AndroidBlockGuardPolicy.onReadFromDisk(StrictMode.java:1118)\n\tat libcore.io.BlockGuardOs.open(BlockGuardOs.java:106)\n\tat libcore.io.IoBridge.open(IoBridge.java:444)\n\tat java.io.FileInputStream.<init>(FileInputStream.java:78)\n\tat java.io.FileInputStream.<init>(FileInputStream.java:105)\n\tat java.io.FileReader.<init>(FileReader.java:66)\n\tat com.android.server.am.ActivityStack.readFileInt(ActivityStack.java:1165)\n\tat com.android.server.am.ActivityStack.startPausingLocked(ActivityStack.java:1403)\n\tat com.android.server.am.ActivityStack.finishActivityLocked(ActivityStack.java:4704)\n\tat com.android.server.am.ActivityStack.finishActivityLocked(ActivityStack.java:4632)\n\tat com.android.server.am.ActivityStack.requestFinishActivityLocked(ActivityStack.java:4548)\n\tat com.android.server.am.ActivityManagerService.finishActivity(ActivityManagerService.java:3231)\n\tat android.app.ActivityManagerNative.onTransact(ActivityManagerNative.java:259)\n\tat com.android.server.am.ActivityManagerService.onTransact(ActivityManagerService.java:1966)\n\tat android.os.Binder.execTransact(Binder.java:351)\n\tat dalvik.system.NativeStart.run(Native Method)\n# via Binder call with stack:\nandroid.os.StrictMode$LogStackTrace\n\tat android.os.StrictMode.readAndHandleBinderCallViolations(StrictMode.java:1700)\n\tat android.os.Parcel.readExceptionCode(Parcel.java:1407)\n\tat android.os.Parcel.readException(Parcel.java:1376)\n\tat android.app.ActivityManagerProxy.finishActivity(ActivityManagerNative.java:2120)\n\tat android.app.Activity.finish(Activity.java:4313)\n\tat com.example.myfristandroid.graphWebShow.onKeyDown(graphWebShow.java:146)\n\tat android.view.KeyEvent.dispatch(KeyEvent.java:2679)\n\tat android.app.Activity.dispatchKeyEvent(Activity.java:2443)\n\tat com.android.internal.policy.impl.PhoneWindow$DecorView.dispatchKeyEvent(PhoneWindow.java:1884)\n\tat android.view.ViewRootImpl.deliverKeyEventPostIme(ViewRootImpl.java:4275)\n\tat android.view.ViewRootImpl.handleImeFinishedEvent(ViewRootImpl.java:4218)\n\tat android.view.ViewRootImpl$ViewRootHandler.handleMessage(ViewRootImpl.java:3263)\n\tat android.os.Handler.dispatchMessage(Handler.java:107)\n\tat android.os.Looper.loop(Looper.java:194)\n\tat android.app.ActivityThread.main(ActivityThread.java:5434)\n\tat java.lang.reflect.Method.invokeNative(Native Method)\n\tat java.lang.reflect.Method.invoke(Method.java:525)\n\tat com.android.internal.os.ZygoteInit$MethodAndArgsCaller.run(ZygoteInit.java:838)\n\tat com.android.internal.os.ZygoteInit.main(ZygoteInit.java:605)\n\tat dalvik.system.NativeStart.main(Native Method)\n'
p470
sa(dp471
g2
S'26377'
p472
sg4
L1449719585745L
sg5
g71
sg7
S'StrictMode'
p473
sg9
S'0x6709'
p474
sg11
S'StrictMode policy violation; ~duration=84 ms: android.os.StrictMode$StrictModeDiskReadViolation: policy=279 violation=2\n\tat android.os.StrictMode$AndroidBlockGuardPolicy.onReadFromDisk(StrictMode.java:1118)\n\tat libcore.io.BlockGuardOs.read(BlockGuardOs.java:148)\n\tat libcore.io.IoBridge.read(IoBridge.java:476)\n\tat java.io.FileInputStream.read(FileInputStream.java:179)\n\tat java.io.InputStreamReader.read(InputStreamReader.java:233)\n\tat java.io.BufferedReader.fillBuf(BufferedReader.java:145)\n\tat java.io.BufferedReader.readLine(BufferedReader.java:397)\n\tat com.android.server.am.ActivityStack.readFileInt(ActivityStack.java:1167)\n\tat com.android.server.am.ActivityStack.startPausingLocked(ActivityStack.java:1403)\n\tat com.android.server.am.ActivityStack.finishActivityLocked(ActivityStack.java:4704)\n\tat com.android.server.am.ActivityStack.finishActivityLocked(ActivityStack.java:4632)\n\tat com.android.server.am.ActivityStack.requestFinishActivityLocked(ActivityStack.java:4548)\n\tat com.android.server.am.ActivityManagerService.finishActivity(ActivityManagerService.java:3231)\n\tat android.app.ActivityManagerNative.onTransact(ActivityManagerNative.java:259)\n\tat com.android.server.am.ActivityManagerService.onTransact(ActivityManagerService.java:1966)\n\tat android.os.Binder.execTransact(Binder.java:351)\n\tat dalvik.system.NativeStart.run(Native Method)\n# via Binder call with stack:\nandroid.os.StrictMode$LogStackTrace\n\tat android.os.StrictMode.readAndHandleBinderCallViolations(StrictMode.java:1700)\n\tat android.os.Parcel.readExceptionCode(Parcel.java:1407)\n\tat android.os.Parcel.readException(Parcel.java:1376)\n\tat android.app.ActivityManagerProxy.finishActivity(ActivityManagerNative.java:2120)\n\tat android.app.Activity.finish(Activity.java:4313)\n\tat com.example.myfristandroid.graphWebShow.onKeyDown(graphWebShow.java:146)\n\tat android.view.KeyEvent.dispatch(KeyEvent.java:2679)\n\tat android.app.Activity.dispatchKeyEvent(Activity.java:2443)\n\tat com.android.internal.policy.impl.PhoneWindow$DecorView.dispatchKeyEvent(PhoneWindow.java:1884)\n\tat android.view.ViewRootImpl.deliverKeyEventPostIme(ViewRootImpl.java:4275)\n\tat android.view.ViewRootImpl.handleImeFinishedEvent(ViewRootImpl.java:4218)\n\tat android.view.ViewRootImpl$ViewRootHandler.handleMessage(ViewRootImpl.java:3263)\n\tat android.os.Handler.dispatchMessage(Handler.java:107)\n\tat android.os.Looper.loop(Looper.java:194)\n\tat android.app.ActivityThread.main(ActivityThread.java:5434)\n\tat java.lang.reflect.Method.invokeNative(Native Method)\n\tat java.lang.reflect.Method.invoke(Method.java:525)\n\tat com.android.internal.os.ZygoteInit$MethodAndArgsCaller.run(ZygoteInit.java:838)\n\tat com.android.internal.os.ZygoteInit.main(ZygoteInit.java:605)\n\tat dalvik.system.NativeStart.main(Native Method)\n'
p475
sa(dp476
g2
S'26377'
p477
sg4
L1449719585872L
sg5
g71
sg7
S'WebCore/XMLHttpRequest'
p478
sg9
S'0x67d1'
p479
sg11
S'changeState, from 0 to 1\n'
p480
sa(dp481
g2
S'26377'
p482
sg4
L1449719585872L
sg5
g71
sg7
S'WebCore/XMLHttpRequest'
p483
sg9
S'0x67d1'
p484
sg11
S'callReadyStateChangeListener\n'
p485
sa(dp486
g2
S'26377'
p487
sg4
L1449719585872L
sg5
g71
sg7
S'WebCore/XMLHttpRequest'
p488
sg9
S'0x67d1'
p489
sg11
S'readyState = 1\n'
p490
sa(dp491
g2
S'26377'
p492
sg4
L1449719585921L
sg5
g71
sg7
S'WebCore/XMLHttpRequest'
p493
sg9
S'0x67d1'
p494
sg11
S'changeState, from 1 to 2\n'
p495
sa(dp496
g2
S'26377'
p497
sg4
L1449719585921L
sg5
g71
sg7
S'WebCore/XMLHttpRequest'
p498
sg9
S'0x67d1'
p499
sg11
S'callReadyStateChangeListener\n'
p500
sa(dp501
g2
S'26377'
p502
sg4
L1449719585922L
sg5
g71
sg7
S'WebCore/XMLHttpRequest'
p503
sg9
S'0x67d1'
p504
sg11
S'readyState = 2\n'
p505
sa(dp506
g2
S'26377'
p507
sg4
L1449719585922L
sg5
g71
sg7
S'WebCore/XMLHttpRequest'
p508
sg9
S'0x67d1'
p509
sg11
S'changeState, from 2 to 3\n'
p510
sa(dp511
g2
S'26377'
p512
sg4
L1449719585922L
sg5
g71
sg7
S'WebCore/XMLHttpRequest'
p513
sg9
S'0x67d1'
p514
sg11
S'callReadyStateChangeListener\n'
p515
sa(dp516
g2
S'26377'
p517
sg4
L1449719585922L
sg5
g71
sg7
S'WebCore/XMLHttpRequest'
p518
sg9
S'0x67d1'
p519
sg11
S'readyState = 3\n'
p520
sa(dp521
g2
S'26377'
p522
sg4
L1449719585926L
sg5
g71
sg7
S'WebCore/XMLHttpRequest'
p523
sg9
S'0x67d1'
p524
sg11
S'changeState, from 3 to 4\n'
p525
sa(dp526
g2
S'26377'
p527
sg4
L1449719585926L
sg5
g71
sg7
S'WebCore/XMLHttpRequest'
p528
sg9
S'0x67d1'
p529
sg11
S'callReadyStateChangeListener\n'
p530
sa(dp531
g2
S'26377'
p532
sg4
L1449719585926L
sg5
g71
sg7
S'WebCore/XMLHttpRequest'
p533
sg9
S'0x67d1'
p534
sg11
S'readyState = 4\n'
p535
sa(dp536
g2
S'26377'
p537
sg4
L1449719585946L
sg5
g71
sg7
S'StrictMode'
p538
sg9
S'0x6709'
p539
sg11
S'StrictMode policy violation; ~duration=53 ms: android.os.StrictMode$StrictModeDiskWriteViolation: policy=279 violation=1\n\tat android.os.StrictMode$AndroidBlockGuardPolicy.onWriteToDisk(StrictMode.java:1092)\n\tat libcore.io.BlockGuardOs.write(BlockGuardOs.java:196)\n\tat libcore.io.IoBridge.write(IoBridge.java:501)\n\tat java.io.FileOutputStream.write(FileOutputStream.java:187)\n\tat java.io.OutputStreamWriter.flushBytes(OutputStreamWriter.java:167)\n\tat java.io.OutputStreamWriter.flush(OutputStreamWriter.java:158)\n\tat com.mediatek.common.thermal.MtkThermalSwitchManager.execShellCommand(MtkThermalSwitchManager.java:142)\n\tat com.mediatek.common.thermal.MtkThermalSwitchManager.changeToDynamicThermalManagement(MtkThermalSwitchManager.java:411)\n\tat com.mediatek.common.thermal.MtkThermalSwitchManager.notifyAppState(MtkThermalSwitchManager.java:125)\n\tat com.android.server.am.ActivityManagerService.reportResumedActivityLocked(ActivityManagerService.java:2824)\n\tat com.android.server.am.ActivityStack.completeResumeLocked(ActivityStack.java:1743)\n\tat com.android.server.am.ActivityStack.resumeTopActivityLocked(ActivityStack.java:2454)\n\tat com.android.server.am.ActivityStack.resumeTopActivityLocked(ActivityStack.java:1942)\n\tat com.android.server.am.ActivityStack.completePauseLocked(ActivityStack.java:1672)\n\tat com.android.server.am.ActivityStack.activityPaused(ActivityStack.java:1533)\n\tat com.android.server.am.ActivityManagerService.activityPaused(ActivityManagerService.java:5673)\n\tat android.app.ActivityManagerNative.onTransact(ActivityManagerNative.java:419)\n\tat com.android.server.am.ActivityManagerService.onTransact(ActivityManagerService.java:1966)\n\tat android.os.Binder.execTransact(Binder.java:351)\n\tat com.android.server.SystemServer.init1(Native Method)\n\tat com.android.server.SystemServer.main(SystemServer.java:1425)\n\tat java.lang.reflect.Method.invokeNative(Native Method)\n\tat java.lang.reflect.Method.invoke(Method.java:525)\n\tat com.android.internal.os.ZygoteInit$MethodAndArgsCaller.run(ZygoteInit.java:838)\n\tat com.android.internal.os.ZygoteInit.main(ZygoteInit.java:605)\n\tat dalvik.system.NativeStart.main(Native Method)\n# via Binder call with stack:\nandroid.os.StrictMode$LogStackTrace\n\tat android.os.StrictMode.readAndHandleBinderCallViolations(StrictMode.java:1700)\n\tat android.os.Parcel.readExceptionCode(Parcel.java:1407)\n\tat android.os.Parcel.readException(Parcel.java:1376)\n\tat android.app.ActivityManagerProxy.activityPaused(ActivityManagerNative.java:2302)\n\tat android.app.ActivityThread.handlePauseActivity(ActivityThread.java:3182)\n\tat android.app.ActivityThread.access$800(ActivityThread.java:175)\n\tat android.app.ActivityThread$H.handleMessage(ActivityThread.java:1403)\n\tat android.os.Handler.dispatchMessage(Handler.java:107)\n\tat android.os.Looper.loop(Looper.java:194)\n\tat android.app.ActivityThread.main(ActivityThread.java:5434)\n\tat java.lang.reflect.Method.invokeNative(Native Method)\n\tat java.lang.reflect.Method.invoke(Method.java:525)\n\tat com.android.internal.os.ZygoteInit$MethodAndArgsCaller.run(ZygoteInit.java:838)\n\tat com.android.internal.os.ZygoteInit.main(ZygoteInit.java:605)\n\tat dalvik.system.NativeStart.main(Native Method)\n'
p540
sa(dp541
g2
S'26377'
p542
sg4
L1449719587314L
sg5
g71
sg7
S'StrictMode'
p543
sg9
S'0x6709'
p544
sg11
S'StrictMode policy violation; ~duration=55 ms: android.os.StrictMode$StrictModeDiskReadViolation: policy=279 violation=2\n\tat android.os.StrictMode$AndroidBlockGuardPolicy.onReadFromDisk(StrictMode.java:1118)\n\tat libcore.io.BlockGuardOs.open(BlockGuardOs.java:106)\n\tat libcore.io.IoBridge.open(IoBridge.java:444)\n\tat java.io.FileInputStream.<init>(FileInputStream.java:78)\n\tat java.io.FileInputStream.<init>(FileInputStream.java:105)\n\tat java.io.FileReader.<init>(FileReader.java:66)\n\tat com.android.server.am.ActivityStack.readFileInt(ActivityStack.java:1165)\n\tat com.android.server.am.ActivityStack.startPausingLocked(ActivityStack.java:1403)\n\tat com.android.server.am.ActivityStack.resumeTopActivityLocked(ActivityStack.java:2203)\n\tat com.android.server.am.ActivityStack.resumeTopActivityLocked(ActivityStack.java:1942)\n\tat com.android.server.am.ActivityStack.startActivityLocked(ActivityStack.java:2646)\n\tat com.android.server.am.ActivityStack.startActivityUncheckedLocked(ActivityStack.java:3843)\n\tat com.android.server.am.ActivityStack.startActivityLocked(ActivityStack.java:3373)\n\tat com.android.server.am.ActivityStack.startActivityMayWait(ActivityStack.java:4040)\n\tat com.android.server.am.ActivityManagerService.startActivityAsUser(ActivityManagerService.java:2938)\n\tat com.android.server.am.ActivityManagerService.startActivity(ActivityManagerService.java:2906)\n\tat android.app.ActivityManagerNative.onTransact(ActivityManagerNative.java:132)\n\tat com.android.server.am.ActivityManagerService.onTransact(ActivityManagerService.java:1966)\n\tat android.os.Binder.execTransact(Binder.java:351)\n\tat dalvik.system.NativeStart.run(Native Method)\n# via Binder call with stack:\nandroid.os.StrictMode$LogStackTrace\n\tat android.os.StrictMode.readAndHandleBinderCallViolations(StrictMode.java:1700)\n\tat android.os.Parcel.readExceptionCode(Parcel.java:1407)\n\tat android.os.Parcel.readException(Parcel.java:1376)\n\tat android.app.ActivityManagerProxy.startActivity(ActivityManagerNative.java:1945)\n\tat android.app.Instrumentation.execStartActivity(Instrumentation.java:1491)\n\tat android.app.Activity.startActivityForResult(Activity.java:3536)\n\tat android.app.Activity.startActivityForResult(Activity.java:3399)\n\tat android.app.Activity.startActivity(Activity.java:3732)\n\tat android.app.Activity.startActivity(Activity.java:3700)\n\tat com.example.myfristandroid.MainActivity$2.onItemClick(MainActivity.java:407)\n\tat android.widget.AdapterView.performItemClick(AdapterView.java:307)\n\tat android.widget.AbsListView.performItemClick(AbsListView.java:1173)\n\tat android.widget.AbsListView$PerformClick.run(AbsListView.java:2934)\n\tat android.os.Handler.handleCallback(Handler.java:800)\n\tat android.os.Handler.dispatchMessage(Handler.java:100)\n\tat android.os.Looper.loop(Looper.java:194)\n\tat android.app.ActivityThread.main(ActivityThread.java:5434)\n\tat java.lang.reflect.Method.invokeNative(Native Method)\n\tat java.lang.reflect.Method.invoke(Method.java:525)\n\tat com.android.internal.os.ZygoteInit$MethodAndArgsCaller.run(ZygoteInit.java:838)\n\tat com.android.internal.os.ZygoteInit.main(ZygoteInit.java:605)\n\tat dalvik.system.NativeStart.main(Native Method)\n'
p545
sa(dp546
g2
S'26377'
p547
sg4
L1449719587314L
sg5
g71
sg7
S'StrictMode'
p548
sg9
S'0x6709'
p549
sg11
S'StrictMode policy violation; ~duration=53 ms: android.os.StrictMode$StrictModeDiskReadViolation: policy=279 violation=2\n\tat android.os.StrictMode$AndroidBlockGuardPolicy.onReadFromDisk(StrictMode.java:1118)\n\tat libcore.io.BlockGuardOs.read(BlockGuardOs.java:148)\n\tat libcore.io.IoBridge.read(IoBridge.java:476)\n\tat java.io.FileInputStream.read(FileInputStream.java:179)\n\tat java.io.InputStreamReader.read(InputStreamReader.java:233)\n\tat java.io.BufferedReader.fillBuf(BufferedReader.java:145)\n\tat java.io.BufferedReader.readLine(BufferedReader.java:397)\n\tat com.android.server.am.ActivityStack.readFileInt(ActivityStack.java:1167)\n\tat com.android.server.am.ActivityStack.startPausingLocked(ActivityStack.java:1403)\n\tat com.android.server.am.ActivityStack.resumeTopActivityLocked(ActivityStack.java:2203)\n\tat com.android.server.am.ActivityStack.resumeTopActivityLocked(ActivityStack.java:1942)\n\tat com.android.server.am.ActivityStack.startActivityLocked(ActivityStack.java:2646)\n\tat com.android.server.am.ActivityStack.startActivityUncheckedLocked(ActivityStack.java:3843)\n\tat com.android.server.am.ActivityStack.startActivityLocked(ActivityStack.java:3373)\n\tat com.android.server.am.ActivityStack.startActivityMayWait(ActivityStack.java:4040)\n\tat com.android.server.am.ActivityManagerService.startActivityAsUser(ActivityManagerService.java:2938)\n\tat com.android.server.am.ActivityManagerService.startActivity(ActivityManagerService.java:2906)\n\tat android.app.ActivityManagerNative.onTransact(ActivityManagerNative.java:132)\n\tat com.android.server.am.ActivityManagerService.onTransact(ActivityManagerService.java:1966)\n\tat android.os.Binder.execTransact(Binder.java:351)\n\tat dalvik.system.NativeStart.run(Native Method)\n# via Binder call with stack:\nandroid.os.StrictMode$LogStackTrace\n\tat android.os.StrictMode.readAndHandleBinderCallViolations(StrictMode.java:1700)\n\tat android.os.Parcel.readExceptionCode(Parcel.java:1407)\n\tat android.os.Parcel.readException(Parcel.java:1376)\n\tat android.app.ActivityManagerProxy.startActivity(ActivityManagerNative.java:1945)\n\tat android.app.Instrumentation.execStartActivity(Instrumentation.java:1491)\n\tat android.app.Activity.startActivityForResult(Activity.java:3536)\n\tat android.app.Activity.startActivityForResult(Activity.java:3399)\n\tat android.app.Activity.startActivity(Activity.java:3732)\n\tat android.app.Activity.startActivity(Activity.java:3700)\n\tat com.example.myfristandroid.MainActivity$2.onItemClick(MainActivity.java:407)\n\tat android.widget.AdapterView.performItemClick(AdapterView.java:307)\n\tat android.widget.AbsListView.performItemClick(AbsListView.java:1173)\n\tat android.widget.AbsListView$PerformClick.run(AbsListView.java:2934)\n\tat android.os.Handler.handleCallback(Handler.java:800)\n\tat android.os.Handler.dispatchMessage(Handler.java:100)\n\tat android.os.Looper.loop(Looper.java:194)\n\tat android.app.ActivityThread.main(ActivityThread.java:5434)\n\tat java.lang.reflect.Method.invokeNative(Native Method)\n\tat java.lang.reflect.Method.invoke(Method.java:525)\n\tat com.android.internal.os.ZygoteInit$MethodAndArgsCaller.run(ZygoteInit.java:838)\n\tat com.android.internal.os.ZygoteInit.main(ZygoteInit.java:605)\n\tat dalvik.system.NativeStart.main(Native Method)\n'
p550
sa(dp551
g2
S'26377'
p552
sg4
L1449719587411L
sg5
g71
sg7
S'StrictMode'
p553
sg9
S'0x6709'
p554
sg11
S'StrictMode policy violation; ~duration=94 ms: android.os.StrictMode$StrictModeDiskReadViolation: policy=279 violation=2\n\tat android.os.StrictMode$AndroidBlockGuardPolicy.onReadFromDisk(StrictMode.java:1118)\n\tat libcore.io.BlockGuardOs.open(BlockGuardOs.java:106)\n\tat libcore.io.IoBridge.open(IoBridge.java:444)\n\tat java.io.FileOutputStream.<init>(FileOutputStream.java:88)\n\tat java.io.FileOutputStream.<init>(FileOutputStream.java:128)\n\tat java.io.FileOutputStream.<init>(FileOutputStream.java:117)\n\tat com.android.server.am.ActivityStack.startSpecificActivityLocked(ActivityStack.java:1205)\n\tat com.android.server.am.ActivityStack.resumeTopActivityLocked(ActivityStack.java:2481)\n\tat com.android.server.am.ActivityStack.resumeTopActivityLocked(ActivityStack.java:1942)\n\tat com.android.server.am.ActivityStack.completePauseLocked(ActivityStack.java:1672)\n\tat com.android.server.am.ActivityStack.activityPaused(ActivityStack.java:1533)\n\tat com.android.server.am.ActivityManagerService.activityPaused(ActivityManagerService.java:5673)\n\tat android.app.ActivityManagerNative.onTransact(ActivityManagerNative.java:419)\n\tat com.android.server.am.ActivityManagerService.onTransact(ActivityManagerService.java:1966)\n\tat android.os.Binder.execTransact(Binder.java:351)\n\tat dalvik.system.NativeStart.run(Native Method)\n# via Binder call with stack:\nandroid.os.StrictMode$LogStackTrace\n\tat android.os.StrictMode.readAndHandleBinderCallViolations(StrictMode.java:1700)\n\tat android.os.Parcel.readExceptionCode(Parcel.java:1407)\n\tat android.os.Parcel.readException(Parcel.java:1376)\n\tat android.app.ActivityManagerProxy.activityPaused(ActivityManagerNative.java:2302)\n\tat android.app.ActivityThread.handlePauseActivity(ActivityThread.java:3182)\n\tat android.app.ActivityThread.access$800(ActivityThread.java:175)\n\tat android.app.ActivityThread$H.handleMessage(ActivityThread.java:1397)\n\tat android.os.Handler.dispatchMessage(Handler.java:107)\n\tat android.os.Looper.loop(Looper.java:194)\n\tat android.app.ActivityThread.main(ActivityThread.java:5434)\n\tat java.lang.reflect.Method.invokeNative(Native Method)\n\tat java.lang.reflect.Method.invoke(Method.java:525)\n\tat com.android.internal.os.ZygoteInit$MethodAndArgsCaller.run(ZygoteInit.java:838)\n\tat com.android.internal.os.ZygoteInit.main(ZygoteInit.java:605)\n\tat dalvik.system.NativeStart.main(Native Method)\n'
p555
sa(dp556
g2
S'26377'
p557
sg4
L1449719587411L
sg5
g71
sg7
S'StrictMode'
p558
sg9
S'0x6709'
p559
sg11
S'StrictMode policy violation; ~duration=40 ms: android.os.StrictMode$StrictModeDiskWriteViolation: policy=279 violation=1\n\tat android.os.StrictMode$AndroidBlockGuardPolicy.onWriteToDisk(StrictMode.java:1092)\n\tat libcore.io.BlockGuardOs.write(BlockGuardOs.java:196)\n\tat libcore.io.IoBridge.write(IoBridge.java:501)\n\tat java.io.FileOutputStream.write(FileOutputStream.java:187)\n\tat java.io.OutputStreamWriter.flushBytes(OutputStreamWriter.java:167)\n\tat java.io.OutputStreamWriter.flush(OutputStreamWriter.java:158)\n\tat com.mediatek.common.thermal.MtkThermalSwitchManager.execShellCommand(MtkThermalSwitchManager.java:142)\n\tat com.mediatek.common.thermal.MtkThermalSwitchManager.changeToDynamicThermalManagement(MtkThermalSwitchManager.java:411)\n\tat com.mediatek.common.thermal.MtkThermalSwitchManager.notifyAppState(MtkThermalSwitchManager.java:125)\n\tat com.android.server.am.ActivityManagerService.reportResumedActivityLocked(ActivityManagerService.java:2824)\n\tat com.android.server.am.ActivityStack.completeResumeLocked(ActivityStack.java:1743)\n\tat com.android.server.am.ActivityStack.realStartActivityLocked(ActivityStack.java:1063)\n\tat com.android.server.am.ActivityStack.startSpecificActivityLocked(ActivityStack.java:1226)\n\tat com.android.server.am.ActivityStack.resumeTopActivityLocked(ActivityStack.java:2481)\n\tat com.android.server.am.ActivityStack.resumeTopActivityLocked(ActivityStack.java:1942)\n\tat com.android.server.am.ActivityStack.completePauseLocked(ActivityStack.java:1672)\n\tat com.android.server.am.ActivityStack.activityPaused(ActivityStack.java:1533)\n\tat com.android.server.am.ActivityManagerService.activityPaused(ActivityManagerService.java:5673)\n\tat android.app.ActivityManagerNative.onTransact(ActivityManagerNative.java:419)\n\tat com.android.server.am.ActivityManagerService.onTransact(ActivityManagerService.java:1966)\n\tat android.os.Binder.execTransact(Binder.java:351)\n\tat dalvik.system.NativeStart.run(Native Method)\n# via Binder call with stack:\nandroid.os.StrictMode$LogStackTrace\n\tat android.os.StrictMode.readAndHandleBinderCallViolations(StrictMode.java:1700)\n\tat android.os.Parcel.readExceptionCode(Parcel.java:1407)\n\tat android.os.Parcel.readException(Parcel.java:1376)\n\tat android.app.ActivityManagerProxy.activityPaused(ActivityManagerNative.java:2302)\n\tat android.app.ActivityThread.handlePauseActivity(ActivityThread.java:3182)\n\tat android.app.ActivityThread.access$800(ActivityThread.java:175)\n\tat android.app.ActivityThread$H.handleMessage(ActivityThread.java:1397)\n\tat android.os.Handler.dispatchMessage(Handler.java:107)\n\tat android.os.Looper.loop(Looper.java:194)\n\tat android.app.ActivityThread.main(ActivityThread.java:5434)\n\tat java.lang.reflect.Method.invokeNative(Native Method)\n\tat java.lang.reflect.Method.invoke(Method.java:525)\n\tat com.android.internal.os.ZygoteInit$MethodAndArgsCaller.run(ZygoteInit.java:838)\n\tat com.android.internal.os.ZygoteInit.main(ZygoteInit.java:605)\n\tat dalvik.system.NativeStart.main(Native Method)\n'
p560
sa(dp561
g2
S'26377'
p562
sg4
L1449719587502L
sg5
g71
sg7
S'WebCore/XMLHttpRequest'
p563
sg9
S'0x67d1'
p564
sg11
S'changeState, from 0 to 1\n'
p565
sa(dp566
g2
S'26377'
p567
sg4
L1449719587502L
sg5
g71
sg7
S'WebCore/XMLHttpRequest'
p568
sg9
S'0x67d1'
p569
sg11
S'callReadyStateChangeListener\n'
p570
sa(dp571
g2
S'26377'
p572
sg4
L1449719587503L
sg5
g71
sg7
S'WebCore/XMLHttpRequest'
p573
sg9
S'0x67d1'
p574
sg11
S'readyState = 1\n'
p575
sa(dp576
g2
S'26377'
p577
sg4
L1449719587518L
sg5
g71
sg7
S'Canvas  '
p578
sg9
S'0x67d1'
p579
sg11
S'[HTMLCanvasElement::setSurfaceSize] size=[0,0]\n'
p580
sa(dp581
g2
S'26377'
p582
sg4
L1449719587526L
sg5
g71
sg7
S'WebCore/XMLHttpRequest'
p583
sg9
S'0x67d1'
p584
sg11
S'changeState, from 0 to 1\n'
p585
sa(dp586
g2
S'26377'
p587
sg4
L1449719587526L
sg5
g71
sg7
S'WebCore/XMLHttpRequest'
p588
sg9
S'0x67d1'
p589
sg11
S'callReadyStateChangeListener\n'
p590
sa(dp591
g2
S'26377'
p592
sg4
L1449719587533L
sg5
g71
sg7
S'WebCore/XMLHttpRequest'
p593
sg9
S'0x67d1'
p594
sg11
S'changeState, from 1 to 2\n'
p595
sa(dp596
g2
S'26377'
p597
sg4
L1449719587533L
sg5
g71
sg7
S'WebCore/XMLHttpRequest'
p598
sg9
S'0x67d1'
p599
sg11
S'callReadyStateChangeListener\n'
p600
sa(dp601
g2
S'26377'
p602
sg4
L1449719587537L
sg5
g71
sg7
S'WebCore/XMLHttpRequest'
p603
sg9
S'0x67d1'
p604
sg11
S'changeState, from 2 to 3\n'
p605
sa(dp606
g2
S'26377'
p607
sg4
L1449719587537L
sg5
g71
sg7
S'WebCore/XMLHttpRequest'
p608
sg9
S'0x67d1'
p609
sg11
S'callReadyStateChangeListener\n'
p610
sa(dp611
g2
S'26377'
p612
sg4
L1449719587537L
sg5
g71
sg7
S'WebCore/XMLHttpRequest'
p613
sg9
S'0x67d1'
p614
sg11
S'changeState, from 3 to 4\n'
p615
sa(dp616
g2
S'26377'
p617
sg4
L1449719587806L
sg5
g112
sg7
S'v8      '
p618
sg9
S'0x67d1'
p619
sg11
S'[26377]    24328 ms:  Mark-sweep 4.3 (15.2) -> 2.9 (15.2) MB, 3 / 54 ms [allocation failure] [promotion limit reached].\n'
p620
sa(dp621
g2
S'26377'
p622
sg4
L1449719587836L
sg5
g71
sg7
S'WebCore/XMLHttpRequest'
p623
sg9
S'0x67d1'
p624
sg11
S'changeState, from 0 to 1\n'
p625
sa(dp626
g2
S'26377'
p627
sg4
L1449719587836L
sg5
g71
sg7
S'WebCore/XMLHttpRequest'
p628
sg9
S'0x67d1'
p629
sg11
S'callReadyStateChangeListener\n'
p630
sa(dp631
g2
S'26377'
p632
sg4
L1449719587844L
sg5
g71
sg7
S'WebCore/XMLHttpRequest'
p633
sg9
S'0x67d1'
p634
sg11
S'changeState, from 1 to 2\n'
p635
sa(dp636
g2
S'26377'
p637
sg4
L1449719587844L
sg5
g71
sg7
S'WebCore/XMLHttpRequest'
p638
sg9
S'0x67d1'
p639
sg11
S'callReadyStateChangeListener\n'
p640
sa(dp641
g2
S'26377'
p642
sg4
L1449719587845L
sg5
g71
sg7
S'WebCore/XMLHttpRequest'
p643
sg9
S'0x67d1'
p644
sg11
S'changeState, from 2 to 3\n'
p645
sa(dp646
g2
S'26377'
p647
sg4
L1449719587845L
sg5
g71
sg7
S'WebCore/XMLHttpRequest'
p648
sg9
S'0x67d1'
p649
sg11
S'callReadyStateChangeListener\n'
p650
sa(dp651
g2
S'26377'
p652
sg4
L1449719587845L
sg5
g71
sg7
S'WebCore/XMLHttpRequest'
p653
sg9
S'0x67d1'
p654
sg11
S'changeState, from 3 to 4\n'
p655
sa(dp656
g2
S'26377'
p657
sg4
L1449719587918L
sg5
g71
sg7
S'MainActivity'
p658
sg9
S'0x67d1'
p659
sg11
S'h:710.915,w:1183.07\n'
p660
sa(dp661
g2
S'26377'
p662
sg4
L1449719588027L
sg5
g71
sg7
S'WebCore/XMLHttpRequest'
p663
sg9
S'0x67d1'
p664
sg11
S'changeState, from 1 to 2\n'
p665
sa(dp666
g2
S'26377'
p667
sg4
L1449719588027L
sg5
g71
sg7
S'WebCore/XMLHttpRequest'
p668
sg9
S'0x67d1'
p669
sg11
S'callReadyStateChangeListener\n'
p670
sa(dp671
g2
S'26377'
p672
sg4
L1449719588027L
sg5
g71
sg7
S'WebCore/XMLHttpRequest'
p673
sg9
S'0x67d1'
p674
sg11
S'readyState = 2\n'
p675
sa(dp676
g2
S'26377'
p677
sg4
L1449719588028L
sg5
g71
sg7
S'WebCore/XMLHttpRequest'
p678
sg9
S'0x67d1'
p679
sg11
S'changeState, from 2 to 3\n'
p680
sa(dp681
g2
S'26377'
p682
sg4
L1449719588028L
sg5
g71
sg7
S'WebCore/XMLHttpRequest'
p683
sg9
S'0x67d1'
p684
sg11
S'callReadyStateChangeListener\n'
p685
sa(dp686
g2
S'26377'
p687
sg4
L1449719588028L
sg5
g71
sg7
S'WebCore/XMLHttpRequest'
p688
sg9
S'0x67d1'
p689
sg11
S'readyState = 3\n'
p690
sa(dp691
g2
S'26377'
p692
sg4
L1449719588029L
sg5
g71
sg7
S'WebCore/XMLHttpRequest'
p693
sg9
S'0x67d1'
p694
sg11
S'changeState, from 3 to 4\n'
p695
sa(dp696
g2
S'26377'
p697
sg4
L1449719588029L
sg5
g71
sg7
S'WebCore/XMLHttpRequest'
p698
sg9
S'0x67d1'
p699
sg11
S'callReadyStateChangeListener\n'
p700
sa(dp701
g2
S'26377'
p702
sg4
L1449719588029L
sg5
g71
sg7
S'WebCore/XMLHttpRequest'
p703
sg9
S'0x67d1'
p704
sg11
S'readyState = 4\n'
p705
sa(dp706
g2
S'26377'
p707
sg4
L1449719588034L
sg5
g71
sg7
S'WebCore/XMLHttpRequest'
p708
sg9
S'0x67d1'
p709
sg11
S'changeState, from 0 to 1\n'
p710
sa(dp711
g2
S'26377'
p712
sg4
L1449719588035L
sg5
g71
sg7
S'WebCore/XMLHttpRequest'
p713
sg9
S'0x67d1'
p714
sg11
S'callReadyStateChangeListener\n'
p715
sa(dp716
g2
S'26377'
p717
sg4
L1449719588035L
sg5
g71
sg7
S'WebCore/XMLHttpRequest'
p718
sg9
S'0x67d1'
p719
sg11
S'readyState = 1\n'
p720
sa(dp721
g2
S'26377'
p722
sg4
L1449719588052L
sg5
g71
sg7
S'WebCore/XMLHttpRequest'
p723
sg9
S'0x67d1'
p724
sg11
S'changeState, from 1 to 2\n'
p725
sa(dp726
g2
S'26377'
p727
sg4
L1449719588052L
sg5
g71
sg7
S'WebCore/XMLHttpRequest'
p728
sg9
S'0x67d1'
p729
sg11
S'callReadyStateChangeListener\n'
p730
sa(dp731
g2
S'26377'
p732
sg4
L1449719588053L
sg5
g71
sg7
S'WebCore/XMLHttpRequest'
p733
sg9
S'0x67d1'
p734
sg11
S'readyState = 2\n'
p735
sa(dp736
g2
S'26377'
p737
sg4
L1449719588053L
sg5
g71
sg7
S'WebCore/XMLHttpRequest'
p738
sg9
S'0x67d1'
p739
sg11
S'changeState, from 2 to 3\n'
p740
sa(dp741
g2
S'26377'
p742
sg4
L1449719588053L
sg5
g71
sg7
S'WebCore/XMLHttpRequest'
p743
sg9
S'0x67d1'
p744
sg11
S'callReadyStateChangeListener\n'
p745
sa(dp746
g2
S'26377'
p747
sg4
L1449719588053L
sg5
g71
sg7
S'WebCore/XMLHttpRequest'
p748
sg9
S'0x67d1'
p749
sg11
S'readyState = 3\n'
p750
sa(dp751
g2
S'26377'
p752
sg4
L1449719588053L
sg5
g71
sg7
S'WebCore/XMLHttpRequest'
p753
sg9
S'0x67d1'
p754
sg11
S'changeState, from 3 to 4\n'
p755
sa(dp756
g2
S'26377'
p757
sg4
L1449719588053L
sg5
g71
sg7
S'WebCore/XMLHttpRequest'
p758
sg9
S'0x67d1'
p759
sg11
S'readyState = 4\n'
p760
sa(dp761
g2
S'26377'
p762
sg4
L1449719588063L
sg5
g71
sg7
S'WebCore/XMLHttpRequest'
p763
sg9
S'0x67d1'
p764
sg11
S'changeState, from 0 to 1\n'
p765
sa(dp766
g2
S'26377'
p767
sg4
L1449719588063L
sg5
g71
sg7
S'WebCore/XMLHttpRequest'
p768
sg9
S'0x67d1'
p769
sg11
S'callReadyStateChangeListener\n'
p770
sa(dp771
g2
S'26377'
p772
sg4
L1449719588063L
sg5
g71
sg7
S'WebCore/XMLHttpRequest'
p773
sg9
S'0x67d1'
p774
sg11
S'readyState = 1\n'
p775
sa(dp776
g2
S'26377'
p777
sg4
L1449719588116L
sg5
g71
sg7
S'WebCore/XMLHttpRequest'
p778
sg9
S'0x67d1'
p779
sg11
S'changeState, from 1 to 2\n'
p780
sa(dp781
g2
S'26377'
p782
sg4
L1449719588116L
sg5
g71
sg7
S'WebCore/XMLHttpRequest'
p783
sg9
S'0x67d1'
p784
sg11
S'callReadyStateChangeListener\n'
p785
sa(dp786
g2
S'26377'
p787
sg4
L1449719588116L
sg5
g71
sg7
S'WebCore/XMLHttpRequest'
p788
sg9
S'0x67d1'
p789
sg11
S'readyState = 2\n'
p790
sa(dp791
g2
S'26377'
p792
sg4
L1449719588116L
sg5
g71
sg7
S'WebCore/XMLHttpRequest'
p793
sg9
S'0x67d1'
p794
sg11
S'changeState, from 2 to 3\n'
p795
sa(dp796
g2
S'26377'
p797
sg4
L1449719588116L
sg5
g71
sg7
S'WebCore/XMLHttpRequest'
p798
sg9
S'0x67d1'
p799
sg11
S'readyState = 3\n'
p800
sa(dp801
g2
S'26377'
p802
sg4
L1449719588117L
sg5
g71
sg7
S'WebCore/XMLHttpRequest'
p803
sg9
S'0x67d1'
p804
sg11
S'changeState, from 3 to 4\n'
p805
sa(dp806
g2
S'26377'
p807
sg4
L1449719588117L
sg5
g71
sg7
S'WebCore/XMLHttpRequest'
p808
sg9
S'0x67d1'
p809
sg11
S'callReadyStateChangeListener\n'
p810
sa(dp811
g2
S'26377'
p812
sg4
L1449719588117L
sg5
g71
sg7
S'WebCore/XMLHttpRequest'
p813
sg9
S'0x67d1'
p814
sg11
S'readyState = 4\n'
p815
sa(dp816
g2
S'26377'
p817
sg4
L1449719588933L
sg5
g71
sg7
S'WebCore/XMLHttpRequest'
p818
sg9
S'0x67d1'
p819
sg11
S'changeState, from 0 to 1\n'
p820
sa(dp821
g2
S'26377'
p822
sg4
L1449719588933L
sg5
g71
sg7
S'WebCore/XMLHttpRequest'
p823
sg9
S'0x67d1'
p824
sg11
S'callReadyStateChangeListener\n'
p825
sa(dp826
g2
S'26377'
p827
sg4
L1449719588933L
sg5
g71
sg7
S'WebCore/XMLHttpRequest'
p828
sg9
S'0x67d1'
p829
sg11
S'readyState = 1\n'
p830
sa(dp831
g2
S'26377'
p832
sg4
L1449719588947L
sg5
g71
sg7
S'WebCore/XMLHttpRequest'
p833
sg9
S'0x67d1'
p834
sg11
S'changeState, from 1 to 2\n'
p835
sa(dp836
g2
S'26377'
p837
sg4
L1449719588947L
sg5
g71
sg7
S'WebCore/XMLHttpRequest'
p838
sg9
S'0x67d1'
p839
sg11
S'callReadyStateChangeListener\n'
p840
sa(dp841
g2
S'26377'
p842
sg4
L1449719588947L
sg5
g71
sg7
S'WebCore/XMLHttpRequest'
p843
sg9
S'0x67d1'
p844
sg11
S'readyState = 2\n'
p845
sa(dp846
g2
S'26377'
p847
sg4
L1449719588947L
sg5
g71
sg7
S'WebCore/XMLHttpRequest'
p848
sg9
S'0x67d1'
p849
sg11
S'changeState, from 2 to 3\n'
p850
sa(dp851
g2
S'26377'
p852
sg4
L1449719588947L
sg5
g71
sg7
S'WebCore/XMLHttpRequest'
p853
sg9
S'0x67d1'
p854
sg11
S'readyState = 3\n'
p855
sa(dp856
g2
S'26377'
p857
sg4
L1449719588947L
sg5
g71
sg7
S'WebCore/XMLHttpRequest'
p858
sg9
S'0x67d1'
p859
sg11
S'changeState, from 3 to 4\n'
p860
sa(dp861
g2
S'26377'
p862
sg4
L1449719588947L
sg5
g71
sg7
S'WebCore/XMLHttpRequest'
p863
sg9
S'0x67d1'
p864
sg11
S'readyState = 4\n'
p865
sa(dp866
g2
S'26377'
p867
sg4
L1449719588948L
sg5
g71
sg7
S'WebCore/XMLHttpRequest'
p868
sg9
S'0x67d1'
p869
sg11
S'readyState = 4\n'
p870
sa(dp871
g2
S'26377'
p872
sg4
L1449719591124L
sg5
g71
sg7
S'WebCore/XMLHttpRequest'
p873
sg9
S'0x67d1'
p874
sg11
S'changeState, from 0 to 1\n'
p875
sa(dp876
g2
S'26377'
p877
sg4
L1449719591124L
sg5
g71
sg7
S'WebCore/XMLHttpRequest'
p878
sg9
S'0x67d1'
p879
sg11
S'callReadyStateChangeListener\n'
p880
sa(dp881
g2
S'26377'
p882
sg4
L1449719591124L
sg5
g71
sg7
S'WebCore/XMLHttpRequest'
p883
sg9
S'0x67d1'
p884
sg11
S'readyState = 1\n'
p885
sa(dp886
g2
S'26377'
p887
sg4
L1449719591159L
sg5
g71
sg7
S'WebCore/XMLHttpRequest'
p888
sg9
S'0x67d1'
p889
sg11
S'changeState, from 1 to 2\n'
p890
sa(dp891
g2
S'26377'
p892
sg4
L1449719591159L
sg5
g71
sg7
S'WebCore/XMLHttpRequest'
p893
sg9
S'0x67d1'
p894
sg11
S'callReadyStateChangeListener\n'
p895
sa(dp896
g2
S'26377'
p897
sg4
L1449719591159L
sg5
g71
sg7
S'WebCore/XMLHttpRequest'
p898
sg9
S'0x67d1'
p899
sg11
S'readyState = 2\n'
p900
sa(dp901
g2
S'26377'
p902
sg4
L1449719591159L
sg5
g71
sg7
S'WebCore/XMLHttpRequest'
p903
sg9
S'0x67d1'
p904
sg11
S'changeState, from 2 to 3\n'
p905
sa(dp906
g2
S'26377'
p907
sg4
L1449719591159L
sg5
g71
sg7
S'WebCore/XMLHttpRequest'
p908
sg9
S'0x67d1'
p909
sg11
S'readyState = 3\n'
p910
sa(dp911
g2
S'26377'
p912
sg4
L1449719591159L
sg5
g71
sg7
S'WebCore/XMLHttpRequest'
p913
sg9
S'0x67d1'
p914
sg11
S'changeState, from 3 to 4\n'
p915
sa(dp916
g2
S'26377'
p917
sg4
L1449719591160L
sg5
g71
sg7
S'WebCore/XMLHttpRequest'
p918
sg9
S'0x67d1'
p919
sg11
S'callReadyStateChangeListener\n'
p920
sa(dp921
g2
S'26377'
p922
sg4
L1449719591160L
sg5
g71
sg7
S'WebCore/XMLHttpRequest'
p923
sg9
S'0x67d1'
p924
sg11
S'readyState = 4\n'
p925
sa(dp926
g2
S'26377'
p927
sg4
L1449719591166L
sg5
g71
sg7
S'WebCore/XMLHttpRequest'
p928
sg9
S'0x67d1'
p929
sg11
S'changeState, from 0 to 1\n'
p930
sa(dp931
g2
S'26377'
p932
sg4
L1449719591166L
sg5
g71
sg7
S'WebCore/XMLHttpRequest'
p933
sg9
S'0x67d1'
p934
sg11
S'callReadyStateChangeListener\n'
p935
sa(dp936
g2
S'26377'
p937
sg4
L1449719591167L
sg5
g71
sg7
S'WebCore/XMLHttpRequest'
p938
sg9
S'0x67d1'
p939
sg11
S'readyState = 1\n'
p940
sa(dp941
g2
S'26377'
p942
sg4
L1449719591185L
sg5
g71
sg7
S'WebCore/XMLHttpRequest'
p943
sg9
S'0x67d1'
p944
sg11
S'changeState, from 1 to 2\n'
p945
sa(dp946
g2
S'26377'
p947
sg4
L1449719591185L
sg5
g71
sg7
S'WebCore/XMLHttpRequest'
p948
sg9
S'0x67d1'
p949
sg11
S'callReadyStateChangeListener\n'
p950
sa(dp951
g2
S'26377'
p952
sg4
L1449719591185L
sg5
g71
sg7
S'WebCore/XMLHttpRequest'
p953
sg9
S'0x67d1'
p954
sg11
S'readyState = 2\n'
p955
sa(dp956
g2
S'26377'
p957
sg4
L1449719591185L
sg5
g71
sg7
S'WebCore/XMLHttpRequest'
p958
sg9
S'0x67d1'
p959
sg11
S'changeState, from 2 to 3\n'
p960
sa(dp961
g2
S'26377'
p962
sg4
L1449719591185L
sg5
g71
sg7
S'WebCore/XMLHttpRequest'
p963
sg9
S'0x67d1'
p964
sg11
S'readyState = 3\n'
p965
sa(dp966
g2
S'26377'
p967
sg4
L1449719591185L
sg5
g71
sg7
S'WebCore/XMLHttpRequest'
p968
sg9
S'0x67d1'
p969
sg11
S'changeState, from 3 to 4\n'
p970
sa(dp971
g2
S'26377'
p972
sg4
L1449719591185L
sg5
g71
sg7
S'WebCore/XMLHttpRequest'
p973
sg9
S'0x67d1'
p974
sg11
S'readyState = 4\n'
p975
sa(dp976
g2
S'26377'
p977
sg4
L1449719591186L
sg5
g71
sg7
S'WebCore/XMLHttpRequest'
p978
sg9
S'0x67d1'
p979
sg11
S'readyState = 4\n'
p980
sa(dp981
g2
S'26377'
p982
sg4
L1449719591447L
sg5
g71
sg7
S'cn.edu.nju.ise.kikandroid'
p983
sg9
S'0x676d'
p984
sg11
S'Screenshot:1449719591447\n'
p985
sa(dp986
g2
S'26377'
p987
sg4
L1449719591959L
sg5
g71
sg7
S'WebCore/XMLHttpRequest'
p988
sg9
S'0x67d1'
p989
sg11
S'changeState, from 0 to 1\n'
p990
sa(dp991
g2
S'26377'
p992
sg4
L1449719591959L
sg5
g71
sg7
S'WebCore/XMLHttpRequest'
p993
sg9
S'0x67d1'
p994
sg11
S'callReadyStateChangeListener\n'
p995
sa(dp996
g2
S'26377'
p997
sg4
L1449719591959L
sg5
g71
sg7
S'WebCore/XMLHttpRequest'
p998
sg9
S'0x67d1'
p999
sg11
S'readyState = 1\n'
p1000
sa(dp1001
g2
S'26377'
p1002
sg4
L1449719591960L
sg5
g71
sg7
S'WebCore/XMLHttpRequest'
p1003
sg9
S'0x67d1'
p1004
sg11
S'readyState = 1\n'
p1005
sa(dp1006
g2
S'26377'
p1007
sg4
L1449719591977L
sg5
g71
sg7
S'WebCore/XMLHttpRequest'
p1008
sg9
S'0x67d1'
p1009
sg11
S'changeState, from 1 to 2\n'
p1010
sa(dp1011
g2
S'26377'
p1012
sg4
L1449719591977L
sg5
g71
sg7
S'WebCore/XMLHttpRequest'
p1013
sg9
S'0x67d1'
p1014
sg11
S'callReadyStateChangeListener\n'
p1015
sa(dp1016
g2
S'26377'
p1017
sg4
L1449719591978L
sg5
g71
sg7
S'WebCore/XMLHttpRequest'
p1018
sg9
S'0x67d1'
p1019
sg11
S'readyState = 2\n'
p1020
sa(dp1021
g2
S'26377'
p1022
sg4
L1449719591978L
sg5
g71
sg7
S'WebCore/XMLHttpRequest'
p1023
sg9
S'0x67d1'
p1024
sg11
S'changeState, from 2 to 3\n'
p1025
sa(dp1026
g2
S'26377'
p1027
sg4
L1449719591978L
sg5
g71
sg7
S'WebCore/XMLHttpRequest'
p1028
sg9
S'0x67d1'
p1029
sg11
S'callReadyStateChangeListener\n'
p1030
sa(dp1031
g2
S'26377'
p1032
sg4
L1449719591978L
sg5
g71
sg7
S'WebCore/XMLHttpRequest'
p1033
sg9
S'0x67d1'
p1034
sg11
S'readyState = 3\n'
p1035
sa(dp1036
g2
S'26377'
p1037
sg4
L1449719591978L
sg5
g71
sg7
S'WebCore/XMLHttpRequest'
p1038
sg9
S'0x67d1'
p1039
sg11
S'changeState, from 3 to 4\n'
p1040
sa(dp1041
g2
S'26377'
p1042
sg4
L1449719591978L
sg5
g71
sg7
S'WebCore/XMLHttpRequest'
p1043
sg9
S'0x67d1'
p1044
sg11
S'readyState = 4\n'
p1045
sa(dp1046
g2
S'26377'
p1047
sg4
L1449719592013L
sg5
g15
sg7
S'webcoreglue'
p1048
sg9
S'0x67d1'
p1049
sg11
S'getAbsoluteBoundingBox failed for node 0x68601a58, name RenderSVGContainer\n'
p1050
sa(dp1051
g2
S'26377'
p1052
sg4
L1449719592013L
sg5
g15
sg7
S'webcoreglue'
p1053
sg9
S'0x67d1'
p1054
sg11
S'getAbsoluteBoundingBox failed for node 0x68601c88, name RenderSVGContainer\n'
p1055
sa(dp1056
g2
S'26377'
p1057
sg4
L1449719592013L
sg5
g15
sg7
S'webcoreglue'
p1058
sg9
S'0x67d1'
p1059
sg11
S'getAbsoluteBoundingBox failed for node 0x68601e98, name RenderSVGContainer\n'
p1060
sa(dp1061
g2
S'26377'
p1062
sg4
L1449719592013L
sg5
g15
sg7
S'webcoreglue'
p1063
sg9
S'0x67d1'
p1064
sg11
S'getAbsoluteBoundingBox failed for node 0x686024f8, name RenderSVGPath\n'
p1065
sa(dp1066
g2
S'26377'
p1067
sg4
L1449719592446L
sg5
g71
sg7
S'CallbackProxy'
p1068
sg9
S'0x67d1'
p1069
sg11
S'shouldOverrideUrlLoading, url=http://oa.paneng.cn:1143/se9200/graph/gshow.jsp?mRID=1130000056\n'
p1070
sa(dp1071
g2
S'26377'
p1072
sg4
L1449719592448L
sg5
g71
sg7
S'CallbackProxy'
p1073
sg9
S'0x67d1'
p1074
sg11
S'sendMessageToUiThreadSync, msg={ what=103 when=0 obj=android.webkit.CallbackProxy$ResultTransport@427e7d48 target=Handler (android.webkit.CallbackProxy) {425bfbb8} }\n'
p1075
sa(dp1076
g2
S'26377'
p1077
sg4
L1449719592604L
sg5
g71
sg7
S'WebCore/XMLHttpRequest'
p1078
sg9
S'0x67d1'
p1079
sg11
S'changeState, from 0 to 1\n'
p1080
sa(dp1081
g2
S'26377'
p1082
sg4
L1449719592604L
sg5
g71
sg7
S'WebCore/XMLHttpRequest'
p1083
sg9
S'0x67d1'
p1084
sg11
S'callReadyStateChangeListener\n'
p1085
sa(dp1086
g2
S'26377'
p1087
sg4
L1449719592605L
sg5
g71
sg7
S'WebCore/XMLHttpRequest'
p1088
sg9
S'0x67d1'
p1089
sg11
S'readyState = 1\n'
p1090
sa(dp1091
g2
S'26377'
p1092
sg4
L1449719592643L
sg5
g71
sg7
S'Canvas  '
p1093
sg9
S'0x67d1'
p1094
sg11
S'[HTMLCanvasElement::setSurfaceSize] size=[0,0]\n'
p1095
sa(dp1096
g2
S'26377'
p1097
sg4
L1449719592649L
sg5
g71
sg7
S'WebCore/XMLHttpRequest'
p1098
sg9
S'0x67d1'
p1099
sg11
S'changeState, from 0 to 1\n'
p1100
sa(dp1101
g2
S'26377'
p1102
sg4
L1449719592649L
sg5
g71
sg7
S'WebCore/XMLHttpRequest'
p1103
sg9
S'0x67d1'
p1104
sg11
S'callReadyStateChangeListener\n'
p1105
sa(dp1106
g2
S'26377'
p1107
sg4
L1449719592684L
sg5
g71
sg7
S'WebCore/XMLHttpRequest'
p1108
sg9
S'0x67d1'
p1109
sg11
S'changeState, from 1 to 2\n'
p1110
sa(dp1111
g2
S'26377'
p1112
sg4
L1449719592684L
sg5
g71
sg7
S'WebCore/XMLHttpRequest'
p1113
sg9
S'0x67d1'
p1114
sg11
S'callReadyStateChangeListener\n'
p1115
sa(dp1116
g2
S'26377'
p1117
sg4
L1449719592698L
sg5
g71
sg7
S'WebCore/XMLHttpRequest'
p1118
sg9
S'0x67d1'
p1119
sg11
S'changeState, from 2 to 3\n'
p1120
sa(dp1121
g2
S'26377'
p1122
sg4
L1449719592698L
sg5
g71
sg7
S'WebCore/XMLHttpRequest'
p1123
sg9
S'0x67d1'
p1124
sg11
S'callReadyStateChangeListener\n'
p1125
sa(dp1126
g2
S'26377'
p1127
sg4
L1449719592698L
sg5
g71
sg7
S'WebCore/XMLHttpRequest'
p1128
sg9
S'0x67d1'
p1129
sg11
S'changeState, from 3 to 4\n'
p1130
sa(dp1131
g2
S'26377'
p1132
sg4
L1449719592914L
sg5
g71
sg7
S'WebCore/XMLHttpRequest'
p1133
sg9
S'0x67d1'
p1134
sg11
S'changeState, from 0 to 1\n'
p1135
sa(dp1136
g2
S'26377'
p1137
sg4
L1449719592914L
sg5
g71
sg7
S'WebCore/XMLHttpRequest'
p1138
sg9
S'0x67d1'
p1139
sg11
S'callReadyStateChangeListener\n'
p1140
sa(dp1141
g2
S'26377'
p1142
sg4
L1449719593001L
sg5
g71
sg7
S'WebCore/XMLHttpRequest'
p1143
sg9
S'0x67d1'
p1144
sg11
S'changeState, from 1 to 2\n'
p1145
sa(dp1146
g2
S'26377'
p1147
sg4
L1449719593001L
sg5
g71
sg7
S'WebCore/XMLHttpRequest'
p1148
sg9
S'0x67d1'
p1149
sg11
S'callReadyStateChangeListener\n'
p1150
sa(dp1151
g2
S'26377'
p1152
sg4
L1449719593002L
sg5
g71
sg7
S'WebCore/XMLHttpRequest'
p1153
sg9
S'0x67d1'
p1154
sg11
S'changeState, from 2 to 3\n'
p1155
sa(dp1156
g2
S'26377'
p1157
sg4
L1449719593002L
sg5
g71
sg7
S'WebCore/XMLHttpRequest'
p1158
sg9
S'0x67d1'
p1159
sg11
S'callReadyStateChangeListener\n'
p1160
sa(dp1161
g2
S'26377'
p1162
sg4
L1449719593002L
sg5
g71
sg7
S'WebCore/XMLHttpRequest'
p1163
sg9
S'0x67d1'
p1164
sg11
S'changeState, from 3 to 4\n'
p1165
sa(dp1166
g2
S'26377'
p1167
sg4
L1449719593063L
sg5
g71
sg7
S'MainActivity'
p1168
sg9
S'0x67d1'
p1169
sg11
S'h:710.915,w:1197.07\n'
p1170
sa(dp1171
g2
S'26377'
p1172
sg4
L1449719593099L
sg5
g71
sg7
S'WebCore/XMLHttpRequest'
p1173
sg9
S'0x67d1'
p1174
sg11
S'changeState, from 1 to 2\n'
p1175
sa(dp1176
g2
S'26377'
p1177
sg4
L1449719593099L
sg5
g71
sg7
S'WebCore/XMLHttpRequest'
p1178
sg9
S'0x67d1'
p1179
sg11
S'callReadyStateChangeListener\n'
p1180
sa(dp1181
g2
S'26377'
p1182
sg4
L1449719593099L
sg5
g71
sg7
S'WebCore/XMLHttpRequest'
p1183
sg9
S'0x67d1'
p1184
sg11
S'readyState = 2\n'
p1185
sa(dp1186
g2
S'26377'
p1187
sg4
L1449719593100L
sg5
g71
sg7
S'WebCore/XMLHttpRequest'
p1188
sg9
S'0x67d1'
p1189
sg11
S'changeState, from 2 to 3\n'
p1190
sa(dp1191
g2
S'26377'
p1192
sg4
L1449719593100L
sg5
g71
sg7
S'WebCore/XMLHttpRequest'
p1193
sg9
S'0x67d1'
p1194
sg11
S'callReadyStateChangeListener\n'
p1195
sa(dp1196
g2
S'26377'
p1197
sg4
L1449719593100L
sg5
g71
sg7
S'WebCore/XMLHttpRequest'
p1198
sg9
S'0x67d1'
p1199
sg11
S'readyState = 3\n'
p1200
sa(dp1201
g2
S'26377'
p1202
sg4
L1449719593100L
sg5
g71
sg7
S'WebCore/XMLHttpRequest'
p1203
sg9
S'0x67d1'
p1204
sg11
S'changeState, from 3 to 4\n'
p1205
sa(dp1206
g2
S'26377'
p1207
sg4
L1449719593100L
sg5
g71
sg7
S'WebCore/XMLHttpRequest'
p1208
sg9
S'0x67d1'
p1209
sg11
S'readyState = 4\n'
p1210
sa(dp1211
g2
S'26377'
p1212
sg4
L1449719593103L
sg5
g71
sg7
S'WebCore/XMLHttpRequest'
p1213
sg9
S'0x67d1'
p1214
sg11
S'changeState, from 0 to 1\n'
p1215
sa(dp1216
g2
S'26377'
p1217
sg4
L1449719593103L
sg5
g71
sg7
S'WebCore/XMLHttpRequest'
p1218
sg9
S'0x67d1'
p1219
sg11
S'callReadyStateChangeListener\n'
p1220
sa(dp1221
g2
S'26377'
p1222
sg4
L1449719593104L
sg5
g71
sg7
S'WebCore/XMLHttpRequest'
p1223
sg9
S'0x67d1'
p1224
sg11
S'readyState = 1\n'
p1225
sa(dp1226
g2
S'26377'
p1227
sg4
L1449719593115L
sg5
g71
sg7
S'WebCore/XMLHttpRequest'
p1228
sg9
S'0x67d1'
p1229
sg11
S'changeState, from 1 to 2\n'
p1230
sa(dp1231
g2
S'26377'
p1232
sg4
L1449719593115L
sg5
g71
sg7
S'WebCore/XMLHttpRequest'
p1233
sg9
S'0x67d1'
p1234
sg11
S'callReadyStateChangeListener\n'
p1235
sa(dp1236
g2
S'26377'
p1237
sg4
L1449719593115L
sg5
g71
sg7
S'WebCore/XMLHttpRequest'
p1238
sg9
S'0x67d1'
p1239
sg11
S'readyState = 2\n'
p1240
sa(dp1241
g2
S'26377'
p1242
sg4
L1449719593115L
sg5
g71
sg7
S'WebCore/XMLHttpRequest'
p1243
sg9
S'0x67d1'
p1244
sg11
S'changeState, from 2 to 3\n'
p1245
sa(dp1246
g2
S'26377'
p1247
sg4
L1449719593115L
sg5
g71
sg7
S'WebCore/XMLHttpRequest'
p1248
sg9
S'0x67d1'
p1249
sg11
S'readyState = 3\n'
p1250
sa(dp1251
g2
S'26377'
p1252
sg4
L1449719593115L
sg5
g71
sg7
S'WebCore/XMLHttpRequest'
p1253
sg9
S'0x67d1'
p1254
sg11
S'changeState, from 3 to 4\n'
p1255
sa(dp1256
g2
S'26377'
p1257
sg4
L1449719593115L
sg5
g71
sg7
S'WebCore/XMLHttpRequest'
p1258
sg9
S'0x67d1'
p1259
sg11
S'readyState = 4\n'
p1260
sa(dp1261
g2
S'26377'
p1262
sg4
L1449719593121L
sg5
g71
sg7
S'WebCore/XMLHttpRequest'
p1263
sg9
S'0x67d1'
p1264
sg11
S'changeState, from 0 to 1\n'
p1265
sa(dp1266
g2
S'26377'
p1267
sg4
L1449719593121L
sg5
g71
sg7
S'WebCore/XMLHttpRequest'
p1268
sg9
S'0x67d1'
p1269
sg11
S'callReadyStateChangeListener\n'
p1270
sa(dp1271
g2
S'26377'
p1272
sg4
L1449719593121L
sg5
g71
sg7
S'WebCore/XMLHttpRequest'
p1273
sg9
S'0x67d1'
p1274
sg11
S'readyState = 1\n'
p1275
sa(dp1276
g2
S'26377'
p1277
sg4
L1449719593137L
sg5
g71
sg7
S'WebCore/XMLHttpRequest'
p1278
sg9
S'0x67d1'
p1279
sg11
S'changeState, from 1 to 2\n'
p1280
sa(dp1281
g2
S'26377'
p1282
sg4
L1449719593137L
sg5
g71
sg7
S'WebCore/XMLHttpRequest'
p1283
sg9
S'0x67d1'
p1284
sg11
S'callReadyStateChangeListener\n'
p1285
sa(dp1286
g2
S'26377'
p1287
sg4
L1449719593137L
sg5
g71
sg7
S'WebCore/XMLHttpRequest'
p1288
sg9
S'0x67d1'
p1289
sg11
S'readyState = 2\n'
p1290
sa(dp1291
g2
S'26377'
p1292
sg4
L1449719593137L
sg5
g71
sg7
S'WebCore/XMLHttpRequest'
p1293
sg9
S'0x67d1'
p1294
sg11
S'changeState, from 2 to 3\n'
p1295
sa(dp1296
g2
S'26377'
p1297
sg4
L1449719593137L
sg5
g71
sg7
S'WebCore/XMLHttpRequest'
p1298
sg9
S'0x67d1'
p1299
sg11
S'readyState = 3\n'
p1300
sa(dp1301
g2
S'26377'
p1302
sg4
L1449719593137L
sg5
g71
sg7
S'WebCore/XMLHttpRequest'
p1303
sg9
S'0x67d1'
p1304
sg11
S'changeState, from 3 to 4\n'
p1305
sa(dp1306
g2
S'26377'
p1307
sg4
L1449719593137L
sg5
g71
sg7
S'WebCore/XMLHttpRequest'
p1308
sg9
S'0x67d1'
p1309
sg11
S'readyState = 4\n'
p1310
sa(dp1311
g2
S'26377'
p1312
sg4
L1449719593138L
sg5
g71
sg7
S'WebCore/XMLHttpRequest'
p1313
sg9
S'0x67d1'
p1314
sg11
S'readyState = 4\n'
p1315
sa(dp1316
g2
S'26377'
p1317
sg4
L1449719593391L
sg5
g112
sg7
S'v8      '
p1318
sg9
S'0x67d1'
p1319
sg11
S'[26377]    29914 ms:  Mark-sweep 4.4 (15.2) -> 3.1 (15.2) MB, 34 / 83 ms [idle notification: contexts disposed] [GC in old space requested].\n'
p1320
sa(dp1321
g2
S'26377'
p1322
sg4
L1449719593578L
sg5
g15
sg7
S'SQLiteLog'
p1323
sg9
S'0x67f0'
p1324
sg11
S'(257) Open fd: 108, file: /data/data/com.example.myfristandroid/databases/webviewCookiesChromium.db-journal\n'
p1325
sa(dp1326
g2
S'26377'
p1327
sg4
L1449719593594L
sg5
g15
sg7
S'SQLiteLog'
p1328
sg9
S'0x67f0'
p1329
sg11
S'(257) Close fd: 108\n'
p1330
sa(dp1331
g2
S'26377'
p1332
sg4
L1449719594989L
sg5
g71
sg7
S'WebCore/XMLHttpRequest'
p1333
sg9
S'0x67d1'
p1334
sg11
S'changeState, from 0 to 1\n'
p1335
sa(dp1336
g2
S'26377'
p1337
sg4
L1449719594989L
sg5
g71
sg7
S'WebCore/XMLHttpRequest'
p1338
sg9
S'0x67d1'
p1339
sg11
S'callReadyStateChangeListener\n'
p1340
sa(dp1341
g2
S'26377'
p1342
sg4
L1449719594989L
sg5
g71
sg7
S'WebCore/XMLHttpRequest'
p1343
sg9
S'0x67d1'
p1344
sg11
S'readyState = 1\n'
p1345
sa(dp1346
g2
S'26377'
p1347
sg4
L1449719595021L
sg5
g71
sg7
S'WebCore/XMLHttpRequest'
p1348
sg9
S'0x67d1'
p1349
sg11
S'changeState, from 1 to 2\n'
p1350
sa(dp1351
g2
S'26377'
p1352
sg4
L1449719595021L
sg5
g71
sg7
S'WebCore/XMLHttpRequest'
p1353
sg9
S'0x67d1'
p1354
sg11
S'callReadyStateChangeListener\n'
p1355
sa(dp1356
g2
S'26377'
p1357
sg4
L1449719595022L
sg5
g71
sg7
S'WebCore/XMLHttpRequest'
p1358
sg9
S'0x67d1'
p1359
sg11
S'readyState = 2\n'
p1360
sa(dp1361
g2
S'26377'
p1362
sg4
L1449719595022L
sg5
g71
sg7
S'WebCore/XMLHttpRequest'
p1363
sg9
S'0x67d1'
p1364
sg11
S'changeState, from 2 to 3\n'
p1365
sa(dp1366
g2
S'26377'
p1367
sg4
L1449719595022L
sg5
g71
sg7
S'WebCore/XMLHttpRequest'
p1368
sg9
S'0x67d1'
p1369
sg11
S'callReadyStateChangeListener\n'
p1370
sa(dp1371
g2
S'26377'
p1372
sg4
L1449719595022L
sg5
g71
sg7
S'WebCore/XMLHttpRequest'
p1373
sg9
S'0x67d1'
p1374
sg11
S'readyState = 3\n'
p1375
sa(dp1376
g2
S'26377'
p1377
sg4
L1449719595022L
sg5
g71
sg7
S'WebCore/XMLHttpRequest'
p1378
sg9
S'0x67d1'
p1379
sg11
S'changeState, from 3 to 4\n'
p1380
sa(dp1381
g2
S'26377'
p1382
sg4
L1449719595022L
sg5
g71
sg7
S'WebCore/XMLHttpRequest'
p1383
sg9
S'0x67d1'
p1384
sg11
S'readyState = 4\n'
p1385
sa(dp1386
g2
S'26377'
p1387
sg4
L1449719595108L
sg5
g71
sg7
S'cn.edu.nju.ise.kikandroid'
p1388
sg9
S'0x676d'
p1389
sg11
S'Screenshot:1449719595108\n'
p1390
sa(dp1391
g2
S'26377'
p1392
sg4
L1449719596149L
sg5
g71
sg7
S'WebCore/XMLHttpRequest'
p1393
sg9
S'0x67d1'
p1394
sg11
S'changeState, from 0 to 1\n'
p1395
sa(dp1396
g2
S'26377'
p1397
sg4
L1449719596149L
sg5
g71
sg7
S'WebCore/XMLHttpRequest'
p1398
sg9
S'0x67d1'
p1399
sg11
S'callReadyStateChangeListener\n'
p1400
sa(dp1401
g2
S'26377'
p1402
sg4
L1449719596150L
sg5
g71
sg7
S'WebCore/XMLHttpRequest'
p1403
sg9
S'0x67d1'
p1404
sg11
S'readyState = 1\n'
p1405
sa(dp1406
g2
S'26377'
p1407
sg4
L1449719596182L
sg5
g71
sg7
S'WebCore/XMLHttpRequest'
p1408
sg9
S'0x67d1'
p1409
sg11
S'changeState, from 1 to 2\n'
p1410
sa(dp1411
g2
S'26377'
p1412
sg4
L1449719596182L
sg5
g71
sg7
S'WebCore/XMLHttpRequest'
p1413
sg9
S'0x67d1'
p1414
sg11
S'callReadyStateChangeListener\n'
p1415
sa(dp1416
g2
S'26377'
p1417
sg4
L1449719596182L
sg5
g71
sg7
S'WebCore/XMLHttpRequest'
p1418
sg9
S'0x67d1'
p1419
sg11
S'readyState = 2\n'
p1420
sa(dp1421
g2
S'26377'
p1422
sg4
L1449719596183L
sg5
g71
sg7
S'WebCore/XMLHttpRequest'
p1423
sg9
S'0x67d1'
p1424
sg11
S'changeState, from 2 to 3\n'
p1425
sa(dp1426
g2
S'26377'
p1427
sg4
L1449719596183L
sg5
g71
sg7
S'WebCore/XMLHttpRequest'
p1428
sg9
S'0x67d1'
p1429
sg11
S'callReadyStateChangeListener\n'
p1430
sa(dp1431
g2
S'26377'
p1432
sg4
L1449719596183L
sg5
g71
sg7
S'WebCore/XMLHttpRequest'
p1433
sg9
S'0x67d1'
p1434
sg11
S'readyState = 3\n'
p1435
sa(dp1436
g2
S'26377'
p1437
sg4
L1449719596183L
sg5
g71
sg7
S'WebCore/XMLHttpRequest'
p1438
sg9
S'0x67d1'
p1439
sg11
S'changeState, from 3 to 4\n'
p1440
sa(dp1441
g2
S'26377'
p1442
sg4
L1449719596183L
sg5
g71
sg7
S'WebCore/XMLHttpRequest'
p1443
sg9
S'0x67d1'
p1444
sg11
S'readyState = 4\n'
p1445
sa(dp1446
g2
S'26377'
p1447
sg4
L1449719596193L
sg5
g71
sg7
S'WebCore/XMLHttpRequest'
p1448
sg9
S'0x67d1'
p1449
sg11
S'changeState, from 0 to 1\n'
p1450
sa(dp1451
g2
S'26377'
p1452
sg4
L1449719596193L
sg5
g71
sg7
S'WebCore/XMLHttpRequest'
p1453
sg9
S'0x67d1'
p1454
sg11
S'callReadyStateChangeListener\n'
p1455
sa(dp1456
g2
S'26377'
p1457
sg4
L1449719596193L
sg5
g71
sg7
S'WebCore/XMLHttpRequest'
p1458
sg9
S'0x67d1'
p1459
sg11
S'readyState = 1\n'
p1460
sa(dp1461
g2
S'26377'
p1462
sg4
L1449719596206L
sg5
g71
sg7
S'WebCore/XMLHttpRequest'
p1463
sg9
S'0x67d1'
p1464
sg11
S'changeState, from 1 to 2\n'
p1465
sa(dp1466
g2
S'26377'
p1467
sg4
L1449719596206L
sg5
g71
sg7
S'WebCore/XMLHttpRequest'
p1468
sg9
S'0x67d1'
p1469
sg11
S'callReadyStateChangeListener\n'
p1470
sa(dp1471
g2
S'26377'
p1472
sg4
L1449719596208L
sg5
g71
sg7
S'WebCore/XMLHttpRequest'
p1473
sg9
S'0x67d1'
p1474
sg11
S'readyState = 2\n'
p1475
sa(dp1476
g2
S'26377'
p1477
sg4
L1449719596208L
sg5
g71
sg7
S'WebCore/XMLHttpRequest'
p1478
sg9
S'0x67d1'
p1479
sg11
S'changeState, from 2 to 3\n'
p1480
sa(dp1481
g2
S'26377'
p1482
sg4
L1449719596208L
sg5
g71
sg7
S'WebCore/XMLHttpRequest'
p1483
sg9
S'0x67d1'
p1484
sg11
S'callReadyStateChangeListener\n'
p1485
sa(dp1486
g2
S'26377'
p1487
sg4
L1449719596208L
sg5
g71
sg7
S'WebCore/XMLHttpRequest'
p1488
sg9
S'0x67d1'
p1489
sg11
S'readyState = 3\n'
p1490
sa(dp1491
g2
S'26377'
p1492
sg4
L1449719596208L
sg5
g71
sg7
S'WebCore/XMLHttpRequest'
p1493
sg9
S'0x67d1'
p1494
sg11
S'changeState, from 3 to 4\n'
p1495
sa(dp1496
g2
S'26377'
p1497
sg4
L1449719596208L
sg5
g71
sg7
S'WebCore/XMLHttpRequest'
p1498
sg9
S'0x67d1'
p1499
sg11
S'readyState = 4\n'
p1500
sa(dp1501
g2
S'26377'
p1502
sg4
L1449719596598L
sg5
g71
sg7
S'WebCore/XMLHttpRequest'
p1503
sg9
S'0x67d1'
p1504
sg11
S'changeState, from 0 to 1\n'
p1505
sa(dp1506
g2
S'26377'
p1507
sg4
L1449719596598L
sg5
g71
sg7
S'WebCore/XMLHttpRequest'
p1508
sg9
S'0x67d1'
p1509
sg11
S'callReadyStateChangeListener\n'
p1510
sa(dp1511
g2
S'26377'
p1512
sg4
L1449719596598L
sg5
g71
sg7
S'WebCore/XMLHttpRequest'
p1513
sg9
S'0x67d1'
p1514
sg11
S'readyState = 1\n'
p1515
sa(dp1516
g2
S'26377'
p1517
sg4
L1449719596606L
sg5
g71
sg7
S'Canvas  '
p1518
sg9
S'0x67d1'
p1519
sg11
S'[HTMLCanvasElement::setSurfaceSize] size=[0,0]\n'
p1520
sa(dp1521
g2
S'26377'
p1522
sg4
L1449719596610L
sg5
g71
sg7
S'WebCore/XMLHttpRequest'
p1523
sg9
S'0x67d1'
p1524
sg11
S'changeState, from 0 to 1\n'
p1525
sa(dp1526
g2
S'26377'
p1527
sg4
L1449719596610L
sg5
g71
sg7
S'WebCore/XMLHttpRequest'
p1528
sg9
S'0x67d1'
p1529
sg11
S'callReadyStateChangeListener\n'
p1530
sa(dp1531
g2
S'26377'
p1532
sg4
L1449719596620L
sg5
g71
sg7
S'WebCore/XMLHttpRequest'
p1533
sg9
S'0x67d1'
p1534
sg11
S'changeState, from 1 to 2\n'
p1535
sa(dp1536
g2
S'26377'
p1537
sg4
L1449719596620L
sg5
g71
sg7
S'WebCore/XMLHttpRequest'
p1538
sg9
S'0x67d1'
p1539
sg11
S'callReadyStateChangeListener\n'
p1540
sa(dp1541
g2
S'26377'
p1542
sg4
L1449719596623L
sg5
g71
sg7
S'WebCore/XMLHttpRequest'
p1543
sg9
S'0x67d1'
p1544
sg11
S'changeState, from 2 to 3\n'
p1545
sa(dp1546
g2
S'26377'
p1547
sg4
L1449719596623L
sg5
g71
sg7
S'WebCore/XMLHttpRequest'
p1548
sg9
S'0x67d1'
p1549
sg11
S'callReadyStateChangeListener\n'
p1550
sa(dp1551
g2
S'26377'
p1552
sg4
L1449719596623L
sg5
g71
sg7
S'WebCore/XMLHttpRequest'
p1553
sg9
S'0x67d1'
p1554
sg11
S'changeState, from 3 to 4\n'
p1555
sa(dp1556
g2
S'26377'
p1557
sg4
L1449719596785L
sg5
g71
sg7
S'WebCore/XMLHttpRequest'
p1558
sg9
S'0x67d1'
p1559
sg11
S'changeState, from 0 to 1\n'
p1560
sa(dp1561
g2
S'26377'
p1562
sg4
L1449719596785L
sg5
g71
sg7
S'WebCore/XMLHttpRequest'
p1563
sg9
S'0x67d1'
p1564
sg11
S'callReadyStateChangeListener\n'
p1565
sa(dp1566
g2
S'26377'
p1567
sg4
L1449719596787L
sg5
g71
sg7
S'WebCore/XMLHttpRequest'
p1568
sg9
S'0x67d1'
p1569
sg11
S'changeState, from 1 to 2\n'
p1570
sa(dp1571
g2
S'26377'
p1572
sg4
L1449719596787L
sg5
g71
sg7
S'WebCore/XMLHttpRequest'
p1573
sg9
S'0x67d1'
p1574
sg11
S'callReadyStateChangeListener\n'
p1575
sa(dp1576
g2
S'26377'
p1577
sg4
L1449719596787L
sg5
g71
sg7
S'WebCore/XMLHttpRequest'
p1578
sg9
S'0x67d1'
p1579
sg11
S'changeState, from 2 to 3\n'
p1580
sa(dp1581
g2
S'26377'
p1582
sg4
L1449719596787L
sg5
g71
sg7
S'WebCore/XMLHttpRequest'
p1583
sg9
S'0x67d1'
p1584
sg11
S'changeState, from 3 to 4\n'
p1585
sa(dp1586
g2
S'26377'
p1587
sg4
L1449719596836L
sg5
g71
sg7
S'MainActivity'
p1588
sg9
S'0x67d1'
p1589
sg11
S'h:710.915,w:1183.07\n'
p1590
sa(dp1591
g2
S'26377'
p1592
sg4
L1449719596855L
sg5
g71
sg7
S'WebCore/XMLHttpRequest'
p1593
sg9
S'0x67d1'
p1594
sg11
S'changeState, from 1 to 2\n'
p1595
sa(dp1596
g2
S'26377'
p1597
sg4
L1449719596855L
sg5
g71
sg7
S'WebCore/XMLHttpRequest'
p1598
sg9
S'0x67d1'
p1599
sg11
S'callReadyStateChangeListener\n'
p1600
sa(dp1601
g2
S'26377'
p1602
sg4
L1449719596855L
sg5
g71
sg7
S'WebCore/XMLHttpRequest'
p1603
sg9
S'0x67d1'
p1604
sg11
S'readyState = 2\n'
p1605
sa(dp1606
g2
S'26377'
p1607
sg4
L1449719596855L
sg5
g71
sg7
S'WebCore/XMLHttpRequest'
p1608
sg9
S'0x67d1'
p1609
sg11
S'changeState, from 2 to 3\n'
p1610
sa(dp1611
g2
S'26377'
p1612
sg4
L1449719596855L
sg5
g71
sg7
S'WebCore/XMLHttpRequest'
p1613
sg9
S'0x67d1'
p1614
sg11
S'readyState = 3\n'
p1615
sa(dp1616
g2
S'26377'
p1617
sg4
L1449719596855L
sg5
g71
sg7
S'WebCore/XMLHttpRequest'
p1618
sg9
S'0x67d1'
p1619
sg11
S'changeState, from 3 to 4\n'
p1620
sa(dp1621
g2
S'26377'
p1622
sg4
L1449719596855L
sg5
g71
sg7
S'WebCore/XMLHttpRequest'
p1623
sg9
S'0x67d1'
p1624
sg11
S'readyState = 4\n'
p1625
sa(dp1626
g2
S'26377'
p1627
sg4
L1449719596859L
sg5
g71
sg7
S'WebCore/XMLHttpRequest'
p1628
sg9
S'0x67d1'
p1629
sg11
S'changeState, from 0 to 1\n'
p1630
sa(dp1631
g2
S'26377'
p1632
sg4
L1449719596859L
sg5
g71
sg7
S'WebCore/XMLHttpRequest'
p1633
sg9
S'0x67d1'
p1634
sg11
S'callReadyStateChangeListener\n'
p1635
sa(dp1636
g2
S'26377'
p1637
sg4
L1449719596859L
sg5
g71
sg7
S'WebCore/XMLHttpRequest'
p1638
sg9
S'0x67d1'
p1639
sg11
S'readyState = 1\n'
p1640
sa(dp1641
g2
S'26377'
p1642
sg4
L1449719596872L
sg5
g71
sg7
S'WebCore/XMLHttpRequest'
p1643
sg9
S'0x67d1'
p1644
sg11
S'changeState, from 1 to 2\n'
p1645
sa(dp1646
g2
S'26377'
p1647
sg4
L1449719596872L
sg5
g71
sg7
S'WebCore/XMLHttpRequest'
p1648
sg9
S'0x67d1'
p1649
sg11
S'callReadyStateChangeListener\n'
p1650
sa(dp1651
g2
S'26377'
p1652
sg4
L1449719596873L
sg5
g71
sg7
S'WebCore/XMLHttpRequest'
p1653
sg9
S'0x67d1'
p1654
sg11
S'readyState = 2\n'
p1655
sa(dp1656
g2
S'26377'
p1657
sg4
L1449719596873L
sg5
g71
sg7
S'WebCore/XMLHttpRequest'
p1658
sg9
S'0x67d1'
p1659
sg11
S'changeState, from 2 to 3\n'
p1660
sa(dp1661
g2
S'26377'
p1662
sg4
L1449719596873L
sg5
g71
sg7
S'WebCore/XMLHttpRequest'
p1663
sg9
S'0x67d1'
p1664
sg11
S'callReadyStateChangeListener\n'
p1665
sa(dp1666
g2
S'26377'
p1667
sg4
L1449719596873L
sg5
g71
sg7
S'WebCore/XMLHttpRequest'
p1668
sg9
S'0x67d1'
p1669
sg11
S'readyState = 3\n'
p1670
sa(dp1671
g2
S'26377'
p1672
sg4
L1449719596873L
sg5
g71
sg7
S'WebCore/XMLHttpRequest'
p1673
sg9
S'0x67d1'
p1674
sg11
S'changeState, from 3 to 4\n'
p1675
sa(dp1676
g2
S'26377'
p1677
sg4
L1449719596873L
sg5
g71
sg7
S'WebCore/XMLHttpRequest'
p1678
sg9
S'0x67d1'
p1679
sg11
S'readyState = 4\n'
p1680
sa(dp1681
g2
S'26377'
p1682
sg4
L1449719596878L
sg5
g71
sg7
S'WebCore/XMLHttpRequest'
p1683
sg9
S'0x67d1'
p1684
sg11
S'changeState, from 0 to 1\n'
p1685
sa(dp1686
g2
S'26377'
p1687
sg4
L1449719596879L
sg5
g71
sg7
S'WebCore/XMLHttpRequest'
p1688
sg9
S'0x67d1'
p1689
sg11
S'callReadyStateChangeListener\n'
p1690
sa(dp1691
g2
S'26377'
p1692
sg4
L1449719596879L
sg5
g71
sg7
S'WebCore/XMLHttpRequest'
p1693
sg9
S'0x67d1'
p1694
sg11
S'readyState = 1\n'
p1695
sa(dp1696
g2
S'26377'
p1697
sg4
L1449719596896L
sg5
g71
sg7
S'WebCore/XMLHttpRequest'
p1698
sg9
S'0x67d1'
p1699
sg11
S'changeState, from 1 to 2\n'
p1700
sa(dp1701
g2
S'26377'
p1702
sg4
L1449719596896L
sg5
g71
sg7
S'WebCore/XMLHttpRequest'
p1703
sg9
S'0x67d1'
p1704
sg11
S'callReadyStateChangeListener\n'
p1705
sa(dp1706
g2
S'26377'
p1707
sg4
L1449719596897L
sg5
g71
sg7
S'WebCore/XMLHttpRequest'
p1708
sg9
S'0x67d1'
p1709
sg11
S'readyState = 2\n'
p1710
sa(dp1711
g2
S'26377'
p1712
sg4
L1449719596897L
sg5
g71
sg7
S'WebCore/XMLHttpRequest'
p1713
sg9
S'0x67d1'
p1714
sg11
S'changeState, from 2 to 3\n'
p1715
sa(dp1716
g2
S'26377'
p1717
sg4
L1449719596897L
sg5
g71
sg7
S'WebCore/XMLHttpRequest'
p1718
sg9
S'0x67d1'
p1719
sg11
S'callReadyStateChangeListener\n'
p1720
sa(dp1721
g2
S'26377'
p1722
sg4
L1449719596897L
sg5
g71
sg7
S'WebCore/XMLHttpRequest'
p1723
sg9
S'0x67d1'
p1724
sg11
S'readyState = 3\n'
p1725
sa(dp1726
g2
S'26377'
p1727
sg4
L1449719596897L
sg5
g71
sg7
S'WebCore/XMLHttpRequest'
p1728
sg9
S'0x67d1'
p1729
sg11
S'changeState, from 3 to 4\n'
p1730
sa(dp1731
g2
S'26377'
p1732
sg4
L1449719596897L
sg5
g71
sg7
S'WebCore/XMLHttpRequest'
p1733
sg9
S'0x67d1'
p1734
sg11
S'readyState = 4\n'
p1735
sa(dp1736
g2
S'26377'
p1737
sg4
L1449719597155L
sg5
g112
sg7
S'v8      '
p1738
sg9
S'0x67d1'
p1739
sg11
S'[26377]    33677 ms:  Mark-sweep 4.0 (15.2) -> 3.1 (14.2) MB, 24 / 73 ms [idle notification: contexts disposed] [GC in old space requested].\n'
p1740
sa(dp1741
g2
S'26377'
p1742
sg4
L1449719597834L
sg5
g71
sg7
S'StrictMode'
p1743
sg9
S'0x6709'
p1744
sg11
S'StrictMode policy violation; ~duration=68 ms: android.os.StrictMode$StrictModeDiskReadViolation: policy=279 violation=2\n\tat android.os.StrictMode$AndroidBlockGuardPolicy.onReadFromDisk(StrictMode.java:1118)\n\tat libcore.io.BlockGuardOs.open(BlockGuardOs.java:106)\n\tat libcore.io.IoBridge.open(IoBridge.java:444)\n\tat java.io.FileInputStream.<init>(FileInputStream.java:78)\n\tat java.io.FileInputStream.<init>(FileInputStream.java:105)\n\tat java.io.FileReader.<init>(FileReader.java:66)\n\tat com.android.server.am.ActivityStack.readFileInt(ActivityStack.java:1165)\n\tat com.android.server.am.ActivityStack.startPausingLocked(ActivityStack.java:1403)\n\tat com.android.server.am.ActivityStack.finishActivityLocked(ActivityStack.java:4704)\n\tat com.android.server.am.ActivityStack.finishActivityLocked(ActivityStack.java:4632)\n\tat com.android.server.am.ActivityStack.requestFinishActivityLocked(ActivityStack.java:4548)\n\tat com.android.server.am.ActivityManagerService.finishActivity(ActivityManagerService.java:3231)\n\tat android.app.ActivityManagerNative.onTransact(ActivityManagerNative.java:259)\n\tat com.android.server.am.ActivityManagerService.onTransact(ActivityManagerService.java:1966)\n\tat android.os.Binder.execTransact(Binder.java:351)\n\tat dalvik.system.NativeStart.run(Native Method)\n# via Binder call with stack:\nandroid.os.StrictMode$LogStackTrace\n\tat android.os.StrictMode.readAndHandleBinderCallViolations(StrictMode.java:1700)\n\tat android.os.Parcel.readExceptionCode(Parcel.java:1407)\n\tat android.os.Parcel.readException(Parcel.java:1376)\n\tat android.app.ActivityManagerProxy.finishActivity(ActivityManagerNative.java:2120)\n\tat android.app.Activity.finish(Activity.java:4313)\n\tat com.example.myfristandroid.graphWebShow.onKeyDown(graphWebShow.java:146)\n\tat android.view.KeyEvent.dispatch(KeyEvent.java:2679)\n\tat android.app.Activity.dispatchKeyEvent(Activity.java:2443)\n\tat com.android.internal.policy.impl.PhoneWindow$DecorView.dispatchKeyEvent(PhoneWindow.java:1884)\n\tat android.view.ViewRootImpl.deliverKeyEventPostIme(ViewRootImpl.java:4275)\n\tat android.view.ViewRootImpl.handleImeFinishedEvent(ViewRootImpl.java:4218)\n\tat android.view.ViewRootImpl$ViewRootHandler.handleMessage(ViewRootImpl.java:3263)\n\tat android.os.Handler.dispatchMessage(Handler.java:107)\n\tat android.os.Looper.loop(Looper.java:194)\n\tat android.app.ActivityThread.main(ActivityThread.java:5434)\n\tat java.lang.reflect.Method.invokeNative(Native Method)\n\tat java.lang.reflect.Method.invoke(Method.java:525)\n\tat com.android.internal.os.ZygoteInit$MethodAndArgsCaller.run(ZygoteInit.java:838)\n\tat com.android.internal.os.ZygoteInit.main(ZygoteInit.java:605)\n\tat dalvik.system.NativeStart.main(Native Method)\n'
p1745
sa(dp1746
g2
S'26377'
p1747
sg4
L1449719597834L
sg5
g71
sg7
S'StrictMode'
p1748
sg9
S'0x6709'
p1749
sg11
S'StrictMode policy violation; ~duration=65 ms: android.os.StrictMode$StrictModeDiskReadViolation: policy=279 violation=2\n\tat android.os.StrictMode$AndroidBlockGuardPolicy.onReadFromDisk(StrictMode.java:1118)\n\tat libcore.io.BlockGuardOs.read(BlockGuardOs.java:148)\n\tat libcore.io.IoBridge.read(IoBridge.java:476)\n\tat java.io.FileInputStream.read(FileInputStream.java:179)\n\tat java.io.InputStreamReader.read(InputStreamReader.java:233)\n\tat java.io.BufferedReader.fillBuf(BufferedReader.java:145)\n\tat java.io.BufferedReader.readLine(BufferedReader.java:397)\n\tat com.android.server.am.ActivityStack.readFileInt(ActivityStack.java:1167)\n\tat com.android.server.am.ActivityStack.startPausingLocked(ActivityStack.java:1403)\n\tat com.android.server.am.ActivityStack.finishActivityLocked(ActivityStack.java:4704)\n\tat com.android.server.am.ActivityStack.finishActivityLocked(ActivityStack.java:4632)\n\tat com.android.server.am.ActivityStack.requestFinishActivityLocked(ActivityStack.java:4548)\n\tat com.android.server.am.ActivityManagerService.finishActivity(ActivityManagerService.java:3231)\n\tat android.app.ActivityManagerNative.onTransact(ActivityManagerNative.java:259)\n\tat com.android.server.am.ActivityManagerService.onTransact(ActivityManagerService.java:1966)\n\tat android.os.Binder.execTransact(Binder.java:351)\n\tat dalvik.system.NativeStart.run(Native Method)\n# via Binder call with stack:\nandroid.os.StrictMode$LogStackTrace\n\tat android.os.StrictMode.readAndHandleBinderCallViolations(StrictMode.java:1700)\n\tat android.os.Parcel.readExceptionCode(Parcel.java:1407)\n\tat android.os.Parcel.readException(Parcel.java:1376)\n\tat android.app.ActivityManagerProxy.finishActivity(ActivityManagerNative.java:2120)\n\tat android.app.Activity.finish(Activity.java:4313)\n\tat com.example.myfristandroid.graphWebShow.onKeyDown(graphWebShow.java:146)\n\tat android.view.KeyEvent.dispatch(KeyEvent.java:2679)\n\tat android.app.Activity.dispatchKeyEvent(Activity.java:2443)\n\tat com.android.internal.policy.impl.PhoneWindow$DecorView.dispatchKeyEvent(PhoneWindow.java:1884)\n\tat android.view.ViewRootImpl.deliverKeyEventPostIme(ViewRootImpl.java:4275)\n\tat android.view.ViewRootImpl.handleImeFinishedEvent(ViewRootImpl.java:4218)\n\tat android.view.ViewRootImpl$ViewRootHandler.handleMessage(ViewRootImpl.java:3263)\n\tat android.os.Handler.dispatchMessage(Handler.java:107)\n\tat android.os.Looper.loop(Looper.java:194)\n\tat android.app.ActivityThread.main(ActivityThread.java:5434)\n\tat java.lang.reflect.Method.invokeNative(Native Method)\n\tat java.lang.reflect.Method.invoke(Method.java:525)\n\tat com.android.internal.os.ZygoteInit$MethodAndArgsCaller.run(ZygoteInit.java:838)\n\tat com.android.internal.os.ZygoteInit.main(ZygoteInit.java:605)\n\tat dalvik.system.NativeStart.main(Native Method)\n'
p1750
sa(dp1751
g2
S'26377'
p1752
sg4
L1449719598032L
sg5
g71
sg7
S'StrictMode'
p1753
sg9
S'0x6709'
p1754
sg11
S'StrictMode policy violation; ~duration=46 ms: android.os.StrictMode$StrictModeDiskWriteViolation: policy=279 violation=1\n\tat android.os.StrictMode$AndroidBlockGuardPolicy.onWriteToDisk(StrictMode.java:1092)\n\tat libcore.io.BlockGuardOs.write(BlockGuardOs.java:196)\n\tat libcore.io.IoBridge.write(IoBridge.java:501)\n\tat java.io.FileOutputStream.write(FileOutputStream.java:187)\n\tat java.io.OutputStreamWriter.flushBytes(OutputStreamWriter.java:167)\n\tat java.io.OutputStreamWriter.flush(OutputStreamWriter.java:158)\n\tat com.mediatek.common.thermal.MtkThermalSwitchManager.execShellCommand(MtkThermalSwitchManager.java:142)\n\tat com.mediatek.common.thermal.MtkThermalSwitchManager.changeToDynamicThermalManagement(MtkThermalSwitchManager.java:411)\n\tat com.mediatek.common.thermal.MtkThermalSwitchManager.notifyAppState(MtkThermalSwitchManager.java:125)\n\tat com.android.server.am.ActivityManagerService.reportResumedActivityLocked(ActivityManagerService.java:2824)\n\tat com.android.server.am.ActivityStack.completeResumeLocked(ActivityStack.java:1743)\n\tat com.android.server.am.ActivityStack.resumeTopActivityLocked(ActivityStack.java:2454)\n\tat com.android.server.am.ActivityStack.resumeTopActivityLocked(ActivityStack.java:1942)\n\tat com.android.server.am.ActivityStack.completePauseLocked(ActivityStack.java:1672)\n\tat com.android.server.am.ActivityStack.activityPaused(ActivityStack.java:1533)\n\tat com.android.server.am.ActivityManagerService.activityPaused(ActivityManagerService.java:5673)\n\tat android.app.ActivityManagerNative.onTransact(ActivityManagerNative.java:419)\n\tat com.android.server.am.ActivityManagerService.onTransact(ActivityManagerService.java:1966)\n\tat android.os.Binder.execTransact(Binder.java:351)\n\tat dalvik.system.NativeStart.run(Native Method)\n# via Binder call with stack:\nandroid.os.StrictMode$LogStackTrace\n\tat android.os.StrictMode.readAndHandleBinderCallViolations(StrictMode.java:1700)\n\tat android.os.Parcel.readExceptionCode(Parcel.java:1407)\n\tat android.os.Parcel.readException(Parcel.java:1376)\n\tat android.app.ActivityManagerProxy.activityPaused(ActivityManagerNative.java:2302)\n\tat android.app.ActivityThread.handlePauseActivity(ActivityThread.java:3182)\n\tat android.app.ActivityThread.access$800(ActivityThread.java:175)\n\tat android.app.ActivityThread$H.handleMessage(ActivityThread.java:1403)\n\tat android.os.Handler.dispatchMessage(Handler.java:107)\n\tat android.os.Looper.loop(Looper.java:194)\n\tat android.app.ActivityThread.main(ActivityThread.java:5434)\n\tat java.lang.reflect.Method.invokeNative(Native Method)\n\tat java.lang.reflect.Method.invoke(Method.java:525)\n\tat com.android.internal.os.ZygoteInit$MethodAndArgsCaller.run(ZygoteInit.java:838)\n\tat com.android.internal.os.ZygoteInit.main(ZygoteInit.java:605)\n\tat dalvik.system.NativeStart.main(Native Method)\n'
p1755
sa(dp1756
g2
S'26377'
p1757
sg4
L1449719598058L
sg5
g71
sg7
S'WebCore/XMLHttpRequest'
p1758
sg9
S'0x67d1'
p1759
sg11
S'changeState, from 0 to 1\n'
p1760
sa(dp1761
g2
S'26377'
p1762
sg4
L1449719598058L
sg5
g71
sg7
S'WebCore/XMLHttpRequest'
p1763
sg9
S'0x67d1'
p1764
sg11
S'callReadyStateChangeListener\n'
p1765
sa(dp1766
g2
S'26377'
p1767
sg4
L1449719598059L
sg5
g71
sg7
S'WebCore/XMLHttpRequest'
p1768
sg9
S'0x67d1'
p1769
sg11
S'readyState = 1\n'
p1770
sa(dp1771
g2
S'26377'
p1772
sg4
L1449719598091L
sg5
g71
sg7
S'WebCore/XMLHttpRequest'
p1773
sg9
S'0x67d1'
p1774
sg11
S'changeState, from 1 to 2\n'
p1775
sa(dp1776
g2
S'26377'
p1777
sg4
L1449719598091L
sg5
g71
sg7
S'WebCore/XMLHttpRequest'
p1778
sg9
S'0x67d1'
p1779
sg11
S'callReadyStateChangeListener\n'
p1780
sa(dp1781
g2
S'26377'
p1782
sg4
L1449719598091L
sg5
g71
sg7
S'WebCore/XMLHttpRequest'
p1783
sg9
S'0x67d1'
p1784
sg11
S'readyState = 2\n'
p1785
sa(dp1786
g2
S'26377'
p1787
sg4
L1449719598091L
sg5
g71
sg7
S'WebCore/XMLHttpRequest'
p1788
sg9
S'0x67d1'
p1789
sg11
S'changeState, from 2 to 3\n'
p1790
sa(dp1791
g2
S'26377'
p1792
sg4
L1449719598091L
sg5
g71
sg7
S'WebCore/XMLHttpRequest'
p1793
sg9
S'0x67d1'
p1794
sg11
S'readyState = 3\n'
p1795
sa(dp1796
g2
S'26377'
p1797
sg4
L1449719598091L
sg5
g71
sg7
S'WebCore/XMLHttpRequest'
p1798
sg9
S'0x67d1'
p1799
sg11
S'changeState, from 3 to 4\n'
p1800
sa(dp1801
g2
S'26377'
p1802
sg4
L1449719598092L
sg5
g71
sg7
S'WebCore/XMLHttpRequest'
p1803
sg9
S'0x67d1'
p1804
sg11
S'callReadyStateChangeListener\n'
p1805
sa(dp1806
g2
S'26377'
p1807
sg4
L1449719598092L
sg5
g71
sg7
S'WebCore/XMLHttpRequest'
p1808
sg9
S'0x67d1'
p1809
sg11
S'readyState = 4\n'
p1810
sa(dp1811
g2
S'26377'
p1812
sg4
L1449719599905L
sg5
g71
sg7
S'WebCore/XMLHttpRequest'
p1813
sg9
S'0x67d1'
p1814
sg11
S'changeState, from 0 to 1\n'
p1815
sa(dp1816
g2
S'26377'
p1817
sg4
L1449719599905L
sg5
g71
sg7
S'WebCore/XMLHttpRequest'
p1818
sg9
S'0x67d1'
p1819
sg11
S'callReadyStateChangeListener\n'
p1820
sa(dp1821
g2
S'26377'
p1822
sg4
L1449719599905L
sg5
g71
sg7
S'WebCore/XMLHttpRequest'
p1823
sg9
S'0x67d1'
p1824
sg11
S'readyState = 1\n'
p1825
sa(dp1826
g2
S'26377'
p1827
sg4
L1449719599916L
sg5
g71
sg7
S'WebCore/XMLHttpRequest'
p1828
sg9
S'0x67d1'
p1829
sg11
S'changeState, from 1 to 2\n'
p1830
sa(dp1831
g2
S'26377'
p1832
sg4
L1449719599916L
sg5
g71
sg7
S'WebCore/XMLHttpRequest'
p1833
sg9
S'0x67d1'
p1834
sg11
S'callReadyStateChangeListener\n'
p1835
sa(dp1836
g2
S'26377'
p1837
sg4
L1449719599916L
sg5
g71
sg7
S'WebCore/XMLHttpRequest'
p1838
sg9
S'0x67d1'
p1839
sg11
S'readyState = 2\n'
p1840
sa(dp1841
g2
S'26377'
p1842
sg4
L1449719599917L
sg5
g71
sg7
S'WebCore/XMLHttpRequest'
p1843
sg9
S'0x67d1'
p1844
sg11
S'changeState, from 2 to 3\n'
p1845
sa(dp1846
g2
S'26377'
p1847
sg4
L1449719599917L
sg5
g71
sg7
S'WebCore/XMLHttpRequest'
p1848
sg9
S'0x67d1'
p1849
sg11
S'callReadyStateChangeListener\n'
p1850
sa(dp1851
g2
S'26377'
p1852
sg4
L1449719599917L
sg5
g71
sg7
S'WebCore/XMLHttpRequest'
p1853
sg9
S'0x67d1'
p1854
sg11
S'readyState = 3\n'
p1855
sa(dp1856
g2
S'26377'
p1857
sg4
L1449719599917L
sg5
g71
sg7
S'WebCore/XMLHttpRequest'
p1858
sg9
S'0x67d1'
p1859
sg11
S'changeState, from 3 to 4\n'
p1860
sa(dp1861
g2
S'26377'
p1862
sg4
L1449719599917L
sg5
g71
sg7
S'WebCore/XMLHttpRequest'
p1863
sg9
S'0x67d1'
p1864
sg11
S'readyState = 4\n'
p1865
sa(dp1866
g2
S'26377'
p1867
sg4
L1449719599921L
sg5
g71
sg7
S'WebCore/XMLHttpRequest'
p1868
sg9
S'0x67d1'
p1869
sg11
S'changeState, from 0 to 1\n'
p1870
sa(dp1871
g2
S'26377'
p1872
sg4
L1449719599921L
sg5
g71
sg7
S'WebCore/XMLHttpRequest'
p1873
sg9
S'0x67d1'
p1874
sg11
S'callReadyStateChangeListener\n'
p1875
sa(dp1876
g2
S'26377'
p1877
sg4
L1449719599922L
sg5
g71
sg7
S'WebCore/XMLHttpRequest'
p1878
sg9
S'0x67d1'
p1879
sg11
S'readyState = 1\n'
p1880
sa(dp1881
g2
S'26377'
p1882
sg4
L1449719599931L
sg5
g71
sg7
S'WebCore/XMLHttpRequest'
p1883
sg9
S'0x67d1'
p1884
sg11
S'changeState, from 1 to 2\n'
p1885
sa(dp1886
g2
S'26377'
p1887
sg4
L1449719599931L
sg5
g71
sg7
S'WebCore/XMLHttpRequest'
p1888
sg9
S'0x67d1'
p1889
sg11
S'callReadyStateChangeListener\n'
p1890
sa(dp1891
g2
S'26377'
p1892
sg4
L1449719599932L
sg5
g71
sg7
S'WebCore/XMLHttpRequest'
p1893
sg9
S'0x67d1'
p1894
sg11
S'readyState = 2\n'
p1895
sa(dp1896
g2
S'26377'
p1897
sg4
L1449719599932L
sg5
g71
sg7
S'WebCore/XMLHttpRequest'
p1898
sg9
S'0x67d1'
p1899
sg11
S'changeState, from 2 to 3\n'
p1900
sa(dp1901
g2
S'26377'
p1902
sg4
L1449719599932L
sg5
g71
sg7
S'WebCore/XMLHttpRequest'
p1903
sg9
S'0x67d1'
p1904
sg11
S'callReadyStateChangeListener\n'
p1905
sa(dp1906
g2
S'26377'
p1907
sg4
L1449719599932L
sg5
g71
sg7
S'WebCore/XMLHttpRequest'
p1908
sg9
S'0x67d1'
p1909
sg11
S'readyState = 3\n'
p1910
sa(dp1911
g2
S'26377'
p1912
sg4
L1449719599932L
sg5
g71
sg7
S'WebCore/XMLHttpRequest'
p1913
sg9
S'0x67d1'
p1914
sg11
S'changeState, from 3 to 4\n'
p1915
sa(dp1916
g2
S'26377'
p1917
sg4
L1449719599932L
sg5
g71
sg7
S'WebCore/XMLHttpRequest'
p1918
sg9
S'0x67d1'
p1919
sg11
S'readyState = 4\n'
p1920
sa(dp1921
g2
S'26377'
p1922
sg4
L1449719601099L
sg5
g71
sg7
S'WebCore/XMLHttpRequest'
p1923
sg9
S'0x67d1'
p1924
sg11
S'changeState, from 0 to 1\n'
p1925
sa(dp1926
g2
S'26377'
p1927
sg4
L1449719601099L
sg5
g71
sg7
S'WebCore/XMLHttpRequest'
p1928
sg9
S'0x67d1'
p1929
sg11
S'callReadyStateChangeListener\n'
p1930
sa(dp1931
g2
S'26377'
p1932
sg4
L1449719601099L
sg5
g71
sg7
S'WebCore/XMLHttpRequest'
p1933
sg9
S'0x67d1'
p1934
sg11
S'readyState = 1\n'
p1935
sa(dp1936
g2
S'26377'
p1937
sg4
L1449719601113L
sg5
g71
sg7
S'WebCore/XMLHttpRequest'
p1938
sg9
S'0x67d1'
p1939
sg11
S'changeState, from 1 to 2\n'
p1940
sa(dp1941
g2
S'26377'
p1942
sg4
L1449719601113L
sg5
g71
sg7
S'WebCore/XMLHttpRequest'
p1943
sg9
S'0x67d1'
p1944
sg11
S'callReadyStateChangeListener\n'
p1945
sa(dp1946
g2
S'26377'
p1947
sg4
L1449719601114L
sg5
g71
sg7
S'WebCore/XMLHttpRequest'
p1948
sg9
S'0x67d1'
p1949
sg11
S'readyState = 2\n'
p1950
sa(dp1951
g2
S'26377'
p1952
sg4
L1449719601114L
sg5
g71
sg7
S'WebCore/XMLHttpRequest'
p1953
sg9
S'0x67d1'
p1954
sg11
S'changeState, from 2 to 3\n'
p1955
sa(dp1956
g2
S'26377'
p1957
sg4
L1449719601114L
sg5
g71
sg7
S'WebCore/XMLHttpRequest'
p1958
sg9
S'0x67d1'
p1959
sg11
S'callReadyStateChangeListener\n'
p1960
sa(dp1961
g2
S'26377'
p1962
sg4
L1449719601114L
sg5
g71
sg7
S'WebCore/XMLHttpRequest'
p1963
sg9
S'0x67d1'
p1964
sg11
S'readyState = 3\n'
p1965
sa(dp1966
g2
S'26377'
p1967
sg4
L1449719601114L
sg5
g71
sg7
S'WebCore/XMLHttpRequest'
p1968
sg9
S'0x67d1'
p1969
sg11
S'changeState, from 3 to 4\n'
p1970
sa(dp1971
g2
S'26377'
p1972
sg4
L1449719601114L
sg5
g71
sg7
S'WebCore/XMLHttpRequest'
p1973
sg9
S'0x67d1'
p1974
sg11
S'readyState = 4\n'
p1975
sa(dp1976
g2
S'26377'
p1977
sg4
L1449719602939L
sg5
g71
sg7
S'WebCore/XMLHttpRequest'
p1978
sg9
S'0x67d1'
p1979
sg11
S'changeState, from 0 to 1\n'
p1980
sa(dp1981
g2
S'26377'
p1982
sg4
L1449719602939L
sg5
g71
sg7
S'WebCore/XMLHttpRequest'
p1983
sg9
S'0x67d1'
p1984
sg11
S'callReadyStateChangeListener\n'
p1985
sa(dp1986
g2
S'26377'
p1987
sg4
L1449719602939L
sg5
g71
sg7
S'WebCore/XMLHttpRequest'
p1988
sg9
S'0x67d1'
p1989
sg11
S'readyState = 1\n'
p1990
sa(dp1991
g2
S'26377'
p1992
sg4
L1449719602971L
sg5
g71
sg7
S'WebCore/XMLHttpRequest'
p1993
sg9
S'0x67d1'
p1994
sg11
S'changeState, from 1 to 2\n'
p1995
sa(dp1996
g2
S'26377'
p1997
sg4
L1449719602971L
sg5
g71
sg7
S'WebCore/XMLHttpRequest'
p1998
sg9
S'0x67d1'
p1999
sg11
S'callReadyStateChangeListener\n'
p2000
sa(dp2001
g2
S'26377'
p2002
sg4
L1449719602972L
sg5
g71
sg7
S'WebCore/XMLHttpRequest'
p2003
sg9
S'0x67d1'
p2004
sg11
S'readyState = 2\n'
p2005
sa(dp2006
g2
S'26377'
p2007
sg4
L1449719602972L
sg5
g71
sg7
S'WebCore/XMLHttpRequest'
p2008
sg9
S'0x67d1'
p2009
sg11
S'changeState, from 2 to 3\n'
p2010
sa(dp2011
g2
S'26377'
p2012
sg4
L1449719602972L
sg5
g71
sg7
S'WebCore/XMLHttpRequest'
p2013
sg9
S'0x67d1'
p2014
sg11
S'callReadyStateChangeListener\n'
p2015
sa(dp2016
g2
S'26377'
p2017
sg4
L1449719602972L
sg5
g71
sg7
S'WebCore/XMLHttpRequest'
p2018
sg9
S'0x67d1'
p2019
sg11
S'readyState = 3\n'
p2020
sa(dp2021
g2
S'26377'
p2022
sg4
L1449719602972L
sg5
g71
sg7
S'WebCore/XMLHttpRequest'
p2023
sg9
S'0x67d1'
p2024
sg11
S'changeState, from 3 to 4\n'
p2025
sa(dp2026
g2
S'26377'
p2027
sg4
L1449719602972L
sg5
g71
sg7
S'WebCore/XMLHttpRequest'
p2028
sg9
S'0x67d1'
p2029
sg11
S'readyState = 4\n'
p2030
sa(dp2031
g2
S'26377'
p2032
sg4
L1449719602979L
sg5
g71
sg7
S'WebCore/XMLHttpRequest'
p2033
sg9
S'0x67d1'
p2034
sg11
S'changeState, from 0 to 1\n'
p2035
sa(dp2036
g2
S'26377'
p2037
sg4
L1449719602979L
sg5
g71
sg7
S'WebCore/XMLHttpRequest'
p2038
sg9
S'0x67d1'
p2039
sg11
S'callReadyStateChangeListener\n'
p2040
sa(dp2041
g2
S'26377'
p2042
sg4
L1449719602979L
sg5
g71
sg7
S'WebCore/XMLHttpRequest'
p2043
sg9
S'0x67d1'
p2044
sg11
S'readyState = 1\n'
p2045
sa(dp2046
g2
S'26377'
p2047
sg4
L1449719602992L
sg5
g71
sg7
S'WebCore/XMLHttpRequest'
p2048
sg9
S'0x67d1'
p2049
sg11
S'changeState, from 1 to 2\n'
p2050
sa(dp2051
g2
S'26377'
p2052
sg4
L1449719602992L
sg5
g71
sg7
S'WebCore/XMLHttpRequest'
p2053
sg9
S'0x67d1'
p2054
sg11
S'callReadyStateChangeListener\n'
p2055
sa(dp2056
g2
S'26377'
p2057
sg4
L1449719602992L
sg5
g71
sg7
S'WebCore/XMLHttpRequest'
p2058
sg9
S'0x67d1'
p2059
sg11
S'readyState = 2\n'
p2060
sa(dp2061
g2
S'26377'
p2062
sg4
L1449719602993L
sg5
g71
sg7
S'WebCore/XMLHttpRequest'
p2063
sg9
S'0x67d1'
p2064
sg11
S'changeState, from 2 to 3\n'
p2065
sa(dp2066
g2
S'26377'
p2067
sg4
L1449719602993L
sg5
g71
sg7
S'WebCore/XMLHttpRequest'
p2068
sg9
S'0x67d1'
p2069
sg11
S'callReadyStateChangeListener\n'
p2070
sa(dp2071
g2
S'26377'
p2072
sg4
L1449719602993L
sg5
g71
sg7
S'WebCore/XMLHttpRequest'
p2073
sg9
S'0x67d1'
p2074
sg11
S'readyState = 3\n'
p2075
sa(dp2076
g2
S'26377'
p2077
sg4
L1449719602993L
sg5
g71
sg7
S'WebCore/XMLHttpRequest'
p2078
sg9
S'0x67d1'
p2079
sg11
S'changeState, from 3 to 4\n'
p2080
sa(dp2081
g2
S'26377'
p2082
sg4
L1449719602993L
sg5
g71
sg7
S'WebCore/XMLHttpRequest'
p2083
sg9
S'0x67d1'
p2084
sg11
S'readyState = 4\n'
p2085
sa(dp2086
g2
S'26377'
p2087
sg4
L1449719604122L
sg5
g71
sg7
S'WebCore/XMLHttpRequest'
p2088
sg9
S'0x67d1'
p2089
sg11
S'changeState, from 0 to 1\n'
p2090
sa(dp2091
g2
S'26377'
p2092
sg4
L1449719604122L
sg5
g71
sg7
S'WebCore/XMLHttpRequest'
p2093
sg9
S'0x67d1'
p2094
sg11
S'callReadyStateChangeListener\n'
p2095
sa(dp2096
g2
S'26377'
p2097
sg4
L1449719604122L
sg5
g71
sg7
S'WebCore/XMLHttpRequest'
p2098
sg9
S'0x67d1'
p2099
sg11
S'readyState = 1\n'
p2100
sa(dp2101
g2
S'26377'
p2102
sg4
L1449719604137L
sg5
g71
sg7
S'WebCore/XMLHttpRequest'
p2103
sg9
S'0x67d1'
p2104
sg11
S'changeState, from 1 to 2\n'
p2105
sa(dp2106
g2
S'26377'
p2107
sg4
L1449719604137L
sg5
g71
sg7
S'WebCore/XMLHttpRequest'
p2108
sg9
S'0x67d1'
p2109
sg11
S'callReadyStateChangeListener\n'
p2110
sa(dp2111
g2
S'26377'
p2112
sg4
L1449719604137L
sg5
g71
sg7
S'WebCore/XMLHttpRequest'
p2113
sg9
S'0x67d1'
p2114
sg11
S'readyState = 2\n'
p2115
sa(dp2116
g2
S'26377'
p2117
sg4
L1449719604137L
sg5
g71
sg7
S'WebCore/XMLHttpRequest'
p2118
sg9
S'0x67d1'
p2119
sg11
S'changeState, from 2 to 3\n'
p2120
sa(dp2121
g2
S'26377'
p2122
sg4
L1449719604137L
sg5
g71
sg7
S'WebCore/XMLHttpRequest'
p2123
sg9
S'0x67d1'
p2124
sg11
S'readyState = 3\n'
p2125
sa(dp2126
g2
S'26377'
p2127
sg4
L1449719604138L
sg5
g71
sg7
S'WebCore/XMLHttpRequest'
p2128
sg9
S'0x67d1'
p2129
sg11
S'readyState = 3\n'
p2130
sa(dp2131
g2
S'26377'
p2132
sg4
L1449719604138L
sg5
g71
sg7
S'WebCore/XMLHttpRequest'
p2133
sg9
S'0x67d1'
p2134
sg11
S'changeState, from 3 to 4\n'
p2135
sa(dp2136
g2
S'26377'
p2137
sg4
L1449719604138L
sg5
g71
sg7
S'WebCore/XMLHttpRequest'
p2138
sg9
S'0x67d1'
p2139
sg11
S'callReadyStateChangeListener\n'
p2140
sa(dp2141
g2
S'26377'
p2142
sg4
L1449719604138L
sg5
g71
sg7
S'WebCore/XMLHttpRequest'
p2143
sg9
S'0x67d1'
p2144
sg11
S'readyState = 4\n'
p2145
sa(dp2146
g2
S'26377'
p2147
sg4
L1449719606000L
sg5
g71
sg7
S'WebCore/XMLHttpRequest'
p2148
sg9
S'0x67d1'
p2149
sg11
S'changeState, from 0 to 1\n'
p2150
sa(dp2151
g2
S'26377'
p2152
sg4
L1449719606000L
sg5
g71
sg7
S'WebCore/XMLHttpRequest'
p2153
sg9
S'0x67d1'
p2154
sg11
S'callReadyStateChangeListener\n'
p2155
sa(dp2156
g2
S'26377'
p2157
sg4
L1449719606000L
sg5
g71
sg7
S'WebCore/XMLHttpRequest'
p2158
sg9
S'0x67d1'
p2159
sg11
S'readyState = 1\n'
p2160
sa(dp2161
g2
S'26377'
p2162
sg4
L1449719606030L
sg5
g71
sg7
S'WebCore/XMLHttpRequest'
p2163
sg9
S'0x67d1'
p2164
sg11
S'changeState, from 1 to 2\n'
p2165
sa(dp2166
g2
S'26377'
p2167
sg4
L1449719606030L
sg5
g71
sg7
S'WebCore/XMLHttpRequest'
p2168
sg9
S'0x67d1'
p2169
sg11
S'callReadyStateChangeListener\n'
p2170
sa(dp2171
g2
S'26377'
p2172
sg4
L1449719606030L
sg5
g71
sg7
S'WebCore/XMLHttpRequest'
p2173
sg9
S'0x67d1'
p2174
sg11
S'readyState = 2\n'
p2175
sa(dp2176
g2
S'26377'
p2177
sg4
L1449719606031L
sg5
g71
sg7
S'WebCore/XMLHttpRequest'
p2178
sg9
S'0x67d1'
p2179
sg11
S'changeState, from 2 to 3\n'
p2180
sa(dp2181
g2
S'26377'
p2182
sg4
L1449719606031L
sg5
g71
sg7
S'WebCore/XMLHttpRequest'
p2183
sg9
S'0x67d1'
p2184
sg11
S'callReadyStateChangeListener\n'
p2185
sa(dp2186
g2
S'26377'
p2187
sg4
L1449719606031L
sg5
g71
sg7
S'WebCore/XMLHttpRequest'
p2188
sg9
S'0x67d1'
p2189
sg11
S'readyState = 3\n'
p2190
sa(dp2191
g2
S'26377'
p2192
sg4
L1449719606031L
sg5
g71
sg7
S'WebCore/XMLHttpRequest'
p2193
sg9
S'0x67d1'
p2194
sg11
S'changeState, from 3 to 4\n'
p2195
sa(dp2196
g2
S'26377'
p2197
sg4
L1449719606031L
sg5
g71
sg7
S'WebCore/XMLHttpRequest'
p2198
sg9
S'0x67d1'
p2199
sg11
S'readyState = 4\n'
p2200
sa(dp2201
g2
S'26377'
p2202
sg4
L1449719606037L
sg5
g71
sg7
S'WebCore/XMLHttpRequest'
p2203
sg9
S'0x67d1'
p2204
sg11
S'changeState, from 0 to 1\n'
p2205
sa(dp2206
g2
S'26377'
p2207
sg4
L1449719606037L
sg5
g71
sg7
S'WebCore/XMLHttpRequest'
p2208
sg9
S'0x67d1'
p2209
sg11
S'callReadyStateChangeListener\n'
p2210
sa(dp2211
g2
S'26377'
p2212
sg4
L1449719606037L
sg5
g71
sg7
S'WebCore/XMLHttpRequest'
p2213
sg9
S'0x67d1'
p2214
sg11
S'readyState = 1\n'
p2215
sa(dp2216
g2
S'26377'
p2217
sg4
L1449719606052L
sg5
g71
sg7
S'WebCore/XMLHttpRequest'
p2218
sg9
S'0x67d1'
p2219
sg11
S'changeState, from 1 to 2\n'
p2220
sa(dp2221
g2
S'26377'
p2222
sg4
L1449719606053L
sg5
g71
sg7
S'WebCore/XMLHttpRequest'
p2223
sg9
S'0x67d1'
p2224
sg11
S'callReadyStateChangeListener\n'
p2225
sa(dp2226
g2
S'26377'
p2227
sg4
L1449719606053L
sg5
g71
sg7
S'WebCore/XMLHttpRequest'
p2228
sg9
S'0x67d1'
p2229
sg11
S'readyState = 2\n'
p2230
sa(dp2231
g2
S'26377'
p2232
sg4
L1449719606053L
sg5
g71
sg7
S'WebCore/XMLHttpRequest'
p2233
sg9
S'0x67d1'
p2234
sg11
S'changeState, from 2 to 3\n'
p2235
sa(dp2236
g2
S'26377'
p2237
sg4
L1449719606053L
sg5
g71
sg7
S'WebCore/XMLHttpRequest'
p2238
sg9
S'0x67d1'
p2239
sg11
S'readyState = 3\n'
p2240
sa(dp2241
g2
S'26377'
p2242
sg4
L1449719606053L
sg5
g71
sg7
S'WebCore/XMLHttpRequest'
p2243
sg9
S'0x67d1'
p2244
sg11
S'changeState, from 3 to 4\n'
p2245
sa(dp2246
g2
S'26377'
p2247
sg4
L1449719606053L
sg5
g71
sg7
S'WebCore/XMLHttpRequest'
p2248
sg9
S'0x67d1'
p2249
sg11
S'readyState = 4\n'
p2250
sa(dp2251
g2
S'26377'
p2252
sg4
L1449719607145L
sg5
g71
sg7
S'WebCore/XMLHttpRequest'
p2253
sg9
S'0x67d1'
p2254
sg11
S'changeState, from 0 to 1\n'
p2255
sa(dp2256
g2
S'26377'
p2257
sg4
L1449719607145L
sg5
g71
sg7
S'WebCore/XMLHttpRequest'
p2258
sg9
S'0x67d1'
p2259
sg11
S'callReadyStateChangeListener\n'
p2260
sa(dp2261
g2
S'26377'
p2262
sg4
L1449719607145L
sg5
g71
sg7
S'WebCore/XMLHttpRequest'
p2263
sg9
S'0x67d1'
p2264
sg11
S'readyState = 1\n'
p2265
sa(dp2266
g2
S'26377'
p2267
sg4
L1449719607208L
sg5
g71
sg7
S'WebCore/XMLHttpRequest'
p2268
sg9
S'0x67d1'
p2269
sg11
S'changeState, from 1 to 2\n'
p2270
sa(dp2271
g2
S'26377'
p2272
sg4
L1449719607208L
sg5
g71
sg7
S'WebCore/XMLHttpRequest'
p2273
sg9
S'0x67d1'
p2274
sg11
S'callReadyStateChangeListener\n'
p2275
sa(dp2276
g2
S'26377'
p2277
sg4
L1449719607209L
sg5
g71
sg7
S'WebCore/XMLHttpRequest'
p2278
sg9
S'0x67d1'
p2279
sg11
S'readyState = 2\n'
p2280
sa(dp2281
g2
S'26377'
p2282
sg4
L1449719607209L
sg5
g71
sg7
S'WebCore/XMLHttpRequest'
p2283
sg9
S'0x67d1'
p2284
sg11
S'changeState, from 2 to 3\n'
p2285
sa(dp2286
g2
S'26377'
p2287
sg4
L1449719607209L
sg5
g71
sg7
S'WebCore/XMLHttpRequest'
p2288
sg9
S'0x67d1'
p2289
sg11
S'callReadyStateChangeListener\n'
p2290
sa(dp2291
g2
S'26377'
p2292
sg4
L1449719607209L
sg5
g71
sg7
S'WebCore/XMLHttpRequest'
p2293
sg9
S'0x67d1'
p2294
sg11
S'readyState = 3\n'
p2295
sa(dp2296
g2
S'26377'
p2297
sg4
L1449719607209L
sg5
g71
sg7
S'WebCore/XMLHttpRequest'
p2298
sg9
S'0x67d1'
p2299
sg11
S'changeState, from 3 to 4\n'
p2300
sa(dp2301
g2
S'26377'
p2302
sg4
L1449719607209L
sg5
g71
sg7
S'WebCore/XMLHttpRequest'
p2303
sg9
S'0x67d1'
p2304
sg11
S'readyState = 4\n'
p2305
sa(dp2306
g2
S'26377'
p2307
sg4
L1449719607912L
sg5
g71
sg7
S'cn.edu.nju.ise.kikandroid'
p2308
sg9
S'0x676d'
p2309
sg11
S'Log:1449719607912\n'
p2310
sa(dp2311
g2
S'26377'
p2312
sg4
L1449719607984L
sg5
g71
sg7
S'cn.edu.nju.ise.kikandroid'
p2313
sg9
S'0x676d'
p2314
sg11
S'Screenshot:1449719607984\n'
p2315
sa(dp2316
g2
S'26377'
p2317
sg4
L1449719608214L
sg5
g15
sg7
S'AndroidRuntime'
p2318
sg9
S'0x676d'
p2319
sg11
S'FATAL EXCEPTION: Thread-143517\njava.lang.NullPointerException\n\tat android.app.Instrumentation.finish(Instrumentation.java:204)\n\tat cn.edu.nju.ise.kikandroid.AUTInstrument.quitInstr(AUTInstrument.java:195)\n\tat cn.edu.nju.ise.kikandroid.AUTInstrument.startServer(AUTInstrument.java:161)\n\tat cn.edu.nju.ise.kikandroid.AUTInstrument$1.run(AUTInstrument.java:107)\n\tat java.lang.Thread.run(Thread.java:838)\n'
p2320
sa.