(lp0
(dp1
S'processID'
p2
S'9471'
p3
sS'SyscTime'
p4
L1449651075551L
sS'priority'
p5
S'E'
p6
sS'tag'
p7
S'external/chromium/net/disk_cache/stat_hub.cc'
p8
sS'threadID'
p9
S'10491'
p10
sS'message'
p11
S"netstack:  STAT_HUB - App com.example.myfristandroid isn't supported\n"
p12
sa(dp13
g2
S'9471'
p14
sg4
L1449651075691L
sg5
g6
sg7
S'external/chromium/net/host_resolver_helper/dyn_lib_loader.cc'
p15
sg9
S'10503'
p16
sg11
S'netstack: LIB_MGR - Error loading lib qnet-plugin.so\n'
p17
sa(dp18
g2
S'13471'
p19
sg4
L1449651218431L
sg5
S'W'
p20
sg7
S'LoadedApk'
p21
sg9
S'13471'
p22
sg11
S'perform long-running operations in onReceive, ordered=false ~duration=123ms: com.example.myfristandroid.MainActivity$CmdReceiver@425495f0 Intent { act=SocketService flg=0x10 (has extras) }\n'
p23
sa(dp24
g2
S'13471'
p25
sg4
L1449651252521L
sg5
g6
sg7
S'external/chromium/net/disk_cache/stat_hub.cc'
p26
sg9
S'14352'
p27
sg11
S"netstack:  STAT_HUB - App com.example.myfristandroid isn't supported\n"
p28
sa(dp29
g2
S'13471'
p30
sg4
L1449651333281L
sg5
g6
sg7
S'ActivityThread'
p31
sg9
S'13471'
p32
sg11
S'Activity com.example.myfristandroid.MainActivity has leaked IntentReceiver com.example.myfristandroid.MainActivity$CmdReceiver@425495f0 that was originally registered here. Are you missing a call to unregisterReceiver()?\nandroid.app.IntentReceiverLeaked: Activity com.example.myfristandroid.MainActivity has leaked IntentReceiver com.example.myfristandroid.MainActivity$CmdReceiver@425495f0 that was originally registered here. Are you missing a call to unregisterReceiver()?\n\tat android.app.LoadedApk$ReceiverDispatcher.<init>(LoadedApk.java:818)\n\tat android.app.LoadedApk.getReceiverDispatcher(LoadedApk.java:603)\n\tat android.app.ContextImpl.registerReceiverInternal(ContextImpl.java:1404)\n\tat android.app.ContextImpl.registerReceiver(ContextImpl.java:1384)\n\tat android.app.ContextImpl.registerReceiver(ContextImpl.java:1378)\n\tat android.content.ContextWrapper.registerReceiver(ContextWrapper.java:446)\n\tat com.example.myfristandroid.MainActivity.onCreate(MainActivity.java:311)\n\tat android.app.Activity.performCreate(Activity.java:5146)\n\tat android.app.Instrumentation.callActivityOnCreate(Instrumentation.java:1090)\n\tat android.app.ActivityThread.performLaunchActivity(ActivityThread.java:2191)\n\tat android.app.ActivityThread.handleLaunchActivity(ActivityThread.java:2282)\n\tat android.app.ActivityThread.access$600(ActivityThread.java:147)\n\tat android.app.ActivityThread$H.handleMessage(ActivityThread.java:1272)\n\tat android.os.Handler.dispatchMessage(Handler.java:99)\n\tat android.os.Looper.loop(Looper.java:137)\n\tat android.app.ActivityThread.main(ActivityThread.java:5265)\n\tat java.lang.reflect.Method.invokeNative(Native Method)\n\tat java.lang.reflect.Method.invoke(Method.java:525)\n\tat com.android.internal.os.ZygoteInit$MethodAndArgsCaller.run(ZygoteInit.java:760)\n\tat com.android.internal.os.ZygoteInit.main(ZygoteInit.java:576)\n\tat dalvik.system.NativeStart.main(Native Method)\n'
p33
sa(dp34
g2
S'13471'
p35
sg4
L1449651358641L
sg5
g6
sg7
S'AndroidRuntime'
p36
sg9
S'13526'
p37
sg11
S'FATAL EXCEPTION: Thread-4683\njava.lang.NullPointerException\n\tat android.app.Instrumentation.finish(Instrumentation.java:190)\n\tat cn.edu.nju.ise.kikandroid.AUTInstrument.quitInstr(AUTInstrument.java:195)\n\tat cn.edu.nju.ise.kikandroid.AUTInstrument.startServer(AUTInstrument.java:161)\n\tat cn.edu.nju.ise.kikandroid.AUTInstrument$1.run(AUTInstrument.java:107)\n\tat java.lang.Thread.run(Thread.java:841)\n'
p38
sa(dp39
g2
S'18910'
p40
sg4
L1449651532611L
sg5
g6
sg7
S'external/chromium/net/disk_cache/stat_hub.cc'
p41
sg9
S'20896'
p42
sg11
S"netstack:  STAT_HUB - App com.example.myfristandroid isn't supported\n"
p43
sa(dp44
g2
S'18910'
p45
sg4
L1449651565941L
sg5
g6
sg7
S'ActivityThread'
p46
sg9
S'18910'
p47
sg11
S'Activity com.example.myfristandroid.MainActivity has leaked IntentReceiver com.example.myfristandroid.MainActivity$CmdReceiver@42549fc8 that was originally registered here. Are you missing a call to unregisterReceiver()?\nandroid.app.IntentReceiverLeaked: Activity com.example.myfristandroid.MainActivity has leaked IntentReceiver com.example.myfristandroid.MainActivity$CmdReceiver@42549fc8 that was originally registered here. Are you missing a call to unregisterReceiver()?\n\tat android.app.LoadedApk$ReceiverDispatcher.<init>(LoadedApk.java:818)\n\tat android.app.LoadedApk.getReceiverDispatcher(LoadedApk.java:603)\n\tat android.app.ContextImpl.registerReceiverInternal(ContextImpl.java:1404)\n\tat android.app.ContextImpl.registerReceiver(ContextImpl.java:1384)\n\tat android.app.ContextImpl.registerReceiver(ContextImpl.java:1378)\n\tat android.content.ContextWrapper.registerReceiver(ContextWrapper.java:446)\n\tat com.example.myfristandroid.MainActivity.onCreate(MainActivity.java:311)\n\tat android.app.Activity.performCreate(Activity.java:5146)\n\tat android.app.Instrumentation.callActivityOnCreate(Instrumentation.java:1090)\n\tat android.app.ActivityThread.performLaunchActivity(ActivityThread.java:2191)\n\tat android.app.ActivityThread.handleLaunchActivity(ActivityThread.java:2282)\n\tat android.app.ActivityThread.access$600(ActivityThread.java:147)\n\tat android.app.ActivityThread$H.handleMessage(ActivityThread.java:1272)\n\tat android.os.Handler.dispatchMessage(Handler.java:99)\n\tat android.os.Looper.loop(Looper.java:137)\n\tat android.app.ActivityThread.main(ActivityThread.java:5265)\n\tat java.lang.reflect.Method.invokeNative(Native Method)\n\tat java.lang.reflect.Method.invoke(Method.java:525)\n\tat com.android.internal.os.ZygoteInit$MethodAndArgsCaller.run(ZygoteInit.java:760)\n\tat com.android.internal.os.ZygoteInit.main(ZygoteInit.java:576)\n\tat dalvik.system.NativeStart.main(Native Method)\n'
p48
sa(dp49
g2
S'21614'
p50
sg4
L1449651603961L
sg5
g6
sg7
S'external/chromium/net/disk_cache/stat_hub.cc'
p51
sg9
S'22417'
p52
sg11
S"netstack:  STAT_HUB - App com.example.myfristandroid isn't supported\n"
p53
sa(dp54
g2
S'21614'
p55
sg4
L1449651616581L
sg5
g6
sg7
S'AndroidRuntime'
p56
sg9
S'21675'
p57
sg11
S'FATAL EXCEPTION: Thread-4971\njava.lang.NullPointerException\n\tat android.app.Instrumentation.finish(Instrumentation.java:190)\n\tat cn.edu.nju.ise.kikandroid.AUTInstrument.quitInstr(AUTInstrument.java:195)\n\tat cn.edu.nju.ise.kikandroid.AUTInstrument.startServer(AUTInstrument.java:161)\n\tat cn.edu.nju.ise.kikandroid.AUTInstrument$1.run(AUTInstrument.java:107)\n\tat java.lang.Thread.run(Thread.java:841)\n'
p58
sa(dp59
g2
S'22787'
p60
sg4
L1449651653461L
sg5
g6
sg7
S'ActivityThread'
p61
sg9
S'22787'
p62
sg11
S'Activity com.example.myfristandroid.MainActivity has leaked IntentReceiver com.example.myfristandroid.MainActivity$CmdReceiver@42541760 that was originally registered here. Are you missing a call to unregisterReceiver()?\nandroid.app.IntentReceiverLeaked: Activity com.example.myfristandroid.MainActivity has leaked IntentReceiver com.example.myfristandroid.MainActivity$CmdReceiver@42541760 that was originally registered here. Are you missing a call to unregisterReceiver()?\n\tat android.app.LoadedApk$ReceiverDispatcher.<init>(LoadedApk.java:818)\n\tat android.app.LoadedApk.getReceiverDispatcher(LoadedApk.java:603)\n\tat android.app.ContextImpl.registerReceiverInternal(ContextImpl.java:1404)\n\tat android.app.ContextImpl.registerReceiver(ContextImpl.java:1384)\n\tat android.app.ContextImpl.registerReceiver(ContextImpl.java:1378)\n\tat android.content.ContextWrapper.registerReceiver(ContextWrapper.java:446)\n\tat com.example.myfristandroid.MainActivity.onCreate(MainActivity.java:311)\n\tat android.app.Activity.performCreate(Activity.java:5146)\n\tat android.app.Instrumentation.callActivityOnCreate(Instrumentation.java:1090)\n\tat android.app.ActivityThread.performLaunchActivity(ActivityThread.java:2191)\n\tat android.app.ActivityThread.handleLaunchActivity(ActivityThread.java:2282)\n\tat android.app.ActivityThread.access$600(ActivityThread.java:147)\n\tat android.app.ActivityThread$H.handleMessage(ActivityThread.java:1272)\n\tat android.os.Handler.dispatchMessage(Handler.java:99)\n\tat android.os.Looper.loop(Looper.java:137)\n\tat android.app.ActivityThread.main(ActivityThread.java:5265)\n\tat java.lang.reflect.Method.invokeNative(Native Method)\n\tat java.lang.reflect.Method.invoke(Method.java:525)\n\tat com.android.internal.os.ZygoteInit$MethodAndArgsCaller.run(ZygoteInit.java:760)\n\tat com.android.internal.os.ZygoteInit.main(ZygoteInit.java:576)\n\tat dalvik.system.NativeStart.main(Native Method)\n'
p63
sa(dp64
g2
S'22787'
p65
sg4
L1449651786131L
sg5
g6
sg7
S'external/chromium/net/disk_cache/stat_hub.cc'
p66
sg9
S'26987'
p67
sg11
S"netstack:  STAT_HUB - App com.example.myfristandroid isn't supported\n"
p68
sa(dp69
g2
S'22787'
p70
sg4
L1449651786201L
sg5
g6
sg7
S'external/chromium/net/host_resolver_helper/dyn_lib_loader.cc'
p71
sg9
S'27010'
p72
sg11
S'netstack: LIB_MGR - Error loading lib qnet-plugin.so\n'
p73
sa(dp74
g2
S'22787'
p75
sg4
L1449651816141L
sg5
g20
sg7
S'LoadedApk'
p76
sg9
S'22787'
p77
sg11
S'perform long-running operations in onReceive, ordered=false ~duration=101ms: com.example.myfristandroid.MainActivity$CmdReceiver@427455d8 Intent { act=SocketService flg=0x10 (has extras) }\n'
p78
sa(dp79
g2
S'22787'
p80
sg4
L1449651904901L
sg5
g6
sg7
S'AndroidRuntime'
p81
sg9
S'22842'
p82
sg11
S'FATAL EXCEPTION: Thread-5013\njava.lang.NullPointerException\n\tat android.app.Instrumentation.finish(Instrumentation.java:190)\n\tat cn.edu.nju.ise.kikandroid.AUTInstrument.quitInstr(AUTInstrument.java:195)\n\tat cn.edu.nju.ise.kikandroid.AUTInstrument.startServer(AUTInstrument.java:161)\n\tat cn.edu.nju.ise.kikandroid.AUTInstrument$1.run(AUTInstrument.java:107)\n\tat java.lang.Thread.run(Thread.java:841)\n'
p83
sa(dp84
g2
S'31563'
p85
sg4
L1449651972831L
sg5
g6
sg7
S'external/chromium/net/disk_cache/stat_hub.cc'
p86
sg9
S'32676'
p87
sg11
S"netstack:  STAT_HUB - App com.example.myfristandroid isn't supported\n"
p88
sa(dp89
g2
S'31563'
p90
sg4
L1449651972881L
sg5
g6
sg7
S'external/chromium/net/host_resolver_helper/dyn_lib_loader.cc'
p91
sg9
S'32689'
p92
sg11
S'netstack: LIB_MGR - Error loading lib qnet-plugin.so\n'
p93
sa(dp94
g2
S'31563'
p95
sg4
L1449652050391L
sg5
g6
sg7
S'AndroidRuntime'
p96
sg9
S'31619'
p97
sg11
S'FATAL EXCEPTION: Thread-5337\njava.lang.NullPointerException\n\tat android.app.Instrumentation.finish(Instrumentation.java:190)\n\tat cn.edu.nju.ise.kikandroid.AUTInstrument.quitInstr(AUTInstrument.java:195)\n\tat cn.edu.nju.ise.kikandroid.AUTInstrument.startServer(AUTInstrument.java:161)\n\tat cn.edu.nju.ise.kikandroid.AUTInstrument$1.run(AUTInstrument.java:107)\n\tat java.lang.Thread.run(Thread.java:841)\n'
p98
sa(dp99
g2
S'8082'
p100
sg4
L1449652374501L
sg5
g20
sg7
S'IInputConnectionWrapper'
p101
sg9
S' 8082'
p102
sg11
S'performPrivateCommand on inactive InputConnection\n'
p103
sa(dp104
g2
S'8082'
p105
sg4
L1449652379931L
sg5
g20
sg7
S'IInputConnectionWrapper'
p106
sg9
S' 8082'
p107
sg11
S'performPrivateCommand on inactive InputConnection\n'
p108
sa(dp109
g2
S'8082'
p110
sg4
L1449652379981L
sg5
g20
sg7
S'IInputConnectionWrapper'
p111
sg9
S' 8082'
p112
sg11
S'performPrivateCommand on inactive InputConnection\n'
p113
sa(dp114
g2
S'8082'
p115
sg4
L1449652381601L
sg5
g20
sg7
S'IInputConnectionWrapper'
p116
sg9
S' 8082'
p117
sg11
S'performPrivateCommand on inactive InputConnection\n'
p118
sa(dp119
g2
S'8082'
p120
sg4
L1449652384361L
sg5
g20
sg7
S'IInputConnectionWrapper'
p121
sg9
S' 8082'
p122
sg11
S'performPrivateCommand on inactive InputConnection\n'
p123
sa(dp124
g2
S'8082'
p125
sg4
L1449652384371L
sg5
g20
sg7
S'IInputConnectionWrapper'
p126
sg9
S' 8082'
p127
sg11
S'performPrivateCommand on inactive InputConnection\n'
p128
sa(dp129
g2
S'8082'
p130
sg4
L1449652399521L
sg5
g20
sg7
S'IInputConnectionWrapper'
p131
sg9
S' 8082'
p132
sg11
S'performPrivateCommand on inactive InputConnection\n'
p133
sa(dp134
g2
S'8082'
p135
sg4
L1449652401491L
sg5
g20
sg7
S'IInputConnectionWrapper'
p136
sg9
S' 8082'
p137
sg11
S'performPrivateCommand on inactive InputConnection\n'
p138
sa(dp139
g2
S'8082'
p140
sg4
L1449652406031L
sg5
g20
sg7
S'IInputConnectionWrapper'
p141
sg9
S' 8082'
p142
sg11
S'performPrivateCommand on inactive InputConnection\n'
p143
sa(dp144
g2
S'8082'
p145
sg4
L1449652408961L
sg5
g20
sg7
S'IInputConnectionWrapper'
p146
sg9
S' 8082'
p147
sg11
S'performPrivateCommand on inactive InputConnection\n'
p148
sa(dp149
g2
S'8082'
p150
sg4
L1449652412911L
sg5
g20
sg7
S'IInputConnectionWrapper'
p151
sg9
S' 8082'
p152
sg11
S'performPrivateCommand on inactive InputConnection\n'
p153
sa(dp154
g2
S'8082'
p155
sg4
L1449652414581L
sg5
g20
sg7
S'IInputConnectionWrapper'
p156
sg9
S' 8082'
p157
sg11
S'performPrivateCommand on inactive InputConnection\n'
p158
sa(dp159
g2
S'8082'
p160
sg4
L1449652417491L
sg5
g20
sg7
S'IInputConnectionWrapper'
p161
sg9
S' 8082'
p162
sg11
S'performPrivateCommand on inactive InputConnection\n'
p163
sa(dp164
g2
S'8082'
p165
sg4
L1449652420781L
sg5
g20
sg7
S'IInputConnectionWrapper'
p166
sg9
S' 8082'
p167
sg11
S'performPrivateCommand on inactive InputConnection\n'
p168
sa(dp169
g2
S'8082'
p170
sg4
L1449652421791L
sg5
g20
sg7
S'IInputConnectionWrapper'
p171
sg9
S' 8082'
p172
sg11
S'performPrivateCommand on inactive InputConnection\n'
p173
sa(dp174
g2
S'8082'
p175
sg4
L1449652428921L
sg5
g20
sg7
S'IInputConnectionWrapper'
p176
sg9
S' 8082'
p177
sg11
S'performPrivateCommand on inactive InputConnection\n'
p178
sa(dp179
g2
S'8082'
p180
sg4
L1449652443451L
sg5
g20
sg7
S'IInputConnectionWrapper'
p181
sg9
S' 8082'
p182
sg11
S'performPrivateCommand on inactive InputConnection\n'
p183
sa(dp184
g2
S'8082'
p185
sg4
L1449652445131L
sg5
g6
sg7
S'external/chromium/net/disk_cache/stat_hub.cc'
p186
sg9
S' 9865'
p187
sg11
S"netstack:  STAT_HUB - App com.example.myfristandroid isn't supported\n"
p188
sa(dp189
g2
S'8082'
p190
sg4
L1449652445191L
sg5
g6
sg7
S'external/chromium/net/host_resolver_helper/dyn_lib_loader.cc'
p191
sg9
S' 9883'
p192
sg11
S'netstack: LIB_MGR - Error loading lib qnet-plugin.so\n'
p193
sa(dp194
g2
S'8082'
p195
sg4
L1449652453381L
sg5
g6
sg7
S'webcoreglue'
p196
sg9
S' 9865'
p197
sg11
S'getAbsoluteBoundingBox failed for node 0x5f081d58, name RenderSVGContainer\n'
p198
sa(dp199
g2
S'8082'
p200
sg4
L1449652453381L
sg5
g6
sg7
S'webcoreglue'
p201
sg9
S' 9865'
p202
sg11
S'getAbsoluteBoundingBox failed for node 0x5f081ff8, name RenderSVGContainer\n'
p203
sa(dp204
g2
S'8082'
p205
sg4
L1449652453381L
sg5
g6
sg7
S'webcoreglue'
p206
sg9
S' 9865'
p207
sg11
S'getAbsoluteBoundingBox failed for node 0x5f0821b8, name RenderSVGContainer\n'
p208
sa(dp209
g2
S'8082'
p210
sg4
L1449652453381L
sg5
g6
sg7
S'webcoreglue'
p211
sg9
S' 9865'
p212
sg11
S'getAbsoluteBoundingBox failed for node 0x5f082860, name RenderSVGPath\n'
p213
sa(dp214
g2
S'8082'
p215
sg4
L1449652453861L
sg5
g20
sg7
S'IInputConnectionWrapper'
p216
sg9
S' 8082'
p217
sg11
S'performPrivateCommand on inactive InputConnection\n'
p218
sa(dp219
g2
S'8082'
p220
sg4
L1449652453901L
sg5
g20
sg7
S'IInputConnectionWrapper'
p221
sg9
S' 8082'
p222
sg11
S'performPrivateCommand on inactive InputConnection\n'
p223
sa(dp224
g2
S'8082'
p225
sg4
L1449652472811L
sg5
g20
sg7
S'IInputConnectionWrapper'
p226
sg9
S' 8082'
p227
sg11
S'performPrivateCommand on inactive InputConnection\n'
p228
sa(dp229
g2
S'8082'
p230
sg4
L1449652479561L
sg5
g20
sg7
S'dalvikvm'
p231
sg9
S' 8131'
p232
sg11
S'threadid=14: thread exiting with uncaught exception (group=0x417b7940)\n'
p233
sa(dp234
g2
S'8082'
p235
sg4
L1449652479561L
sg5
g6
sg7
S'AndroidRuntime'
p236
sg9
S' 8131'
p237
sg11
S'FATAL EXCEPTION: Thread-5568\njava.lang.NullPointerException\n\tat android.app.Instrumentation.finish(Instrumentation.java:190)\n\tat cn.edu.nju.ise.kikandroid.AUTInstrument.quitInstr(AUTInstrument.java:195)\n\tat cn.edu.nju.ise.kikandroid.AUTInstrument.startServer(AUTInstrument.java:161)\n\tat cn.edu.nju.ise.kikandroid.AUTInstrument$1.run(AUTInstrument.java:107)\n\tat java.lang.Thread.run(Thread.java:841)\n'
p238
sa.