(lp0
(dp1
S'processID'
p2
S'7591'
p3
sS'SyscTime'
p4
L1449726729616L
sS'priority'
p5
S'D'
p6
sS'tag'
p7
S'ActivityThread'
p8
sS'threadID'
p9
S' 7591'
p10
sS'message'
p11
S'setTargetHeapUtilization:0.25\n'
p12
sa(dp13
g2
S'7591'
p14
sg4
L1449726729616L
sg5
g6
sg7
S'ActivityThread'
p15
sg9
S' 7591'
p16
sg11
S'setTargetHeapIdealFree:8388608\n'
p17
sa(dp18
g2
S'7591'
p19
sg4
L1449726729616L
sg5
g6
sg7
S'ActivityThread'
p20
sg9
S' 7591'
p21
sg11
S'setTargetHeapConcurrentStart:2097152\n'
p22
sa(dp23
g2
S'7591'
p24
sg4
L1449726730026L
sg5
g6
sg7
S'dalvikvm'
p25
sg9
S' 7591'
p26
sg11
S'GC_FOR_ALLOC freed 294K, 22% free 23883K/30275K, paused 25ms, total 25ms\n'
p27
sa(dp28
g2
S'7591'
p29
sg4
L1449726730146L
sg5
g6
sg7
S'dalvikvm'
p30
sg9
S' 7598'
p31
sg11
S'GC_CONCURRENT freed 2K, 15% free 39023K/45447K, paused 13ms+5ms, total 47ms\n'
p32
sa(dp33
g2
S'7611'
p34
sg4
L1449726730447L
sg5
g6
sg7
S'ActivityThread'
p35
sg9
S' 7611'
p36
sg11
S'setTargetHeapUtilization:0.25\n'
p37
sa(dp38
g2
S'7611'
p39
sg4
L1449726730447L
sg5
g6
sg7
S'ActivityThread'
p40
sg9
S' 7611'
p41
sg11
S'setTargetHeapIdealFree:8388608\n'
p42
sa(dp43
g2
S'7611'
p44
sg4
L1449726730447L
sg5
g6
sg7
S'ActivityThread'
p45
sg9
S' 7611'
p46
sg11
S'setTargetHeapConcurrentStart:2097152\n'
p47
sa(dp48
g2
S'7591'
p49
sg4
L1449726730487L
sg5
S'I'
p50
sg7
S'Adreno200-EGL'
p51
sg9
S' 7591'
p52
sg11
S'<qeglDrvAPI_eglInitialize:294>: EGL 1.4 QUALCOMM build:  (CL3068996)\nBuild Date: 03/07/13 Thu\nLocal Branch: au37\nRemote Branch: \nLocal Patches: \nReconstruct Branch: \n'
p53
sa(dp54
g2
S'7611'
p55
sg4
L1449726730577L
sg5
g6
sg7
S'SocketService'
p56
sg9
S' 7611'
p57
sg11
S'onStartCommand : bLogin:false\n'
p58
sa(dp59
g2
S'7611'
p60
sg4
L1449726730587L
sg5
g6
sg7
S'SocketService'
p61
sg9
S' 7611'
p62
sg11
S'pid:7611 myPid:7611\n'
p63
sa(dp64
g2
S'7611'
p65
sg4
L1449726730597L
sg5
g6
sg7
S'SocketService'
p66
sg9
S' 7611'
p67
sg11
S'start to run current thread!id:17993\n'
p68
sa(dp69
g2
S'7611'
p70
sg4
L1449726730607L
sg5
g6
sg7
S'SocketService'
p71
sg9
S' 7632'
p72
sg11
S'ip/192.168.1.176 lport:59797 p:143\n'
p73
sa(dp74
g2
S'7611'
p75
sg4
L1449726730617L
sg5
g6
sg7
S'ForegroundActivity'
p76
sg9
S' 7632'
p77
sg11
S'\xe6\x9c\xac\xe6\xac\xa1\xe5\x8f\x91\xe9\x80\x81\xe5\xb8\xa7\xe9\x95\xbf:35\t\xe6\x80\xbb\xe5\xb8\xa7\xe9\x95\xbf:35\n'
p78
sa(dp79
g2
S'7611'
p80
sg4
L1449726730617L
sg5
g6
sg7
S'SocketService'
p81
sg9
S' 7632'
p82
sg11
S'success to connect server!id:17993 bLogin:false\n'
p83
sa(dp84
g2
S'7611'
p85
sg4
L1449726730717L
sg5
g6
sg7
S'ForegroundActivity'
p86
sg9
S' 7633'
p87
sg11
S'\xe6\x9c\xac\xe6\xac\xa1\xe6\x94\xb6\xe5\x88\xb0\xe5\xb8\xa7\xe9\x95\xbf:13\t\xe6\x80\xbb\xe5\xb8\xa7\xe9\x95\xbf:13\n'
p88
sa(dp89
g2
S'7611'
p90
sg4
L1449726731578L
sg5
g6
sg7
S'SocketService1'
p91
sg9
S' 7630'
p92
sg11
S'\xe6\x9c\xac\xe6\xac\xa1\xe6\x8f\x90\xe5\x8f\x961:LoadPtr:13 HeadIndex:0 GetSize:13 13 0 \xe5\xa4\xb4\xe4\xbf\xa1\xe6\x81\xaf:EB 90 EB 90 EB 90 0D 00 0E 01 \n'
p93
sa(dp94
g2
S'7611'
p95
sg4
L1449726731618L
sg5
g6
sg7
S'ForegroundActivity'
p96
sg9
S' 7632'
p97
sg11
S'\xe6\x9c\xac\xe6\xac\xa1\xe5\x8f\x91\xe9\x80\x81\xe5\xb8\xa7\xe9\x95\xbf:11\t\xe6\x80\xbb\xe5\xb8\xa7\xe9\x95\xbf:46\n'
p98
sa(dp99
g2
S'7611'
p100
sg4
L1449726731698L
sg5
g6
sg7
S'ForegroundActivity'
p101
sg9
S' 7633'
p102
sg11
S'\xe6\x9c\xac\xe6\xac\xa1\xe6\x94\xb6\xe5\x88\xb0\xe5\xb8\xa7\xe9\x95\xbf:642\t\xe6\x80\xbb\xe5\xb8\xa7\xe9\x95\xbf:655\n'
p103
sa(dp104
g2
S'7591'
p105
sg4
L1449726732499L
sg5
g6
sg7
S'MainActivity'
p106
sg9
S' 7591'
p107
sg11
S'Start One Client\n'
p108
sa(dp109
g2
S'7611'
p110
sg4
L1449726732599L
sg5
g6
sg7
S'SocketService1'
p111
sg9
S' 7630'
p112
sg11
S'\xe6\x9c\xac\xe6\xac\xa1\xe6\x8f\x90\xe5\x8f\x961:LoadPtr:655 HeadIndex:13 GetSize:642 130 512 \xe5\xa4\xb4\xe4\xbf\xa1\xe6\x81\xaf:EB 90 EB 90 EB 90 82 02 14 0A \n'
p113
sa(dp114
g2
S'7611'
p115
sg4
L1449726732639L
sg5
g6
sg7
S'ForegroundActivity'
p116
sg9
S' 7632'
p117
sg11
S'\xe6\x9c\xac\xe6\xac\xa1\xe5\x8f\x91\xe9\x80\x81\xe5\xb8\xa7\xe9\x95\xbf:11\t\xe6\x80\xbb\xe5\xb8\xa7\xe9\x95\xbf:57\n'
p118
sa(dp119
g2
S'7611'
p120
sg4
L1449726732689L
sg5
g6
sg7
S'ForegroundActivity'
p121
sg9
S' 7633'
p122
sg11
S'\xe6\x9c\xac\xe6\xac\xa1\xe6\x94\xb6\xe5\x88\xb0\xe5\xb8\xa7\xe9\x95\xbf:67\t\xe6\x80\xbb\xe5\xb8\xa7\xe9\x95\xbf:722\n'
p123
sa(dp124
g2
S'7591'
p125
sg4
L1449726733059L
sg5
g6
sg7
S'MainActivity'
p126
sg9
S' 7591'
p127
sg11
S'page0:http://oa.paneng.cn:1143/se9200/realdata/realdata.html\n'
p128
sa(dp129
g2
S'7591'
p130
sg4
L1449726733059L
sg5
g6
sg7
S'MainActivity'
p131
sg9
S' 7591'
p132
sg11
S'page1:http://oa.paneng.cn:1143/se9200/graph/gshow.jsp?mRID=1130000050\n'
p133
sa(dp134
g2
S'7591'
p135
sg4
L1449726733069L
sg5
g6
sg7
S'MainActivity'
p136
sg9
S' 7591'
p137
sg11
S'page2:http://oa.paneng.cn:1143/se9200/graph/gshow.jsp?mRID=1130000052\n'
p138
sa(dp139
g2
S'7591'
p140
sg4
L1449726733069L
sg5
g6
sg7
S'MainActivity'
p141
sg9
S' 7591'
p142
sg11
S'page3:http://oa.paneng.cn:1143/se9200/graph/gshow.jsp?mRID=1130000054\n'
p143
sa(dp144
g2
S'7591'
p145
sg4
L1449726733069L
sg5
g6
sg7
S'MainActivity'
p146
sg9
S' 7591'
p147
sg11
S'page4:http://oa.paneng.cn:1143/se9200/graph/gshow.jsp?mRID=1130000007\n'
p148
sa(dp149
g2
S'7591'
p150
sg4
L1449726733069L
sg5
g6
sg7
S'MainActivity'
p151
sg9
S' 7591'
p152
sg11
S'page5:http://oa.paneng.cn:1143/se9200/graph/gshow.jsp?mRID=1130000047\n'
p153
sa(dp154
g2
S'7591'
p155
sg4
L1449726733069L
sg5
g6
sg7
S'MainActivity'
p156
sg9
S' 7591'
p157
sg11
S'page6:http://oa.paneng.cn:1143/se9200/graph/gshow.jsp?mRID=1130000011\n'
p158
sa(dp159
g2
S'7591'
p160
sg4
L1449726733069L
sg5
g6
sg7
S'MainActivity'
p161
sg9
S' 7591'
p162
sg11
S'page7:http://oa.paneng.cn:1143/se9200/graph/gshow.jsp?mRID=1130000005\n'
p163
sa(dp164
g2
S'7591'
p165
sg4
L1449726733079L
sg5
g6
sg7
S'MainActivity'
p166
sg9
S' 7591'
p167
sg11
S'page8:http://oa.paneng.cn:1143/se9200/graph/gshow.jsp?mRID=1130000148\n'
p168
sa(dp169
g2
S'7591'
p170
sg4
L1449726733079L
sg5
g6
sg7
S'MainActivity'
p171
sg9
S' 7591'
p172
sg11
S'page9:http://oa.paneng.cn:1143/se9200/graph/gshow.jsp?mRID=1130000296\n'
p173
sa(dp174
g2
S'7611'
p175
sg4
L1449726733680L
sg5
g6
sg7
S'SocketService1'
p176
sg9
S' 7630'
p177
sg11
S'\xe6\x9c\xac\xe6\xac\xa1\xe6\x8f\x90\xe5\x8f\x961:LoadPtr:722 HeadIndex:655 GetSize:67 67 0 \xe5\xa4\xb4\xe4\xbf\xa1\xe6\x81\xaf:EB 90 EB 90 EB 90 43 00 15 02 \n'
p178
sa(dp179
g2
S'7591'
p180
sg4
L1449726733680L
sg5
g6
sg7
S'MainActivity'
p181
sg9
S' 7591'
p182
sg11
S'ServerVersion:23 LocalVersion:12\n'
p183
sa(dp184
g2
S'7591'
p185
sg4
L1449726735842L
sg5
g6
sg7
S'MainActivity'
p186
sg9
S' 7591'
p187
sg11
S'V.getTag:null v.id:2131230738\n'
p188
sa(dp189
g2
S'7591'
p190
sg4
L1449726737234L
sg5
g6
sg7
S'MainActivity'
p191
sg9
S' 7591'
p192
sg11
S'V.getTag:null v.id:2131230790\n'
p193
sa(dp194
g2
S'7591'
p195
sg4
L1449726738545L
sg5
g6
sg7
S'MainActivity'
p196
sg9
S' 7591'
p197
sg11
S'V.getTag:null v.id:2131230738\n'
p198
sa(dp199
g2
S'7591'
p200
sg4
L1449726741669L
sg5
g6
sg7
S'cn.edu.nju.ise.kikandroid'
p201
sg9
S' 7638'
p202
sg11
S'Screenshot:1449726741683\n'
p203
sa(dp204
g2
S'7591'
p205
sg4
L1449726741789L
sg5
g6
sg7
S'dalvikvm'
p206
sg9
S' 7591'
p207
sg11
S'GC_FOR_ALLOC freed 5816K, 18% free 38278K/46215K, paused 43ms, total 43ms\n'
p208
sa(dp209
g2
S'7591'
p210
sg4
L1449726741859L
sg5
g6
sg7
S'dalvikvm'
p211
sg9
S' 7591'
p212
sg11
S'GC_FOR_ALLOC freed 148K, 10% free 41730K/46215K, paused 27ms, total 27ms\n'
p213
sa(dp214
g2
S'7591'
p215
sg4
L1449726743170L
sg5
g6
sg7
S'MainActivity'
p216
sg9
S' 7591'
p217
sg11
S'V.getTag:null v.id:2131230790\n'
p218
sa(dp219
g2
S'7591'
p220
sg4
L1449726745142L
sg5
g6
sg7
S'MainActivity'
p221
sg9
S' 7591'
p222
sg11
S'V.getTag:null v.id:2131230790\n'
p223
sa(dp224
g2
S'7591'
p225
sg4
L1449726745403L
sg5
g6
sg7
S'MainActivity'
p226
sg9
S' 7591'
p227
sg11
S'V.getTag:null v.id:2131230790\n'
p228
sa(dp229
g2
S'7591'
p230
sg4
L1449726745543L
sg5
g6
sg7
S'MainActivity'
p231
sg9
S' 7591'
p232
sg11
S'V.getTag:null v.id:2131230790\n'
p233
sa(dp234
g2
S'7591'
p235
sg4
L1449726746013L
sg5
g6
sg7
S'MainActivity'
p236
sg9
S' 7591'
p237
sg11
S'V.getTag:null v.id:2131230791\n'
p238
sa(dp239
g2
S'7591'
p240
sg4
L1449726748946L
sg5
g6
sg7
S'MainActivity'
p241
sg9
S' 7591'
p242
sg11
S'V.getTag:null v.id:2131230790\n'
p243
sa(dp244
g2
S'7591'
p245
sg4
L1449726751389L
sg5
g6
sg7
S'cn.edu.nju.ise.kikandroid'
p246
sg9
S' 7638'
p247
sg11
S'Screenshot:1449726751406\n'
p248
sa(dp249
g2
S'7591'
p250
sg4
L1449726751509L
sg5
g6
sg7
S'dalvikvm'
p251
sg9
S' 7591'
p252
sg11
S'GC_FOR_ALLOC freed 7642K, 24% free 38338K/49863K, paused 40ms, total 40ms\n'
p253
sa(dp254
g2
S'7591'
p255
sg4
L1449726751579L
sg5
g6
sg7
S'dalvikvm'
p256
sg9
S' 7598'
p257
sg11
S'GC_CONCURRENT freed 3618K, 16% free 41927K/49863K, paused 14ms+5ms, total 45ms\n'
p258
sa(dp259
g2
S'7591'
p260
sg4
L1449726753061L
sg5
g6
sg7
S'MainActivity'
p261
sg9
S' 7591'
p262
sg11
S'V.getTag:null v.id:2131230791\n'
p263
sa(dp264
g2
S'7591'
p265
sg4
L1449726755503L
sg5
g6
sg7
S'cn.edu.nju.ise.kikandroid'
p266
sg9
S' 7638'
p267
sg11
S'Screenshot:1449726755517\n'
p268
sa(dp269
g2
S'7591'
p270
sg4
L1449726755624L
sg5
g6
sg7
S'dalvikvm'
p271
sg9
S' 7591'
p272
sg11
S'GC_FOR_ALLOC freed 3900K, 16% free 41952K/49863K, paused 37ms, total 37ms\n'
p273
sa(dp274
g2
S'7591'
p275
sg4
L1449726760809L
sg5
g6
sg7
S'cn.edu.nju.ise.kikandroid'
p276
sg9
S' 7638'
p277
sg11
S'Log:1449726760825\n'
p278
sa(dp279
g2
S'7591'
p280
sg4
L1449726762761L
sg5
g6
sg7
S'cn.edu.nju.ise.kikandroid'
p281
sg9
S' 7638'
p282
sg11
S'Log:1449726762774\n'
p283
sa(dp284
g2
S'7591'
p285
sg4
L1449726762831L
sg5
g6
sg7
S'cn.edu.nju.ise.kikandroid'
p286
sg9
S' 7638'
p287
sg11
S'Screenshot:1449726762845\n'
p288
sa(dp289
g2
S'7591'
p290
sg4
L1449726762921L
sg5
g6
sg7
S'dalvikvm'
p291
sg9
S' 7591'
p292
sg11
S'GC_FOR_ALLOC freed 7392K, 24% free 38333K/49863K, paused 42ms, total 42ms\n'
p293
sa(dp294
g2
S'7591'
p295
sg4
L1449726763001L
sg5
g6
sg7
S'dalvikvm'
p296
sg9
S' 7598'
p297
sg11
S'GC_CONCURRENT freed 3604K, 16% free 41936K/49863K, paused 14ms+5ms, total 45ms\n'
p298
sa(dp299
g2
S'7591'
p300
sg4
L1449726763142L
sg5
S'W'
p301
sg7
S'dalvikvm'
p302
sg9
S' 7638'
p303
sg11
S'threadid=14: thread exiting with uncaught exception (group=0x41c35498)\n'
p304
sa(dp305
g2
S'7591'
p306
sg4
L1449726763142L
sg5
S'E'
p307
sg7
S'AndroidRuntime'
p308
sg9
S' 7638'
p309
sg11
S'FATAL EXCEPTION: Thread-17988\njava.lang.NullPointerException\n\tat android.app.Instrumentation.finish(Instrumentation.java:186)\n\tat cn.edu.nju.ise.kikandroid.AUTInstrument.quitInstr(AUTInstrument.java:195)\n\tat cn.edu.nju.ise.kikandroid.AUTInstrument.startServer(AUTInstrument.java:161)\n\tat cn.edu.nju.ise.kikandroid.AUTInstrument$1.run(AUTInstrument.java:107)\n\tat java.lang.Thread.run(Thread.java:856)\n'
p310
sa.