(lp0
(dp1
S'EventTime'
p2
S'9605888'
p3
sS'SyscTime'
p4
L1449717095238L
sS'recordCount'
p5
S'0'
p6
sS'EventType'
p7
S'TYPE_WINDOW_STATE_CHANGED'
p8
sS'PackageName'
p9
S'com.example.myfristandroid'
p10
sS'OutBounds'
p11
S'Rect(0, 0 - 1080, 1920)'
p12
sS'Action'
p13
S'[ ClassName: com.example.myfristandroid.SplashActivity; Text: [SE-1800\xe7\xa7\xbb\xe5\x8a\xa8APP]; ContentDescription: null; ItemCount: -1; CurrentItemIndex: -1; IsEnabled: true; IsPassword: false; IsChecked: false; IsFullScreen: true; Scrollable: false; BeforeText: null; FromIndex: -1; ToIndex: -1; ScrollX: -1; ScrollY: -1; MaxScrollX: -1; MaxScrollY: -1; AddedCount: -1; RemovedCount: -1; ParcelableData: null ]'
p14
sS'MovementGranularity'
p15
g6
sa(dp16
S'EventTime'
p17
S'9606099'
p18
sg4
L1449717095332L
sS'recordCount'
p19
g6
sS'EventType'
p20
S'TYPE_WINDOW_CONTENT_CHANGED'
p21
sS'PackageName'
p22
S'com.example.myfristandroid'
p23
sS'OutBounds'
p24
S'Rect(0, 0 - 1080, 1920)'
p25
sS'Action'
p26
S'[ ClassName: android.widget.FrameLayout; Text: []; ContentDescription: null; ItemCount: -1; CurrentItemIndex: -1; IsEnabled: true; IsPassword: false; IsChecked: false; IsFullScreen: false; Scrollable: false; BeforeText: null; FromIndex: -1; ToIndex: -1; ScrollX: -1; ScrollY: -1; MaxScrollX: -1; MaxScrollY: -1; AddedCount: -1; RemovedCount: -1; ParcelableData: null ]'
p27
sS'MovementGranularity'
p28
g6
sa(dp29
S'EventTime'
p30
S'9608617'
p31
sg4
L1449717097922L
sS'recordCount'
p32
g6
sS'EventType'
p33
S'TYPE_WINDOW_STATE_CHANGED'
p34
sS'PackageName'
p35
S'com.example.myfristandroid'
p36
sS'OutBounds'
p37
S'Rect(0, 0 - 1080, 1920)'
p38
sS'Action'
p39
S'[ ClassName: com.example.myfristandroid.MainActivity; Text: [SE-1800\xe7\xa7\xbb\xe5\x8a\xa8APP]; ContentDescription: null; ItemCount: -1; CurrentItemIndex: -1; IsEnabled: true; IsPassword: false; IsChecked: false; IsFullScreen: true; Scrollable: false; BeforeText: null; FromIndex: -1; ToIndex: -1; ScrollX: -1; ScrollY: -1; MaxScrollX: -1; MaxScrollY: -1; AddedCount: -1; RemovedCount: -1; ParcelableData: null ]'
p40
sS'MovementGranularity'
p41
g6
sa(dp42
S'EventTime'
p43
S'9608632'
p44
sg4
L1449717097968L
sS'recordCount'
p45
g6
sS'EventType'
p46
S'TYPE_VIEW_SCROLLED'
p47
sS'PackageName'
p48
S'com.example.myfristandroid'
p49
sS'OutBounds'
p50
S'Rect(1098, 624 - 2142, 624)'
p51
sS'Action'
p52
S'[ ClassName: android.widget.ListView; Text: []; ContentDescription: null; ItemCount: 0; CurrentItemIndex: -1; IsEnabled: true; IsPassword: false; IsChecked: false; IsFullScreen: false; Scrollable: false; BeforeText: null; FromIndex: 0; ToIndex: -1; ScrollX: -1; ScrollY: -1; MaxScrollX: -1; MaxScrollY: -1; AddedCount: -1; RemovedCount: -1; ParcelableData: null ]'
p53
sS'MovementGranularity'
p54
g6
sa(dp55
S'EventTime'
p56
S'9608798'
p57
sg4
L1449717098036L
sS'recordCount'
p58
g6
sS'EventType'
p59
S'TYPE_WINDOW_CONTENT_CHANGED'
p60
sS'PackageName'
p61
S'com.example.myfristandroid'
p62
sS'OutBounds'
p63
S'Rect(0, 210 - 1080, 1755)'
p64
sS'Action'
p65
S'[ ClassName: android.widget.GridView; Text: []; ContentDescription: null; ItemCount: 9; CurrentItemIndex: -1; IsEnabled: true; IsPassword: false; IsChecked: false; IsFullScreen: false; Scrollable: false; BeforeText: null; FromIndex: 0; ToIndex: 8; ScrollX: -1; ScrollY: -1; MaxScrollX: -1; MaxScrollY: -1; AddedCount: -1; RemovedCount: -1; ParcelableData: null ]'
p66
sS'MovementGranularity'
p67
g6
sa(dp68
S'EventTime'
p69
S'9611870'
p70
sg4
L1449717101100L
sS'recordCount'
p71
g6
sS'EventType'
p72
S'TYPE_VIEW_CLICKED'
p73
sS'PackageName'
p74
S'com.example.myfristandroid'
p75
sS'OutBounds'
p76
S'Rect(540, 1755 - 810, 1920)'
p77
sS'Action'
p78
S'[ ClassName: android.widget.LinearLayout; Text: [\xe6\x9f\xa5\xe7\x9c\x8b\xe5\xae\x9e\xe6\x97\xb6\xe5\x91\x8a\xe8\xad\xa6\xe4\xbf\xa1\xe6\x81\xaf, \xe5\x91\x8a\xe8\xad\xa6]; ContentDescription: null; ItemCount: -1; CurrentItemIndex: -1; IsEnabled: true; IsPassword: false; IsChecked: false; IsFullScreen: false; Scrollable: false; BeforeText: null; FromIndex: -1; ToIndex: -1; ScrollX: -1; ScrollY: -1; MaxScrollX: -1; MaxScrollY: -1; AddedCount: -1; RemovedCount: -1; ParcelableData: null ]'
p79
sS'MovementGranularity'
p80
g6
sa(dp81
S'EventTime'
p82
S'9611879'
p83
sg4
L1449717101209L
sS'recordCount'
p84
g6
sS'EventType'
p85
S'TYPE_WINDOW_CONTENT_CHANGED'
p86
sS'PackageName'
p87
S'com.example.myfristandroid'
p88
sS'OutBounds'
p89
S'Rect(-2139, 210 - -2139, 210)'
p90
sS'Action'
p91
S'[ ClassName: android.widget.LinearLayout; Text: []; ContentDescription: null; ItemCount: -1; CurrentItemIndex: -1; IsEnabled: true; IsPassword: false; IsChecked: false; IsFullScreen: false; Scrollable: false; BeforeText: null; FromIndex: -1; ToIndex: -1; ScrollX: -1; ScrollY: -1; MaxScrollX: -1; MaxScrollY: -1; AddedCount: -1; RemovedCount: -1; ParcelableData: null ]'
p92
sS'MovementGranularity'
p93
g6
sa(dp94
S'EventTime'
p95
S'9611880'
p96
sg4
L1449717101238L
sS'recordCount'
p97
g6
sS'EventType'
p98
S'TYPE_VIEW_FOCUSED'
p99
sS'PackageName'
p100
S'com.example.myfristandroid'
p101
sS'OutBounds'
p102
S'Rect(12, 375 - 1074, 465)'
p103
sS'Action'
p104
S'[ ClassName: android.widget.EditText; Text: [\xe6\x90\x9c\xe7\xb4\xa2]; ContentDescription: null; ItemCount: 8; CurrentItemIndex: 2; IsEnabled: true; IsPassword: false; IsChecked: false; IsFullScreen: false; Scrollable: false; BeforeText: null; FromIndex: -1; ToIndex: -1; ScrollX: -1; ScrollY: -1; MaxScrollX: -1; MaxScrollY: -1; AddedCount: -1; RemovedCount: -1; ParcelableData: null ]'
p105
sS'MovementGranularity'
p106
g6
sa(dp107
S'EventTime'
p108
S'9612069'
p109
sg4
L1449717101327L
sS'recordCount'
p110
g6
sS'EventType'
p111
S'TYPE_WINDOW_CONTENT_CHANGED'
p112
sS'PackageName'
p113
S'com.example.myfristandroid'
p114
sS'OutBounds'
p115
S'Rect(0, 210 - 1080, 1755)'
p116
sS'Action'
p117
S'[ ClassName: android.support.v4.view.ViewPager; Text: []; ContentDescription: null; ItemCount: -1; CurrentItemIndex: -1; IsEnabled: true; IsPassword: false; IsChecked: false; IsFullScreen: false; Scrollable: false; BeforeText: null; FromIndex: -1; ToIndex: -1; ScrollX: -1; ScrollY: -1; MaxScrollX: -1; MaxScrollY: -1; AddedCount: -1; RemovedCount: -1; ParcelableData: null ]'
p118
sS'MovementGranularity'
p119
g6
sa(dp120
S'EventTime'
p121
S'9612078'
p122
sg4
L1449717101368L
sS'recordCount'
p123
g6
sS'EventType'
p124
S'TYPE_VIEW_SCROLLED'
p125
sS'PackageName'
p126
S'com.example.myfristandroid'
p127
sS'OutBounds'
p128
S'Rect(0, 210 - 1080, 1755)'
p129
sS'Action'
p130
S'[ ClassName: android.support.v4.view.ViewPager; Text: []; ContentDescription: null; ItemCount: -1; CurrentItemIndex: -1; IsEnabled: true; IsPassword: false; IsChecked: false; IsFullScreen: false; Scrollable: false; BeforeText: null; FromIndex: -1; ToIndex: -1; ScrollX: -1; ScrollY: -1; MaxScrollX: -1; MaxScrollY: -1; AddedCount: -1; RemovedCount: -1; ParcelableData: null ]'
p131
sS'MovementGranularity'
p132
g6
sa(dp133
S'EventTime'
p134
S'9612194'
p135
sg4
L1449717101435L
sS'recordCount'
p136
g6
sS'EventType'
p137
S'TYPE_VIEW_SCROLLED'
p138
sS'PackageName'
p139
S'com.example.myfristandroid'
p140
sS'OutBounds'
p141
S'Rect(0, 210 - 1080, 1755)'
p142
sS'Action'
p143
S'[ ClassName: android.support.v4.view.ViewPager; Text: []; ContentDescription: null; ItemCount: -1; CurrentItemIndex: -1; IsEnabled: true; IsPassword: false; IsChecked: false; IsFullScreen: false; Scrollable: false; BeforeText: null; FromIndex: -1; ToIndex: -1; ScrollX: -1; ScrollY: -1; MaxScrollX: -1; MaxScrollY: -1; AddedCount: -1; RemovedCount: -1; ParcelableData: null ]'
p144
sS'MovementGranularity'
p145
g6
sa(dp146
S'EventTime'
p147
S'9616993'
p148
sg4
L1449717106228L
sS'recordCount'
p149
g6
sS'EventType'
p150
S'TYPE_VIEW_CLICKED'
p151
sS'PackageName'
p152
S'com.example.myfristandroid'
p153
sS'OutBounds'
p154
S'Rect(0, 1755 - 270, 1920)'
p155
sS'Action'
p156
S'[ ClassName: android.widget.LinearLayout; Text: [\xe7\x94\xbb\xe9\x9d\xa2\xe6\xb5\x8f\xe8\xa7\x88, \xe7\x94\xbb\xe9\x9d\xa2]; ContentDescription: null; ItemCount: -1; CurrentItemIndex: -1; IsEnabled: true; IsPassword: false; IsChecked: false; IsFullScreen: false; Scrollable: false; BeforeText: null; FromIndex: -1; ToIndex: -1; ScrollX: -1; ScrollY: -1; MaxScrollX: -1; MaxScrollY: -1; AddedCount: -1; RemovedCount: -1; ParcelableData: null ]'
p157
sS'MovementGranularity'
p158
g6
sa(dp159
S'EventTime'
p160
S'9616996'
p161
sg4
L1449717106292L
sS'recordCount'
p162
g6
sS'EventType'
p163
S'TYPE_VIEW_FOCUSED'
p164
sS'PackageName'
p165
S'com.example.myfristandroid'
p166
sS'OutBounds'
p167
S'Rect(-58, 210 - 1021, 1755)'
p168
sS'Action'
p169
S'[ ClassName: android.widget.GridView; Text: []; ContentDescription: null; ItemCount: 9; CurrentItemIndex: -1; IsEnabled: true; IsPassword: false; IsChecked: false; IsFullScreen: false; Scrollable: false; BeforeText: null; FromIndex: 0; ToIndex: 8; ScrollX: -1; ScrollY: -1; MaxScrollX: -1; MaxScrollY: -1; AddedCount: -1; RemovedCount: -1; ParcelableData: null ]'
p170
sS'MovementGranularity'
p171
g6
sa(dp172
S'EventTime'
p173
S'9617110'
p174
sg4
L1449717106367L
sS'recordCount'
p175
g6
sS'EventType'
p176
S'TYPE_WINDOW_CONTENT_CHANGED'
p177
sS'PackageName'
p178
S'com.example.myfristandroid'
p179
sS'OutBounds'
p180
S'Rect(-2, 210 - 1077, 1755)'
p181
sS'Action'
p182
S'[ ClassName: android.widget.GridView; Text: []; ContentDescription: null; ItemCount: 9; CurrentItemIndex: -1; IsEnabled: true; IsPassword: false; IsChecked: false; IsFullScreen: false; Scrollable: false; BeforeText: null; FromIndex: 0; ToIndex: 8; ScrollX: -1; ScrollY: -1; MaxScrollX: -1; MaxScrollY: -1; AddedCount: -1; RemovedCount: -1; ParcelableData: null ]'
p183
sS'MovementGranularity'
p184
g6
sa(dp185
S'EventTime'
p186
S'9617161'
p187
sg4
L1449717106437L
sS'recordCount'
p188
g6
sS'EventType'
p189
S'TYPE_VIEW_SCROLLED'
p190
sS'PackageName'
p191
S'com.example.myfristandroid'
p192
sS'OutBounds'
p193
S'Rect(0, 210 - 1080, 1755)'
p194
sS'Action'
p195
S'[ ClassName: android.support.v4.view.ViewPager; Text: []; ContentDescription: null; ItemCount: -1; CurrentItemIndex: -1; IsEnabled: true; IsPassword: false; IsChecked: false; IsFullScreen: false; Scrollable: false; BeforeText: null; FromIndex: -1; ToIndex: -1; ScrollX: -1; ScrollY: -1; MaxScrollX: -1; MaxScrollY: -1; AddedCount: -1; RemovedCount: -1; ParcelableData: null ]'
p196
sS'MovementGranularity'
p197
g6
sa(dp198
S'EventTime'
p199
S'9617279'
p200
sg4
L1449717106522L
sS'recordCount'
p201
g6
sS'EventType'
p202
S'TYPE_VIEW_SCROLLED'
p203
sS'PackageName'
p204
S'com.example.myfristandroid'
p205
sS'OutBounds'
p206
S'Rect(0, 210 - 1080, 1755)'
p207
sS'Action'
p208
S'[ ClassName: android.support.v4.view.ViewPager; Text: []; ContentDescription: null; ItemCount: -1; CurrentItemIndex: -1; IsEnabled: true; IsPassword: false; IsChecked: false; IsFullScreen: false; Scrollable: false; BeforeText: null; FromIndex: -1; ToIndex: -1; ScrollX: -1; ScrollY: -1; MaxScrollX: -1; MaxScrollY: -1; AddedCount: -1; RemovedCount: -1; ParcelableData: null ]'
p209
sS'MovementGranularity'
p210
g6
sa(dp211
S'EventTime'
p212
S'9619171'
p213
sg4
L1449717108402L
sS'recordCount'
p214
g6
sS'EventType'
p215
S'TYPE_VIEW_CLICKED'
p216
sS'PackageName'
p217
S'com.example.myfristandroid'
p218
sS'OutBounds'
p219
S'Rect(270, 1755 - 540, 1920)'
p220
sS'Action'
p221
S'[ ClassName: android.widget.LinearLayout; Text: [\xe6\x9f\xa5\xe7\x9c\x8b\xe5\xae\x9e\xe6\x97\xb6\xe6\x95\xb0\xe6\x8d\xae\xe4\xbf\xa1\xe6\x81\xaf, \xe6\x95\xb0\xe6\x8d\xae]; ContentDescription: null; ItemCount: -1; CurrentItemIndex: -1; IsEnabled: true; IsPassword: false; IsChecked: false; IsFullScreen: false; Scrollable: false; BeforeText: null; FromIndex: -1; ToIndex: -1; ScrollX: -1; ScrollY: -1; MaxScrollX: -1; MaxScrollY: -1; AddedCount: -1; RemovedCount: -1; ParcelableData: null ]'
p222
sS'MovementGranularity'
p223
g6
sa(dp224
S'EventTime'
p225
S'9619175'
p226
sg4
L1449717108444L
sS'recordCount'
p227
g6
sS'EventType'
p228
S'TYPE_WINDOW_CONTENT_CHANGED'
p229
sS'PackageName'
p230
S'com.example.myfristandroid'
p231
sS'OutBounds'
p232
S'Rect(-1074, 210 - 5, 1755)'
p233
sS'Action'
p234
S'[ ClassName: android.widget.GridView; Text: []; ContentDescription: null; ItemCount: 9; CurrentItemIndex: -1; IsEnabled: true; IsPassword: false; IsChecked: false; IsFullScreen: false; Scrollable: false; BeforeText: null; FromIndex: 0; ToIndex: 8; ScrollX: -1; ScrollY: -1; MaxScrollX: -1; MaxScrollY: -1; AddedCount: -1; RemovedCount: -1; ParcelableData: null ]'
p235
sS'MovementGranularity'
p236
g6
sa(dp237
S'EventTime'
p238
S'9619175'
p239
sg4
L1449717108482L
sS'recordCount'
p240
g6
sS'EventType'
p241
S'TYPE_VIEW_FOCUSED'
p242
sS'PackageName'
p243
S'com.example.myfristandroid'
p244
sS'OutBounds'
p245
S'Rect(10, 450 - 1072, 540)'
p246
sS'Action'
p247
S'[ ClassName: android.widget.EditText; Text: [\xe6\x90\x9c\xe7\xb4\xa2]; ContentDescription: null; ItemCount: 10; CurrentItemIndex: 4; IsEnabled: true; IsPassword: false; IsChecked: false; IsFullScreen: false; Scrollable: false; BeforeText: null; FromIndex: -1; ToIndex: -1; ScrollX: -1; ScrollY: -1; MaxScrollX: -1; MaxScrollY: -1; AddedCount: -1; RemovedCount: -1; ParcelableData: null ]'
p248
sS'MovementGranularity'
p249
g6
sa(dp250
S'EventTime'
p251
S'9619288'
p252
sg4
L1449717108542L
sS'recordCount'
p253
g6
sS'EventType'
p254
S'TYPE_WINDOW_CONTENT_CHANGED'
p255
sS'PackageName'
p256
S'com.example.myfristandroid'
p257
sS'OutBounds'
p258
S'Rect(-1079, 210 - 0, 1755)'
p259
sS'Action'
p260
S'[ ClassName: android.widget.GridView; Text: []; ContentDescription: null; ItemCount: 9; CurrentItemIndex: -1; IsEnabled: true; IsPassword: false; IsChecked: false; IsFullScreen: false; Scrollable: false; BeforeText: null; FromIndex: 0; ToIndex: 8; ScrollX: -1; ScrollY: -1; MaxScrollX: -1; MaxScrollY: -1; AddedCount: -1; RemovedCount: -1; ParcelableData: null ]'
p261
sS'MovementGranularity'
p262
g6
sa(dp263
S'EventTime'
p264
S'9619302'
p265
sg4
L1449717108574L
sS'recordCount'
p266
g6
sS'EventType'
p267
S'TYPE_VIEW_SCROLLED'
p268
sS'PackageName'
p269
S'com.example.myfristandroid'
p270
sS'OutBounds'
p271
S'Rect(0, 210 - 1080, 1755)'
p272
sS'Action'
p273
S'[ ClassName: android.support.v4.view.ViewPager; Text: []; ContentDescription: null; ItemCount: -1; CurrentItemIndex: -1; IsEnabled: true; IsPassword: false; IsChecked: false; IsFullScreen: false; Scrollable: false; BeforeText: null; FromIndex: -1; ToIndex: -1; ScrollX: -1; ScrollY: -1; MaxScrollX: -1; MaxScrollY: -1; AddedCount: -1; RemovedCount: -1; ParcelableData: null ]'
p274
sS'MovementGranularity'
p275
g6
sa(dp276
S'EventTime'
p277
S'9619411'
p278
sg4
L1449717108651L
sS'recordCount'
p279
g6
sS'EventType'
p280
S'TYPE_VIEW_SCROLLED'
p281
sS'PackageName'
p282
S'com.example.myfristandroid'
p283
sS'OutBounds'
p284
S'Rect(0, 210 - 1080, 1755)'
p285
sS'Action'
p286
S'[ ClassName: android.support.v4.view.ViewPager; Text: []; ContentDescription: null; ItemCount: -1; CurrentItemIndex: -1; IsEnabled: true; IsPassword: false; IsChecked: false; IsFullScreen: false; Scrollable: false; BeforeText: null; FromIndex: -1; ToIndex: -1; ScrollX: -1; ScrollY: -1; MaxScrollX: -1; MaxScrollY: -1; AddedCount: -1; RemovedCount: -1; ParcelableData: null ]'
p287
sS'MovementGranularity'
p288
g6
sa(dp289
S'EventTime'
p290
S'9620093'
p291
sg4
L1449717109322L
sS'recordCount'
p292
g6
sS'EventType'
p293
S'TYPE_VIEW_CLICKED'
p294
sS'PackageName'
p295
S'com.example.myfristandroid'
p296
sS'OutBounds'
p297
S'Rect(540, 1755 - 810, 1920)'
p298
sS'Action'
p299
S'[ ClassName: android.widget.LinearLayout; Text: [\xe6\x9f\xa5\xe7\x9c\x8b\xe5\xae\x9e\xe6\x97\xb6\xe5\x91\x8a\xe8\xad\xa6\xe4\xbf\xa1\xe6\x81\xaf, \xe5\x91\x8a\xe8\xad\xa6]; ContentDescription: null; ItemCount: -1; CurrentItemIndex: -1; IsEnabled: true; IsPassword: false; IsChecked: false; IsFullScreen: false; Scrollable: false; BeforeText: null; FromIndex: -1; ToIndex: -1; ScrollX: -1; ScrollY: -1; MaxScrollX: -1; MaxScrollY: -1; AddedCount: -1; RemovedCount: -1; ParcelableData: null ]'
p300
sS'MovementGranularity'
p301
g6
sa(dp302
S'EventTime'
p303
S'9620096'
p304
sg4
L1449717109341L
sS'recordCount'
p305
g6
sS'EventType'
p306
S'TYPE_WINDOW_CONTENT_CHANGED'
p307
sS'PackageName'
p308
S'com.example.myfristandroid'
p309
sS'OutBounds'
p310
S'Rect(-1052, 450 - 9, 540)'
p311
sS'Action'
p312
S'[ ClassName: android.widget.EditText; Text: []; ContentDescription: null; ItemCount: -1; CurrentItemIndex: -1; IsEnabled: true; IsPassword: false; IsChecked: false; IsFullScreen: false; Scrollable: false; BeforeText: null; FromIndex: -1; ToIndex: -1; ScrollX: -1; ScrollY: -1; MaxScrollX: -1; MaxScrollY: -1; AddedCount: -1; RemovedCount: -1; ParcelableData: null ]'
p313
sS'MovementGranularity'
p314
g6
sa(dp315
S'EventTime'
p316
S'9620097'
p317
sg4
L1449717109360L
sS'recordCount'
p318
g6
sS'EventType'
p319
S'TYPE_VIEW_FOCUSED'
p320
sS'PackageName'
p321
S'com.example.myfristandroid'
p322
sS'OutBounds'
p323
S'Rect(15, 375 - 1077, 465)'
p324
sS'Action'
p325
S'[ ClassName: android.widget.EditText; Text: [\xe6\x90\x9c\xe7\xb4\xa2]; ContentDescription: null; ItemCount: 8; CurrentItemIndex: 2; IsEnabled: true; IsPassword: false; IsChecked: false; IsFullScreen: false; Scrollable: false; BeforeText: null; FromIndex: -1; ToIndex: -1; ScrollX: -1; ScrollY: -1; MaxScrollX: -1; MaxScrollY: -1; AddedCount: -1; RemovedCount: -1; ParcelableData: null ]'
p326
sS'MovementGranularity'
p327
g6
sa(dp328
S'EventTime'
p329
S'9620207'
p330
sg4
L1449717109461L
sS'recordCount'
p331
g6
sS'EventType'
p332
S'TYPE_VIEW_SCROLLED'
p333
sS'PackageName'
p334
S'com.example.myfristandroid'
p335
sS'OutBounds'
p336
S'Rect(0, 210 - 1080, 1755)'
p337
sS'Action'
p338
S'[ ClassName: android.support.v4.view.ViewPager; Text: []; ContentDescription: null; ItemCount: -1; CurrentItemIndex: -1; IsEnabled: true; IsPassword: false; IsChecked: false; IsFullScreen: false; Scrollable: false; BeforeText: null; FromIndex: -1; ToIndex: -1; ScrollX: -1; ScrollY: -1; MaxScrollX: -1; MaxScrollY: -1; AddedCount: -1; RemovedCount: -1; ParcelableData: null ]'
p339
sS'MovementGranularity'
p340
g6
sa(dp341
S'EventTime'
p342
S'9620314'
p343
sg4
L1449717109582L
sS'recordCount'
p344
g6
sS'EventType'
p345
S'TYPE_VIEW_SCROLLED'
p346
sS'PackageName'
p347
S'com.example.myfristandroid'
p348
sS'OutBounds'
p349
S'Rect(0, 210 - 1080, 1755)'
p350
sS'Action'
p351
S'[ ClassName: android.support.v4.view.ViewPager; Text: []; ContentDescription: null; ItemCount: -1; CurrentItemIndex: -1; IsEnabled: true; IsPassword: false; IsChecked: false; IsFullScreen: false; Scrollable: false; BeforeText: null; FromIndex: -1; ToIndex: -1; ScrollX: -1; ScrollY: -1; MaxScrollX: -1; MaxScrollY: -1; AddedCount: -1; RemovedCount: -1; ParcelableData: null ]'
p352
sS'MovementGranularity'
p353
g6
sa(dp354
S'EventTime'
p355
S'9621134'
p356
sg4
L1449717110367L
sS'recordCount'
p357
g6
sS'EventType'
p358
S'TYPE_VIEW_CLICKED'
p359
sS'PackageName'
p360
S'com.example.myfristandroid'
p361
sS'OutBounds'
p362
S'Rect(810, 1755 - 1080, 1920)'
p363
sS'Action'
p364
S'[ ClassName: android.widget.LinearLayout; Text: [\xe8\xae\xbe\xe7\xbd\xae\xe7\xb3\xbb\xe7\xbb\x9f\xe8\xbf\x90\xe8\xa1\x8c\xe5\x8f\x82\xe6\x95\xb0, \xe8\xae\xbe\xe7\xbd\xae]; ContentDescription: null; ItemCount: -1; CurrentItemIndex: -1; IsEnabled: true; IsPassword: false; IsChecked: false; IsFullScreen: false; Scrollable: false; BeforeText: null; FromIndex: -1; ToIndex: -1; ScrollX: -1; ScrollY: -1; MaxScrollX: -1; MaxScrollY: -1; AddedCount: -1; RemovedCount: -1; ParcelableData: null ]'
p365
sS'MovementGranularity'
p366
g6
sa(dp367
S'EventTime'
p368
S'9621137'
p369
sg4
L1449717110391L
sS'recordCount'
p370
g6
sS'EventType'
p371
S'TYPE_VIEW_FOCUSED'
p372
sS'PackageName'
p373
S'com.example.myfristandroid'
p374
sS'OutBounds'
p375
S'Rect(313, 225 - 1078, 315)'
p376
sS'Action'
p377
S'[ ClassName: android.widget.EditText; Text: [\xe6\x9c\x8d\xe5\x8a\xa1\xe5\x99\xa8\xe5\x9c\xb0\xe5\x9d\x80]; ContentDescription: null; ItemCount: 10; CurrentItemIndex: 0; IsEnabled: true; IsPassword: false; IsChecked: false; IsFullScreen: false; Scrollable: false; BeforeText: null; FromIndex: -1; ToIndex: -1; ScrollX: -1; ScrollY: -1; MaxScrollX: -1; MaxScrollY: -1; AddedCount: -1; RemovedCount: -1; ParcelableData: null ]'
p378
sS'MovementGranularity'
p379
g6
sa(dp380
S'EventTime'
p381
S'9621154'
p382
sg4
L1449717110414L
sS'recordCount'
p383
g6
sS'EventType'
p384
S'TYPE_VIEW_TEXT_SELECTION_CHANGED'
p385
sS'PackageName'
p386
S'com.example.myfristandroid'
p387
sS'OutBounds'
p388
S'Rect(302, 330 - 1067, 420)'
p389
sS'Action'
p390
S'[ ClassName: android.widget.EditText; Text: [143]; ContentDescription: null; ItemCount: 3; CurrentItemIndex: -1; IsEnabled: true; IsPassword: false; IsChecked: false; IsFullScreen: false; Scrollable: false; BeforeText: null; FromIndex: 0; ToIndex: 0; ScrollX: -1; ScrollY: -1; MaxScrollX: -1; MaxScrollY: -1; AddedCount: -1; RemovedCount: -1; ParcelableData: null ]'
p391
sS'MovementGranularity'
p392
g6
sa(dp393
S'EventTime'
p394
S'9621156'
p395
sg4
L1449717110450L
sS'recordCount'
p396
g6
sS'EventType'
p397
S'TYPE_WINDOW_CONTENT_CHANGED'
p398
sS'PackageName'
p399
S'com.example.myfristandroid'
p400
sS'OutBounds'
p401
S'Rect(330, 750 - 750, 840)'
p402
sS'Action'
p403
S'[ ClassName: android.widget.Button; Text: []; ContentDescription: null; ItemCount: -1; CurrentItemIndex: -1; IsEnabled: true; IsPassword: false; IsChecked: false; IsFullScreen: false; Scrollable: false; BeforeText: null; FromIndex: -1; ToIndex: -1; ScrollX: -1; ScrollY: -1; MaxScrollX: -1; MaxScrollY: -1; AddedCount: -1; RemovedCount: -1; ParcelableData: null ]'
p404
sS'MovementGranularity'
p405
g6
sa(dp406
S'EventTime'
p407
S'9621283'
p408
sg4
L1449717110533L
sS'recordCount'
p409
g6
sS'EventType'
p410
S'TYPE_VIEW_SCROLLED'
p411
sS'PackageName'
p412
S'com.example.myfristandroid'
p413
sS'OutBounds'
p414
S'Rect(0, 210 - 1080, 1755)'
p415
sS'Action'
p416
S'[ ClassName: android.support.v4.view.ViewPager; Text: []; ContentDescription: null; ItemCount: -1; CurrentItemIndex: -1; IsEnabled: true; IsPassword: false; IsChecked: false; IsFullScreen: false; Scrollable: false; BeforeText: null; FromIndex: -1; ToIndex: -1; ScrollX: -1; ScrollY: -1; MaxScrollX: -1; MaxScrollY: -1; AddedCount: -1; RemovedCount: -1; ParcelableData: null ]'
p417
sS'MovementGranularity'
p418
g6
sa(dp419
S'EventTime'
p420
S'9621403'
p421
sg4
L1449717110656L
sS'recordCount'
p422
g6
sS'EventType'
p423
S'TYPE_VIEW_SCROLLED'
p424
sS'PackageName'
p425
S'com.example.myfristandroid'
p426
sS'OutBounds'
p427
S'Rect(0, 210 - 1080, 1755)'
p428
sS'Action'
p429
S'[ ClassName: android.support.v4.view.ViewPager; Text: []; ContentDescription: null; ItemCount: -1; CurrentItemIndex: -1; IsEnabled: true; IsPassword: false; IsChecked: false; IsFullScreen: false; Scrollable: false; BeforeText: null; FromIndex: -1; ToIndex: -1; ScrollX: -1; ScrollY: -1; MaxScrollX: -1; MaxScrollY: -1; AddedCount: -1; RemovedCount: -1; ParcelableData: null ]'
p430
sS'MovementGranularity'
p431
g6
sa(dp432
S'EventTime'
p433
S'9629801'
p434
sg4
L1449717119050L
sS'recordCount'
p435
g6
sS'EventType'
p436
S'TYPE_WINDOW_CONTENT_CHANGED'
p437
sS'PackageName'
p438
S'com.example.myfristandroid'
p439
sS'OutBounds'
p440
S'Rect(300, 225 - 1065, 315)'
p441
sS'Action'
p442
S'[ ClassName: android.widget.EditText; Text: []; ContentDescription: null; ItemCount: -1; CurrentItemIndex: -1; IsEnabled: true; IsPassword: false; IsChecked: false; IsFullScreen: false; Scrollable: false; BeforeText: null; FromIndex: -1; ToIndex: -1; ScrollX: -1; ScrollY: -1; MaxScrollX: -1; MaxScrollY: -1; AddedCount: -1; RemovedCount: -1; ParcelableData: null ]'
p443
sS'MovementGranularity'
p444
g6
sa(dp445
S'EventTime'
p446
S'9629802'
p447
sg4
L1449717119282L
sS'recordCount'
p448
g6
sS'EventType'
p449
S'TYPE_VIEW_TEXT_SELECTION_CHANGED'
p450
sS'PackageName'
p451
S'com.example.myfristandroid'
p452
sS'OutBounds'
p453
S'Rect(300, 540 - 1065, 630)'
p454
sS'Action'
p455
S'[ ClassName: android.widget.EditText; Text: [\xe7\xb3\xbb\xe7\xbb\x9f\xe7\xae\xa1\xe7\x90\x86\xe5\x91\x98]; ContentDescription: null; ItemCount: 5; CurrentItemIndex: -1; IsEnabled: true; IsPassword: false; IsChecked: false; IsFullScreen: false; Scrollable: false; BeforeText: null; FromIndex: 5; ToIndex: 5; ScrollX: -1; ScrollY: -1; MaxScrollX: -1; MaxScrollY: -1; AddedCount: -1; RemovedCount: -1; ParcelableData: null ]'
p456
sS'MovementGranularity'
p457
g6
sa(dp458
S'EventTime'
p459
S'9629802'
p460
sg4
L1449717119314L
sS'recordCount'
p461
g6
sS'EventType'
p462
S'TYPE_VIEW_FOCUSED'
p463
sS'PackageName'
p464
S'com.example.myfristandroid'
p465
sS'OutBounds'
p466
S'Rect(300, 540 - 1065, 630)'
p467
sS'Action'
p468
S'[ ClassName: android.widget.EditText; Text: [\xe7\xb3\xbb\xe7\xbb\x9f\xe7\xae\xa1\xe7\x90\x86\xe5\x91\x98]; ContentDescription: null; ItemCount: 10; CurrentItemIndex: 3; IsEnabled: true; IsPassword: false; IsChecked: false; IsFullScreen: false; Scrollable: false; BeforeText: null; FromIndex: -1; ToIndex: -1; ScrollX: -1; ScrollY: -1; MaxScrollX: -1; MaxScrollY: -1; AddedCount: -1; RemovedCount: -1; ParcelableData: null ]'
p469
sS'MovementGranularity'
p470
g6
sa(dp471
S'EventTime'
p472
S'9645360'
p473
sg4
L1449717134589L
sS'recordCount'
p474
g6
sS'EventType'
p475
S'TYPE_VIEW_CLICKED'
p476
sS'PackageName'
p477
S'com.example.myfristandroid'
p478
sS'OutBounds'
p479
S'Rect(540, 928 - 810, 1093)'
p480
sS'Action'
p481
S'[ ClassName: android.widget.LinearLayout; Text: [\xe6\x9f\xa5\xe7\x9c\x8b\xe5\xae\x9e\xe6\x97\xb6\xe5\x91\x8a\xe8\xad\xa6\xe4\xbf\xa1\xe6\x81\xaf, \xe5\x91\x8a\xe8\xad\xa6]; ContentDescription: null; ItemCount: -1; CurrentItemIndex: -1; IsEnabled: true; IsPassword: false; IsChecked: false; IsFullScreen: false; Scrollable: false; BeforeText: null; FromIndex: -1; ToIndex: -1; ScrollX: -1; ScrollY: -1; MaxScrollX: -1; MaxScrollY: -1; AddedCount: -1; RemovedCount: -1; ParcelableData: null ]'
p482
sS'MovementGranularity'
p483
g6
sa(dp484
S'EventTime'
p485
S'9645365'
p486
sg4
L1449717134619L
sS'recordCount'
p487
g6
sS'EventType'
p488
S'TYPE_WINDOW_CONTENT_CHANGED'
p489
sS'PackageName'
p490
S'com.example.myfristandroid'
p491
sS'OutBounds'
p492
S'Rect(1369, 540 - 2134, 630)'
p493
sS'Action'
p494
S'[ ClassName: android.widget.EditText; Text: []; ContentDescription: null; ItemCount: -1; CurrentItemIndex: -1; IsEnabled: true; IsPassword: false; IsChecked: false; IsFullScreen: false; Scrollable: false; BeforeText: null; FromIndex: -1; ToIndex: -1; ScrollX: -1; ScrollY: -1; MaxScrollX: -1; MaxScrollY: -1; AddedCount: -1; RemovedCount: -1; ParcelableData: null ]'
p495
sS'MovementGranularity'
p496
g6
sa(dp497
S'EventTime'
p498
S'9645366'
p499
sg4
L1449717134646L
sS'recordCount'
p500
g6
sS'EventType'
p501
S'TYPE_VIEW_FOCUSED'
p502
sS'PackageName'
p503
S'com.example.myfristandroid'
p504
sS'OutBounds'
p505
S'Rect(7, 375 - 1069, 465)'
p506
sS'Action'
p507
S'[ ClassName: android.widget.EditText; Text: [\xe6\x90\x9c\xe7\xb4\xa2]; ContentDescription: null; ItemCount: 8; CurrentItemIndex: 2; IsEnabled: true; IsPassword: false; IsChecked: false; IsFullScreen: false; Scrollable: false; BeforeText: null; FromIndex: -1; ToIndex: -1; ScrollX: -1; ScrollY: -1; MaxScrollX: -1; MaxScrollY: -1; AddedCount: -1; RemovedCount: -1; ParcelableData: null ]'
p508
sS'MovementGranularity'
p509
g6
sa(dp510
S'EventTime'
p511
S'9645484'
p512
sg4
L1449717134737L
sS'recordCount'
p513
g6
sS'EventType'
p514
S'TYPE_VIEW_SCROLLED'
p515
sS'PackageName'
p516
S'com.example.myfristandroid'
p517
sS'OutBounds'
p518
S'Rect(0, 210 - 1080, 1755)'
p519
sS'Action'
p520
S'[ ClassName: android.support.v4.view.ViewPager; Text: []; ContentDescription: null; ItemCount: -1; CurrentItemIndex: -1; IsEnabled: true; IsPassword: false; IsChecked: false; IsFullScreen: false; Scrollable: false; BeforeText: null; FromIndex: -1; ToIndex: -1; ScrollX: -1; ScrollY: -1; MaxScrollX: -1; MaxScrollY: -1; AddedCount: -1; RemovedCount: -1; ParcelableData: null ]'
p521
sS'MovementGranularity'
p522
g6
sa(dp523
S'EventTime'
p524
S'9645590'
p525
sg4
L1449717134831L
sS'recordCount'
p526
g6
sS'EventType'
p527
S'TYPE_VIEW_SCROLLED'
p528
sS'PackageName'
p529
S'com.example.myfristandroid'
p530
sS'OutBounds'
p531
S'Rect(0, 210 - 1080, 1755)'
p532
sS'Action'
p533
S'[ ClassName: android.support.v4.view.ViewPager; Text: []; ContentDescription: null; ItemCount: -1; CurrentItemIndex: -1; IsEnabled: true; IsPassword: false; IsChecked: false; IsFullScreen: false; Scrollable: false; BeforeText: null; FromIndex: -1; ToIndex: -1; ScrollX: -1; ScrollY: -1; MaxScrollX: -1; MaxScrollY: -1; AddedCount: -1; RemovedCount: -1; ParcelableData: null ]'
p534
sS'MovementGranularity'
p535
g6
sa(dp536
S'EventTime'
p537
S'9650247'
p538
sg4
L1449717139478L
sS'recordCount'
p539
g6
sS'EventType'
p540
S'TYPE_VIEW_CLICKED'
p541
sS'PackageName'
p542
S'com.example.myfristandroid'
p543
sS'OutBounds'
p544
S'Rect(270, 1755 - 540, 1920)'
p545
sS'Action'
p546
S'[ ClassName: android.widget.LinearLayout; Text: [\xe6\x9f\xa5\xe7\x9c\x8b\xe5\xae\x9e\xe6\x97\xb6\xe6\x95\xb0\xe6\x8d\xae\xe4\xbf\xa1\xe6\x81\xaf, \xe6\x95\xb0\xe6\x8d\xae]; ContentDescription: null; ItemCount: -1; CurrentItemIndex: -1; IsEnabled: true; IsPassword: false; IsChecked: false; IsFullScreen: false; Scrollable: false; BeforeText: null; FromIndex: -1; ToIndex: -1; ScrollX: -1; ScrollY: -1; MaxScrollX: -1; MaxScrollY: -1; AddedCount: -1; RemovedCount: -1; ParcelableData: null ]'
p547
sS'MovementGranularity'
p548
g6
sa(dp549
S'EventTime'
p550
S'9650252'
p551
sg4
L1449717139500L
sS'recordCount'
p552
g6
sS'EventType'
p553
S'TYPE_VIEW_FOCUSED'
p554
sS'PackageName'
p555
S'com.example.myfristandroid'
p556
sS'OutBounds'
p557
S'Rect(-6, 450 - 1055, 540)'
p558
sS'Action'
p559
S'[ ClassName: android.widget.EditText; Text: [\xe6\x90\x9c\xe7\xb4\xa2]; ContentDescription: null; ItemCount: 10; CurrentItemIndex: 4; IsEnabled: true; IsPassword: false; IsChecked: false; IsFullScreen: false; Scrollable: false; BeforeText: null; FromIndex: -1; ToIndex: -1; ScrollX: -1; ScrollY: -1; MaxScrollX: -1; MaxScrollY: -1; AddedCount: -1; RemovedCount: -1; ParcelableData: null ]'
p560
sS'MovementGranularity'
p561
g6
sa(dp562
S'EventTime'
p563
S'9650278'
p564
sg4
L1449717139546L
sS'recordCount'
p565
g6
sS'EventType'
p566
S'TYPE_WINDOW_CONTENT_CHANGED'
p567
sS'PackageName'
p568
S'com.example.myfristandroid'
p569
sS'OutBounds'
p570
S'Rect(-1081, 210 - -1, 1755)'
p571
sS'Action'
p572
S'[ ClassName: android.widget.GridView; Text: []; ContentDescription: null; ItemCount: 9; CurrentItemIndex: -1; IsEnabled: true; IsPassword: false; IsChecked: false; IsFullScreen: false; Scrollable: false; BeforeText: null; FromIndex: 0; ToIndex: 8; ScrollX: -1; ScrollY: -1; MaxScrollX: -1; MaxScrollY: -1; AddedCount: -1; RemovedCount: -1; ParcelableData: null ]'
p573
sS'MovementGranularity'
p574
g6
sa(dp575
S'EventTime'
p576
S'9650394'
p577
sg4
L1449717139637L
sS'recordCount'
p578
g6
sS'EventType'
p579
S'TYPE_WINDOW_CONTENT_CHANGED'
p580
sS'PackageName'
p581
S'com.example.myfristandroid'
p582
sS'OutBounds'
p583
S'Rect(-1079, 210 - 0, 1755)'
p584
sS'Action'
p585
S'[ ClassName: android.widget.GridView; Text: []; ContentDescription: null; ItemCount: 9; CurrentItemIndex: -1; IsEnabled: true; IsPassword: false; IsChecked: false; IsFullScreen: false; Scrollable: false; BeforeText: null; FromIndex: 0; ToIndex: 8; ScrollX: -1; ScrollY: -1; MaxScrollX: -1; MaxScrollY: -1; AddedCount: -1; RemovedCount: -1; ParcelableData: null ]'
p586
sS'MovementGranularity'
p587
g6
sa(dp588
S'EventTime'
p589
S'9650395'
p590
sg4
L1449717139667L
sS'recordCount'
p591
g6
sS'EventType'
p592
S'TYPE_VIEW_SCROLLED'
p593
sS'PackageName'
p594
S'com.example.myfristandroid'
p595
sS'OutBounds'
p596
S'Rect(0, 210 - 1080, 1755)'
p597
sS'Action'
p598
S'[ ClassName: android.support.v4.view.ViewPager; Text: []; ContentDescription: null; ItemCount: -1; CurrentItemIndex: -1; IsEnabled: true; IsPassword: false; IsChecked: false; IsFullScreen: false; Scrollable: false; BeforeText: null; FromIndex: -1; ToIndex: -1; ScrollX: -1; ScrollY: -1; MaxScrollX: -1; MaxScrollY: -1; AddedCount: -1; RemovedCount: -1; ParcelableData: null ]'
p599
sS'MovementGranularity'
p600
g6
sa(dp601
S'EventTime'
p602
S'9650506'
p603
sg4
L1449717139754L
sS'recordCount'
p604
g6
sS'EventType'
p605
S'TYPE_VIEW_SCROLLED'
p606
sS'PackageName'
p607
S'com.example.myfristandroid'
p608
sS'OutBounds'
p609
S'Rect(0, 210 - 1080, 1755)'
p610
sS'Action'
p611
S'[ ClassName: android.support.v4.view.ViewPager; Text: []; ContentDescription: null; ItemCount: -1; CurrentItemIndex: -1; IsEnabled: true; IsPassword: false; IsChecked: false; IsFullScreen: false; Scrollable: false; BeforeText: null; FromIndex: -1; ToIndex: -1; ScrollX: -1; ScrollY: -1; MaxScrollX: -1; MaxScrollY: -1; AddedCount: -1; RemovedCount: -1; ParcelableData: null ]'
p612
sS'MovementGranularity'
p613
g6
sa(dp614
S'EventTime'
p615
S'9653100'
p616
sg4
L1449717142331L
sS'recordCount'
p617
g6
sS'EventType'
p618
S'TYPE_VIEW_CLICKED'
p619
sS'PackageName'
p620
S'com.example.myfristandroid'
p621
sS'OutBounds'
p622
S'Rect(0, 1755 - 270, 1920)'
p623
sS'Action'
p624
S'[ ClassName: android.widget.LinearLayout; Text: [\xe7\x94\xbb\xe9\x9d\xa2\xe6\xb5\x8f\xe8\xa7\x88, \xe7\x94\xbb\xe9\x9d\xa2]; ContentDescription: null; ItemCount: -1; CurrentItemIndex: -1; IsEnabled: true; IsPassword: false; IsChecked: false; IsFullScreen: false; Scrollable: false; BeforeText: null; FromIndex: -1; ToIndex: -1; ScrollX: -1; ScrollY: -1; MaxScrollX: -1; MaxScrollY: -1; AddedCount: -1; RemovedCount: -1; ParcelableData: null ]'
p625
sS'MovementGranularity'
p626
g6
sa(dp627
S'EventTime'
p628
S'9653104'
p629
sg4
L1449717142355L
sS'recordCount'
p630
g6
sS'EventType'
p631
S'TYPE_VIEW_FOCUSED'
p632
sS'PackageName'
p633
S'com.example.myfristandroid'
p634
sS'OutBounds'
p635
S'Rect(-12, 210 - 1067, 1755)'
p636
sS'Action'
p637
S'[ ClassName: android.widget.GridView; Text: []; ContentDescription: null; ItemCount: 9; CurrentItemIndex: -1; IsEnabled: true; IsPassword: false; IsChecked: false; IsFullScreen: false; Scrollable: false; BeforeText: null; FromIndex: 0; ToIndex: 8; ScrollX: -1; ScrollY: -1; MaxScrollX: -1; MaxScrollY: -1; AddedCount: -1; RemovedCount: -1; ParcelableData: null ]'
p638
sS'MovementGranularity'
p639
g6
sa(dp640
S'EventTime'
p641
S'9653110'
p642
sg4
L1449717142398L
sS'recordCount'
p643
g6
sS'EventType'
p644
S'TYPE_WINDOW_CONTENT_CHANGED'
p645
sS'PackageName'
p646
S'com.example.myfristandroid'
p647
sS'OutBounds'
p648
S'Rect(-1, 210 - 1078, 1755)'
p649
sS'Action'
p650
S'[ ClassName: android.widget.GridView; Text: []; ContentDescription: null; ItemCount: 9; CurrentItemIndex: -1; IsEnabled: true; IsPassword: false; IsChecked: false; IsFullScreen: false; Scrollable: false; BeforeText: null; FromIndex: 0; ToIndex: 8; ScrollX: -1; ScrollY: -1; MaxScrollX: -1; MaxScrollY: -1; AddedCount: -1; RemovedCount: -1; ParcelableData: null ]'
p651
sS'MovementGranularity'
p652
g6
sa(dp653
S'EventTime'
p654
S'9653218'
p655
sg4
L1449717142478L
sS'recordCount'
p656
g6
sS'EventType'
p657
S'TYPE_WINDOW_CONTENT_CHANGED'
p658
sS'PackageName'
p659
S'com.example.myfristandroid'
p660
sS'OutBounds'
p661
S'Rect(0, 210 - 1080, 1755)'
p662
sS'Action'
p663
S'[ ClassName: android.widget.GridView; Text: []; ContentDescription: null; ItemCount: 9; CurrentItemIndex: -1; IsEnabled: true; IsPassword: false; IsChecked: false; IsFullScreen: false; Scrollable: false; BeforeText: null; FromIndex: 0; ToIndex: 8; ScrollX: -1; ScrollY: -1; MaxScrollX: -1; MaxScrollY: -1; AddedCount: -1; RemovedCount: -1; ParcelableData: null ]'
p664
sS'MovementGranularity'
p665
g6
sa(dp666
S'EventTime'
p667
S'9653219'
p668
sg4
L1449717142503L
sS'recordCount'
p669
g6
sS'EventType'
p670
S'TYPE_VIEW_SCROLLED'
p671
sS'PackageName'
p672
S'com.example.myfristandroid'
p673
sS'OutBounds'
p674
S'Rect(0, 210 - 1080, 1755)'
p675
sS'Action'
p676
S'[ ClassName: android.support.v4.view.ViewPager; Text: []; ContentDescription: null; ItemCount: -1; CurrentItemIndex: -1; IsEnabled: true; IsPassword: false; IsChecked: false; IsFullScreen: false; Scrollable: false; BeforeText: null; FromIndex: -1; ToIndex: -1; ScrollX: -1; ScrollY: -1; MaxScrollX: -1; MaxScrollY: -1; AddedCount: -1; RemovedCount: -1; ParcelableData: null ]'
p677
sS'MovementGranularity'
p678
g6
sa(dp679
S'EventTime'
p680
S'9653330'
p681
sg4
L1449717142571L
sS'recordCount'
p682
g6
sS'EventType'
p683
S'TYPE_VIEW_SCROLLED'
p684
sS'PackageName'
p685
S'com.example.myfristandroid'
p686
sS'OutBounds'
p687
S'Rect(0, 210 - 1080, 1755)'
p688
sS'Action'
p689
S'[ ClassName: android.support.v4.view.ViewPager; Text: []; ContentDescription: null; ItemCount: -1; CurrentItemIndex: -1; IsEnabled: true; IsPassword: false; IsChecked: false; IsFullScreen: false; Scrollable: false; BeforeText: null; FromIndex: -1; ToIndex: -1; ScrollX: -1; ScrollY: -1; MaxScrollX: -1; MaxScrollY: -1; AddedCount: -1; RemovedCount: -1; ParcelableData: null ]'
p690
sS'MovementGranularity'
p691
g6
sa.