(lp0
(dp1
S'processID'
p2
S'21160'
p3
sS'SyscTime'
p4
L1449713014170L
sS'priority'
p5
S'E'
p6
sS'tag'
p7
S'ActivityThread'
p8
sS'threadID'
p9
S'0x52a8'
p10
sS'message'
p11
S'Activity com.example.myfristandroid.MainActivity has leaked IntentReceiver com.example.myfristandroid.MainActivity$CmdReceiver@42137f40 that was originally registered here. Are you missing a call to unregisterReceiver()?\nandroid.app.IntentReceiverLeaked: Activity com.example.myfristandroid.MainActivity has leaked IntentReceiver com.example.myfristandroid.MainActivity$CmdReceiver@42137f40 that was originally registered here. Are you missing a call to unregisterReceiver()?\n\tat android.app.LoadedApk$ReceiverDispatcher.<init>(LoadedApk.java:835)\n\tat android.app.LoadedApk.getReceiverDispatcher(LoadedApk.java:606)\n\tat android.app.ContextImpl.registerReceiverInternal(ContextImpl.java:1533)\n\tat android.app.ContextImpl.registerReceiver(ContextImpl.java:1513)\n\tat android.app.ContextImpl.registerReceiver(ContextImpl.java:1507)\n\tat android.content.ContextWrapper.registerReceiver(ContextWrapper.java:467)\n\tat com.example.myfristandroid.MainActivity.onCreate(MainActivity.java:311)\n\tat android.app.Activity.performCreate(Activity.java:5303)\n\tat android.app.Instrumentation.callActivityOnCreate(Instrumentation.java:1088)\n\tat android.app.ActivityThread.performLaunchActivity(ActivityThread.java:2304)\n\tat android.app.ActivityThread.handleLaunchActivity(ActivityThread.java:2392)\n\tat android.app.ActivityThread.access$800(ActivityThread.java:153)\n\tat android.app.ActivityThread$H.handleMessage(ActivityThread.java:1323)\n\tat android.os.Handler.dispatchMessage(Handler.java:110)\n\tat android.os.Looper.loop(Looper.java:193)\n\tat android.app.ActivityThread.main(ActivityThread.java:5321)\n\tat java.lang.reflect.Method.invokeNative(Native Method)\n\tat java.lang.reflect.Method.invoke(Method.java:515)\n\tat com.android.internal.os.ZygoteInit$MethodAndArgsCaller.run(ZygoteInit.java:831)\n\tat com.android.internal.os.ZygoteInit.main(ZygoteInit.java:647)\n\tat dalvik.system.NativeStart.main(Native Method)\n'
p12
sa(dp13
g2
S'25307'
p14
sg4
L1449713817205L
sg5
g6
sg7
S'AndroidRuntime'
p15
sg9
S'0x6314'
p16
sg11
S'FATAL EXCEPTION: Thread-955\nProcess: com.example.myfristandroid, PID: 25307\njava.lang.NullPointerException\n\tat android.app.Instrumentation.finish(Instrumentation.java:190)\n\tat cn.edu.nju.ise.kikandroid.AUTInstrument.quitInstr(AUTInstrument.java:195)\n\tat cn.edu.nju.ise.kikandroid.AUTInstrument.startServer(AUTInstrument.java:161)\n\tat cn.edu.nju.ise.kikandroid.AUTInstrument$1.run(AUTInstrument.java:107)\n\tat java.lang.Thread.run(Thread.java:841)\n'
p17
sa(dp18
g2
S'27097'
p19
sg4
L1449714228850L
sg5
g6
sg7
S'AndroidRuntime'
p20
sg9
S'0x6a0d'
p21
sg11
S'FATAL EXCEPTION: Thread-978\nProcess: com.example.myfristandroid, PID: 27097\njava.lang.NullPointerException\n\tat android.app.Instrumentation.finish(Instrumentation.java:190)\n\tat cn.edu.nju.ise.kikandroid.AUTInstrument.quitInstr(AUTInstrument.java:195)\n\tat cn.edu.nju.ise.kikandroid.AUTInstrument.startServer(AUTInstrument.java:161)\n\tat cn.edu.nju.ise.kikandroid.AUTInstrument$1.run(AUTInstrument.java:107)\n\tat java.lang.Thread.run(Thread.java:841)\n'
p22
sa(dp23
g2
S'28354'
p24
sg4
L1449714487758L
sg5
g6
sg7
S'AndroidRuntime'
p25
sg9
S'0x6f25'
p26
sg11
S'FATAL EXCEPTION: Thread-1005\nProcess: com.example.myfristandroid, PID: 28354\njava.lang.NullPointerException\n\tat android.app.Instrumentation.finish(Instrumentation.java:190)\n\tat cn.edu.nju.ise.kikandroid.AUTInstrument.quitInstr(AUTInstrument.java:195)\n\tat cn.edu.nju.ise.kikandroid.AUTInstrument.startServer(AUTInstrument.java:161)\n\tat cn.edu.nju.ise.kikandroid.AUTInstrument$1.run(AUTInstrument.java:107)\n\tat java.lang.Thread.run(Thread.java:841)\n'
p27
sa(dp28
g2
S'31204'
p29
sg4
L1449715336891L
sg5
g6
sg7
S'AndroidRuntime'
p30
sg9
S'0x7a2f'
p31
sg11
S'FATAL EXCEPTION: Thread-1072\nProcess: com.example.myfristandroid, PID: 31204\njava.lang.NullPointerException\n\tat android.app.Instrumentation.finish(Instrumentation.java:190)\n\tat cn.edu.nju.ise.kikandroid.AUTInstrument.quitInstr(AUTInstrument.java:195)\n\tat cn.edu.nju.ise.kikandroid.AUTInstrument.startServer(AUTInstrument.java:161)\n\tat cn.edu.nju.ise.kikandroid.AUTInstrument$1.run(AUTInstrument.java:107)\n\tat java.lang.Thread.run(Thread.java:841)\n'
p32
sa(dp33
g2
S'1660'
p34
sg4
L1449715842661L
sg5
g6
sg7
S'AndroidRuntime'
p35
sg9
S'0x6c2'
p36
sg11
S'FATAL EXCEPTION: Thread-1146\nProcess: com.example.myfristandroid, PID: 1660\njava.lang.NullPointerException\n\tat android.app.Instrumentation.finish(Instrumentation.java:190)\n\tat cn.edu.nju.ise.kikandroid.AUTInstrument.quitInstr(AUTInstrument.java:195)\n\tat cn.edu.nju.ise.kikandroid.AUTInstrument.startServer(AUTInstrument.java:161)\n\tat cn.edu.nju.ise.kikandroid.AUTInstrument$1.run(AUTInstrument.java:107)\n\tat java.lang.Thread.run(Thread.java:841)\n'
p37
sa(dp38
g2
S'3557'
p39
sg4
L1449716168152L
sg5
S'W'
p40
sg7
S'ViewRootImpl'
p41
sg9
S'0xde5'
p42
sg11
S'Dropping event due to no window focus: KeyEvent { action=ACTION_DOWN, keyCode=KEYCODE_BACK, scanCode=158, metaState=0, flags=0x48, repeatCount=0, eventTime=8678779, downTime=8678779, deviceId=4, source=0x101 }\n'
p43
sa(dp44
g2
S'3557'
p45
sg4
L1449716171959L
sg5
g6
sg7
S'AndroidRuntime'
p46
sg9
S'0xe6e'
p47
sg11
S'FATAL EXCEPTION: Thread-1246\nProcess: com.example.myfristandroid, PID: 3557\njava.lang.NullPointerException\n\tat android.app.Instrumentation.finish(Instrumentation.java:190)\n\tat cn.edu.nju.ise.kikandroid.AUTInstrument.quitInstr(AUTInstrument.java:195)\n\tat cn.edu.nju.ise.kikandroid.AUTInstrument.startServer(AUTInstrument.java:161)\n\tat cn.edu.nju.ise.kikandroid.AUTInstrument$1.run(AUTInstrument.java:107)\n\tat java.lang.Thread.run(Thread.java:841)\n'
p48
sa(dp49
g2
S'5084'
p50
sg4
L1449716383849L
sg5
S'D'
p51
sg7
S'jdwp    '
p52
sg9
S'0x13e1'
p53
sg11
S"Can't connect to ADB control socket:Connection refused\n"
p54
sa(dp55
g2
S'5084'
p56
sg4
L1449716384265L
sg5
g51
sg7
S'cn.edu.nju.ise.kikandroid'
p57
sg9
S'0x1418'
p58
sg11
S'Screenshot:1449716383492\n'
p59
sa(dp60
g2
S'5084'
p61
sg4
L1449716384268L
sg5
g6
sg7
S'AndroidRuntime'
p62
sg9
S'0x1418'
p63
sg11
S'FATAL EXCEPTION: Thread-1305\nProcess: com.example.myfristandroid, PID: 5084\njava.lang.NullPointerException\n\tat android.app.Instrumentation.finish(Instrumentation.java:190)\n\tat cn.edu.nju.ise.kikandroid.AUTInstrument.quitInstr(AUTInstrument.java:195)\n\tat cn.edu.nju.ise.kikandroid.AUTInstrument.startServer(AUTInstrument.java:161)\n\tat cn.edu.nju.ise.kikandroid.AUTInstrument$1.run(AUTInstrument.java:107)\n\tat java.lang.Thread.run(Thread.java:841)\n'
p64
sa(dp65
g2
S'8399'
p66
sg4
L1449717094069L
sg5
g51
sg7
S'jdwp    '
p67
sg9
S'0x20cf'
p68
sg11
S'prepping for JDWP over ADB\n'
p69
sa(dp70
g2
S'8399'
p71
sg4
L1449717094071L
sg5
g51
sg7
S'jdwp    '
p72
sg9
S'0x20d5'
p73
sg11
S'JDWP: thread running\n'
p74
sa(dp75
g2
S'8399'
p76
sg4
L1449717094073L
sg5
g51
sg7
S'jdwp    '
p77
sg9
S'0x20d5'
p78
sg11
S"Can't connect to ADB control socket:Connection refused\n"
p79
sa(dp80
g2
S'8399'
p81
sg4
L1449717094567L
sg5
g51
sg7
S'skia    '
p82
sg9
S'0x20cf'
p83
sg11
S'jpeg_decoder mode 1, config 6, w 742, h 1306, sample 1, bsLength 9ff0f!!\n'
p84
sa(dp85
g2
S'8399'
p86
sg4
L1449717094575L
sg5
g51
sg7
S'jdwp    '
p87
sg9
S'0x20d5'
p88
sg11
S"Can't connect to ADB control socket:Connection refused\n"
p89
sa(dp90
g2
S'8399'
p91
sg4
L1449717094642L
sg5
S'I'
p92
sg7
S'dalvikvm'
p93
sg9
S'0x20cf'
p94
sg11
S'"main" prio=5 tid=1 RUNNABLE\n'
p95
sa(dp96
g2
S'8399'
p97
sg4
L1449717094642L
sg5
g92
sg7
S'dalvikvm'
p98
sg9
S'0x20cf'
p99
sg11
S'  | group="main" sCount=0 dsCount=0 obj=0x41b5bd98 self=0x41b49260\n'
p100
sa(dp101
g2
S'8399'
p102
sg4
L1449717094642L
sg5
g92
sg7
S'dalvikvm'
p103
sg9
S'0x20cf'
p104
sg11
S'  | sysTid=8399 nice=0 sched=0/0 cgrp=apps handle=1074430340\n'
p105
sa(dp106
g2
S'8399'
p107
sg4
L1449717094643L
sg5
g92
sg7
S'dalvikvm'
p108
sg9
S'0x20cf'
p109
sg11
S'  | state=R schedstat=( 123518763 16453543 75 ) utm=9 stm=3 core=5\n'
p110
sa(dp111
g2
S'8399'
p112
sg4
L1449717094643L
sg5
g92
sg7
S'dalvikvm'
p113
sg9
S'0x20cf'
p114
sg11
S'  at android.graphics.BitmapFactory.nativeDecodeAsset(Native Method)\n'
p115
sa(dp116
g2
S'8399'
p117
sg4
L1449717094644L
sg5
g92
sg7
S'dalvikvm'
p118
sg9
S'0x20cf'
p119
sg11
S'  at android.graphics.BitmapFactory.decodeStream(BitmapFactory.java:609)\n'
p120
sa(dp121
g2
S'8399'
p122
sg4
L1449717094644L
sg5
g92
sg7
S'dalvikvm'
p123
sg9
S'0x20cf'
p124
sg11
S'  at android.graphics.BitmapFactory.decodeResourceStream(BitmapFactory.java:440)\n'
p125
sa(dp126
g2
S'8399'
p127
sg4
L1449717094644L
sg5
g92
sg7
S'dalvikvm'
p128
sg9
S'0x20cf'
p129
sg11
S'  at android.graphics.drawable.Drawable.createFromResourceStream(Drawable.java:842)\n'
p130
sa(dp131
g2
S'8399'
p132
sg4
L1449717094644L
sg5
g92
sg7
S'dalvikvm'
p133
sg9
S'0x20cf'
p134
sg11
S'  at android.content.res.Resources.loadDrawable(Resources.java:2147)\n'
p135
sa(dp136
g2
S'8399'
p137
sg4
L1449717094649L
sg5
g92
sg7
S'dalvikvm'
p138
sg9
S'0x20cf'
p139
sg11
S'  at android.content.res.TypedArray.getDrawable(TypedArray.java:604)\n'
p140
sa(dp141
g2
S'8399'
p142
sg4
L1449717094652L
sg5
g92
sg7
S'dalvikvm'
p143
sg9
S'0x20cf'
p144
sg11
S'  at android.widget.ImageView.<init>(ImageView.java:70)\n'
p145
sa(dp146
g2
S'8399'
p147
sg4
L1449717094654L
sg5
g92
sg7
S'dalvikvm'
p148
sg9
S'0x20cf'
p149
sg11
S'  at android.widget.ImageView.<init>(ImageView.java:120)\n'
p150
sa(dp151
g2
S'8399'
p152
sg4
L1449717094655L
sg5
g92
sg7
S'dalvikvm'
p153
sg9
S'0x20cf'
p154
sg11
S'  at java.lang.reflect.Constructor.constructNative(Native Method)\n'
p155
sa(dp156
g2
S'8399'
p157
sg4
L1449717094656L
sg5
g92
sg7
S'dalvikvm'
p158
sg9
S'0x20cf'
p159
sg11
S'  at java.lang.reflect.Constructor.newInstance(Constructor.java:423)\n'
p160
sa(dp161
g2
S'8399'
p162
sg4
L1449717094658L
sg5
g92
sg7
S'dalvikvm'
p163
sg9
S'0x20cf'
p164
sg11
S'  at android.view.LayoutInflater.createView(LayoutInflater.java:555)\n'
p165
sa(dp166
g2
S'8399'
p167
sg4
L1449717094659L
sg5
g92
sg7
S'dalvikvm'
p168
sg9
S'0x20cf'
p169
sg11
S'  at com.android.internal.policy.impl.PhoneLayoutInflater.onCreateView(PhoneLayoutInflater.java:66)\n'
p170
sa(dp171
g2
S'8399'
p172
sg4
L1449717094659L
sg5
g92
sg7
S'dalvikvm'
p173
sg9
S'0x20cf'
p174
sg11
S'  at android.view.LayoutInflater.onCreateView(LayoutInflater.java:669)\n'
p175
sa(dp176
g2
S'8399'
p177
sg4
L1449717094659L
sg5
g92
sg7
S'dalvikvm'
p178
sg9
S'0x20cf'
p179
sg11
S'  at android.view.LayoutInflater.createViewFromTag(LayoutInflater.java:-1)\n'
p180
sa(dp181
g2
S'8399'
p182
sg4
L1449717094659L
sg5
g92
sg7
S'dalvikvm'
p183
sg9
S'0x20cf'
p184
sg11
S'  at android.view.LayoutInflater.rInflate(LayoutInflater.java:742)\n'
p185
sa(dp186
g2
S'8399'
p187
sg4
L1449717094659L
sg5
g92
sg7
S'dalvikvm'
p188
sg9
S'0x20cf'
p189
sg11
S'  at android.view.LayoutInflater.inflate(LayoutInflater.java:529)\n'
p190
sa(dp191
g2
S'8399'
p192
sg4
L1449717094659L
sg5
g92
sg7
S'dalvikvm'
p193
sg9
S'0x20cf'
p194
sg11
S'  at android.view.LayoutInflater.inflate(LayoutInflater.java:399)\n'
p195
sa(dp196
g2
S'8399'
p197
sg4
L1449717094659L
sg5
g92
sg7
S'dalvikvm'
p198
sg9
S'0x20cf'
p199
sg11
S'  at android.view.LayoutInflater.inflate(LayoutInflater.java:353)\n'
p200
sa(dp201
g2
S'8399'
p202
sg4
L1449717094661L
sg5
g92
sg7
S'dalvikvm'
p203
sg9
S'0x20cf'
p204
sg11
S'  at com.android.internal.policy.impl.PhoneWindow.setContentView(PhoneWindow.java:304)\n'
p205
sa(dp206
g2
S'8399'
p207
sg4
L1449717094661L
sg5
g92
sg7
S'dalvikvm'
p208
sg9
S'0x20cf'
p209
sg11
S'  at android.app.Activity.setContentView(Activity.java:1949)\n'
p210
sa(dp211
g2
S'8399'
p212
sg4
L1449717094661L
sg5
g92
sg7
S'dalvikvm'
p213
sg9
S'0x20cf'
p214
sg11
S'  at com.example.myfristandroid.SplashActivity.onCreate(SplashActivity.java:13)\n'
p215
sa(dp216
g2
S'8399'
p217
sg4
L1449717094661L
sg5
g92
sg7
S'dalvikvm'
p218
sg9
S'0x20cf'
p219
sg11
S'  at android.app.Activity.performCreate(Activity.java:5303)\n'
p220
sa(dp221
g2
S'8399'
p222
sg4
L1449717094661L
sg5
g92
sg7
S'dalvikvm'
p223
sg9
S'0x20cf'
p224
sg11
S'  at android.app.Instrumentation.callActivityOnCreate(Instrumentation.java:1073)\n'
p225
sa(dp226
g2
S'8399'
p227
sg4
L1449717094661L
sg5
g92
sg7
S'dalvikvm'
p228
sg9
S'0x20cf'
p229
sg11
S'  at android.app.ActivityThread.performLaunchActivity(ActivityThread.java:2246)\n'
p230
sa(dp231
g2
S'8399'
p232
sg4
L1449717094661L
sg5
g92
sg7
S'dalvikvm'
p233
sg9
S'0x20cf'
p234
sg11
S'  at android.app.ActivityThread.handleLaunchActivity(ActivityThread.java:2448)\n'
p235
sa(dp236
g2
S'8399'
p237
sg4
L1449717094661L
sg5
g92
sg7
S'dalvikvm'
p238
sg9
S'0x20cf'
p239
sg11
S'  at android.app.ActivityThread.access$800(ActivityThread.java:153)\n'
p240
sa(dp241
g2
S'8399'
p242
sg4
L1449717094661L
sg5
g92
sg7
S'dalvikvm'
p243
sg9
S'0x20cf'
p244
sg11
S'  at android.app.ActivityThread$H.handleMessage(ActivityThread.java:-1)\n'
p245
sa(dp246
g2
S'8399'
p247
sg4
L1449717094661L
sg5
g92
sg7
S'dalvikvm'
p248
sg9
S'0x20cf'
p249
sg11
S'  at android.os.Handler.dispatchMessage(Handler.java:110)\n'
p250
sa(dp251
g2
S'8399'
p252
sg4
L1449717094661L
sg5
g92
sg7
S'dalvikvm'
p253
sg9
S'0x20cf'
p254
sg11
S'  at android.os.Looper.loop(Looper.java:147)\n'
p255
sa(dp256
g2
S'8399'
p257
sg4
L1449717094661L
sg5
g92
sg7
S'dalvikvm'
p258
sg9
S'0x20cf'
p259
sg11
S'  at android.app.ActivityThread.main(ActivityThread.java:5301)\n'
p260
sa(dp261
g2
S'8399'
p262
sg4
L1449717094661L
sg5
g92
sg7
S'dalvikvm'
p263
sg9
S'0x20cf'
p264
sg11
S'  at java.lang.reflect.Method.invokeNative(Native Method)\n'
p265
sa(dp266
g2
S'8399'
p267
sg4
L1449717094661L
sg5
g92
sg7
S'dalvikvm'
p268
sg9
S'0x20cf'
p269
sg11
S'  at java.lang.reflect.Method.invoke(Method.java:515)\n'
p270
sa(dp271
g2
S'8399'
p272
sg4
L1449717094661L
sg5
g92
sg7
S'dalvikvm'
p273
sg9
S'0x20cf'
p274
sg11
S'  at com.android.internal.os.ZygoteInit$MethodAndArgsCaller.run(ZygoteInit.java:833)\n'
p275
sa(dp276
g2
S'8399'
p277
sg4
L1449717094661L
sg5
g92
sg7
S'dalvikvm'
p278
sg9
S'0x20cf'
p279
sg11
S'  at com.android.internal.os.ZygoteInit.main(ZygoteInit.java:610)\n'
p280
sa(dp281
g2
S'8399'
p282
sg4
L1449717094661L
sg5
g92
sg7
S'dalvikvm'
p283
sg9
S'0x20cf'
p284
sg11
S'  at dalvik.system.NativeStart.main(Native Method)\n'
p285
sa(dp286
g2
S'8399'
p287
sg4
L1449717094661L
sg5
g92
sg7
S'dalvikvm'
p288
sg9
S'0x20cf'
p289
sg11
S''
p290
sa(dp291
g2
S'8434'
p292
sg4
L1449717094928L
sg5
g51
sg7
S'jdwp    '
p293
sg9
S'0x20f2'
p294
sg11
S'prepping for JDWP over ADB\n'
p295
sa(dp296
g2
S'8434'
p297
sg4
L1449717094928L
sg5
g51
sg7
S'jdwp    '
p298
sg9
S'0x20f8'
p299
sg11
S'JDWP: thread running\n'
p300
sa(dp301
g2
S'8434'
p302
sg4
L1449717094930L
sg5
g51
sg7
S'jdwp    '
p303
sg9
S'0x20f8'
p304
sg11
S"Can't connect to ADB control socket:Connection refused\n"
p305
sa(dp306
g2
S'8399'
p307
sg4
L1449717094968L
sg5
g6
sg7
S'        '
p308
sg9
S'0x20cf'
p309
sg11
S'appName=com.example.myfristandroid, acAppName=/system/bin/surfaceflinger\n'
p310
sa(dp311
g2
S'8399'
p312
sg4
L1449717094968L
sg5
g6
sg7
S'        '
p313
sg9
S'0x20cf'
p314
sg11
g290
sa(dp315
g2
S'8434'
p316
sg4
L1449717095009L
sg5
g51
sg7
S'SocketService'
p317
sg9
S'0x20f2'
p318
sg11
S'onStartCommand : bLogin:false\n'
p319
sa(dp320
g2
S'8434'
p321
sg4
L1449717095012L
sg5
g51
sg7
S'SocketService'
p322
sg9
S'0x20f2'
p323
sg11
S'pid:8434 myPid:8434\n'
p324
sa(dp325
g2
S'8434'
p326
sg4
L1449717095016L
sg5
g51
sg7
S'SocketService'
p327
sg9
S'0x20f2'
p328
sg11
S'start to run current thread!id:1469\n'
p329
sa(dp330
g2
S'8434'
p331
sg4
L1449717095052L
sg5
g51
sg7
S'SocketService'
p332
sg9
S'0x2109'
p333
sg11
S'ip/192.168.1.162 lport:58229 p:143\n'
p334
sa(dp335
g2
S'8434'
p336
sg4
L1449717095077L
sg5
g51
sg7
S'ForegroundActivity'
p337
sg9
S'0x2109'
p338
sg11
S'\xe6\x9c\xac\xe6\xac\xa1\xe5\x8f\x91\xe9\x80\x81\xe5\xb8\xa7\xe9\x95\xbf:35\t\xe6\x80\xbb\xe5\xb8\xa7\xe9\x95\xbf:35\n'
p339
sa(dp340
g2
S'8434'
p341
sg4
L1449717095077L
sg5
g51
sg7
S'SocketService'
p342
sg9
S'0x2109'
p343
sg11
S'success to connect server!id:1469 bLogin:false\n'
p344
sa(dp345
g2
S'8434'
p346
sg4
L1449717095202L
sg5
g51
sg7
S'ForegroundActivity'
p347
sg9
S'0x210b'
p348
sg11
S'\xe6\x9c\xac\xe6\xac\xa1\xe6\x94\xb6\xe5\x88\xb0\xe5\xb8\xa7\xe9\x95\xbf:13\t\xe6\x80\xbb\xe5\xb8\xa7\xe9\x95\xbf:13\n'
p349
sa(dp350
g2
S'8399'
p351
sg4
L1449717095326L
sg5
g51
sg7
S'jdwp    '
p352
sg9
S'0x20d5'
p353
sg11
S"Can't connect to ADB control socket:Connection refused\n"
p354
sa(dp355
g2
S'8434'
p356
sg4
L1449717095431L
sg5
g51
sg7
S'jdwp    '
p357
sg9
S'0x20f8'
p358
sg11
S"Can't connect to ADB control socket:Connection refused\n"
p359
sa(dp360
g2
S'8434'
p361
sg4
L1449717096007L
sg5
g51
sg7
S'SocketService1'
p362
sg9
S'0x2107'
p363
sg11
S'\xe6\x9c\xac\xe6\xac\xa1\xe6\x8f\x90\xe5\x8f\x961:LoadPtr:13 HeadIndex:0 GetSize:13 13 0 \xe5\xa4\xb4\xe4\xbf\xa1\xe6\x81\xaf:EB 90 EB 90 EB 90 0D 00 0E 01 \n'
p364
sa(dp365
g2
S'8434'
p366
sg4
L1449717096078L
sg5
g51
sg7
S'ForegroundActivity'
p367
sg9
S'0x2109'
p368
sg11
S'\xe6\x9c\xac\xe6\xac\xa1\xe5\x8f\x91\xe9\x80\x81\xe5\xb8\xa7\xe9\x95\xbf:11\t\xe6\x80\xbb\xe5\xb8\xa7\xe9\x95\xbf:46\n'
p369
sa(dp370
g2
S'8434'
p371
sg4
L1449717096181L
sg5
g51
sg7
S'jdwp    '
p372
sg9
S'0x20f8'
p373
sg11
S"Can't connect to ADB control socket:Connection refused\n"
p374
sa(dp375
g2
S'8434'
p376
sg4
L1449717096206L
sg5
g51
sg7
S'ForegroundActivity'
p377
sg9
S'0x210b'
p378
sg11
S'\xe6\x9c\xac\xe6\xac\xa1\xe6\x94\xb6\xe5\x88\xb0\xe5\xb8\xa7\xe9\x95\xbf:642\t\xe6\x80\xbb\xe5\xb8\xa7\xe9\x95\xbf:655\n'
p379
sa(dp380
g2
S'8399'
p381
sg4
L1449717096451L
sg5
g51
sg7
S'jdwp    '
p382
sg9
S'0x20d5'
p383
sg11
S"Can't connect to ADB control socket:Connection refused\n"
p384
sa(dp385
g2
S'8434'
p386
sg4
L1449717097019L
sg5
g51
sg7
S'SocketService1'
p387
sg9
S'0x2107'
p388
sg11
S'\xe6\x9c\xac\xe6\xac\xa1\xe6\x8f\x90\xe5\x8f\x961:LoadPtr:655 HeadIndex:13 GetSize:642 130 512 \xe5\xa4\xb4\xe4\xbf\xa1\xe6\x81\xaf:EB 90 EB 90 EB 90 82 02 14 0A \n'
p389
sa(dp390
g2
S'8434'
p391
sg4
L1449717097079L
sg5
g51
sg7
S'ForegroundActivity'
p392
sg9
S'0x2109'
p393
sg11
S'\xe6\x9c\xac\xe6\xac\xa1\xe5\x8f\x91\xe9\x80\x81\xe5\xb8\xa7\xe9\x95\xbf:11\t\xe6\x80\xbb\xe5\xb8\xa7\xe9\x95\xbf:57\n'
p394
sa(dp395
g2
S'8434'
p396
sg4
L1449717097186L
sg5
g51
sg7
S'ForegroundActivity'
p397
sg9
S'0x210b'
p398
sg11
S'\xe6\x9c\xac\xe6\xac\xa1\xe6\x94\xb6\xe5\x88\xb0\xe5\xb8\xa7\xe9\x95\xbf:67\t\xe6\x80\xbb\xe5\xb8\xa7\xe9\x95\xbf:722\n'
p399
sa(dp400
g2
S'8434'
p401
sg4
L1449717097307L
sg5
g51
sg7
S'jdwp    '
p402
sg9
S'0x20f8'
p403
sg11
S"Can't connect to ADB control socket:Connection refused\n"
p404
sa(dp405
g2
S'8434'
p406
sg4
L1449717097309L
sg5
g51
sg7
S'SocketService1'
p407
sg9
S'0x2107'
p408
sg11
S'\xe6\x9c\xac\xe6\xac\xa1\xe6\x8f\x90\xe5\x8f\x961:LoadPtr:722 HeadIndex:655 GetSize:67 67 0 \xe5\xa4\xb4\xe4\xbf\xa1\xe6\x81\xaf:EB 90 EB 90 EB 90 43 00 15 02 \n'
p409
sa(dp410
g2
S'8399'
p411
sg4
L1449717097404L
sg5
g51
sg7
S'MainActivity'
p412
sg9
S'0x20cf'
p413
sg11
S'Start One Client\n'
p414
sa(dp415
g2
S'8399'
p416
sg4
L1449717098138L
sg5
g51
sg7
S'jdwp    '
p417
sg9
S'0x20d5'
p418
sg11
S"Can't connect to ADB control socket:Connection refused\n"
p419
sa(dp420
g2
S'8434'
p421
sg4
L1449717098995L
sg5
g51
sg7
S'jdwp    '
p422
sg9
S'0x20f8'
p423
sg11
S"Can't connect to ADB control socket:Connection refused\n"
p424
sa(dp425
g2
S'8399'
p426
sg4
L1449717100139L
sg5
g51
sg7
S'jdwp    '
p427
sg9
S'0x20d5'
p428
sg11
S"Can't connect to ADB control socket:Connection refused\n"
p429
sa(dp430
g2
S'8434'
p431
sg4
L1449717100997L
sg5
g51
sg7
S'jdwp    '
p432
sg9
S'0x20f8'
p433
sg11
S"Can't connect to ADB control socket:Connection refused\n"
p434
sa(dp435
g2
S'8399'
p436
sg4
L1449717101002L
sg5
g51
sg7
S'MainActivity'
p437
sg9
S'0x20cf'
p438
sg11
S'V.getTag:null v.id:2131230738\n'
p439
sa(dp440
g2
S'8399'
p441
sg4
L1449717102139L
sg5
g51
sg7
S'jdwp    '
p442
sg9
S'0x20d5'
p443
sg11
S"Can't connect to ADB control socket:Connection refused\n"
p444
sa(dp445
g2
S'8434'
p446
sg4
L1449717102998L
sg5
g51
sg7
S'jdwp    '
p447
sg9
S'0x20f8'
p448
sg11
S"Can't connect to ADB control socket:Connection refused\n"
p449
sa(dp450
g2
S'8399'
p451
sg4
L1449717104139L
sg5
g51
sg7
S'jdwp    '
p452
sg9
S'0x20d5'
p453
sg11
S"Can't connect to ADB control socket:Connection refused\n"
p454
sa(dp455
g2
S'8434'
p456
sg4
L1449717104998L
sg5
g51
sg7
S'jdwp    '
p457
sg9
S'0x20f8'
p458
sg11
S"Can't connect to ADB control socket:Connection refused\n"
p459
sa(dp460
g2
S'8399'
p461
sg4
L1449717106122L
sg5
g51
sg7
S'MainActivity'
p462
sg9
S'0x20cf'
p463
sg11
S'V.getTag:null v.id:2131230734\n'
p464
sa(dp465
g2
S'8399'
p466
sg4
L1449717106140L
sg5
g51
sg7
S'jdwp    '
p467
sg9
S'0x20d5'
p468
sg11
S"Can't connect to ADB control socket:Connection refused\n"
p469
sa(dp470
g2
S'8434'
p471
sg4
L1449717106999L
sg5
g51
sg7
S'jdwp    '
p472
sg9
S'0x20f8'
p473
sg11
S"Can't connect to ADB control socket:Connection refused\n"
p474
sa(dp475
g2
S'8399'
p476
sg4
L1449717108140L
sg5
g51
sg7
S'jdwp    '
p477
sg9
S'0x20d5'
p478
sg11
S"Can't connect to ADB control socket:Connection refused\n"
p479
sa(dp480
g2
S'8399'
p481
sg4
L1449717108301L
sg5
g51
sg7
S'MainActivity'
p482
sg9
S'0x20cf'
p483
sg11
S'V.getTag:null v.id:2131230736\n'
p484
sa(dp485
g2
S'8434'
p486
sg4
L1449717109000L
sg5
g51
sg7
S'jdwp    '
p487
sg9
S'0x20f8'
p488
sg11
S"Can't connect to ADB control socket:Connection refused\n"
p489
sa(dp490
g2
S'8399'
p491
sg4
L1449717109222L
sg5
g51
sg7
S'MainActivity'
p492
sg9
S'0x20cf'
p493
sg11
S'V.getTag:null v.id:2131230738\n'
p494
sa(dp495
g2
S'8399'
p496
sg4
L1449717110141L
sg5
g51
sg7
S'jdwp    '
p497
sg9
S'0x20d5'
p498
sg11
S"Can't connect to ADB control socket:Connection refused\n"
p499
sa(dp500
g2
S'8399'
p501
sg4
L1449717110264L
sg5
g51
sg7
S'MainActivity'
p502
sg9
S'0x20cf'
p503
sg11
S'V.getTag:null v.id:2131230740\n'
p504
sa(dp505
g2
S'8434'
p506
sg4
L1449717111000L
sg5
g51
sg7
S'jdwp    '
p507
sg9
S'0x20f8'
p508
sg11
S"Can't connect to ADB control socket:Connection refused\n"
p509
sa(dp510
g2
S'8399'
p511
sg4
L1449717112141L
sg5
g51
sg7
S'jdwp    '
p512
sg9
S'0x20d5'
p513
sg11
S"Can't connect to ADB control socket:Connection refused\n"
p514
sa(dp515
g2
S'8434'
p516
sg4
L1449717113002L
sg5
g51
sg7
S'jdwp    '
p517
sg9
S'0x20f8'
p518
sg11
S"Can't connect to ADB control socket:Connection refused\n"
p519
sa(dp520
g2
S'8399'
p521
sg4
L1449717114141L
sg5
g51
sg7
S'jdwp    '
p522
sg9
S'0x20d5'
p523
sg11
S"Can't connect to ADB control socket:Connection refused\n"
p524
sa(dp525
g2
S'8434'
p526
sg4
L1449717115002L
sg5
g51
sg7
S'jdwp    '
p527
sg9
S'0x20f8'
p528
sg11
S"Can't connect to ADB control socket:Connection refused\n"
p529
sa(dp530
g2
S'8399'
p531
sg4
L1449717116142L
sg5
g51
sg7
S'jdwp    '
p532
sg9
S'0x20d5'
p533
sg11
S"Can't connect to ADB control socket:Connection refused\n"
p534
sa(dp535
g2
S'8434'
p536
sg4
L1449717117003L
sg5
g51
sg7
S'jdwp    '
p537
sg9
S'0x20f8'
p538
sg11
S"Can't connect to ADB control socket:Connection refused\n"
p539
sa(dp540
g2
S'8399'
p541
sg4
L1449717118142L
sg5
g51
sg7
S'jdwp    '
p542
sg9
S'0x20d5'
p543
sg11
S"Can't connect to ADB control socket:Connection refused\n"
p544
sa(dp545
g2
S'8399'
p546
sg4
L1449717118951L
sg5
g51
sg7
S'PopupWindow'
p547
sg9
S'0x20cf'
p548
sg11
S'invokePopup: mPopupView = android.widget.Editor$InsertionHandleView{44b20f98 V.ED.... ........ 0,0-0,0}, WindowManager.LayoutParams = WM.LayoutParams{(430,611)(0x0) gr=#800033 sim=#1 ty=1002 fl=#800208 fmt=-3 wanim=0x1030243 flagsEx=10007f}\n'
p549
sa(dp550
g2
S'8434'
p551
sg4
L1449717119007L
sg5
g51
sg7
S'jdwp    '
p552
sg9
S'0x20f8'
p553
sg11
S"Can't connect to ADB control socket:Connection refused\n"
p554
sa(dp555
g2
S'8399'
p556
sg4
L1449717120143L
sg5
g51
sg7
S'jdwp    '
p557
sg9
S'0x20d5'
p558
sg11
S"Can't connect to ADB control socket:Connection refused\n"
p559
sa(dp560
g2
S'8434'
p561
sg4
L1449717121008L
sg5
g51
sg7
S'jdwp    '
p562
sg9
S'0x20f8'
p563
sg11
S"Can't connect to ADB control socket:Connection refused\n"
p564
sa(dp565
g2
S'8399'
p566
sg4
L1449717122144L
sg5
g51
sg7
S'jdwp    '
p567
sg9
S'0x20d5'
p568
sg11
S"Can't connect to ADB control socket:Connection refused\n"
p569
sa(dp570
g2
S'8434'
p571
sg4
L1449717123008L
sg5
g51
sg7
S'jdwp    '
p572
sg9
S'0x20f8'
p573
sg11
S"Can't connect to ADB control socket:Connection refused\n"
p574
sa(dp575
g2
S'8399'
p576
sg4
L1449717124144L
sg5
g51
sg7
S'jdwp    '
p577
sg9
S'0x20d5'
p578
sg11
S"Can't connect to ADB control socket:Connection refused\n"
p579
sa(dp580
g2
S'8434'
p581
sg4
L1449717125011L
sg5
g51
sg7
S'jdwp    '
p582
sg9
S'0x20f8'
p583
sg11
S"Can't connect to ADB control socket:Connection refused\n"
p584
sa(dp585
g2
S'8399'
p586
sg4
L1449717126144L
sg5
g51
sg7
S'jdwp    '
p587
sg9
S'0x20d5'
p588
sg11
S"Can't connect to ADB control socket:Connection refused\n"
p589
sa(dp590
g2
S'8434'
p591
sg4
L1449717127012L
sg5
g51
sg7
S'jdwp    '
p592
sg9
S'0x20f8'
p593
sg11
S"Can't connect to ADB control socket:Connection refused\n"
p594
sa(dp595
g2
S'8399'
p596
sg4
L1449717128146L
sg5
g51
sg7
S'jdwp    '
p597
sg9
S'0x20d5'
p598
sg11
S"Can't connect to ADB control socket:Connection refused\n"
p599
sa(dp600
g2
S'8434'
p601
sg4
L1449717129013L
sg5
g51
sg7
S'jdwp    '
p602
sg9
S'0x20f8'
p603
sg11
S"Can't connect to ADB control socket:Connection refused\n"
p604
sa(dp605
g2
S'8399'
p606
sg4
L1449717130148L
sg5
g51
sg7
S'jdwp    '
p607
sg9
S'0x20d5'
p608
sg11
S"Can't connect to ADB control socket:Connection refused\n"
p609
sa(dp610
g2
S'8434'
p611
sg4
L1449717131013L
sg5
g51
sg7
S'jdwp    '
p612
sg9
S'0x20f8'
p613
sg11
S"Can't connect to ADB control socket:Connection refused\n"
p614
sa(dp615
g2
S'8399'
p616
sg4
L1449717132149L
sg5
g51
sg7
S'jdwp    '
p617
sg9
S'0x20d5'
p618
sg11
S"Can't connect to ADB control socket:Connection refused\n"
p619
sa(dp620
g2
S'8399'
p621
sg4
L1449717132605L
sg5
g51
sg7
S'cn.edu.nju.ise.kikandroid'
p622
sg9
S'0x210f'
p623
sg11
S'Screenshot:1449717132020\n'
p624
sa(dp625
g2
S'8434'
p626
sg4
L1449717133014L
sg5
g51
sg7
S'jdwp    '
p627
sg9
S'0x20f8'
p628
sg11
S"Can't connect to ADB control socket:Connection refused\n"
p629
sa(dp630
g2
S'8399'
p631
sg4
L1449717134149L
sg5
g51
sg7
S'jdwp    '
p632
sg9
S'0x20d5'
p633
sg11
S"Can't connect to ADB control socket:Connection refused\n"
p634
sa(dp635
g2
S'8399'
p636
sg4
L1449717134491L
sg5
g51
sg7
S'MainActivity'
p637
sg9
S'0x20cf'
p638
sg11
S'V.getTag:null v.id:2131230738\n'
p639
sa(dp640
g2
S'8434'
p641
sg4
L1449717135001L
sg5
g51
sg7
S'ForegroundActivity'
p642
sg9
S'0x2105'
p643
sg11
S'\xe6\x9c\xac\xe6\xac\xa1\xe5\x8f\x91\xe9\x80\x81\xe5\xb8\xa7\xe9\x95\xbf:13\t\xe6\x80\xbb\xe5\xb8\xa7\xe9\x95\xbf:70\n'
p644
sa(dp645
g2
S'8434'
p646
sg4
L1449717135015L
sg5
g51
sg7
S'jdwp    '
p647
sg9
S'0x20f8'
p648
sg11
S"Can't connect to ADB control socket:Connection refused\n"
p649
sa(dp650
g2
S'8434'
p651
sg4
L1449717135100L
sg5
g51
sg7
S'ForegroundActivity'
p652
sg9
S'0x210b'
p653
sg11
S'\xe6\x9c\xac\xe6\xac\xa1\xe6\x94\xb6\xe5\x88\xb0\xe5\xb8\xa7\xe9\x95\xbf:13\t\xe6\x80\xbb\xe5\xb8\xa7\xe9\x95\xbf:735\n'
p654
sa(dp655
g2
S'8434'
p656
sg4
L1449717135424L
sg5
g51
sg7
S'SocketService1'
p657
sg9
S'0x2107'
p658
sg11
S'\xe6\x9c\xac\xe6\xac\xa1\xe6\x8f\x90\xe5\x8f\x961:LoadPtr:735 HeadIndex:722 GetSize:13 13 0 \xe5\xa4\xb4\xe4\xbf\xa1\xe6\x81\xaf:EB 90 EB 90 EB 90 0D 00 10 01 \n'
p659
sa(dp660
g2
S'8399'
p661
sg4
L1449717136150L
sg5
g51
sg7
S'jdwp    '
p662
sg9
S'0x20d5'
p663
sg11
S"Can't connect to ADB control socket:Connection refused\n"
p664
sa(dp665
g2
S'8434'
p666
sg4
L1449717137016L
sg5
g51
sg7
S'jdwp    '
p667
sg9
S'0x20f8'
p668
sg11
S"Can't connect to ADB control socket:Connection refused\n"
p669
sa(dp670
g2
S'8399'
p671
sg4
L1449717138150L
sg5
g51
sg7
S'jdwp    '
p672
sg9
S'0x20d5'
p673
sg11
S"Can't connect to ADB control socket:Connection refused\n"
p674
sa(dp675
g2
S'8399'
p676
sg4
L1449717138498L
sg5
g51
sg7
S'cn.edu.nju.ise.kikandroid'
p677
sg9
S'0x210f'
p678
sg11
S'Screenshot:1449717138081\n'
p679
sa(dp680
g2
S'8434'
p681
sg4
L1449717139017L
sg5
g51
sg7
S'jdwp    '
p682
sg9
S'0x20f8'
p683
sg11
S"Can't connect to ADB control socket:Connection refused\n"
p684
sa(dp685
g2
S'8399'
p686
sg4
L1449717139378L
sg5
g51
sg7
S'MainActivity'
p687
sg9
S'0x20cf'
p688
sg11
S'V.getTag:null v.id:2131230736\n'
p689
sa(dp690
g2
S'8399'
p691
sg4
L1449717140151L
sg5
g51
sg7
S'jdwp    '
p692
sg9
S'0x20d5'
p693
sg11
S"Can't connect to ADB control socket:Connection refused\n"
p694
sa(dp695
g2
S'8434'
p696
sg4
L1449717141019L
sg5
g51
sg7
S'jdwp    '
p697
sg9
S'0x20f8'
p698
sg11
S"Can't connect to ADB control socket:Connection refused\n"
p699
sa(dp700
g2
S'8399'
p701
sg4
L1449717141462L
sg5
g51
sg7
S'cn.edu.nju.ise.kikandroid'
p702
sg9
S'0x210f'
p703
sg11
S'Screenshot:1449717141005\n'
p704
sa(dp705
g2
S'8399'
p706
sg4
L1449717142151L
sg5
g51
sg7
S'jdwp    '
p707
sg9
S'0x20d5'
p708
sg11
S"Can't connect to ADB control socket:Connection refused\n"
p709
sa(dp710
g2
S'8399'
p711
sg4
L1449717142231L
sg5
g51
sg7
S'MainActivity'
p712
sg9
S'0x20cf'
p713
sg11
S'V.getTag:null v.id:2131230734\n'
p714
sa(dp715
g2
S'8434'
p716
sg4
L1449717143020L
sg5
g51
sg7
S'jdwp    '
p717
sg9
S'0x20f8'
p718
sg11
S"Can't connect to ADB control socket:Connection refused\n"
p719
sa(dp720
g2
S'8399'
p721
sg4
L1449717144152L
sg5
g51
sg7
S'jdwp    '
p722
sg9
S'0x20d5'
p723
sg11
S"Can't connect to ADB control socket:Connection refused\n"
p724
sa(dp725
g2
S'8399'
p726
sg4
L1449717144236L
sg5
g51
sg7
S'cn.edu.nju.ise.kikandroid'
p727
sg9
S'0x210f'
p728
sg11
S'Screenshot:1449717143785\n'
p729
sa(dp730
g2
S'8434'
p731
sg4
L1449717145021L
sg5
g51
sg7
S'jdwp    '
p732
sg9
S'0x20f8'
p733
sg11
S"Can't connect to ADB control socket:Connection refused\n"
p734
sa(dp735
g2
S'8399'
p736
sg4
L1449717146152L
sg5
g51
sg7
S'jdwp    '
p737
sg9
S'0x20d5'
p738
sg11
S"Can't connect to ADB control socket:Connection refused\n"
p739
sa(dp740
g2
S'8434'
p741
sg4
L1449717147021L
sg5
g51
sg7
S'jdwp    '
p742
sg9
S'0x20f8'
p743
sg11
S"Can't connect to ADB control socket:Connection refused\n"
p744
sa(dp745
g2
S'8399'
p746
sg4
L1449717148152L
sg5
g51
sg7
S'jdwp    '
p747
sg9
S'0x20d5'
p748
sg11
S"Can't connect to ADB control socket:Connection refused\n"
p749
sa(dp750
g2
S'8434'
p751
sg4
L1449717149022L
sg5
g51
sg7
S'jdwp    '
p752
sg9
S'0x20f8'
p753
sg11
S"Can't connect to ADB control socket:Connection refused\n"
p754
sa(dp755
g2
S'8399'
p756
sg4
L1449717150153L
sg5
g51
sg7
S'jdwp    '
p757
sg9
S'0x20d5'
p758
sg11
S"Can't connect to ADB control socket:Connection refused\n"
p759
sa(dp760
g2
S'8434'
p761
sg4
L1449717151023L
sg5
g51
sg7
S'jdwp    '
p762
sg9
S'0x20f8'
p763
sg11
S"Can't connect to ADB control socket:Connection refused\n"
p764
sa(dp765
g2
S'8399'
p766
sg4
L1449717152153L
sg5
g51
sg7
S'jdwp    '
p767
sg9
S'0x20d5'
p768
sg11
S"Can't connect to ADB control socket:Connection refused\n"
p769
sa(dp770
g2
S'8399'
p771
sg4
L1449717152657L
sg5
g51
sg7
S'cn.edu.nju.ise.kikandroid'
p772
sg9
S'0x210f'
p773
sg11
S'Log:1449717152657\n'
p774
sa(dp775
g2
S'8434'
p776
sg4
L1449717153023L
sg5
g51
sg7
S'jdwp    '
p777
sg9
S'0x20f8'
p778
sg11
S"Can't connect to ADB control socket:Connection refused\n"
p779
sa(dp780
g2
S'8399'
p781
sg4
L1449717154154L
sg5
g51
sg7
S'jdwp    '
p782
sg9
S'0x20d5'
p783
sg11
S"Can't connect to ADB control socket:Connection refused\n"
p784
sa(dp785
g2
S'8434'
p786
sg4
L1449717155024L
sg5
g51
sg7
S'jdwp    '
p787
sg9
S'0x20f8'
p788
sg11
S"Can't connect to ADB control socket:Connection refused\n"
p789
sa(dp790
g2
S'8399'
p791
sg4
L1449717155831L
sg5
g51
sg7
S'cn.edu.nju.ise.kikandroid'
p792
sg9
S'0x210f'
p793
sg11
S'Log:1449717155830\n'
p794
sa(dp795
g2
S'8399'
p796
sg4
L1449717156154L
sg5
g51
sg7
S'jdwp    '
p797
sg9
S'0x20d5'
p798
sg11
S"Can't connect to ADB control socket:Connection refused\n"
p799
sa(dp800
g2
S'8399'
p801
sg4
L1449717156448L
sg5
g51
sg7
S'cn.edu.nju.ise.kikandroid'
p802
sg9
S'0x210f'
p803
sg11
S'Screenshot:1449717155892\n'
p804
sa(dp805
g2
S'8399'
p806
sg4
L1449717156450L
sg5
g6
sg7
S'AndroidRuntime'
p807
sg9
S'0x210f'
p808
sg11
S'FATAL EXCEPTION: Thread-1464\nProcess: com.example.myfristandroid, PID: 8399\njava.lang.NullPointerException\n\tat android.app.Instrumentation.finish(Instrumentation.java:190)\n\tat cn.edu.nju.ise.kikandroid.AUTInstrument.quitInstr(AUTInstrument.java:195)\n\tat cn.edu.nju.ise.kikandroid.AUTInstrument.startServer(AUTInstrument.java:161)\n\tat cn.edu.nju.ise.kikandroid.AUTInstrument$1.run(AUTInstrument.java:107)\n\tat java.lang.Thread.run(Thread.java:841)\n'
p809
sa.