(lp0
(dp1
S'processID'
p2
S'11087'
p3
sS'SyscTime'
p4
L1449638999153L
sS'priority'
p5
S'W'
p6
sS'tag'
p7
S'IInputConnectionWrapper'
p8
sS'threadID'
p9
S'11087'
p10
sS'message'
p11
S'performPrivateCommand on inactive InputConnection\n'
p12
sa(dp13
g2
S'11087'
p14
sg4
L1449639025483L
sg5
g6
sg7
S'IInputConnectionWrapper'
p15
sg9
S'11087'
p16
sg11
S'performPrivateCommand on inactive InputConnection\n'
p17
sa(dp18
g2
S'11087'
p19
sg4
L1449639086433L
sg5
g6
sg7
S'dalvikvm'
p20
sg9
S'11187'
p21
sg11
S'threadid=14: thread exiting with uncaught exception (group=0x417b7940)\n'
p22
sa(dp23
g2
S'11087'
p24
sg4
L1449639086443L
sg5
S'E'
p25
sg7
S'AndroidRuntime'
p26
sg9
S'11187'
p27
sg11
S'FATAL EXCEPTION: Thread-2556\njava.lang.NullPointerException\n\tat android.app.Instrumentation.finish(Instrumentation.java:190)\n\tat cn.edu.nju.ise.kikandroid.AUTInstrument.quitInstr(AUTInstrument.java:195)\n\tat cn.edu.nju.ise.kikandroid.AUTInstrument.startServer(AUTInstrument.java:161)\n\tat cn.edu.nju.ise.kikandroid.AUTInstrument$1.run(AUTInstrument.java:107)\n\tat java.lang.Thread.run(Thread.java:841)\n'
p28
sa(dp29
g2
S'20331'
p30
sg4
L1449639442043L
sg5
g6
sg7
S'IInputConnectionWrapper'
p31
sg9
S'20331'
p32
sg11
S'performPrivateCommand on inactive InputConnection\n'
p33
sa(dp34
g2
S'20331'
p35
sg4
L1449639453173L
sg5
g6
sg7
S'dalvikvm'
p36
sg9
S'20404'
p37
sg11
S'threadid=14: thread exiting with uncaught exception (group=0x417b7940)\n'
p38
sa(dp39
g2
S'20331'
p40
sg4
L1449639453173L
sg5
g25
sg7
S'AndroidRuntime'
p41
sg9
S'20404'
p42
sg11
S'FATAL EXCEPTION: Thread-2958\njava.lang.NullPointerException\n\tat android.app.Instrumentation.finish(Instrumentation.java:190)\n\tat cn.edu.nju.ise.kikandroid.AUTInstrument.quitInstr(AUTInstrument.java:195)\n\tat cn.edu.nju.ise.kikandroid.AUTInstrument.startServer(AUTInstrument.java:161)\n\tat cn.edu.nju.ise.kikandroid.AUTInstrument$1.run(AUTInstrument.java:107)\n\tat java.lang.Thread.run(Thread.java:841)\n'
p43
sa.