(lp0
(dp1
S'EventTime'
p2
S'91491784'
p3
sS'SyscTime'
p4
L1449727672673L
sS'recordCount'
p5
S'0'
p6
sS'EventType'
p7
S'TYPE_WINDOW_CONTENT_CHANGED'
p8
sS'PackageName'
p9
S'com.xdf.ucan'
p10
sS'Action'
p11
S'[ ClassName: android.widget.FrameLayout; Text: []; ContentDescription: null; ItemCount: -1; CurrentItemIndex: -1; IsEnabled: true; IsPassword: false; IsChecked: false; IsFullScreen: false; Scrollable: false; BeforeText: null; FromIndex: -1; ToIndex: -1; ScrollX: -1; ScrollY: -1; MaxScrollX: -1; MaxScrollY: -1; AddedCount: -1; RemovedCount: -1; ParcelableData: null ]'
p12
sS'MovementGranularity'
p13
g6
sa(dp14
S'EventTime'
p15
S'91492286'
p16
sg4
L1449727673180L
sS'recordCount'
p17
g6
sS'EventType'
p18
S'TYPE_WINDOW_STATE_CHANGED'
p19
sS'PackageName'
p20
S'com.xdf.ucan'
p21
sS'OutBounds'
p22
S'Rect(0, 0 - 1080, 1803)'
p23
sS'Action'
p24
S'[ ClassName: com.xdf.ucan.ui.login.StartActivity; Text: [\xe4\xbc\x98\xe6\x92\xad\xe8\xaf\xbe]; ContentDescription: null; ItemCount: -1; CurrentItemIndex: -1; IsEnabled: true; IsPassword: false; IsChecked: false; IsFullScreen: true; Scrollable: false; BeforeText: null; FromIndex: -1; ToIndex: -1; ScrollX: -1; ScrollY: -1; MaxScrollX: -1; MaxScrollY: -1; AddedCount: -1; RemovedCount: -1; ParcelableData: null ]'
p25
sS'MovementGranularity'
p26
g6
sa(dp27
S'EventTime'
p28
S'91492352'
p29
sg4
L1449727673258L
sS'recordCount'
p30
g6
sS'EventType'
p31
S'TYPE_WINDOW_CONTENT_CHANGED'
p32
sS'PackageName'
p33
S'com.xdf.ucan'
p34
sS'OutBounds'
p35
S'Rect(0, 0 - 1080, 1803)'
p36
sS'Action'
p37
S'[ ClassName: android.widget.FrameLayout; Text: []; ContentDescription: null; ItemCount: -1; CurrentItemIndex: -1; IsEnabled: true; IsPassword: false; IsChecked: false; IsFullScreen: false; Scrollable: false; BeforeText: null; FromIndex: -1; ToIndex: -1; ScrollX: -1; ScrollY: -1; MaxScrollX: -1; MaxScrollY: -1; AddedCount: -1; RemovedCount: -1; ParcelableData: null ]'
p38
sS'MovementGranularity'
p39
g6
sa(dp40
S'EventTime'
p41
S'91496865'
p42
sg4
L1449727677792L
sS'recordCount'
p43
g6
sS'EventType'
p44
S'TYPE_WINDOW_STATE_CHANGED'
p45
sS'PackageName'
p46
S'com.xdf.ucan'
p47
sS'OutBounds'
p48
S'Rect(0, 0 - 1080, 1803)'
p49
sS'Action'
p50
S'[ ClassName: com.xdf.ucan.MainActivity; Text: [\xe4\xbc\x98\xe6\x92\xad\xe8\xaf\xbe]; ContentDescription: null; ItemCount: -1; CurrentItemIndex: -1; IsEnabled: true; IsPassword: false; IsChecked: false; IsFullScreen: true; Scrollable: false; BeforeText: null; FromIndex: -1; ToIndex: -1; ScrollX: -1; ScrollY: -1; MaxScrollX: -1; MaxScrollY: -1; AddedCount: -1; RemovedCount: -1; ParcelableData: null ]'
p51
sS'MovementGranularity'
p52
g6
sa(dp53
S'EventTime'
p54
S'91496909'
p55
sg4
L1449727677820L
sS'recordCount'
p56
g6
sS'EventType'
p57
S'TYPE_WINDOW_CONTENT_CHANGED'
p58
sS'PackageName'
p59
S'com.xdf.ucan'
p60
sS'OutBounds'
p61
S'Rect(850, 822 - 1032, 870)'
p62
sS'Action'
p63
S'[ ClassName: android.widget.TextView; Text: []; ContentDescription: null; ItemCount: -1; CurrentItemIndex: -1; IsEnabled: true; IsPassword: false; IsChecked: false; IsFullScreen: false; Scrollable: false; BeforeText: null; FromIndex: -1; ToIndex: -1; ScrollX: -1; ScrollY: -1; MaxScrollX: -1; MaxScrollY: -1; AddedCount: -1; RemovedCount: -1; ParcelableData: null ]'
p64
sS'MovementGranularity'
p65
g6
sa(dp66
S'EventTime'
p67
S'91498796'
p68
sg4
L1449727679692L
sS'recordCount'
p69
g6
sS'EventType'
p70
S'TYPE_WINDOW_CONTENT_CHANGED'
p71
sS'PackageName'
p72
S'com.xdf.ucan'
p73
sS'OutBounds'
p74
S'Rect(0, 1662 - 360, 1803)'
p75
sS'Action'
p76
S'[ ClassName: android.widget.RelativeLayout; Text: []; ContentDescription: null; ItemCount: -1; CurrentItemIndex: -1; IsEnabled: true; IsPassword: false; IsChecked: false; IsFullScreen: false; Scrollable: false; BeforeText: null; FromIndex: -1; ToIndex: -1; ScrollX: -1; ScrollY: -1; MaxScrollX: -1; MaxScrollY: -1; AddedCount: -1; RemovedCount: -1; ParcelableData: null ]'
p77
sS'MovementGranularity'
p78
g6
sa(dp79
S'EventTime'
p80
S'91498799'
p81
sg4
L1449727679709L
sS'recordCount'
p82
g6
sS'EventType'
p83
S'TYPE_VIEW_SELECTED'
p84
sS'PackageName'
p85
S'com.xdf.ucan'
p86
sS'OutBounds'
p87
S'Rect(0, 1662 - 1080, 1803)'
p88
sS'Action'
p89
S'[ ClassName: android.widget.TabWidget; Text: [\xe6\x88\x91]; ContentDescription: null; ItemCount: 3; CurrentItemIndex: 2; IsEnabled: true; IsPassword: false; IsChecked: false; IsFullScreen: false; Scrollable: false; BeforeText: null; FromIndex: -1; ToIndex: -1; ScrollX: -1; ScrollY: -1; MaxScrollX: -1; MaxScrollY: -1; AddedCount: -1; RemovedCount: -1; ParcelableData: null ]'
p90
sS'MovementGranularity'
p91
g6
sa(dp92
S'EventTime'
p93
S'91498800'
p94
sg4
L1449727679720L
sS'recordCount'
p95
g6
sS'EventType'
p96
S'TYPE_VIEW_CLICKED'
p97
sS'PackageName'
p98
S'com.xdf.ucan'
p99
sS'OutBounds'
p100
S'Rect(720, 1662 - 1080, 1803)'
p101
sS'Action'
p102
S'[ ClassName: android.widget.RelativeLayout; Text: [\xe6\x88\x91]; ContentDescription: null; ItemCount: -1; CurrentItemIndex: -1; IsEnabled: true; IsPassword: false; IsChecked: false; IsFullScreen: false; Scrollable: false; BeforeText: null; FromIndex: -1; ToIndex: -1; ScrollX: -1; ScrollY: -1; MaxScrollX: -1; MaxScrollY: -1; AddedCount: -1; RemovedCount: -1; ParcelableData: null ]'
p103
sS'MovementGranularity'
p104
g6
sa(dp105
S'EventTime'
p106
S'91498997'
p107
sg4
L1449727679885L
sS'recordCount'
p108
g6
sS'EventType'
p109
S'TYPE_WINDOW_CONTENT_CHANGED'
p110
sS'PackageName'
p111
S'com.xdf.ucan'
p112
sS'OutBounds'
p113
S'Rect(120, 1107 - 194, 1156)'
p114
sS'Action'
p115
S'[ ClassName: android.widget.TextView; Text: []; ContentDescription: null; ItemCount: -1; CurrentItemIndex: -1; IsEnabled: true; IsPassword: false; IsChecked: false; IsFullScreen: false; Scrollable: false; BeforeText: null; FromIndex: -1; ToIndex: -1; ScrollX: -1; ScrollY: -1; MaxScrollX: -1; MaxScrollY: -1; AddedCount: -1; RemovedCount: -1; ParcelableData: null ]'
p116
sS'MovementGranularity'
p117
g6
sa(dp118
S'EventTime'
p119
S'91503192'
p120
sg4
L1449727684081L
sS'recordCount'
p121
g6
sS'EventType'
p122
S'TYPE_WINDOW_CONTENT_CHANGED'
p123
sS'PackageName'
p124
S'com.xdf.ucan'
p125
sS'OutBounds'
p126
S'Rect(720, 1663 - 1080, 1803)'
p127
sS'Action'
p128
S'[ ClassName: android.widget.RelativeLayout; Text: []; ContentDescription: null; ItemCount: -1; CurrentItemIndex: -1; IsEnabled: true; IsPassword: false; IsChecked: false; IsFullScreen: false; Scrollable: false; BeforeText: null; FromIndex: -1; ToIndex: -1; ScrollX: -1; ScrollY: -1; MaxScrollX: -1; MaxScrollY: -1; AddedCount: -1; RemovedCount: -1; ParcelableData: null ]'
p129
sS'MovementGranularity'
p130
g6
sa(dp131
S'EventTime'
p132
S'91503193'
p133
sg4
L1449727684090L
sS'recordCount'
p134
g6
sS'EventType'
p135
S'TYPE_VIEW_SELECTED'
p136
sS'PackageName'
p137
S'com.xdf.ucan'
p138
sS'OutBounds'
p139
S'Rect(0, 1663 - 1080, 1803)'
p140
sS'Action'
p141
S'[ ClassName: android.widget.TabWidget; Text: [\xe5\xad\xa6\xe4\xb9\xa0]; ContentDescription: null; ItemCount: 3; CurrentItemIndex: 0; IsEnabled: true; IsPassword: false; IsChecked: false; IsFullScreen: false; Scrollable: false; BeforeText: null; FromIndex: -1; ToIndex: -1; ScrollX: -1; ScrollY: -1; MaxScrollX: -1; MaxScrollY: -1; AddedCount: -1; RemovedCount: -1; ParcelableData: null ]'
p142
sS'MovementGranularity'
p143
g6
sa(dp144
S'EventTime'
p145
S'91503194'
p146
sg4
L1449727684099L
sS'recordCount'
p147
g6
sS'EventType'
p148
S'TYPE_VIEW_CLICKED'
p149
sS'PackageName'
p150
S'com.xdf.ucan'
p151
sS'OutBounds'
p152
S'Rect(0, 1663 - 360, 1803)'
p153
sS'Action'
p154
S'[ ClassName: android.widget.RelativeLayout; Text: [\xe5\xad\xa6\xe4\xb9\xa0]; ContentDescription: null; ItemCount: -1; CurrentItemIndex: -1; IsEnabled: true; IsPassword: false; IsChecked: false; IsFullScreen: false; Scrollable: false; BeforeText: null; FromIndex: -1; ToIndex: -1; ScrollX: -1; ScrollY: -1; MaxScrollX: -1; MaxScrollY: -1; AddedCount: -1; RemovedCount: -1; ParcelableData: null ]'
p155
sS'MovementGranularity'
p156
g6
sa(dp157
S'EventTime'
p158
S'91503368'
p159
sg4
L1449727684258L
sS'recordCount'
p160
g6
sS'EventType'
p161
S'TYPE_WINDOW_CONTENT_CHANGED'
p162
sS'PackageName'
p163
S'com.xdf.ucan'
p164
sS'OutBounds'
p165
S'Rect(850, 822 - 1032, 870)'
p166
sS'Action'
p167
S'[ ClassName: android.widget.TextView; Text: []; ContentDescription: null; ItemCount: -1; CurrentItemIndex: -1; IsEnabled: true; IsPassword: false; IsChecked: false; IsFullScreen: false; Scrollable: false; BeforeText: null; FromIndex: -1; ToIndex: -1; ScrollX: -1; ScrollY: -1; MaxScrollX: -1; MaxScrollY: -1; AddedCount: -1; RemovedCount: -1; ParcelableData: null ]'
p168
sS'MovementGranularity'
p169
g6
sa.