(lp0
(dp1
S'EventTime'
p2
S'82338392'
p3
sS'SyscTime'
p4
L1449715329426L
sS'recordCount'
p5
S'0'
p6
sS'EventType'
p7
S'TYPE_WINDOW_CONTENT_CHANGED'
p8
sS'PackageName'
p9
S'com.example.myfristandroid'
p10
sS'Action'
p11
S'[ ClassName: android.widget.LinearLayout; Text: []; ContentDescription: SE-1800\xe7\xa7\xbb\xe5\x8a\xa8APP\xef\xbc\x9a\xe5\xaf\xbc\xe8\x88\xaa\xe9\xa6\x96\xe9\xa1\xb5; ItemCount: -1; CurrentItemIndex: -1; IsEnabled: true; IsPassword: false; IsChecked: false; IsFullScreen: false; Scrollable: false; BeforeText: null; FromIndex: -1; ToIndex: -1; ScrollX: -1; ScrollY: -1; MaxScrollX: -1; MaxScrollY: -1; AddedCount: -1; RemovedCount: -1; ParcelableData: null ]'
p12
sS'MovementGranularity'
p13
g6
sa(dp14
S'EventTime'
p15
S'82338729'
p16
sg4
L1449715330077L
sS'recordCount'
p17
g6
sS'EventType'
p18
S'TYPE_WINDOW_STATE_CHANGED'
p19
sS'PackageName'
p20
S'com.example.myfristandroid'
p21
sS'OutBounds'
p22
S'Rect(0, 0 - 1080, 1803)'
p23
sS'Action'
p24
S'[ ClassName: com.example.myfristandroid.SplashActivity; Text: [SE-1800\xe7\xa7\xbb\xe5\x8a\xa8APP]; ContentDescription: null; ItemCount: -1; CurrentItemIndex: -1; IsEnabled: true; IsPassword: false; IsChecked: false; IsFullScreen: true; Scrollable: false; BeforeText: null; FromIndex: -1; ToIndex: -1; ScrollX: -1; ScrollY: -1; MaxScrollX: -1; MaxScrollY: -1; AddedCount: -1; RemovedCount: -1; ParcelableData: null ]'
p25
sS'MovementGranularity'
p26
g6
sa(dp27
S'EventTime'
p28
S'82339153'
p29
sg4
L1449715330175L
sS'recordCount'
p30
g6
sS'EventType'
p31
S'TYPE_WINDOW_CONTENT_CHANGED'
p32
sS'PackageName'
p33
S'com.example.myfristandroid'
p34
sS'OutBounds'
p35
S'Rect(0, 0 - 1080, 1803)'
p36
sS'Action'
p37
S'[ ClassName: android.widget.FrameLayout; Text: []; ContentDescription: null; ItemCount: -1; CurrentItemIndex: -1; IsEnabled: true; IsPassword: false; IsChecked: false; IsFullScreen: false; Scrollable: false; BeforeText: null; FromIndex: -1; ToIndex: -1; ScrollX: -1; ScrollY: -1; MaxScrollX: -1; MaxScrollY: -1; AddedCount: -1; RemovedCount: -1; ParcelableData: null ]'
p38
sS'MovementGranularity'
p39
g6
sa(dp40
S'EventTime'
p41
S'82341133'
p42
sg4
L1449715332191L
sS'recordCount'
p43
g6
sS'EventType'
p44
S'TYPE_WINDOW_STATE_CHANGED'
p45
sS'PackageName'
p46
S'com.example.myfristandroid'
p47
sS'OutBounds'
p48
S'Rect(0, 0 - 1080, 1803)'
p49
sS'Action'
p50
S'[ ClassName: com.example.myfristandroid.MainActivity; Text: [SE-1800\xe7\xa7\xbb\xe5\x8a\xa8APP]; ContentDescription: null; ItemCount: -1; CurrentItemIndex: -1; IsEnabled: true; IsPassword: false; IsChecked: false; IsFullScreen: true; Scrollable: false; BeforeText: null; FromIndex: -1; ToIndex: -1; ScrollX: -1; ScrollY: -1; MaxScrollX: -1; MaxScrollY: -1; AddedCount: -1; RemovedCount: -1; ParcelableData: null ]'
p51
sS'MovementGranularity'
p52
g6
sa(dp53
S'EventTime'
p54
S'82341213'
p55
sg4
L1449715332237L
sS'recordCount'
p56
g6
sS'EventType'
p57
S'TYPE_VIEW_SCROLLED'
p58
sS'PackageName'
p59
S'com.example.myfristandroid'
p60
sS'OutBounds'
p61
S'Rect(1098, 624 - 1080, 624)'
p62
sS'Action'
p63
S'[ ClassName: android.widget.ListView; Text: []; ContentDescription: null; ItemCount: 0; CurrentItemIndex: -1; IsEnabled: true; IsPassword: false; IsChecked: false; IsFullScreen: false; Scrollable: false; BeforeText: null; FromIndex: 0; ToIndex: -1; ScrollX: -1; ScrollY: -1; MaxScrollX: -1; MaxScrollY: -1; AddedCount: -1; RemovedCount: -1; ParcelableData: null ]'
p64
sS'MovementGranularity'
p65
g6
sa(dp66
S'EventTime'
p67
S'82341269'
p68
sg4
L1449715332291L
sS'recordCount'
p69
g6
sS'EventType'
p70
S'TYPE_WINDOW_CONTENT_CHANGED'
p71
sS'PackageName'
p72
S'com.example.myfristandroid'
p73
sS'OutBounds'
p74
S'Rect(0, 210 - 1080, 1638)'
p75
sS'Action'
p76
S'[ ClassName: android.widget.GridView; Text: []; ContentDescription: null; ItemCount: 9; CurrentItemIndex: -1; IsEnabled: true; IsPassword: false; IsChecked: false; IsFullScreen: false; Scrollable: false; BeforeText: null; FromIndex: 0; ToIndex: 8; ScrollX: -1; ScrollY: -1; MaxScrollX: -1; MaxScrollY: -1; AddedCount: -1; RemovedCount: -1; ParcelableData: null ]'
p77
sS'MovementGranularity'
p78
g6
sa(dp79
S'EventTime'
p80
S'82341741'
p81
sg4
L1449715332766L
sS'recordCount'
p82
g6
sS'EventType'
p83
S'TYPE_WINDOW_STATE_CHANGED'
p84
sS'PackageName'
p85
S'com.example.myfristandroid'
p86
sS'OutBounds'
p87
S'Rect(0, 0 - 1080, 1803)'
p88
sS'Action'
p89
S'[ ClassName: com.example.myfristandroid.HuzAlertDialog; Text: [\xe6\x8f\x90\xe7\xa4\xba, \xe7\x89\x88\xe6\x9c\xac\xe6\x9c\x89\xe6\x9b\xb4\xe6\x96\xb0\xef\xbc\x8c\xe6\x98\xaf\xe5\x90\xa6\xe9\x9c\x80\xe8\xa6\x81\xe6\x9b\xb4\xe6\x96\xb0, \xe7\xab\x8b\xe5\x8d\xb3\xe6\x9b\xb4\xe6\x96\xb0, \xe7\xa8\x8d\xe5\x90\x8e\xe6\x9b\xb4\xe6\x96\xb0]; ContentDescription: null; ItemCount: -1; CurrentItemIndex: -1; IsEnabled: true; IsPassword: false; IsChecked: false; IsFullScreen: true; Scrollable: false; BeforeText: null; FromIndex: -1; ToIndex: -1; ScrollX: -1; ScrollY: -1; MaxScrollX: -1; MaxScrollY: -1; AddedCount: -1; RemovedCount: -1; ParcelableData: null ]'
p90
sS'MovementGranularity'
p91
g6
sa(dp92
S'EventTime'
p93
S'82341804'
p94
sg4
L1449715332827L
sS'recordCount'
p95
g6
sS'EventType'
p96
S'TYPE_WINDOW_CONTENT_CHANGED'
p97
sS'PackageName'
p98
S'com.example.myfristandroid'
p99
sS'OutBounds'
p100
S'Rect(0, 0 - 1080, 1803)'
p101
sS'Action'
p102
S'[ ClassName: android.widget.FrameLayout; Text: []; ContentDescription: null; ItemCount: -1; CurrentItemIndex: -1; IsEnabled: true; IsPassword: false; IsChecked: false; IsFullScreen: false; Scrollable: false; BeforeText: null; FromIndex: -1; ToIndex: -1; ScrollX: -1; ScrollY: -1; MaxScrollX: -1; MaxScrollY: -1; AddedCount: -1; RemovedCount: -1; ParcelableData: null ]'
p103
sS'MovementGranularity'
p104
g6
sa(dp105
S'EventTime'
p106
S'82343394'
p107
sg4
L1449715334414L
sS'recordCount'
p108
g6
sS'EventType'
p109
S'TYPE_VIEW_CLICKED'
p110
sS'PackageName'
p111
S'com.example.myfristandroid'
p112
sS'Action'
p113
S'[ ClassName: android.widget.Button; Text: [\xe7\xa8\x8d\xe5\x90\x8e\xe6\x9b\xb4\xe6\x96\xb0]; ContentDescription: null; ItemCount: -1; CurrentItemIndex: -1; IsEnabled: true; IsPassword: false; IsChecked: false; IsFullScreen: false; Scrollable: false; BeforeText: null; FromIndex: -1; ToIndex: -1; ScrollX: -1; ScrollY: -1; MaxScrollX: -1; MaxScrollY: -1; AddedCount: -1; RemovedCount: -1; ParcelableData: null ]'
p114
sS'MovementGranularity'
p115
g6
sa(dp116
S'EventTime'
p117
S'82343442'
p118
sg4
L1449715334478L
sS'recordCount'
p119
g6
sS'EventType'
p120
S'TYPE_WINDOW_STATE_CHANGED'
p121
sS'PackageName'
p122
S'com.example.myfristandroid'
p123
sS'OutBounds'
p124
S'Rect(0, 0 - 1080, 1803)'
p125
sS'Action'
p126
S'[ ClassName: com.example.myfristandroid.MainActivity; Text: [SE-1800\xe7\xa7\xbb\xe5\x8a\xa8APP]; ContentDescription: null; ItemCount: -1; CurrentItemIndex: -1; IsEnabled: true; IsPassword: false; IsChecked: false; IsFullScreen: true; Scrollable: false; BeforeText: null; FromIndex: -1; ToIndex: -1; ScrollX: -1; ScrollY: -1; MaxScrollX: -1; MaxScrollY: -1; AddedCount: -1; RemovedCount: -1; ParcelableData: null ]'
p127
sS'MovementGranularity'
p128
g6
sa(dp129
S'EventTime'
p130
S'82429143'
p131
sg4
L1449715420177L
sS'recordCount'
p132
g6
sS'EventType'
p133
S'TYPE_WINDOW_STATE_CHANGED'
p134
sS'PackageName'
p135
S'com.example.myfristandroid'
p136
sS'OutBounds'
p137
S'Rect(0, 0 - 1080, 1803)'
p138
sS'Action'
p139
S'[ ClassName: com.example.myfristandroid.MainActivity; Text: [SE-1800\xe7\xa7\xbb\xe5\x8a\xa8APP]; ContentDescription: null; ItemCount: -1; CurrentItemIndex: -1; IsEnabled: true; IsPassword: false; IsChecked: false; IsFullScreen: true; Scrollable: false; BeforeText: null; FromIndex: -1; ToIndex: -1; ScrollX: -1; ScrollY: -1; MaxScrollX: -1; MaxScrollY: -1; AddedCount: -1; RemovedCount: -1; ParcelableData: null ]'
p140
sS'MovementGranularity'
p141
g6
sa(dp142
S'EventTime'
p143
S'82433636'
p144
sg4
L1449715424667L
sS'recordCount'
p145
g6
sS'EventType'
p146
S'TYPE_WINDOW_STATE_CHANGED'
p147
sS'PackageName'
p148
S'com.example.myfristandroid'
p149
sS'OutBounds'
p150
S'Rect(0, 0 - 1080, 1803)'
p151
sS'Action'
p152
S'[ ClassName: com.example.myfristandroid.MainActivity; Text: [SE-1800\xe7\xa7\xbb\xe5\x8a\xa8APP]; ContentDescription: null; ItemCount: -1; CurrentItemIndex: -1; IsEnabled: true; IsPassword: false; IsChecked: false; IsFullScreen: true; Scrollable: false; BeforeText: null; FromIndex: -1; ToIndex: -1; ScrollX: -1; ScrollY: -1; MaxScrollX: -1; MaxScrollY: -1; AddedCount: -1; RemovedCount: -1; ParcelableData: null ]'
p153
sS'MovementGranularity'
p154
g6
sa(dp155
S'EventTime'
p156
S'82445956'
p157
sg4
L1449715436985L
sS'recordCount'
p158
g6
sS'EventType'
p159
S'TYPE_WINDOW_STATE_CHANGED'
p160
sS'PackageName'
p161
S'com.example.myfristandroid'
p162
sS'OutBounds'
p163
S'Rect(0, 0 - 1080, 1803)'
p164
sS'Action'
p165
S'[ ClassName: com.example.myfristandroid.MainActivity; Text: [SE-1800\xe7\xa7\xbb\xe5\x8a\xa8APP]; ContentDescription: null; ItemCount: -1; CurrentItemIndex: -1; IsEnabled: true; IsPassword: false; IsChecked: false; IsFullScreen: true; Scrollable: false; BeforeText: null; FromIndex: -1; ToIndex: -1; ScrollX: -1; ScrollY: -1; MaxScrollX: -1; MaxScrollY: -1; AddedCount: -1; RemovedCount: -1; ParcelableData: null ]'
p166
sS'MovementGranularity'
p167
g6
sa(dp168
S'EventTime'
p169
S'82446629'
p170
sg4
L1449715437694L
sS'recordCount'
p171
g6
sS'EventType'
p172
S'TYPE_WINDOW_CONTENT_CHANGED'
p173
sS'PackageName'
p174
S'com.example.myfristandroid'
p175
sS'OutBounds'
p176
S'Rect(0, 210 - -1029, 210)'
p177
sS'Action'
p178
S'[ ClassName: android.widget.LinearLayout; Text: []; ContentDescription: null; ItemCount: -1; CurrentItemIndex: -1; IsEnabled: true; IsPassword: false; IsChecked: false; IsFullScreen: false; Scrollable: false; BeforeText: null; FromIndex: -1; ToIndex: -1; ScrollX: -1; ScrollY: -1; MaxScrollX: -1; MaxScrollY: -1; AddedCount: -1; RemovedCount: -1; ParcelableData: null ]'
p179
sS'MovementGranularity'
p180
g6
sa(dp181
S'EventTime'
p182
S'82446654'
p183
sg4
L1449715437722L
sS'recordCount'
p184
g6
sS'EventType'
p185
S'TYPE_VIEW_FOCUSED'
p186
sS'PackageName'
p187
S'com.example.myfristandroid'
p188
sS'OutBounds'
p189
S'Rect(11, 450 - 1073, 540)'
p190
sS'Action'
p191
S'[ ClassName: android.widget.EditText; Text: [\xe6\x90\x9c\xe7\xb4\xa2]; ContentDescription: null; ItemCount: 10; CurrentItemIndex: 4; IsEnabled: true; IsPassword: false; IsChecked: false; IsFullScreen: false; Scrollable: false; BeforeText: null; FromIndex: -1; ToIndex: -1; ScrollX: -1; ScrollY: -1; MaxScrollX: -1; MaxScrollY: -1; AddedCount: -1; RemovedCount: -1; ParcelableData: null ]'
p192
sS'MovementGranularity'
p193
g6
sa(dp194
S'EventTime'
p195
S'82446662'
p196
sg4
L1449715437738L
sS'recordCount'
p197
g6
sS'EventType'
p198
S'TYPE_VIEW_CLICKED'
p199
sS'PackageName'
p200
S'com.example.myfristandroid'
p201
sS'OutBounds'
p202
S'Rect(270, 1638 - 540, 1803)'
p203
sS'Action'
p204
S'[ ClassName: android.widget.LinearLayout; Text: [\xe6\x9f\xa5\xe7\x9c\x8b\xe5\xae\x9e\xe6\x97\xb6\xe6\x95\xb0\xe6\x8d\xae\xe4\xbf\xa1\xe6\x81\xaf, \xe6\x95\xb0\xe6\x8d\xae]; ContentDescription: null; ItemCount: -1; CurrentItemIndex: -1; IsEnabled: true; IsPassword: false; IsChecked: false; IsFullScreen: false; Scrollable: false; BeforeText: null; FromIndex: -1; ToIndex: -1; ScrollX: -1; ScrollY: -1; MaxScrollX: -1; MaxScrollY: -1; AddedCount: -1; RemovedCount: -1; ParcelableData: null ]'
p205
sS'MovementGranularity'
p206
g6
sa(dp207
S'EventTime'
p208
S'82446785'
p209
sg4
L1449715437838L
sS'recordCount'
p210
g6
sS'EventType'
p211
S'TYPE_VIEW_SCROLLED'
p212
sS'PackageName'
p213
S'com.example.myfristandroid'
p214
sS'OutBounds'
p215
S'Rect(0, 210 - 1080, 1638)'
p216
sS'Action'
p217
S'[ ClassName: android.support.v4.view.ViewPager; Text: []; ContentDescription: null; ItemCount: -1; CurrentItemIndex: -1; IsEnabled: true; IsPassword: false; IsChecked: false; IsFullScreen: false; Scrollable: false; BeforeText: null; FromIndex: -1; ToIndex: -1; ScrollX: -1; ScrollY: -1; MaxScrollX: -1; MaxScrollY: -1; AddedCount: -1; RemovedCount: -1; ParcelableData: null ]'
p218
sS'MovementGranularity'
p219
g6
sa(dp220
S'EventTime'
p221
S'82446922'
p222
sg4
L1449715437968L
sS'recordCount'
p223
g6
sS'EventType'
p224
S'TYPE_VIEW_SCROLLED'
p225
sS'PackageName'
p226
S'com.example.myfristandroid'
p227
sS'OutBounds'
p228
S'Rect(0, 210 - 1080, 1638)'
p229
sS'Action'
p230
S'[ ClassName: android.support.v4.view.ViewPager; Text: []; ContentDescription: null; ItemCount: -1; CurrentItemIndex: -1; IsEnabled: true; IsPassword: false; IsChecked: false; IsFullScreen: false; Scrollable: false; BeforeText: null; FromIndex: -1; ToIndex: -1; ScrollX: -1; ScrollY: -1; MaxScrollX: -1; MaxScrollY: -1; AddedCount: -1; RemovedCount: -1; ParcelableData: null ]'
p231
sS'MovementGranularity'
p232
g6
sa(dp233
S'EventTime'
p234
S'82459653'
p235
sg4
L1449715450710L
sS'recordCount'
p236
g6
sS'EventType'
p237
S'TYPE_WINDOW_CONTENT_CHANGED'
p238
sS'PackageName'
p239
S'com.example.myfristandroid'
p240
sS'OutBounds'
p241
S'Rect(0, 210 - 0, 818)'
p242
sS'Action'
p243
S'[ ClassName: android.widget.GridView; Text: []; ContentDescription: null; ItemCount: 9; CurrentItemIndex: -1; IsEnabled: true; IsPassword: false; IsChecked: false; IsFullScreen: false; Scrollable: false; BeforeText: null; FromIndex: 0; ToIndex: 8; ScrollX: -1; ScrollY: -1; MaxScrollX: -1; MaxScrollY: -1; AddedCount: -1; RemovedCount: -1; ParcelableData: null ]'
p244
sS'MovementGranularity'
p245
g6
sa(dp246
S'EventTime'
p247
S'82459777'
p248
sg4
L1449715450811L
sS'recordCount'
p249
g6
sS'EventType'
p250
S'TYPE_WINDOW_CONTENT_CHANGED'
p251
sS'PackageName'
p252
S'com.example.myfristandroid'
p253
sS'OutBounds'
p254
S'Rect(0, 210 - 0, 818)'
p255
sS'Action'
p256
S'[ ClassName: android.widget.GridView; Text: []; ContentDescription: null; ItemCount: 9; CurrentItemIndex: -1; IsEnabled: true; IsPassword: false; IsChecked: false; IsFullScreen: false; Scrollable: true; BeforeText: null; FromIndex: 0; ToIndex: 5; ScrollX: -1; ScrollY: -1; MaxScrollX: -1; MaxScrollY: -1; AddedCount: -1; RemovedCount: -1; ParcelableData: null ]'
p257
sS'MovementGranularity'
p258
g6
sa(dp259
S'EventTime'
p260
S'82459808'
p261
sg4
L1449715450896L
sS'recordCount'
p262
g6
sS'EventType'
p263
S'TYPE_VIEW_SCROLLED'
p264
sS'PackageName'
p265
S'com.example.myfristandroid'
p266
sS'OutBounds'
p267
S'Rect(0, 210 - 0, 818)'
p268
sS'Action'
p269
S'[ ClassName: android.widget.GridView; Text: []; ContentDescription: null; ItemCount: 9; CurrentItemIndex: -1; IsEnabled: true; IsPassword: false; IsChecked: false; IsFullScreen: false; Scrollable: true; BeforeText: null; FromIndex: 0; ToIndex: 5; ScrollX: -1; ScrollY: -1; MaxScrollX: -1; MaxScrollY: -1; AddedCount: -1; RemovedCount: -1; ParcelableData: null ]'
p270
sS'MovementGranularity'
p271
g6
sa(dp272
S'EventTime'
p273
S'82459950'
p274
sg4
L1449715450977L
sS'recordCount'
p275
g6
sS'EventType'
p276
S'TYPE_VIEW_TEXT_CHANGED'
p277
sS'PackageName'
p278
S'com.example.myfristandroid'
p279
sS'OutBounds'
p280
S'Rect(9, 450 - 1071, 540)'
p281
sS'Action'
p282
S'[ ClassName: android.widget.EditText; Text: [%]; ContentDescription: null; ItemCount: -1; CurrentItemIndex: -1; IsEnabled: true; IsPassword: false; IsChecked: false; IsFullScreen: false; Scrollable: false; BeforeText: ; FromIndex: 0; ToIndex: -1; ScrollX: -1; ScrollY: -1; MaxScrollX: -1; MaxScrollY: -1; AddedCount: 1; RemovedCount: 0; ParcelableData: null ]'
p283
sS'MovementGranularity'
p284
g6
sa(dp285
S'EventTime'
p286
S'82459951'
p287
sg4
L1449715451000L
sS'recordCount'
p288
g6
sS'EventType'
p289
S'TYPE_VIEW_TEXT_SELECTION_CHANGED'
p290
sS'PackageName'
p291
S'com.example.myfristandroid'
p292
sS'OutBounds'
p293
S'Rect(9, 450 - 1071, 540)'
p294
sS'Action'
p295
S'[ ClassName: android.widget.EditText; Text: [%]; ContentDescription: null; ItemCount: 1; CurrentItemIndex: -1; IsEnabled: true; IsPassword: false; IsChecked: false; IsFullScreen: false; Scrollable: false; BeforeText: null; FromIndex: 1; ToIndex: 1; ScrollX: -1; ScrollY: -1; MaxScrollX: -1; MaxScrollY: -1; AddedCount: -1; RemovedCount: -1; ParcelableData: null ]'
p296
sS'MovementGranularity'
p297
g6
sa(dp298
S'EventTime'
p299
S'82460024'
p300
sg4
L1449715451052L
sS'recordCount'
p301
g6
sS'EventType'
p302
S'TYPE_WINDOW_CONTENT_CHANGED'
p303
sS'PackageName'
p304
S'com.example.myfristandroid'
p305
sS'OutBounds'
p306
S'Rect(996, 457 - 1071, 532)'
p307
sS'Action'
p308
S'[ ClassName: android.widget.ImageButton; Text: []; ContentDescription: null; ItemCount: -1; CurrentItemIndex: -1; IsEnabled: true; IsPassword: false; IsChecked: false; IsFullScreen: false; Scrollable: false; BeforeText: null; FromIndex: -1; ToIndex: -1; ScrollX: -1; ScrollY: -1; MaxScrollX: -1; MaxScrollY: -1; AddedCount: -1; RemovedCount: -1; ParcelableData: null ]'
p309
sS'MovementGranularity'
p310
g6
sa(dp311
S'EventTime'
p312
S'82460779'
p313
sg4
L1449715451715L
sS'recordCount'
p314
S'1'
p315
sS'EventType'
p316
S'TYPE_WINDOW_CONTENT_CHANGED'
p317
sS'PackageName'
p318
S'com.example.myfristandroid'
p319
sS'OutBounds'
p320
S'Rect(0, 1200 - -8, 1249)'
p321
sS'Action'
p322
S'[ ClassName: android.widget.TextView; Text: []; ContentDescription: null; ItemCount: -1; CurrentItemIndex: -1; IsEnabled: true; IsPassword: false; IsChecked: false; IsFullScreen: false; Scrollable: false; BeforeText: null; FromIndex: -1; ToIndex: -1; ScrollX: -1; ScrollY: -1; MaxScrollX: -1; MaxScrollY: -1; AddedCount: -1; RemovedCount: -1; ParcelableData: null ]'
p323
sS'MovementGranularity'
p324
g6
sa(dp325
S'EventTime'
p326
S'82460793'
p327
sg4
L1449715451831L
sS'recordCount'
p328
g6
sS'EventType'
p329
S'TYPE_WINDOW_CONTENT_CHANGED'
p330
sS'PackageName'
p331
S'com.example.myfristandroid'
p332
sS'OutBounds'
p333
S'Rect(0, 210 - 0, 1638)'
p334
sS'Action'
p335
S'[ ClassName: android.widget.GridView; Text: []; ContentDescription: null; ItemCount: 9; CurrentItemIndex: -1; IsEnabled: true; IsPassword: false; IsChecked: false; IsFullScreen: false; Scrollable: false; BeforeText: null; FromIndex: 0; ToIndex: 8; ScrollX: -1; ScrollY: -1; MaxScrollX: -1; MaxScrollY: -1; AddedCount: -1; RemovedCount: -1; ParcelableData: null ]'
p336
sS'MovementGranularity'
p337
g6
sa(dp338
S'EventTime'
p339
S'82460820'
p340
sg4
L1449715451861L
sS'recordCount'
p341
g6
sS'EventType'
p342
S'TYPE_VIEW_SCROLLED'
p343
sS'PackageName'
p344
S'com.example.myfristandroid'
p345
sS'OutBounds'
p346
S'Rect(0, 210 - 0, 1638)'
p347
sS'Action'
p348
S'[ ClassName: android.widget.GridView; Text: []; ContentDescription: null; ItemCount: 9; CurrentItemIndex: -1; IsEnabled: true; IsPassword: false; IsChecked: false; IsFullScreen: false; Scrollable: false; BeforeText: null; FromIndex: 0; ToIndex: 8; ScrollX: -1; ScrollY: -1; MaxScrollX: -1; MaxScrollY: -1; AddedCount: -1; RemovedCount: -1; ParcelableData: null ]'
p349
sS'MovementGranularity'
p350
g6
sa(dp351
S'EventTime'
p352
S'82470331'
p353
sg4
L1449715461374L
sS'recordCount'
p354
g6
sS'EventType'
p355
S'TYPE_WINDOW_STATE_CHANGED'
p356
sS'PackageName'
p357
S'com.example.myfristandroid'
p358
sS'OutBounds'
p359
S'Rect(0, 0 - 1080, 1803)'
p360
sS'Action'
p361
S'[ ClassName: com.example.myfristandroid.MainActivity; Text: [SE-1800\xe7\xa7\xbb\xe5\x8a\xa8APP]; ContentDescription: null; ItemCount: -1; CurrentItemIndex: -1; IsEnabled: true; IsPassword: false; IsChecked: false; IsFullScreen: true; Scrollable: false; BeforeText: null; FromIndex: -1; ToIndex: -1; ScrollX: -1; ScrollY: -1; MaxScrollX: -1; MaxScrollY: -1; AddedCount: -1; RemovedCount: -1; ParcelableData: null ]'
p362
sS'MovementGranularity'
p363
g6
sa(dp364
S'EventTime'
p365
S'82471004'
p366
sg4
L1449715462037L
sS'recordCount'
p367
g6
sS'EventType'
p368
S'TYPE_VIEW_FOCUSED'
p369
sS'PackageName'
p370
S'com.example.myfristandroid'
p371
sS'OutBounds'
p372
S'Rect(571, 225 - 1080, 315)'
p373
sS'Action'
p374
S'[ ClassName: android.widget.EditText; Text: [\xe6\x9c\x8d\xe5\x8a\xa1\xe5\x99\xa8\xe5\x9c\xb0\xe5\x9d\x80]; ContentDescription: null; ItemCount: 10; CurrentItemIndex: 0; IsEnabled: true; IsPassword: false; IsChecked: false; IsFullScreen: false; Scrollable: false; BeforeText: null; FromIndex: -1; ToIndex: -1; ScrollX: -1; ScrollY: -1; MaxScrollX: -1; MaxScrollY: -1; AddedCount: -1; RemovedCount: -1; ParcelableData: null ]'
p375
sS'MovementGranularity'
p376
g6
sa(dp377
S'EventTime'
p378
S'82471020'
p379
sg4
L1449715462055L
sS'recordCount'
p380
g6
sS'EventType'
p381
S'TYPE_VIEW_TEXT_SELECTION_CHANGED'
p382
sS'PackageName'
p383
S'com.example.myfristandroid'
p384
sS'OutBounds'
p385
S'Rect(450, 330 - 1080, 420)'
p386
sS'Action'
p387
S'[ ClassName: android.widget.EditText; Text: [143]; ContentDescription: null; ItemCount: 3; CurrentItemIndex: -1; IsEnabled: true; IsPassword: false; IsChecked: false; IsFullScreen: false; Scrollable: false; BeforeText: null; FromIndex: 0; ToIndex: 0; ScrollX: -1; ScrollY: -1; MaxScrollX: -1; MaxScrollY: -1; AddedCount: -1; RemovedCount: -1; ParcelableData: null ]'
p388
sS'MovementGranularity'
p389
g6
sa(dp390
S'EventTime'
p391
S'82471022'
p392
sg4
L1449715462081L
sS'recordCount'
p393
g6
sS'EventType'
p394
S'TYPE_WINDOW_CONTENT_CHANGED'
p395
sS'PackageName'
p396
S'com.example.myfristandroid'
p397
sS'OutBounds'
p398
S'Rect(393, 750 - 813, 840)'
p399
sS'Action'
p400
S'[ ClassName: android.widget.Button; Text: []; ContentDescription: null; ItemCount: -1; CurrentItemIndex: -1; IsEnabled: true; IsPassword: false; IsChecked: false; IsFullScreen: false; Scrollable: false; BeforeText: null; FromIndex: -1; ToIndex: -1; ScrollX: -1; ScrollY: -1; MaxScrollX: -1; MaxScrollY: -1; AddedCount: -1; RemovedCount: -1; ParcelableData: null ]'
p401
sS'MovementGranularity'
p402
g6
sa(dp403
S'EventTime'
p404
S'82471022'
p405
sg4
L1449715462098L
sS'recordCount'
p406
g6
sS'EventType'
p407
S'TYPE_VIEW_CLICKED'
p408
sS'PackageName'
p409
S'com.example.myfristandroid'
p410
sS'OutBounds'
p411
S'Rect(810, 1638 - 1080, 1803)'
p412
sS'Action'
p413
S'[ ClassName: android.widget.LinearLayout; Text: [\xe8\xae\xbe\xe7\xbd\xae\xe7\xb3\xbb\xe7\xbb\x9f\xe8\xbf\x90\xe8\xa1\x8c\xe5\x8f\x82\xe6\x95\xb0, \xe8\xae\xbe\xe7\xbd\xae]; ContentDescription: null; ItemCount: -1; CurrentItemIndex: -1; IsEnabled: true; IsPassword: false; IsChecked: false; IsFullScreen: false; Scrollable: false; BeforeText: null; FromIndex: -1; ToIndex: -1; ScrollX: -1; ScrollY: -1; MaxScrollX: -1; MaxScrollY: -1; AddedCount: -1; RemovedCount: -1; ParcelableData: null ]'
p414
sS'MovementGranularity'
p415
g6
sa(dp416
S'EventTime'
p417
S'82471146'
p418
sg4
L1449715462182L
sS'recordCount'
p419
g6
sS'EventType'
p420
S'TYPE_VIEW_SCROLLED'
p421
sS'PackageName'
p422
S'com.example.myfristandroid'
p423
sS'OutBounds'
p424
S'Rect(0, 210 - 1080, 1638)'
p425
sS'Action'
p426
S'[ ClassName: android.support.v4.view.ViewPager; Text: []; ContentDescription: null; ItemCount: -1; CurrentItemIndex: -1; IsEnabled: true; IsPassword: false; IsChecked: false; IsFullScreen: false; Scrollable: false; BeforeText: null; FromIndex: -1; ToIndex: -1; ScrollX: -1; ScrollY: -1; MaxScrollX: -1; MaxScrollY: -1; AddedCount: -1; RemovedCount: -1; ParcelableData: null ]'
p427
sS'MovementGranularity'
p428
g6
sa(dp429
S'EventTime'
p430
S'82471265'
p431
sg4
L1449715462295L
sS'recordCount'
p432
g6
sS'EventType'
p433
S'TYPE_VIEW_SCROLLED'
p434
sS'PackageName'
p435
S'com.example.myfristandroid'
p436
sS'OutBounds'
p437
S'Rect(0, 210 - 1080, 1638)'
p438
sS'Action'
p439
S'[ ClassName: android.support.v4.view.ViewPager; Text: []; ContentDescription: null; ItemCount: -1; CurrentItemIndex: -1; IsEnabled: true; IsPassword: false; IsChecked: false; IsFullScreen: false; Scrollable: false; BeforeText: null; FromIndex: -1; ToIndex: -1; ScrollX: -1; ScrollY: -1; MaxScrollX: -1; MaxScrollY: -1; AddedCount: -1; RemovedCount: -1; ParcelableData: null ]'
p440
sS'MovementGranularity'
p441
g6
sa(dp442
S'EventTime'
p443
S'82471441'
p444
sg4
L1449715462475L
sS'recordCount'
p445
g6
sS'EventType'
p446
S'TYPE_WINDOW_CONTENT_CHANGED'
p447
sS'PackageName'
p448
S'com.example.myfristandroid'
p449
sS'OutBounds'
p450
S'Rect(0, 210 - 1080, 1638)'
p451
sS'Action'
p452
S'[ ClassName: android.support.v4.view.ViewPager; Text: []; ContentDescription: null; ItemCount: -1; CurrentItemIndex: -1; IsEnabled: true; IsPassword: false; IsChecked: false; IsFullScreen: false; Scrollable: false; BeforeText: null; FromIndex: -1; ToIndex: -1; ScrollX: -1; ScrollY: -1; MaxScrollX: -1; MaxScrollY: -1; AddedCount: -1; RemovedCount: -1; ParcelableData: null ]'
p453
sS'MovementGranularity'
p454
g6
sa(dp455
S'EventTime'
p456
S'82483974'
p457
sg4
L1449715475017L
sS'recordCount'
p458
g6
sS'EventType'
p459
S'TYPE_WINDOW_STATE_CHANGED'
p460
sS'PackageName'
p461
S'com.example.myfristandroid'
p462
sS'OutBounds'
p463
S'Rect(0, 0 - 1080, 1803)'
p464
sS'Action'
p465
S'[ ClassName: com.example.myfristandroid.MainActivity; Text: [SE-1800\xe7\xa7\xbb\xe5\x8a\xa8APP]; ContentDescription: null; ItemCount: -1; CurrentItemIndex: -1; IsEnabled: true; IsPassword: false; IsChecked: false; IsFullScreen: true; Scrollable: false; BeforeText: null; FromIndex: -1; ToIndex: -1; ScrollX: -1; ScrollY: -1; MaxScrollX: -1; MaxScrollY: -1; AddedCount: -1; RemovedCount: -1; ParcelableData: null ]'
p466
sS'MovementGranularity'
p467
g6
sa(dp468
S'EventTime'
p469
S'82484457'
p470
sg4
L1449715475535L
sS'recordCount'
p471
g6
sS'EventType'
p472
S'TYPE_WINDOW_CONTENT_CHANGED'
p473
sS'PackageName'
p474
S'com.example.myfristandroid'
p475
sS'OutBounds'
p476
S'Rect(300, 225 - 1065, 315)'
p477
sS'Action'
p478
S'[ ClassName: android.widget.EditText; Text: []; ContentDescription: null; ItemCount: -1; CurrentItemIndex: -1; IsEnabled: true; IsPassword: false; IsChecked: false; IsFullScreen: false; Scrollable: false; BeforeText: null; FromIndex: -1; ToIndex: -1; ScrollX: -1; ScrollY: -1; MaxScrollX: -1; MaxScrollY: -1; AddedCount: -1; RemovedCount: -1; ParcelableData: null ]'
p479
sS'MovementGranularity'
p480
g6
sa(dp481
S'EventTime'
p482
S'82484459'
p483
sg4
L1449715475560L
sS'recordCount'
p484
g6
sS'EventType'
p485
S'TYPE_VIEW_TEXT_SELECTION_CHANGED'
p486
sS'PackageName'
p487
S'com.example.myfristandroid'
p488
sS'OutBounds'
p489
S'Rect(300, 645 - 1065, 735)'
p490
sS'Action'
p491
S'[ ClassName: android.widget.EditText; Text: []; ContentDescription: null; ItemCount: 4; CurrentItemIndex: -1; IsEnabled: true; IsPassword: true; IsChecked: false; IsFullScreen: false; Scrollable: false; BeforeText: null; FromIndex: 4; ToIndex: 4; ScrollX: -1; ScrollY: -1; MaxScrollX: -1; MaxScrollY: -1; AddedCount: -1; RemovedCount: -1; ParcelableData: null ]'
p492
sS'MovementGranularity'
p493
g6
sa(dp494
S'EventTime'
p495
S'82484461'
p496
sg4
L1449715475579L
sS'recordCount'
p497
g6
sS'EventType'
p498
S'TYPE_VIEW_FOCUSED'
p499
sS'PackageName'
p500
S'com.example.myfristandroid'
p501
sS'OutBounds'
p502
S'Rect(300, 645 - 1065, 735)'
p503
sS'Action'
p504
S'[ ClassName: android.widget.EditText; Text: []; ContentDescription: null; ItemCount: 10; CurrentItemIndex: 4; IsEnabled: true; IsPassword: true; IsChecked: false; IsFullScreen: false; Scrollable: false; BeforeText: null; FromIndex: -1; ToIndex: -1; ScrollX: -1; ScrollY: -1; MaxScrollX: -1; MaxScrollY: -1; AddedCount: -1; RemovedCount: -1; ParcelableData: null ]'
p505
sS'MovementGranularity'
p506
g6
sa(dp507
S'EventTime'
p508
S'82486021'
p509
sg4
L1449715477053L
sS'recordCount'
p510
g6
sS'EventType'
p511
S'TYPE_VIEW_TEXT_CHANGED'
p512
sS'PackageName'
p513
S'com.example.myfristandroid'
p514
sS'OutBounds'
p515
S'Rect(300, 645 - 1065, 735)'
p516
sS'Action'
p517
S'[ ClassName: android.widget.EditText; Text: []; ContentDescription: null; ItemCount: -1; CurrentItemIndex: -1; IsEnabled: true; IsPassword: true; IsChecked: false; IsFullScreen: false; Scrollable: false; BeforeText: null; FromIndex: 3; ToIndex: -1; ScrollX: -1; ScrollY: -1; MaxScrollX: -1; MaxScrollY: -1; AddedCount: 0; RemovedCount: 1; ParcelableData: null ]'
p518
sS'MovementGranularity'
p519
g6
sa(dp520
S'EventTime'
p521
S'82486025'
p522
sg4
L1449715477105L
sS'recordCount'
p523
g6
sS'EventType'
p524
S'TYPE_VIEW_TEXT_SELECTION_CHANGED'
p525
sS'PackageName'
p526
S'com.example.myfristandroid'
p527
sS'OutBounds'
p528
S'Rect(300, 645 - 1065, 735)'
p529
sS'Action'
p530
S'[ ClassName: android.widget.EditText; Text: []; ContentDescription: null; ItemCount: 3; CurrentItemIndex: -1; IsEnabled: true; IsPassword: true; IsChecked: false; IsFullScreen: false; Scrollable: false; BeforeText: null; FromIndex: 3; ToIndex: 3; ScrollX: -1; ScrollY: -1; MaxScrollX: -1; MaxScrollY: -1; AddedCount: -1; RemovedCount: -1; ParcelableData: null ]'
p531
sS'MovementGranularity'
p532
g6
sa(dp533
S'EventTime'
p534
S'82486145'
p535
sg4
L1449715477168L
sS'recordCount'
p536
g6
sS'EventType'
p537
S'TYPE_VIEW_TEXT_CHANGED'
p538
sS'PackageName'
p539
S'com.example.myfristandroid'
p540
sS'OutBounds'
p541
S'Rect(300, 645 - 1065, 735)'
p542
sS'Action'
p543
S'[ ClassName: android.widget.EditText; Text: []; ContentDescription: null; ItemCount: -1; CurrentItemIndex: -1; IsEnabled: true; IsPassword: true; IsChecked: false; IsFullScreen: false; Scrollable: false; BeforeText: null; FromIndex: 2; ToIndex: -1; ScrollX: -1; ScrollY: -1; MaxScrollX: -1; MaxScrollY: -1; AddedCount: 0; RemovedCount: 1; ParcelableData: null ]'
p544
sS'MovementGranularity'
p545
g6
sa(dp546
S'EventTime'
p547
S'82486149'
p548
sg4
L1449715477180L
sS'recordCount'
p549
g6
sS'EventType'
p550
S'TYPE_VIEW_TEXT_SELECTION_CHANGED'
p551
sS'PackageName'
p552
S'com.example.myfristandroid'
p553
sS'OutBounds'
p554
S'Rect(300, 645 - 1065, 735)'
p555
sS'Action'
p556
S'[ ClassName: android.widget.EditText; Text: []; ContentDescription: null; ItemCount: 2; CurrentItemIndex: -1; IsEnabled: true; IsPassword: true; IsChecked: false; IsFullScreen: false; Scrollable: false; BeforeText: null; FromIndex: 2; ToIndex: 2; ScrollX: -1; ScrollY: -1; MaxScrollX: -1; MaxScrollY: -1; AddedCount: -1; RemovedCount: -1; ParcelableData: null ]'
p557
sS'MovementGranularity'
p558
g6
sa(dp559
S'EventTime'
p560
S'82486310'
p561
sg4
L1449715477334L
sS'recordCount'
p562
g6
sS'EventType'
p563
S'TYPE_VIEW_TEXT_CHANGED'
p564
sS'PackageName'
p565
S'com.example.myfristandroid'
p566
sS'OutBounds'
p567
S'Rect(300, 645 - 1065, 735)'
p568
sS'Action'
p569
S'[ ClassName: android.widget.EditText; Text: []; ContentDescription: null; ItemCount: -1; CurrentItemIndex: -1; IsEnabled: true; IsPassword: true; IsChecked: false; IsFullScreen: false; Scrollable: false; BeforeText: null; FromIndex: 1; ToIndex: -1; ScrollX: -1; ScrollY: -1; MaxScrollX: -1; MaxScrollY: -1; AddedCount: 0; RemovedCount: 1; ParcelableData: null ]'
p570
sS'MovementGranularity'
p571
g6
sa(dp572
S'EventTime'
p573
S'82486312'
p574
sg4
L1449715477352L
sS'recordCount'
p575
g6
sS'EventType'
p576
S'TYPE_VIEW_TEXT_SELECTION_CHANGED'
p577
sS'PackageName'
p578
S'com.example.myfristandroid'
p579
sS'OutBounds'
p580
S'Rect(300, 645 - 1065, 735)'
p581
sS'Action'
p582
S'[ ClassName: android.widget.EditText; Text: []; ContentDescription: null; ItemCount: 1; CurrentItemIndex: -1; IsEnabled: true; IsPassword: true; IsChecked: false; IsFullScreen: false; Scrollable: false; BeforeText: null; FromIndex: 1; ToIndex: 1; ScrollX: -1; ScrollY: -1; MaxScrollX: -1; MaxScrollY: -1; AddedCount: -1; RemovedCount: -1; ParcelableData: null ]'
p583
sS'MovementGranularity'
p584
g6
sa(dp585
S'EventTime'
p586
S'82486471'
p587
sg4
L1449715477497L
sS'recordCount'
p588
g6
sS'EventType'
p589
S'TYPE_VIEW_TEXT_CHANGED'
p590
sS'PackageName'
p591
S'com.example.myfristandroid'
p592
sS'OutBounds'
p593
S'Rect(300, 645 - 1065, 735)'
p594
sS'Action'
p595
S'[ ClassName: android.widget.EditText; Text: []; ContentDescription: null; ItemCount: -1; CurrentItemIndex: -1; IsEnabled: true; IsPassword: true; IsChecked: false; IsFullScreen: false; Scrollable: false; BeforeText: null; FromIndex: 0; ToIndex: -1; ScrollX: -1; ScrollY: -1; MaxScrollX: -1; MaxScrollY: -1; AddedCount: 0; RemovedCount: 1; ParcelableData: null ]'
p596
sS'MovementGranularity'
p597
g6
sa(dp598
S'EventTime'
p599
S'82486473'
p600
sg4
L1449715477516L
sS'recordCount'
p601
g6
sS'EventType'
p602
S'TYPE_VIEW_TEXT_SELECTION_CHANGED'
p603
sS'PackageName'
p604
S'com.example.myfristandroid'
p605
sS'OutBounds'
p606
S'Rect(300, 645 - 1065, 735)'
p607
sS'Action'
p608
S'[ ClassName: android.widget.EditText; Text: []; ContentDescription: null; ItemCount: 0; CurrentItemIndex: -1; IsEnabled: true; IsPassword: true; IsChecked: false; IsFullScreen: false; Scrollable: false; BeforeText: null; FromIndex: 0; ToIndex: 0; ScrollX: -1; ScrollY: -1; MaxScrollX: -1; MaxScrollY: -1; AddedCount: -1; RemovedCount: -1; ParcelableData: null ]'
p609
sS'MovementGranularity'
p610
g6
sa(dp611
S'EventTime'
p612
S'82487904'
p613
sg4
L1449715478933L
sS'recordCount'
p614
g6
sS'EventType'
p615
S'TYPE_VIEW_CLICKED'
p616
sS'PackageName'
p617
S'com.example.myfristandroid'
p618
sS'OutBounds'
p619
S'Rect(330, 750 - 750, 840)'
p620
sS'Action'
p621
S'[ ClassName: android.widget.Button; Text: [\xe7\x99\xbb\xe5\xbd\x95]; ContentDescription: null; ItemCount: -1; CurrentItemIndex: -1; IsEnabled: true; IsPassword: false; IsChecked: false; IsFullScreen: false; Scrollable: false; BeforeText: null; FromIndex: -1; ToIndex: -1; ScrollX: -1; ScrollY: -1; MaxScrollX: -1; MaxScrollY: -1; AddedCount: -1; RemovedCount: -1; ParcelableData: null ]'
p622
sS'MovementGranularity'
p623
g6
sa(dp624
S'EventTime'
p625
S'82488351'
p626
sg4
L1449715479373L
sS'recordCount'
p627
g6
sS'EventType'
p628
S'TYPE_VIEW_CLICKED'
p629
sS'PackageName'
p630
S'com.example.myfristandroid'
p631
sS'OutBounds'
p632
S'Rect(330, 750 - 750, 840)'
p633
sS'Action'
p634
S'[ ClassName: android.widget.Button; Text: [\xe7\x99\xbb\xe5\xbd\x95]; ContentDescription: null; ItemCount: -1; CurrentItemIndex: -1; IsEnabled: true; IsPassword: false; IsChecked: false; IsFullScreen: false; Scrollable: false; BeforeText: null; FromIndex: -1; ToIndex: -1; ScrollX: -1; ScrollY: -1; MaxScrollX: -1; MaxScrollY: -1; AddedCount: -1; RemovedCount: -1; ParcelableData: null ]'
p635
sS'MovementGranularity'
p636
g6
sa(dp637
S'EventTime'
p638
S'82488553'
p639
sg4
L1449715479575L
sS'recordCount'
p640
g6
sS'EventType'
p641
S'TYPE_VIEW_CLICKED'
p642
sS'PackageName'
p643
S'com.example.myfristandroid'
p644
sS'OutBounds'
p645
S'Rect(330, 750 - 750, 840)'
p646
sS'Action'
p647
S'[ ClassName: android.widget.Button; Text: [\xe7\x99\xbb\xe5\xbd\x95]; ContentDescription: null; ItemCount: -1; CurrentItemIndex: -1; IsEnabled: true; IsPassword: false; IsChecked: false; IsFullScreen: false; Scrollable: false; BeforeText: null; FromIndex: -1; ToIndex: -1; ScrollX: -1; ScrollY: -1; MaxScrollX: -1; MaxScrollY: -1; AddedCount: -1; RemovedCount: -1; ParcelableData: null ]'
p648
sS'MovementGranularity'
p649
g6
sa(dp650
S'EventTime'
p651
S'82488745'
p652
sg4
L1449715479766L
sS'recordCount'
p653
g6
sS'EventType'
p654
S'TYPE_VIEW_CLICKED'
p655
sS'PackageName'
p656
S'com.example.myfristandroid'
p657
sS'OutBounds'
p658
S'Rect(330, 750 - 750, 840)'
p659
sS'Action'
p660
S'[ ClassName: android.widget.Button; Text: [\xe7\x99\xbb\xe5\xbd\x95]; ContentDescription: null; ItemCount: -1; CurrentItemIndex: -1; IsEnabled: true; IsPassword: false; IsChecked: false; IsFullScreen: false; Scrollable: false; BeforeText: null; FromIndex: -1; ToIndex: -1; ScrollX: -1; ScrollY: -1; MaxScrollX: -1; MaxScrollY: -1; AddedCount: -1; RemovedCount: -1; ParcelableData: null ]'
p661
sS'MovementGranularity'
p662
g6
sa(dp663
S'EventTime'
p664
S'82488858'
p665
sg4
L1449715479886L
sS'recordCount'
p666
g6
sS'EventType'
p667
S'TYPE_WINDOW_CONTENT_CHANGED'
p668
sS'PackageName'
p669
S'com.example.myfristandroid'
p670
sS'OutBounds'
p671
S'Rect(330, 750 - 750, 840)'
p672
sS'Action'
p673
S'[ ClassName: android.widget.Button; Text: []; ContentDescription: null; ItemCount: -1; CurrentItemIndex: -1; IsEnabled: true; IsPassword: false; IsChecked: false; IsFullScreen: false; Scrollable: false; BeforeText: null; FromIndex: -1; ToIndex: -1; ScrollX: -1; ScrollY: -1; MaxScrollX: -1; MaxScrollY: -1; AddedCount: -1; RemovedCount: -1; ParcelableData: null ]'
p674
sS'MovementGranularity'
p675
g6
sa(dp676
S'EventTime'
p677
S'82488951'
p678
sg4
L1449715479975L
sS'recordCount'
p679
g6
sS'EventType'
p680
S'TYPE_VIEW_CLICKED'
p681
sS'PackageName'
p682
S'com.example.myfristandroid'
p683
sS'OutBounds'
p684
S'Rect(330, 750 - 750, 840)'
p685
sS'Action'
p686
S'[ ClassName: android.widget.Button; Text: [\xe7\xb3\xbb\xe7\xbb\x9f\xe7\xae\xa1\xe7\x90\x86\xe5\x91\x98]; ContentDescription: null; ItemCount: -1; CurrentItemIndex: -1; IsEnabled: true; IsPassword: false; IsChecked: false; IsFullScreen: false; Scrollable: false; BeforeText: null; FromIndex: -1; ToIndex: -1; ScrollX: -1; ScrollY: -1; MaxScrollX: -1; MaxScrollY: -1; AddedCount: -1; RemovedCount: -1; ParcelableData: null ]'
p687
sS'MovementGranularity'
p688
g6
sa(dp689
S'EventTime'
p690
S'82489131'
p691
sg4
L1449715480154L
sS'recordCount'
p692
g6
sS'EventType'
p693
S'TYPE_VIEW_CLICKED'
p694
sS'PackageName'
p695
S'com.example.myfristandroid'
p696
sS'OutBounds'
p697
S'Rect(330, 750 - 750, 840)'
p698
sS'Action'
p699
S'[ ClassName: android.widget.Button; Text: [\xe7\xb3\xbb\xe7\xbb\x9f\xe7\xae\xa1\xe7\x90\x86\xe5\x91\x98]; ContentDescription: null; ItemCount: -1; CurrentItemIndex: -1; IsEnabled: true; IsPassword: false; IsChecked: false; IsFullScreen: false; Scrollable: false; BeforeText: null; FromIndex: -1; ToIndex: -1; ScrollX: -1; ScrollY: -1; MaxScrollX: -1; MaxScrollY: -1; AddedCount: -1; RemovedCount: -1; ParcelableData: null ]'
p700
sS'MovementGranularity'
p701
g6
sa(dp702
S'EventTime'
p703
S'82489889'
p704
sg4
L1449715480912L
sS'recordCount'
p705
g6
sS'EventType'
p706
S'TYPE_WINDOW_CONTENT_CHANGED'
p707
sS'PackageName'
p708
S'com.example.myfristandroid'
p709
sS'OutBounds'
p710
S'Rect(330, 750 - 750, 840)'
p711
sS'Action'
p712
S'[ ClassName: android.widget.Button; Text: []; ContentDescription: null; ItemCount: -1; CurrentItemIndex: -1; IsEnabled: true; IsPassword: false; IsChecked: false; IsFullScreen: false; Scrollable: false; BeforeText: null; FromIndex: -1; ToIndex: -1; ScrollX: -1; ScrollY: -1; MaxScrollX: -1; MaxScrollY: -1; AddedCount: -1; RemovedCount: -1; ParcelableData: null ]'
p713
sS'MovementGranularity'
p714
g6
sa(dp715
S'EventTime'
p716
S'82490697'
p717
sg4
L1449715481721L
sS'recordCount'
p718
g6
sS'EventType'
p719
S'TYPE_VIEW_CLICKED'
p720
sS'PackageName'
p721
S'com.example.myfristandroid'
p722
sS'OutBounds'
p723
S'Rect(330, 750 - 750, 840)'
p724
sS'Action'
p725
S'[ ClassName: android.widget.Button; Text: [\xe7\x99\xbb\xe5\xbd\x95]; ContentDescription: null; ItemCount: -1; CurrentItemIndex: -1; IsEnabled: true; IsPassword: false; IsChecked: false; IsFullScreen: false; Scrollable: false; BeforeText: null; FromIndex: -1; ToIndex: -1; ScrollX: -1; ScrollY: -1; MaxScrollX: -1; MaxScrollY: -1; AddedCount: -1; RemovedCount: -1; ParcelableData: null ]'
p726
sS'MovementGranularity'
p727
g6
sa(dp728
S'EventTime'
p729
S'82490837'
p730
sg4
L1449715481861L
sS'recordCount'
p731
g6
sS'EventType'
p732
S'TYPE_WINDOW_CONTENT_CHANGED'
p733
sS'PackageName'
p734
S'com.example.myfristandroid'
p735
sS'OutBounds'
p736
S'Rect(300, 645 - 1065, 735)'
p737
sS'Action'
p738
S'[ ClassName: android.widget.EditText; Text: []; ContentDescription: null; ItemCount: -1; CurrentItemIndex: -1; IsEnabled: false; IsPassword: true; IsChecked: false; IsFullScreen: false; Scrollable: false; BeforeText: null; FromIndex: -1; ToIndex: -1; ScrollX: -1; ScrollY: -1; MaxScrollX: -1; MaxScrollY: -1; AddedCount: -1; RemovedCount: -1; ParcelableData: null ]'
p739
sS'MovementGranularity'
p740
g6
sa(dp741
S'EventTime'
p742
S'82508667'
p743
sg4
L1449715499689L
sS'recordCount'
p744
g6
sS'EventType'
p745
S'TYPE_VIEW_CLICKED'
p746
sS'PackageName'
p747
S'com.example.myfristandroid'
p748
sS'OutBounds'
p749
S'Rect(330, 750 - 750, 840)'
p750
sS'Action'
p751
S'[ ClassName: android.widget.Button; Text: [\xe7\xb3\xbb\xe7\xbb\x9f\xe7\xae\xa1\xe7\x90\x86\xe5\x91\x98]; ContentDescription: null; ItemCount: -1; CurrentItemIndex: -1; IsEnabled: true; IsPassword: false; IsChecked: false; IsFullScreen: false; Scrollable: false; BeforeText: null; FromIndex: -1; ToIndex: -1; ScrollX: -1; ScrollY: -1; MaxScrollX: -1; MaxScrollY: -1; AddedCount: -1; RemovedCount: -1; ParcelableData: null ]'
p752
sS'MovementGranularity'
p753
g6
sa(dp754
S'EventTime'
p755
S'82508857'
p756
sg4
L1449715499882L
sS'recordCount'
p757
g6
sS'EventType'
p758
S'TYPE_WINDOW_CONTENT_CHANGED'
p759
sS'PackageName'
p760
S'com.example.myfristandroid'
p761
sS'OutBounds'
p762
S'Rect(300, 645 - 1065, 735)'
p763
sS'Action'
p764
S'[ ClassName: android.widget.EditText; Text: []; ContentDescription: null; ItemCount: -1; CurrentItemIndex: -1; IsEnabled: true; IsPassword: true; IsChecked: false; IsFullScreen: false; Scrollable: false; BeforeText: null; FromIndex: -1; ToIndex: -1; ScrollX: -1; ScrollY: -1; MaxScrollX: -1; MaxScrollY: -1; AddedCount: -1; RemovedCount: -1; ParcelableData: null ]'
p765
sS'MovementGranularity'
p766
g6
sa(dp767
S'EventTime'
p768
S'82509682'
p769
sg4
L1449715500705L
sS'recordCount'
p770
g6
sS'EventType'
p771
S'TYPE_VIEW_CLICKED'
p772
sS'PackageName'
p773
S'com.example.myfristandroid'
p774
sS'OutBounds'
p775
S'Rect(330, 750 - 750, 840)'
p776
sS'Action'
p777
S'[ ClassName: android.widget.Button; Text: [\xe7\x99\xbb\xe5\xbd\x95]; ContentDescription: null; ItemCount: -1; CurrentItemIndex: -1; IsEnabled: true; IsPassword: false; IsChecked: false; IsFullScreen: false; Scrollable: false; BeforeText: null; FromIndex: -1; ToIndex: -1; ScrollX: -1; ScrollY: -1; MaxScrollX: -1; MaxScrollY: -1; AddedCount: -1; RemovedCount: -1; ParcelableData: null ]'
p778
sS'MovementGranularity'
p779
g6
sa(dp780
S'EventTime'
p781
S'82509875'
p782
sg4
L1449715500899L
sS'recordCount'
p783
g6
sS'EventType'
p784
S'TYPE_WINDOW_CONTENT_CHANGED'
p785
sS'PackageName'
p786
S'com.example.myfristandroid'
p787
sS'OutBounds'
p788
S'Rect(300, 645 - 1065, 735)'
p789
sS'Action'
p790
S'[ ClassName: android.widget.EditText; Text: []; ContentDescription: null; ItemCount: -1; CurrentItemIndex: -1; IsEnabled: false; IsPassword: true; IsChecked: false; IsFullScreen: false; Scrollable: false; BeforeText: null; FromIndex: -1; ToIndex: -1; ScrollX: -1; ScrollY: -1; MaxScrollX: -1; MaxScrollY: -1; AddedCount: -1; RemovedCount: -1; ParcelableData: null ]'
p791
sS'MovementGranularity'
p792
g6
sa(dp793
S'EventTime'
p794
S'82523671'
p795
sg4
L1449715514706L
sS'recordCount'
p796
g6
sS'EventType'
p797
S'TYPE_WINDOW_STATE_CHANGED'
p798
sS'PackageName'
p799
S'com.example.myfristandroid'
p800
sS'OutBounds'
p801
S'Rect(0, 0 - 1080, 1803)'
p802
sS'Action'
p803
S'[ ClassName: com.example.myfristandroid.MainActivity; Text: [SE-1800\xe7\xa7\xbb\xe5\x8a\xa8APP]; ContentDescription: null; ItemCount: -1; CurrentItemIndex: -1; IsEnabled: true; IsPassword: false; IsChecked: false; IsFullScreen: true; Scrollable: false; BeforeText: null; FromIndex: -1; ToIndex: -1; ScrollX: -1; ScrollY: -1; MaxScrollX: -1; MaxScrollY: -1; AddedCount: -1; RemovedCount: -1; ParcelableData: null ]'
p804
sS'MovementGranularity'
p805
g6
sa(dp806
S'EventTime'
p807
S'82527023'
p808
sg4
L1449715518046L
sS'recordCount'
p809
g6
sS'EventType'
p810
S'TYPE_VIEW_CLICKED'
p811
sS'PackageName'
p812
S'com.example.myfristandroid'
p813
sS'OutBounds'
p814
S'Rect(330, 750 - 750, 840)'
p815
sS'Action'
p816
S'[ ClassName: android.widget.Button; Text: [\xe7\xb3\xbb\xe7\xbb\x9f\xe7\xae\xa1\xe7\x90\x86\xe5\x91\x98]; ContentDescription: null; ItemCount: -1; CurrentItemIndex: -1; IsEnabled: true; IsPassword: false; IsChecked: false; IsFullScreen: false; Scrollable: false; BeforeText: null; FromIndex: -1; ToIndex: -1; ScrollX: -1; ScrollY: -1; MaxScrollX: -1; MaxScrollY: -1; AddedCount: -1; RemovedCount: -1; ParcelableData: null ]'
p817
sS'MovementGranularity'
p818
g6
sa(dp819
S'EventTime'
p820
S'82527895'
p821
sg4
L1449715518917L
sS'recordCount'
p822
g6
sS'EventType'
p823
S'TYPE_WINDOW_CONTENT_CHANGED'
p824
sS'PackageName'
p825
S'com.example.myfristandroid'
p826
sS'OutBounds'
p827
S'Rect(300, 645 - 1065, 735)'
p828
sS'Action'
p829
S'[ ClassName: android.widget.EditText; Text: []; ContentDescription: null; ItemCount: -1; CurrentItemIndex: -1; IsEnabled: true; IsPassword: true; IsChecked: false; IsFullScreen: false; Scrollable: false; BeforeText: null; FromIndex: -1; ToIndex: -1; ScrollX: -1; ScrollY: -1; MaxScrollX: -1; MaxScrollY: -1; AddedCount: -1; RemovedCount: -1; ParcelableData: null ]'
p830
sS'MovementGranularity'
p831
g6
sa(dp832
S'EventTime'
p833
S'82530558'
p834
sg4
L1449715521624L
sS'recordCount'
p835
g6
sS'EventType'
p836
S'TYPE_WINDOW_CONTENT_CHANGED'
p837
sS'PackageName'
p838
S'com.example.myfristandroid'
p839
sS'OutBounds'
p840
S'Rect(300, 645 - 1065, 735)'
p841
sS'Action'
p842
S'[ ClassName: android.widget.EditText; Text: []; ContentDescription: null; ItemCount: -1; CurrentItemIndex: -1; IsEnabled: true; IsPassword: true; IsChecked: false; IsFullScreen: false; Scrollable: false; BeforeText: null; FromIndex: -1; ToIndex: -1; ScrollX: -1; ScrollY: -1; MaxScrollX: -1; MaxScrollY: -1; AddedCount: -1; RemovedCount: -1; ParcelableData: null ]'
p843
sS'MovementGranularity'
p844
g6
sa(dp845
S'EventTime'
p846
S'82530561'
p847
sg4
L1449715521644L
sS'recordCount'
p848
g6
sS'EventType'
p849
S'TYPE_VIEW_TEXT_SELECTION_CHANGED'
p850
sS'PackageName'
p851
S'com.example.myfristandroid'
p852
sS'OutBounds'
p853
S'Rect(300, 540 - 1065, 630)'
p854
sS'Action'
p855
S'[ ClassName: android.widget.EditText; Text: [\xe7\xb3\xbb\xe7\xbb\x9f\xe7\xae\xa1\xe7\x90\x86\xe5\x91\x98]; ContentDescription: null; ItemCount: 5; CurrentItemIndex: -1; IsEnabled: true; IsPassword: false; IsChecked: false; IsFullScreen: false; Scrollable: false; BeforeText: null; FromIndex: 5; ToIndex: 5; ScrollX: -1; ScrollY: -1; MaxScrollX: -1; MaxScrollY: -1; AddedCount: -1; RemovedCount: -1; ParcelableData: null ]'
p856
sS'MovementGranularity'
p857
g6
sa(dp858
S'EventTime'
p859
S'82530562'
p860
sg4
L1449715521660L
sS'recordCount'
p861
g6
sS'EventType'
p862
S'TYPE_VIEW_FOCUSED'
p863
sS'PackageName'
p864
S'com.example.myfristandroid'
p865
sS'OutBounds'
p866
S'Rect(300, 540 - 1065, 630)'
p867
sS'Action'
p868
S'[ ClassName: android.widget.EditText; Text: [\xe7\xb3\xbb\xe7\xbb\x9f\xe7\xae\xa1\xe7\x90\x86\xe5\x91\x98]; ContentDescription: null; ItemCount: 10; CurrentItemIndex: 3; IsEnabled: true; IsPassword: false; IsChecked: false; IsFullScreen: false; Scrollable: false; BeforeText: null; FromIndex: -1; ToIndex: -1; ScrollX: -1; ScrollY: -1; MaxScrollX: -1; MaxScrollY: -1; AddedCount: -1; RemovedCount: -1; ParcelableData: null ]'
p869
sS'MovementGranularity'
p870
g6
sa(dp871
S'EventTime'
p872
S'82531516'
p873
sg4
L1449715522551L
sS'recordCount'
p874
g6
sS'EventType'
p875
S'TYPE_VIEW_TEXT_CHANGED'
p876
sS'PackageName'
p877
S'com.example.myfristandroid'
p878
sS'OutBounds'
p879
S'Rect(300, 540 - 1065, 630)'
p880
sS'Action'
p881
S'[ ClassName: android.widget.EditText; Text: [\xe7\xb3\xbb\xe7\xbb\x9f\xe7\xae\xa1\xe7\x90\x86]; ContentDescription: null; ItemCount: -1; CurrentItemIndex: -1; IsEnabled: true; IsPassword: false; IsChecked: false; IsFullScreen: false; Scrollable: false; BeforeText: \xe7\xb3\xbb\xe7\xbb\x9f\xe7\xae\xa1\xe7\x90\x86\xe5\x91\x98; FromIndex: 4; ToIndex: -1; ScrollX: -1; ScrollY: -1; MaxScrollX: -1; MaxScrollY: -1; AddedCount: 0; RemovedCount: 1; ParcelableData: null ]'
p882
sS'MovementGranularity'
p883
g6
sa(dp884
S'EventTime'
p885
S'82531518'
p886
sg4
L1449715522569L
sS'recordCount'
p887
g6
sS'EventType'
p888
S'TYPE_VIEW_TEXT_SELECTION_CHANGED'
p889
sS'PackageName'
p890
S'com.example.myfristandroid'
p891
sS'OutBounds'
p892
S'Rect(300, 540 - 1065, 630)'
p893
sS'Action'
p894
S'[ ClassName: android.widget.EditText; Text: [\xe7\xb3\xbb\xe7\xbb\x9f\xe7\xae\xa1\xe7\x90\x86]; ContentDescription: null; ItemCount: 4; CurrentItemIndex: -1; IsEnabled: true; IsPassword: false; IsChecked: false; IsFullScreen: false; Scrollable: false; BeforeText: null; FromIndex: 4; ToIndex: 4; ScrollX: -1; ScrollY: -1; MaxScrollX: -1; MaxScrollY: -1; AddedCount: -1; RemovedCount: -1; ParcelableData: null ]'
p895
sS'MovementGranularity'
p896
g6
sa(dp897
S'EventTime'
p898
S'82531672'
p899
sg4
L1449715522696L
sS'recordCount'
p900
g6
sS'EventType'
p901
S'TYPE_VIEW_TEXT_CHANGED'
p902
sS'PackageName'
p903
S'com.example.myfristandroid'
p904
sS'OutBounds'
p905
S'Rect(300, 540 - 1065, 630)'
p906
sS'Action'
p907
S'[ ClassName: android.widget.EditText; Text: [\xe7\xb3\xbb\xe7\xbb\x9f\xe7\xae\xa1]; ContentDescription: null; ItemCount: -1; CurrentItemIndex: -1; IsEnabled: true; IsPassword: false; IsChecked: false; IsFullScreen: false; Scrollable: false; BeforeText: \xe7\xb3\xbb\xe7\xbb\x9f\xe7\xae\xa1\xe7\x90\x86; FromIndex: 3; ToIndex: -1; ScrollX: -1; ScrollY: -1; MaxScrollX: -1; MaxScrollY: -1; AddedCount: 0; RemovedCount: 1; ParcelableData: null ]'
p908
sS'MovementGranularity'
p909
g6
sa(dp910
S'EventTime'
p911
S'82531676'
p912
sg4
L1449715522714L
sS'recordCount'
p913
g6
sS'EventType'
p914
S'TYPE_VIEW_TEXT_SELECTION_CHANGED'
p915
sS'PackageName'
p916
S'com.example.myfristandroid'
p917
sS'OutBounds'
p918
S'Rect(300, 540 - 1065, 630)'
p919
sS'Action'
p920
S'[ ClassName: android.widget.EditText; Text: [\xe7\xb3\xbb\xe7\xbb\x9f\xe7\xae\xa1]; ContentDescription: null; ItemCount: 3; CurrentItemIndex: -1; IsEnabled: true; IsPassword: false; IsChecked: false; IsFullScreen: false; Scrollable: false; BeforeText: null; FromIndex: 3; ToIndex: 3; ScrollX: -1; ScrollY: -1; MaxScrollX: -1; MaxScrollY: -1; AddedCount: -1; RemovedCount: -1; ParcelableData: null ]'
p921
sS'MovementGranularity'
p922
g6
sa(dp923
S'EventTime'
p924
S'82531816'
p925
sg4
L1449715522840L
sS'recordCount'
p926
g6
sS'EventType'
p927
S'TYPE_VIEW_TEXT_CHANGED'
p928
sS'PackageName'
p929
S'com.example.myfristandroid'
p930
sS'OutBounds'
p931
S'Rect(300, 540 - 1065, 630)'
p932
sS'Action'
p933
S'[ ClassName: android.widget.EditText; Text: [\xe7\xb3\xbb\xe7\xbb\x9f]; ContentDescription: null; ItemCount: -1; CurrentItemIndex: -1; IsEnabled: true; IsPassword: false; IsChecked: false; IsFullScreen: false; Scrollable: false; BeforeText: \xe7\xb3\xbb\xe7\xbb\x9f\xe7\xae\xa1; FromIndex: 2; ToIndex: -1; ScrollX: -1; ScrollY: -1; MaxScrollX: -1; MaxScrollY: -1; AddedCount: 0; RemovedCount: 1; ParcelableData: null ]'
p934
sS'MovementGranularity'
p935
g6
sa(dp936
S'EventTime'
p937
S'82531817'
p938
sg4
L1449715522861L
sS'recordCount'
p939
g6
sS'EventType'
p940
S'TYPE_VIEW_TEXT_SELECTION_CHANGED'
p941
sS'PackageName'
p942
S'com.example.myfristandroid'
p943
sS'OutBounds'
p944
S'Rect(300, 540 - 1065, 630)'
p945
sS'Action'
p946
S'[ ClassName: android.widget.EditText; Text: [\xe7\xb3\xbb\xe7\xbb\x9f]; ContentDescription: null; ItemCount: 2; CurrentItemIndex: -1; IsEnabled: true; IsPassword: false; IsChecked: false; IsFullScreen: false; Scrollable: false; BeforeText: null; FromIndex: 2; ToIndex: 2; ScrollX: -1; ScrollY: -1; MaxScrollX: -1; MaxScrollY: -1; AddedCount: -1; RemovedCount: -1; ParcelableData: null ]'
p947
sS'MovementGranularity'
p948
g6
sa(dp949
S'EventTime'
p950
S'82531971'
p951
sg4
L1449715522994L
sS'recordCount'
p952
g6
sS'EventType'
p953
S'TYPE_VIEW_TEXT_CHANGED'
p954
sS'PackageName'
p955
S'com.example.myfristandroid'
p956
sS'OutBounds'
p957
S'Rect(300, 540 - 1065, 630)'
p958
sS'Action'
p959
S'[ ClassName: android.widget.EditText; Text: [\xe7\xb3\xbb]; ContentDescription: null; ItemCount: -1; CurrentItemIndex: -1; IsEnabled: true; IsPassword: false; IsChecked: false; IsFullScreen: false; Scrollable: false; BeforeText: \xe7\xb3\xbb\xe7\xbb\x9f; FromIndex: 1; ToIndex: -1; ScrollX: -1; ScrollY: -1; MaxScrollX: -1; MaxScrollY: -1; AddedCount: 0; RemovedCount: 1; ParcelableData: null ]'
p960
sS'MovementGranularity'
p961
g6
sa(dp962
S'EventTime'
p963
S'82531972'
p964
sg4
L1449715523017L
sS'recordCount'
p965
g6
sS'EventType'
p966
S'TYPE_VIEW_TEXT_SELECTION_CHANGED'
p967
sS'PackageName'
p968
S'com.example.myfristandroid'
p969
sS'OutBounds'
p970
S'Rect(300, 540 - 1065, 630)'
p971
sS'Action'
p972
S'[ ClassName: android.widget.EditText; Text: [\xe7\xb3\xbb]; ContentDescription: null; ItemCount: 1; CurrentItemIndex: -1; IsEnabled: true; IsPassword: false; IsChecked: false; IsFullScreen: false; Scrollable: false; BeforeText: null; FromIndex: 1; ToIndex: 1; ScrollX: -1; ScrollY: -1; MaxScrollX: -1; MaxScrollY: -1; AddedCount: -1; RemovedCount: -1; ParcelableData: null ]'
p973
sS'MovementGranularity'
p974
g6
sa(dp975
S'EventTime'
p976
S'82532116'
p977
sg4
L1449715523139L
sS'recordCount'
p978
g6
sS'EventType'
p979
S'TYPE_VIEW_TEXT_CHANGED'
p980
sS'PackageName'
p981
S'com.example.myfristandroid'
p982
sS'OutBounds'
p983
S'Rect(300, 540 - 1065, 630)'
p984
sS'Action'
p985
S'[ ClassName: android.widget.EditText; Text: [\xe7\x94\xa8\xe6\x88\xb7\xe5\x90\x8d]; ContentDescription: null; ItemCount: -1; CurrentItemIndex: -1; IsEnabled: true; IsPassword: false; IsChecked: false; IsFullScreen: false; Scrollable: false; BeforeText: \xe7\xb3\xbb; FromIndex: 0; ToIndex: -1; ScrollX: -1; ScrollY: -1; MaxScrollX: -1; MaxScrollY: -1; AddedCount: 0; RemovedCount: 1; ParcelableData: null ]'
p986
sS'MovementGranularity'
p987
g6
sa(dp988
S'EventTime'
p989
S'82532118'
p990
sg4
L1449715523166L
sS'recordCount'
p991
g6
sS'EventType'
p992
S'TYPE_VIEW_TEXT_SELECTION_CHANGED'
p993
sS'PackageName'
p994
S'com.example.myfristandroid'
p995
sS'OutBounds'
p996
S'Rect(300, 540 - 1065, 630)'
p997
sS'Action'
p998
S'[ ClassName: android.widget.EditText; Text: [\xe7\x94\xa8\xe6\x88\xb7\xe5\x90\x8d]; ContentDescription: null; ItemCount: 0; CurrentItemIndex: -1; IsEnabled: true; IsPassword: false; IsChecked: false; IsFullScreen: false; Scrollable: false; BeforeText: null; FromIndex: 0; ToIndex: 0; ScrollX: -1; ScrollY: -1; MaxScrollX: -1; MaxScrollY: -1; AddedCount: -1; RemovedCount: -1; ParcelableData: null ]'
p999
sS'MovementGranularity'
p1000
g6
sa(dp1001
S'EventTime'
p1002
S'82533355'
p1003
sg4
L1449715524379L
sS'recordCount'
p1004
g6
sS'EventType'
p1005
S'TYPE_VIEW_TEXT_CHANGED'
p1006
sS'PackageName'
p1007
S'com.example.myfristandroid'
p1008
sS'OutBounds'
p1009
S'Rect(300, 540 - 1065, 630)'
p1010
sS'Action'
p1011
S'[ ClassName: android.widget.EditText; Text: [1]; ContentDescription: null; ItemCount: -1; CurrentItemIndex: -1; IsEnabled: true; IsPassword: false; IsChecked: false; IsFullScreen: false; Scrollable: false; BeforeText: ; FromIndex: 0; ToIndex: -1; ScrollX: -1; ScrollY: -1; MaxScrollX: -1; MaxScrollY: -1; AddedCount: 1; RemovedCount: 0; ParcelableData: null ]'
p1012
sS'MovementGranularity'
p1013
g6
sa(dp1014
S'EventTime'
p1015
S'82533357'
p1016
sg4
L1449715524396L
sS'recordCount'
p1017
g6
sS'EventType'
p1018
S'TYPE_VIEW_TEXT_SELECTION_CHANGED'
p1019
sS'PackageName'
p1020
S'com.example.myfristandroid'
p1021
sS'OutBounds'
p1022
S'Rect(300, 540 - 1065, 630)'
p1023
sS'Action'
p1024
S'[ ClassName: android.widget.EditText; Text: [1]; ContentDescription: null; ItemCount: 1; CurrentItemIndex: -1; IsEnabled: true; IsPassword: false; IsChecked: false; IsFullScreen: false; Scrollable: false; BeforeText: null; FromIndex: 1; ToIndex: 1; ScrollX: -1; ScrollY: -1; MaxScrollX: -1; MaxScrollY: -1; AddedCount: -1; RemovedCount: -1; ParcelableData: null ]'
p1025
sS'MovementGranularity'
p1026
g6
sa(dp1027
S'EventTime'
p1028
S'82533532'
p1029
sg4
L1449715524556L
sS'recordCount'
p1030
g6
sS'EventType'
p1031
S'TYPE_VIEW_TEXT_CHANGED'
p1032
sS'PackageName'
p1033
S'com.example.myfristandroid'
p1034
sS'OutBounds'
p1035
S'Rect(300, 540 - 1065, 630)'
p1036
sS'Action'
p1037
S'[ ClassName: android.widget.EditText; Text: [12]; ContentDescription: null; ItemCount: -1; CurrentItemIndex: -1; IsEnabled: true; IsPassword: false; IsChecked: false; IsFullScreen: false; Scrollable: false; BeforeText: 1; FromIndex: 1; ToIndex: -1; ScrollX: -1; ScrollY: -1; MaxScrollX: -1; MaxScrollY: -1; AddedCount: 1; RemovedCount: 0; ParcelableData: null ]'
p1038
sS'MovementGranularity'
p1039
g6
sa(dp1040
S'EventTime'
p1041
S'82533534'
p1042
sg4
L1449715524572L
sS'recordCount'
p1043
g6
sS'EventType'
p1044
S'TYPE_VIEW_TEXT_SELECTION_CHANGED'
p1045
sS'PackageName'
p1046
S'com.example.myfristandroid'
p1047
sS'OutBounds'
p1048
S'Rect(300, 540 - 1065, 630)'
p1049
sS'Action'
p1050
S'[ ClassName: android.widget.EditText; Text: [12]; ContentDescription: null; ItemCount: 2; CurrentItemIndex: -1; IsEnabled: true; IsPassword: false; IsChecked: false; IsFullScreen: false; Scrollable: false; BeforeText: null; FromIndex: 2; ToIndex: 2; ScrollX: -1; ScrollY: -1; MaxScrollX: -1; MaxScrollY: -1; AddedCount: -1; RemovedCount: -1; ParcelableData: null ]'
p1051
sS'MovementGranularity'
p1052
g6
sa(dp1053
S'EventTime'
p1054
S'82533701'
p1055
sg4
L1449715524724L
sS'recordCount'
p1056
g6
sS'EventType'
p1057
S'TYPE_VIEW_TEXT_CHANGED'
p1058
sS'PackageName'
p1059
S'com.example.myfristandroid'
p1060
sS'OutBounds'
p1061
S'Rect(300, 540 - 1065, 630)'
p1062
sS'Action'
p1063
S'[ ClassName: android.widget.EditText; Text: [123]; ContentDescription: null; ItemCount: -1; CurrentItemIndex: -1; IsEnabled: true; IsPassword: false; IsChecked: false; IsFullScreen: false; Scrollable: false; BeforeText: 12; FromIndex: 2; ToIndex: -1; ScrollX: -1; ScrollY: -1; MaxScrollX: -1; MaxScrollY: -1; AddedCount: 1; RemovedCount: 0; ParcelableData: null ]'
p1064
sS'MovementGranularity'
p1065
g6
sa(dp1066
S'EventTime'
p1067
S'82533703'
p1068
sg4
L1449715524740L
sS'recordCount'
p1069
g6
sS'EventType'
p1070
S'TYPE_VIEW_TEXT_SELECTION_CHANGED'
p1071
sS'PackageName'
p1072
S'com.example.myfristandroid'
p1073
sS'OutBounds'
p1074
S'Rect(300, 540 - 1065, 630)'
p1075
sS'Action'
p1076
S'[ ClassName: android.widget.EditText; Text: [123]; ContentDescription: null; ItemCount: 3; CurrentItemIndex: -1; IsEnabled: true; IsPassword: false; IsChecked: false; IsFullScreen: false; Scrollable: false; BeforeText: null; FromIndex: 3; ToIndex: 3; ScrollX: -1; ScrollY: -1; MaxScrollX: -1; MaxScrollY: -1; AddedCount: -1; RemovedCount: -1; ParcelableData: null ]'
p1077
sS'MovementGranularity'
p1078
g6
sa(dp1079
S'EventTime'
p1080
S'82534231'
p1081
sg4
L1449715525255L
sS'recordCount'
p1082
g6
sS'EventType'
p1083
S'TYPE_WINDOW_CONTENT_CHANGED'
p1084
sS'PackageName'
p1085
S'com.example.myfristandroid'
p1086
sS'OutBounds'
p1087
S'Rect(300, 540 - 1065, 630)'
p1088
sS'Action'
p1089
S'[ ClassName: android.widget.EditText; Text: []; ContentDescription: null; ItemCount: -1; CurrentItemIndex: -1; IsEnabled: true; IsPassword: false; IsChecked: false; IsFullScreen: false; Scrollable: false; BeforeText: null; FromIndex: -1; ToIndex: -1; ScrollX: -1; ScrollY: -1; MaxScrollX: -1; MaxScrollY: -1; AddedCount: -1; RemovedCount: -1; ParcelableData: null ]'
p1090
sS'MovementGranularity'
p1091
g6
sa(dp1092
S'EventTime'
p1093
S'82534234'
p1094
sg4
L1449715525274L
sS'recordCount'
p1095
g6
sS'EventType'
p1096
S'TYPE_VIEW_FOCUSED'
p1097
sS'PackageName'
p1098
S'com.example.myfristandroid'
p1099
sS'OutBounds'
p1100
S'Rect(300, 645 - 1065, 735)'
p1101
sS'Action'
p1102
S'[ ClassName: android.widget.EditText; Text: []; ContentDescription: null; ItemCount: 10; CurrentItemIndex: 4; IsEnabled: true; IsPassword: true; IsChecked: false; IsFullScreen: false; Scrollable: false; BeforeText: null; FromIndex: -1; ToIndex: -1; ScrollX: -1; ScrollY: -1; MaxScrollX: -1; MaxScrollY: -1; AddedCount: -1; RemovedCount: -1; ParcelableData: null ]'
p1103
sS'MovementGranularity'
p1104
g6
sa(dp1105
S'EventTime'
p1106
S'82535579'
p1107
sg4
L1449715526605L
sS'recordCount'
p1108
g6
sS'EventType'
p1109
S'TYPE_VIEW_TEXT_CHANGED'
p1110
sS'PackageName'
p1111
S'com.example.myfristandroid'
p1112
sS'OutBounds'
p1113
S'Rect(300, 645 - 1065, 735)'
p1114
sS'Action'
p1115
S'[ ClassName: android.widget.EditText; Text: []; ContentDescription: null; ItemCount: -1; CurrentItemIndex: -1; IsEnabled: true; IsPassword: true; IsChecked: false; IsFullScreen: false; Scrollable: false; BeforeText: null; FromIndex: 0; ToIndex: -1; ScrollX: -1; ScrollY: -1; MaxScrollX: -1; MaxScrollY: -1; AddedCount: 1; RemovedCount: 0; ParcelableData: null ]'
p1116
sS'MovementGranularity'
p1117
g6
sa(dp1118
S'EventTime'
p1119
S'82535585'
p1120
sg4
L1449715526627L
sS'recordCount'
p1121
g6
sS'EventType'
p1122
S'TYPE_VIEW_TEXT_SELECTION_CHANGED'
p1123
sS'PackageName'
p1124
S'com.example.myfristandroid'
p1125
sS'OutBounds'
p1126
S'Rect(300, 645 - 1065, 735)'
p1127
sS'Action'
p1128
S'[ ClassName: android.widget.EditText; Text: []; ContentDescription: null; ItemCount: 1; CurrentItemIndex: -1; IsEnabled: true; IsPassword: true; IsChecked: false; IsFullScreen: false; Scrollable: false; BeforeText: null; FromIndex: 1; ToIndex: 1; ScrollX: -1; ScrollY: -1; MaxScrollX: -1; MaxScrollY: -1; AddedCount: -1; RemovedCount: -1; ParcelableData: null ]'
p1129
sS'MovementGranularity'
p1130
g6
sa(dp1131
S'EventTime'
p1132
S'82535739'
p1133
sg4
L1449715526761L
sS'recordCount'
p1134
g6
sS'EventType'
p1135
S'TYPE_VIEW_TEXT_CHANGED'
p1136
sS'PackageName'
p1137
S'com.example.myfristandroid'
p1138
sS'OutBounds'
p1139
S'Rect(300, 645 - 1065, 735)'
p1140
sS'Action'
p1141
S'[ ClassName: android.widget.EditText; Text: []; ContentDescription: null; ItemCount: -1; CurrentItemIndex: -1; IsEnabled: true; IsPassword: true; IsChecked: false; IsFullScreen: false; Scrollable: false; BeforeText: null; FromIndex: 1; ToIndex: -1; ScrollX: -1; ScrollY: -1; MaxScrollX: -1; MaxScrollY: -1; AddedCount: 1; RemovedCount: 0; ParcelableData: null ]'
p1142
sS'MovementGranularity'
p1143
g6
sa(dp1144
S'EventTime'
p1145
S'82535742'
p1146
sg4
L1449715526772L
sS'recordCount'
p1147
g6
sS'EventType'
p1148
S'TYPE_VIEW_TEXT_SELECTION_CHANGED'
p1149
sS'PackageName'
p1150
S'com.example.myfristandroid'
p1151
sS'OutBounds'
p1152
S'Rect(300, 645 - 1065, 735)'
p1153
sS'Action'
p1154
S'[ ClassName: android.widget.EditText; Text: []; ContentDescription: null; ItemCount: 2; CurrentItemIndex: -1; IsEnabled: true; IsPassword: true; IsChecked: false; IsFullScreen: false; Scrollable: false; BeforeText: null; FromIndex: 2; ToIndex: 2; ScrollX: -1; ScrollY: -1; MaxScrollX: -1; MaxScrollY: -1; AddedCount: -1; RemovedCount: -1; ParcelableData: null ]'
p1155
sS'MovementGranularity'
p1156
g6
sa(dp1157
S'EventTime'
p1158
S'82535955'
p1159
sg4
L1449715526978L
sS'recordCount'
p1160
g6
sS'EventType'
p1161
S'TYPE_VIEW_TEXT_CHANGED'
p1162
sS'PackageName'
p1163
S'com.example.myfristandroid'
p1164
sS'OutBounds'
p1165
S'Rect(300, 645 - 1065, 735)'
p1166
sS'Action'
p1167
S'[ ClassName: android.widget.EditText; Text: []; ContentDescription: null; ItemCount: -1; CurrentItemIndex: -1; IsEnabled: true; IsPassword: true; IsChecked: false; IsFullScreen: false; Scrollable: false; BeforeText: null; FromIndex: 2; ToIndex: -1; ScrollX: -1; ScrollY: -1; MaxScrollX: -1; MaxScrollY: -1; AddedCount: 1; RemovedCount: 0; ParcelableData: null ]'
p1168
sS'MovementGranularity'
p1169
g6
sa(dp1170
S'EventTime'
p1171
S'82535958'
p1172
sg4
L1449715526994L
sS'recordCount'
p1173
g6
sS'EventType'
p1174
S'TYPE_VIEW_TEXT_SELECTION_CHANGED'
p1175
sS'PackageName'
p1176
S'com.example.myfristandroid'
p1177
sS'OutBounds'
p1178
S'Rect(300, 645 - 1065, 735)'
p1179
sS'Action'
p1180
S'[ ClassName: android.widget.EditText; Text: []; ContentDescription: null; ItemCount: 3; CurrentItemIndex: -1; IsEnabled: true; IsPassword: true; IsChecked: false; IsFullScreen: false; Scrollable: false; BeforeText: null; FromIndex: 3; ToIndex: 3; ScrollX: -1; ScrollY: -1; MaxScrollX: -1; MaxScrollY: -1; AddedCount: -1; RemovedCount: -1; ParcelableData: null ]'
p1181
sS'MovementGranularity'
p1182
g6
sa(dp1183
S'EventTime'
p1184
S'82536818'
p1185
sg4
L1449715527840L
sS'recordCount'
p1186
g6
sS'EventType'
p1187
S'TYPE_VIEW_CLICKED'
p1188
sS'PackageName'
p1189
S'com.example.myfristandroid'
p1190
sS'OutBounds'
p1191
S'Rect(330, 750 - 750, 818)'
p1192
sS'Action'
p1193
S'[ ClassName: android.widget.Button; Text: [\xe7\x99\xbb\xe5\xbd\x95]; ContentDescription: null; ItemCount: -1; CurrentItemIndex: -1; IsEnabled: true; IsPassword: false; IsChecked: false; IsFullScreen: false; Scrollable: false; BeforeText: null; FromIndex: -1; ToIndex: -1; ScrollX: -1; ScrollY: -1; MaxScrollX: -1; MaxScrollY: -1; AddedCount: -1; RemovedCount: -1; ParcelableData: null ]'
p1194
sS'MovementGranularity'
p1195
g6
sa(dp1196
S'EventTime'
p1197
S'82537983'
p1198
sg4
L1449715529073L
sS'recordCount'
p1199
g6
sS'EventType'
p1200
S'TYPE_WINDOW_STATE_CHANGED'
p1201
sS'PackageName'
p1202
S'com.example.myfristandroid'
p1203
sS'OutBounds'
p1204
S'Rect(0, 0 - 1080, 1803)'
p1205
sS'Action'
p1206
S'[ ClassName: com.example.myfristandroid.HuzAlertDialog; Text: [\xe6\x8f\x90\xe7\xa4\xba, \xe7\x99\xbb\xe5\xbd\x95\xe5\xa4\xb1\xe8\xb4\xa5\xef\xbc\x8c\xe7\x94\xa8\xe6\x88\xb7\xe5\x90\x8d\xe4\xb8\x8d\xe5\xad\x98\xe5\x9c\xa8, \xe7\xa1\xae\xe5\xae\x9a]; ContentDescription: null; ItemCount: -1; CurrentItemIndex: -1; IsEnabled: true; IsPassword: false; IsChecked: false; IsFullScreen: true; Scrollable: false; BeforeText: null; FromIndex: -1; ToIndex: -1; ScrollX: -1; ScrollY: -1; MaxScrollX: -1; MaxScrollY: -1; AddedCount: -1; RemovedCount: -1; ParcelableData: null ]'
p1207
sS'MovementGranularity'
p1208
g6
sa(dp1209
S'EventTime'
p1210
S'82538150'
p1211
sg4
L1449715529179L
sS'recordCount'
p1212
g6
sS'EventType'
p1213
S'TYPE_WINDOW_CONTENT_CHANGED'
p1214
sS'PackageName'
p1215
S'com.example.myfristandroid'
p1216
sS'OutBounds'
p1217
S'Rect(305, 1004 - 780, 1148)'
p1218
sS'Action'
p1219
S'[ ClassName: android.widget.Button; Text: []; ContentDescription: null; ItemCount: -1; CurrentItemIndex: -1; IsEnabled: true; IsPassword: false; IsChecked: false; IsFullScreen: false; Scrollable: false; BeforeText: null; FromIndex: -1; ToIndex: -1; ScrollX: -1; ScrollY: -1; MaxScrollX: -1; MaxScrollY: -1; AddedCount: -1; RemovedCount: -1; ParcelableData: null ]'
p1220
sS'MovementGranularity'
p1221
g6
sa(dp1222
S'EventTime'
p1223
S'82538914'
p1224
sg4
L1449715529935L
sS'recordCount'
p1225
g6
sS'EventType'
p1226
S'TYPE_VIEW_CLICKED'
p1227
sS'PackageName'
p1228
S'com.example.myfristandroid'
p1229
sS'Action'
p1230
S'[ ClassName: android.widget.Button; Text: [\xe7\xa1\xae\xe5\xae\x9a]; ContentDescription: null; ItemCount: -1; CurrentItemIndex: -1; IsEnabled: true; IsPassword: false; IsChecked: false; IsFullScreen: false; Scrollable: false; BeforeText: null; FromIndex: -1; ToIndex: -1; ScrollX: -1; ScrollY: -1; MaxScrollX: -1; MaxScrollY: -1; AddedCount: -1; RemovedCount: -1; ParcelableData: null ]'
p1231
sS'MovementGranularity'
p1232
g6
sa(dp1233
S'EventTime'
p1234
S'82538945'
p1235
sg4
L1449715529977L
sS'recordCount'
p1236
g6
sS'EventType'
p1237
S'TYPE_WINDOW_STATE_CHANGED'
p1238
sS'PackageName'
p1239
S'com.example.myfristandroid'
p1240
sS'OutBounds'
p1241
S'Rect(0, 0 - 1080, 1803)'
p1242
sS'Action'
p1243
S'[ ClassName: com.example.myfristandroid.MainActivity; Text: [SE-1800\xe7\xa7\xbb\xe5\x8a\xa8APP]; ContentDescription: null; ItemCount: -1; CurrentItemIndex: -1; IsEnabled: true; IsPassword: false; IsChecked: false; IsFullScreen: true; Scrollable: false; BeforeText: null; FromIndex: -1; ToIndex: -1; ScrollX: -1; ScrollY: -1; MaxScrollX: -1; MaxScrollY: -1; AddedCount: -1; RemovedCount: -1; ParcelableData: null ]'
p1244
sS'MovementGranularity'
p1245
g6
sa(dp1246
S'EventTime'
p1247
S'82557662'
p1248
sg4
L1449715548697L
sS'recordCount'
p1249
g6
sS'EventType'
p1250
S'TYPE_WINDOW_STATE_CHANGED'
p1251
sS'PackageName'
p1252
S'com.example.myfristandroid'
p1253
sS'OutBounds'
p1254
S'Rect(0, 0 - 1080, 1803)'
p1255
sS'Action'
p1256
S'[ ClassName: com.example.myfristandroid.MainActivity; Text: [SE-1800\xe7\xa7\xbb\xe5\x8a\xa8APP]; ContentDescription: null; ItemCount: -1; CurrentItemIndex: -1; IsEnabled: true; IsPassword: false; IsChecked: false; IsFullScreen: true; Scrollable: false; BeforeText: null; FromIndex: -1; ToIndex: -1; ScrollX: -1; ScrollY: -1; MaxScrollX: -1; MaxScrollY: -1; AddedCount: -1; RemovedCount: -1; ParcelableData: null ]'
p1257
sS'MovementGranularity'
p1258
g6
sa(dp1259
S'EventTime'
p1260
S'82560326'
p1261
sg4
L1449715551389L
sS'recordCount'
p1262
g6
sS'EventType'
p1263
S'TYPE_WINDOW_CONTENT_CHANGED'
p1264
sS'PackageName'
p1265
S'com.example.myfristandroid'
p1266
sS'OutBounds'
p1267
S'Rect(300, 645 - 1065, 735)'
p1268
sS'Action'
p1269
S'[ ClassName: android.widget.EditText; Text: []; ContentDescription: null; ItemCount: -1; CurrentItemIndex: -1; IsEnabled: true; IsPassword: true; IsChecked: false; IsFullScreen: false; Scrollable: false; BeforeText: null; FromIndex: -1; ToIndex: -1; ScrollX: -1; ScrollY: -1; MaxScrollX: -1; MaxScrollY: -1; AddedCount: -1; RemovedCount: -1; ParcelableData: null ]'
p1270
sS'MovementGranularity'
p1271
g6
sa(dp1272
S'EventTime'
p1273
S'82560328'
p1274
sg4
L1449715551416L
sS'recordCount'
p1275
g6
sS'EventType'
p1276
S'TYPE_VIEW_FOCUSED'
p1277
sS'PackageName'
p1278
S'com.example.myfristandroid'
p1279
sS'OutBounds'
p1280
S'Rect(300, 540 - 1065, 630)'
p1281
sS'Action'
p1282
S'[ ClassName: android.widget.EditText; Text: [123]; ContentDescription: null; ItemCount: 10; CurrentItemIndex: 3; IsEnabled: true; IsPassword: false; IsChecked: false; IsFullScreen: false; Scrollable: false; BeforeText: null; FromIndex: -1; ToIndex: -1; ScrollX: -1; ScrollY: -1; MaxScrollX: -1; MaxScrollY: -1; AddedCount: -1; RemovedCount: -1; ParcelableData: null ]'
p1283
sS'MovementGranularity'
p1284
g6
sa(dp1285
S'EventTime'
p1286
S'82608245'
p1287
sg4
L1449715599295L
sS'recordCount'
p1288
g6
sS'EventType'
p1289
S'TYPE_VIEW_CLICKED'
p1290
sS'PackageName'
p1291
S'com.example.myfristandroid'
p1292
sS'OutBounds'
p1293
S'Rect(300, 540 - 1065, 630)'
p1294
sS'Action'
p1295
S'[ ClassName: android.widget.EditText; Text: [123]; ContentDescription: null; ItemCount: -1; CurrentItemIndex: -1; IsEnabled: true; IsPassword: false; IsChecked: false; IsFullScreen: false; Scrollable: false; BeforeText: null; FromIndex: -1; ToIndex: -1; ScrollX: -1; ScrollY: -1; MaxScrollX: -1; MaxScrollY: -1; AddedCount: -1; RemovedCount: -1; ParcelableData: null ]'
p1296
sS'MovementGranularity'
p1297
g6
sa(dp1298
S'EventTime'
p1299
S'82609652'
p1300
sg4
L1449715600680L
sS'recordCount'
p1301
g6
sS'EventType'
p1302
S'TYPE_VIEW_TEXT_CHANGED'
p1303
sS'PackageName'
p1304
S'com.example.myfristandroid'
p1305
sS'OutBounds'
p1306
S'Rect(300, 540 - 1065, 630)'
p1307
sS'Action'
p1308
S'[ ClassName: android.widget.EditText; Text: [12]; ContentDescription: null; ItemCount: -1; CurrentItemIndex: -1; IsEnabled: true; IsPassword: false; IsChecked: false; IsFullScreen: false; Scrollable: false; BeforeText: 123; FromIndex: 2; ToIndex: -1; ScrollX: -1; ScrollY: -1; MaxScrollX: -1; MaxScrollY: -1; AddedCount: 0; RemovedCount: 1; ParcelableData: null ]'
p1309
sS'MovementGranularity'
p1310
g6
sa(dp1311
S'EventTime'
p1312
S'82609653'
p1313
sg4
L1449715600698L
sS'recordCount'
p1314
g6
sS'EventType'
p1315
S'TYPE_VIEW_TEXT_SELECTION_CHANGED'
p1316
sS'PackageName'
p1317
S'com.example.myfristandroid'
p1318
sS'OutBounds'
p1319
S'Rect(300, 540 - 1065, 630)'
p1320
sS'Action'
p1321
S'[ ClassName: android.widget.EditText; Text: [12]; ContentDescription: null; ItemCount: 2; CurrentItemIndex: -1; IsEnabled: true; IsPassword: false; IsChecked: false; IsFullScreen: false; Scrollable: false; BeforeText: null; FromIndex: 2; ToIndex: 2; ScrollX: -1; ScrollY: -1; MaxScrollX: -1; MaxScrollY: -1; AddedCount: -1; RemovedCount: -1; ParcelableData: null ]'
p1322
sS'MovementGranularity'
p1323
g6
sa(dp1324
S'EventTime'
p1325
S'82609810'
p1326
sg4
L1449715600833L
sS'recordCount'
p1327
g6
sS'EventType'
p1328
S'TYPE_VIEW_TEXT_CHANGED'
p1329
sS'PackageName'
p1330
S'com.example.myfristandroid'
p1331
sS'OutBounds'
p1332
S'Rect(300, 540 - 1065, 630)'
p1333
sS'Action'
p1334
S'[ ClassName: android.widget.EditText; Text: [1]; ContentDescription: null; ItemCount: -1; CurrentItemIndex: -1; IsEnabled: true; IsPassword: false; IsChecked: false; IsFullScreen: false; Scrollable: false; BeforeText: 12; FromIndex: 1; ToIndex: -1; ScrollX: -1; ScrollY: -1; MaxScrollX: -1; MaxScrollY: -1; AddedCount: 0; RemovedCount: 1; ParcelableData: null ]'
p1335
sS'MovementGranularity'
p1336
g6
sa(dp1337
S'EventTime'
p1338
S'82609812'
p1339
sg4
L1449715600854L
sS'recordCount'
p1340
g6
sS'EventType'
p1341
S'TYPE_VIEW_TEXT_SELECTION_CHANGED'
p1342
sS'PackageName'
p1343
S'com.example.myfristandroid'
p1344
sS'OutBounds'
p1345
S'Rect(300, 540 - 1065, 630)'
p1346
sS'Action'
p1347
S'[ ClassName: android.widget.EditText; Text: [1]; ContentDescription: null; ItemCount: 1; CurrentItemIndex: -1; IsEnabled: true; IsPassword: false; IsChecked: false; IsFullScreen: false; Scrollable: false; BeforeText: null; FromIndex: 1; ToIndex: 1; ScrollX: -1; ScrollY: -1; MaxScrollX: -1; MaxScrollY: -1; AddedCount: -1; RemovedCount: -1; ParcelableData: null ]'
p1348
sS'MovementGranularity'
p1349
g6
sa(dp1350
S'EventTime'
p1351
S'82610013'
p1352
sg4
L1449715601036L
sS'recordCount'
p1353
g6
sS'EventType'
p1354
S'TYPE_VIEW_TEXT_CHANGED'
p1355
sS'PackageName'
p1356
S'com.example.myfristandroid'
p1357
sS'OutBounds'
p1358
S'Rect(300, 540 - 1065, 630)'
p1359
sS'Action'
p1360
S'[ ClassName: android.widget.EditText; Text: [\xe7\x94\xa8\xe6\x88\xb7\xe5\x90\x8d]; ContentDescription: null; ItemCount: -1; CurrentItemIndex: -1; IsEnabled: true; IsPassword: false; IsChecked: false; IsFullScreen: false; Scrollable: false; BeforeText: 1; FromIndex: 0; ToIndex: -1; ScrollX: -1; ScrollY: -1; MaxScrollX: -1; MaxScrollY: -1; AddedCount: 0; RemovedCount: 1; ParcelableData: null ]'
p1361
sS'MovementGranularity'
p1362
g6
sa(dp1363
S'EventTime'
p1364
S'82610015'
p1365
sg4
L1449715601052L
sS'recordCount'
p1366
g6
sS'EventType'
p1367
S'TYPE_VIEW_TEXT_SELECTION_CHANGED'
p1368
sS'PackageName'
p1369
S'com.example.myfristandroid'
p1370
sS'OutBounds'
p1371
S'Rect(300, 540 - 1065, 630)'
p1372
sS'Action'
p1373
S'[ ClassName: android.widget.EditText; Text: [\xe7\x94\xa8\xe6\x88\xb7\xe5\x90\x8d]; ContentDescription: null; ItemCount: 0; CurrentItemIndex: -1; IsEnabled: true; IsPassword: false; IsChecked: false; IsFullScreen: false; Scrollable: false; BeforeText: null; FromIndex: 0; ToIndex: 0; ScrollX: -1; ScrollY: -1; MaxScrollX: -1; MaxScrollY: -1; AddedCount: -1; RemovedCount: -1; ParcelableData: null ]'
p1374
sS'MovementGranularity'
p1375
g6
sa(dp1376
S'EventTime'
p1377
S'82613225'
p1378
sg4
L1449715604251L
sS'recordCount'
p1379
g6
sS'EventType'
p1380
S'TYPE_VIEW_TEXT_CHANGED'
p1381
sS'PackageName'
p1382
S'com.example.myfristandroid'
p1383
sS'OutBounds'
p1384
S'Rect(300, 540 - 1065, 630)'
p1385
sS'Action'
p1386
S'[ ClassName: android.widget.EditText; Text: [\xe7\xb3\xbb\xe7\xbb\x9f]; ContentDescription: null; ItemCount: -1; CurrentItemIndex: -1; IsEnabled: true; IsPassword: false; IsChecked: false; IsFullScreen: false; Scrollable: false; BeforeText: ; FromIndex: 0; ToIndex: -1; ScrollX: -1; ScrollY: -1; MaxScrollX: -1; MaxScrollY: -1; AddedCount: 2; RemovedCount: 0; ParcelableData: null ]'
p1387
sS'MovementGranularity'
p1388
g6
sa(dp1389
S'EventTime'
p1390
S'82613228'
p1391
sg4
L1449715604263L
sS'recordCount'
p1392
g6
sS'EventType'
p1393
S'TYPE_VIEW_TEXT_SELECTION_CHANGED'
p1394
sS'PackageName'
p1395
S'com.example.myfristandroid'
p1396
sS'OutBounds'
p1397
S'Rect(300, 540 - 1065, 630)'
p1398
sS'Action'
p1399
S'[ ClassName: android.widget.EditText; Text: [\xe7\xb3\xbb\xe7\xbb\x9f]; ContentDescription: null; ItemCount: 2; CurrentItemIndex: -1; IsEnabled: true; IsPassword: false; IsChecked: false; IsFullScreen: false; Scrollable: false; BeforeText: null; FromIndex: 2; ToIndex: 2; ScrollX: -1; ScrollY: -1; MaxScrollX: -1; MaxScrollY: -1; AddedCount: -1; RemovedCount: -1; ParcelableData: null ]'
p1400
sS'MovementGranularity'
p1401
g6
sa(dp1402
S'EventTime'
p1403
S'82615178'
p1404
sg4
L1449715606203L
sS'recordCount'
p1405
g6
sS'EventType'
p1406
S'TYPE_VIEW_TEXT_CHANGED'
p1407
sS'PackageName'
p1408
S'com.example.myfristandroid'
p1409
sS'OutBounds'
p1410
S'Rect(300, 540 - 1065, 630)'
p1411
sS'Action'
p1412
S'[ ClassName: android.widget.EditText; Text: [\xe7\xb3\xbb\xe7\xbb\x9f\xe7\xae\xa1\xe7\x90\x86]; ContentDescription: null; ItemCount: -1; CurrentItemIndex: -1; IsEnabled: true; IsPassword: false; IsChecked: false; IsFullScreen: false; Scrollable: false; BeforeText: \xe7\xb3\xbb\xe7\xbb\x9f; FromIndex: 2; ToIndex: -1; ScrollX: -1; ScrollY: -1; MaxScrollX: -1; MaxScrollY: -1; AddedCount: 2; RemovedCount: 0; ParcelableData: null ]'
p1413
sS'MovementGranularity'
p1414
g6
sa(dp1415
S'EventTime'
p1416
S'82615181'
p1417
sg4
L1449715606214L
sS'recordCount'
p1418
g6
sS'EventType'
p1419
S'TYPE_VIEW_TEXT_SELECTION_CHANGED'
p1420
sS'PackageName'
p1421
S'com.example.myfristandroid'
p1422
sS'OutBounds'
p1423
S'Rect(300, 540 - 1065, 630)'
p1424
sS'Action'
p1425
S'[ ClassName: android.widget.EditText; Text: [\xe7\xb3\xbb\xe7\xbb\x9f\xe7\xae\xa1\xe7\x90\x86]; ContentDescription: null; ItemCount: 4; CurrentItemIndex: -1; IsEnabled: true; IsPassword: false; IsChecked: false; IsFullScreen: false; Scrollable: false; BeforeText: null; FromIndex: 4; ToIndex: 4; ScrollX: -1; ScrollY: -1; MaxScrollX: -1; MaxScrollY: -1; AddedCount: -1; RemovedCount: -1; ParcelableData: null ]'
p1426
sS'MovementGranularity'
p1427
g6
sa(dp1428
S'EventTime'
p1429
S'82616742'
p1430
sg4
L1449715607776L
sS'recordCount'
p1431
g6
sS'EventType'
p1432
S'TYPE_VIEW_TEXT_CHANGED'
p1433
sS'PackageName'
p1434
S'com.example.myfristandroid'
p1435
sS'OutBounds'
p1436
S'Rect(300, 540 - 1065, 630)'
p1437
sS'Action'
p1438
S'[ ClassName: android.widget.EditText; Text: [\xe7\xb3\xbb\xe7\xbb\x9f\xe7\xae\xa1\xe7\x90\x86\xe5\x91\x98]; ContentDescription: null; ItemCount: -1; CurrentItemIndex: -1; IsEnabled: true; IsPassword: false; IsChecked: false; IsFullScreen: false; Scrollable: false; BeforeText: \xe7\xb3\xbb\xe7\xbb\x9f\xe7\xae\xa1\xe7\x90\x86; FromIndex: 4; ToIndex: -1; ScrollX: -1; ScrollY: -1; MaxScrollX: -1; MaxScrollY: -1; AddedCount: 1; RemovedCount: 0; ParcelableData: null ]'
p1439
sS'MovementGranularity'
p1440
g6
sa(dp1441
S'EventTime'
p1442
S'82616751'
p1443
sg4
L1449715607791L
sS'recordCount'
p1444
g6
sS'EventType'
p1445
S'TYPE_VIEW_TEXT_SELECTION_CHANGED'
p1446
sS'PackageName'
p1447
S'com.example.myfristandroid'
p1448
sS'OutBounds'
p1449
S'Rect(300, 540 - 1065, 630)'
p1450
sS'Action'
p1451
S'[ ClassName: android.widget.EditText; Text: [\xe7\xb3\xbb\xe7\xbb\x9f\xe7\xae\xa1\xe7\x90\x86\xe5\x91\x98]; ContentDescription: null; ItemCount: 5; CurrentItemIndex: -1; IsEnabled: true; IsPassword: false; IsChecked: false; IsFullScreen: false; Scrollable: false; BeforeText: null; FromIndex: 5; ToIndex: 5; ScrollX: -1; ScrollY: -1; MaxScrollX: -1; MaxScrollY: -1; AddedCount: -1; RemovedCount: -1; ParcelableData: null ]'
p1452
sS'MovementGranularity'
p1453
g6
sa(dp1454
S'EventTime'
p1455
S'82620028'
p1456
sg4
L1449715611086L
sS'recordCount'
p1457
g6
sS'EventType'
p1458
S'TYPE_WINDOW_CONTENT_CHANGED'
p1459
sS'PackageName'
p1460
S'com.example.myfristandroid'
p1461
sS'OutBounds'
p1462
S'Rect(300, 540 - 1065, 630)'
p1463
sS'Action'
p1464
S'[ ClassName: android.widget.EditText; Text: []; ContentDescription: null; ItemCount: -1; CurrentItemIndex: -1; IsEnabled: true; IsPassword: false; IsChecked: false; IsFullScreen: false; Scrollable: false; BeforeText: null; FromIndex: -1; ToIndex: -1; ScrollX: -1; ScrollY: -1; MaxScrollX: -1; MaxScrollY: -1; AddedCount: -1; RemovedCount: -1; ParcelableData: null ]'
p1465
sS'MovementGranularity'
p1466
g6
sa(dp1467
S'EventTime'
p1468
S'82620030'
p1469
sg4
L1449715611107L
sS'recordCount'
p1470
g6
sS'EventType'
p1471
S'TYPE_VIEW_FOCUSED'
p1472
sS'PackageName'
p1473
S'com.example.myfristandroid'
p1474
sS'OutBounds'
p1475
S'Rect(300, 645 - 1065, 735)'
p1476
sS'Action'
p1477
S'[ ClassName: android.widget.EditText; Text: []; ContentDescription: null; ItemCount: 10; CurrentItemIndex: 4; IsEnabled: true; IsPassword: true; IsChecked: false; IsFullScreen: false; Scrollable: false; BeforeText: null; FromIndex: -1; ToIndex: -1; ScrollX: -1; ScrollY: -1; MaxScrollX: -1; MaxScrollY: -1; AddedCount: -1; RemovedCount: -1; ParcelableData: null ]'
p1478
sS'MovementGranularity'
p1479
g6
sa(dp1480
S'EventTime'
p1481
S'82620909'
p1482
sg4
L1449715611943L
sS'recordCount'
p1483
g6
sS'EventType'
p1484
S'TYPE_VIEW_TEXT_CHANGED'
p1485
sS'PackageName'
p1486
S'com.example.myfristandroid'
p1487
sS'OutBounds'
p1488
S'Rect(300, 645 - 1065, 735)'
p1489
sS'Action'
p1490
S'[ ClassName: android.widget.EditText; Text: []; ContentDescription: null; ItemCount: -1; CurrentItemIndex: -1; IsEnabled: true; IsPassword: true; IsChecked: false; IsFullScreen: false; Scrollable: false; BeforeText: null; FromIndex: 2; ToIndex: -1; ScrollX: -1; ScrollY: -1; MaxScrollX: -1; MaxScrollY: -1; AddedCount: 0; RemovedCount: 1; ParcelableData: null ]'
p1491
sS'MovementGranularity'
p1492
g6
sa(dp1493
S'EventTime'
p1494
S'82620912'
p1495
sg4
L1449715611963L
sS'recordCount'
p1496
g6
sS'EventType'
p1497
S'TYPE_VIEW_TEXT_SELECTION_CHANGED'
p1498
sS'PackageName'
p1499
S'com.example.myfristandroid'
p1500
sS'OutBounds'
p1501
S'Rect(300, 645 - 1065, 735)'
p1502
sS'Action'
p1503
S'[ ClassName: android.widget.EditText; Text: []; ContentDescription: null; ItemCount: 2; CurrentItemIndex: -1; IsEnabled: true; IsPassword: true; IsChecked: false; IsFullScreen: false; Scrollable: false; BeforeText: null; FromIndex: 2; ToIndex: 2; ScrollX: -1; ScrollY: -1; MaxScrollX: -1; MaxScrollY: -1; AddedCount: -1; RemovedCount: -1; ParcelableData: null ]'
p1504
sS'MovementGranularity'
p1505
g6
sa(dp1506
S'EventTime'
p1507
S'82621073'
p1508
sg4
L1449715612095L
sS'recordCount'
p1509
g6
sS'EventType'
p1510
S'TYPE_VIEW_TEXT_CHANGED'
p1511
sS'PackageName'
p1512
S'com.example.myfristandroid'
p1513
sS'OutBounds'
p1514
S'Rect(300, 645 - 1065, 735)'
p1515
sS'Action'
p1516
S'[ ClassName: android.widget.EditText; Text: []; ContentDescription: null; ItemCount: -1; CurrentItemIndex: -1; IsEnabled: true; IsPassword: true; IsChecked: false; IsFullScreen: false; Scrollable: false; BeforeText: null; FromIndex: 1; ToIndex: -1; ScrollX: -1; ScrollY: -1; MaxScrollX: -1; MaxScrollY: -1; AddedCount: 0; RemovedCount: 1; ParcelableData: null ]'
p1517
sS'MovementGranularity'
p1518
g6
sa(dp1519
S'EventTime'
p1520
S'82621075'
p1521
sg4
L1449715612110L
sS'recordCount'
p1522
g6
sS'EventType'
p1523
S'TYPE_VIEW_TEXT_SELECTION_CHANGED'
p1524
sS'PackageName'
p1525
S'com.example.myfristandroid'
p1526
sS'OutBounds'
p1527
S'Rect(300, 645 - 1065, 735)'
p1528
sS'Action'
p1529
S'[ ClassName: android.widget.EditText; Text: []; ContentDescription: null; ItemCount: 1; CurrentItemIndex: -1; IsEnabled: true; IsPassword: true; IsChecked: false; IsFullScreen: false; Scrollable: false; BeforeText: null; FromIndex: 1; ToIndex: 1; ScrollX: -1; ScrollY: -1; MaxScrollX: -1; MaxScrollY: -1; AddedCount: -1; RemovedCount: -1; ParcelableData: null ]'
p1530
sS'MovementGranularity'
p1531
g6
sa(dp1532
S'EventTime'
p1533
S'82621225'
p1534
sg4
L1449715612248L
sS'recordCount'
p1535
g6
sS'EventType'
p1536
S'TYPE_VIEW_TEXT_CHANGED'
p1537
sS'PackageName'
p1538
S'com.example.myfristandroid'
p1539
sS'OutBounds'
p1540
S'Rect(300, 645 - 1065, 735)'
p1541
sS'Action'
p1542
S'[ ClassName: android.widget.EditText; Text: []; ContentDescription: null; ItemCount: -1; CurrentItemIndex: -1; IsEnabled: true; IsPassword: true; IsChecked: false; IsFullScreen: false; Scrollable: false; BeforeText: null; FromIndex: 0; ToIndex: -1; ScrollX: -1; ScrollY: -1; MaxScrollX: -1; MaxScrollY: -1; AddedCount: 0; RemovedCount: 1; ParcelableData: null ]'
p1543
sS'MovementGranularity'
p1544
g6
sa(dp1545
S'EventTime'
p1546
S'82621226'
p1547
sg4
L1449715612265L
sS'recordCount'
p1548
g6
sS'EventType'
p1549
S'TYPE_VIEW_TEXT_SELECTION_CHANGED'
p1550
sS'PackageName'
p1551
S'com.example.myfristandroid'
p1552
sS'OutBounds'
p1553
S'Rect(300, 645 - 1065, 735)'
p1554
sS'Action'
p1555
S'[ ClassName: android.widget.EditText; Text: []; ContentDescription: null; ItemCount: 0; CurrentItemIndex: -1; IsEnabled: true; IsPassword: true; IsChecked: false; IsFullScreen: false; Scrollable: false; BeforeText: null; FromIndex: 0; ToIndex: 0; ScrollX: -1; ScrollY: -1; MaxScrollX: -1; MaxScrollY: -1; AddedCount: -1; RemovedCount: -1; ParcelableData: null ]'
p1556
sS'MovementGranularity'
p1557
g6
sa(dp1558
S'EventTime'
p1559
S'82625704'
p1560
sg4
L1449715616733L
sS'recordCount'
p1561
g6
sS'EventType'
p1562
S'TYPE_VIEW_CLICKED'
p1563
sS'PackageName'
p1564
S'com.example.myfristandroid'
p1565
sS'OutBounds'
p1566
S'Rect(330, 750 - 750, 840)'
p1567
sS'Action'
p1568
S'[ ClassName: android.widget.Button; Text: [\xe7\x99\xbb\xe5\xbd\x95]; ContentDescription: null; ItemCount: -1; CurrentItemIndex: -1; IsEnabled: true; IsPassword: false; IsChecked: false; IsFullScreen: false; Scrollable: false; BeforeText: null; FromIndex: -1; ToIndex: -1; ScrollX: -1; ScrollY: -1; MaxScrollX: -1; MaxScrollY: -1; AddedCount: -1; RemovedCount: -1; ParcelableData: null ]'
p1569
sS'MovementGranularity'
p1570
g6
sa(dp1571
S'EventTime'
p1572
S'82625994'
p1573
sg4
L1449715617016L
sS'recordCount'
p1574
g6
sS'EventType'
p1575
S'TYPE_WINDOW_CONTENT_CHANGED'
p1576
sS'PackageName'
p1577
S'com.example.myfristandroid'
p1578
sS'OutBounds'
p1579
S'Rect(300, 645 - 1065, 735)'
p1580
sS'Action'
p1581
S'[ ClassName: android.widget.EditText; Text: []; ContentDescription: null; ItemCount: -1; CurrentItemIndex: -1; IsEnabled: false; IsPassword: true; IsChecked: false; IsFullScreen: false; Scrollable: false; BeforeText: null; FromIndex: -1; ToIndex: -1; ScrollX: -1; ScrollY: -1; MaxScrollX: -1; MaxScrollY: -1; AddedCount: -1; RemovedCount: -1; ParcelableData: null ]'
p1582
sS'MovementGranularity'
p1583
g6
sa(dp1584
S'EventTime'
p1585
S'82671938'
p1586
sg4
L1449715662962L
sS'recordCount'
p1587
g6
sS'EventType'
p1588
S'TYPE_VIEW_CLICKED'
p1589
sS'PackageName'
p1590
S'com.example.myfristandroid'
p1591
sS'OutBounds'
p1592
S'Rect(810, 1638 - 1080, 1803)'
p1593
sS'Action'
p1594
S'[ ClassName: android.widget.LinearLayout; Text: [\xe8\xae\xbe\xe7\xbd\xae\xe7\xb3\xbb\xe7\xbb\x9f\xe8\xbf\x90\xe8\xa1\x8c\xe5\x8f\x82\xe6\x95\xb0, \xe8\xae\xbe\xe7\xbd\xae]; ContentDescription: null; ItemCount: -1; CurrentItemIndex: -1; IsEnabled: true; IsPassword: false; IsChecked: false; IsFullScreen: false; Scrollable: false; BeforeText: null; FromIndex: -1; ToIndex: -1; ScrollX: -1; ScrollY: -1; MaxScrollX: -1; MaxScrollY: -1; AddedCount: -1; RemovedCount: -1; ParcelableData: null ]'
p1595
sS'MovementGranularity'
p1596
g6
sa(dp1597
S'EventTime'
p1598
S'82673364'
p1599
sg4
L1449715664394L
sS'recordCount'
p1600
g6
sS'EventType'
p1601
S'TYPE_VIEW_FOCUSED'
p1602
sS'PackageName'
p1603
S'com.example.myfristandroid'
p1604
sS'OutBounds'
p1605
S'Rect(0, 450 - 741, 540)'
p1606
sS'Action'
p1607
S'[ ClassName: android.widget.EditText; Text: [%]; ContentDescription: null; ItemCount: 11; CurrentItemIndex: 4; IsEnabled: true; IsPassword: false; IsChecked: false; IsFullScreen: false; Scrollable: false; BeforeText: null; FromIndex: -1; ToIndex: -1; ScrollX: -1; ScrollY: -1; MaxScrollX: -1; MaxScrollY: -1; AddedCount: -1; RemovedCount: -1; ParcelableData: null ]'
p1608
sS'MovementGranularity'
p1609
g6
sa(dp1610
S'EventTime'
p1611
S'82673371'
p1612
sg4
L1449715664417L
sS'recordCount'
p1613
g6
sS'EventType'
p1614
S'TYPE_VIEW_CLICKED'
p1615
sS'PackageName'
p1616
S'com.example.myfristandroid'
p1617
sS'OutBounds'
p1618
S'Rect(270, 1638 - 540, 1803)'
p1619
sS'Action'
p1620
S'[ ClassName: android.widget.LinearLayout; Text: [\xe6\x9f\xa5\xe7\x9c\x8b\xe5\xae\x9e\xe6\x97\xb6\xe6\x95\xb0\xe6\x8d\xae\xe4\xbf\xa1\xe6\x81\xaf, \xe6\x95\xb0\xe6\x8d\xae]; ContentDescription: null; ItemCount: -1; CurrentItemIndex: -1; IsEnabled: true; IsPassword: false; IsChecked: false; IsFullScreen: false; Scrollable: false; BeforeText: null; FromIndex: -1; ToIndex: -1; ScrollX: -1; ScrollY: -1; MaxScrollX: -1; MaxScrollY: -1; AddedCount: -1; RemovedCount: -1; ParcelableData: null ]'
p1621
sS'MovementGranularity'
p1622
g6
sa(dp1623
S'EventTime'
p1624
S'82673462'
p1625
sg4
L1449715664495L
sS'recordCount'
p1626
g6
sS'EventType'
p1627
S'TYPE_WINDOW_CONTENT_CHANGED'
p1628
sS'PackageName'
p1629
S'com.example.myfristandroid'
p1630
sS'OutBounds'
p1631
S'Rect(0, 210 - 1080, 1638)'
p1632
sS'Action'
p1633
S'[ ClassName: android.support.v4.view.ViewPager; Text: []; ContentDescription: null; ItemCount: -1; CurrentItemIndex: -1; IsEnabled: true; IsPassword: false; IsChecked: false; IsFullScreen: false; Scrollable: false; BeforeText: null; FromIndex: -1; ToIndex: -1; ScrollX: -1; ScrollY: -1; MaxScrollX: -1; MaxScrollY: -1; AddedCount: -1; RemovedCount: -1; ParcelableData: null ]'
p1634
sS'MovementGranularity'
p1635
g6
sa(dp1636
S'EventTime'
p1637
S'82673481'
p1638
sg4
L1449715664542L
sS'recordCount'
p1639
g6
sS'EventType'
p1640
S'TYPE_VIEW_SCROLLED'
p1641
sS'PackageName'
p1642
S'com.example.myfristandroid'
p1643
sS'OutBounds'
p1644
S'Rect(0, 210 - 1080, 1638)'
p1645
sS'Action'
p1646
S'[ ClassName: android.support.v4.view.ViewPager; Text: []; ContentDescription: null; ItemCount: -1; CurrentItemIndex: -1; IsEnabled: true; IsPassword: false; IsChecked: false; IsFullScreen: false; Scrollable: false; BeforeText: null; FromIndex: -1; ToIndex: -1; ScrollX: -1; ScrollY: -1; MaxScrollX: -1; MaxScrollY: -1; AddedCount: -1; RemovedCount: -1; ParcelableData: null ]'
p1647
sS'MovementGranularity'
p1648
g6
sa(dp1649
S'EventTime'
p1650
S'82673600'
p1651
sg4
L1449715664636L
sS'recordCount'
p1652
g6
sS'EventType'
p1653
S'TYPE_VIEW_SCROLLED'
p1654
sS'PackageName'
p1655
S'com.example.myfristandroid'
p1656
sS'OutBounds'
p1657
S'Rect(0, 210 - 1080, 1638)'
p1658
sS'Action'
p1659
S'[ ClassName: android.support.v4.view.ViewPager; Text: []; ContentDescription: null; ItemCount: -1; CurrentItemIndex: -1; IsEnabled: true; IsPassword: false; IsChecked: false; IsFullScreen: false; Scrollable: false; BeforeText: null; FromIndex: -1; ToIndex: -1; ScrollX: -1; ScrollY: -1; MaxScrollX: -1; MaxScrollY: -1; AddedCount: -1; RemovedCount: -1; ParcelableData: null ]'
p1660
sS'MovementGranularity'
p1661
g6
sa(dp1662
S'EventTime'
p1663
S'82673724'
p1664
sg4
L1449715664757L
sS'recordCount'
p1665
g6
sS'EventType'
p1666
S'TYPE_WINDOW_CONTENT_CHANGED'
p1667
sS'PackageName'
p1668
S'com.example.myfristandroid'
p1669
sS'OutBounds'
p1670
S'Rect(0, 210 - 1080, 1638)'
p1671
sS'Action'
p1672
S'[ ClassName: android.support.v4.view.ViewPager; Text: []; ContentDescription: null; ItemCount: -1; CurrentItemIndex: -1; IsEnabled: true; IsPassword: false; IsChecked: false; IsFullScreen: false; Scrollable: false; BeforeText: null; FromIndex: -1; ToIndex: -1; ScrollX: -1; ScrollY: -1; MaxScrollX: -1; MaxScrollY: -1; AddedCount: -1; RemovedCount: -1; ParcelableData: null ]'
p1673
sS'MovementGranularity'
p1674
g6
sa(dp1675
S'EventTime'
p1676
S'82673738'
p1677
sg4
L1449715664783L
sS'recordCount'
p1678
g6
sS'EventType'
p1679
S'TYPE_VIEW_SCROLLED'
p1680
sS'PackageName'
p1681
S'com.example.myfristandroid'
p1682
sS'OutBounds'
p1683
S'Rect(0, 210 - 1080, 1638)'
p1684
sS'Action'
p1685
S'[ ClassName: android.support.v4.view.ViewPager; Text: []; ContentDescription: null; ItemCount: -1; CurrentItemIndex: -1; IsEnabled: true; IsPassword: false; IsChecked: false; IsFullScreen: false; Scrollable: false; BeforeText: null; FromIndex: -1; ToIndex: -1; ScrollX: -1; ScrollY: -1; MaxScrollX: -1; MaxScrollY: -1; AddedCount: -1; RemovedCount: -1; ParcelableData: null ]'
p1686
sS'MovementGranularity'
p1687
g6
sa(dp1688
S'EventTime'
p1689
S'82706240'
p1690
sg4
L1449715697274L
sS'recordCount'
p1691
g6
sS'EventType'
p1692
S'TYPE_VIEW_FOCUSED'
p1693
sS'PackageName'
p1694
S'com.example.myfristandroid'
p1695
sS'OutBounds'
p1696
S'Rect(592, 225 - 1080, 315)'
p1697
sS'Action'
p1698
S'[ ClassName: android.widget.EditText; Text: [218.94.19.234]; ContentDescription: null; ItemCount: 10; CurrentItemIndex: 0; IsEnabled: true; IsPassword: false; IsChecked: false; IsFullScreen: false; Scrollable: false; BeforeText: null; FromIndex: -1; ToIndex: -1; ScrollX: -1; ScrollY: -1; MaxScrollX: -1; MaxScrollY: -1; AddedCount: -1; RemovedCount: -1; ParcelableData: null ]'
p1699
sS'MovementGranularity'
p1700
g6
sa(dp1701
S'EventTime'
p1702
S'82706244'
p1703
sg4
L1449715697292L
sS'recordCount'
p1704
g6
sS'EventType'
p1705
S'TYPE_WINDOW_CONTENT_CHANGED'
p1706
sS'PackageName'
p1707
S'com.example.myfristandroid'
p1708
sS'OutBounds'
p1709
S'Rect(476, 750 - 896, 840)'
p1710
sS'Action'
p1711
S'[ ClassName: android.widget.Button; Text: []; ContentDescription: null; ItemCount: -1; CurrentItemIndex: -1; IsEnabled: true; IsPassword: false; IsChecked: false; IsFullScreen: false; Scrollable: false; BeforeText: null; FromIndex: -1; ToIndex: -1; ScrollX: -1; ScrollY: -1; MaxScrollX: -1; MaxScrollY: -1; AddedCount: -1; RemovedCount: -1; ParcelableData: null ]'
p1712
sS'MovementGranularity'
p1713
g6
sa(dp1714
S'EventTime'
p1715
S'82706245'
p1716
sg4
L1449715697310L
sS'recordCount'
p1717
g6
sS'EventType'
p1718
S'TYPE_VIEW_CLICKED'
p1719
sS'PackageName'
p1720
S'com.example.myfristandroid'
p1721
sS'OutBounds'
p1722
S'Rect(810, 1638 - 1080, 1803)'
p1723
sS'Action'
p1724
S'[ ClassName: android.widget.LinearLayout; Text: [\xe8\xae\xbe\xe7\xbd\xae\xe7\xb3\xbb\xe7\xbb\x9f\xe8\xbf\x90\xe8\xa1\x8c\xe5\x8f\x82\xe6\x95\xb0, \xe8\xae\xbe\xe7\xbd\xae]; ContentDescription: null; ItemCount: -1; CurrentItemIndex: -1; IsEnabled: true; IsPassword: false; IsChecked: false; IsFullScreen: false; Scrollable: false; BeforeText: null; FromIndex: -1; ToIndex: -1; ScrollX: -1; ScrollY: -1; MaxScrollX: -1; MaxScrollY: -1; AddedCount: -1; RemovedCount: -1; ParcelableData: null ]'
p1725
sS'MovementGranularity'
p1726
g6
sa(dp1727
S'EventTime'
p1728
S'82706357'
p1729
sg4
L1449715697386L
sS'recordCount'
p1730
g6
sS'EventType'
p1731
S'TYPE_VIEW_SCROLLED'
p1732
sS'PackageName'
p1733
S'com.example.myfristandroid'
p1734
sS'OutBounds'
p1735
S'Rect(0, 210 - 1080, 1638)'
p1736
sS'Action'
p1737
S'[ ClassName: android.support.v4.view.ViewPager; Text: []; ContentDescription: null; ItemCount: -1; CurrentItemIndex: -1; IsEnabled: true; IsPassword: false; IsChecked: false; IsFullScreen: false; Scrollable: false; BeforeText: null; FromIndex: -1; ToIndex: -1; ScrollX: -1; ScrollY: -1; MaxScrollX: -1; MaxScrollY: -1; AddedCount: -1; RemovedCount: -1; ParcelableData: null ]'
p1738
sS'MovementGranularity'
p1739
g6
sa(dp1740
S'EventTime'
p1741
S'82706470'
p1742
sg4
L1449715697505L
sS'recordCount'
p1743
g6
sS'EventType'
p1744
S'TYPE_VIEW_SCROLLED'
p1745
sS'PackageName'
p1746
S'com.example.myfristandroid'
p1747
sS'OutBounds'
p1748
S'Rect(0, 210 - 1080, 1638)'
p1749
sS'Action'
p1750
S'[ ClassName: android.support.v4.view.ViewPager; Text: []; ContentDescription: null; ItemCount: -1; CurrentItemIndex: -1; IsEnabled: true; IsPassword: false; IsChecked: false; IsFullScreen: false; Scrollable: false; BeforeText: null; FromIndex: -1; ToIndex: -1; ScrollX: -1; ScrollY: -1; MaxScrollX: -1; MaxScrollY: -1; AddedCount: -1; RemovedCount: -1; ParcelableData: null ]'
p1751
sS'MovementGranularity'
p1752
g6
sa(dp1753
S'EventTime'
p1754
S'82706584'
p1755
sg4
L1449715697614L
sS'recordCount'
p1756
g6
sS'EventType'
p1757
S'TYPE_WINDOW_CONTENT_CHANGED'
p1758
sS'PackageName'
p1759
S'com.example.myfristandroid'
p1760
sS'OutBounds'
p1761
S'Rect(0, 210 - 1080, 1638)'
p1762
sS'Action'
p1763
S'[ ClassName: android.support.v4.view.ViewPager; Text: []; ContentDescription: null; ItemCount: -1; CurrentItemIndex: -1; IsEnabled: true; IsPassword: false; IsChecked: false; IsFullScreen: false; Scrollable: false; BeforeText: null; FromIndex: -1; ToIndex: -1; ScrollX: -1; ScrollY: -1; MaxScrollX: -1; MaxScrollY: -1; AddedCount: -1; RemovedCount: -1; ParcelableData: null ]'
p1764
sS'MovementGranularity'
p1765
g6
sa(dp1766
S'EventTime'
p1767
S'82706599'
p1768
sg4
L1449715697635L
sS'recordCount'
p1769
g6
sS'EventType'
p1770
S'TYPE_VIEW_SCROLLED'
p1771
sS'PackageName'
p1772
S'com.example.myfristandroid'
p1773
sS'OutBounds'
p1774
S'Rect(0, 210 - 1080, 1638)'
p1775
sS'Action'
p1776
S'[ ClassName: android.support.v4.view.ViewPager; Text: []; ContentDescription: null; ItemCount: -1; CurrentItemIndex: -1; IsEnabled: true; IsPassword: false; IsChecked: false; IsFullScreen: false; Scrollable: false; BeforeText: null; FromIndex: -1; ToIndex: -1; ScrollX: -1; ScrollY: -1; MaxScrollX: -1; MaxScrollY: -1; AddedCount: -1; RemovedCount: -1; ParcelableData: null ]'
p1777
sS'MovementGranularity'
p1778
g6
sa(dp1779
S'EventTime'
p1780
S'82706684'
p1781
sg4
L1449715697717L
sS'recordCount'
p1782
g6
sS'EventType'
p1783
S'TYPE_WINDOW_CONTENT_CHANGED'
p1784
sS'PackageName'
p1785
S'com.example.myfristandroid'
p1786
sS'OutBounds'
p1787
S'Rect(0, 210 - 1080, 1638)'
p1788
sS'Action'
p1789
S'[ ClassName: android.support.v4.view.ViewPager; Text: []; ContentDescription: null; ItemCount: -1; CurrentItemIndex: -1; IsEnabled: true; IsPassword: false; IsChecked: false; IsFullScreen: false; Scrollable: false; BeforeText: null; FromIndex: -1; ToIndex: -1; ScrollX: -1; ScrollY: -1; MaxScrollX: -1; MaxScrollY: -1; AddedCount: -1; RemovedCount: -1; ParcelableData: null ]'
p1790
sS'MovementGranularity'
p1791
g6
sa(dp1792
S'EventTime'
p1793
S'82714543'
p1794
sg4
L1449715705567L
sS'recordCount'
p1795
g6
sS'EventType'
p1796
S'TYPE_WINDOW_STATE_CHANGED'
p1797
sS'PackageName'
p1798
S'com.example.myfristandroid'
p1799
sS'OutBounds'
p1800
S'Rect(0, 0 - 1080, 1803)'
p1801
sS'Action'
p1802
S'[ ClassName: com.example.myfristandroid.HuzAlertDialog; Text: [\xe9\x80\x80\xe5\x87\xba, \xe7\xa1\xae\xe5\xae\x9a\xe9\x80\x80\xe5\x87\xba\xe7\xb3\xbb\xe7\xbb\x9f\xe5\x90\x97\xef\xbc\x9f, \xe5\x90\x8e\xe5\x8f\xb0\xe8\xbf\x90\xe8\xa1\x8c, \xe9\x80\x80\xe5\x87\xba]; ContentDescription: null; ItemCount: -1; CurrentItemIndex: -1; IsEnabled: true; IsPassword: false; IsChecked: false; IsFullScreen: true; Scrollable: false; BeforeText: null; FromIndex: -1; ToIndex: -1; ScrollX: -1; ScrollY: -1; MaxScrollX: -1; MaxScrollY: -1; AddedCount: -1; RemovedCount: -1; ParcelableData: null ]'
p1803
sS'MovementGranularity'
p1804
g6
sa(dp1805
S'EventTime'
p1806
S'82714623'
p1807
sg4
L1449715705645L
sS'recordCount'
p1808
g6
sS'EventType'
p1809
S'TYPE_WINDOW_CONTENT_CHANGED'
p1810
sS'PackageName'
p1811
S'com.example.myfristandroid'
p1812
sS'OutBounds'
p1813
S'Rect(558, 1004 - 1018, 1148)'
p1814
sS'Action'
p1815
S'[ ClassName: android.widget.Button; Text: []; ContentDescription: null; ItemCount: -1; CurrentItemIndex: -1; IsEnabled: true; IsPassword: false; IsChecked: false; IsFullScreen: false; Scrollable: false; BeforeText: null; FromIndex: -1; ToIndex: -1; ScrollX: -1; ScrollY: -1; MaxScrollX: -1; MaxScrollY: -1; AddedCount: -1; RemovedCount: -1; ParcelableData: null ]'
p1816
sS'MovementGranularity'
p1817
g6
sa(dp1818
S'EventTime'
p1819
S'82715469'
p1820
sg4
L1449715706494L
sS'recordCount'
p1821
g6
sS'EventType'
p1822
S'TYPE_VIEW_CLICKED'
p1823
sS'PackageName'
p1824
S'com.example.myfristandroid'
p1825
sS'Action'
p1826
S'[ ClassName: android.widget.Button; Text: [\xe5\x90\x8e\xe5\x8f\xb0\xe8\xbf\x90\xe8\xa1\x8c]; ContentDescription: null; ItemCount: -1; CurrentItemIndex: -1; IsEnabled: true; IsPassword: false; IsChecked: false; IsFullScreen: false; Scrollable: false; BeforeText: null; FromIndex: -1; ToIndex: -1; ScrollX: -1; ScrollY: -1; MaxScrollX: -1; MaxScrollY: -1; AddedCount: -1; RemovedCount: -1; ParcelableData: null ]'
p1827
sS'MovementGranularity'
p1828
g6
sa(dp1829
S'EventTime'
p1830
S'82715583'
p1831
sg4
L1449715706604L
sS'recordCount'
p1832
g6
sS'EventType'
p1833
S'TYPE_NOTIFICATION_STATE_CHANGED'
p1834
sS'PackageName'
p1835
S'com.example.myfristandroid'
p1836
sS'Action'
p1837
S'[ ClassName: android.widget.Toast$TN; Text: [\xe5\x90\x8e\xe5\x8f\xb0\xe8\xbf\x90\xe8\xa1\x8c]; ContentDescription: null; ItemCount: -1; CurrentItemIndex: -1; IsEnabled: false; IsPassword: false; IsChecked: false; IsFullScreen: false; Scrollable: false; BeforeText: null; FromIndex: -1; ToIndex: -1; ScrollX: -1; ScrollY: -1; MaxScrollX: -1; MaxScrollY: -1; AddedCount: -1; RemovedCount: -1; ParcelableData: null ]'
p1838
sS'MovementGranularity'
p1839
g6
sa(dp1840
S'EventTime'
p1841
S'82715615'
p1842
sg4
L1449715706647L
sS'recordCount'
p1843
g6
sS'EventType'
p1844
S'TYPE_WINDOW_STATE_CHANGED'
p1845
sS'PackageName'
p1846
S'com.example.myfristandroid'
p1847
sS'Action'
p1848
S'[ ClassName: com.example.myfristandroid.MainActivity; Text: [SE-1800\xe7\xa7\xbb\xe5\x8a\xa8APP]; ContentDescription: null; ItemCount: -1; CurrentItemIndex: -1; IsEnabled: true; IsPassword: false; IsChecked: false; IsFullScreen: true; Scrollable: false; BeforeText: null; FromIndex: -1; ToIndex: -1; ScrollX: -1; ScrollY: -1; MaxScrollX: -1; MaxScrollY: -1; AddedCount: -1; RemovedCount: -1; ParcelableData: null ]'
p1849
sS'MovementGranularity'
p1850
g6
sa.